ARM GAS  C:\Users\fneves\AppData\Local\Temp\ccJ84FR3.s 			page 1


   1              		.cpu cortex-m0plus
   2              		.fpu softvfp
   3              		.eabi_attribute 20, 1
   4              		.eabi_attribute 21, 1
   5              		.eabi_attribute 23, 3
   6              		.eabi_attribute 24, 1
   7              		.eabi_attribute 25, 1
   8              		.eabi_attribute 26, 1
   9              		.eabi_attribute 30, 6
  10              		.eabi_attribute 34, 0
  11              		.eabi_attribute 18, 4
  12              		.code	16
  13              		.file	"arm_mean_q7.c"
  14              		.text
  15              	.Ltext0:
  16              		.cfi_sections	.debug_frame
  17              		.global	__aeabi_idiv
  18              		.section	.text.arm_mean_q7,"ax",%progbits
  19              		.align	2
  20              		.global	arm_mean_q7
  21              		.code	16
  22              		.thumb_func
  23              		.type	arm_mean_q7, %function
  24              	arm_mean_q7:
  25              	.LFB82:
  26              		.file 1 "Source\\StatisticsFunctions\\arm_mean_q7.c"
   1:Source\StatisticsFunctions/arm_mean_q7.c **** /* ----------------------------------------------------------------------
   2:Source\StatisticsFunctions/arm_mean_q7.c ****  * Project:      CMSIS DSP Library
   3:Source\StatisticsFunctions/arm_mean_q7.c ****  * Title:        arm_mean_q7.c
   4:Source\StatisticsFunctions/arm_mean_q7.c ****  * Description:  Mean value of a Q7 vector
   5:Source\StatisticsFunctions/arm_mean_q7.c ****  *
   6:Source\StatisticsFunctions/arm_mean_q7.c ****  * $Date:        27. January 2017
   7:Source\StatisticsFunctions/arm_mean_q7.c ****  * $Revision:    V.1.5.1
   8:Source\StatisticsFunctions/arm_mean_q7.c ****  *
   9:Source\StatisticsFunctions/arm_mean_q7.c ****  * Target Processor: Cortex-M cores
  10:Source\StatisticsFunctions/arm_mean_q7.c ****  * -------------------------------------------------------------------- */
  11:Source\StatisticsFunctions/arm_mean_q7.c **** /*
  12:Source\StatisticsFunctions/arm_mean_q7.c ****  * Copyright (C) 2010-2017 ARM Limited or its affiliates. All rights reserved.
  13:Source\StatisticsFunctions/arm_mean_q7.c ****  *
  14:Source\StatisticsFunctions/arm_mean_q7.c ****  * SPDX-License-Identifier: Apache-2.0
  15:Source\StatisticsFunctions/arm_mean_q7.c ****  *
  16:Source\StatisticsFunctions/arm_mean_q7.c ****  * Licensed under the Apache License, Version 2.0 (the License); you may
  17:Source\StatisticsFunctions/arm_mean_q7.c ****  * not use this file except in compliance with the License.
  18:Source\StatisticsFunctions/arm_mean_q7.c ****  * You may obtain a copy of the License at
  19:Source\StatisticsFunctions/arm_mean_q7.c ****  *
  20:Source\StatisticsFunctions/arm_mean_q7.c ****  * www.apache.org/licenses/LICENSE-2.0
  21:Source\StatisticsFunctions/arm_mean_q7.c ****  *
  22:Source\StatisticsFunctions/arm_mean_q7.c ****  * Unless required by applicable law or agreed to in writing, software
  23:Source\StatisticsFunctions/arm_mean_q7.c ****  * distributed under the License is distributed on an AS IS BASIS, WITHOUT
  24:Source\StatisticsFunctions/arm_mean_q7.c ****  * WARRANTIES OR CONDITIONS OF ANY KIND, either express or implied.
  25:Source\StatisticsFunctions/arm_mean_q7.c ****  * See the License for the specific language governing permissions and
  26:Source\StatisticsFunctions/arm_mean_q7.c ****  * limitations under the License.
  27:Source\StatisticsFunctions/arm_mean_q7.c ****  */
  28:Source\StatisticsFunctions/arm_mean_q7.c **** 
  29:Source\StatisticsFunctions/arm_mean_q7.c **** #include "arm_math.h"
  30:Source\StatisticsFunctions/arm_mean_q7.c **** 
  31:Source\StatisticsFunctions/arm_mean_q7.c **** /**
ARM GAS  C:\Users\fneves\AppData\Local\Temp\ccJ84FR3.s 			page 2


  32:Source\StatisticsFunctions/arm_mean_q7.c ****  * @ingroup groupStats
  33:Source\StatisticsFunctions/arm_mean_q7.c ****  */
  34:Source\StatisticsFunctions/arm_mean_q7.c **** 
  35:Source\StatisticsFunctions/arm_mean_q7.c **** /**
  36:Source\StatisticsFunctions/arm_mean_q7.c ****  * @addtogroup mean
  37:Source\StatisticsFunctions/arm_mean_q7.c ****  * @{
  38:Source\StatisticsFunctions/arm_mean_q7.c ****  */
  39:Source\StatisticsFunctions/arm_mean_q7.c **** 
  40:Source\StatisticsFunctions/arm_mean_q7.c **** 
  41:Source\StatisticsFunctions/arm_mean_q7.c **** /**
  42:Source\StatisticsFunctions/arm_mean_q7.c ****  * @brief Mean value of a Q7 vector.
  43:Source\StatisticsFunctions/arm_mean_q7.c ****  * @param[in]       *pSrc points to the input vector
  44:Source\StatisticsFunctions/arm_mean_q7.c ****  * @param[in]       blockSize length of the input vector
  45:Source\StatisticsFunctions/arm_mean_q7.c ****  * @param[out]      *pResult mean value returned here
  46:Source\StatisticsFunctions/arm_mean_q7.c ****  * @return none.
  47:Source\StatisticsFunctions/arm_mean_q7.c ****  *
  48:Source\StatisticsFunctions/arm_mean_q7.c ****  * @details
  49:Source\StatisticsFunctions/arm_mean_q7.c ****  * <b>Scaling and Overflow Behavior:</b>
  50:Source\StatisticsFunctions/arm_mean_q7.c ****  * \par
  51:Source\StatisticsFunctions/arm_mean_q7.c ****  * The function is implemented using a 32-bit internal accumulator.
  52:Source\StatisticsFunctions/arm_mean_q7.c ****  * The input is represented in 1.7 format and is accumulated in a 32-bit
  53:Source\StatisticsFunctions/arm_mean_q7.c ****  * accumulator in 25.7 format.
  54:Source\StatisticsFunctions/arm_mean_q7.c ****  * There is no risk of internal overflow with this approach, and the
  55:Source\StatisticsFunctions/arm_mean_q7.c ****  * full precision of intermediate result is preserved.
  56:Source\StatisticsFunctions/arm_mean_q7.c ****  * Finally, the accumulator is truncated to yield a result of 1.7 format.
  57:Source\StatisticsFunctions/arm_mean_q7.c ****  *
  58:Source\StatisticsFunctions/arm_mean_q7.c ****  */
  59:Source\StatisticsFunctions/arm_mean_q7.c **** 
  60:Source\StatisticsFunctions/arm_mean_q7.c **** void arm_mean_q7(
  61:Source\StatisticsFunctions/arm_mean_q7.c ****   q7_t * pSrc,
  62:Source\StatisticsFunctions/arm_mean_q7.c ****   uint32_t blockSize,
  63:Source\StatisticsFunctions/arm_mean_q7.c ****   q7_t * pResult)
  64:Source\StatisticsFunctions/arm_mean_q7.c **** {
  27              		.loc 1 64 0
  28              		.cfi_startproc
  29 0000 80B5     		push	{r7, lr}
  30              		.cfi_def_cfa_offset 8
  31              		.cfi_offset 7, -8
  32              		.cfi_offset 14, -4
  33 0002 86B0     		sub	sp, sp, #24
  34              		.cfi_def_cfa_offset 32
  35 0004 00AF     		add	r7, sp, #0
  36              		.cfi_def_cfa_register 7
  37 0006 F860     		str	r0, [r7, #12]
  38 0008 B960     		str	r1, [r7, #8]
  39 000a 7A60     		str	r2, [r7, #4]
  65:Source\StatisticsFunctions/arm_mean_q7.c ****   q31_t sum = 0;                                 /* Temporary result storage */
  40              		.loc 1 65 0
  41 000c 0023     		mov	r3, #0
  42 000e 7B61     		str	r3, [r7, #20]
  66:Source\StatisticsFunctions/arm_mean_q7.c ****   uint32_t blkCnt;                               /* loop counter */
  67:Source\StatisticsFunctions/arm_mean_q7.c **** 
  68:Source\StatisticsFunctions/arm_mean_q7.c **** #if defined (ARM_MATH_DSP)
  69:Source\StatisticsFunctions/arm_mean_q7.c ****   /* Run the below code for Cortex-M4 and Cortex-M3 */
  70:Source\StatisticsFunctions/arm_mean_q7.c **** 
  71:Source\StatisticsFunctions/arm_mean_q7.c ****   q31_t in;
  72:Source\StatisticsFunctions/arm_mean_q7.c **** 
ARM GAS  C:\Users\fneves\AppData\Local\Temp\ccJ84FR3.s 			page 3


  73:Source\StatisticsFunctions/arm_mean_q7.c ****   /*loop Unrolling */
  74:Source\StatisticsFunctions/arm_mean_q7.c ****   blkCnt = blockSize >> 2u;
  75:Source\StatisticsFunctions/arm_mean_q7.c **** 
  76:Source\StatisticsFunctions/arm_mean_q7.c ****   /* First part of the processing with loop unrolling.  Compute 4 outputs at a time.
  77:Source\StatisticsFunctions/arm_mean_q7.c ****    ** a second loop below computes the remaining 1 to 3 samples. */
  78:Source\StatisticsFunctions/arm_mean_q7.c ****   while (blkCnt > 0u)
  79:Source\StatisticsFunctions/arm_mean_q7.c ****   {
  80:Source\StatisticsFunctions/arm_mean_q7.c ****     /* C = (A[0] + A[1] + A[2] + ... + A[blockSize-1]) */
  81:Source\StatisticsFunctions/arm_mean_q7.c ****     in = *__SIMD32(pSrc)++;
  82:Source\StatisticsFunctions/arm_mean_q7.c **** 
  83:Source\StatisticsFunctions/arm_mean_q7.c ****     sum += ((in << 24u) >> 24u);
  84:Source\StatisticsFunctions/arm_mean_q7.c ****     sum += ((in << 16u) >> 24u);
  85:Source\StatisticsFunctions/arm_mean_q7.c ****     sum += ((in <<  8u) >> 24u);
  86:Source\StatisticsFunctions/arm_mean_q7.c ****     sum +=  (in >> 24u);
  87:Source\StatisticsFunctions/arm_mean_q7.c **** 
  88:Source\StatisticsFunctions/arm_mean_q7.c ****     /* Decrement the loop counter */
  89:Source\StatisticsFunctions/arm_mean_q7.c ****     blkCnt--;
  90:Source\StatisticsFunctions/arm_mean_q7.c ****   }
  91:Source\StatisticsFunctions/arm_mean_q7.c **** 
  92:Source\StatisticsFunctions/arm_mean_q7.c ****   /* If the blockSize is not a multiple of 4, compute any remaining output samples here.
  93:Source\StatisticsFunctions/arm_mean_q7.c ****    ** No loop unrolling is used. */
  94:Source\StatisticsFunctions/arm_mean_q7.c ****   blkCnt = blockSize % 0x4u;
  95:Source\StatisticsFunctions/arm_mean_q7.c **** 
  96:Source\StatisticsFunctions/arm_mean_q7.c **** #else
  97:Source\StatisticsFunctions/arm_mean_q7.c ****   /* Run the below code for Cortex-M0 */
  98:Source\StatisticsFunctions/arm_mean_q7.c **** 
  99:Source\StatisticsFunctions/arm_mean_q7.c ****   /* Loop over blockSize number of values */
 100:Source\StatisticsFunctions/arm_mean_q7.c ****   blkCnt = blockSize;
  43              		.loc 1 100 0
  44 0010 BB68     		ldr	r3, [r7, #8]
  45 0012 3B61     		str	r3, [r7, #16]
 101:Source\StatisticsFunctions/arm_mean_q7.c **** 
 102:Source\StatisticsFunctions/arm_mean_q7.c **** #endif /* #if defined (ARM_MATH_DSP) */
 103:Source\StatisticsFunctions/arm_mean_q7.c **** 
 104:Source\StatisticsFunctions/arm_mean_q7.c ****   while (blkCnt > 0u)
  46              		.loc 1 104 0
  47 0014 0AE0     		b	.L2
  48              	.L3:
 105:Source\StatisticsFunctions/arm_mean_q7.c ****   {
 106:Source\StatisticsFunctions/arm_mean_q7.c ****     /* C = (A[0] + A[1] + A[2] + ... + A[blockSize-1]) */
 107:Source\StatisticsFunctions/arm_mean_q7.c ****     sum += *pSrc++;
  49              		.loc 1 107 0
  50 0016 FB68     		ldr	r3, [r7, #12]
  51 0018 5A1C     		add	r2, r3, #1
  52 001a FA60     		str	r2, [r7, #12]
  53 001c 1B78     		ldrb	r3, [r3]
  54 001e 5BB2     		sxtb	r3, r3
  55 0020 7A69     		ldr	r2, [r7, #20]
  56 0022 D318     		add	r3, r2, r3
  57 0024 7B61     		str	r3, [r7, #20]
 108:Source\StatisticsFunctions/arm_mean_q7.c **** 
 109:Source\StatisticsFunctions/arm_mean_q7.c ****     /* Decrement the loop counter */
 110:Source\StatisticsFunctions/arm_mean_q7.c ****     blkCnt--;
  58              		.loc 1 110 0
  59 0026 3B69     		ldr	r3, [r7, #16]
  60 0028 013B     		sub	r3, r3, #1
  61 002a 3B61     		str	r3, [r7, #16]
ARM GAS  C:\Users\fneves\AppData\Local\Temp\ccJ84FR3.s 			page 4


  62              	.L2:
 104:Source\StatisticsFunctions/arm_mean_q7.c ****   {
  63              		.loc 1 104 0
  64 002c 3B69     		ldr	r3, [r7, #16]
  65 002e 002B     		cmp	r3, #0
  66 0030 F1D1     		bne	.L3
 111:Source\StatisticsFunctions/arm_mean_q7.c ****   }
 112:Source\StatisticsFunctions/arm_mean_q7.c **** 
 113:Source\StatisticsFunctions/arm_mean_q7.c ****   /* C = (A[0] + A[1] + A[2] + ... + A[blockSize-1]) / blockSize  */
 114:Source\StatisticsFunctions/arm_mean_q7.c ****   /* Store the result to the destination */
 115:Source\StatisticsFunctions/arm_mean_q7.c ****   *pResult = (q7_t) (sum / (int32_t) blockSize);
  67              		.loc 1 115 0
  68 0032 BB68     		ldr	r3, [r7, #8]
  69 0034 7869     		ldr	r0, [r7, #20]
  70 0036 191C     		mov	r1, r3
  71 0038 FFF7FEFF 		bl	__aeabi_idiv
  72 003c 031C     		mov	r3, r0
  73 003e DAB2     		uxtb	r2, r3
  74 0040 7B68     		ldr	r3, [r7, #4]
  75 0042 1A70     		strb	r2, [r3]
 116:Source\StatisticsFunctions/arm_mean_q7.c **** }
  76              		.loc 1 116 0
  77 0044 BD46     		mov	sp, r7
  78 0046 06B0     		add	sp, sp, #24
  79              		@ sp needed
  80 0048 80BD     		pop	{r7, pc}
  81              		.cfi_endproc
  82              	.LFE82:
  83              		.size	arm_mean_q7, .-arm_mean_q7
  84 004a C046     		.text
  85              	.Letext0:
  86              		.file 2 "c:\\program files (x86)\\cypress\\psoc creator\\4.0\\psoc creator\\import\\gnu\\arm\\4.9.
  87              		.file 3 "c:\\program files (x86)\\cypress\\psoc creator\\4.0\\psoc creator\\import\\gnu\\arm\\4.9.
  88              		.file 4 ".\\Include/arm_math.h"