ARM GAS  C:\Users\fneves\AppData\Local\Temp\cc5cvZJf.s 			page 1


   1              		.cpu cortex-m0plus
   2              		.fpu softvfp
   3              		.eabi_attribute 20, 1
   4              		.eabi_attribute 21, 1
   5              		.eabi_attribute 23, 3
   6              		.eabi_attribute 24, 1
   7              		.eabi_attribute 25, 1
   8              		.eabi_attribute 26, 1
   9              		.eabi_attribute 30, 6
  10              		.eabi_attribute 34, 0
  11              		.eabi_attribute 18, 4
  12              		.code	16
  13              		.file	"arm_power_q15.c"
  14              		.text
  15              	.Ltext0:
  16              		.cfi_sections	.debug_frame
  17              		.section	.text.arm_power_q15,"ax",%progbits
  18              		.align	2
  19              		.global	arm_power_q15
  20              		.code	16
  21              		.thumb_func
  22              		.type	arm_power_q15, %function
  23              	arm_power_q15:
  24              	.LFB82:
  25              		.file 1 "Source\\StatisticsFunctions\\arm_power_q15.c"
   1:Source\StatisticsFunctions/arm_power_q15.c **** /* ----------------------------------------------------------------------
   2:Source\StatisticsFunctions/arm_power_q15.c ****  * Project:      CMSIS DSP Library
   3:Source\StatisticsFunctions/arm_power_q15.c ****  * Title:        arm_power_q15.c
   4:Source\StatisticsFunctions/arm_power_q15.c ****  * Description:  Sum of the squares of the elements of a Q15 vector
   5:Source\StatisticsFunctions/arm_power_q15.c ****  *
   6:Source\StatisticsFunctions/arm_power_q15.c ****  * $Date:        27. January 2017
   7:Source\StatisticsFunctions/arm_power_q15.c ****  * $Revision:    V.1.5.1
   8:Source\StatisticsFunctions/arm_power_q15.c ****  *
   9:Source\StatisticsFunctions/arm_power_q15.c ****  * Target Processor: Cortex-M cores
  10:Source\StatisticsFunctions/arm_power_q15.c ****  * -------------------------------------------------------------------- */
  11:Source\StatisticsFunctions/arm_power_q15.c **** /*
  12:Source\StatisticsFunctions/arm_power_q15.c ****  * Copyright (C) 2010-2017 ARM Limited or its affiliates. All rights reserved.
  13:Source\StatisticsFunctions/arm_power_q15.c ****  *
  14:Source\StatisticsFunctions/arm_power_q15.c ****  * SPDX-License-Identifier: Apache-2.0
  15:Source\StatisticsFunctions/arm_power_q15.c ****  *
  16:Source\StatisticsFunctions/arm_power_q15.c ****  * Licensed under the Apache License, Version 2.0 (the License); you may
  17:Source\StatisticsFunctions/arm_power_q15.c ****  * not use this file except in compliance with the License.
  18:Source\StatisticsFunctions/arm_power_q15.c ****  * You may obtain a copy of the License at
  19:Source\StatisticsFunctions/arm_power_q15.c ****  *
  20:Source\StatisticsFunctions/arm_power_q15.c ****  * www.apache.org/licenses/LICENSE-2.0
  21:Source\StatisticsFunctions/arm_power_q15.c ****  *
  22:Source\StatisticsFunctions/arm_power_q15.c ****  * Unless required by applicable law or agreed to in writing, software
  23:Source\StatisticsFunctions/arm_power_q15.c ****  * distributed under the License is distributed on an AS IS BASIS, WITHOUT
  24:Source\StatisticsFunctions/arm_power_q15.c ****  * WARRANTIES OR CONDITIONS OF ANY KIND, either express or implied.
  25:Source\StatisticsFunctions/arm_power_q15.c ****  * See the License for the specific language governing permissions and
  26:Source\StatisticsFunctions/arm_power_q15.c ****  * limitations under the License.
  27:Source\StatisticsFunctions/arm_power_q15.c ****  */
  28:Source\StatisticsFunctions/arm_power_q15.c **** 
  29:Source\StatisticsFunctions/arm_power_q15.c **** #include "arm_math.h"
  30:Source\StatisticsFunctions/arm_power_q15.c **** 
  31:Source\StatisticsFunctions/arm_power_q15.c **** /**
  32:Source\StatisticsFunctions/arm_power_q15.c ****  * @ingroup groupStats
ARM GAS  C:\Users\fneves\AppData\Local\Temp\cc5cvZJf.s 			page 2


  33:Source\StatisticsFunctions/arm_power_q15.c ****  */
  34:Source\StatisticsFunctions/arm_power_q15.c **** 
  35:Source\StatisticsFunctions/arm_power_q15.c **** /**
  36:Source\StatisticsFunctions/arm_power_q15.c ****  * @addtogroup power
  37:Source\StatisticsFunctions/arm_power_q15.c ****  * @{
  38:Source\StatisticsFunctions/arm_power_q15.c ****  */
  39:Source\StatisticsFunctions/arm_power_q15.c **** 
  40:Source\StatisticsFunctions/arm_power_q15.c **** /**
  41:Source\StatisticsFunctions/arm_power_q15.c ****  * @brief Sum of the squares of the elements of a Q15 vector.
  42:Source\StatisticsFunctions/arm_power_q15.c ****  * @param[in]       *pSrc points to the input vector
  43:Source\StatisticsFunctions/arm_power_q15.c ****  * @param[in]       blockSize length of the input vector
  44:Source\StatisticsFunctions/arm_power_q15.c ****  * @param[out]      *pResult sum of the squares value returned here
  45:Source\StatisticsFunctions/arm_power_q15.c ****  * @return none.
  46:Source\StatisticsFunctions/arm_power_q15.c ****  *
  47:Source\StatisticsFunctions/arm_power_q15.c ****  * @details
  48:Source\StatisticsFunctions/arm_power_q15.c ****  * <b>Scaling and Overflow Behavior:</b>
  49:Source\StatisticsFunctions/arm_power_q15.c ****  *
  50:Source\StatisticsFunctions/arm_power_q15.c ****  * \par
  51:Source\StatisticsFunctions/arm_power_q15.c ****  * The function is implemented using a 64-bit internal accumulator.
  52:Source\StatisticsFunctions/arm_power_q15.c ****  * The input is represented in 1.15 format.
  53:Source\StatisticsFunctions/arm_power_q15.c ****  * Intermediate multiplication yields a 2.30 format, and this
  54:Source\StatisticsFunctions/arm_power_q15.c ****  * result is added without saturation to a 64-bit accumulator in 34.30 format.
  55:Source\StatisticsFunctions/arm_power_q15.c ****  * With 33 guard bits in the accumulator, there is no risk of overflow, and the
  56:Source\StatisticsFunctions/arm_power_q15.c ****  * full precision of the intermediate multiplication is preserved.
  57:Source\StatisticsFunctions/arm_power_q15.c ****  * Finally, the return result is in 34.30 format.
  58:Source\StatisticsFunctions/arm_power_q15.c ****  *
  59:Source\StatisticsFunctions/arm_power_q15.c ****  */
  60:Source\StatisticsFunctions/arm_power_q15.c **** 
  61:Source\StatisticsFunctions/arm_power_q15.c **** void arm_power_q15(
  62:Source\StatisticsFunctions/arm_power_q15.c ****   q15_t * pSrc,
  63:Source\StatisticsFunctions/arm_power_q15.c ****   uint32_t blockSize,
  64:Source\StatisticsFunctions/arm_power_q15.c ****   q63_t * pResult)
  65:Source\StatisticsFunctions/arm_power_q15.c **** {
  26              		.loc 1 65 0
  27              		.cfi_startproc
  28 0000 F0B5     		push	{r4, r5, r6, r7, lr}
  29              		.cfi_def_cfa_offset 20
  30              		.cfi_offset 4, -20
  31              		.cfi_offset 5, -16
  32              		.cfi_offset 6, -12
  33              		.cfi_offset 7, -8
  34              		.cfi_offset 14, -4
  35 0002 89B0     		sub	sp, sp, #36
  36              		.cfi_def_cfa_offset 56
  37 0004 00AF     		add	r7, sp, #0
  38              		.cfi_def_cfa_register 7
  39 0006 F860     		str	r0, [r7, #12]
  40 0008 B960     		str	r1, [r7, #8]
  41 000a 7A60     		str	r2, [r7, #4]
  66:Source\StatisticsFunctions/arm_power_q15.c ****   q63_t sum = 0;                                 /* Temporary result storage */
  42              		.loc 1 66 0
  43 000c 0023     		mov	r3, #0
  44 000e 0024     		mov	r4, #0
  45 0010 BB61     		str	r3, [r7, #24]
  46 0012 FC61     		str	r4, [r7, #28]
  67:Source\StatisticsFunctions/arm_power_q15.c **** 
  68:Source\StatisticsFunctions/arm_power_q15.c **** #if defined (ARM_MATH_DSP)
ARM GAS  C:\Users\fneves\AppData\Local\Temp\cc5cvZJf.s 			page 3


  69:Source\StatisticsFunctions/arm_power_q15.c ****   /* Run the below code for Cortex-M4 and Cortex-M3 */
  70:Source\StatisticsFunctions/arm_power_q15.c **** 
  71:Source\StatisticsFunctions/arm_power_q15.c ****   q31_t in32;                                    /* Temporary variable to store input value */
  72:Source\StatisticsFunctions/arm_power_q15.c ****   q15_t in16;                                    /* Temporary variable to store input value */
  73:Source\StatisticsFunctions/arm_power_q15.c ****   uint32_t blkCnt;                               /* loop counter */
  74:Source\StatisticsFunctions/arm_power_q15.c **** 
  75:Source\StatisticsFunctions/arm_power_q15.c **** 
  76:Source\StatisticsFunctions/arm_power_q15.c ****   /* loop Unrolling */
  77:Source\StatisticsFunctions/arm_power_q15.c ****   blkCnt = blockSize >> 2u;
  78:Source\StatisticsFunctions/arm_power_q15.c **** 
  79:Source\StatisticsFunctions/arm_power_q15.c ****   /* First part of the processing with loop unrolling.  Compute 4 outputs at a time.
  80:Source\StatisticsFunctions/arm_power_q15.c ****    ** a second loop below computes the remaining 1 to 3 samples. */
  81:Source\StatisticsFunctions/arm_power_q15.c ****   while (blkCnt > 0u)
  82:Source\StatisticsFunctions/arm_power_q15.c ****   {
  83:Source\StatisticsFunctions/arm_power_q15.c ****     /* C = A[0] * A[0] + A[1] * A[1] + A[2] * A[2] + ... + A[blockSize-1] * A[blockSize-1] */
  84:Source\StatisticsFunctions/arm_power_q15.c ****     /* Compute Power and then store the result in a temporary variable, sum. */
  85:Source\StatisticsFunctions/arm_power_q15.c ****     in32 = *__SIMD32(pSrc)++;
  86:Source\StatisticsFunctions/arm_power_q15.c ****     sum = __SMLALD(in32, in32, sum);
  87:Source\StatisticsFunctions/arm_power_q15.c ****     in32 = *__SIMD32(pSrc)++;
  88:Source\StatisticsFunctions/arm_power_q15.c ****     sum = __SMLALD(in32, in32, sum);
  89:Source\StatisticsFunctions/arm_power_q15.c **** 
  90:Source\StatisticsFunctions/arm_power_q15.c ****     /* Decrement the loop counter */
  91:Source\StatisticsFunctions/arm_power_q15.c ****     blkCnt--;
  92:Source\StatisticsFunctions/arm_power_q15.c ****   }
  93:Source\StatisticsFunctions/arm_power_q15.c **** 
  94:Source\StatisticsFunctions/arm_power_q15.c ****   /* If the blockSize is not a multiple of 4, compute any remaining output samples here.
  95:Source\StatisticsFunctions/arm_power_q15.c ****    ** No loop unrolling is used. */
  96:Source\StatisticsFunctions/arm_power_q15.c ****   blkCnt = blockSize % 0x4u;
  97:Source\StatisticsFunctions/arm_power_q15.c **** 
  98:Source\StatisticsFunctions/arm_power_q15.c ****   while (blkCnt > 0u)
  99:Source\StatisticsFunctions/arm_power_q15.c ****   {
 100:Source\StatisticsFunctions/arm_power_q15.c ****     /* C = A[0] * A[0] + A[1] * A[1] + A[2] * A[2] + ... + A[blockSize-1] * A[blockSize-1] */
 101:Source\StatisticsFunctions/arm_power_q15.c ****     /* Compute Power and then store the result in a temporary variable, sum. */
 102:Source\StatisticsFunctions/arm_power_q15.c ****     in16 = *pSrc++;
 103:Source\StatisticsFunctions/arm_power_q15.c ****     sum = __SMLALD(in16, in16, sum);
 104:Source\StatisticsFunctions/arm_power_q15.c **** 
 105:Source\StatisticsFunctions/arm_power_q15.c ****     /* Decrement the loop counter */
 106:Source\StatisticsFunctions/arm_power_q15.c ****     blkCnt--;
 107:Source\StatisticsFunctions/arm_power_q15.c ****   }
 108:Source\StatisticsFunctions/arm_power_q15.c **** 
 109:Source\StatisticsFunctions/arm_power_q15.c **** #else
 110:Source\StatisticsFunctions/arm_power_q15.c ****   /* Run the below code for Cortex-M0 */
 111:Source\StatisticsFunctions/arm_power_q15.c **** 
 112:Source\StatisticsFunctions/arm_power_q15.c ****   q15_t in;                                      /* Temporary variable to store input value */
 113:Source\StatisticsFunctions/arm_power_q15.c ****   uint32_t blkCnt;                               /* loop counter */
 114:Source\StatisticsFunctions/arm_power_q15.c **** 
 115:Source\StatisticsFunctions/arm_power_q15.c **** 
 116:Source\StatisticsFunctions/arm_power_q15.c ****   /* Loop over blockSize number of values */
 117:Source\StatisticsFunctions/arm_power_q15.c ****   blkCnt = blockSize;
  47              		.loc 1 117 0
  48 0014 BB68     		ldr	r3, [r7, #8]
  49 0016 7B61     		str	r3, [r7, #20]
 118:Source\StatisticsFunctions/arm_power_q15.c **** 
 119:Source\StatisticsFunctions/arm_power_q15.c ****   while (blkCnt > 0u)
  50              		.loc 1 119 0
  51 0018 1BE0     		b	.L2
  52              	.L3:
ARM GAS  C:\Users\fneves\AppData\Local\Temp\cc5cvZJf.s 			page 4


 120:Source\StatisticsFunctions/arm_power_q15.c ****   {
 121:Source\StatisticsFunctions/arm_power_q15.c ****     /* C = A[0] * A[0] + A[1] * A[1] + A[2] * A[2] + ... + A[blockSize-1] * A[blockSize-1] */
 122:Source\StatisticsFunctions/arm_power_q15.c ****     /* Compute Power and then store the result in a temporary variable, sum. */
 123:Source\StatisticsFunctions/arm_power_q15.c ****     in = *pSrc++;
  53              		.loc 1 123 0
  54 001a FB68     		ldr	r3, [r7, #12]
  55 001c 9A1C     		add	r2, r3, #2
  56 001e FA60     		str	r2, [r7, #12]
  57 0020 1222     		mov	r2, #18
  58 0022 BA18     		add	r2, r7, r2
  59 0024 1B88     		ldrh	r3, [r3]
  60 0026 1380     		strh	r3, [r2]
 124:Source\StatisticsFunctions/arm_power_q15.c ****     sum += ((q31_t) in * in);
  61              		.loc 1 124 0
  62 0028 1223     		mov	r3, #18
  63 002a FB18     		add	r3, r7, r3
  64 002c 0022     		mov	r2, #0
  65 002e 9B5E     		ldrsh	r3, [r3, r2]
  66 0030 1222     		mov	r2, #18
  67 0032 BA18     		add	r2, r7, r2
  68 0034 0021     		mov	r1, #0
  69 0036 525E     		ldrsh	r2, [r2, r1]
  70 0038 5343     		mul	r3, r2
  71 003a 1D1C     		mov	r5, r3
  72 003c DB17     		asr	r3, r3, #31
  73 003e 1E1C     		mov	r6, r3
  74 0040 BB69     		ldr	r3, [r7, #24]
  75 0042 FC69     		ldr	r4, [r7, #28]
  76 0044 5B19     		add	r3, r3, r5
  77 0046 7441     		adc	r4, r4, r6
  78 0048 BB61     		str	r3, [r7, #24]
  79 004a FC61     		str	r4, [r7, #28]
 125:Source\StatisticsFunctions/arm_power_q15.c **** 
 126:Source\StatisticsFunctions/arm_power_q15.c ****     /* Decrement the loop counter */
 127:Source\StatisticsFunctions/arm_power_q15.c ****     blkCnt--;
  80              		.loc 1 127 0
  81 004c 7B69     		ldr	r3, [r7, #20]
  82 004e 013B     		sub	r3, r3, #1
  83 0050 7B61     		str	r3, [r7, #20]
  84              	.L2:
 119:Source\StatisticsFunctions/arm_power_q15.c ****   {
  85              		.loc 1 119 0
  86 0052 7B69     		ldr	r3, [r7, #20]
  87 0054 002B     		cmp	r3, #0
  88 0056 E0D1     		bne	.L3
 128:Source\StatisticsFunctions/arm_power_q15.c ****   }
 129:Source\StatisticsFunctions/arm_power_q15.c **** 
 130:Source\StatisticsFunctions/arm_power_q15.c **** #endif /* #if defined (ARM_MATH_DSP) */
 131:Source\StatisticsFunctions/arm_power_q15.c **** 
 132:Source\StatisticsFunctions/arm_power_q15.c ****   /* Store the results in 34.30 format  */
 133:Source\StatisticsFunctions/arm_power_q15.c ****   *pResult = sum;
  89              		.loc 1 133 0
  90 0058 7A68     		ldr	r2, [r7, #4]
  91 005a BB69     		ldr	r3, [r7, #24]
  92 005c FC69     		ldr	r4, [r7, #28]
  93 005e 1360     		str	r3, [r2]
  94 0060 5460     		str	r4, [r2, #4]
ARM GAS  C:\Users\fneves\AppData\Local\Temp\cc5cvZJf.s 			page 5


 134:Source\StatisticsFunctions/arm_power_q15.c **** }
  95              		.loc 1 134 0
  96 0062 BD46     		mov	sp, r7
  97 0064 09B0     		add	sp, sp, #36
  98              		@ sp needed
  99 0066 F0BD     		pop	{r4, r5, r6, r7, pc}
 100              		.cfi_endproc
 101              	.LFE82:
 102              		.size	arm_power_q15, .-arm_power_q15
 103              		.text
 104              	.Letext0:
 105              		.file 2 "c:\\program files (x86)\\cypress\\psoc creator\\4.0\\psoc creator\\import\\gnu\\arm\\4.9.
 106              		.file 3 "c:\\program files (x86)\\cypress\\psoc creator\\4.0\\psoc creator\\import\\gnu\\arm\\4.9.
 107              		.file 4 ".\\Include/arm_math.h"