ARM GAS  C:\Users\fneves\AppData\Local\Temp\cc5N0vc2.s 			page 1


   1              		.cpu cortex-m0plus
   2              		.fpu softvfp
   3              		.eabi_attribute 20, 1
   4              		.eabi_attribute 21, 1
   5              		.eabi_attribute 23, 3
   6              		.eabi_attribute 24, 1
   7              		.eabi_attribute 25, 1
   8              		.eabi_attribute 26, 1
   9              		.eabi_attribute 30, 6
  10              		.eabi_attribute 34, 0
  11              		.eabi_attribute 18, 4
  12              		.code	16
  13              		.file	"arm_cfft_radix2_init_q15.c"
  14              		.text
  15              	.Ltext0:
  16              		.cfi_sections	.debug_frame
  17              		.section	.text.arm_cfft_radix2_init_q15,"ax",%progbits
  18              		.align	2
  19              		.global	arm_cfft_radix2_init_q15
  20              		.code	16
  21              		.thumb_func
  22              		.type	arm_cfft_radix2_init_q15, %function
  23              	arm_cfft_radix2_init_q15:
  24              	.LFB82:
  25              		.file 1 "Source\\TransformFunctions\\arm_cfft_radix2_init_q15.c"
   1:Source\TransformFunctions/arm_cfft_radix2_init_q15.c **** /* ----------------------------------------------------------------------
   2:Source\TransformFunctions/arm_cfft_radix2_init_q15.c ****  * Project:      CMSIS DSP Library
   3:Source\TransformFunctions/arm_cfft_radix2_init_q15.c ****  * Title:        arm_cfft_radix2_init_q15.c
   4:Source\TransformFunctions/arm_cfft_radix2_init_q15.c ****  * Description:  Radix-2 Decimation in Frequency Q15 FFT & IFFT initialization function
   5:Source\TransformFunctions/arm_cfft_radix2_init_q15.c ****  *
   6:Source\TransformFunctions/arm_cfft_radix2_init_q15.c ****  * $Date:        27. January 2017
   7:Source\TransformFunctions/arm_cfft_radix2_init_q15.c ****  * $Revision:    V.1.5.1
   8:Source\TransformFunctions/arm_cfft_radix2_init_q15.c ****  *
   9:Source\TransformFunctions/arm_cfft_radix2_init_q15.c ****  * Target Processor: Cortex-M cores
  10:Source\TransformFunctions/arm_cfft_radix2_init_q15.c ****  * -------------------------------------------------------------------- */
  11:Source\TransformFunctions/arm_cfft_radix2_init_q15.c **** /*
  12:Source\TransformFunctions/arm_cfft_radix2_init_q15.c ****  * Copyright (C) 2010-2017 ARM Limited or its affiliates. All rights reserved.
  13:Source\TransformFunctions/arm_cfft_radix2_init_q15.c ****  *
  14:Source\TransformFunctions/arm_cfft_radix2_init_q15.c ****  * SPDX-License-Identifier: Apache-2.0
  15:Source\TransformFunctions/arm_cfft_radix2_init_q15.c ****  *
  16:Source\TransformFunctions/arm_cfft_radix2_init_q15.c ****  * Licensed under the Apache License, Version 2.0 (the License); you may
  17:Source\TransformFunctions/arm_cfft_radix2_init_q15.c ****  * not use this file except in compliance with the License.
  18:Source\TransformFunctions/arm_cfft_radix2_init_q15.c ****  * You may obtain a copy of the License at
  19:Source\TransformFunctions/arm_cfft_radix2_init_q15.c ****  *
  20:Source\TransformFunctions/arm_cfft_radix2_init_q15.c ****  * www.apache.org/licenses/LICENSE-2.0
  21:Source\TransformFunctions/arm_cfft_radix2_init_q15.c ****  *
  22:Source\TransformFunctions/arm_cfft_radix2_init_q15.c ****  * Unless required by applicable law or agreed to in writing, software
  23:Source\TransformFunctions/arm_cfft_radix2_init_q15.c ****  * distributed under the License is distributed on an AS IS BASIS, WITHOUT
  24:Source\TransformFunctions/arm_cfft_radix2_init_q15.c ****  * WARRANTIES OR CONDITIONS OF ANY KIND, either express or implied.
  25:Source\TransformFunctions/arm_cfft_radix2_init_q15.c ****  * See the License for the specific language governing permissions and
  26:Source\TransformFunctions/arm_cfft_radix2_init_q15.c ****  * limitations under the License.
  27:Source\TransformFunctions/arm_cfft_radix2_init_q15.c ****  */
  28:Source\TransformFunctions/arm_cfft_radix2_init_q15.c **** 
  29:Source\TransformFunctions/arm_cfft_radix2_init_q15.c **** #include "arm_math.h"
  30:Source\TransformFunctions/arm_cfft_radix2_init_q15.c **** #include "arm_common_tables.h"
  31:Source\TransformFunctions/arm_cfft_radix2_init_q15.c **** 
  32:Source\TransformFunctions/arm_cfft_radix2_init_q15.c **** /**
ARM GAS  C:\Users\fneves\AppData\Local\Temp\cc5N0vc2.s 			page 2


  33:Source\TransformFunctions/arm_cfft_radix2_init_q15.c ****  * @ingroup groupTransforms
  34:Source\TransformFunctions/arm_cfft_radix2_init_q15.c ****  */
  35:Source\TransformFunctions/arm_cfft_radix2_init_q15.c **** 
  36:Source\TransformFunctions/arm_cfft_radix2_init_q15.c **** 
  37:Source\TransformFunctions/arm_cfft_radix2_init_q15.c **** /**
  38:Source\TransformFunctions/arm_cfft_radix2_init_q15.c ****  * @addtogroup ComplexFFT
  39:Source\TransformFunctions/arm_cfft_radix2_init_q15.c ****  * @{
  40:Source\TransformFunctions/arm_cfft_radix2_init_q15.c ****  */
  41:Source\TransformFunctions/arm_cfft_radix2_init_q15.c **** 
  42:Source\TransformFunctions/arm_cfft_radix2_init_q15.c **** /**
  43:Source\TransformFunctions/arm_cfft_radix2_init_q15.c **** * @brief Initialization function for the Q15 CFFT/CIFFT.
  44:Source\TransformFunctions/arm_cfft_radix2_init_q15.c **** * @deprecated Do not use this function.  It has been superseded by \ref arm_cfft_q15 and will be re
  45:Source\TransformFunctions/arm_cfft_radix2_init_q15.c **** * @param[in,out] *S             points to an instance of the Q15 CFFT/CIFFT structure.
  46:Source\TransformFunctions/arm_cfft_radix2_init_q15.c **** * @param[in]     fftLen         length of the FFT.
  47:Source\TransformFunctions/arm_cfft_radix2_init_q15.c **** * @param[in]     ifftFlag       flag that selects forward (ifftFlag=0) or inverse (ifftFlag=1) tran
  48:Source\TransformFunctions/arm_cfft_radix2_init_q15.c **** * @param[in]     bitReverseFlag flag that enables (bitReverseFlag=1) or disables (bitReverseFlag=0)
  49:Source\TransformFunctions/arm_cfft_radix2_init_q15.c **** * @return        The function returns ARM_MATH_SUCCESS if initialization is successful or ARM_MATH_
  50:Source\TransformFunctions/arm_cfft_radix2_init_q15.c **** *
  51:Source\TransformFunctions/arm_cfft_radix2_init_q15.c **** * \par Description:
  52:Source\TransformFunctions/arm_cfft_radix2_init_q15.c **** * \par
  53:Source\TransformFunctions/arm_cfft_radix2_init_q15.c **** * The parameter <code>ifftFlag</code> controls whether a forward or inverse transform is computed.
  54:Source\TransformFunctions/arm_cfft_radix2_init_q15.c **** * Set(=1) ifftFlag for calculation of CIFFT otherwise  CFFT is calculated
  55:Source\TransformFunctions/arm_cfft_radix2_init_q15.c **** * \par
  56:Source\TransformFunctions/arm_cfft_radix2_init_q15.c **** * The parameter <code>bitReverseFlag</code> controls whether output is in normal order or bit rever
  57:Source\TransformFunctions/arm_cfft_radix2_init_q15.c **** * Set(=1) bitReverseFlag for output to be in normal order otherwise output is in bit reversed order
  58:Source\TransformFunctions/arm_cfft_radix2_init_q15.c **** * \par
  59:Source\TransformFunctions/arm_cfft_radix2_init_q15.c **** * The parameter <code>fftLen</code>	Specifies length of CFFT/CIFFT process. Supported FFT Lengths a
  60:Source\TransformFunctions/arm_cfft_radix2_init_q15.c **** * \par
  61:Source\TransformFunctions/arm_cfft_radix2_init_q15.c **** * This Function also initializes Twiddle factor table pointer and Bit reversal table pointer.
  62:Source\TransformFunctions/arm_cfft_radix2_init_q15.c **** */
  63:Source\TransformFunctions/arm_cfft_radix2_init_q15.c **** 
  64:Source\TransformFunctions/arm_cfft_radix2_init_q15.c **** arm_status arm_cfft_radix2_init_q15(
  65:Source\TransformFunctions/arm_cfft_radix2_init_q15.c ****   arm_cfft_radix2_instance_q15 * S,
  66:Source\TransformFunctions/arm_cfft_radix2_init_q15.c ****   uint16_t fftLen,
  67:Source\TransformFunctions/arm_cfft_radix2_init_q15.c ****   uint8_t ifftFlag,
  68:Source\TransformFunctions/arm_cfft_radix2_init_q15.c ****   uint8_t bitReverseFlag)
  69:Source\TransformFunctions/arm_cfft_radix2_init_q15.c **** {
  26              		.loc 1 69 0
  27              		.cfi_startproc
  28 0000 90B5     		push	{r4, r7, lr}
  29              		.cfi_def_cfa_offset 12
  30              		.cfi_offset 4, -12
  31              		.cfi_offset 7, -8
  32              		.cfi_offset 14, -4
  33 0002 85B0     		sub	sp, sp, #20
  34              		.cfi_def_cfa_offset 32
  35 0004 00AF     		add	r7, sp, #0
  36              		.cfi_def_cfa_register 7
  37 0006 7860     		str	r0, [r7, #4]
  38 0008 0C1C     		mov	r4, r1
  39 000a 101C     		mov	r0, r2
  40 000c 191C     		mov	r1, r3
  41 000e BB1C     		add	r3, r7, #2
  42 0010 221C     		add	r2, r4, #0
  43 0012 1A80     		strh	r2, [r3]
  44 0014 7B1C     		add	r3, r7, #1
  45 0016 021C     		add	r2, r0, #0
ARM GAS  C:\Users\fneves\AppData\Local\Temp\cc5N0vc2.s 			page 3


  46 0018 1A70     		strb	r2, [r3]
  47 001a 3B1C     		mov	r3, r7
  48 001c 0A1C     		add	r2, r1, #0
  49 001e 1A70     		strb	r2, [r3]
  70:Source\TransformFunctions/arm_cfft_radix2_init_q15.c ****   /*  Initialise the default arm status */
  71:Source\TransformFunctions/arm_cfft_radix2_init_q15.c ****   arm_status status = ARM_MATH_SUCCESS;
  50              		.loc 1 71 0
  51 0020 0F23     		mov	r3, #15
  52 0022 FB18     		add	r3, r7, r3
  53 0024 0022     		mov	r2, #0
  54 0026 1A70     		strb	r2, [r3]
  72:Source\TransformFunctions/arm_cfft_radix2_init_q15.c **** 
  73:Source\TransformFunctions/arm_cfft_radix2_init_q15.c ****   /*  Initialise the FFT length */
  74:Source\TransformFunctions/arm_cfft_radix2_init_q15.c ****   S->fftLen = fftLen;
  55              		.loc 1 74 0
  56 0028 7B68     		ldr	r3, [r7, #4]
  57 002a BA1C     		add	r2, r7, #2
  58 002c 1288     		ldrh	r2, [r2]
  59 002e 1A80     		strh	r2, [r3]
  75:Source\TransformFunctions/arm_cfft_radix2_init_q15.c **** 
  76:Source\TransformFunctions/arm_cfft_radix2_init_q15.c ****   /*  Initialise the Twiddle coefficient pointer */
  77:Source\TransformFunctions/arm_cfft_radix2_init_q15.c ****   S->pTwiddle = (q15_t *) twiddleCoef_4096_q15;
  60              		.loc 1 77 0
  61 0030 7B68     		ldr	r3, [r7, #4]
  62 0032 4F4A     		ldr	r2, .L17
  63 0034 5A60     		str	r2, [r3, #4]
  78:Source\TransformFunctions/arm_cfft_radix2_init_q15.c ****   /*  Initialise the Flag for selection of CFFT or CIFFT */
  79:Source\TransformFunctions/arm_cfft_radix2_init_q15.c ****   S->ifftFlag = ifftFlag;
  64              		.loc 1 79 0
  65 0036 7B68     		ldr	r3, [r7, #4]
  66 0038 7A1C     		add	r2, r7, #1
  67 003a 1278     		ldrb	r2, [r2]
  68 003c 9A70     		strb	r2, [r3, #2]
  80:Source\TransformFunctions/arm_cfft_radix2_init_q15.c ****   /*  Initialise the Flag for calculation Bit reversal or not */
  81:Source\TransformFunctions/arm_cfft_radix2_init_q15.c ****   S->bitReverseFlag = bitReverseFlag;
  69              		.loc 1 81 0
  70 003e 7B68     		ldr	r3, [r7, #4]
  71 0040 3A1C     		mov	r2, r7
  72 0042 1278     		ldrb	r2, [r2]
  73 0044 DA70     		strb	r2, [r3, #3]
  82:Source\TransformFunctions/arm_cfft_radix2_init_q15.c **** 
  83:Source\TransformFunctions/arm_cfft_radix2_init_q15.c ****   /*  Initializations of structure parameters depending on the FFT length */
  84:Source\TransformFunctions/arm_cfft_radix2_init_q15.c ****   switch (S->fftLen)
  74              		.loc 1 84 0
  75 0046 7B68     		ldr	r3, [r7, #4]
  76 0048 1B88     		ldrh	r3, [r3]
  77 004a 8022     		mov	r2, #128
  78 004c 5200     		lsl	r2, r2, #1
  79 004e 9342     		cmp	r3, r2
  80 0050 4DD0     		beq	.L3
  81 0052 8022     		mov	r2, #128
  82 0054 5200     		lsl	r2, r2, #1
  83 0056 9342     		cmp	r3, r2
  84 0058 0CDC     		bgt	.L4
  85 005a 202B     		cmp	r3, #32
  86 005c 00D1     		bne	.LCB56
  87 005e 64E0     		b	.L5	@long jump
ARM GAS  C:\Users\fneves\AppData\Local\Temp\cc5N0vc2.s 			page 4


  88              	.LCB56:
  89 0060 03DC     		bgt	.L6
  90 0062 102B     		cmp	r3, #16
  91 0064 00D1     		bne	.LCB60
  92 0066 6AE0     		b	.L7	@long jump
  93              	.LCB60:
  94 0068 75E0     		b	.L2
  95              	.L6:
  96 006a 402B     		cmp	r3, #64
  97 006c 53D0     		beq	.L8
  98 006e 802B     		cmp	r3, #128
  99 0070 47D0     		beq	.L9
 100 0072 70E0     		b	.L2
 101              	.L4:
 102 0074 8022     		mov	r2, #128
 103 0076 D200     		lsl	r2, r2, #3
 104 0078 9342     		cmp	r3, r2
 105 007a 24D0     		beq	.L10
 106 007c 8022     		mov	r2, #128
 107 007e D200     		lsl	r2, r2, #3
 108 0080 9342     		cmp	r3, r2
 109 0082 04DC     		bgt	.L11
 110 0084 8022     		mov	r2, #128
 111 0086 9200     		lsl	r2, r2, #2
 112 0088 9342     		cmp	r3, r2
 113 008a 26D0     		beq	.L12
 114 008c 63E0     		b	.L2
 115              	.L11:
 116 008e 8022     		mov	r2, #128
 117 0090 1201     		lsl	r2, r2, #4
 118 0092 9342     		cmp	r3, r2
 119 0094 0DD0     		beq	.L13
 120 0096 8022     		mov	r2, #128
 121 0098 5201     		lsl	r2, r2, #5
 122 009a 9342     		cmp	r3, r2
 123 009c 5BD1     		bne	.L2
  85:Source\TransformFunctions/arm_cfft_radix2_init_q15.c ****   {
  86:Source\TransformFunctions/arm_cfft_radix2_init_q15.c ****   case 4096u:
  87:Source\TransformFunctions/arm_cfft_radix2_init_q15.c ****     /*  Initializations of structure parameters for 4096 point FFT */
  88:Source\TransformFunctions/arm_cfft_radix2_init_q15.c **** 
  89:Source\TransformFunctions/arm_cfft_radix2_init_q15.c ****     /*  Initialise the twiddle coef modifier value */
  90:Source\TransformFunctions/arm_cfft_radix2_init_q15.c ****     S->twidCoefModifier = 1u;
 124              		.loc 1 90 0
 125 009e 7B68     		ldr	r3, [r7, #4]
 126 00a0 0122     		mov	r2, #1
 127 00a2 9A81     		strh	r2, [r3, #12]
  91:Source\TransformFunctions/arm_cfft_radix2_init_q15.c ****     /*  Initialise the bit reversal table modifier */
  92:Source\TransformFunctions/arm_cfft_radix2_init_q15.c ****     S->bitRevFactor = 1u;
 128              		.loc 1 92 0
 129 00a4 7B68     		ldr	r3, [r7, #4]
 130 00a6 0122     		mov	r2, #1
 131 00a8 DA81     		strh	r2, [r3, #14]
  93:Source\TransformFunctions/arm_cfft_radix2_init_q15.c ****     /*  Initialise the bit reversal table pointer */
  94:Source\TransformFunctions/arm_cfft_radix2_init_q15.c ****     S->pBitRevTable = (uint16_t *) armBitRevTable;
 132              		.loc 1 94 0
 133 00aa 7B68     		ldr	r3, [r7, #4]
 134 00ac 314A     		ldr	r2, .L17+4
ARM GAS  C:\Users\fneves\AppData\Local\Temp\cc5N0vc2.s 			page 5


 135 00ae 9A60     		str	r2, [r3, #8]
  95:Source\TransformFunctions/arm_cfft_radix2_init_q15.c **** 
  96:Source\TransformFunctions/arm_cfft_radix2_init_q15.c ****     break;
 136              		.loc 1 96 0
 137 00b0 56E0     		b	.L15
 138              	.L13:
  97:Source\TransformFunctions/arm_cfft_radix2_init_q15.c **** 
  98:Source\TransformFunctions/arm_cfft_radix2_init_q15.c ****   case 2048u:
  99:Source\TransformFunctions/arm_cfft_radix2_init_q15.c ****     /*  Initializations of structure parameters for 2048 point FFT */
 100:Source\TransformFunctions/arm_cfft_radix2_init_q15.c **** 
 101:Source\TransformFunctions/arm_cfft_radix2_init_q15.c ****     /*  Initialise the twiddle coef modifier value */
 102:Source\TransformFunctions/arm_cfft_radix2_init_q15.c ****     S->twidCoefModifier = 2u;
 139              		.loc 1 102 0
 140 00b2 7B68     		ldr	r3, [r7, #4]
 141 00b4 0222     		mov	r2, #2
 142 00b6 9A81     		strh	r2, [r3, #12]
 103:Source\TransformFunctions/arm_cfft_radix2_init_q15.c ****     /*  Initialise the bit reversal table modifier */
 104:Source\TransformFunctions/arm_cfft_radix2_init_q15.c ****     S->bitRevFactor = 2u;
 143              		.loc 1 104 0
 144 00b8 7B68     		ldr	r3, [r7, #4]
 145 00ba 0222     		mov	r2, #2
 146 00bc DA81     		strh	r2, [r3, #14]
 105:Source\TransformFunctions/arm_cfft_radix2_init_q15.c ****     /*  Initialise the bit reversal table pointer */
 106:Source\TransformFunctions/arm_cfft_radix2_init_q15.c ****     S->pBitRevTable = (uint16_t *) & armBitRevTable[1];
 147              		.loc 1 106 0
 148 00be 7B68     		ldr	r3, [r7, #4]
 149 00c0 2D4A     		ldr	r2, .L17+8
 150 00c2 9A60     		str	r2, [r3, #8]
 107:Source\TransformFunctions/arm_cfft_radix2_init_q15.c **** 
 108:Source\TransformFunctions/arm_cfft_radix2_init_q15.c ****     break;
 151              		.loc 1 108 0
 152 00c4 4CE0     		b	.L15
 153              	.L10:
 109:Source\TransformFunctions/arm_cfft_radix2_init_q15.c **** 
 110:Source\TransformFunctions/arm_cfft_radix2_init_q15.c ****   case 1024u:
 111:Source\TransformFunctions/arm_cfft_radix2_init_q15.c ****     /*  Initializations of structure parameters for 1024 point FFT */
 112:Source\TransformFunctions/arm_cfft_radix2_init_q15.c ****     S->twidCoefModifier = 4u;
 154              		.loc 1 112 0
 155 00c6 7B68     		ldr	r3, [r7, #4]
 156 00c8 0422     		mov	r2, #4
 157 00ca 9A81     		strh	r2, [r3, #12]
 113:Source\TransformFunctions/arm_cfft_radix2_init_q15.c ****     S->bitRevFactor = 4u;
 158              		.loc 1 113 0
 159 00cc 7B68     		ldr	r3, [r7, #4]
 160 00ce 0422     		mov	r2, #4
 161 00d0 DA81     		strh	r2, [r3, #14]
 114:Source\TransformFunctions/arm_cfft_radix2_init_q15.c ****     S->pBitRevTable = (uint16_t *) & armBitRevTable[3];
 162              		.loc 1 114 0
 163 00d2 7B68     		ldr	r3, [r7, #4]
 164 00d4 294A     		ldr	r2, .L17+12
 165 00d6 9A60     		str	r2, [r3, #8]
 115:Source\TransformFunctions/arm_cfft_radix2_init_q15.c **** 
 116:Source\TransformFunctions/arm_cfft_radix2_init_q15.c ****     break;
 166              		.loc 1 116 0
 167 00d8 42E0     		b	.L15
 168              	.L12:
 117:Source\TransformFunctions/arm_cfft_radix2_init_q15.c **** 
ARM GAS  C:\Users\fneves\AppData\Local\Temp\cc5N0vc2.s 			page 6


 118:Source\TransformFunctions/arm_cfft_radix2_init_q15.c ****   case 512u:
 119:Source\TransformFunctions/arm_cfft_radix2_init_q15.c ****     /*  Initializations of structure parameters for 512 point FFT */
 120:Source\TransformFunctions/arm_cfft_radix2_init_q15.c ****     S->twidCoefModifier = 8u;
 169              		.loc 1 120 0
 170 00da 7B68     		ldr	r3, [r7, #4]
 171 00dc 0822     		mov	r2, #8
 172 00de 9A81     		strh	r2, [r3, #12]
 121:Source\TransformFunctions/arm_cfft_radix2_init_q15.c ****     S->bitRevFactor = 8u;
 173              		.loc 1 121 0
 174 00e0 7B68     		ldr	r3, [r7, #4]
 175 00e2 0822     		mov	r2, #8
 176 00e4 DA81     		strh	r2, [r3, #14]
 122:Source\TransformFunctions/arm_cfft_radix2_init_q15.c ****     S->pBitRevTable = (uint16_t *) & armBitRevTable[7];
 177              		.loc 1 122 0
 178 00e6 7B68     		ldr	r3, [r7, #4]
 179 00e8 254A     		ldr	r2, .L17+16
 180 00ea 9A60     		str	r2, [r3, #8]
 123:Source\TransformFunctions/arm_cfft_radix2_init_q15.c **** 
 124:Source\TransformFunctions/arm_cfft_radix2_init_q15.c ****     break;
 181              		.loc 1 124 0
 182 00ec 38E0     		b	.L15
 183              	.L3:
 125:Source\TransformFunctions/arm_cfft_radix2_init_q15.c **** 
 126:Source\TransformFunctions/arm_cfft_radix2_init_q15.c ****   case 256u:
 127:Source\TransformFunctions/arm_cfft_radix2_init_q15.c ****     /*  Initializations of structure parameters for 256 point FFT */
 128:Source\TransformFunctions/arm_cfft_radix2_init_q15.c ****     S->twidCoefModifier = 16u;
 184              		.loc 1 128 0
 185 00ee 7B68     		ldr	r3, [r7, #4]
 186 00f0 1022     		mov	r2, #16
 187 00f2 9A81     		strh	r2, [r3, #12]
 129:Source\TransformFunctions/arm_cfft_radix2_init_q15.c ****     S->bitRevFactor = 16u;
 188              		.loc 1 129 0
 189 00f4 7B68     		ldr	r3, [r7, #4]
 190 00f6 1022     		mov	r2, #16
 191 00f8 DA81     		strh	r2, [r3, #14]
 130:Source\TransformFunctions/arm_cfft_radix2_init_q15.c ****     S->pBitRevTable = (uint16_t *) & armBitRevTable[15];
 192              		.loc 1 130 0
 193 00fa 7B68     		ldr	r3, [r7, #4]
 194 00fc 214A     		ldr	r2, .L17+20
 195 00fe 9A60     		str	r2, [r3, #8]
 131:Source\TransformFunctions/arm_cfft_radix2_init_q15.c **** 
 132:Source\TransformFunctions/arm_cfft_radix2_init_q15.c ****     break;
 196              		.loc 1 132 0
 197 0100 2EE0     		b	.L15
 198              	.L9:
 133:Source\TransformFunctions/arm_cfft_radix2_init_q15.c **** 
 134:Source\TransformFunctions/arm_cfft_radix2_init_q15.c ****   case 128u:
 135:Source\TransformFunctions/arm_cfft_radix2_init_q15.c ****     /*  Initializations of structure parameters for 128 point FFT */
 136:Source\TransformFunctions/arm_cfft_radix2_init_q15.c ****     S->twidCoefModifier = 32u;
 199              		.loc 1 136 0
 200 0102 7B68     		ldr	r3, [r7, #4]
 201 0104 2022     		mov	r2, #32
 202 0106 9A81     		strh	r2, [r3, #12]
 137:Source\TransformFunctions/arm_cfft_radix2_init_q15.c ****     S->bitRevFactor = 32u;
 203              		.loc 1 137 0
 204 0108 7B68     		ldr	r3, [r7, #4]
 205 010a 2022     		mov	r2, #32
ARM GAS  C:\Users\fneves\AppData\Local\Temp\cc5N0vc2.s 			page 7


 206 010c DA81     		strh	r2, [r3, #14]
 138:Source\TransformFunctions/arm_cfft_radix2_init_q15.c ****     S->pBitRevTable = (uint16_t *) & armBitRevTable[31];
 207              		.loc 1 138 0
 208 010e 7B68     		ldr	r3, [r7, #4]
 209 0110 1D4A     		ldr	r2, .L17+24
 210 0112 9A60     		str	r2, [r3, #8]
 139:Source\TransformFunctions/arm_cfft_radix2_init_q15.c **** 
 140:Source\TransformFunctions/arm_cfft_radix2_init_q15.c ****     break;
 211              		.loc 1 140 0
 212 0114 24E0     		b	.L15
 213              	.L8:
 141:Source\TransformFunctions/arm_cfft_radix2_init_q15.c **** 
 142:Source\TransformFunctions/arm_cfft_radix2_init_q15.c ****   case 64u:
 143:Source\TransformFunctions/arm_cfft_radix2_init_q15.c ****     /*  Initializations of structure parameters for 64 point FFT */
 144:Source\TransformFunctions/arm_cfft_radix2_init_q15.c ****     S->twidCoefModifier = 64u;
 214              		.loc 1 144 0
 215 0116 7B68     		ldr	r3, [r7, #4]
 216 0118 4022     		mov	r2, #64
 217 011a 9A81     		strh	r2, [r3, #12]
 145:Source\TransformFunctions/arm_cfft_radix2_init_q15.c ****     S->bitRevFactor = 64u;
 218              		.loc 1 145 0
 219 011c 7B68     		ldr	r3, [r7, #4]
 220 011e 4022     		mov	r2, #64
 221 0120 DA81     		strh	r2, [r3, #14]
 146:Source\TransformFunctions/arm_cfft_radix2_init_q15.c ****     S->pBitRevTable = (uint16_t *) & armBitRevTable[63];
 222              		.loc 1 146 0
 223 0122 7B68     		ldr	r3, [r7, #4]
 224 0124 194A     		ldr	r2, .L17+28
 225 0126 9A60     		str	r2, [r3, #8]
 147:Source\TransformFunctions/arm_cfft_radix2_init_q15.c **** 
 148:Source\TransformFunctions/arm_cfft_radix2_init_q15.c ****     break;
 226              		.loc 1 148 0
 227 0128 1AE0     		b	.L15
 228              	.L5:
 149:Source\TransformFunctions/arm_cfft_radix2_init_q15.c **** 
 150:Source\TransformFunctions/arm_cfft_radix2_init_q15.c ****   case 32u:
 151:Source\TransformFunctions/arm_cfft_radix2_init_q15.c ****     /*  Initializations of structure parameters for 32 point FFT */
 152:Source\TransformFunctions/arm_cfft_radix2_init_q15.c ****     S->twidCoefModifier = 128u;
 229              		.loc 1 152 0
 230 012a 7B68     		ldr	r3, [r7, #4]
 231 012c 8022     		mov	r2, #128
 232 012e 9A81     		strh	r2, [r3, #12]
 153:Source\TransformFunctions/arm_cfft_radix2_init_q15.c ****     S->bitRevFactor = 128u;
 233              		.loc 1 153 0
 234 0130 7B68     		ldr	r3, [r7, #4]
 235 0132 8022     		mov	r2, #128
 236 0134 DA81     		strh	r2, [r3, #14]
 154:Source\TransformFunctions/arm_cfft_radix2_init_q15.c ****     S->pBitRevTable = (uint16_t *) & armBitRevTable[127];
 237              		.loc 1 154 0
 238 0136 7B68     		ldr	r3, [r7, #4]
 239 0138 154A     		ldr	r2, .L17+32
 240 013a 9A60     		str	r2, [r3, #8]
 155:Source\TransformFunctions/arm_cfft_radix2_init_q15.c **** 
 156:Source\TransformFunctions/arm_cfft_radix2_init_q15.c ****     break;
 241              		.loc 1 156 0
 242 013c 10E0     		b	.L15
 243              	.L7:
ARM GAS  C:\Users\fneves\AppData\Local\Temp\cc5N0vc2.s 			page 8


 157:Source\TransformFunctions/arm_cfft_radix2_init_q15.c **** 
 158:Source\TransformFunctions/arm_cfft_radix2_init_q15.c ****   case 16u:
 159:Source\TransformFunctions/arm_cfft_radix2_init_q15.c ****     /*  Initializations of structure parameters for 16 point FFT */
 160:Source\TransformFunctions/arm_cfft_radix2_init_q15.c ****     S->twidCoefModifier = 256u;
 244              		.loc 1 160 0
 245 013e 7B68     		ldr	r3, [r7, #4]
 246 0140 8022     		mov	r2, #128
 247 0142 5200     		lsl	r2, r2, #1
 248 0144 9A81     		strh	r2, [r3, #12]
 161:Source\TransformFunctions/arm_cfft_radix2_init_q15.c ****     S->bitRevFactor = 256u;
 249              		.loc 1 161 0
 250 0146 7B68     		ldr	r3, [r7, #4]
 251 0148 8022     		mov	r2, #128
 252 014a 5200     		lsl	r2, r2, #1
 253 014c DA81     		strh	r2, [r3, #14]
 162:Source\TransformFunctions/arm_cfft_radix2_init_q15.c ****     S->pBitRevTable = (uint16_t *) & armBitRevTable[255];
 254              		.loc 1 162 0
 255 014e 7B68     		ldr	r3, [r7, #4]
 256 0150 104A     		ldr	r2, .L17+36
 257 0152 9A60     		str	r2, [r3, #8]
 163:Source\TransformFunctions/arm_cfft_radix2_init_q15.c **** 
 164:Source\TransformFunctions/arm_cfft_radix2_init_q15.c ****     break;
 258              		.loc 1 164 0
 259 0154 04E0     		b	.L15
 260              	.L2:
 165:Source\TransformFunctions/arm_cfft_radix2_init_q15.c **** 
 166:Source\TransformFunctions/arm_cfft_radix2_init_q15.c ****   default:
 167:Source\TransformFunctions/arm_cfft_radix2_init_q15.c ****     /*  Reporting argument error if fftSize is not valid value */
 168:Source\TransformFunctions/arm_cfft_radix2_init_q15.c ****     status = ARM_MATH_ARGUMENT_ERROR;
 261              		.loc 1 168 0
 262 0156 0F23     		mov	r3, #15
 263 0158 FB18     		add	r3, r7, r3
 264 015a FF22     		mov	r2, #255
 265 015c 1A70     		strb	r2, [r3]
 169:Source\TransformFunctions/arm_cfft_radix2_init_q15.c ****     break;
 266              		.loc 1 169 0
 267 015e C046     		mov	r8, r8
 268              	.L15:
 170:Source\TransformFunctions/arm_cfft_radix2_init_q15.c ****   }
 171:Source\TransformFunctions/arm_cfft_radix2_init_q15.c **** 
 172:Source\TransformFunctions/arm_cfft_radix2_init_q15.c ****   return (status);
 269              		.loc 1 172 0
 270 0160 0F23     		mov	r3, #15
 271 0162 FB18     		add	r3, r7, r3
 272 0164 1B78     		ldrb	r3, [r3]
 273 0166 5BB2     		sxtb	r3, r3
 173:Source\TransformFunctions/arm_cfft_radix2_init_q15.c **** }
 274              		.loc 1 173 0
 275 0168 181C     		mov	r0, r3
 276 016a BD46     		mov	sp, r7
 277 016c 05B0     		add	sp, sp, #20
 278              		@ sp needed
 279 016e 90BD     		pop	{r4, r7, pc}
 280              	.L18:
 281              		.align	2
 282              	.L17:
 283 0170 00000000 		.word	twiddleCoef_4096_q15
ARM GAS  C:\Users\fneves\AppData\Local\Temp\cc5N0vc2.s 			page 9


 284 0174 00000000 		.word	armBitRevTable
 285 0178 02000000 		.word	armBitRevTable+2
 286 017c 06000000 		.word	armBitRevTable+6
 287 0180 0E000000 		.word	armBitRevTable+14
 288 0184 1E000000 		.word	armBitRevTable+30
 289 0188 3E000000 		.word	armBitRevTable+62
 290 018c 7E000000 		.word	armBitRevTable+126
 291 0190 FE000000 		.word	armBitRevTable+254
 292 0194 FE010000 		.word	armBitRevTable+510
 293              		.cfi_endproc
 294              	.LFE82:
 295              		.size	arm_cfft_radix2_init_q15, .-arm_cfft_radix2_init_q15
 296              		.text
 297              	.Letext0:
 298              		.file 2 "c:\\program files (x86)\\cypress\\psoc creator\\4.0\\psoc creator\\import\\gnu\\arm\\4.9.
 299              		.file 3 "c:\\program files (x86)\\cypress\\psoc creator\\4.0\\psoc creator\\import\\gnu\\arm\\4.9.
 300              		.file 4 ".\\Include/arm_math.h"
 301              		.file 5 ".\\Include/arm_common_tables.h"