ARM GAS  C:\Users\fneves\AppData\Local\Temp\ccz7kjNb.s 			page 1


   1              		.cpu cortex-m0plus
   2              		.fpu softvfp
   3              		.eabi_attribute 20, 1
   4              		.eabi_attribute 21, 1
   5              		.eabi_attribute 23, 3
   6              		.eabi_attribute 24, 1
   7              		.eabi_attribute 25, 1
   8              		.eabi_attribute 26, 1
   9              		.eabi_attribute 30, 6
  10              		.eabi_attribute 34, 0
  11              		.eabi_attribute 18, 4
  12              		.code	16
  13              		.file	"arm_lms_init_f32.c"
  14              		.text
  15              	.Ltext0:
  16              		.cfi_sections	.debug_frame
  17              		.section	.text.arm_lms_init_f32,"ax",%progbits
  18              		.align	2
  19              		.global	arm_lms_init_f32
  20              		.code	16
  21              		.thumb_func
  22              		.type	arm_lms_init_f32, %function
  23              	arm_lms_init_f32:
  24              	.LFB82:
  25              		.file 1 "Source\\FilteringFunctions\\arm_lms_init_f32.c"
   1:Source\FilteringFunctions/arm_lms_init_f32.c **** /* ----------------------------------------------------------------------
   2:Source\FilteringFunctions/arm_lms_init_f32.c ****  * Project:      CMSIS DSP Library
   3:Source\FilteringFunctions/arm_lms_init_f32.c ****  * Title:        arm_lms_init_f32.c
   4:Source\FilteringFunctions/arm_lms_init_f32.c ****  * Description:  Floating-point LMS filter initialization function
   5:Source\FilteringFunctions/arm_lms_init_f32.c ****  *
   6:Source\FilteringFunctions/arm_lms_init_f32.c ****  * $Date:        27. January 2017
   7:Source\FilteringFunctions/arm_lms_init_f32.c ****  * $Revision:    V.1.5.1
   8:Source\FilteringFunctions/arm_lms_init_f32.c ****  *
   9:Source\FilteringFunctions/arm_lms_init_f32.c ****  * Target Processor: Cortex-M cores
  10:Source\FilteringFunctions/arm_lms_init_f32.c ****  * -------------------------------------------------------------------- */
  11:Source\FilteringFunctions/arm_lms_init_f32.c **** /*
  12:Source\FilteringFunctions/arm_lms_init_f32.c ****  * Copyright (C) 2010-2017 ARM Limited or its affiliates. All rights reserved.
  13:Source\FilteringFunctions/arm_lms_init_f32.c ****  *
  14:Source\FilteringFunctions/arm_lms_init_f32.c ****  * SPDX-License-Identifier: Apache-2.0
  15:Source\FilteringFunctions/arm_lms_init_f32.c ****  *
  16:Source\FilteringFunctions/arm_lms_init_f32.c ****  * Licensed under the Apache License, Version 2.0 (the License); you may
  17:Source\FilteringFunctions/arm_lms_init_f32.c ****  * not use this file except in compliance with the License.
  18:Source\FilteringFunctions/arm_lms_init_f32.c ****  * You may obtain a copy of the License at
  19:Source\FilteringFunctions/arm_lms_init_f32.c ****  *
  20:Source\FilteringFunctions/arm_lms_init_f32.c ****  * www.apache.org/licenses/LICENSE-2.0
  21:Source\FilteringFunctions/arm_lms_init_f32.c ****  *
  22:Source\FilteringFunctions/arm_lms_init_f32.c ****  * Unless required by applicable law or agreed to in writing, software
  23:Source\FilteringFunctions/arm_lms_init_f32.c ****  * distributed under the License is distributed on an AS IS BASIS, WITHOUT
  24:Source\FilteringFunctions/arm_lms_init_f32.c ****  * WARRANTIES OR CONDITIONS OF ANY KIND, either express or implied.
  25:Source\FilteringFunctions/arm_lms_init_f32.c ****  * See the License for the specific language governing permissions and
  26:Source\FilteringFunctions/arm_lms_init_f32.c ****  * limitations under the License.
  27:Source\FilteringFunctions/arm_lms_init_f32.c ****  */
  28:Source\FilteringFunctions/arm_lms_init_f32.c **** 
  29:Source\FilteringFunctions/arm_lms_init_f32.c **** #include "arm_math.h"
  30:Source\FilteringFunctions/arm_lms_init_f32.c **** 
  31:Source\FilteringFunctions/arm_lms_init_f32.c **** /**
  32:Source\FilteringFunctions/arm_lms_init_f32.c ****  * @addtogroup LMS
ARM GAS  C:\Users\fneves\AppData\Local\Temp\ccz7kjNb.s 			page 2


  33:Source\FilteringFunctions/arm_lms_init_f32.c ****  * @{
  34:Source\FilteringFunctions/arm_lms_init_f32.c ****  */
  35:Source\FilteringFunctions/arm_lms_init_f32.c **** 
  36:Source\FilteringFunctions/arm_lms_init_f32.c ****   /**
  37:Source\FilteringFunctions/arm_lms_init_f32.c ****    * @brief Initialization function for floating-point LMS filter.
  38:Source\FilteringFunctions/arm_lms_init_f32.c ****    * @param[in] *S points to an instance of the floating-point LMS filter structure.
  39:Source\FilteringFunctions/arm_lms_init_f32.c ****    * @param[in] numTaps  number of filter coefficients.
  40:Source\FilteringFunctions/arm_lms_init_f32.c ****    * @param[in] *pCoeffs points to the coefficient buffer.
  41:Source\FilteringFunctions/arm_lms_init_f32.c ****    * @param[in] *pState points to state buffer.
  42:Source\FilteringFunctions/arm_lms_init_f32.c ****    * @param[in] mu step size that controls filter coefficient updates.
  43:Source\FilteringFunctions/arm_lms_init_f32.c ****    * @param[in] blockSize number of samples to process.
  44:Source\FilteringFunctions/arm_lms_init_f32.c ****    * @return none.
  45:Source\FilteringFunctions/arm_lms_init_f32.c ****    */
  46:Source\FilteringFunctions/arm_lms_init_f32.c **** 
  47:Source\FilteringFunctions/arm_lms_init_f32.c **** /**
  48:Source\FilteringFunctions/arm_lms_init_f32.c ****  * \par Description:
  49:Source\FilteringFunctions/arm_lms_init_f32.c ****  * <code>pCoeffs</code> points to the array of filter coefficients stored in time reversed order:
  50:Source\FilteringFunctions/arm_lms_init_f32.c ****  * <pre>
  51:Source\FilteringFunctions/arm_lms_init_f32.c ****  *    {b[numTaps-1], b[numTaps-2], b[N-2], ..., b[1], b[0]}
  52:Source\FilteringFunctions/arm_lms_init_f32.c ****  * </pre>
  53:Source\FilteringFunctions/arm_lms_init_f32.c ****  * The initial filter coefficients serve as a starting point for the adaptive filter.
  54:Source\FilteringFunctions/arm_lms_init_f32.c ****  * <code>pState</code> points to an array of length <code>numTaps+blockSize-1</code> samples, where
  55:Source\FilteringFunctions/arm_lms_init_f32.c ****  */
  56:Source\FilteringFunctions/arm_lms_init_f32.c **** 
  57:Source\FilteringFunctions/arm_lms_init_f32.c **** void arm_lms_init_f32(
  58:Source\FilteringFunctions/arm_lms_init_f32.c ****   arm_lms_instance_f32 * S,
  59:Source\FilteringFunctions/arm_lms_init_f32.c ****   uint16_t numTaps,
  60:Source\FilteringFunctions/arm_lms_init_f32.c ****   float32_t * pCoeffs,
  61:Source\FilteringFunctions/arm_lms_init_f32.c ****   float32_t * pState,
  62:Source\FilteringFunctions/arm_lms_init_f32.c ****   float32_t mu,
  63:Source\FilteringFunctions/arm_lms_init_f32.c ****   uint32_t blockSize)
  64:Source\FilteringFunctions/arm_lms_init_f32.c **** {
  26              		.loc 1 64 0
  27              		.cfi_startproc
  28 0000 80B5     		push	{r7, lr}
  29              		.cfi_def_cfa_offset 8
  30              		.cfi_offset 7, -8
  31              		.cfi_offset 14, -4
  32 0002 84B0     		sub	sp, sp, #16
  33              		.cfi_def_cfa_offset 24
  34 0004 00AF     		add	r7, sp, #0
  35              		.cfi_def_cfa_register 7
  36 0006 F860     		str	r0, [r7, #12]
  37 0008 7A60     		str	r2, [r7, #4]
  38 000a 3B60     		str	r3, [r7]
  39 000c 0A23     		mov	r3, #10
  40 000e FB18     		add	r3, r7, r3
  41 0010 0A1C     		add	r2, r1, #0
  42 0012 1A80     		strh	r2, [r3]
  65:Source\FilteringFunctions/arm_lms_init_f32.c ****   /* Assign filter taps */
  66:Source\FilteringFunctions/arm_lms_init_f32.c ****   S->numTaps = numTaps;
  43              		.loc 1 66 0
  44 0014 FB68     		ldr	r3, [r7, #12]
  45 0016 0A22     		mov	r2, #10
  46 0018 BA18     		add	r2, r7, r2
  47 001a 1288     		ldrh	r2, [r2]
  48 001c 1A80     		strh	r2, [r3]
ARM GAS  C:\Users\fneves\AppData\Local\Temp\ccz7kjNb.s 			page 3


  67:Source\FilteringFunctions/arm_lms_init_f32.c **** 
  68:Source\FilteringFunctions/arm_lms_init_f32.c ****   /* Assign coefficient pointer */
  69:Source\FilteringFunctions/arm_lms_init_f32.c ****   S->pCoeffs = pCoeffs;
  49              		.loc 1 69 0
  50 001e FB68     		ldr	r3, [r7, #12]
  51 0020 7A68     		ldr	r2, [r7, #4]
  52 0022 9A60     		str	r2, [r3, #8]
  70:Source\FilteringFunctions/arm_lms_init_f32.c **** 
  71:Source\FilteringFunctions/arm_lms_init_f32.c ****   /* Clear state buffer and size is always blockSize + numTaps */
  72:Source\FilteringFunctions/arm_lms_init_f32.c ****   memset(pState, 0, (numTaps + (blockSize - 1)) * sizeof(float32_t));
  53              		.loc 1 72 0
  54 0024 0A23     		mov	r3, #10
  55 0026 FB18     		add	r3, r7, r3
  56 0028 1A88     		ldrh	r2, [r3]
  57 002a FB69     		ldr	r3, [r7, #28]
  58 002c D318     		add	r3, r2, r3
  59 002e 094A     		ldr	r2, .L2
  60 0030 9446     		mov	ip, r2
  61 0032 6344     		add	r3, r3, ip
  62 0034 9B00     		lsl	r3, r3, #2
  63 0036 3A68     		ldr	r2, [r7]
  64 0038 101C     		mov	r0, r2
  65 003a 0021     		mov	r1, #0
  66 003c 1A1C     		mov	r2, r3
  67 003e FFF7FEFF 		bl	memset
  73:Source\FilteringFunctions/arm_lms_init_f32.c **** 
  74:Source\FilteringFunctions/arm_lms_init_f32.c ****   /* Assign state pointer */
  75:Source\FilteringFunctions/arm_lms_init_f32.c ****   S->pState = pState;
  68              		.loc 1 75 0
  69 0042 FB68     		ldr	r3, [r7, #12]
  70 0044 3A68     		ldr	r2, [r7]
  71 0046 5A60     		str	r2, [r3, #4]
  76:Source\FilteringFunctions/arm_lms_init_f32.c **** 
  77:Source\FilteringFunctions/arm_lms_init_f32.c ****   /* Assign Step size value */
  78:Source\FilteringFunctions/arm_lms_init_f32.c ****   S->mu = mu;
  72              		.loc 1 78 0
  73 0048 FB68     		ldr	r3, [r7, #12]
  74 004a BA69     		ldr	r2, [r7, #24]
  75 004c DA60     		str	r2, [r3, #12]
  79:Source\FilteringFunctions/arm_lms_init_f32.c **** }
  76              		.loc 1 79 0
  77 004e BD46     		mov	sp, r7
  78 0050 04B0     		add	sp, sp, #16
  79              		@ sp needed
  80 0052 80BD     		pop	{r7, pc}
  81              	.L3:
  82              		.align	2
  83              	.L2:
  84 0054 FFFFFF3F 		.word	1073741823
  85              		.cfi_endproc
  86              	.LFE82:
  87              		.size	arm_lms_init_f32, .-arm_lms_init_f32
  88              		.text
  89              	.Letext0:
  90              		.file 2 "c:\\program files (x86)\\cypress\\psoc creator\\4.0\\psoc creator\\import\\gnu\\arm\\4.9.
  91              		.file 3 "c:\\program files (x86)\\cypress\\psoc creator\\4.0\\psoc creator\\import\\gnu\\arm\\4.9.
  92              		.file 4 ".\\Include/arm_math.h"
ARM GAS  C:\Users\fneves\AppData\Local\Temp\ccz7kjNb.s 			page 4

