ARM GAS  C:\Users\fneves\AppData\Local\Temp\cc5PLUie.s 			page 1


   1              		.cpu cortex-m0plus
   2              		.fpu softvfp
   3              		.eabi_attribute 20, 1
   4              		.eabi_attribute 21, 1
   5              		.eabi_attribute 23, 3
   6              		.eabi_attribute 24, 1
   7              		.eabi_attribute 25, 1
   8              		.eabi_attribute 26, 1
   9              		.eabi_attribute 30, 6
  10              		.eabi_attribute 34, 0
  11              		.eabi_attribute 18, 4
  12              		.code	16
  13              		.file	"arm_fir_interpolate_q31.c"
  14              		.text
  15              	.Ltext0:
  16              		.cfi_sections	.debug_frame
  17              		.global	__aeabi_lmul
  18              		.section	.text.arm_fir_interpolate_q31,"ax",%progbits
  19              		.align	2
  20              		.global	arm_fir_interpolate_q31
  21              		.code	16
  22              		.thumb_func
  23              		.type	arm_fir_interpolate_q31, %function
  24              	arm_fir_interpolate_q31:
  25              	.LFB82:
  26              		.file 1 "Source\\FilteringFunctions\\arm_fir_interpolate_q31.c"
   1:Source\FilteringFunctions/arm_fir_interpolate_q31.c **** /* ----------------------------------------------------------------------
   2:Source\FilteringFunctions/arm_fir_interpolate_q31.c ****  * Project:      CMSIS DSP Library
   3:Source\FilteringFunctions/arm_fir_interpolate_q31.c ****  * Title:        arm_fir_interpolate_q31.c
   4:Source\FilteringFunctions/arm_fir_interpolate_q31.c ****  * Description:  Q31 FIR interpolation
   5:Source\FilteringFunctions/arm_fir_interpolate_q31.c ****  *
   6:Source\FilteringFunctions/arm_fir_interpolate_q31.c ****  * $Date:        27. January 2017
   7:Source\FilteringFunctions/arm_fir_interpolate_q31.c ****  * $Revision:    V.1.5.1
   8:Source\FilteringFunctions/arm_fir_interpolate_q31.c ****  *
   9:Source\FilteringFunctions/arm_fir_interpolate_q31.c ****  * Target Processor: Cortex-M cores
  10:Source\FilteringFunctions/arm_fir_interpolate_q31.c ****  * -------------------------------------------------------------------- */
  11:Source\FilteringFunctions/arm_fir_interpolate_q31.c **** /*
  12:Source\FilteringFunctions/arm_fir_interpolate_q31.c ****  * Copyright (C) 2010-2017 ARM Limited or its affiliates. All rights reserved.
  13:Source\FilteringFunctions/arm_fir_interpolate_q31.c ****  *
  14:Source\FilteringFunctions/arm_fir_interpolate_q31.c ****  * SPDX-License-Identifier: Apache-2.0
  15:Source\FilteringFunctions/arm_fir_interpolate_q31.c ****  *
  16:Source\FilteringFunctions/arm_fir_interpolate_q31.c ****  * Licensed under the Apache License, Version 2.0 (the License); you may
  17:Source\FilteringFunctions/arm_fir_interpolate_q31.c ****  * not use this file except in compliance with the License.
  18:Source\FilteringFunctions/arm_fir_interpolate_q31.c ****  * You may obtain a copy of the License at
  19:Source\FilteringFunctions/arm_fir_interpolate_q31.c ****  *
  20:Source\FilteringFunctions/arm_fir_interpolate_q31.c ****  * www.apache.org/licenses/LICENSE-2.0
  21:Source\FilteringFunctions/arm_fir_interpolate_q31.c ****  *
  22:Source\FilteringFunctions/arm_fir_interpolate_q31.c ****  * Unless required by applicable law or agreed to in writing, software
  23:Source\FilteringFunctions/arm_fir_interpolate_q31.c ****  * distributed under the License is distributed on an AS IS BASIS, WITHOUT
  24:Source\FilteringFunctions/arm_fir_interpolate_q31.c ****  * WARRANTIES OR CONDITIONS OF ANY KIND, either express or implied.
  25:Source\FilteringFunctions/arm_fir_interpolate_q31.c ****  * See the License for the specific language governing permissions and
  26:Source\FilteringFunctions/arm_fir_interpolate_q31.c ****  * limitations under the License.
  27:Source\FilteringFunctions/arm_fir_interpolate_q31.c ****  */
  28:Source\FilteringFunctions/arm_fir_interpolate_q31.c **** 
  29:Source\FilteringFunctions/arm_fir_interpolate_q31.c **** #include "arm_math.h"
  30:Source\FilteringFunctions/arm_fir_interpolate_q31.c **** 
  31:Source\FilteringFunctions/arm_fir_interpolate_q31.c **** /**
ARM GAS  C:\Users\fneves\AppData\Local\Temp\cc5PLUie.s 			page 2


  32:Source\FilteringFunctions/arm_fir_interpolate_q31.c ****  * @ingroup groupFilters
  33:Source\FilteringFunctions/arm_fir_interpolate_q31.c ****  */
  34:Source\FilteringFunctions/arm_fir_interpolate_q31.c **** 
  35:Source\FilteringFunctions/arm_fir_interpolate_q31.c **** /**
  36:Source\FilteringFunctions/arm_fir_interpolate_q31.c ****  * @addtogroup FIR_Interpolate
  37:Source\FilteringFunctions/arm_fir_interpolate_q31.c ****  * @{
  38:Source\FilteringFunctions/arm_fir_interpolate_q31.c ****  */
  39:Source\FilteringFunctions/arm_fir_interpolate_q31.c **** 
  40:Source\FilteringFunctions/arm_fir_interpolate_q31.c **** /**
  41:Source\FilteringFunctions/arm_fir_interpolate_q31.c ****  * @brief Processing function for the Q31 FIR interpolator.
  42:Source\FilteringFunctions/arm_fir_interpolate_q31.c ****  * @param[in] *S        points to an instance of the Q31 FIR interpolator structure.
  43:Source\FilteringFunctions/arm_fir_interpolate_q31.c ****  * @param[in] *pSrc     points to the block of input data.
  44:Source\FilteringFunctions/arm_fir_interpolate_q31.c ****  * @param[out] *pDst    points to the block of output data.
  45:Source\FilteringFunctions/arm_fir_interpolate_q31.c ****  * @param[in] blockSize number of input samples to process per call.
  46:Source\FilteringFunctions/arm_fir_interpolate_q31.c ****  * @return none.
  47:Source\FilteringFunctions/arm_fir_interpolate_q31.c ****  *
  48:Source\FilteringFunctions/arm_fir_interpolate_q31.c ****  * <b>Scaling and Overflow Behavior:</b>
  49:Source\FilteringFunctions/arm_fir_interpolate_q31.c ****  * \par
  50:Source\FilteringFunctions/arm_fir_interpolate_q31.c ****  * The function is implemented using an internal 64-bit accumulator.
  51:Source\FilteringFunctions/arm_fir_interpolate_q31.c ****  * The accumulator has a 2.62 format and maintains full precision of the intermediate multiplicatio
  52:Source\FilteringFunctions/arm_fir_interpolate_q31.c ****  * Thus, if the accumulator result overflows it wraps around rather than clip.
  53:Source\FilteringFunctions/arm_fir_interpolate_q31.c ****  * In order to avoid overflows completely the input signal must be scaled down by <code>1/(numTaps/
  54:Source\FilteringFunctions/arm_fir_interpolate_q31.c ****  * since <code>numTaps/L</code> additions occur per output sample.
  55:Source\FilteringFunctions/arm_fir_interpolate_q31.c ****  * After all multiply-accumulates are performed, the 2.62 accumulator is truncated to 1.32 format a
  56:Source\FilteringFunctions/arm_fir_interpolate_q31.c ****  */
  57:Source\FilteringFunctions/arm_fir_interpolate_q31.c **** 
  58:Source\FilteringFunctions/arm_fir_interpolate_q31.c **** #if defined (ARM_MATH_DSP)
  59:Source\FilteringFunctions/arm_fir_interpolate_q31.c **** 
  60:Source\FilteringFunctions/arm_fir_interpolate_q31.c ****   /* Run the below code for Cortex-M4 and Cortex-M3 */
  61:Source\FilteringFunctions/arm_fir_interpolate_q31.c **** 
  62:Source\FilteringFunctions/arm_fir_interpolate_q31.c **** void arm_fir_interpolate_q31(
  63:Source\FilteringFunctions/arm_fir_interpolate_q31.c ****   const arm_fir_interpolate_instance_q31 * S,
  64:Source\FilteringFunctions/arm_fir_interpolate_q31.c ****   q31_t * pSrc,
  65:Source\FilteringFunctions/arm_fir_interpolate_q31.c ****   q31_t * pDst,
  66:Source\FilteringFunctions/arm_fir_interpolate_q31.c ****   uint32_t blockSize)
  67:Source\FilteringFunctions/arm_fir_interpolate_q31.c **** {
  68:Source\FilteringFunctions/arm_fir_interpolate_q31.c ****   q31_t *pState = S->pState;                     /* State pointer */
  69:Source\FilteringFunctions/arm_fir_interpolate_q31.c ****   q31_t *pCoeffs = S->pCoeffs;                   /* Coefficient pointer */
  70:Source\FilteringFunctions/arm_fir_interpolate_q31.c ****   q31_t *pStateCurnt;                            /* Points to the current sample of the state */
  71:Source\FilteringFunctions/arm_fir_interpolate_q31.c ****   q31_t *ptr1, *ptr2;                            /* Temporary pointers for state and coefficient bu
  72:Source\FilteringFunctions/arm_fir_interpolate_q31.c ****   q63_t sum0;                                    /* Accumulators */
  73:Source\FilteringFunctions/arm_fir_interpolate_q31.c ****   q31_t x0, c0;                                  /* Temporary variables to hold state and coefficie
  74:Source\FilteringFunctions/arm_fir_interpolate_q31.c ****   uint32_t i, blkCnt, j;                         /* Loop counters */
  75:Source\FilteringFunctions/arm_fir_interpolate_q31.c ****   uint16_t phaseLen = S->phaseLength, tapCnt;    /* Length of each polyphase filter component */
  76:Source\FilteringFunctions/arm_fir_interpolate_q31.c **** 
  77:Source\FilteringFunctions/arm_fir_interpolate_q31.c ****   uint32_t blkCntN2;
  78:Source\FilteringFunctions/arm_fir_interpolate_q31.c ****   q63_t acc0, acc1;
  79:Source\FilteringFunctions/arm_fir_interpolate_q31.c ****   q31_t x1;
  80:Source\FilteringFunctions/arm_fir_interpolate_q31.c **** 
  81:Source\FilteringFunctions/arm_fir_interpolate_q31.c ****   /* S->pState buffer contains previous frame (phaseLen - 1) samples */
  82:Source\FilteringFunctions/arm_fir_interpolate_q31.c ****   /* pStateCurnt points to the location where the new input data should be written */
  83:Source\FilteringFunctions/arm_fir_interpolate_q31.c ****   pStateCurnt = S->pState + ((q31_t) phaseLen - 1);
  84:Source\FilteringFunctions/arm_fir_interpolate_q31.c **** 
  85:Source\FilteringFunctions/arm_fir_interpolate_q31.c ****   /* Initialise  blkCnt */
  86:Source\FilteringFunctions/arm_fir_interpolate_q31.c ****   blkCnt = blockSize / 2;
  87:Source\FilteringFunctions/arm_fir_interpolate_q31.c ****   blkCntN2 = blockSize - (2 * blkCnt);
  88:Source\FilteringFunctions/arm_fir_interpolate_q31.c **** 
ARM GAS  C:\Users\fneves\AppData\Local\Temp\cc5PLUie.s 			page 3


  89:Source\FilteringFunctions/arm_fir_interpolate_q31.c ****   /* Samples loop unrolled by 2 */
  90:Source\FilteringFunctions/arm_fir_interpolate_q31.c ****   while (blkCnt > 0u)
  91:Source\FilteringFunctions/arm_fir_interpolate_q31.c ****   {
  92:Source\FilteringFunctions/arm_fir_interpolate_q31.c ****     /* Copy new input sample into the state buffer */
  93:Source\FilteringFunctions/arm_fir_interpolate_q31.c ****     *pStateCurnt++ = *pSrc++;
  94:Source\FilteringFunctions/arm_fir_interpolate_q31.c ****     *pStateCurnt++ = *pSrc++;
  95:Source\FilteringFunctions/arm_fir_interpolate_q31.c **** 
  96:Source\FilteringFunctions/arm_fir_interpolate_q31.c ****     /* Address modifier index of coefficient buffer */
  97:Source\FilteringFunctions/arm_fir_interpolate_q31.c ****     j = 1u;
  98:Source\FilteringFunctions/arm_fir_interpolate_q31.c **** 
  99:Source\FilteringFunctions/arm_fir_interpolate_q31.c ****     /* Loop over the Interpolation factor. */
 100:Source\FilteringFunctions/arm_fir_interpolate_q31.c ****     i = (S->L);
 101:Source\FilteringFunctions/arm_fir_interpolate_q31.c **** 
 102:Source\FilteringFunctions/arm_fir_interpolate_q31.c ****     while (i > 0u)
 103:Source\FilteringFunctions/arm_fir_interpolate_q31.c ****     {
 104:Source\FilteringFunctions/arm_fir_interpolate_q31.c ****       /* Set accumulator to zero */
 105:Source\FilteringFunctions/arm_fir_interpolate_q31.c ****       acc0 = 0;
 106:Source\FilteringFunctions/arm_fir_interpolate_q31.c ****       acc1 = 0;
 107:Source\FilteringFunctions/arm_fir_interpolate_q31.c **** 
 108:Source\FilteringFunctions/arm_fir_interpolate_q31.c ****       /* Initialize state pointer */
 109:Source\FilteringFunctions/arm_fir_interpolate_q31.c ****       ptr1 = pState;
 110:Source\FilteringFunctions/arm_fir_interpolate_q31.c **** 
 111:Source\FilteringFunctions/arm_fir_interpolate_q31.c ****       /* Initialize coefficient pointer */
 112:Source\FilteringFunctions/arm_fir_interpolate_q31.c ****       ptr2 = pCoeffs + (S->L - j);
 113:Source\FilteringFunctions/arm_fir_interpolate_q31.c **** 
 114:Source\FilteringFunctions/arm_fir_interpolate_q31.c ****       /* Loop over the polyPhase length. Unroll by a factor of 4.
 115:Source\FilteringFunctions/arm_fir_interpolate_q31.c ****        ** Repeat until we've computed numTaps-(4*S->L) coefficients. */
 116:Source\FilteringFunctions/arm_fir_interpolate_q31.c ****       tapCnt = phaseLen >> 2u;
 117:Source\FilteringFunctions/arm_fir_interpolate_q31.c **** 
 118:Source\FilteringFunctions/arm_fir_interpolate_q31.c ****       x0 = *(ptr1++);
 119:Source\FilteringFunctions/arm_fir_interpolate_q31.c **** 
 120:Source\FilteringFunctions/arm_fir_interpolate_q31.c ****       while (tapCnt > 0u)
 121:Source\FilteringFunctions/arm_fir_interpolate_q31.c ****       {
 122:Source\FilteringFunctions/arm_fir_interpolate_q31.c **** 
 123:Source\FilteringFunctions/arm_fir_interpolate_q31.c ****         /* Read the input sample */
 124:Source\FilteringFunctions/arm_fir_interpolate_q31.c ****         x1 = *(ptr1++);
 125:Source\FilteringFunctions/arm_fir_interpolate_q31.c **** 
 126:Source\FilteringFunctions/arm_fir_interpolate_q31.c ****         /* Read the coefficient */
 127:Source\FilteringFunctions/arm_fir_interpolate_q31.c ****         c0 = *(ptr2);
 128:Source\FilteringFunctions/arm_fir_interpolate_q31.c **** 
 129:Source\FilteringFunctions/arm_fir_interpolate_q31.c ****         /* Perform the multiply-accumulate */
 130:Source\FilteringFunctions/arm_fir_interpolate_q31.c ****         acc0 += (q63_t) x0 *c0;
 131:Source\FilteringFunctions/arm_fir_interpolate_q31.c ****         acc1 += (q63_t) x1 *c0;
 132:Source\FilteringFunctions/arm_fir_interpolate_q31.c **** 
 133:Source\FilteringFunctions/arm_fir_interpolate_q31.c **** 
 134:Source\FilteringFunctions/arm_fir_interpolate_q31.c ****         /* Read the coefficient */
 135:Source\FilteringFunctions/arm_fir_interpolate_q31.c ****         c0 = *(ptr2 + S->L);
 136:Source\FilteringFunctions/arm_fir_interpolate_q31.c **** 
 137:Source\FilteringFunctions/arm_fir_interpolate_q31.c ****         /* Read the input sample */
 138:Source\FilteringFunctions/arm_fir_interpolate_q31.c ****         x0 = *(ptr1++);
 139:Source\FilteringFunctions/arm_fir_interpolate_q31.c **** 
 140:Source\FilteringFunctions/arm_fir_interpolate_q31.c ****         /* Perform the multiply-accumulate */
 141:Source\FilteringFunctions/arm_fir_interpolate_q31.c ****         acc0 += (q63_t) x1 *c0;
 142:Source\FilteringFunctions/arm_fir_interpolate_q31.c ****         acc1 += (q63_t) x0 *c0;
 143:Source\FilteringFunctions/arm_fir_interpolate_q31.c **** 
 144:Source\FilteringFunctions/arm_fir_interpolate_q31.c **** 
 145:Source\FilteringFunctions/arm_fir_interpolate_q31.c ****         /* Read the coefficient */
ARM GAS  C:\Users\fneves\AppData\Local\Temp\cc5PLUie.s 			page 4


 146:Source\FilteringFunctions/arm_fir_interpolate_q31.c ****         c0 = *(ptr2 + S->L * 2);
 147:Source\FilteringFunctions/arm_fir_interpolate_q31.c **** 
 148:Source\FilteringFunctions/arm_fir_interpolate_q31.c ****         /* Read the input sample */
 149:Source\FilteringFunctions/arm_fir_interpolate_q31.c ****         x1 = *(ptr1++);
 150:Source\FilteringFunctions/arm_fir_interpolate_q31.c **** 
 151:Source\FilteringFunctions/arm_fir_interpolate_q31.c ****         /* Perform the multiply-accumulate */
 152:Source\FilteringFunctions/arm_fir_interpolate_q31.c ****         acc0 += (q63_t) x0 *c0;
 153:Source\FilteringFunctions/arm_fir_interpolate_q31.c ****         acc1 += (q63_t) x1 *c0;
 154:Source\FilteringFunctions/arm_fir_interpolate_q31.c **** 
 155:Source\FilteringFunctions/arm_fir_interpolate_q31.c ****         /* Read the coefficient */
 156:Source\FilteringFunctions/arm_fir_interpolate_q31.c ****         c0 = *(ptr2 + S->L * 3);
 157:Source\FilteringFunctions/arm_fir_interpolate_q31.c **** 
 158:Source\FilteringFunctions/arm_fir_interpolate_q31.c ****         /* Read the input sample */
 159:Source\FilteringFunctions/arm_fir_interpolate_q31.c ****         x0 = *(ptr1++);
 160:Source\FilteringFunctions/arm_fir_interpolate_q31.c **** 
 161:Source\FilteringFunctions/arm_fir_interpolate_q31.c ****         /* Perform the multiply-accumulate */
 162:Source\FilteringFunctions/arm_fir_interpolate_q31.c ****         acc0 += (q63_t) x1 *c0;
 163:Source\FilteringFunctions/arm_fir_interpolate_q31.c ****         acc1 += (q63_t) x0 *c0;
 164:Source\FilteringFunctions/arm_fir_interpolate_q31.c **** 
 165:Source\FilteringFunctions/arm_fir_interpolate_q31.c **** 
 166:Source\FilteringFunctions/arm_fir_interpolate_q31.c ****         /* Upsampling is done by stuffing L-1 zeros between each sample.
 167:Source\FilteringFunctions/arm_fir_interpolate_q31.c ****          * So instead of multiplying zeros with coefficients,
 168:Source\FilteringFunctions/arm_fir_interpolate_q31.c ****          * Increment the coefficient pointer by interpolation factor times. */
 169:Source\FilteringFunctions/arm_fir_interpolate_q31.c ****         ptr2 += 4 * S->L;
 170:Source\FilteringFunctions/arm_fir_interpolate_q31.c **** 
 171:Source\FilteringFunctions/arm_fir_interpolate_q31.c ****         /* Decrement the loop counter */
 172:Source\FilteringFunctions/arm_fir_interpolate_q31.c ****         tapCnt--;
 173:Source\FilteringFunctions/arm_fir_interpolate_q31.c ****       }
 174:Source\FilteringFunctions/arm_fir_interpolate_q31.c **** 
 175:Source\FilteringFunctions/arm_fir_interpolate_q31.c ****       /* If the polyPhase length is not a multiple of 4, compute the remaining filter taps */
 176:Source\FilteringFunctions/arm_fir_interpolate_q31.c ****       tapCnt = phaseLen % 0x4u;
 177:Source\FilteringFunctions/arm_fir_interpolate_q31.c **** 
 178:Source\FilteringFunctions/arm_fir_interpolate_q31.c ****       while (tapCnt > 0u)
 179:Source\FilteringFunctions/arm_fir_interpolate_q31.c ****       {
 180:Source\FilteringFunctions/arm_fir_interpolate_q31.c **** 
 181:Source\FilteringFunctions/arm_fir_interpolate_q31.c ****         /* Read the input sample */
 182:Source\FilteringFunctions/arm_fir_interpolate_q31.c ****         x1 = *(ptr1++);
 183:Source\FilteringFunctions/arm_fir_interpolate_q31.c **** 
 184:Source\FilteringFunctions/arm_fir_interpolate_q31.c ****         /* Read the coefficient */
 185:Source\FilteringFunctions/arm_fir_interpolate_q31.c ****         c0 = *(ptr2);
 186:Source\FilteringFunctions/arm_fir_interpolate_q31.c **** 
 187:Source\FilteringFunctions/arm_fir_interpolate_q31.c ****         /* Perform the multiply-accumulate */
 188:Source\FilteringFunctions/arm_fir_interpolate_q31.c ****         acc0 += (q63_t) x0 *c0;
 189:Source\FilteringFunctions/arm_fir_interpolate_q31.c ****         acc1 += (q63_t) x1 *c0;
 190:Source\FilteringFunctions/arm_fir_interpolate_q31.c **** 
 191:Source\FilteringFunctions/arm_fir_interpolate_q31.c ****         /* Increment the coefficient pointer by interpolation factor times. */
 192:Source\FilteringFunctions/arm_fir_interpolate_q31.c ****         ptr2 += S->L;
 193:Source\FilteringFunctions/arm_fir_interpolate_q31.c **** 
 194:Source\FilteringFunctions/arm_fir_interpolate_q31.c ****         /* update states for next sample processing */
 195:Source\FilteringFunctions/arm_fir_interpolate_q31.c ****         x0 = x1;
 196:Source\FilteringFunctions/arm_fir_interpolate_q31.c **** 
 197:Source\FilteringFunctions/arm_fir_interpolate_q31.c ****         /* Decrement the loop counter */
 198:Source\FilteringFunctions/arm_fir_interpolate_q31.c ****         tapCnt--;
 199:Source\FilteringFunctions/arm_fir_interpolate_q31.c ****       }
 200:Source\FilteringFunctions/arm_fir_interpolate_q31.c **** 
 201:Source\FilteringFunctions/arm_fir_interpolate_q31.c ****       /* The result is in the accumulator, store in the destination buffer. */
 202:Source\FilteringFunctions/arm_fir_interpolate_q31.c ****       *pDst = (q31_t) (acc0 >> 31);
ARM GAS  C:\Users\fneves\AppData\Local\Temp\cc5PLUie.s 			page 5


 203:Source\FilteringFunctions/arm_fir_interpolate_q31.c ****       *(pDst + S->L) = (q31_t) (acc1 >> 31);
 204:Source\FilteringFunctions/arm_fir_interpolate_q31.c **** 
 205:Source\FilteringFunctions/arm_fir_interpolate_q31.c **** 
 206:Source\FilteringFunctions/arm_fir_interpolate_q31.c ****       pDst++;
 207:Source\FilteringFunctions/arm_fir_interpolate_q31.c **** 
 208:Source\FilteringFunctions/arm_fir_interpolate_q31.c ****       /* Increment the address modifier index of coefficient buffer */
 209:Source\FilteringFunctions/arm_fir_interpolate_q31.c ****       j++;
 210:Source\FilteringFunctions/arm_fir_interpolate_q31.c **** 
 211:Source\FilteringFunctions/arm_fir_interpolate_q31.c ****       /* Decrement the loop counter */
 212:Source\FilteringFunctions/arm_fir_interpolate_q31.c ****       i--;
 213:Source\FilteringFunctions/arm_fir_interpolate_q31.c ****     }
 214:Source\FilteringFunctions/arm_fir_interpolate_q31.c **** 
 215:Source\FilteringFunctions/arm_fir_interpolate_q31.c ****     /* Advance the state pointer by 1
 216:Source\FilteringFunctions/arm_fir_interpolate_q31.c ****      * to process the next group of interpolation factor number samples */
 217:Source\FilteringFunctions/arm_fir_interpolate_q31.c ****     pState = pState + 2;
 218:Source\FilteringFunctions/arm_fir_interpolate_q31.c **** 
 219:Source\FilteringFunctions/arm_fir_interpolate_q31.c ****     pDst += S->L;
 220:Source\FilteringFunctions/arm_fir_interpolate_q31.c **** 
 221:Source\FilteringFunctions/arm_fir_interpolate_q31.c ****     /* Decrement the loop counter */
 222:Source\FilteringFunctions/arm_fir_interpolate_q31.c ****     blkCnt--;
 223:Source\FilteringFunctions/arm_fir_interpolate_q31.c ****   }
 224:Source\FilteringFunctions/arm_fir_interpolate_q31.c **** 
 225:Source\FilteringFunctions/arm_fir_interpolate_q31.c ****   /* If the blockSize is not a multiple of 2, compute any remaining output samples here.
 226:Source\FilteringFunctions/arm_fir_interpolate_q31.c ****    ** No loop unrolling is used. */
 227:Source\FilteringFunctions/arm_fir_interpolate_q31.c ****   blkCnt = blkCntN2;
 228:Source\FilteringFunctions/arm_fir_interpolate_q31.c **** 
 229:Source\FilteringFunctions/arm_fir_interpolate_q31.c ****   /* Loop over the blockSize. */
 230:Source\FilteringFunctions/arm_fir_interpolate_q31.c ****   while (blkCnt > 0u)
 231:Source\FilteringFunctions/arm_fir_interpolate_q31.c ****   {
 232:Source\FilteringFunctions/arm_fir_interpolate_q31.c ****     /* Copy new input sample into the state buffer */
 233:Source\FilteringFunctions/arm_fir_interpolate_q31.c ****     *pStateCurnt++ = *pSrc++;
 234:Source\FilteringFunctions/arm_fir_interpolate_q31.c **** 
 235:Source\FilteringFunctions/arm_fir_interpolate_q31.c ****     /* Address modifier index of coefficient buffer */
 236:Source\FilteringFunctions/arm_fir_interpolate_q31.c ****     j = 1u;
 237:Source\FilteringFunctions/arm_fir_interpolate_q31.c **** 
 238:Source\FilteringFunctions/arm_fir_interpolate_q31.c ****     /* Loop over the Interpolation factor. */
 239:Source\FilteringFunctions/arm_fir_interpolate_q31.c ****     i = S->L;
 240:Source\FilteringFunctions/arm_fir_interpolate_q31.c ****     while (i > 0u)
 241:Source\FilteringFunctions/arm_fir_interpolate_q31.c ****     {
 242:Source\FilteringFunctions/arm_fir_interpolate_q31.c ****       /* Set accumulator to zero */
 243:Source\FilteringFunctions/arm_fir_interpolate_q31.c ****       sum0 = 0;
 244:Source\FilteringFunctions/arm_fir_interpolate_q31.c **** 
 245:Source\FilteringFunctions/arm_fir_interpolate_q31.c ****       /* Initialize state pointer */
 246:Source\FilteringFunctions/arm_fir_interpolate_q31.c ****       ptr1 = pState;
 247:Source\FilteringFunctions/arm_fir_interpolate_q31.c **** 
 248:Source\FilteringFunctions/arm_fir_interpolate_q31.c ****       /* Initialize coefficient pointer */
 249:Source\FilteringFunctions/arm_fir_interpolate_q31.c ****       ptr2 = pCoeffs + (S->L - j);
 250:Source\FilteringFunctions/arm_fir_interpolate_q31.c **** 
 251:Source\FilteringFunctions/arm_fir_interpolate_q31.c ****       /* Loop over the polyPhase length. Unroll by a factor of 4.
 252:Source\FilteringFunctions/arm_fir_interpolate_q31.c ****        ** Repeat until we've computed numTaps-(4*S->L) coefficients. */
 253:Source\FilteringFunctions/arm_fir_interpolate_q31.c ****       tapCnt = phaseLen >> 2;
 254:Source\FilteringFunctions/arm_fir_interpolate_q31.c ****       while (tapCnt > 0u)
 255:Source\FilteringFunctions/arm_fir_interpolate_q31.c ****       {
 256:Source\FilteringFunctions/arm_fir_interpolate_q31.c **** 
 257:Source\FilteringFunctions/arm_fir_interpolate_q31.c ****         /* Read the coefficient */
 258:Source\FilteringFunctions/arm_fir_interpolate_q31.c ****         c0 = *(ptr2);
 259:Source\FilteringFunctions/arm_fir_interpolate_q31.c **** 
ARM GAS  C:\Users\fneves\AppData\Local\Temp\cc5PLUie.s 			page 6


 260:Source\FilteringFunctions/arm_fir_interpolate_q31.c ****         /* Upsampling is done by stuffing L-1 zeros between each sample.
 261:Source\FilteringFunctions/arm_fir_interpolate_q31.c ****          * So instead of multiplying zeros with coefficients,
 262:Source\FilteringFunctions/arm_fir_interpolate_q31.c ****          * Increment the coefficient pointer by interpolation factor times. */
 263:Source\FilteringFunctions/arm_fir_interpolate_q31.c ****         ptr2 += S->L;
 264:Source\FilteringFunctions/arm_fir_interpolate_q31.c **** 
 265:Source\FilteringFunctions/arm_fir_interpolate_q31.c ****         /* Read the input sample */
 266:Source\FilteringFunctions/arm_fir_interpolate_q31.c ****         x0 = *(ptr1++);
 267:Source\FilteringFunctions/arm_fir_interpolate_q31.c **** 
 268:Source\FilteringFunctions/arm_fir_interpolate_q31.c ****         /* Perform the multiply-accumulate */
 269:Source\FilteringFunctions/arm_fir_interpolate_q31.c ****         sum0 += (q63_t) x0 *c0;
 270:Source\FilteringFunctions/arm_fir_interpolate_q31.c **** 
 271:Source\FilteringFunctions/arm_fir_interpolate_q31.c ****         /* Read the coefficient */
 272:Source\FilteringFunctions/arm_fir_interpolate_q31.c ****         c0 = *(ptr2);
 273:Source\FilteringFunctions/arm_fir_interpolate_q31.c **** 
 274:Source\FilteringFunctions/arm_fir_interpolate_q31.c ****         /* Increment the coefficient pointer by interpolation factor times. */
 275:Source\FilteringFunctions/arm_fir_interpolate_q31.c ****         ptr2 += S->L;
 276:Source\FilteringFunctions/arm_fir_interpolate_q31.c **** 
 277:Source\FilteringFunctions/arm_fir_interpolate_q31.c ****         /* Read the input sample */
 278:Source\FilteringFunctions/arm_fir_interpolate_q31.c ****         x0 = *(ptr1++);
 279:Source\FilteringFunctions/arm_fir_interpolate_q31.c **** 
 280:Source\FilteringFunctions/arm_fir_interpolate_q31.c ****         /* Perform the multiply-accumulate */
 281:Source\FilteringFunctions/arm_fir_interpolate_q31.c ****         sum0 += (q63_t) x0 *c0;
 282:Source\FilteringFunctions/arm_fir_interpolate_q31.c **** 
 283:Source\FilteringFunctions/arm_fir_interpolate_q31.c ****         /* Read the coefficient */
 284:Source\FilteringFunctions/arm_fir_interpolate_q31.c ****         c0 = *(ptr2);
 285:Source\FilteringFunctions/arm_fir_interpolate_q31.c **** 
 286:Source\FilteringFunctions/arm_fir_interpolate_q31.c ****         /* Increment the coefficient pointer by interpolation factor times. */
 287:Source\FilteringFunctions/arm_fir_interpolate_q31.c ****         ptr2 += S->L;
 288:Source\FilteringFunctions/arm_fir_interpolate_q31.c **** 
 289:Source\FilteringFunctions/arm_fir_interpolate_q31.c ****         /* Read the input sample */
 290:Source\FilteringFunctions/arm_fir_interpolate_q31.c ****         x0 = *(ptr1++);
 291:Source\FilteringFunctions/arm_fir_interpolate_q31.c **** 
 292:Source\FilteringFunctions/arm_fir_interpolate_q31.c ****         /* Perform the multiply-accumulate */
 293:Source\FilteringFunctions/arm_fir_interpolate_q31.c ****         sum0 += (q63_t) x0 *c0;
 294:Source\FilteringFunctions/arm_fir_interpolate_q31.c **** 
 295:Source\FilteringFunctions/arm_fir_interpolate_q31.c ****         /* Read the coefficient */
 296:Source\FilteringFunctions/arm_fir_interpolate_q31.c ****         c0 = *(ptr2);
 297:Source\FilteringFunctions/arm_fir_interpolate_q31.c **** 
 298:Source\FilteringFunctions/arm_fir_interpolate_q31.c ****         /* Increment the coefficient pointer by interpolation factor times. */
 299:Source\FilteringFunctions/arm_fir_interpolate_q31.c ****         ptr2 += S->L;
 300:Source\FilteringFunctions/arm_fir_interpolate_q31.c **** 
 301:Source\FilteringFunctions/arm_fir_interpolate_q31.c ****         /* Read the input sample */
 302:Source\FilteringFunctions/arm_fir_interpolate_q31.c ****         x0 = *(ptr1++);
 303:Source\FilteringFunctions/arm_fir_interpolate_q31.c **** 
 304:Source\FilteringFunctions/arm_fir_interpolate_q31.c ****         /* Perform the multiply-accumulate */
 305:Source\FilteringFunctions/arm_fir_interpolate_q31.c ****         sum0 += (q63_t) x0 *c0;
 306:Source\FilteringFunctions/arm_fir_interpolate_q31.c **** 
 307:Source\FilteringFunctions/arm_fir_interpolate_q31.c ****         /* Decrement the loop counter */
 308:Source\FilteringFunctions/arm_fir_interpolate_q31.c ****         tapCnt--;
 309:Source\FilteringFunctions/arm_fir_interpolate_q31.c ****       }
 310:Source\FilteringFunctions/arm_fir_interpolate_q31.c **** 
 311:Source\FilteringFunctions/arm_fir_interpolate_q31.c ****       /* If the polyPhase length is not a multiple of 4, compute the remaining filter taps */
 312:Source\FilteringFunctions/arm_fir_interpolate_q31.c ****       tapCnt = phaseLen & 0x3u;
 313:Source\FilteringFunctions/arm_fir_interpolate_q31.c **** 
 314:Source\FilteringFunctions/arm_fir_interpolate_q31.c ****       while (tapCnt > 0u)
 315:Source\FilteringFunctions/arm_fir_interpolate_q31.c ****       {
 316:Source\FilteringFunctions/arm_fir_interpolate_q31.c ****         /* Read the coefficient */
ARM GAS  C:\Users\fneves\AppData\Local\Temp\cc5PLUie.s 			page 7


 317:Source\FilteringFunctions/arm_fir_interpolate_q31.c ****         c0 = *(ptr2);
 318:Source\FilteringFunctions/arm_fir_interpolate_q31.c **** 
 319:Source\FilteringFunctions/arm_fir_interpolate_q31.c ****         /* Increment the coefficient pointer by interpolation factor times. */
 320:Source\FilteringFunctions/arm_fir_interpolate_q31.c ****         ptr2 += S->L;
 321:Source\FilteringFunctions/arm_fir_interpolate_q31.c **** 
 322:Source\FilteringFunctions/arm_fir_interpolate_q31.c ****         /* Read the input sample */
 323:Source\FilteringFunctions/arm_fir_interpolate_q31.c ****         x0 = *(ptr1++);
 324:Source\FilteringFunctions/arm_fir_interpolate_q31.c **** 
 325:Source\FilteringFunctions/arm_fir_interpolate_q31.c ****         /* Perform the multiply-accumulate */
 326:Source\FilteringFunctions/arm_fir_interpolate_q31.c ****         sum0 += (q63_t) x0 *c0;
 327:Source\FilteringFunctions/arm_fir_interpolate_q31.c **** 
 328:Source\FilteringFunctions/arm_fir_interpolate_q31.c ****         /* Decrement the loop counter */
 329:Source\FilteringFunctions/arm_fir_interpolate_q31.c ****         tapCnt--;
 330:Source\FilteringFunctions/arm_fir_interpolate_q31.c ****       }
 331:Source\FilteringFunctions/arm_fir_interpolate_q31.c **** 
 332:Source\FilteringFunctions/arm_fir_interpolate_q31.c ****       /* The result is in the accumulator, store in the destination buffer. */
 333:Source\FilteringFunctions/arm_fir_interpolate_q31.c ****       *pDst++ = (q31_t) (sum0 >> 31);
 334:Source\FilteringFunctions/arm_fir_interpolate_q31.c **** 
 335:Source\FilteringFunctions/arm_fir_interpolate_q31.c ****       /* Increment the address modifier index of coefficient buffer */
 336:Source\FilteringFunctions/arm_fir_interpolate_q31.c ****       j++;
 337:Source\FilteringFunctions/arm_fir_interpolate_q31.c **** 
 338:Source\FilteringFunctions/arm_fir_interpolate_q31.c ****       /* Decrement the loop counter */
 339:Source\FilteringFunctions/arm_fir_interpolate_q31.c ****       i--;
 340:Source\FilteringFunctions/arm_fir_interpolate_q31.c ****     }
 341:Source\FilteringFunctions/arm_fir_interpolate_q31.c **** 
 342:Source\FilteringFunctions/arm_fir_interpolate_q31.c ****     /* Advance the state pointer by 1
 343:Source\FilteringFunctions/arm_fir_interpolate_q31.c ****      * to process the next group of interpolation factor number samples */
 344:Source\FilteringFunctions/arm_fir_interpolate_q31.c ****     pState = pState + 1;
 345:Source\FilteringFunctions/arm_fir_interpolate_q31.c **** 
 346:Source\FilteringFunctions/arm_fir_interpolate_q31.c ****     /* Decrement the loop counter */
 347:Source\FilteringFunctions/arm_fir_interpolate_q31.c ****     blkCnt--;
 348:Source\FilteringFunctions/arm_fir_interpolate_q31.c ****   }
 349:Source\FilteringFunctions/arm_fir_interpolate_q31.c **** 
 350:Source\FilteringFunctions/arm_fir_interpolate_q31.c ****   /* Processing is complete.
 351:Source\FilteringFunctions/arm_fir_interpolate_q31.c ****    ** Now copy the last phaseLen - 1 samples to the satrt of the state buffer.
 352:Source\FilteringFunctions/arm_fir_interpolate_q31.c ****    ** This prepares the state buffer for the next function call. */
 353:Source\FilteringFunctions/arm_fir_interpolate_q31.c **** 
 354:Source\FilteringFunctions/arm_fir_interpolate_q31.c ****   /* Points to the start of the state buffer */
 355:Source\FilteringFunctions/arm_fir_interpolate_q31.c ****   pStateCurnt = S->pState;
 356:Source\FilteringFunctions/arm_fir_interpolate_q31.c **** 
 357:Source\FilteringFunctions/arm_fir_interpolate_q31.c ****   tapCnt = (phaseLen - 1u) >> 2u;
 358:Source\FilteringFunctions/arm_fir_interpolate_q31.c **** 
 359:Source\FilteringFunctions/arm_fir_interpolate_q31.c ****   /* copy data */
 360:Source\FilteringFunctions/arm_fir_interpolate_q31.c ****   while (tapCnt > 0u)
 361:Source\FilteringFunctions/arm_fir_interpolate_q31.c ****   {
 362:Source\FilteringFunctions/arm_fir_interpolate_q31.c ****     *pStateCurnt++ = *pState++;
 363:Source\FilteringFunctions/arm_fir_interpolate_q31.c ****     *pStateCurnt++ = *pState++;
 364:Source\FilteringFunctions/arm_fir_interpolate_q31.c ****     *pStateCurnt++ = *pState++;
 365:Source\FilteringFunctions/arm_fir_interpolate_q31.c ****     *pStateCurnt++ = *pState++;
 366:Source\FilteringFunctions/arm_fir_interpolate_q31.c **** 
 367:Source\FilteringFunctions/arm_fir_interpolate_q31.c ****     /* Decrement the loop counter */
 368:Source\FilteringFunctions/arm_fir_interpolate_q31.c ****     tapCnt--;
 369:Source\FilteringFunctions/arm_fir_interpolate_q31.c ****   }
 370:Source\FilteringFunctions/arm_fir_interpolate_q31.c **** 
 371:Source\FilteringFunctions/arm_fir_interpolate_q31.c ****   tapCnt = (phaseLen - 1u) % 0x04u;
 372:Source\FilteringFunctions/arm_fir_interpolate_q31.c **** 
 373:Source\FilteringFunctions/arm_fir_interpolate_q31.c ****   /* copy data */
ARM GAS  C:\Users\fneves\AppData\Local\Temp\cc5PLUie.s 			page 8


 374:Source\FilteringFunctions/arm_fir_interpolate_q31.c ****   while (tapCnt > 0u)
 375:Source\FilteringFunctions/arm_fir_interpolate_q31.c ****   {
 376:Source\FilteringFunctions/arm_fir_interpolate_q31.c ****     *pStateCurnt++ = *pState++;
 377:Source\FilteringFunctions/arm_fir_interpolate_q31.c **** 
 378:Source\FilteringFunctions/arm_fir_interpolate_q31.c ****     /* Decrement the loop counter */
 379:Source\FilteringFunctions/arm_fir_interpolate_q31.c ****     tapCnt--;
 380:Source\FilteringFunctions/arm_fir_interpolate_q31.c ****   }
 381:Source\FilteringFunctions/arm_fir_interpolate_q31.c **** 
 382:Source\FilteringFunctions/arm_fir_interpolate_q31.c **** }
 383:Source\FilteringFunctions/arm_fir_interpolate_q31.c **** 
 384:Source\FilteringFunctions/arm_fir_interpolate_q31.c **** 
 385:Source\FilteringFunctions/arm_fir_interpolate_q31.c **** #else
 386:Source\FilteringFunctions/arm_fir_interpolate_q31.c **** 
 387:Source\FilteringFunctions/arm_fir_interpolate_q31.c **** void arm_fir_interpolate_q31(
 388:Source\FilteringFunctions/arm_fir_interpolate_q31.c ****   const arm_fir_interpolate_instance_q31 * S,
 389:Source\FilteringFunctions/arm_fir_interpolate_q31.c ****   q31_t * pSrc,
 390:Source\FilteringFunctions/arm_fir_interpolate_q31.c ****   q31_t * pDst,
 391:Source\FilteringFunctions/arm_fir_interpolate_q31.c ****   uint32_t blockSize)
 392:Source\FilteringFunctions/arm_fir_interpolate_q31.c **** {
  27              		.loc 1 392 0
  28              		.cfi_startproc
  29 0000 B0B5     		push	{r4, r5, r7, lr}
  30              		.cfi_def_cfa_offset 16
  31              		.cfi_offset 4, -16
  32              		.cfi_offset 5, -12
  33              		.cfi_offset 7, -8
  34              		.cfi_offset 14, -4
  35 0002 96B0     		sub	sp, sp, #88
  36              		.cfi_def_cfa_offset 104
  37 0004 00AF     		add	r7, sp, #0
  38              		.cfi_def_cfa_register 7
  39 0006 F861     		str	r0, [r7, #28]
  40 0008 B961     		str	r1, [r7, #24]
  41 000a 7A61     		str	r2, [r7, #20]
  42 000c 3B61     		str	r3, [r7, #16]
 393:Source\FilteringFunctions/arm_fir_interpolate_q31.c ****   q31_t *pState = S->pState;                     /* State pointer */
  43              		.loc 1 393 0
  44 000e FB69     		ldr	r3, [r7, #28]
  45 0010 9B68     		ldr	r3, [r3, #8]
  46 0012 7B65     		str	r3, [r7, #84]
 394:Source\FilteringFunctions/arm_fir_interpolate_q31.c ****   q31_t *pCoeffs = S->pCoeffs;                   /* Coefficient pointer */
  47              		.loc 1 394 0
  48 0014 FB69     		ldr	r3, [r7, #28]
  49 0016 5B68     		ldr	r3, [r3, #4]
  50 0018 3B63     		str	r3, [r7, #48]
 395:Source\FilteringFunctions/arm_fir_interpolate_q31.c ****   q31_t *pStateCurnt;                            /* Points to the current sample of the state */
 396:Source\FilteringFunctions/arm_fir_interpolate_q31.c ****   q31_t *ptr1, *ptr2;                            /* Temporary pointers for state and coefficient bu
 397:Source\FilteringFunctions/arm_fir_interpolate_q31.c **** 
 398:Source\FilteringFunctions/arm_fir_interpolate_q31.c ****   /* Run the below code for Cortex-M0 */
 399:Source\FilteringFunctions/arm_fir_interpolate_q31.c **** 
 400:Source\FilteringFunctions/arm_fir_interpolate_q31.c ****   q63_t sum;                                     /* Accumulator */
 401:Source\FilteringFunctions/arm_fir_interpolate_q31.c ****   q31_t x0, c0;                                  /* Temporary variables to hold state and coefficie
 402:Source\FilteringFunctions/arm_fir_interpolate_q31.c ****   uint32_t i, blkCnt;                            /* Loop counters */
 403:Source\FilteringFunctions/arm_fir_interpolate_q31.c ****   uint16_t phaseLen = S->phaseLength, tapCnt;    /* Length of each polyphase filter component */
  51              		.loc 1 403 0
  52 001a 1E23     		mov	r3, #30
  53 001c 1022     		mov	r2, #16
ARM GAS  C:\Users\fneves\AppData\Local\Temp\cc5PLUie.s 			page 9


  54 001e 9446     		mov	ip, r2
  55 0020 BC44     		add	ip, ip, r7
  56 0022 6344     		add	r3, r3, ip
  57 0024 FA69     		ldr	r2, [r7, #28]
  58 0026 5288     		ldrh	r2, [r2, #2]
  59 0028 1A80     		strh	r2, [r3]
 404:Source\FilteringFunctions/arm_fir_interpolate_q31.c **** 
 405:Source\FilteringFunctions/arm_fir_interpolate_q31.c **** 
 406:Source\FilteringFunctions/arm_fir_interpolate_q31.c ****   /* S->pState buffer contains previous frame (phaseLen - 1) samples */
 407:Source\FilteringFunctions/arm_fir_interpolate_q31.c ****   /* pStateCurnt points to the location where the new input data should be written */
 408:Source\FilteringFunctions/arm_fir_interpolate_q31.c ****   pStateCurnt = S->pState + ((q31_t) phaseLen - 1);
  60              		.loc 1 408 0
  61 002a FB69     		ldr	r3, [r7, #28]
  62 002c 9A68     		ldr	r2, [r3, #8]
  63 002e 1E23     		mov	r3, #30
  64 0030 1021     		mov	r1, #16
  65 0032 8C46     		mov	ip, r1
  66 0034 BC44     		add	ip, ip, r7
  67 0036 6344     		add	r3, r3, ip
  68 0038 1B88     		ldrh	r3, [r3]
  69 003a 5C49     		ldr	r1, .L10
  70 003c 8C46     		mov	ip, r1
  71 003e 6344     		add	r3, r3, ip
  72 0040 9B00     		lsl	r3, r3, #2
  73 0042 D318     		add	r3, r2, r3
  74 0044 3B65     		str	r3, [r7, #80]
 409:Source\FilteringFunctions/arm_fir_interpolate_q31.c **** 
 410:Source\FilteringFunctions/arm_fir_interpolate_q31.c ****   /* Total number of intput samples */
 411:Source\FilteringFunctions/arm_fir_interpolate_q31.c ****   blkCnt = blockSize;
  75              		.loc 1 411 0
  76 0046 3B69     		ldr	r3, [r7, #16]
  77 0048 BB63     		str	r3, [r7, #56]
 412:Source\FilteringFunctions/arm_fir_interpolate_q31.c **** 
 413:Source\FilteringFunctions/arm_fir_interpolate_q31.c ****   /* Loop over the blockSize. */
 414:Source\FilteringFunctions/arm_fir_interpolate_q31.c ****   while (blkCnt > 0u)
  78              		.loc 1 414 0
  79 004a 79E0     		b	.L2
  80              	.L7:
 415:Source\FilteringFunctions/arm_fir_interpolate_q31.c ****   {
 416:Source\FilteringFunctions/arm_fir_interpolate_q31.c ****     /* Copy new input sample into the state buffer */
 417:Source\FilteringFunctions/arm_fir_interpolate_q31.c ****     *pStateCurnt++ = *pSrc++;
  81              		.loc 1 417 0
  82 004c 3B6D     		ldr	r3, [r7, #80]
  83 004e 1A1D     		add	r2, r3, #4
  84 0050 3A65     		str	r2, [r7, #80]
  85 0052 BA69     		ldr	r2, [r7, #24]
  86 0054 111D     		add	r1, r2, #4
  87 0056 B961     		str	r1, [r7, #24]
  88 0058 1268     		ldr	r2, [r2]
  89 005a 1A60     		str	r2, [r3]
 418:Source\FilteringFunctions/arm_fir_interpolate_q31.c **** 
 419:Source\FilteringFunctions/arm_fir_interpolate_q31.c ****     /* Loop over the Interpolation factor. */
 420:Source\FilteringFunctions/arm_fir_interpolate_q31.c ****     i = S->L;
  90              		.loc 1 420 0
  91 005c FB69     		ldr	r3, [r7, #28]
  92 005e 1B78     		ldrb	r3, [r3]
  93 0060 FB63     		str	r3, [r7, #60]
ARM GAS  C:\Users\fneves\AppData\Local\Temp\cc5PLUie.s 			page 10


 421:Source\FilteringFunctions/arm_fir_interpolate_q31.c **** 
 422:Source\FilteringFunctions/arm_fir_interpolate_q31.c ****     while (i > 0u)
  94              		.loc 1 422 0
  95 0062 64E0     		b	.L3
  96              	.L6:
 423:Source\FilteringFunctions/arm_fir_interpolate_q31.c ****     {
 424:Source\FilteringFunctions/arm_fir_interpolate_q31.c ****       /* Set accumulator to zero */
 425:Source\FilteringFunctions/arm_fir_interpolate_q31.c ****       sum = 0;
  97              		.loc 1 425 0
  98 0064 0022     		mov	r2, #0
  99 0066 0023     		mov	r3, #0
 100 0068 3A64     		str	r2, [r7, #64]
 101 006a 7B64     		str	r3, [r7, #68]
 426:Source\FilteringFunctions/arm_fir_interpolate_q31.c **** 
 427:Source\FilteringFunctions/arm_fir_interpolate_q31.c ****       /* Initialize state pointer */
 428:Source\FilteringFunctions/arm_fir_interpolate_q31.c ****       ptr1 = pState;
 102              		.loc 1 428 0
 103 006c 7B6D     		ldr	r3, [r7, #84]
 104 006e FB64     		str	r3, [r7, #76]
 429:Source\FilteringFunctions/arm_fir_interpolate_q31.c **** 
 430:Source\FilteringFunctions/arm_fir_interpolate_q31.c ****       /* Initialize coefficient pointer */
 431:Source\FilteringFunctions/arm_fir_interpolate_q31.c ****       ptr2 = pCoeffs + (i - 1u);
 105              		.loc 1 431 0
 106 0070 FB6B     		ldr	r3, [r7, #60]
 107 0072 4E4A     		ldr	r2, .L10
 108 0074 9446     		mov	ip, r2
 109 0076 6344     		add	r3, r3, ip
 110 0078 9B00     		lsl	r3, r3, #2
 111 007a 3A6B     		ldr	r2, [r7, #48]
 112 007c D318     		add	r3, r2, r3
 113 007e BB64     		str	r3, [r7, #72]
 432:Source\FilteringFunctions/arm_fir_interpolate_q31.c **** 
 433:Source\FilteringFunctions/arm_fir_interpolate_q31.c ****       tapCnt = phaseLen;
 114              		.loc 1 433 0
 115 0080 2623     		mov	r3, #38
 116 0082 1022     		mov	r2, #16
 117 0084 9446     		mov	ip, r2
 118 0086 BC44     		add	ip, ip, r7
 119 0088 6344     		add	r3, r3, ip
 120 008a 1E22     		mov	r2, #30
 121 008c 1021     		mov	r1, #16
 122 008e 8C46     		mov	ip, r1
 123 0090 BC44     		add	ip, ip, r7
 124 0092 6244     		add	r2, r2, ip
 125 0094 1288     		ldrh	r2, [r2]
 126 0096 1A80     		strh	r2, [r3]
 434:Source\FilteringFunctions/arm_fir_interpolate_q31.c **** 
 435:Source\FilteringFunctions/arm_fir_interpolate_q31.c ****       while (tapCnt > 0u)
 127              		.loc 1 435 0
 128 0098 32E0     		b	.L4
 129              	.L5:
 436:Source\FilteringFunctions/arm_fir_interpolate_q31.c ****       {
 437:Source\FilteringFunctions/arm_fir_interpolate_q31.c ****         /* Read the coefficient */
 438:Source\FilteringFunctions/arm_fir_interpolate_q31.c ****         c0 = *(ptr2);
 130              		.loc 1 438 0
 131 009a BB6C     		ldr	r3, [r7, #72]
 132 009c 1B68     		ldr	r3, [r3]
ARM GAS  C:\Users\fneves\AppData\Local\Temp\cc5PLUie.s 			page 11


 133 009e BB62     		str	r3, [r7, #40]
 439:Source\FilteringFunctions/arm_fir_interpolate_q31.c **** 
 440:Source\FilteringFunctions/arm_fir_interpolate_q31.c ****         /* Increment the coefficient pointer by interpolation factor times. */
 441:Source\FilteringFunctions/arm_fir_interpolate_q31.c ****         ptr2 += S->L;
 134              		.loc 1 441 0
 135 00a0 FB69     		ldr	r3, [r7, #28]
 136 00a2 1B78     		ldrb	r3, [r3]
 137 00a4 9B00     		lsl	r3, r3, #2
 138 00a6 BA6C     		ldr	r2, [r7, #72]
 139 00a8 D318     		add	r3, r2, r3
 140 00aa BB64     		str	r3, [r7, #72]
 442:Source\FilteringFunctions/arm_fir_interpolate_q31.c **** 
 443:Source\FilteringFunctions/arm_fir_interpolate_q31.c ****         /* Read the input sample */
 444:Source\FilteringFunctions/arm_fir_interpolate_q31.c ****         x0 = *ptr1++;
 141              		.loc 1 444 0
 142 00ac FB6C     		ldr	r3, [r7, #76]
 143 00ae 1A1D     		add	r2, r3, #4
 144 00b0 FA64     		str	r2, [r7, #76]
 145 00b2 1B68     		ldr	r3, [r3]
 146 00b4 7B62     		str	r3, [r7, #36]
 445:Source\FilteringFunctions/arm_fir_interpolate_q31.c **** 
 446:Source\FilteringFunctions/arm_fir_interpolate_q31.c ****         /* Perform the multiply-accumulate */
 447:Source\FilteringFunctions/arm_fir_interpolate_q31.c ****         sum += (q63_t) x0 *c0;
 147              		.loc 1 447 0
 148 00b6 7B6A     		ldr	r3, [r7, #36]
 149 00b8 BB60     		str	r3, [r7, #8]
 150 00ba DB17     		asr	r3, r3, #31
 151 00bc FB60     		str	r3, [r7, #12]
 152 00be BB6A     		ldr	r3, [r7, #40]
 153 00c0 3B60     		str	r3, [r7]
 154 00c2 DB17     		asr	r3, r3, #31
 155 00c4 7B60     		str	r3, [r7, #4]
 156 00c6 B868     		ldr	r0, [r7, #8]
 157 00c8 F968     		ldr	r1, [r7, #12]
 158 00ca 3A68     		ldr	r2, [r7]
 159 00cc 7B68     		ldr	r3, [r7, #4]
 160 00ce FFF7FEFF 		bl	__aeabi_lmul
 161 00d2 021C     		mov	r2, r0
 162 00d4 0B1C     		mov	r3, r1
 163 00d6 101C     		mov	r0, r2
 164 00d8 191C     		mov	r1, r3
 165 00da 3A6C     		ldr	r2, [r7, #64]
 166 00dc 7B6C     		ldr	r3, [r7, #68]
 167 00de 1218     		add	r2, r2, r0
 168 00e0 4B41     		adc	r3, r3, r1
 169 00e2 3A64     		str	r2, [r7, #64]
 170 00e4 7B64     		str	r3, [r7, #68]
 448:Source\FilteringFunctions/arm_fir_interpolate_q31.c **** 
 449:Source\FilteringFunctions/arm_fir_interpolate_q31.c ****         /* Decrement the loop counter */
 450:Source\FilteringFunctions/arm_fir_interpolate_q31.c ****         tapCnt--;
 171              		.loc 1 450 0
 172 00e6 2623     		mov	r3, #38
 173 00e8 1022     		mov	r2, #16
 174 00ea 9446     		mov	ip, r2
 175 00ec BC44     		add	ip, ip, r7
 176 00ee 6344     		add	r3, r3, ip
 177 00f0 1A88     		ldrh	r2, [r3]
ARM GAS  C:\Users\fneves\AppData\Local\Temp\cc5PLUie.s 			page 12


 178 00f2 2623     		mov	r3, #38
 179 00f4 1021     		mov	r1, #16
 180 00f6 8C46     		mov	ip, r1
 181 00f8 BC44     		add	ip, ip, r7
 182 00fa 6344     		add	r3, r3, ip
 183 00fc 013A     		sub	r2, r2, #1
 184 00fe 1A80     		strh	r2, [r3]
 185              	.L4:
 435:Source\FilteringFunctions/arm_fir_interpolate_q31.c ****       {
 186              		.loc 1 435 0
 187 0100 2623     		mov	r3, #38
 188 0102 1022     		mov	r2, #16
 189 0104 9446     		mov	ip, r2
 190 0106 BC44     		add	ip, ip, r7
 191 0108 6344     		add	r3, r3, ip
 192 010a 1B88     		ldrh	r3, [r3]
 193 010c 002B     		cmp	r3, #0
 194 010e C4D1     		bne	.L5
 451:Source\FilteringFunctions/arm_fir_interpolate_q31.c ****       }
 452:Source\FilteringFunctions/arm_fir_interpolate_q31.c **** 
 453:Source\FilteringFunctions/arm_fir_interpolate_q31.c ****       /* The result is in the accumulator, store in the destination buffer. */
 454:Source\FilteringFunctions/arm_fir_interpolate_q31.c ****       *pDst++ = (q31_t) (sum >> 31);
 195              		.loc 1 454 0
 196 0110 7B69     		ldr	r3, [r7, #20]
 197 0112 1A1D     		add	r2, r3, #4
 198 0114 7A61     		str	r2, [r7, #20]
 199 0116 7A6C     		ldr	r2, [r7, #68]
 200 0118 5200     		lsl	r2, r2, #1
 201 011a 396C     		ldr	r1, [r7, #64]
 202 011c CC0F     		lsr	r4, r1, #31
 203 011e 1443     		orr	r4, r2
 204 0120 7A6C     		ldr	r2, [r7, #68]
 205 0122 D517     		asr	r5, r2, #31
 206 0124 221C     		mov	r2, r4
 207 0126 1A60     		str	r2, [r3]
 455:Source\FilteringFunctions/arm_fir_interpolate_q31.c **** 
 456:Source\FilteringFunctions/arm_fir_interpolate_q31.c ****       /* Decrement the loop counter */
 457:Source\FilteringFunctions/arm_fir_interpolate_q31.c ****       i--;
 208              		.loc 1 457 0
 209 0128 FB6B     		ldr	r3, [r7, #60]
 210 012a 013B     		sub	r3, r3, #1
 211 012c FB63     		str	r3, [r7, #60]
 212              	.L3:
 422:Source\FilteringFunctions/arm_fir_interpolate_q31.c ****     {
 213              		.loc 1 422 0
 214 012e FB6B     		ldr	r3, [r7, #60]
 215 0130 002B     		cmp	r3, #0
 216 0132 97D1     		bne	.L6
 458:Source\FilteringFunctions/arm_fir_interpolate_q31.c ****     }
 459:Source\FilteringFunctions/arm_fir_interpolate_q31.c **** 
 460:Source\FilteringFunctions/arm_fir_interpolate_q31.c ****     /* Advance the state pointer by 1
 461:Source\FilteringFunctions/arm_fir_interpolate_q31.c ****      * to process the next group of interpolation factor number samples */
 462:Source\FilteringFunctions/arm_fir_interpolate_q31.c ****     pState = pState + 1;
 217              		.loc 1 462 0
 218 0134 7B6D     		ldr	r3, [r7, #84]
 219 0136 0433     		add	r3, r3, #4
 220 0138 7B65     		str	r3, [r7, #84]
ARM GAS  C:\Users\fneves\AppData\Local\Temp\cc5PLUie.s 			page 13


 463:Source\FilteringFunctions/arm_fir_interpolate_q31.c **** 
 464:Source\FilteringFunctions/arm_fir_interpolate_q31.c ****     /* Decrement the loop counter */
 465:Source\FilteringFunctions/arm_fir_interpolate_q31.c ****     blkCnt--;
 221              		.loc 1 465 0
 222 013a BB6B     		ldr	r3, [r7, #56]
 223 013c 013B     		sub	r3, r3, #1
 224 013e BB63     		str	r3, [r7, #56]
 225              	.L2:
 414:Source\FilteringFunctions/arm_fir_interpolate_q31.c ****   {
 226              		.loc 1 414 0
 227 0140 BB6B     		ldr	r3, [r7, #56]
 228 0142 002B     		cmp	r3, #0
 229 0144 00D0     		beq	.LCB181
 230 0146 81E7     		b	.L7	@long jump
 231              	.LCB181:
 466:Source\FilteringFunctions/arm_fir_interpolate_q31.c ****   }
 467:Source\FilteringFunctions/arm_fir_interpolate_q31.c **** 
 468:Source\FilteringFunctions/arm_fir_interpolate_q31.c ****   /* Processing is complete.
 469:Source\FilteringFunctions/arm_fir_interpolate_q31.c ****    ** Now copy the last phaseLen - 1 samples to the satrt of the state buffer.
 470:Source\FilteringFunctions/arm_fir_interpolate_q31.c ****    ** This prepares the state buffer for the next function call. */
 471:Source\FilteringFunctions/arm_fir_interpolate_q31.c **** 
 472:Source\FilteringFunctions/arm_fir_interpolate_q31.c ****   /* Points to the start of the state buffer */
 473:Source\FilteringFunctions/arm_fir_interpolate_q31.c ****   pStateCurnt = S->pState;
 232              		.loc 1 473 0
 233 0148 FB69     		ldr	r3, [r7, #28]
 234 014a 9B68     		ldr	r3, [r3, #8]
 235 014c 3B65     		str	r3, [r7, #80]
 474:Source\FilteringFunctions/arm_fir_interpolate_q31.c **** 
 475:Source\FilteringFunctions/arm_fir_interpolate_q31.c ****   tapCnt = phaseLen - 1u;
 236              		.loc 1 475 0
 237 014e 2623     		mov	r3, #38
 238 0150 1022     		mov	r2, #16
 239 0152 9446     		mov	ip, r2
 240 0154 BC44     		add	ip, ip, r7
 241 0156 6344     		add	r3, r3, ip
 242 0158 1E22     		mov	r2, #30
 243 015a 1021     		mov	r1, #16
 244 015c 8C46     		mov	ip, r1
 245 015e BC44     		add	ip, ip, r7
 246 0160 6244     		add	r2, r2, ip
 247 0162 1288     		ldrh	r2, [r2]
 248 0164 013A     		sub	r2, r2, #1
 249 0166 1A80     		strh	r2, [r3]
 476:Source\FilteringFunctions/arm_fir_interpolate_q31.c **** 
 477:Source\FilteringFunctions/arm_fir_interpolate_q31.c ****   /* copy data */
 478:Source\FilteringFunctions/arm_fir_interpolate_q31.c ****   while (tapCnt > 0u)
 250              		.loc 1 478 0
 251 0168 14E0     		b	.L8
 252              	.L9:
 479:Source\FilteringFunctions/arm_fir_interpolate_q31.c ****   {
 480:Source\FilteringFunctions/arm_fir_interpolate_q31.c ****     *pStateCurnt++ = *pState++;
 253              		.loc 1 480 0
 254 016a 3B6D     		ldr	r3, [r7, #80]
 255 016c 1A1D     		add	r2, r3, #4
 256 016e 3A65     		str	r2, [r7, #80]
 257 0170 7A6D     		ldr	r2, [r7, #84]
 258 0172 111D     		add	r1, r2, #4
ARM GAS  C:\Users\fneves\AppData\Local\Temp\cc5PLUie.s 			page 14


 259 0174 7965     		str	r1, [r7, #84]
 260 0176 1268     		ldr	r2, [r2]
 261 0178 1A60     		str	r2, [r3]
 481:Source\FilteringFunctions/arm_fir_interpolate_q31.c **** 
 482:Source\FilteringFunctions/arm_fir_interpolate_q31.c ****     /* Decrement the loop counter */
 483:Source\FilteringFunctions/arm_fir_interpolate_q31.c ****     tapCnt--;
 262              		.loc 1 483 0
 263 017a 2623     		mov	r3, #38
 264 017c 1022     		mov	r2, #16
 265 017e 9446     		mov	ip, r2
 266 0180 BC44     		add	ip, ip, r7
 267 0182 6344     		add	r3, r3, ip
 268 0184 1A88     		ldrh	r2, [r3]
 269 0186 2623     		mov	r3, #38
 270 0188 1021     		mov	r1, #16
 271 018a 8C46     		mov	ip, r1
 272 018c BC44     		add	ip, ip, r7
 273 018e 6344     		add	r3, r3, ip
 274 0190 013A     		sub	r2, r2, #1
 275 0192 1A80     		strh	r2, [r3]
 276              	.L8:
 478:Source\FilteringFunctions/arm_fir_interpolate_q31.c ****   {
 277              		.loc 1 478 0
 278 0194 2623     		mov	r3, #38
 279 0196 1022     		mov	r2, #16
 280 0198 9446     		mov	ip, r2
 281 019a BC44     		add	ip, ip, r7
 282 019c 6344     		add	r3, r3, ip
 283 019e 1B88     		ldrh	r3, [r3]
 284 01a0 002B     		cmp	r3, #0
 285 01a2 E2D1     		bne	.L9
 484:Source\FilteringFunctions/arm_fir_interpolate_q31.c ****   }
 485:Source\FilteringFunctions/arm_fir_interpolate_q31.c **** 
 486:Source\FilteringFunctions/arm_fir_interpolate_q31.c **** }
 286              		.loc 1 486 0
 287 01a4 BD46     		mov	sp, r7
 288 01a6 16B0     		add	sp, sp, #88
 289              		@ sp needed
 290 01a8 B0BD     		pop	{r4, r5, r7, pc}
 291              	.L11:
 292 01aa C046     		.align	2
 293              	.L10:
 294 01ac FFFFFF3F 		.word	1073741823
 295              		.cfi_endproc
 296              	.LFE82:
 297              		.size	arm_fir_interpolate_q31, .-arm_fir_interpolate_q31
 298              		.text
 299              	.Letext0:
 300              		.file 2 "c:\\program files (x86)\\cypress\\psoc creator\\4.0\\psoc creator\\import\\gnu\\arm\\4.9.
 301              		.file 3 "c:\\program files (x86)\\cypress\\psoc creator\\4.0\\psoc creator\\import\\gnu\\arm\\4.9.
 302              		.file 4 ".\\Include/arm_math.h"