ARM GAS  C:\Users\fneves\AppData\Local\Temp\ccyl4tsw.s 			page 1


   1              		.cpu cortex-m0plus
   2              		.fpu softvfp
   3              		.eabi_attribute 20, 1
   4              		.eabi_attribute 21, 1
   5              		.eabi_attribute 23, 3
   6              		.eabi_attribute 24, 1
   7              		.eabi_attribute 25, 1
   8              		.eabi_attribute 26, 1
   9              		.eabi_attribute 30, 6
  10              		.eabi_attribute 34, 0
  11              		.eabi_attribute 18, 4
  12              		.code	16
  13              		.file	"arm_conv_partial_opt_q15.c"
  14              		.text
  15              	.Ltext0:
  16              		.cfi_sections	.debug_frame
  17              		.section	.text.arm_conv_partial_opt_q15,"ax",%progbits
  18              		.align	2
  19              		.global	arm_conv_partial_opt_q15
  20              		.code	16
  21              		.thumb_func
  22              		.type	arm_conv_partial_opt_q15, %function
  23              	arm_conv_partial_opt_q15:
  24              	.LFB82:
  25              		.file 1 "Source\\FilteringFunctions\\arm_conv_partial_opt_q15.c"
   1:Source\FilteringFunctions/arm_conv_partial_opt_q15.c **** /* ----------------------------------------------------------------------
   2:Source\FilteringFunctions/arm_conv_partial_opt_q15.c ****  * Project:      CMSIS DSP Library
   3:Source\FilteringFunctions/arm_conv_partial_opt_q15.c ****  * Title:        arm_conv_partial_opt_q15.c
   4:Source\FilteringFunctions/arm_conv_partial_opt_q15.c ****  * Description:  Partial convolution of Q15 sequences
   5:Source\FilteringFunctions/arm_conv_partial_opt_q15.c ****  *
   6:Source\FilteringFunctions/arm_conv_partial_opt_q15.c ****  * $Date:        27. January 2017
   7:Source\FilteringFunctions/arm_conv_partial_opt_q15.c ****  * $Revision:    V.1.5.1
   8:Source\FilteringFunctions/arm_conv_partial_opt_q15.c ****  *
   9:Source\FilteringFunctions/arm_conv_partial_opt_q15.c ****  * Target Processor: Cortex-M cores
  10:Source\FilteringFunctions/arm_conv_partial_opt_q15.c ****  * -------------------------------------------------------------------- */
  11:Source\FilteringFunctions/arm_conv_partial_opt_q15.c **** /*
  12:Source\FilteringFunctions/arm_conv_partial_opt_q15.c ****  * Copyright (C) 2010-2017 ARM Limited or its affiliates. All rights reserved.
  13:Source\FilteringFunctions/arm_conv_partial_opt_q15.c ****  *
  14:Source\FilteringFunctions/arm_conv_partial_opt_q15.c ****  * SPDX-License-Identifier: Apache-2.0
  15:Source\FilteringFunctions/arm_conv_partial_opt_q15.c ****  *
  16:Source\FilteringFunctions/arm_conv_partial_opt_q15.c ****  * Licensed under the Apache License, Version 2.0 (the License); you may
  17:Source\FilteringFunctions/arm_conv_partial_opt_q15.c ****  * not use this file except in compliance with the License.
  18:Source\FilteringFunctions/arm_conv_partial_opt_q15.c ****  * You may obtain a copy of the License at
  19:Source\FilteringFunctions/arm_conv_partial_opt_q15.c ****  *
  20:Source\FilteringFunctions/arm_conv_partial_opt_q15.c ****  * www.apache.org/licenses/LICENSE-2.0
  21:Source\FilteringFunctions/arm_conv_partial_opt_q15.c ****  *
  22:Source\FilteringFunctions/arm_conv_partial_opt_q15.c ****  * Unless required by applicable law or agreed to in writing, software
  23:Source\FilteringFunctions/arm_conv_partial_opt_q15.c ****  * distributed under the License is distributed on an AS IS BASIS, WITHOUT
  24:Source\FilteringFunctions/arm_conv_partial_opt_q15.c ****  * WARRANTIES OR CONDITIONS OF ANY KIND, either express or implied.
  25:Source\FilteringFunctions/arm_conv_partial_opt_q15.c ****  * See the License for the specific language governing permissions and
  26:Source\FilteringFunctions/arm_conv_partial_opt_q15.c ****  * limitations under the License.
  27:Source\FilteringFunctions/arm_conv_partial_opt_q15.c ****  */
  28:Source\FilteringFunctions/arm_conv_partial_opt_q15.c **** 
  29:Source\FilteringFunctions/arm_conv_partial_opt_q15.c **** #include "arm_math.h"
  30:Source\FilteringFunctions/arm_conv_partial_opt_q15.c **** 
  31:Source\FilteringFunctions/arm_conv_partial_opt_q15.c **** /**
  32:Source\FilteringFunctions/arm_conv_partial_opt_q15.c ****  * @ingroup groupFilters
ARM GAS  C:\Users\fneves\AppData\Local\Temp\ccyl4tsw.s 			page 2


  33:Source\FilteringFunctions/arm_conv_partial_opt_q15.c ****  */
  34:Source\FilteringFunctions/arm_conv_partial_opt_q15.c **** 
  35:Source\FilteringFunctions/arm_conv_partial_opt_q15.c **** /**
  36:Source\FilteringFunctions/arm_conv_partial_opt_q15.c ****  * @addtogroup PartialConv
  37:Source\FilteringFunctions/arm_conv_partial_opt_q15.c ****  * @{
  38:Source\FilteringFunctions/arm_conv_partial_opt_q15.c ****  */
  39:Source\FilteringFunctions/arm_conv_partial_opt_q15.c **** 
  40:Source\FilteringFunctions/arm_conv_partial_opt_q15.c **** /**
  41:Source\FilteringFunctions/arm_conv_partial_opt_q15.c ****  * @brief Partial convolution of Q15 sequences.
  42:Source\FilteringFunctions/arm_conv_partial_opt_q15.c ****  * @param[in]       *pSrcA points to the first input sequence.
  43:Source\FilteringFunctions/arm_conv_partial_opt_q15.c ****  * @param[in]       srcALen length of the first input sequence.
  44:Source\FilteringFunctions/arm_conv_partial_opt_q15.c ****  * @param[in]       *pSrcB points to the second input sequence.
  45:Source\FilteringFunctions/arm_conv_partial_opt_q15.c ****  * @param[in]       srcBLen length of the second input sequence.
  46:Source\FilteringFunctions/arm_conv_partial_opt_q15.c ****  * @param[out]      *pDst points to the location where the output result is written.
  47:Source\FilteringFunctions/arm_conv_partial_opt_q15.c ****  * @param[in]       firstIndex is the first output sample to start with.
  48:Source\FilteringFunctions/arm_conv_partial_opt_q15.c ****  * @param[in]       numPoints is the number of output points to be computed.
  49:Source\FilteringFunctions/arm_conv_partial_opt_q15.c ****  * @param[in]       *pScratch1 points to scratch buffer of size max(srcALen, srcBLen) + 2*min(srcAL
  50:Source\FilteringFunctions/arm_conv_partial_opt_q15.c ****  * @param[in]       *pScratch2 points to scratch buffer of size min(srcALen, srcBLen).
  51:Source\FilteringFunctions/arm_conv_partial_opt_q15.c ****  * @return  Returns either ARM_MATH_SUCCESS if the function completed correctly or ARM_MATH_ARGUMEN
  52:Source\FilteringFunctions/arm_conv_partial_opt_q15.c ****  *
  53:Source\FilteringFunctions/arm_conv_partial_opt_q15.c ****  * \par Restrictions
  54:Source\FilteringFunctions/arm_conv_partial_opt_q15.c ****  *  If the silicon does not support unaligned memory access enable the macro UNALIGNED_SUPPORT_DISA
  55:Source\FilteringFunctions/arm_conv_partial_opt_q15.c ****  *	In this case input, output, state buffers should be aligned by 32-bit
  56:Source\FilteringFunctions/arm_conv_partial_opt_q15.c ****  *
  57:Source\FilteringFunctions/arm_conv_partial_opt_q15.c ****  * Refer to <code>arm_conv_partial_fast_q15()</code> for a faster but less precise version of this 
  58:Source\FilteringFunctions/arm_conv_partial_opt_q15.c ****  *
  59:Source\FilteringFunctions/arm_conv_partial_opt_q15.c ****  *
  60:Source\FilteringFunctions/arm_conv_partial_opt_q15.c ****  */
  61:Source\FilteringFunctions/arm_conv_partial_opt_q15.c **** 
  62:Source\FilteringFunctions/arm_conv_partial_opt_q15.c **** #ifndef UNALIGNED_SUPPORT_DISABLE
  63:Source\FilteringFunctions/arm_conv_partial_opt_q15.c **** 
  64:Source\FilteringFunctions/arm_conv_partial_opt_q15.c **** arm_status arm_conv_partial_opt_q15(
  65:Source\FilteringFunctions/arm_conv_partial_opt_q15.c ****   q15_t * pSrcA,
  66:Source\FilteringFunctions/arm_conv_partial_opt_q15.c ****   uint32_t srcALen,
  67:Source\FilteringFunctions/arm_conv_partial_opt_q15.c ****   q15_t * pSrcB,
  68:Source\FilteringFunctions/arm_conv_partial_opt_q15.c ****   uint32_t srcBLen,
  69:Source\FilteringFunctions/arm_conv_partial_opt_q15.c ****   q15_t * pDst,
  70:Source\FilteringFunctions/arm_conv_partial_opt_q15.c ****   uint32_t firstIndex,
  71:Source\FilteringFunctions/arm_conv_partial_opt_q15.c ****   uint32_t numPoints,
  72:Source\FilteringFunctions/arm_conv_partial_opt_q15.c ****   q15_t * pScratch1,
  73:Source\FilteringFunctions/arm_conv_partial_opt_q15.c ****   q15_t * pScratch2)
  74:Source\FilteringFunctions/arm_conv_partial_opt_q15.c **** {
  26              		.loc 1 74 0
  27              		.cfi_startproc
  28 0000 F0B5     		push	{r4, r5, r6, r7, lr}
  29              		.cfi_def_cfa_offset 20
  30              		.cfi_offset 4, -20
  31              		.cfi_offset 5, -16
  32              		.cfi_offset 6, -12
  33              		.cfi_offset 7, -8
  34              		.cfi_offset 14, -4
  35 0002 5746     		mov	r7, r10
  36 0004 4E46     		mov	r6, r9
  37 0006 4546     		mov	r5, r8
  38 0008 E0B4     		push	{r5, r6, r7}
  39              		.cfi_def_cfa_offset 32
  40              		.cfi_offset 8, -32
ARM GAS  C:\Users\fneves\AppData\Local\Temp\ccyl4tsw.s 			page 3


  41              		.cfi_offset 9, -28
  42              		.cfi_offset 10, -24
  43 000a EC4C     		ldr	r4, .L67
  44 000c A544     		add	sp, sp, r4
  45              		.cfi_def_cfa_offset 560
  46 000e 00AF     		add	r7, sp, #0
  47              		.cfi_def_cfa_register 7
  48 0010 9C24     		mov	r4, #156
  49 0012 3C60     		str	r4, [r7]
  50 0014 0824     		mov	r4, #8
  51 0016 A446     		mov	ip, r4
  52 0018 0824     		mov	r4, #8
  53 001a A046     		mov	r8, r4
  54 001c B844     		add	r8, r8, r7
  55 001e C444     		add	ip, ip, r8
  56 0020 3C68     		ldr	r4, [r7]
  57 0022 6444     		add	r4, r4, ip
  58 0024 2060     		str	r0, [r4]
  59 0026 9820     		mov	r0, #152
  60 0028 0824     		mov	r4, #8
  61 002a A446     		mov	ip, r4
  62 002c 0824     		mov	r4, #8
  63 002e A046     		mov	r8, r4
  64 0030 B844     		add	r8, r8, r7
  65 0032 C444     		add	ip, ip, r8
  66 0034 6044     		add	r0, r0, ip
  67 0036 0160     		str	r1, [r0]
  68 0038 9421     		mov	r1, #148
  69 003a 0820     		mov	r0, #8
  70 003c 8446     		mov	ip, r0
  71 003e 0820     		mov	r0, #8
  72 0040 8046     		mov	r8, r0
  73 0042 B844     		add	r8, r8, r7
  74 0044 C444     		add	ip, ip, r8
  75 0046 6144     		add	r1, r1, ip
  76 0048 0A60     		str	r2, [r1]
  77 004a 9022     		mov	r2, #144
  78 004c 0821     		mov	r1, #8
  79 004e 8C46     		mov	ip, r1
  80 0050 0821     		mov	r1, #8
  81 0052 8846     		mov	r8, r1
  82 0054 B844     		add	r8, r8, r7
  83 0056 C444     		add	ip, ip, r8
  84 0058 6244     		add	r2, r2, ip
  85 005a 1360     		str	r3, [r2]
  75:Source\FilteringFunctions/arm_conv_partial_opt_q15.c **** 
  76:Source\FilteringFunctions/arm_conv_partial_opt_q15.c ****   q15_t *pOut = pDst;                            /* output pointer */
  86              		.loc 1 76 0
  87 005c C423     		mov	r3, #196
  88 005e 5B00     		lsl	r3, r3, #1
  89 0060 9022     		mov	r2, #144
  90 0062 9446     		mov	ip, r2
  91 0064 0822     		mov	r2, #8
  92 0066 9046     		mov	r8, r2
  93 0068 0822     		mov	r2, #8
  94 006a 9146     		mov	r9, r2
  95 006c 0822     		mov	r2, #8
ARM GAS  C:\Users\fneves\AppData\Local\Temp\ccyl4tsw.s 			page 4


  96 006e 9246     		mov	r10, r2
  97 0070 BA44     		add	r10, r10, r7
  98 0072 D144     		add	r9, r9, r10
  99 0074 C844     		add	r8, r8, r9
 100 0076 C444     		add	ip, ip, r8
 101 0078 6344     		add	r3, r3, ip
 102 007a 1B68     		ldr	r3, [r3]
 103 007c A822     		mov	r2, #168
 104 007e 0821     		mov	r1, #8
 105 0080 8C46     		mov	ip, r1
 106 0082 0821     		mov	r1, #8
 107 0084 8846     		mov	r8, r1
 108 0086 B844     		add	r8, r8, r7
 109 0088 C444     		add	ip, ip, r8
 110 008a 6244     		add	r2, r2, ip
 111 008c 1360     		str	r3, [r2]
  77:Source\FilteringFunctions/arm_conv_partial_opt_q15.c ****   q15_t *pScr1 = pScratch1;                      /* Temporary pointer for scratch1 */
 112              		.loc 1 77 0
 113 008e CA23     		mov	r3, #202
 114 0090 5B00     		lsl	r3, r3, #1
 115 0092 9022     		mov	r2, #144
 116 0094 9446     		mov	ip, r2
 117 0096 0822     		mov	r2, #8
 118 0098 9046     		mov	r8, r2
 119 009a 0822     		mov	r2, #8
 120 009c 9146     		mov	r9, r2
 121 009e 0822     		mov	r2, #8
 122 00a0 9246     		mov	r10, r2
 123 00a2 BA44     		add	r10, r10, r7
 124 00a4 D144     		add	r9, r9, r10
 125 00a6 C844     		add	r8, r8, r9
 126 00a8 C444     		add	ip, ip, r8
 127 00aa 6344     		add	r3, r3, ip
 128 00ac 1B68     		ldr	r3, [r3]
 129 00ae A422     		mov	r2, #164
 130 00b0 0821     		mov	r1, #8
 131 00b2 8C46     		mov	ip, r1
 132 00b4 0821     		mov	r1, #8
 133 00b6 8846     		mov	r8, r1
 134 00b8 B844     		add	r8, r8, r7
 135 00ba C444     		add	ip, ip, r8
 136 00bc 6244     		add	r2, r2, ip
 137 00be 1360     		str	r3, [r2]
  78:Source\FilteringFunctions/arm_conv_partial_opt_q15.c ****   q15_t *pScr2 = pScratch2;                      /* Temporary pointer for scratch1 */
 138              		.loc 1 78 0
 139 00c0 CC23     		mov	r3, #204
 140 00c2 5B00     		lsl	r3, r3, #1
 141 00c4 9022     		mov	r2, #144
 142 00c6 9446     		mov	ip, r2
 143 00c8 0822     		mov	r2, #8
 144 00ca 9046     		mov	r8, r2
 145 00cc 0822     		mov	r2, #8
 146 00ce 9146     		mov	r9, r2
 147 00d0 0822     		mov	r2, #8
 148 00d2 9246     		mov	r10, r2
 149 00d4 BA44     		add	r10, r10, r7
 150 00d6 D144     		add	r9, r9, r10
ARM GAS  C:\Users\fneves\AppData\Local\Temp\ccyl4tsw.s 			page 5


 151 00d8 C844     		add	r8, r8, r9
 152 00da C444     		add	ip, ip, r8
 153 00dc 6344     		add	r3, r3, ip
 154 00de 1B68     		ldr	r3, [r3]
 155 00e0 B622     		mov	r2, #182
 156 00e2 5200     		lsl	r2, r2, #1
 157 00e4 9021     		mov	r1, #144
 158 00e6 8C46     		mov	ip, r1
 159 00e8 0821     		mov	r1, #8
 160 00ea 8846     		mov	r8, r1
 161 00ec 0821     		mov	r1, #8
 162 00ee 8946     		mov	r9, r1
 163 00f0 B944     		add	r9, r9, r7
 164 00f2 C844     		add	r8, r8, r9
 165 00f4 C444     		add	ip, ip, r8
 166 00f6 6244     		add	r2, r2, ip
 167 00f8 1360     		str	r3, [r2]
  79:Source\FilteringFunctions/arm_conv_partial_opt_q15.c ****   q63_t acc0, acc1, acc2, acc3;                  /* Accumulator */
  80:Source\FilteringFunctions/arm_conv_partial_opt_q15.c ****   q31_t x1, x2, x3;                              /* Temporary variables to hold state and coefficie
  81:Source\FilteringFunctions/arm_conv_partial_opt_q15.c ****   q31_t y1, y2;                                  /* State variables */
  82:Source\FilteringFunctions/arm_conv_partial_opt_q15.c ****   q15_t *pIn1;                                   /* inputA pointer */
  83:Source\FilteringFunctions/arm_conv_partial_opt_q15.c ****   q15_t *pIn2;                                   /* inputB pointer */
  84:Source\FilteringFunctions/arm_conv_partial_opt_q15.c ****   q15_t *px;                                     /* Intermediate inputA pointer  */
  85:Source\FilteringFunctions/arm_conv_partial_opt_q15.c ****   q15_t *py;                                     /* Intermediate inputB pointer  */
  86:Source\FilteringFunctions/arm_conv_partial_opt_q15.c ****   uint32_t j, k, blkCnt;                         /* loop counter */
  87:Source\FilteringFunctions/arm_conv_partial_opt_q15.c ****   arm_status status;                             /* Status variable */
  88:Source\FilteringFunctions/arm_conv_partial_opt_q15.c ****   uint32_t tapCnt;                               /* loop count */
  89:Source\FilteringFunctions/arm_conv_partial_opt_q15.c **** 
  90:Source\FilteringFunctions/arm_conv_partial_opt_q15.c ****   /* Check for range of output samples to be calculated */
  91:Source\FilteringFunctions/arm_conv_partial_opt_q15.c ****   if ((firstIndex + numPoints) > ((srcALen + (srcBLen - 1u))))
 168              		.loc 1 91 0
 169 00fa C623     		mov	r3, #198
 170 00fc 5B00     		lsl	r3, r3, #1
 171 00fe 9022     		mov	r2, #144
 172 0100 9446     		mov	ip, r2
 173 0102 0822     		mov	r2, #8
 174 0104 9046     		mov	r8, r2
 175 0106 0822     		mov	r2, #8
 176 0108 9146     		mov	r9, r2
 177 010a 0822     		mov	r2, #8
 178 010c 9246     		mov	r10, r2
 179 010e BA44     		add	r10, r10, r7
 180 0110 D144     		add	r9, r9, r10
 181 0112 C844     		add	r8, r8, r9
 182 0114 C444     		add	ip, ip, r8
 183 0116 6344     		add	r3, r3, ip
 184 0118 1A68     		ldr	r2, [r3]
 185 011a C823     		mov	r3, #200
 186 011c 5B00     		lsl	r3, r3, #1
 187 011e 9021     		mov	r1, #144
 188 0120 8C46     		mov	ip, r1
 189 0122 0821     		mov	r1, #8
 190 0124 8846     		mov	r8, r1
 191 0126 0821     		mov	r1, #8
 192 0128 8946     		mov	r9, r1
 193 012a 0821     		mov	r1, #8
 194 012c 8A46     		mov	r10, r1
ARM GAS  C:\Users\fneves\AppData\Local\Temp\ccyl4tsw.s 			page 6


 195 012e BA44     		add	r10, r10, r7
 196 0130 D144     		add	r9, r9, r10
 197 0132 C844     		add	r8, r8, r9
 198 0134 C444     		add	ip, ip, r8
 199 0136 6344     		add	r3, r3, ip
 200 0138 1B68     		ldr	r3, [r3]
 201 013a D118     		add	r1, r2, r3
 202 013c 9023     		mov	r3, #144
 203 013e 0822     		mov	r2, #8
 204 0140 9446     		mov	ip, r2
 205 0142 0822     		mov	r2, #8
 206 0144 9046     		mov	r8, r2
 207 0146 B844     		add	r8, r8, r7
 208 0148 C444     		add	ip, ip, r8
 209 014a 6344     		add	r3, r3, ip
 210 014c 1A68     		ldr	r2, [r3]
 211 014e 9823     		mov	r3, #152
 212 0150 0820     		mov	r0, #8
 213 0152 8446     		mov	ip, r0
 214 0154 0820     		mov	r0, #8
 215 0156 8046     		mov	r8, r0
 216 0158 B844     		add	r8, r8, r7
 217 015a C444     		add	ip, ip, r8
 218 015c 6344     		add	r3, r3, ip
 219 015e 1B68     		ldr	r3, [r3]
 220 0160 D318     		add	r3, r2, r3
 221 0162 013B     		sub	r3, r3, #1
 222 0164 9942     		cmp	r1, r3
 223 0166 0FD9     		bls	.L2
  92:Source\FilteringFunctions/arm_conv_partial_opt_q15.c ****   {
  93:Source\FilteringFunctions/arm_conv_partial_opt_q15.c ****     /* Set status as ARM_MATH_ARGUMENT_ERROR */
  94:Source\FilteringFunctions/arm_conv_partial_opt_q15.c ****     status = ARM_MATH_ARGUMENT_ERROR;
 224              		.loc 1 94 0
 225 0168 3023     		mov	r3, #48
 226 016a FF33     		add	r3, r3, #255
 227 016c 9022     		mov	r2, #144
 228 016e 9446     		mov	ip, r2
 229 0170 0822     		mov	r2, #8
 230 0172 9046     		mov	r8, r2
 231 0174 0822     		mov	r2, #8
 232 0176 9146     		mov	r9, r2
 233 0178 B944     		add	r9, r9, r7
 234 017a C844     		add	r8, r8, r9
 235 017c C444     		add	ip, ip, r8
 236 017e 6344     		add	r3, r3, ip
 237 0180 FF22     		mov	r2, #255
 238 0182 1A70     		strb	r2, [r3]
 239 0184 02F0F1FD 		bl	.L3	@ far jump
 240              	.L2:
  95:Source\FilteringFunctions/arm_conv_partial_opt_q15.c ****   }
  96:Source\FilteringFunctions/arm_conv_partial_opt_q15.c ****   else
  97:Source\FilteringFunctions/arm_conv_partial_opt_q15.c ****   {
  98:Source\FilteringFunctions/arm_conv_partial_opt_q15.c **** 
  99:Source\FilteringFunctions/arm_conv_partial_opt_q15.c ****     /* The algorithm implementation is based on the lengths of the inputs. */
 100:Source\FilteringFunctions/arm_conv_partial_opt_q15.c ****     /* srcB is always made to slide across srcA. */
 101:Source\FilteringFunctions/arm_conv_partial_opt_q15.c ****     /* So srcBLen is always considered as shorter or equal to srcALen */
 102:Source\FilteringFunctions/arm_conv_partial_opt_q15.c ****     if (srcALen >= srcBLen)
ARM GAS  C:\Users\fneves\AppData\Local\Temp\ccyl4tsw.s 			page 7


 241              		.loc 1 102 0
 242 0188 9823     		mov	r3, #152
 243 018a 0822     		mov	r2, #8
 244 018c 9446     		mov	ip, r2
 245 018e 0822     		mov	r2, #8
 246 0190 9046     		mov	r8, r2
 247 0192 B844     		add	r8, r8, r7
 248 0194 C444     		add	ip, ip, r8
 249 0196 6344     		add	r3, r3, ip
 250 0198 1A68     		ldr	r2, [r3]
 251 019a 9023     		mov	r3, #144
 252 019c 0821     		mov	r1, #8
 253 019e 8C46     		mov	ip, r1
 254 01a0 0821     		mov	r1, #8
 255 01a2 8846     		mov	r8, r1
 256 01a4 B844     		add	r8, r8, r7
 257 01a6 C444     		add	ip, ip, r8
 258 01a8 6344     		add	r3, r3, ip
 259 01aa 1B68     		ldr	r3, [r3]
 260 01ac 9A42     		cmp	r2, r3
 261 01ae 28D3     		bcc	.L4
 103:Source\FilteringFunctions/arm_conv_partial_opt_q15.c ****     {
 104:Source\FilteringFunctions/arm_conv_partial_opt_q15.c ****       /* Initialization of inputA pointer */
 105:Source\FilteringFunctions/arm_conv_partial_opt_q15.c ****       pIn1 = pSrcA;
 262              		.loc 1 105 0
 263 01b0 9C23     		mov	r3, #156
 264 01b2 0822     		mov	r2, #8
 265 01b4 9446     		mov	ip, r2
 266 01b6 0822     		mov	r2, #8
 267 01b8 9046     		mov	r8, r2
 268 01ba B844     		add	r8, r8, r7
 269 01bc C444     		add	ip, ip, r8
 270 01be 6344     		add	r3, r3, ip
 271 01c0 1B68     		ldr	r3, [r3]
 272 01c2 9E22     		mov	r2, #158
 273 01c4 5200     		lsl	r2, r2, #1
 274 01c6 9021     		mov	r1, #144
 275 01c8 8C46     		mov	ip, r1
 276 01ca 0821     		mov	r1, #8
 277 01cc 8846     		mov	r8, r1
 278 01ce 0821     		mov	r1, #8
 279 01d0 8946     		mov	r9, r1
 280 01d2 B944     		add	r9, r9, r7
 281 01d4 C844     		add	r8, r8, r9
 282 01d6 C444     		add	ip, ip, r8
 283 01d8 6244     		add	r2, r2, ip
 284 01da 1360     		str	r3, [r2]
 106:Source\FilteringFunctions/arm_conv_partial_opt_q15.c **** 
 107:Source\FilteringFunctions/arm_conv_partial_opt_q15.c ****       /* Initialization of inputB pointer */
 108:Source\FilteringFunctions/arm_conv_partial_opt_q15.c ****       pIn2 = pSrcB;
 285              		.loc 1 108 0
 286 01dc 9423     		mov	r3, #148
 287 01de 0822     		mov	r2, #8
 288 01e0 9446     		mov	ip, r2
 289 01e2 0822     		mov	r2, #8
 290 01e4 9046     		mov	r8, r2
 291 01e6 B844     		add	r8, r8, r7
ARM GAS  C:\Users\fneves\AppData\Local\Temp\ccyl4tsw.s 			page 8


 292 01e8 C444     		add	ip, ip, r8
 293 01ea 6344     		add	r3, r3, ip
 294 01ec 1B68     		ldr	r3, [r3]
 295 01ee A022     		mov	r2, #160
 296 01f0 0821     		mov	r1, #8
 297 01f2 8C46     		mov	ip, r1
 298 01f4 0821     		mov	r1, #8
 299 01f6 8846     		mov	r8, r1
 300 01f8 B844     		add	r8, r8, r7
 301 01fa C444     		add	ip, ip, r8
 302 01fc 6244     		add	r2, r2, ip
 303 01fe 1360     		str	r3, [r2]
 304 0200 65E0     		b	.L5
 305              	.L4:
 109:Source\FilteringFunctions/arm_conv_partial_opt_q15.c ****     }
 110:Source\FilteringFunctions/arm_conv_partial_opt_q15.c ****     else
 111:Source\FilteringFunctions/arm_conv_partial_opt_q15.c ****     {
 112:Source\FilteringFunctions/arm_conv_partial_opt_q15.c ****       /* Initialization of inputA pointer */
 113:Source\FilteringFunctions/arm_conv_partial_opt_q15.c ****       pIn1 = pSrcB;
 306              		.loc 1 113 0
 307 0202 9423     		mov	r3, #148
 308 0204 0822     		mov	r2, #8
 309 0206 9446     		mov	ip, r2
 310 0208 0822     		mov	r2, #8
 311 020a 9046     		mov	r8, r2
 312 020c B844     		add	r8, r8, r7
 313 020e C444     		add	ip, ip, r8
 314 0210 6344     		add	r3, r3, ip
 315 0212 1B68     		ldr	r3, [r3]
 316 0214 9E22     		mov	r2, #158
 317 0216 5200     		lsl	r2, r2, #1
 318 0218 9021     		mov	r1, #144
 319 021a 8C46     		mov	ip, r1
 320 021c 0821     		mov	r1, #8
 321 021e 8846     		mov	r8, r1
 322 0220 0821     		mov	r1, #8
 323 0222 8946     		mov	r9, r1
 324 0224 B944     		add	r9, r9, r7
 325 0226 C844     		add	r8, r8, r9
 326 0228 C444     		add	ip, ip, r8
 327 022a 6244     		add	r2, r2, ip
 328 022c 1360     		str	r3, [r2]
 114:Source\FilteringFunctions/arm_conv_partial_opt_q15.c **** 
 115:Source\FilteringFunctions/arm_conv_partial_opt_q15.c ****       /* Initialization of inputB pointer */
 116:Source\FilteringFunctions/arm_conv_partial_opt_q15.c ****       pIn2 = pSrcA;
 329              		.loc 1 116 0
 330 022e 9C23     		mov	r3, #156
 331 0230 0822     		mov	r2, #8
 332 0232 9446     		mov	ip, r2
 333 0234 0822     		mov	r2, #8
 334 0236 9046     		mov	r8, r2
 335 0238 B844     		add	r8, r8, r7
 336 023a C444     		add	ip, ip, r8
 337 023c 6344     		add	r3, r3, ip
 338 023e 1B68     		ldr	r3, [r3]
 339 0240 A022     		mov	r2, #160
 340 0242 0821     		mov	r1, #8
ARM GAS  C:\Users\fneves\AppData\Local\Temp\ccyl4tsw.s 			page 9


 341 0244 8C46     		mov	ip, r1
 342 0246 0821     		mov	r1, #8
 343 0248 8846     		mov	r8, r1
 344 024a B844     		add	r8, r8, r7
 345 024c C444     		add	ip, ip, r8
 346 024e 6244     		add	r2, r2, ip
 347 0250 1360     		str	r3, [r2]
 117:Source\FilteringFunctions/arm_conv_partial_opt_q15.c **** 
 118:Source\FilteringFunctions/arm_conv_partial_opt_q15.c ****       /* srcBLen is always considered as shorter or equal to srcALen */
 119:Source\FilteringFunctions/arm_conv_partial_opt_q15.c ****       j = srcBLen;
 348              		.loc 1 119 0
 349 0252 9023     		mov	r3, #144
 350 0254 0822     		mov	r2, #8
 351 0256 9446     		mov	ip, r2
 352 0258 0822     		mov	r2, #8
 353 025a 9046     		mov	r8, r2
 354 025c B844     		add	r8, r8, r7
 355 025e C444     		add	ip, ip, r8
 356 0260 6344     		add	r3, r3, ip
 357 0262 1B68     		ldr	r3, [r3]
 358 0264 9222     		mov	r2, #146
 359 0266 5200     		lsl	r2, r2, #1
 360 0268 9021     		mov	r1, #144
 361 026a 8C46     		mov	ip, r1
 362 026c 0821     		mov	r1, #8
 363 026e 8846     		mov	r8, r1
 364 0270 0821     		mov	r1, #8
 365 0272 8946     		mov	r9, r1
 366 0274 B944     		add	r9, r9, r7
 367 0276 C844     		add	r8, r8, r9
 368 0278 C444     		add	ip, ip, r8
 369 027a 6244     		add	r2, r2, ip
 370 027c 1360     		str	r3, [r2]
 120:Source\FilteringFunctions/arm_conv_partial_opt_q15.c ****       srcBLen = srcALen;
 371              		.loc 1 120 0
 372 027e 9823     		mov	r3, #152
 373 0280 0822     		mov	r2, #8
 374 0282 9446     		mov	ip, r2
 375 0284 0822     		mov	r2, #8
 376 0286 9046     		mov	r8, r2
 377 0288 B844     		add	r8, r8, r7
 378 028a C444     		add	ip, ip, r8
 379 028c 6344     		add	r3, r3, ip
 380 028e 1B68     		ldr	r3, [r3]
 381 0290 9022     		mov	r2, #144
 382 0292 0821     		mov	r1, #8
 383 0294 8C46     		mov	ip, r1
 384 0296 0821     		mov	r1, #8
 385 0298 8846     		mov	r8, r1
 386 029a B844     		add	r8, r8, r7
 387 029c C444     		add	ip, ip, r8
 388 029e 6244     		add	r2, r2, ip
 389 02a0 1360     		str	r3, [r2]
 121:Source\FilteringFunctions/arm_conv_partial_opt_q15.c ****       srcALen = j;
 390              		.loc 1 121 0
 391 02a2 9223     		mov	r3, #146
 392 02a4 5B00     		lsl	r3, r3, #1
ARM GAS  C:\Users\fneves\AppData\Local\Temp\ccyl4tsw.s 			page 10


 393 02a6 9022     		mov	r2, #144
 394 02a8 9446     		mov	ip, r2
 395 02aa 0822     		mov	r2, #8
 396 02ac 9046     		mov	r8, r2
 397 02ae 0822     		mov	r2, #8
 398 02b0 9146     		mov	r9, r2
 399 02b2 B944     		add	r9, r9, r7
 400 02b4 C844     		add	r8, r8, r9
 401 02b6 C444     		add	ip, ip, r8
 402 02b8 6344     		add	r3, r3, ip
 403 02ba 1B68     		ldr	r3, [r3]
 404 02bc 9822     		mov	r2, #152
 405 02be 0821     		mov	r1, #8
 406 02c0 8C46     		mov	ip, r1
 407 02c2 0821     		mov	r1, #8
 408 02c4 8846     		mov	r8, r1
 409 02c6 B844     		add	r8, r8, r7
 410 02c8 C444     		add	ip, ip, r8
 411 02ca 6244     		add	r2, r2, ip
 412 02cc 1360     		str	r3, [r2]
 413              	.L5:
 122:Source\FilteringFunctions/arm_conv_partial_opt_q15.c ****     }
 123:Source\FilteringFunctions/arm_conv_partial_opt_q15.c **** 
 124:Source\FilteringFunctions/arm_conv_partial_opt_q15.c ****     /* Temporary pointer for scratch2 */
 125:Source\FilteringFunctions/arm_conv_partial_opt_q15.c ****     py = pScratch2;
 414              		.loc 1 125 0
 415 02ce CC23     		mov	r3, #204
 416 02d0 5B00     		lsl	r3, r3, #1
 417 02d2 9022     		mov	r2, #144
 418 02d4 9446     		mov	ip, r2
 419 02d6 0822     		mov	r2, #8
 420 02d8 9046     		mov	r8, r2
 421 02da 0822     		mov	r2, #8
 422 02dc 9146     		mov	r9, r2
 423 02de 0822     		mov	r2, #8
 424 02e0 9246     		mov	r10, r2
 425 02e2 BA44     		add	r10, r10, r7
 426 02e4 D144     		add	r9, r9, r10
 427 02e6 C844     		add	r8, r8, r9
 428 02e8 C444     		add	ip, ip, r8
 429 02ea 6344     		add	r3, r3, ip
 430 02ec 1B68     		ldr	r3, [r3]
 431 02ee 9022     		mov	r2, #144
 432 02f0 5200     		lsl	r2, r2, #1
 433 02f2 9021     		mov	r1, #144
 434 02f4 8C46     		mov	ip, r1
 435 02f6 0821     		mov	r1, #8
 436 02f8 8846     		mov	r8, r1
 437 02fa 0821     		mov	r1, #8
 438 02fc 8946     		mov	r9, r1
 439 02fe B944     		add	r9, r9, r7
 440 0300 C844     		add	r8, r8, r9
 441 0302 C444     		add	ip, ip, r8
 442 0304 6244     		add	r2, r2, ip
 443 0306 1360     		str	r3, [r2]
 126:Source\FilteringFunctions/arm_conv_partial_opt_q15.c **** 
 127:Source\FilteringFunctions/arm_conv_partial_opt_q15.c ****     /* pointer to take end of scratch2 buffer */
ARM GAS  C:\Users\fneves\AppData\Local\Temp\ccyl4tsw.s 			page 11


 128:Source\FilteringFunctions/arm_conv_partial_opt_q15.c ****     pScr2 = pScratch2 + srcBLen - 1;
 444              		.loc 1 128 0
 445 0308 9023     		mov	r3, #144
 446 030a 0822     		mov	r2, #8
 447 030c 9446     		mov	ip, r2
 448 030e 0822     		mov	r2, #8
 449 0310 9046     		mov	r8, r2
 450 0312 B844     		add	r8, r8, r7
 451 0314 C444     		add	ip, ip, r8
 452 0316 6344     		add	r3, r3, ip
 453 0318 1B68     		ldr	r3, [r3]
 454 031a 294A     		ldr	r2, .L67+4
 455 031c 9446     		mov	ip, r2
 456 031e 6344     		add	r3, r3, ip
 457 0320 5A00     		lsl	r2, r3, #1
 458 0322 CC23     		mov	r3, #204
 459 0324 5B00     		lsl	r3, r3, #1
 460 0326 9021     		mov	r1, #144
 461 0328 8C46     		mov	ip, r1
 462 032a 0821     		mov	r1, #8
 463 032c 8846     		mov	r8, r1
 464 032e 0821     		mov	r1, #8
 465 0330 8946     		mov	r9, r1
 466 0332 0821     		mov	r1, #8
 467 0334 8A46     		mov	r10, r1
 468 0336 BA44     		add	r10, r10, r7
 469 0338 D144     		add	r9, r9, r10
 470 033a C844     		add	r8, r8, r9
 471 033c C444     		add	ip, ip, r8
 472 033e 6344     		add	r3, r3, ip
 473 0340 1B68     		ldr	r3, [r3]
 474 0342 9B18     		add	r3, r3, r2
 475 0344 B622     		mov	r2, #182
 476 0346 5200     		lsl	r2, r2, #1
 477 0348 9021     		mov	r1, #144
 478 034a 8C46     		mov	ip, r1
 479 034c 0821     		mov	r1, #8
 480 034e 8846     		mov	r8, r1
 481 0350 0821     		mov	r1, #8
 482 0352 8946     		mov	r9, r1
 483 0354 B944     		add	r9, r9, r7
 484 0356 C844     		add	r8, r8, r9
 485 0358 C444     		add	ip, ip, r8
 486 035a 6244     		add	r2, r2, ip
 487 035c 1360     		str	r3, [r2]
 129:Source\FilteringFunctions/arm_conv_partial_opt_q15.c **** 
 130:Source\FilteringFunctions/arm_conv_partial_opt_q15.c ****     /* points to smaller length sequence */
 131:Source\FilteringFunctions/arm_conv_partial_opt_q15.c ****     px = pIn2;
 488              		.loc 1 131 0
 489 035e A023     		mov	r3, #160
 490 0360 0822     		mov	r2, #8
 491 0362 9446     		mov	ip, r2
 492 0364 0822     		mov	r2, #8
 493 0366 9046     		mov	r8, r2
 494 0368 B844     		add	r8, r8, r7
 495 036a C444     		add	ip, ip, r8
 496 036c 6344     		add	r3, r3, ip
ARM GAS  C:\Users\fneves\AppData\Local\Temp\ccyl4tsw.s 			page 12


 497 036e 1B68     		ldr	r3, [r3]
 498 0370 9C22     		mov	r2, #156
 499 0372 5200     		lsl	r2, r2, #1
 500 0374 9021     		mov	r1, #144
 501 0376 8C46     		mov	ip, r1
 502 0378 0821     		mov	r1, #8
 503 037a 8846     		mov	r8, r1
 504 037c 0821     		mov	r1, #8
 505 037e 8946     		mov	r9, r1
 506 0380 B944     		add	r9, r9, r7
 507 0382 C844     		add	r8, r8, r9
 508 0384 C444     		add	ip, ip, r8
 509 0386 6244     		add	r2, r2, ip
 510 0388 1360     		str	r3, [r2]
 132:Source\FilteringFunctions/arm_conv_partial_opt_q15.c **** 
 133:Source\FilteringFunctions/arm_conv_partial_opt_q15.c ****     /* Apply loop unrolling and do 4 Copies simultaneously. */
 134:Source\FilteringFunctions/arm_conv_partial_opt_q15.c ****     k = srcBLen >> 2u;
 511              		.loc 1 134 0
 512 038a 9023     		mov	r3, #144
 513 038c 0822     		mov	r2, #8
 514 038e 9446     		mov	ip, r2
 515 0390 0822     		mov	r2, #8
 516 0392 9046     		mov	r8, r2
 517 0394 B844     		add	r8, r8, r7
 518 0396 C444     		add	ip, ip, r8
 519 0398 6344     		add	r3, r3, ip
 520 039a 1B68     		ldr	r3, [r3]
 521 039c 9B08     		lsr	r3, r3, #2
 522 039e 9A22     		mov	r2, #154
 523 03a0 5200     		lsl	r2, r2, #1
 524 03a2 9021     		mov	r1, #144
 525 03a4 8C46     		mov	ip, r1
 526 03a6 0821     		mov	r1, #8
 527 03a8 8846     		mov	r8, r1
 528 03aa 0821     		mov	r1, #8
 529 03ac 8946     		mov	r9, r1
 530 03ae B944     		add	r9, r9, r7
 531 03b0 C844     		add	r8, r8, r9
 532 03b2 C444     		add	ip, ip, r8
 533 03b4 6244     		add	r2, r2, ip
 534 03b6 1360     		str	r3, [r2]
 135:Source\FilteringFunctions/arm_conv_partial_opt_q15.c **** 
 136:Source\FilteringFunctions/arm_conv_partial_opt_q15.c ****     /* First part of the processing with loop unrolling copies 4 data points at a time.
 137:Source\FilteringFunctions/arm_conv_partial_opt_q15.c ****      ** a second loop below copies for the remaining 1 to 3 samples. */
 138:Source\FilteringFunctions/arm_conv_partial_opt_q15.c ****     while (k > 0u)
 535              		.loc 1 138 0
 536 03b8 FFE0     		b	.L6
 537              	.L68:
 538 03ba C046     		.align	2
 539              	.L67:
 540 03bc F0FDFFFF 		.word	-528
 541 03c0 FFFFFF7F 		.word	2147483647
 542              	.L7:
 139:Source\FilteringFunctions/arm_conv_partial_opt_q15.c ****     {
 140:Source\FilteringFunctions/arm_conv_partial_opt_q15.c ****       /* copy second buffer in reversal manner */
 141:Source\FilteringFunctions/arm_conv_partial_opt_q15.c ****       *pScr2-- = *px++;
 543              		.loc 1 141 0
ARM GAS  C:\Users\fneves\AppData\Local\Temp\ccyl4tsw.s 			page 13


 544 03c4 B623     		mov	r3, #182
 545 03c6 5B00     		lsl	r3, r3, #1
 546 03c8 9022     		mov	r2, #144
 547 03ca 9446     		mov	ip, r2
 548 03cc 0822     		mov	r2, #8
 549 03ce 9046     		mov	r8, r2
 550 03d0 0822     		mov	r2, #8
 551 03d2 9146     		mov	r9, r2
 552 03d4 B944     		add	r9, r9, r7
 553 03d6 C844     		add	r8, r8, r9
 554 03d8 C444     		add	ip, ip, r8
 555 03da 6344     		add	r3, r3, ip
 556 03dc 1968     		ldr	r1, [r3]
 557 03de 8B1E     		sub	r3, r1, #2
 558 03e0 B622     		mov	r2, #182
 559 03e2 5200     		lsl	r2, r2, #1
 560 03e4 9020     		mov	r0, #144
 561 03e6 8446     		mov	ip, r0
 562 03e8 0820     		mov	r0, #8
 563 03ea 8046     		mov	r8, r0
 564 03ec 0820     		mov	r0, #8
 565 03ee 8146     		mov	r9, r0
 566 03f0 B944     		add	r9, r9, r7
 567 03f2 C844     		add	r8, r8, r9
 568 03f4 C444     		add	ip, ip, r8
 569 03f6 6244     		add	r2, r2, ip
 570 03f8 1360     		str	r3, [r2]
 571 03fa 9C23     		mov	r3, #156
 572 03fc 5B00     		lsl	r3, r3, #1
 573 03fe 9022     		mov	r2, #144
 574 0400 9446     		mov	ip, r2
 575 0402 0822     		mov	r2, #8
 576 0404 9046     		mov	r8, r2
 577 0406 0822     		mov	r2, #8
 578 0408 9146     		mov	r9, r2
 579 040a B944     		add	r9, r9, r7
 580 040c C844     		add	r8, r8, r9
 581 040e C444     		add	ip, ip, r8
 582 0410 6344     		add	r3, r3, ip
 583 0412 1A68     		ldr	r2, [r3]
 584 0414 931C     		add	r3, r2, #2
 585 0416 9C20     		mov	r0, #156
 586 0418 4000     		lsl	r0, r0, #1
 587 041a 9024     		mov	r4, #144
 588 041c A446     		mov	ip, r4
 589 041e 0824     		mov	r4, #8
 590 0420 A046     		mov	r8, r4
 591 0422 0824     		mov	r4, #8
 592 0424 A146     		mov	r9, r4
 593 0426 B944     		add	r9, r9, r7
 594 0428 C844     		add	r8, r8, r9
 595 042a C444     		add	ip, ip, r8
 596 042c 6044     		add	r0, r0, ip
 597 042e 0360     		str	r3, [r0]
 598 0430 1388     		ldrh	r3, [r2]
 599 0432 0B80     		strh	r3, [r1]
 142:Source\FilteringFunctions/arm_conv_partial_opt_q15.c ****       *pScr2-- = *px++;
ARM GAS  C:\Users\fneves\AppData\Local\Temp\ccyl4tsw.s 			page 14


 600              		.loc 1 142 0
 601 0434 B623     		mov	r3, #182
 602 0436 5B00     		lsl	r3, r3, #1
 603 0438 9022     		mov	r2, #144
 604 043a 9446     		mov	ip, r2
 605 043c 0822     		mov	r2, #8
 606 043e 9046     		mov	r8, r2
 607 0440 0822     		mov	r2, #8
 608 0442 9146     		mov	r9, r2
 609 0444 B944     		add	r9, r9, r7
 610 0446 C844     		add	r8, r8, r9
 611 0448 C444     		add	ip, ip, r8
 612 044a 6344     		add	r3, r3, ip
 613 044c 1968     		ldr	r1, [r3]
 614 044e 8B1E     		sub	r3, r1, #2
 615 0450 B622     		mov	r2, #182
 616 0452 5200     		lsl	r2, r2, #1
 617 0454 9020     		mov	r0, #144
 618 0456 8446     		mov	ip, r0
 619 0458 0820     		mov	r0, #8
 620 045a 8046     		mov	r8, r0
 621 045c 0820     		mov	r0, #8
 622 045e 8146     		mov	r9, r0
 623 0460 B944     		add	r9, r9, r7
 624 0462 C844     		add	r8, r8, r9
 625 0464 C444     		add	ip, ip, r8
 626 0466 6244     		add	r2, r2, ip
 627 0468 1360     		str	r3, [r2]
 628 046a 9C23     		mov	r3, #156
 629 046c 5B00     		lsl	r3, r3, #1
 630 046e 9022     		mov	r2, #144
 631 0470 9446     		mov	ip, r2
 632 0472 0822     		mov	r2, #8
 633 0474 9046     		mov	r8, r2
 634 0476 0822     		mov	r2, #8
 635 0478 9146     		mov	r9, r2
 636 047a B944     		add	r9, r9, r7
 637 047c C844     		add	r8, r8, r9
 638 047e C444     		add	ip, ip, r8
 639 0480 6344     		add	r3, r3, ip
 640 0482 1A68     		ldr	r2, [r3]
 641 0484 931C     		add	r3, r2, #2
 642 0486 9C20     		mov	r0, #156
 643 0488 4000     		lsl	r0, r0, #1
 644 048a 9024     		mov	r4, #144
 645 048c A446     		mov	ip, r4
 646 048e 0824     		mov	r4, #8
 647 0490 A046     		mov	r8, r4
 648 0492 0824     		mov	r4, #8
 649 0494 A146     		mov	r9, r4
 650 0496 B944     		add	r9, r9, r7
 651 0498 C844     		add	r8, r8, r9
 652 049a C444     		add	ip, ip, r8
 653 049c 6044     		add	r0, r0, ip
 654 049e 0360     		str	r3, [r0]
 655 04a0 1388     		ldrh	r3, [r2]
 656 04a2 0B80     		strh	r3, [r1]
ARM GAS  C:\Users\fneves\AppData\Local\Temp\ccyl4tsw.s 			page 15


 143:Source\FilteringFunctions/arm_conv_partial_opt_q15.c ****       *pScr2-- = *px++;
 657              		.loc 1 143 0
 658 04a4 B623     		mov	r3, #182
 659 04a6 5B00     		lsl	r3, r3, #1
 660 04a8 9022     		mov	r2, #144
 661 04aa 9446     		mov	ip, r2
 662 04ac 0822     		mov	r2, #8
 663 04ae 9046     		mov	r8, r2
 664 04b0 0822     		mov	r2, #8
 665 04b2 9146     		mov	r9, r2
 666 04b4 B944     		add	r9, r9, r7
 667 04b6 C844     		add	r8, r8, r9
 668 04b8 C444     		add	ip, ip, r8
 669 04ba 6344     		add	r3, r3, ip
 670 04bc 1968     		ldr	r1, [r3]
 671 04be 8B1E     		sub	r3, r1, #2
 672 04c0 B622     		mov	r2, #182
 673 04c2 5200     		lsl	r2, r2, #1
 674 04c4 9020     		mov	r0, #144
 675 04c6 8446     		mov	ip, r0
 676 04c8 0820     		mov	r0, #8
 677 04ca 8046     		mov	r8, r0
 678 04cc 0820     		mov	r0, #8
 679 04ce 8146     		mov	r9, r0
 680 04d0 B944     		add	r9, r9, r7
 681 04d2 C844     		add	r8, r8, r9
 682 04d4 C444     		add	ip, ip, r8
 683 04d6 6244     		add	r2, r2, ip
 684 04d8 1360     		str	r3, [r2]
 685 04da 9C23     		mov	r3, #156
 686 04dc 5B00     		lsl	r3, r3, #1
 687 04de 9022     		mov	r2, #144
 688 04e0 9446     		mov	ip, r2
 689 04e2 0822     		mov	r2, #8
 690 04e4 9046     		mov	r8, r2
 691 04e6 0822     		mov	r2, #8
 692 04e8 9146     		mov	r9, r2
 693 04ea B944     		add	r9, r9, r7
 694 04ec C844     		add	r8, r8, r9
 695 04ee C444     		add	ip, ip, r8
 696 04f0 6344     		add	r3, r3, ip
 697 04f2 1A68     		ldr	r2, [r3]
 698 04f4 931C     		add	r3, r2, #2
 699 04f6 9C20     		mov	r0, #156
 700 04f8 4000     		lsl	r0, r0, #1
 701 04fa 9024     		mov	r4, #144
 702 04fc A446     		mov	ip, r4
 703 04fe 0824     		mov	r4, #8
 704 0500 A046     		mov	r8, r4
 705 0502 0824     		mov	r4, #8
 706 0504 A146     		mov	r9, r4
 707 0506 B944     		add	r9, r9, r7
 708 0508 C844     		add	r8, r8, r9
 709 050a C444     		add	ip, ip, r8
 710 050c 6044     		add	r0, r0, ip
 711 050e 0360     		str	r3, [r0]
 712 0510 1388     		ldrh	r3, [r2]
ARM GAS  C:\Users\fneves\AppData\Local\Temp\ccyl4tsw.s 			page 16


 713 0512 0B80     		strh	r3, [r1]
 144:Source\FilteringFunctions/arm_conv_partial_opt_q15.c ****       *pScr2-- = *px++;
 714              		.loc 1 144 0
 715 0514 B623     		mov	r3, #182
 716 0516 5B00     		lsl	r3, r3, #1
 717 0518 9022     		mov	r2, #144
 718 051a 9446     		mov	ip, r2
 719 051c 0822     		mov	r2, #8
 720 051e 9046     		mov	r8, r2
 721 0520 0822     		mov	r2, #8
 722 0522 9146     		mov	r9, r2
 723 0524 B944     		add	r9, r9, r7
 724 0526 C844     		add	r8, r8, r9
 725 0528 C444     		add	ip, ip, r8
 726 052a 6344     		add	r3, r3, ip
 727 052c 1968     		ldr	r1, [r3]
 728 052e 8B1E     		sub	r3, r1, #2
 729 0530 B622     		mov	r2, #182
 730 0532 5200     		lsl	r2, r2, #1
 731 0534 9020     		mov	r0, #144
 732 0536 8446     		mov	ip, r0
 733 0538 0820     		mov	r0, #8
 734 053a 8046     		mov	r8, r0
 735 053c 0820     		mov	r0, #8
 736 053e 8146     		mov	r9, r0
 737 0540 B944     		add	r9, r9, r7
 738 0542 C844     		add	r8, r8, r9
 739 0544 C444     		add	ip, ip, r8
 740 0546 6244     		add	r2, r2, ip
 741 0548 1360     		str	r3, [r2]
 742 054a 9C23     		mov	r3, #156
 743 054c 5B00     		lsl	r3, r3, #1
 744 054e 9022     		mov	r2, #144
 745 0550 9446     		mov	ip, r2
 746 0552 0822     		mov	r2, #8
 747 0554 9046     		mov	r8, r2
 748 0556 0822     		mov	r2, #8
 749 0558 9146     		mov	r9, r2
 750 055a B944     		add	r9, r9, r7
 751 055c C844     		add	r8, r8, r9
 752 055e C444     		add	ip, ip, r8
 753 0560 6344     		add	r3, r3, ip
 754 0562 1A68     		ldr	r2, [r3]
 755 0564 931C     		add	r3, r2, #2
 756 0566 9C20     		mov	r0, #156
 757 0568 4000     		lsl	r0, r0, #1
 758 056a 9024     		mov	r4, #144
 759 056c A446     		mov	ip, r4
 760 056e 0824     		mov	r4, #8
 761 0570 A046     		mov	r8, r4
 762 0572 0824     		mov	r4, #8
 763 0574 A146     		mov	r9, r4
 764 0576 B944     		add	r9, r9, r7
 765 0578 C844     		add	r8, r8, r9
 766 057a C444     		add	ip, ip, r8
 767 057c 6044     		add	r0, r0, ip
 768 057e 0360     		str	r3, [r0]
ARM GAS  C:\Users\fneves\AppData\Local\Temp\ccyl4tsw.s 			page 17


 769 0580 1388     		ldrh	r3, [r2]
 770 0582 0B80     		strh	r3, [r1]
 145:Source\FilteringFunctions/arm_conv_partial_opt_q15.c **** 
 146:Source\FilteringFunctions/arm_conv_partial_opt_q15.c ****       /* Decrement the loop counter */
 147:Source\FilteringFunctions/arm_conv_partial_opt_q15.c ****       k--;
 771              		.loc 1 147 0
 772 0584 9A23     		mov	r3, #154
 773 0586 5B00     		lsl	r3, r3, #1
 774 0588 9022     		mov	r2, #144
 775 058a 9446     		mov	ip, r2
 776 058c 0822     		mov	r2, #8
 777 058e 9046     		mov	r8, r2
 778 0590 0822     		mov	r2, #8
 779 0592 9146     		mov	r9, r2
 780 0594 B944     		add	r9, r9, r7
 781 0596 C844     		add	r8, r8, r9
 782 0598 C444     		add	ip, ip, r8
 783 059a 6344     		add	r3, r3, ip
 784 059c 1B68     		ldr	r3, [r3]
 785 059e 013B     		sub	r3, r3, #1
 786 05a0 9A22     		mov	r2, #154
 787 05a2 5200     		lsl	r2, r2, #1
 788 05a4 9021     		mov	r1, #144
 789 05a6 8C46     		mov	ip, r1
 790 05a8 0821     		mov	r1, #8
 791 05aa 8846     		mov	r8, r1
 792 05ac 0821     		mov	r1, #8
 793 05ae 8946     		mov	r9, r1
 794 05b0 B944     		add	r9, r9, r7
 795 05b2 C844     		add	r8, r8, r9
 796 05b4 C444     		add	ip, ip, r8
 797 05b6 6244     		add	r2, r2, ip
 798 05b8 1360     		str	r3, [r2]
 799              	.L6:
 138:Source\FilteringFunctions/arm_conv_partial_opt_q15.c ****     {
 800              		.loc 1 138 0
 801 05ba 9A23     		mov	r3, #154
 802 05bc 5B00     		lsl	r3, r3, #1
 803 05be 9022     		mov	r2, #144
 804 05c0 9446     		mov	ip, r2
 805 05c2 0822     		mov	r2, #8
 806 05c4 9046     		mov	r8, r2
 807 05c6 0822     		mov	r2, #8
 808 05c8 9146     		mov	r9, r2
 809 05ca B944     		add	r9, r9, r7
 810 05cc C844     		add	r8, r8, r9
 811 05ce C444     		add	ip, ip, r8
 812 05d0 6344     		add	r3, r3, ip
 813 05d2 1B68     		ldr	r3, [r3]
 814 05d4 002B     		cmp	r3, #0
 815 05d6 00D0     		beq	.LCB777
 816 05d8 F4E6     		b	.L7	@long jump
 817              	.LCB777:
 148:Source\FilteringFunctions/arm_conv_partial_opt_q15.c ****     }
 149:Source\FilteringFunctions/arm_conv_partial_opt_q15.c **** 
 150:Source\FilteringFunctions/arm_conv_partial_opt_q15.c ****     /* If the count is not a multiple of 4, copy remaining samples here.
 151:Source\FilteringFunctions/arm_conv_partial_opt_q15.c ****      ** No loop unrolling is used. */
ARM GAS  C:\Users\fneves\AppData\Local\Temp\ccyl4tsw.s 			page 18


 152:Source\FilteringFunctions/arm_conv_partial_opt_q15.c ****     k = srcBLen % 0x4u;
 818              		.loc 1 152 0
 819 05da 9023     		mov	r3, #144
 820 05dc 0822     		mov	r2, #8
 821 05de 9446     		mov	ip, r2
 822 05e0 0822     		mov	r2, #8
 823 05e2 9046     		mov	r8, r2
 824 05e4 B844     		add	r8, r8, r7
 825 05e6 C444     		add	ip, ip, r8
 826 05e8 6344     		add	r3, r3, ip
 827 05ea 1A68     		ldr	r2, [r3]
 828 05ec 0323     		mov	r3, #3
 829 05ee 1340     		and	r3, r2
 830 05f0 9A22     		mov	r2, #154
 831 05f2 5200     		lsl	r2, r2, #1
 832 05f4 9021     		mov	r1, #144
 833 05f6 8C46     		mov	ip, r1
 834 05f8 0821     		mov	r1, #8
 835 05fa 8846     		mov	r8, r1
 836 05fc 0821     		mov	r1, #8
 837 05fe 8946     		mov	r9, r1
 838 0600 B944     		add	r9, r9, r7
 839 0602 C844     		add	r8, r8, r9
 840 0604 C444     		add	ip, ip, r8
 841 0606 6244     		add	r2, r2, ip
 842 0608 1360     		str	r3, [r2]
 153:Source\FilteringFunctions/arm_conv_partial_opt_q15.c **** 
 154:Source\FilteringFunctions/arm_conv_partial_opt_q15.c ****     while (k > 0u)
 843              		.loc 1 154 0
 844 060a 52E0     		b	.L8
 845              	.L9:
 155:Source\FilteringFunctions/arm_conv_partial_opt_q15.c ****     {
 156:Source\FilteringFunctions/arm_conv_partial_opt_q15.c ****       /* copy second buffer in reversal manner for remaining samples */
 157:Source\FilteringFunctions/arm_conv_partial_opt_q15.c ****       *pScr2-- = *px++;
 846              		.loc 1 157 0
 847 060c B623     		mov	r3, #182
 848 060e 5B00     		lsl	r3, r3, #1
 849 0610 9022     		mov	r2, #144
 850 0612 9446     		mov	ip, r2
 851 0614 0822     		mov	r2, #8
 852 0616 9046     		mov	r8, r2
 853 0618 0822     		mov	r2, #8
 854 061a 9146     		mov	r9, r2
 855 061c B944     		add	r9, r9, r7
 856 061e C844     		add	r8, r8, r9
 857 0620 C444     		add	ip, ip, r8
 858 0622 6344     		add	r3, r3, ip
 859 0624 1968     		ldr	r1, [r3]
 860 0626 8B1E     		sub	r3, r1, #2
 861 0628 B622     		mov	r2, #182
 862 062a 5200     		lsl	r2, r2, #1
 863 062c 9020     		mov	r0, #144
 864 062e 8446     		mov	ip, r0
 865 0630 0820     		mov	r0, #8
 866 0632 8046     		mov	r8, r0
 867 0634 0820     		mov	r0, #8
 868 0636 8146     		mov	r9, r0
ARM GAS  C:\Users\fneves\AppData\Local\Temp\ccyl4tsw.s 			page 19


 869 0638 B944     		add	r9, r9, r7
 870 063a C844     		add	r8, r8, r9
 871 063c C444     		add	ip, ip, r8
 872 063e 6244     		add	r2, r2, ip
 873 0640 1360     		str	r3, [r2]
 874 0642 9C23     		mov	r3, #156
 875 0644 5B00     		lsl	r3, r3, #1
 876 0646 9022     		mov	r2, #144
 877 0648 9446     		mov	ip, r2
 878 064a 0822     		mov	r2, #8
 879 064c 9046     		mov	r8, r2
 880 064e 0822     		mov	r2, #8
 881 0650 9146     		mov	r9, r2
 882 0652 B944     		add	r9, r9, r7
 883 0654 C844     		add	r8, r8, r9
 884 0656 C444     		add	ip, ip, r8
 885 0658 6344     		add	r3, r3, ip
 886 065a 1A68     		ldr	r2, [r3]
 887 065c 931C     		add	r3, r2, #2
 888 065e 9C20     		mov	r0, #156
 889 0660 4000     		lsl	r0, r0, #1
 890 0662 9024     		mov	r4, #144
 891 0664 A446     		mov	ip, r4
 892 0666 0824     		mov	r4, #8
 893 0668 A046     		mov	r8, r4
 894 066a 0824     		mov	r4, #8
 895 066c A146     		mov	r9, r4
 896 066e B944     		add	r9, r9, r7
 897 0670 C844     		add	r8, r8, r9
 898 0672 C444     		add	ip, ip, r8
 899 0674 6044     		add	r0, r0, ip
 900 0676 0360     		str	r3, [r0]
 901 0678 1388     		ldrh	r3, [r2]
 902 067a 0B80     		strh	r3, [r1]
 158:Source\FilteringFunctions/arm_conv_partial_opt_q15.c **** 
 159:Source\FilteringFunctions/arm_conv_partial_opt_q15.c ****       /* Decrement the loop counter */
 160:Source\FilteringFunctions/arm_conv_partial_opt_q15.c ****       k--;
 903              		.loc 1 160 0
 904 067c 9A23     		mov	r3, #154
 905 067e 5B00     		lsl	r3, r3, #1
 906 0680 9022     		mov	r2, #144
 907 0682 9446     		mov	ip, r2
 908 0684 0822     		mov	r2, #8
 909 0686 9046     		mov	r8, r2
 910 0688 0822     		mov	r2, #8
 911 068a 9146     		mov	r9, r2
 912 068c B944     		add	r9, r9, r7
 913 068e C844     		add	r8, r8, r9
 914 0690 C444     		add	ip, ip, r8
 915 0692 6344     		add	r3, r3, ip
 916 0694 1B68     		ldr	r3, [r3]
 917 0696 013B     		sub	r3, r3, #1
 918 0698 9A22     		mov	r2, #154
 919 069a 5200     		lsl	r2, r2, #1
 920 069c 9021     		mov	r1, #144
 921 069e 8C46     		mov	ip, r1
 922 06a0 0821     		mov	r1, #8
ARM GAS  C:\Users\fneves\AppData\Local\Temp\ccyl4tsw.s 			page 20


 923 06a2 8846     		mov	r8, r1
 924 06a4 0821     		mov	r1, #8
 925 06a6 8946     		mov	r9, r1
 926 06a8 B944     		add	r9, r9, r7
 927 06aa C844     		add	r8, r8, r9
 928 06ac C444     		add	ip, ip, r8
 929 06ae 6244     		add	r2, r2, ip
 930 06b0 1360     		str	r3, [r2]
 931              	.L8:
 154:Source\FilteringFunctions/arm_conv_partial_opt_q15.c ****     {
 932              		.loc 1 154 0
 933 06b2 9A23     		mov	r3, #154
 934 06b4 5B00     		lsl	r3, r3, #1
 935 06b6 9022     		mov	r2, #144
 936 06b8 9446     		mov	ip, r2
 937 06ba 0822     		mov	r2, #8
 938 06bc 9046     		mov	r8, r2
 939 06be 0822     		mov	r2, #8
 940 06c0 9146     		mov	r9, r2
 941 06c2 B944     		add	r9, r9, r7
 942 06c4 C844     		add	r8, r8, r9
 943 06c6 C444     		add	ip, ip, r8
 944 06c8 6344     		add	r3, r3, ip
 945 06ca 1B68     		ldr	r3, [r3]
 946 06cc 002B     		cmp	r3, #0
 947 06ce 9DD1     		bne	.L9
 161:Source\FilteringFunctions/arm_conv_partial_opt_q15.c ****     }
 162:Source\FilteringFunctions/arm_conv_partial_opt_q15.c **** 
 163:Source\FilteringFunctions/arm_conv_partial_opt_q15.c ****     /* Initialze temporary scratch pointer */
 164:Source\FilteringFunctions/arm_conv_partial_opt_q15.c ****     pScr1 = pScratch1;
 948              		.loc 1 164 0
 949 06d0 CA23     		mov	r3, #202
 950 06d2 5B00     		lsl	r3, r3, #1
 951 06d4 9022     		mov	r2, #144
 952 06d6 9446     		mov	ip, r2
 953 06d8 0822     		mov	r2, #8
 954 06da 9046     		mov	r8, r2
 955 06dc 0822     		mov	r2, #8
 956 06de 9146     		mov	r9, r2
 957 06e0 0822     		mov	r2, #8
 958 06e2 9246     		mov	r10, r2
 959 06e4 BA44     		add	r10, r10, r7
 960 06e6 D144     		add	r9, r9, r10
 961 06e8 C844     		add	r8, r8, r9
 962 06ea C444     		add	ip, ip, r8
 963 06ec 6344     		add	r3, r3, ip
 964 06ee 1B68     		ldr	r3, [r3]
 965 06f0 A422     		mov	r2, #164
 966 06f2 0821     		mov	r1, #8
 967 06f4 8C46     		mov	ip, r1
 968 06f6 0821     		mov	r1, #8
 969 06f8 8846     		mov	r8, r1
 970 06fa B844     		add	r8, r8, r7
 971 06fc C444     		add	ip, ip, r8
 972 06fe 6244     		add	r2, r2, ip
 973 0700 1360     		str	r3, [r2]
 165:Source\FilteringFunctions/arm_conv_partial_opt_q15.c **** 
ARM GAS  C:\Users\fneves\AppData\Local\Temp\ccyl4tsw.s 			page 21


 166:Source\FilteringFunctions/arm_conv_partial_opt_q15.c ****     /* Fill (srcBLen - 1u) zeros in scratch buffer */
 167:Source\FilteringFunctions/arm_conv_partial_opt_q15.c ****     arm_fill_q15(0, pScr1, (srcBLen - 1u));
 974              		.loc 1 167 0
 975 0702 A423     		mov	r3, #164
 976 0704 0822     		mov	r2, #8
 977 0706 9446     		mov	ip, r2
 978 0708 0822     		mov	r2, #8
 979 070a 9046     		mov	r8, r2
 980 070c B844     		add	r8, r8, r7
 981 070e C444     		add	ip, ip, r8
 982 0710 6344     		add	r3, r3, ip
 983 0712 1A68     		ldr	r2, [r3]
 984 0714 9023     		mov	r3, #144
 985 0716 0821     		mov	r1, #8
 986 0718 8C46     		mov	ip, r1
 987 071a 0821     		mov	r1, #8
 988 071c 8846     		mov	r8, r1
 989 071e B844     		add	r8, r8, r7
 990 0720 C444     		add	ip, ip, r8
 991 0722 6344     		add	r3, r3, ip
 992 0724 1B68     		ldr	r3, [r3]
 993 0726 013B     		sub	r3, r3, #1
 994 0728 0020     		mov	r0, #0
 995 072a 111C     		mov	r1, r2
 996 072c 1A1C     		mov	r2, r3
 997 072e FFF7FEFF 		bl	arm_fill_q15
 168:Source\FilteringFunctions/arm_conv_partial_opt_q15.c **** 
 169:Source\FilteringFunctions/arm_conv_partial_opt_q15.c ****     /* Update temporary scratch pointer */
 170:Source\FilteringFunctions/arm_conv_partial_opt_q15.c ****     pScr1 += (srcBLen - 1u);
 998              		.loc 1 170 0
 999 0732 A423     		mov	r3, #164
 1000 0734 0822     		mov	r2, #8
 1001 0736 9446     		mov	ip, r2
 1002 0738 0822     		mov	r2, #8
 1003 073a 9046     		mov	r8, r2
 1004 073c B844     		add	r8, r8, r7
 1005 073e C444     		add	ip, ip, r8
 1006 0740 6344     		add	r3, r3, ip
 1007 0742 1A68     		ldr	r2, [r3]
 1008 0744 9023     		mov	r3, #144
 1009 0746 0821     		mov	r1, #8
 1010 0748 8C46     		mov	ip, r1
 1011 074a 0821     		mov	r1, #8
 1012 074c 8846     		mov	r8, r1
 1013 074e B844     		add	r8, r8, r7
 1014 0750 C444     		add	ip, ip, r8
 1015 0752 6344     		add	r3, r3, ip
 1016 0754 1B68     		ldr	r3, [r3]
 1017 0756 E049     		ldr	r1, .L69
 1018 0758 8C46     		mov	ip, r1
 1019 075a 6344     		add	r3, r3, ip
 1020 075c 5B00     		lsl	r3, r3, #1
 1021 075e D318     		add	r3, r2, r3
 1022 0760 A422     		mov	r2, #164
 1023 0762 0821     		mov	r1, #8
 1024 0764 8C46     		mov	ip, r1
 1025 0766 0821     		mov	r1, #8
ARM GAS  C:\Users\fneves\AppData\Local\Temp\ccyl4tsw.s 			page 22


 1026 0768 8846     		mov	r8, r1
 1027 076a B844     		add	r8, r8, r7
 1028 076c C444     		add	ip, ip, r8
 1029 076e 6244     		add	r2, r2, ip
 1030 0770 1360     		str	r3, [r2]
 171:Source\FilteringFunctions/arm_conv_partial_opt_q15.c **** 
 172:Source\FilteringFunctions/arm_conv_partial_opt_q15.c ****     /* Copy bigger length sequence(srcALen) samples in scratch1 buffer */
 173:Source\FilteringFunctions/arm_conv_partial_opt_q15.c **** 
 174:Source\FilteringFunctions/arm_conv_partial_opt_q15.c ****     /* Copy (srcALen) samples in scratch buffer */
 175:Source\FilteringFunctions/arm_conv_partial_opt_q15.c ****     arm_copy_q15(pIn1, pScr1, srcALen);
 1031              		.loc 1 175 0
 1032 0772 A423     		mov	r3, #164
 1033 0774 0822     		mov	r2, #8
 1034 0776 9446     		mov	ip, r2
 1035 0778 0822     		mov	r2, #8
 1036 077a 9046     		mov	r8, r2
 1037 077c B844     		add	r8, r8, r7
 1038 077e C444     		add	ip, ip, r8
 1039 0780 6344     		add	r3, r3, ip
 1040 0782 1968     		ldr	r1, [r3]
 1041 0784 9E23     		mov	r3, #158
 1042 0786 5B00     		lsl	r3, r3, #1
 1043 0788 9022     		mov	r2, #144
 1044 078a 9446     		mov	ip, r2
 1045 078c 0822     		mov	r2, #8
 1046 078e 9046     		mov	r8, r2
 1047 0790 0822     		mov	r2, #8
 1048 0792 9146     		mov	r9, r2
 1049 0794 B944     		add	r9, r9, r7
 1050 0796 C844     		add	r8, r8, r9
 1051 0798 C444     		add	ip, ip, r8
 1052 079a 6344     		add	r3, r3, ip
 1053 079c 1B68     		ldr	r3, [r3]
 1054 079e 9822     		mov	r2, #152
 1055 07a0 0820     		mov	r0, #8
 1056 07a2 8446     		mov	ip, r0
 1057 07a4 0820     		mov	r0, #8
 1058 07a6 8046     		mov	r8, r0
 1059 07a8 B844     		add	r8, r8, r7
 1060 07aa C444     		add	ip, ip, r8
 1061 07ac 6244     		add	r2, r2, ip
 1062 07ae 1268     		ldr	r2, [r2]
 1063 07b0 181C     		mov	r0, r3
 1064 07b2 FFF7FEFF 		bl	arm_copy_q15
 176:Source\FilteringFunctions/arm_conv_partial_opt_q15.c **** 
 177:Source\FilteringFunctions/arm_conv_partial_opt_q15.c ****     /* Update pointers */
 178:Source\FilteringFunctions/arm_conv_partial_opt_q15.c ****     pScr1 += srcALen;
 1065              		.loc 1 178 0
 1066 07b6 A423     		mov	r3, #164
 1067 07b8 0822     		mov	r2, #8
 1068 07ba 9446     		mov	ip, r2
 1069 07bc 0822     		mov	r2, #8
 1070 07be 9046     		mov	r8, r2
 1071 07c0 B844     		add	r8, r8, r7
 1072 07c2 C444     		add	ip, ip, r8
 1073 07c4 6344     		add	r3, r3, ip
 1074 07c6 1A68     		ldr	r2, [r3]
ARM GAS  C:\Users\fneves\AppData\Local\Temp\ccyl4tsw.s 			page 23


 1075 07c8 9823     		mov	r3, #152
 1076 07ca 0821     		mov	r1, #8
 1077 07cc 8C46     		mov	ip, r1
 1078 07ce 0821     		mov	r1, #8
 1079 07d0 8846     		mov	r8, r1
 1080 07d2 B844     		add	r8, r8, r7
 1081 07d4 C444     		add	ip, ip, r8
 1082 07d6 6344     		add	r3, r3, ip
 1083 07d8 1B68     		ldr	r3, [r3]
 1084 07da 5B00     		lsl	r3, r3, #1
 1085 07dc D318     		add	r3, r2, r3
 1086 07de A422     		mov	r2, #164
 1087 07e0 0821     		mov	r1, #8
 1088 07e2 8C46     		mov	ip, r1
 1089 07e4 0821     		mov	r1, #8
 1090 07e6 8846     		mov	r8, r1
 1091 07e8 B844     		add	r8, r8, r7
 1092 07ea C444     		add	ip, ip, r8
 1093 07ec 6244     		add	r2, r2, ip
 1094 07ee 1360     		str	r3, [r2]
 179:Source\FilteringFunctions/arm_conv_partial_opt_q15.c **** 
 180:Source\FilteringFunctions/arm_conv_partial_opt_q15.c ****     /* Fill (srcBLen - 1u) zeros at end of scratch buffer */
 181:Source\FilteringFunctions/arm_conv_partial_opt_q15.c ****     arm_fill_q15(0, pScr1, (srcBLen - 1u));
 1095              		.loc 1 181 0
 1096 07f0 A423     		mov	r3, #164
 1097 07f2 0822     		mov	r2, #8
 1098 07f4 9446     		mov	ip, r2
 1099 07f6 0822     		mov	r2, #8
 1100 07f8 9046     		mov	r8, r2
 1101 07fa B844     		add	r8, r8, r7
 1102 07fc C444     		add	ip, ip, r8
 1103 07fe 6344     		add	r3, r3, ip
 1104 0800 1A68     		ldr	r2, [r3]
 1105 0802 9023     		mov	r3, #144
 1106 0804 0821     		mov	r1, #8
 1107 0806 8C46     		mov	ip, r1
 1108 0808 0821     		mov	r1, #8
 1109 080a 8846     		mov	r8, r1
 1110 080c B844     		add	r8, r8, r7
 1111 080e C444     		add	ip, ip, r8
 1112 0810 6344     		add	r3, r3, ip
 1113 0812 1B68     		ldr	r3, [r3]
 1114 0814 013B     		sub	r3, r3, #1
 1115 0816 0020     		mov	r0, #0
 1116 0818 111C     		mov	r1, r2
 1117 081a 1A1C     		mov	r2, r3
 1118 081c FFF7FEFF 		bl	arm_fill_q15
 182:Source\FilteringFunctions/arm_conv_partial_opt_q15.c **** 
 183:Source\FilteringFunctions/arm_conv_partial_opt_q15.c ****     /* Update pointer */
 184:Source\FilteringFunctions/arm_conv_partial_opt_q15.c ****     pScr1 += (srcBLen - 1u);
 1119              		.loc 1 184 0
 1120 0820 A423     		mov	r3, #164
 1121 0822 0822     		mov	r2, #8
 1122 0824 9446     		mov	ip, r2
 1123 0826 0822     		mov	r2, #8
 1124 0828 9046     		mov	r8, r2
 1125 082a B844     		add	r8, r8, r7
ARM GAS  C:\Users\fneves\AppData\Local\Temp\ccyl4tsw.s 			page 24


 1126 082c C444     		add	ip, ip, r8
 1127 082e 6344     		add	r3, r3, ip
 1128 0830 1A68     		ldr	r2, [r3]
 1129 0832 9023     		mov	r3, #144
 1130 0834 0821     		mov	r1, #8
 1131 0836 8C46     		mov	ip, r1
 1132 0838 0821     		mov	r1, #8
 1133 083a 8846     		mov	r8, r1
 1134 083c B844     		add	r8, r8, r7
 1135 083e C444     		add	ip, ip, r8
 1136 0840 6344     		add	r3, r3, ip
 1137 0842 1B68     		ldr	r3, [r3]
 1138 0844 A449     		ldr	r1, .L69
 1139 0846 8C46     		mov	ip, r1
 1140 0848 6344     		add	r3, r3, ip
 1141 084a 5B00     		lsl	r3, r3, #1
 1142 084c D318     		add	r3, r2, r3
 1143 084e A422     		mov	r2, #164
 1144 0850 0821     		mov	r1, #8
 1145 0852 8C46     		mov	ip, r1
 1146 0854 0821     		mov	r1, #8
 1147 0856 8846     		mov	r8, r1
 1148 0858 B844     		add	r8, r8, r7
 1149 085a C444     		add	ip, ip, r8
 1150 085c 6244     		add	r2, r2, ip
 1151 085e 1360     		str	r3, [r2]
 185:Source\FilteringFunctions/arm_conv_partial_opt_q15.c **** 
 186:Source\FilteringFunctions/arm_conv_partial_opt_q15.c ****     /* Initialization of pIn2 pointer */
 187:Source\FilteringFunctions/arm_conv_partial_opt_q15.c ****     pIn2 = py;
 1152              		.loc 1 187 0
 1153 0860 9023     		mov	r3, #144
 1154 0862 5B00     		lsl	r3, r3, #1
 1155 0864 9022     		mov	r2, #144
 1156 0866 9446     		mov	ip, r2
 1157 0868 0822     		mov	r2, #8
 1158 086a 9046     		mov	r8, r2
 1159 086c 0822     		mov	r2, #8
 1160 086e 9146     		mov	r9, r2
 1161 0870 B944     		add	r9, r9, r7
 1162 0872 C844     		add	r8, r8, r9
 1163 0874 C444     		add	ip, ip, r8
 1164 0876 6344     		add	r3, r3, ip
 1165 0878 1B68     		ldr	r3, [r3]
 1166 087a A022     		mov	r2, #160
 1167 087c 0821     		mov	r1, #8
 1168 087e 8C46     		mov	ip, r1
 1169 0880 0821     		mov	r1, #8
 1170 0882 8846     		mov	r8, r1
 1171 0884 B844     		add	r8, r8, r7
 1172 0886 C444     		add	ip, ip, r8
 1173 0888 6244     		add	r2, r2, ip
 1174 088a 1360     		str	r3, [r2]
 188:Source\FilteringFunctions/arm_conv_partial_opt_q15.c **** 
 189:Source\FilteringFunctions/arm_conv_partial_opt_q15.c ****     pScratch1 += firstIndex;
 1175              		.loc 1 189 0
 1176 088c C623     		mov	r3, #198
 1177 088e 5B00     		lsl	r3, r3, #1
ARM GAS  C:\Users\fneves\AppData\Local\Temp\ccyl4tsw.s 			page 25


 1178 0890 9022     		mov	r2, #144
 1179 0892 9446     		mov	ip, r2
 1180 0894 0822     		mov	r2, #8
 1181 0896 9046     		mov	r8, r2
 1182 0898 0822     		mov	r2, #8
 1183 089a 9146     		mov	r9, r2
 1184 089c 0822     		mov	r2, #8
 1185 089e 9246     		mov	r10, r2
 1186 08a0 BA44     		add	r10, r10, r7
 1187 08a2 D144     		add	r9, r9, r10
 1188 08a4 C844     		add	r8, r8, r9
 1189 08a6 C444     		add	ip, ip, r8
 1190 08a8 6344     		add	r3, r3, ip
 1191 08aa 1B68     		ldr	r3, [r3]
 1192 08ac 5A00     		lsl	r2, r3, #1
 1193 08ae CA23     		mov	r3, #202
 1194 08b0 5B00     		lsl	r3, r3, #1
 1195 08b2 9021     		mov	r1, #144
 1196 08b4 8C46     		mov	ip, r1
 1197 08b6 0821     		mov	r1, #8
 1198 08b8 8846     		mov	r8, r1
 1199 08ba 0821     		mov	r1, #8
 1200 08bc 8946     		mov	r9, r1
 1201 08be 0821     		mov	r1, #8
 1202 08c0 8A46     		mov	r10, r1
 1203 08c2 BA44     		add	r10, r10, r7
 1204 08c4 D144     		add	r9, r9, r10
 1205 08c6 C844     		add	r8, r8, r9
 1206 08c8 C444     		add	ip, ip, r8
 1207 08ca 6344     		add	r3, r3, ip
 1208 08cc 1B68     		ldr	r3, [r3]
 1209 08ce 9B18     		add	r3, r3, r2
 1210 08d0 CA22     		mov	r2, #202
 1211 08d2 5200     		lsl	r2, r2, #1
 1212 08d4 9021     		mov	r1, #144
 1213 08d6 8C46     		mov	ip, r1
 1214 08d8 0821     		mov	r1, #8
 1215 08da 8846     		mov	r8, r1
 1216 08dc 0821     		mov	r1, #8
 1217 08de 8946     		mov	r9, r1
 1218 08e0 0821     		mov	r1, #8
 1219 08e2 8A46     		mov	r10, r1
 1220 08e4 BA44     		add	r10, r10, r7
 1221 08e6 D144     		add	r9, r9, r10
 1222 08e8 C844     		add	r8, r8, r9
 1223 08ea C444     		add	ip, ip, r8
 1224 08ec 6244     		add	r2, r2, ip
 1225 08ee 1360     		str	r3, [r2]
 190:Source\FilteringFunctions/arm_conv_partial_opt_q15.c **** 
 191:Source\FilteringFunctions/arm_conv_partial_opt_q15.c ****     pOut = pDst + firstIndex;
 1226              		.loc 1 191 0
 1227 08f0 C623     		mov	r3, #198
 1228 08f2 5B00     		lsl	r3, r3, #1
 1229 08f4 9022     		mov	r2, #144
 1230 08f6 9446     		mov	ip, r2
 1231 08f8 0822     		mov	r2, #8
 1232 08fa 9046     		mov	r8, r2
ARM GAS  C:\Users\fneves\AppData\Local\Temp\ccyl4tsw.s 			page 26


 1233 08fc 0822     		mov	r2, #8
 1234 08fe 9146     		mov	r9, r2
 1235 0900 0822     		mov	r2, #8
 1236 0902 9246     		mov	r10, r2
 1237 0904 BA44     		add	r10, r10, r7
 1238 0906 D144     		add	r9, r9, r10
 1239 0908 C844     		add	r8, r8, r9
 1240 090a C444     		add	ip, ip, r8
 1241 090c 6344     		add	r3, r3, ip
 1242 090e 1B68     		ldr	r3, [r3]
 1243 0910 5A00     		lsl	r2, r3, #1
 1244 0912 C423     		mov	r3, #196
 1245 0914 5B00     		lsl	r3, r3, #1
 1246 0916 9021     		mov	r1, #144
 1247 0918 8C46     		mov	ip, r1
 1248 091a 0821     		mov	r1, #8
 1249 091c 8846     		mov	r8, r1
 1250 091e 0821     		mov	r1, #8
 1251 0920 8946     		mov	r9, r1
 1252 0922 0821     		mov	r1, #8
 1253 0924 8A46     		mov	r10, r1
 1254 0926 BA44     		add	r10, r10, r7
 1255 0928 D144     		add	r9, r9, r10
 1256 092a C844     		add	r8, r8, r9
 1257 092c C444     		add	ip, ip, r8
 1258 092e 6344     		add	r3, r3, ip
 1259 0930 1B68     		ldr	r3, [r3]
 1260 0932 9B18     		add	r3, r3, r2
 1261 0934 A822     		mov	r2, #168
 1262 0936 0821     		mov	r1, #8
 1263 0938 8C46     		mov	ip, r1
 1264 093a 0821     		mov	r1, #8
 1265 093c 8846     		mov	r8, r1
 1266 093e B844     		add	r8, r8, r7
 1267 0940 C444     		add	ip, ip, r8
 1268 0942 6244     		add	r2, r2, ip
 1269 0944 1360     		str	r3, [r2]
 192:Source\FilteringFunctions/arm_conv_partial_opt_q15.c **** 
 193:Source\FilteringFunctions/arm_conv_partial_opt_q15.c ****     /* Actual convolution process starts here */
 194:Source\FilteringFunctions/arm_conv_partial_opt_q15.c ****     blkCnt = (numPoints) >> 2;
 1270              		.loc 1 194 0
 1271 0946 C823     		mov	r3, #200
 1272 0948 5B00     		lsl	r3, r3, #1
 1273 094a 9022     		mov	r2, #144
 1274 094c 9446     		mov	ip, r2
 1275 094e 0822     		mov	r2, #8
 1276 0950 9046     		mov	r8, r2
 1277 0952 0822     		mov	r2, #8
 1278 0954 9146     		mov	r9, r2
 1279 0956 0822     		mov	r2, #8
 1280 0958 9246     		mov	r10, r2
 1281 095a BA44     		add	r10, r10, r7
 1282 095c D144     		add	r9, r9, r10
 1283 095e C844     		add	r8, r8, r9
 1284 0960 C444     		add	ip, ip, r8
 1285 0962 6344     		add	r3, r3, ip
 1286 0964 1B68     		ldr	r3, [r3]
ARM GAS  C:\Users\fneves\AppData\Local\Temp\ccyl4tsw.s 			page 27


 1287 0966 9B08     		lsr	r3, r3, #2
 1288 0968 9822     		mov	r2, #152
 1289 096a 5200     		lsl	r2, r2, #1
 1290 096c 9021     		mov	r1, #144
 1291 096e 8C46     		mov	ip, r1
 1292 0970 0821     		mov	r1, #8
 1293 0972 8846     		mov	r8, r1
 1294 0974 0821     		mov	r1, #8
 1295 0976 8946     		mov	r9, r1
 1296 0978 B944     		add	r9, r9, r7
 1297 097a C844     		add	r8, r8, r9
 1298 097c C444     		add	ip, ip, r8
 1299 097e 6244     		add	r2, r2, ip
 1300 0980 1360     		str	r3, [r2]
 195:Source\FilteringFunctions/arm_conv_partial_opt_q15.c **** 
 196:Source\FilteringFunctions/arm_conv_partial_opt_q15.c ****     while (blkCnt > 0)
 1301              		.loc 1 196 0
 1302 0982 01F05BFE 		bl	.L10	@ far jump
 1303              	.L47:
 197:Source\FilteringFunctions/arm_conv_partial_opt_q15.c ****     {
 198:Source\FilteringFunctions/arm_conv_partial_opt_q15.c ****       /* Initialze temporary scratch pointer as scratch1 */
 199:Source\FilteringFunctions/arm_conv_partial_opt_q15.c ****       pScr1 = pScratch1;
 1304              		.loc 1 199 0
 1305 0986 CA23     		mov	r3, #202
 1306 0988 5B00     		lsl	r3, r3, #1
 1307 098a 9022     		mov	r2, #144
 1308 098c 9446     		mov	ip, r2
 1309 098e 0822     		mov	r2, #8
 1310 0990 9046     		mov	r8, r2
 1311 0992 0822     		mov	r2, #8
 1312 0994 9146     		mov	r9, r2
 1313 0996 0822     		mov	r2, #8
 1314 0998 9246     		mov	r10, r2
 1315 099a BA44     		add	r10, r10, r7
 1316 099c D144     		add	r9, r9, r10
 1317 099e C844     		add	r8, r8, r9
 1318 09a0 C444     		add	ip, ip, r8
 1319 09a2 6344     		add	r3, r3, ip
 1320 09a4 1B68     		ldr	r3, [r3]
 1321 09a6 A422     		mov	r2, #164
 1322 09a8 0821     		mov	r1, #8
 1323 09aa 8C46     		mov	ip, r1
 1324 09ac 0821     		mov	r1, #8
 1325 09ae 8846     		mov	r8, r1
 1326 09b0 B844     		add	r8, r8, r7
 1327 09b2 C444     		add	ip, ip, r8
 1328 09b4 6244     		add	r2, r2, ip
 1329 09b6 1360     		str	r3, [r2]
 200:Source\FilteringFunctions/arm_conv_partial_opt_q15.c **** 
 201:Source\FilteringFunctions/arm_conv_partial_opt_q15.c ****       /* Clear Accumlators */
 202:Source\FilteringFunctions/arm_conv_partial_opt_q15.c ****       acc0 = 0;
 1330              		.loc 1 202 0
 1331 09b8 0023     		mov	r3, #0
 1332 09ba 0024     		mov	r4, #0
 1333 09bc B022     		mov	r2, #176
 1334 09be 5200     		lsl	r2, r2, #1
 1335 09c0 9021     		mov	r1, #144
ARM GAS  C:\Users\fneves\AppData\Local\Temp\ccyl4tsw.s 			page 28


 1336 09c2 8C46     		mov	ip, r1
 1337 09c4 0821     		mov	r1, #8
 1338 09c6 8846     		mov	r8, r1
 1339 09c8 0821     		mov	r1, #8
 1340 09ca 8946     		mov	r9, r1
 1341 09cc B944     		add	r9, r9, r7
 1342 09ce C844     		add	r8, r8, r9
 1343 09d0 C444     		add	ip, ip, r8
 1344 09d2 6244     		add	r2, r2, ip
 1345 09d4 1360     		str	r3, [r2]
 1346 09d6 5460     		str	r4, [r2, #4]
 203:Source\FilteringFunctions/arm_conv_partial_opt_q15.c ****       acc1 = 0;
 1347              		.loc 1 203 0
 1348 09d8 0023     		mov	r3, #0
 1349 09da 0024     		mov	r4, #0
 1350 09dc AC22     		mov	r2, #172
 1351 09de 5200     		lsl	r2, r2, #1
 1352 09e0 9021     		mov	r1, #144
 1353 09e2 8C46     		mov	ip, r1
 1354 09e4 0821     		mov	r1, #8
 1355 09e6 8846     		mov	r8, r1
 1356 09e8 0821     		mov	r1, #8
 1357 09ea 8946     		mov	r9, r1
 1358 09ec B944     		add	r9, r9, r7
 1359 09ee C844     		add	r8, r8, r9
 1360 09f0 C444     		add	ip, ip, r8
 1361 09f2 6244     		add	r2, r2, ip
 1362 09f4 1360     		str	r3, [r2]
 1363 09f6 5460     		str	r4, [r2, #4]
 204:Source\FilteringFunctions/arm_conv_partial_opt_q15.c ****       acc2 = 0;
 1364              		.loc 1 204 0
 1365 09f8 0023     		mov	r3, #0
 1366 09fa 0024     		mov	r4, #0
 1367 09fc A822     		mov	r2, #168
 1368 09fe 5200     		lsl	r2, r2, #1
 1369 0a00 9021     		mov	r1, #144
 1370 0a02 8C46     		mov	ip, r1
 1371 0a04 0821     		mov	r1, #8
 1372 0a06 8846     		mov	r8, r1
 1373 0a08 0821     		mov	r1, #8
 1374 0a0a 8946     		mov	r9, r1
 1375 0a0c B944     		add	r9, r9, r7
 1376 0a0e C844     		add	r8, r8, r9
 1377 0a10 C444     		add	ip, ip, r8
 1378 0a12 6244     		add	r2, r2, ip
 1379 0a14 1360     		str	r3, [r2]
 1380 0a16 5460     		str	r4, [r2, #4]
 205:Source\FilteringFunctions/arm_conv_partial_opt_q15.c ****       acc3 = 0;
 1381              		.loc 1 205 0
 1382 0a18 0023     		mov	r3, #0
 1383 0a1a 0024     		mov	r4, #0
 1384 0a1c A422     		mov	r2, #164
 1385 0a1e 5200     		lsl	r2, r2, #1
 1386 0a20 9021     		mov	r1, #144
 1387 0a22 8C46     		mov	ip, r1
 1388 0a24 0821     		mov	r1, #8
 1389 0a26 8846     		mov	r8, r1
ARM GAS  C:\Users\fneves\AppData\Local\Temp\ccyl4tsw.s 			page 29


 1390 0a28 0821     		mov	r1, #8
 1391 0a2a 8946     		mov	r9, r1
 1392 0a2c B944     		add	r9, r9, r7
 1393 0a2e C844     		add	r8, r8, r9
 1394 0a30 C444     		add	ip, ip, r8
 1395 0a32 6244     		add	r2, r2, ip
 1396 0a34 1360     		str	r3, [r2]
 1397 0a36 5460     		str	r4, [r2, #4]
 206:Source\FilteringFunctions/arm_conv_partial_opt_q15.c **** 
 207:Source\FilteringFunctions/arm_conv_partial_opt_q15.c ****       /* Read two samples from scratch1 buffer */
 208:Source\FilteringFunctions/arm_conv_partial_opt_q15.c ****       x1 = *__SIMD32(pScr1)++;
 1398              		.loc 1 208 0
 1399 0a38 1423     		mov	r3, #20
 1400 0a3a 9022     		mov	r2, #144
 1401 0a3c 0821     		mov	r1, #8
 1402 0a3e 8C46     		mov	ip, r1
 1403 0a40 0821     		mov	r1, #8
 1404 0a42 8846     		mov	r8, r1
 1405 0a44 B844     		add	r8, r8, r7
 1406 0a46 C444     		add	ip, ip, r8
 1407 0a48 6244     		add	r2, r2, ip
 1408 0a4a D218     		add	r2, r2, r3
 1409 0a4c 1168     		ldr	r1, [r2]
 1410 0a4e 0B1D     		add	r3, r1, #4
 1411 0a50 1360     		str	r3, [r2]
 1412 0a52 0B68     		ldr	r3, [r1]
 1413 0a54 A222     		mov	r2, #162
 1414 0a56 5200     		lsl	r2, r2, #1
 1415 0a58 9021     		mov	r1, #144
 1416 0a5a 8C46     		mov	ip, r1
 1417 0a5c 0821     		mov	r1, #8
 1418 0a5e 8846     		mov	r8, r1
 1419 0a60 0821     		mov	r1, #8
 1420 0a62 8946     		mov	r9, r1
 1421 0a64 B944     		add	r9, r9, r7
 1422 0a66 C844     		add	r8, r8, r9
 1423 0a68 C444     		add	ip, ip, r8
 1424 0a6a 6244     		add	r2, r2, ip
 1425 0a6c 1360     		str	r3, [r2]
 209:Source\FilteringFunctions/arm_conv_partial_opt_q15.c **** 
 210:Source\FilteringFunctions/arm_conv_partial_opt_q15.c ****       /* Read next two samples from scratch1 buffer */
 211:Source\FilteringFunctions/arm_conv_partial_opt_q15.c ****       x2 = *__SIMD32(pScr1)++;
 1426              		.loc 1 211 0
 1427 0a6e 1423     		mov	r3, #20
 1428 0a70 9022     		mov	r2, #144
 1429 0a72 0821     		mov	r1, #8
 1430 0a74 8C46     		mov	ip, r1
 1431 0a76 0821     		mov	r1, #8
 1432 0a78 8846     		mov	r8, r1
 1433 0a7a B844     		add	r8, r8, r7
 1434 0a7c C444     		add	ip, ip, r8
 1435 0a7e 6244     		add	r2, r2, ip
 1436 0a80 D218     		add	r2, r2, r3
 1437 0a82 1168     		ldr	r1, [r2]
 1438 0a84 0B1D     		add	r3, r1, #4
 1439 0a86 1360     		str	r3, [r2]
 1440 0a88 0B68     		ldr	r3, [r1]
ARM GAS  C:\Users\fneves\AppData\Local\Temp\ccyl4tsw.s 			page 30


 1441 0a8a A022     		mov	r2, #160
 1442 0a8c 5200     		lsl	r2, r2, #1
 1443 0a8e 9021     		mov	r1, #144
 1444 0a90 8C46     		mov	ip, r1
 1445 0a92 0821     		mov	r1, #8
 1446 0a94 8846     		mov	r8, r1
 1447 0a96 0821     		mov	r1, #8
 1448 0a98 8946     		mov	r9, r1
 1449 0a9a B944     		add	r9, r9, r7
 1450 0a9c C844     		add	r8, r8, r9
 1451 0a9e C444     		add	ip, ip, r8
 1452 0aa0 6244     		add	r2, r2, ip
 1453 0aa2 1360     		str	r3, [r2]
 212:Source\FilteringFunctions/arm_conv_partial_opt_q15.c **** 
 213:Source\FilteringFunctions/arm_conv_partial_opt_q15.c ****       tapCnt = (srcBLen) >> 2u;
 1454              		.loc 1 213 0
 1455 0aa4 9023     		mov	r3, #144
 1456 0aa6 0822     		mov	r2, #8
 1457 0aa8 9446     		mov	ip, r2
 1458 0aaa 0822     		mov	r2, #8
 1459 0aac 9046     		mov	r8, r2
 1460 0aae B844     		add	r8, r8, r7
 1461 0ab0 C444     		add	ip, ip, r8
 1462 0ab2 6344     		add	r3, r3, ip
 1463 0ab4 1B68     		ldr	r3, [r3]
 1464 0ab6 9B08     		lsr	r3, r3, #2
 1465 0ab8 9422     		mov	r2, #148
 1466 0aba 5200     		lsl	r2, r2, #1
 1467 0abc 9021     		mov	r1, #144
 1468 0abe 8C46     		mov	ip, r1
 1469 0ac0 0821     		mov	r1, #8
 1470 0ac2 8846     		mov	r8, r1
 1471 0ac4 0821     		mov	r1, #8
 1472 0ac6 8946     		mov	r9, r1
 1473 0ac8 B944     		add	r9, r9, r7
 1474 0aca C844     		add	r8, r8, r9
 1475 0acc C444     		add	ip, ip, r8
 1476 0ace 6244     		add	r2, r2, ip
 1477 0ad0 1360     		str	r3, [r2]
 214:Source\FilteringFunctions/arm_conv_partial_opt_q15.c **** 
 215:Source\FilteringFunctions/arm_conv_partial_opt_q15.c ****       while (tapCnt > 0u)
 1478              		.loc 1 215 0
 1479 0ad2 00F08EFE 		bl	.L11	@ far jump
 1480              	.L70:
 1481 0ad6 C046     		.align	2
 1482              	.L69:
 1483 0ad8 FFFFFF7F 		.word	2147483647
 1484              	.L20:
 216:Source\FilteringFunctions/arm_conv_partial_opt_q15.c ****       {
 217:Source\FilteringFunctions/arm_conv_partial_opt_q15.c **** 
 218:Source\FilteringFunctions/arm_conv_partial_opt_q15.c ****         /* Read four samples from smaller buffer */
 219:Source\FilteringFunctions/arm_conv_partial_opt_q15.c ****         y1 = _SIMD32_OFFSET(pIn2);
 1485              		.loc 1 219 0
 1486 0adc A023     		mov	r3, #160
 1487 0ade 0822     		mov	r2, #8
 1488 0ae0 9446     		mov	ip, r2
 1489 0ae2 0822     		mov	r2, #8
ARM GAS  C:\Users\fneves\AppData\Local\Temp\ccyl4tsw.s 			page 31


 1490 0ae4 9046     		mov	r8, r2
 1491 0ae6 B844     		add	r8, r8, r7
 1492 0ae8 C444     		add	ip, ip, r8
 1493 0aea 6344     		add	r3, r3, ip
 1494 0aec 1B68     		ldr	r3, [r3]
 1495 0aee 1B68     		ldr	r3, [r3]
 1496 0af0 8E22     		mov	r2, #142
 1497 0af2 5200     		lsl	r2, r2, #1
 1498 0af4 9021     		mov	r1, #144
 1499 0af6 8C46     		mov	ip, r1
 1500 0af8 0821     		mov	r1, #8
 1501 0afa 8846     		mov	r8, r1
 1502 0afc 0821     		mov	r1, #8
 1503 0afe 8946     		mov	r9, r1
 1504 0b00 B944     		add	r9, r9, r7
 1505 0b02 C844     		add	r8, r8, r9
 1506 0b04 C444     		add	ip, ip, r8
 1507 0b06 6244     		add	r2, r2, ip
 1508 0b08 1360     		str	r3, [r2]
 220:Source\FilteringFunctions/arm_conv_partial_opt_q15.c ****         y2 = _SIMD32_OFFSET(pIn2 + 2u);
 1509              		.loc 1 220 0
 1510 0b0a A023     		mov	r3, #160
 1511 0b0c 0822     		mov	r2, #8
 1512 0b0e 9446     		mov	ip, r2
 1513 0b10 0822     		mov	r2, #8
 1514 0b12 9046     		mov	r8, r2
 1515 0b14 B844     		add	r8, r8, r7
 1516 0b16 C444     		add	ip, ip, r8
 1517 0b18 6344     		add	r3, r3, ip
 1518 0b1a 1B68     		ldr	r3, [r3]
 1519 0b1c 5B68     		ldr	r3, [r3, #4]
 1520 0b1e 8C22     		mov	r2, #140
 1521 0b20 5200     		lsl	r2, r2, #1
 1522 0b22 9021     		mov	r1, #144
 1523 0b24 8C46     		mov	ip, r1
 1524 0b26 0821     		mov	r1, #8
 1525 0b28 8846     		mov	r8, r1
 1526 0b2a 0821     		mov	r1, #8
 1527 0b2c 8946     		mov	r9, r1
 1528 0b2e B944     		add	r9, r9, r7
 1529 0b30 C844     		add	r8, r8, r9
 1530 0b32 C444     		add	ip, ip, r8
 1531 0b34 6244     		add	r2, r2, ip
 1532 0b36 1360     		str	r3, [r2]
 221:Source\FilteringFunctions/arm_conv_partial_opt_q15.c **** 
 222:Source\FilteringFunctions/arm_conv_partial_opt_q15.c ****         /* multiply and accumlate */
 223:Source\FilteringFunctions/arm_conv_partial_opt_q15.c ****         acc0 = __SMLALD(x1, y1, acc0);
 1533              		.loc 1 223 0
 1534 0b38 A223     		mov	r3, #162
 1535 0b3a 5B00     		lsl	r3, r3, #1
 1536 0b3c 9022     		mov	r2, #144
 1537 0b3e 9446     		mov	ip, r2
 1538 0b40 0822     		mov	r2, #8
 1539 0b42 9046     		mov	r8, r2
 1540 0b44 0822     		mov	r2, #8
 1541 0b46 9146     		mov	r9, r2
 1542 0b48 B944     		add	r9, r9, r7
ARM GAS  C:\Users\fneves\AppData\Local\Temp\ccyl4tsw.s 			page 32


 1543 0b4a C844     		add	r8, r8, r9
 1544 0b4c C444     		add	ip, ip, r8
 1545 0b4e 6344     		add	r3, r3, ip
 1546 0b50 1968     		ldr	r1, [r3]
 1547 0b52 8E23     		mov	r3, #142
 1548 0b54 5B00     		lsl	r3, r3, #1
 1549 0b56 9022     		mov	r2, #144
 1550 0b58 9446     		mov	ip, r2
 1551 0b5a 0822     		mov	r2, #8
 1552 0b5c 9046     		mov	r8, r2
 1553 0b5e 0822     		mov	r2, #8
 1554 0b60 9146     		mov	r9, r2
 1555 0b62 B944     		add	r9, r9, r7
 1556 0b64 C844     		add	r8, r8, r9
 1557 0b66 C444     		add	ip, ip, r8
 1558 0b68 6344     		add	r3, r3, ip
 1559 0b6a 1A68     		ldr	r2, [r3]
 1560 0b6c B023     		mov	r3, #176
 1561 0b6e 5B00     		lsl	r3, r3, #1
 1562 0b70 9020     		mov	r0, #144
 1563 0b72 8446     		mov	ip, r0
 1564 0b74 0820     		mov	r0, #8
 1565 0b76 8046     		mov	r8, r0
 1566 0b78 0820     		mov	r0, #8
 1567 0b7a 8146     		mov	r9, r0
 1568 0b7c B944     		add	r9, r9, r7
 1569 0b7e C844     		add	r8, r8, r9
 1570 0b80 C444     		add	ip, ip, r8
 1571 0b82 6344     		add	r3, r3, ip
 1572 0b84 5C68     		ldr	r4, [r3, #4]
 1573 0b86 1B68     		ldr	r3, [r3]
 1574 0b88 BB60     		str	r3, [r7, #8]
 1575 0b8a FC60     		str	r4, [r7, #12]
 1576 0b8c 8820     		mov	r0, #136
 1577 0b8e 4000     		lsl	r0, r0, #1
 1578 0b90 9023     		mov	r3, #144
 1579 0b92 9C46     		mov	ip, r3
 1580 0b94 0823     		mov	r3, #8
 1581 0b96 9846     		mov	r8, r3
 1582 0b98 0823     		mov	r3, #8
 1583 0b9a 9946     		mov	r9, r3
 1584 0b9c B944     		add	r9, r9, r7
 1585 0b9e C844     		add	r8, r8, r9
 1586 0ba0 C444     		add	ip, ip, r8
 1587 0ba2 6044     		add	r0, r0, ip
 1588 0ba4 0160     		str	r1, [r0]
 1589 0ba6 8621     		mov	r1, #134
 1590 0ba8 4900     		lsl	r1, r1, #1
 1591 0baa 9020     		mov	r0, #144
 1592 0bac 8446     		mov	ip, r0
 1593 0bae 0823     		mov	r3, #8
 1594 0bb0 9846     		mov	r8, r3
 1595 0bb2 0823     		mov	r3, #8
 1596 0bb4 9946     		mov	r9, r3
 1597 0bb6 B944     		add	r9, r9, r7
 1598 0bb8 C844     		add	r8, r8, r9
 1599 0bba C444     		add	ip, ip, r8
ARM GAS  C:\Users\fneves\AppData\Local\Temp\ccyl4tsw.s 			page 33


 1600 0bbc 6144     		add	r1, r1, ip
 1601 0bbe 0A60     		str	r2, [r1]
 1602 0bc0 C822     		mov	r2, #200
 1603 0bc2 5200     		lsl	r2, r2, #1
 1604 0bc4 0823     		mov	r3, #8
 1605 0bc6 9C46     		mov	ip, r3
 1606 0bc8 0823     		mov	r3, #8
 1607 0bca 9846     		mov	r8, r3
 1608 0bcc B844     		add	r8, r8, r7
 1609 0bce C444     		add	ip, ip, r8
 1610 0bd0 6244     		add	r2, r2, ip
 1611 0bd2 BB68     		ldr	r3, [r7, #8]
 1612 0bd4 FC68     		ldr	r4, [r7, #12]
 1613 0bd6 1360     		str	r3, [r2]
 1614 0bd8 5460     		str	r4, [r2, #4]
 1615              	.LBB30:
 1616              	.LBB31:
 1617              		.file 2 ".\\Include/arm_math.h"
   1:.\Include/arm_math.h **** /* ----------------------------------------------------------------------
   2:.\Include/arm_math.h ****  * Project:      CMSIS DSP Library
   3:.\Include/arm_math.h ****  * Title:        arm_math.h
   4:.\Include/arm_math.h ****  * Description:  Public header file for CMSIS DSP Library
   5:.\Include/arm_math.h ****  *
   6:.\Include/arm_math.h ****  * $Date:        27. January 2017
   7:.\Include/arm_math.h ****  * $Revision:    V.1.5.1
   8:.\Include/arm_math.h ****  *
   9:.\Include/arm_math.h ****  * Target Processor: Cortex-M cores
  10:.\Include/arm_math.h ****  * -------------------------------------------------------------------- */
  11:.\Include/arm_math.h **** /*
  12:.\Include/arm_math.h ****  * Copyright (C) 2010-2017 ARM Limited or its affiliates. All rights reserved.
  13:.\Include/arm_math.h ****  *
  14:.\Include/arm_math.h ****  * SPDX-License-Identifier: Apache-2.0
  15:.\Include/arm_math.h ****  *
  16:.\Include/arm_math.h ****  * Licensed under the Apache License, Version 2.0 (the License); you may
  17:.\Include/arm_math.h ****  * not use this file except in compliance with the License.
  18:.\Include/arm_math.h ****  * You may obtain a copy of the License at
  19:.\Include/arm_math.h ****  *
  20:.\Include/arm_math.h ****  * www.apache.org/licenses/LICENSE-2.0
  21:.\Include/arm_math.h ****  *
  22:.\Include/arm_math.h ****  * Unless required by applicable law or agreed to in writing, software
  23:.\Include/arm_math.h ****  * distributed under the License is distributed on an AS IS BASIS, WITHOUT
  24:.\Include/arm_math.h ****  * WARRANTIES OR CONDITIONS OF ANY KIND, either express or implied.
  25:.\Include/arm_math.h ****  * See the License for the specific language governing permissions and
  26:.\Include/arm_math.h ****  * limitations under the License.
  27:.\Include/arm_math.h ****  */
  28:.\Include/arm_math.h **** 
  29:.\Include/arm_math.h **** /**
  30:.\Include/arm_math.h ****    \mainpage CMSIS DSP Software Library
  31:.\Include/arm_math.h ****    *
  32:.\Include/arm_math.h ****    * Introduction
  33:.\Include/arm_math.h ****    * ------------
  34:.\Include/arm_math.h ****    *
  35:.\Include/arm_math.h ****    * This user manual describes the CMSIS DSP software library,
  36:.\Include/arm_math.h ****    * a suite of common signal processing functions for use on Cortex-M processor based devices.
  37:.\Include/arm_math.h ****    *
  38:.\Include/arm_math.h ****    * The library is divided into a number of functions each covering a specific category:
  39:.\Include/arm_math.h ****    * - Basic math functions
ARM GAS  C:\Users\fneves\AppData\Local\Temp\ccyl4tsw.s 			page 34


  40:.\Include/arm_math.h ****    * - Fast math functions
  41:.\Include/arm_math.h ****    * - Complex math functions
  42:.\Include/arm_math.h ****    * - Filters
  43:.\Include/arm_math.h ****    * - Matrix functions
  44:.\Include/arm_math.h ****    * - Transforms
  45:.\Include/arm_math.h ****    * - Motor control functions
  46:.\Include/arm_math.h ****    * - Statistical functions
  47:.\Include/arm_math.h ****    * - Support functions
  48:.\Include/arm_math.h ****    * - Interpolation functions
  49:.\Include/arm_math.h ****    *
  50:.\Include/arm_math.h ****    * The library has separate functions for operating on 8-bit integers, 16-bit integers,
  51:.\Include/arm_math.h ****    * 32-bit integer and 32-bit floating-point values.
  52:.\Include/arm_math.h ****    *
  53:.\Include/arm_math.h ****    * Using the Library
  54:.\Include/arm_math.h ****    * ------------
  55:.\Include/arm_math.h ****    *
  56:.\Include/arm_math.h ****    * The library installer contains prebuilt versions of the libraries in the <code>Lib</code> fold
  57:.\Include/arm_math.h ****    * - arm_cortexM7lfdp_math.lib (Cortex-M7, Little endian, Double Precision Floating Point Unit)
  58:.\Include/arm_math.h ****    * - arm_cortexM7bfdp_math.lib (Cortex-M7, Big endian, Double Precision Floating Point Unit)
  59:.\Include/arm_math.h ****    * - arm_cortexM7lfsp_math.lib (Cortex-M7, Little endian, Single Precision Floating Point Unit)
  60:.\Include/arm_math.h ****    * - arm_cortexM7bfsp_math.lib (Cortex-M7, Big endian and Single Precision Floating Point Unit on
  61:.\Include/arm_math.h ****    * - arm_cortexM7l_math.lib (Cortex-M7, Little endian)
  62:.\Include/arm_math.h ****    * - arm_cortexM7b_math.lib (Cortex-M7, Big endian)
  63:.\Include/arm_math.h ****    * - arm_cortexM4lf_math.lib (Cortex-M4, Little endian, Floating Point Unit)
  64:.\Include/arm_math.h ****    * - arm_cortexM4bf_math.lib (Cortex-M4, Big endian, Floating Point Unit)
  65:.\Include/arm_math.h ****    * - arm_cortexM4l_math.lib (Cortex-M4, Little endian)
  66:.\Include/arm_math.h ****    * - arm_cortexM4b_math.lib (Cortex-M4, Big endian)
  67:.\Include/arm_math.h ****    * - arm_cortexM3l_math.lib (Cortex-M3, Little endian)
  68:.\Include/arm_math.h ****    * - arm_cortexM3b_math.lib (Cortex-M3, Big endian)
  69:.\Include/arm_math.h ****    * - arm_cortexM0l_math.lib (Cortex-M0 / Cortex-M0+, Little endian)
  70:.\Include/arm_math.h ****    * - arm_cortexM0b_math.lib (Cortex-M0 / Cortex-M0+, Big endian)
  71:.\Include/arm_math.h ****    * - arm_ARMv8MBLl_math.lib (ARMv8M Baseline, Little endian)
  72:.\Include/arm_math.h ****    * - arm_ARMv8MMLl_math.lib (ARMv8M Mainline, Little endian)
  73:.\Include/arm_math.h ****    * - arm_ARMv8MMLlfsp_math.lib (ARMv8M Mainline, Little endian, Single Precision Floating Point U
  74:.\Include/arm_math.h ****    * - arm_ARMv8MMLld_math.lib (ARMv8M Mainline, Little endian, DSP instructions)
  75:.\Include/arm_math.h ****    * - arm_ARMv8MMLldfsp_math.lib (ARMv8M Mainline, Little endian, DSP instructions, Single Precisi
  76:.\Include/arm_math.h ****    *
  77:.\Include/arm_math.h ****    * The library functions are declared in the public file <code>arm_math.h</code> which is placed 
  78:.\Include/arm_math.h ****    * Simply include this file and link the appropriate library in the application and begin calling
  79:.\Include/arm_math.h ****    * public header file <code> arm_math.h</code> for Cortex-M cores with little endian and big endi
  80:.\Include/arm_math.h ****    * Define the appropriate pre processor MACRO ARM_MATH_CM7 or ARM_MATH_CM4 or  ARM_MATH_CM3 or
  81:.\Include/arm_math.h ****    * ARM_MATH_CM0 or ARM_MATH_CM0PLUS depending on the target processor in the application.
  82:.\Include/arm_math.h ****    * For ARMv8M cores define pre processor MACRO ARM_MATH_ARMV8MBL or ARM_MATH_ARMV8MML.
  83:.\Include/arm_math.h ****    * Set Pre processor MACRO __DSP_PRESENT if ARMv8M Mainline core supports DSP instructions.
  84:.\Include/arm_math.h ****    * 
  85:.\Include/arm_math.h ****    *
  86:.\Include/arm_math.h ****    * Examples
  87:.\Include/arm_math.h ****    * --------
  88:.\Include/arm_math.h ****    *
  89:.\Include/arm_math.h ****    * The library ships with a number of examples which demonstrate how to use the library functions
  90:.\Include/arm_math.h ****    *
  91:.\Include/arm_math.h ****    * Toolchain Support
  92:.\Include/arm_math.h ****    * ------------
  93:.\Include/arm_math.h ****    *
  94:.\Include/arm_math.h ****    * The library has been developed and tested with MDK-ARM version 5.14.0.0
  95:.\Include/arm_math.h ****    * The library is being tested in GCC and IAR toolchains and updates on this activity will be mad
  96:.\Include/arm_math.h ****    *
ARM GAS  C:\Users\fneves\AppData\Local\Temp\ccyl4tsw.s 			page 35


  97:.\Include/arm_math.h ****    * Building the Library
  98:.\Include/arm_math.h ****    * ------------
  99:.\Include/arm_math.h ****    *
 100:.\Include/arm_math.h ****    * The library installer contains a project file to re build libraries on MDK-ARM Tool chain in t
 101:.\Include/arm_math.h ****    * - arm_cortexM_math.uvprojx
 102:.\Include/arm_math.h ****    *
 103:.\Include/arm_math.h ****    *
 104:.\Include/arm_math.h ****    * The libraries can be built by opening the arm_cortexM_math.uvprojx project in MDK-ARM, selecti
 105:.\Include/arm_math.h ****    *
 106:.\Include/arm_math.h ****    * Pre-processor Macros
 107:.\Include/arm_math.h ****    * ------------
 108:.\Include/arm_math.h ****    *
 109:.\Include/arm_math.h ****    * Each library project have differant pre-processor macros.
 110:.\Include/arm_math.h ****    *
 111:.\Include/arm_math.h ****    * - UNALIGNED_SUPPORT_DISABLE:
 112:.\Include/arm_math.h ****    *
 113:.\Include/arm_math.h ****    * Define macro UNALIGNED_SUPPORT_DISABLE, If the silicon does not support unaligned memory acces
 114:.\Include/arm_math.h ****    *
 115:.\Include/arm_math.h ****    * - ARM_MATH_BIG_ENDIAN:
 116:.\Include/arm_math.h ****    *
 117:.\Include/arm_math.h ****    * Define macro ARM_MATH_BIG_ENDIAN to build the library for big endian targets. By default libra
 118:.\Include/arm_math.h ****    *
 119:.\Include/arm_math.h ****    * - ARM_MATH_MATRIX_CHECK:
 120:.\Include/arm_math.h ****    *
 121:.\Include/arm_math.h ****    * Define macro ARM_MATH_MATRIX_CHECK for checking on the input and output sizes of matrices
 122:.\Include/arm_math.h ****    *
 123:.\Include/arm_math.h ****    * - ARM_MATH_ROUNDING:
 124:.\Include/arm_math.h ****    *
 125:.\Include/arm_math.h ****    * Define macro ARM_MATH_ROUNDING for rounding on support functions
 126:.\Include/arm_math.h ****    *
 127:.\Include/arm_math.h ****    * - ARM_MATH_CMx:
 128:.\Include/arm_math.h ****    *
 129:.\Include/arm_math.h ****    * Define macro ARM_MATH_CM4 for building the library on Cortex-M4 target, ARM_MATH_CM3 for build
 130:.\Include/arm_math.h ****    * and ARM_MATH_CM0 for building library on Cortex-M0 target, ARM_MATH_CM0PLUS for building libra
 131:.\Include/arm_math.h ****    * ARM_MATH_CM7 for building the library on cortex-M7.
 132:.\Include/arm_math.h ****    *
 133:.\Include/arm_math.h ****    * - ARM_MATH_ARMV8MxL:
 134:.\Include/arm_math.h ****    *
 135:.\Include/arm_math.h ****    * Define macro ARM_MATH_ARMV8MBL for building the library on ARMv8M Baseline target, ARM_MATH_AR
 136:.\Include/arm_math.h ****    * on ARMv8M Mainline target.
 137:.\Include/arm_math.h ****    *
 138:.\Include/arm_math.h ****    * - __FPU_PRESENT:
 139:.\Include/arm_math.h ****    *
 140:.\Include/arm_math.h ****    * Initialize macro __FPU_PRESENT = 1 when building on FPU supported Targets. Enable this macro f
 141:.\Include/arm_math.h ****    *
 142:.\Include/arm_math.h ****    * - __DSP_PRESENT:
 143:.\Include/arm_math.h ****    *
 144:.\Include/arm_math.h ****    * Initialize macro __DSP_PRESENT = 1 when ARMv8M Mainline core supports DSP instructions.
 145:.\Include/arm_math.h ****    *
 146:.\Include/arm_math.h ****    * <hr>
 147:.\Include/arm_math.h ****    * CMSIS-DSP in ARM::CMSIS Pack
 148:.\Include/arm_math.h ****    * -----------------------------
 149:.\Include/arm_math.h ****    *
 150:.\Include/arm_math.h ****    * The following files relevant to CMSIS-DSP are present in the <b>ARM::CMSIS</b> Pack directorie
 151:.\Include/arm_math.h ****    * |File/Folder                   |Content                                                       
 152:.\Include/arm_math.h ****    * |------------------------------|--------------------------------------------------------------
 153:.\Include/arm_math.h ****    * |\b CMSIS\\Documentation\\DSP  | This documentation                                           
ARM GAS  C:\Users\fneves\AppData\Local\Temp\ccyl4tsw.s 			page 36


 154:.\Include/arm_math.h ****    * |\b CMSIS\\DSP_Lib             | Software license agreement (license.txt)                     
 155:.\Include/arm_math.h ****    * |\b CMSIS\\DSP_Lib\\Examples   | Example projects demonstrating the usage of the library funct
 156:.\Include/arm_math.h ****    * |\b CMSIS\\DSP_Lib\\Source     | Source files for rebuilding the library                      
 157:.\Include/arm_math.h ****    *
 158:.\Include/arm_math.h ****    * <hr>
 159:.\Include/arm_math.h ****    * Revision History of CMSIS-DSP
 160:.\Include/arm_math.h ****    * ------------
 161:.\Include/arm_math.h ****    * Please refer to \ref ChangeLog_pg.
 162:.\Include/arm_math.h ****    *
 163:.\Include/arm_math.h ****    * Copyright Notice
 164:.\Include/arm_math.h ****    * ------------
 165:.\Include/arm_math.h ****    *
 166:.\Include/arm_math.h ****    * Copyright (C) 2010-2015 ARM Limited. All rights reserved.
 167:.\Include/arm_math.h ****    */
 168:.\Include/arm_math.h **** 
 169:.\Include/arm_math.h **** 
 170:.\Include/arm_math.h **** /**
 171:.\Include/arm_math.h ****  * @defgroup groupMath Basic Math Functions
 172:.\Include/arm_math.h ****  */
 173:.\Include/arm_math.h **** 
 174:.\Include/arm_math.h **** /**
 175:.\Include/arm_math.h ****  * @defgroup groupFastMath Fast Math Functions
 176:.\Include/arm_math.h ****  * This set of functions provides a fast approximation to sine, cosine, and square root.
 177:.\Include/arm_math.h ****  * As compared to most of the other functions in the CMSIS math library, the fast math functions
 178:.\Include/arm_math.h ****  * operate on individual values and not arrays.
 179:.\Include/arm_math.h ****  * There are separate functions for Q15, Q31, and floating-point data.
 180:.\Include/arm_math.h ****  *
 181:.\Include/arm_math.h ****  */
 182:.\Include/arm_math.h **** 
 183:.\Include/arm_math.h **** /**
 184:.\Include/arm_math.h ****  * @defgroup groupCmplxMath Complex Math Functions
 185:.\Include/arm_math.h ****  * This set of functions operates on complex data vectors.
 186:.\Include/arm_math.h ****  * The data in the complex arrays is stored in an interleaved fashion
 187:.\Include/arm_math.h ****  * (real, imag, real, imag, ...).
 188:.\Include/arm_math.h ****  * In the API functions, the number of samples in a complex array refers
 189:.\Include/arm_math.h ****  * to the number of complex values; the array contains twice this number of
 190:.\Include/arm_math.h ****  * real values.
 191:.\Include/arm_math.h ****  */
 192:.\Include/arm_math.h **** 
 193:.\Include/arm_math.h **** /**
 194:.\Include/arm_math.h ****  * @defgroup groupFilters Filtering Functions
 195:.\Include/arm_math.h ****  */
 196:.\Include/arm_math.h **** 
 197:.\Include/arm_math.h **** /**
 198:.\Include/arm_math.h ****  * @defgroup groupMatrix Matrix Functions
 199:.\Include/arm_math.h ****  *
 200:.\Include/arm_math.h ****  * This set of functions provides basic matrix math operations.
 201:.\Include/arm_math.h ****  * The functions operate on matrix data structures.  For example,
 202:.\Include/arm_math.h ****  * the type
 203:.\Include/arm_math.h ****  * definition for the floating-point matrix structure is shown
 204:.\Include/arm_math.h ****  * below:
 205:.\Include/arm_math.h ****  * <pre>
 206:.\Include/arm_math.h ****  *     typedef struct
 207:.\Include/arm_math.h ****  *     {
 208:.\Include/arm_math.h ****  *       uint16_t numRows;     // number of rows of the matrix.
 209:.\Include/arm_math.h ****  *       uint16_t numCols;     // number of columns of the matrix.
 210:.\Include/arm_math.h ****  *       float32_t *pData;     // points to the data of the matrix.
ARM GAS  C:\Users\fneves\AppData\Local\Temp\ccyl4tsw.s 			page 37


 211:.\Include/arm_math.h ****  *     } arm_matrix_instance_f32;
 212:.\Include/arm_math.h ****  * </pre>
 213:.\Include/arm_math.h ****  * There are similar definitions for Q15 and Q31 data types.
 214:.\Include/arm_math.h ****  *
 215:.\Include/arm_math.h ****  * The structure specifies the size of the matrix and then points to
 216:.\Include/arm_math.h ****  * an array of data.  The array is of size <code>numRows X numCols</code>
 217:.\Include/arm_math.h ****  * and the values are arranged in row order.  That is, the
 218:.\Include/arm_math.h ****  * matrix element (i, j) is stored at:
 219:.\Include/arm_math.h ****  * <pre>
 220:.\Include/arm_math.h ****  *     pData[i*numCols + j]
 221:.\Include/arm_math.h ****  * </pre>
 222:.\Include/arm_math.h ****  *
 223:.\Include/arm_math.h ****  * \par Init Functions
 224:.\Include/arm_math.h ****  * There is an associated initialization function for each type of matrix
 225:.\Include/arm_math.h ****  * data structure.
 226:.\Include/arm_math.h ****  * The initialization function sets the values of the internal structure fields.
 227:.\Include/arm_math.h ****  * Refer to the function <code>arm_mat_init_f32()</code>, <code>arm_mat_init_q31()</code>
 228:.\Include/arm_math.h ****  * and <code>arm_mat_init_q15()</code> for floating-point, Q31 and Q15 types,  respectively.
 229:.\Include/arm_math.h ****  *
 230:.\Include/arm_math.h ****  * \par
 231:.\Include/arm_math.h ****  * Use of the initialization function is optional. However, if initialization function is used
 232:.\Include/arm_math.h ****  * then the instance structure cannot be placed into a const data section.
 233:.\Include/arm_math.h ****  * To place the instance structure in a const data
 234:.\Include/arm_math.h ****  * section, manually initialize the data structure.  For example:
 235:.\Include/arm_math.h ****  * <pre>
 236:.\Include/arm_math.h ****  * <code>arm_matrix_instance_f32 S = {nRows, nColumns, pData};</code>
 237:.\Include/arm_math.h ****  * <code>arm_matrix_instance_q31 S = {nRows, nColumns, pData};</code>
 238:.\Include/arm_math.h ****  * <code>arm_matrix_instance_q15 S = {nRows, nColumns, pData};</code>
 239:.\Include/arm_math.h ****  * </pre>
 240:.\Include/arm_math.h ****  * where <code>nRows</code> specifies the number of rows, <code>nColumns</code>
 241:.\Include/arm_math.h ****  * specifies the number of columns, and <code>pData</code> points to the
 242:.\Include/arm_math.h ****  * data array.
 243:.\Include/arm_math.h ****  *
 244:.\Include/arm_math.h ****  * \par Size Checking
 245:.\Include/arm_math.h ****  * By default all of the matrix functions perform size checking on the input and
 246:.\Include/arm_math.h ****  * output matrices.  For example, the matrix addition function verifies that the
 247:.\Include/arm_math.h ****  * two input matrices and the output matrix all have the same number of rows and
 248:.\Include/arm_math.h ****  * columns.  If the size check fails the functions return:
 249:.\Include/arm_math.h ****  * <pre>
 250:.\Include/arm_math.h ****  *     ARM_MATH_SIZE_MISMATCH
 251:.\Include/arm_math.h ****  * </pre>
 252:.\Include/arm_math.h ****  * Otherwise the functions return
 253:.\Include/arm_math.h ****  * <pre>
 254:.\Include/arm_math.h ****  *     ARM_MATH_SUCCESS
 255:.\Include/arm_math.h ****  * </pre>
 256:.\Include/arm_math.h ****  * There is some overhead associated with this matrix size checking.
 257:.\Include/arm_math.h ****  * The matrix size checking is enabled via the \#define
 258:.\Include/arm_math.h ****  * <pre>
 259:.\Include/arm_math.h ****  *     ARM_MATH_MATRIX_CHECK
 260:.\Include/arm_math.h ****  * </pre>
 261:.\Include/arm_math.h ****  * within the library project settings.  By default this macro is defined
 262:.\Include/arm_math.h ****  * and size checking is enabled.  By changing the project settings and
 263:.\Include/arm_math.h ****  * undefining this macro size checking is eliminated and the functions
 264:.\Include/arm_math.h ****  * run a bit faster.  With size checking disabled the functions always
 265:.\Include/arm_math.h ****  * return <code>ARM_MATH_SUCCESS</code>.
 266:.\Include/arm_math.h ****  */
 267:.\Include/arm_math.h **** 
ARM GAS  C:\Users\fneves\AppData\Local\Temp\ccyl4tsw.s 			page 38


 268:.\Include/arm_math.h **** /**
 269:.\Include/arm_math.h ****  * @defgroup groupTransforms Transform Functions
 270:.\Include/arm_math.h ****  */
 271:.\Include/arm_math.h **** 
 272:.\Include/arm_math.h **** /**
 273:.\Include/arm_math.h ****  * @defgroup groupController Controller Functions
 274:.\Include/arm_math.h ****  */
 275:.\Include/arm_math.h **** 
 276:.\Include/arm_math.h **** /**
 277:.\Include/arm_math.h ****  * @defgroup groupStats Statistics Functions
 278:.\Include/arm_math.h ****  */
 279:.\Include/arm_math.h **** /**
 280:.\Include/arm_math.h ****  * @defgroup groupSupport Support Functions
 281:.\Include/arm_math.h ****  */
 282:.\Include/arm_math.h **** 
 283:.\Include/arm_math.h **** /**
 284:.\Include/arm_math.h ****  * @defgroup groupInterpolation Interpolation Functions
 285:.\Include/arm_math.h ****  * These functions perform 1- and 2-dimensional interpolation of data.
 286:.\Include/arm_math.h ****  * Linear interpolation is used for 1-dimensional data and
 287:.\Include/arm_math.h ****  * bilinear interpolation is used for 2-dimensional data.
 288:.\Include/arm_math.h ****  */
 289:.\Include/arm_math.h **** 
 290:.\Include/arm_math.h **** /**
 291:.\Include/arm_math.h ****  * @defgroup groupExamples Examples
 292:.\Include/arm_math.h ****  */
 293:.\Include/arm_math.h **** #ifndef _ARM_MATH_H
 294:.\Include/arm_math.h **** #define _ARM_MATH_H
 295:.\Include/arm_math.h **** 
 296:.\Include/arm_math.h **** /* ignore some GCC warnings */
 297:.\Include/arm_math.h **** #if defined ( __GNUC__ )
 298:.\Include/arm_math.h **** #pragma GCC diagnostic push
 299:.\Include/arm_math.h **** #pragma GCC diagnostic ignored "-Wsign-conversion"
 300:.\Include/arm_math.h **** #pragma GCC diagnostic ignored "-Wconversion"
 301:.\Include/arm_math.h **** #pragma GCC diagnostic ignored "-Wunused-parameter"
 302:.\Include/arm_math.h **** #endif
 303:.\Include/arm_math.h **** 
 304:.\Include/arm_math.h **** #define __CMSIS_GENERIC         /* disable NVIC and Systick functions */
 305:.\Include/arm_math.h **** 
 306:.\Include/arm_math.h **** #if defined(ARM_MATH_CM7)
 307:.\Include/arm_math.h ****   #include "core_cm7.h"
 308:.\Include/arm_math.h ****   #define ARM_MATH_DSP
 309:.\Include/arm_math.h **** #elif defined (ARM_MATH_CM4)
 310:.\Include/arm_math.h ****   #include "core_cm4.h"
 311:.\Include/arm_math.h ****   #define ARM_MATH_DSP
 312:.\Include/arm_math.h **** #elif defined (ARM_MATH_CM3)
 313:.\Include/arm_math.h ****   #include "core_cm3.h"
 314:.\Include/arm_math.h **** #elif defined (ARM_MATH_CM0)
 315:.\Include/arm_math.h ****   #include "core_cm0.h"
 316:.\Include/arm_math.h ****   #define ARM_MATH_CM0_FAMILY
 317:.\Include/arm_math.h **** #elif defined (ARM_MATH_CM0PLUS)
 318:.\Include/arm_math.h ****   #include "core_cm0plus.h"
 319:.\Include/arm_math.h ****   #define ARM_MATH_CM0_FAMILY
 320:.\Include/arm_math.h **** #elif defined (ARM_MATH_ARMV8MBL)
 321:.\Include/arm_math.h ****   #include "core_armv8mbl.h"
 322:.\Include/arm_math.h ****   #define ARM_MATH_CM0_FAMILY
 323:.\Include/arm_math.h **** #elif defined (ARM_MATH_ARMV8MML)
 324:.\Include/arm_math.h ****   #include "core_armv8mml.h"
ARM GAS  C:\Users\fneves\AppData\Local\Temp\ccyl4tsw.s 			page 39


 325:.\Include/arm_math.h ****   #if (defined (__DSP_PRESENT) && (__DSP_PRESENT == 1))
 326:.\Include/arm_math.h ****     #define ARM_MATH_DSP
 327:.\Include/arm_math.h ****   #endif
 328:.\Include/arm_math.h **** #else
 329:.\Include/arm_math.h ****   #error "Define according the used Cortex core ARM_MATH_CM7, ARM_MATH_CM4, ARM_MATH_CM3, ARM_MATH_
 330:.\Include/arm_math.h **** #endif
 331:.\Include/arm_math.h **** 
 332:.\Include/arm_math.h **** #undef  __CMSIS_GENERIC         /* enable NVIC and Systick functions */
 333:.\Include/arm_math.h **** #include "string.h"
 334:.\Include/arm_math.h **** #include "math.h"
 335:.\Include/arm_math.h **** #ifdef   __cplusplus
 336:.\Include/arm_math.h **** extern "C"
 337:.\Include/arm_math.h **** {
 338:.\Include/arm_math.h **** #endif
 339:.\Include/arm_math.h **** 
 340:.\Include/arm_math.h **** 
 341:.\Include/arm_math.h ****   /**
 342:.\Include/arm_math.h ****    * @brief Macros required for reciprocal calculation in Normalized LMS
 343:.\Include/arm_math.h ****    */
 344:.\Include/arm_math.h **** 
 345:.\Include/arm_math.h **** #define DELTA_Q31          (0x100)
 346:.\Include/arm_math.h **** #define DELTA_Q15          0x5
 347:.\Include/arm_math.h **** #define INDEX_MASK         0x0000003F
 348:.\Include/arm_math.h **** #ifndef PI
 349:.\Include/arm_math.h ****   #define PI               3.14159265358979f
 350:.\Include/arm_math.h **** #endif
 351:.\Include/arm_math.h **** 
 352:.\Include/arm_math.h ****   /**
 353:.\Include/arm_math.h ****    * @brief Macros required for SINE and COSINE Fast math approximations
 354:.\Include/arm_math.h ****    */
 355:.\Include/arm_math.h **** 
 356:.\Include/arm_math.h **** #define FAST_MATH_TABLE_SIZE  512
 357:.\Include/arm_math.h **** #define FAST_MATH_Q31_SHIFT   (32 - 10)
 358:.\Include/arm_math.h **** #define FAST_MATH_Q15_SHIFT   (16 - 10)
 359:.\Include/arm_math.h **** #define CONTROLLER_Q31_SHIFT  (32 - 9)
 360:.\Include/arm_math.h **** #define TABLE_SPACING_Q31     0x400000
 361:.\Include/arm_math.h **** #define TABLE_SPACING_Q15     0x80
 362:.\Include/arm_math.h **** 
 363:.\Include/arm_math.h ****   /**
 364:.\Include/arm_math.h ****    * @brief Macros required for SINE and COSINE Controller functions
 365:.\Include/arm_math.h ****    */
 366:.\Include/arm_math.h ****   /* 1.31(q31) Fixed value of 2/360 */
 367:.\Include/arm_math.h ****   /* -1 to +1 is divided into 360 values so total spacing is (2/360) */
 368:.\Include/arm_math.h **** #define INPUT_SPACING         0xB60B61
 369:.\Include/arm_math.h **** 
 370:.\Include/arm_math.h ****   /**
 371:.\Include/arm_math.h ****    * @brief Macro for Unaligned Support
 372:.\Include/arm_math.h ****    */
 373:.\Include/arm_math.h **** #ifndef UNALIGNED_SUPPORT_DISABLE
 374:.\Include/arm_math.h ****     #define ALIGN4
 375:.\Include/arm_math.h **** #else
 376:.\Include/arm_math.h ****   #if defined  (__GNUC__)
 377:.\Include/arm_math.h ****     #define ALIGN4 __attribute__((aligned(4)))
 378:.\Include/arm_math.h ****   #else
 379:.\Include/arm_math.h ****     #define ALIGN4 __align(4)
 380:.\Include/arm_math.h ****   #endif
 381:.\Include/arm_math.h **** #endif   /* #ifndef UNALIGNED_SUPPORT_DISABLE */
ARM GAS  C:\Users\fneves\AppData\Local\Temp\ccyl4tsw.s 			page 40


 382:.\Include/arm_math.h **** 
 383:.\Include/arm_math.h ****   /**
 384:.\Include/arm_math.h ****    * @brief Error status returned by some functions in the library.
 385:.\Include/arm_math.h ****    */
 386:.\Include/arm_math.h **** 
 387:.\Include/arm_math.h ****   typedef enum
 388:.\Include/arm_math.h ****   {
 389:.\Include/arm_math.h ****     ARM_MATH_SUCCESS = 0,                /**< No error */
 390:.\Include/arm_math.h ****     ARM_MATH_ARGUMENT_ERROR = -1,        /**< One or more arguments are incorrect */
 391:.\Include/arm_math.h ****     ARM_MATH_LENGTH_ERROR = -2,          /**< Length of data buffer is incorrect */
 392:.\Include/arm_math.h ****     ARM_MATH_SIZE_MISMATCH = -3,         /**< Size of matrices is not compatible with the operation
 393:.\Include/arm_math.h ****     ARM_MATH_NANINF = -4,                /**< Not-a-number (NaN) or infinity is generated */
 394:.\Include/arm_math.h ****     ARM_MATH_SINGULAR = -5,              /**< Generated by matrix inversion if the input matrix is 
 395:.\Include/arm_math.h ****     ARM_MATH_TEST_FAILURE = -6           /**< Test Failed  */
 396:.\Include/arm_math.h ****   } arm_status;
 397:.\Include/arm_math.h **** 
 398:.\Include/arm_math.h ****   /**
 399:.\Include/arm_math.h ****    * @brief 8-bit fractional data type in 1.7 format.
 400:.\Include/arm_math.h ****    */
 401:.\Include/arm_math.h ****   typedef int8_t q7_t;
 402:.\Include/arm_math.h **** 
 403:.\Include/arm_math.h ****   /**
 404:.\Include/arm_math.h ****    * @brief 16-bit fractional data type in 1.15 format.
 405:.\Include/arm_math.h ****    */
 406:.\Include/arm_math.h ****   typedef int16_t q15_t;
 407:.\Include/arm_math.h **** 
 408:.\Include/arm_math.h ****   /**
 409:.\Include/arm_math.h ****    * @brief 32-bit fractional data type in 1.31 format.
 410:.\Include/arm_math.h ****    */
 411:.\Include/arm_math.h ****   typedef int32_t q31_t;
 412:.\Include/arm_math.h **** 
 413:.\Include/arm_math.h ****   /**
 414:.\Include/arm_math.h ****    * @brief 64-bit fractional data type in 1.63 format.
 415:.\Include/arm_math.h ****    */
 416:.\Include/arm_math.h ****   typedef int64_t q63_t;
 417:.\Include/arm_math.h **** 
 418:.\Include/arm_math.h ****   /**
 419:.\Include/arm_math.h ****    * @brief 32-bit floating-point type definition.
 420:.\Include/arm_math.h ****    */
 421:.\Include/arm_math.h ****   typedef float float32_t;
 422:.\Include/arm_math.h **** 
 423:.\Include/arm_math.h ****   /**
 424:.\Include/arm_math.h ****    * @brief 64-bit floating-point type definition.
 425:.\Include/arm_math.h ****    */
 426:.\Include/arm_math.h ****   typedef double float64_t;
 427:.\Include/arm_math.h **** 
 428:.\Include/arm_math.h ****   /**
 429:.\Include/arm_math.h ****    * @brief definition to read/write two 16 bit values.
 430:.\Include/arm_math.h ****    */
 431:.\Include/arm_math.h **** #if   defined ( __CC_ARM )
 432:.\Include/arm_math.h ****   #define __SIMD32_TYPE int32_t __packed
 433:.\Include/arm_math.h ****   #define CMSIS_UNUSED __attribute__((unused))
 434:.\Include/arm_math.h ****   #define CMSIS_INLINE __attribute__((always_inline))
 435:.\Include/arm_math.h **** 
 436:.\Include/arm_math.h **** #elif defined ( __ARMCC_VERSION ) && ( __ARMCC_VERSION >= 6010050 )
 437:.\Include/arm_math.h ****   #define __SIMD32_TYPE int32_t
 438:.\Include/arm_math.h ****   #define CMSIS_UNUSED __attribute__((unused))
ARM GAS  C:\Users\fneves\AppData\Local\Temp\ccyl4tsw.s 			page 41


 439:.\Include/arm_math.h ****   #define CMSIS_INLINE __attribute__((always_inline))
 440:.\Include/arm_math.h **** 
 441:.\Include/arm_math.h **** #elif defined ( __GNUC__ )
 442:.\Include/arm_math.h ****   #define __SIMD32_TYPE int32_t
 443:.\Include/arm_math.h ****   #define CMSIS_UNUSED __attribute__((unused))
 444:.\Include/arm_math.h ****   #define CMSIS_INLINE __attribute__((always_inline))
 445:.\Include/arm_math.h **** 
 446:.\Include/arm_math.h **** #elif defined ( __ICCARM__ )
 447:.\Include/arm_math.h ****   #define __SIMD32_TYPE int32_t __packed
 448:.\Include/arm_math.h ****   #define CMSIS_UNUSED
 449:.\Include/arm_math.h ****   #define CMSIS_INLINE
 450:.\Include/arm_math.h **** 
 451:.\Include/arm_math.h **** #elif defined ( __TI_ARM__ )
 452:.\Include/arm_math.h ****   #define __SIMD32_TYPE int32_t
 453:.\Include/arm_math.h ****   #define CMSIS_UNUSED __attribute__((unused))
 454:.\Include/arm_math.h ****   #define CMSIS_INLINE
 455:.\Include/arm_math.h **** 
 456:.\Include/arm_math.h **** #elif defined ( __CSMC__ )
 457:.\Include/arm_math.h ****   #define __SIMD32_TYPE int32_t
 458:.\Include/arm_math.h ****   #define CMSIS_UNUSED
 459:.\Include/arm_math.h ****   #define CMSIS_INLINE
 460:.\Include/arm_math.h **** 
 461:.\Include/arm_math.h **** #elif defined ( __TASKING__ )
 462:.\Include/arm_math.h ****   #define __SIMD32_TYPE __unaligned int32_t
 463:.\Include/arm_math.h ****   #define CMSIS_UNUSED
 464:.\Include/arm_math.h ****   #define CMSIS_INLINE
 465:.\Include/arm_math.h **** 
 466:.\Include/arm_math.h **** #else
 467:.\Include/arm_math.h ****   #error Unknown compiler
 468:.\Include/arm_math.h **** #endif
 469:.\Include/arm_math.h **** 
 470:.\Include/arm_math.h **** #define __SIMD32(addr)        (*(__SIMD32_TYPE **) & (addr))
 471:.\Include/arm_math.h **** #define __SIMD32_CONST(addr)  ((__SIMD32_TYPE *)(addr))
 472:.\Include/arm_math.h **** #define _SIMD32_OFFSET(addr)  (*(__SIMD32_TYPE *)  (addr))
 473:.\Include/arm_math.h **** #define __SIMD64(addr)        (*(int64_t **) & (addr))
 474:.\Include/arm_math.h **** 
 475:.\Include/arm_math.h **** /* #if defined (ARM_MATH_CM3) || defined (ARM_MATH_CM0_FAMILY) */
 476:.\Include/arm_math.h **** #if !defined (ARM_MATH_DSP)
 477:.\Include/arm_math.h ****   /**
 478:.\Include/arm_math.h ****    * @brief definition to pack two 16 bit values.
 479:.\Include/arm_math.h ****    */
 480:.\Include/arm_math.h **** #define __PKHBT(ARG1, ARG2, ARG3) ( (((int32_t)(ARG1) <<    0) & (int32_t)0x0000FFFF) | \
 481:.\Include/arm_math.h ****                                     (((int32_t)(ARG2) << ARG3) & (int32_t)0xFFFF0000)  )
 482:.\Include/arm_math.h **** #define __PKHTB(ARG1, ARG2, ARG3) ( (((int32_t)(ARG1) <<    0) & (int32_t)0xFFFF0000) | \
 483:.\Include/arm_math.h ****                                     (((int32_t)(ARG2) >> ARG3) & (int32_t)0x0000FFFF)  )
 484:.\Include/arm_math.h **** 
 485:.\Include/arm_math.h **** /* #endif // defined (ARM_MATH_CM3) || defined (ARM_MATH_CM0_FAMILY) */
 486:.\Include/arm_math.h **** #endif /* !defined (ARM_MATH_DSP) */
 487:.\Include/arm_math.h **** 
 488:.\Include/arm_math.h ****    /**
 489:.\Include/arm_math.h ****    * @brief definition to pack four 8 bit values.
 490:.\Include/arm_math.h ****    */
 491:.\Include/arm_math.h **** #ifndef ARM_MATH_BIG_ENDIAN
 492:.\Include/arm_math.h **** 
 493:.\Include/arm_math.h **** #define __PACKq7(v0,v1,v2,v3) ( (((int32_t)(v0) <<  0) & (int32_t)0x000000FF) | \
 494:.\Include/arm_math.h ****                                 (((int32_t)(v1) <<  8) & (int32_t)0x0000FF00) | \
 495:.\Include/arm_math.h ****                                 (((int32_t)(v2) << 16) & (int32_t)0x00FF0000) | \
ARM GAS  C:\Users\fneves\AppData\Local\Temp\ccyl4tsw.s 			page 42


 496:.\Include/arm_math.h ****                                 (((int32_t)(v3) << 24) & (int32_t)0xFF000000)  )
 497:.\Include/arm_math.h **** #else
 498:.\Include/arm_math.h **** 
 499:.\Include/arm_math.h **** #define __PACKq7(v0,v1,v2,v3) ( (((int32_t)(v3) <<  0) & (int32_t)0x000000FF) | \
 500:.\Include/arm_math.h ****                                 (((int32_t)(v2) <<  8) & (int32_t)0x0000FF00) | \
 501:.\Include/arm_math.h ****                                 (((int32_t)(v1) << 16) & (int32_t)0x00FF0000) | \
 502:.\Include/arm_math.h ****                                 (((int32_t)(v0) << 24) & (int32_t)0xFF000000)  )
 503:.\Include/arm_math.h **** 
 504:.\Include/arm_math.h **** #endif
 505:.\Include/arm_math.h **** 
 506:.\Include/arm_math.h **** 
 507:.\Include/arm_math.h ****   /**
 508:.\Include/arm_math.h ****    * @brief Clips Q63 to Q31 values.
 509:.\Include/arm_math.h ****    */
 510:.\Include/arm_math.h ****   CMSIS_INLINE __STATIC_INLINE q31_t clip_q63_to_q31(
 511:.\Include/arm_math.h ****   q63_t x)
 512:.\Include/arm_math.h ****   {
 513:.\Include/arm_math.h ****     return ((q31_t) (x >> 32) != ((q31_t) x >> 31)) ?
 514:.\Include/arm_math.h ****       ((0x7FFFFFFF ^ ((q31_t) (x >> 63)))) : (q31_t) x;
 515:.\Include/arm_math.h ****   }
 516:.\Include/arm_math.h **** 
 517:.\Include/arm_math.h ****   /**
 518:.\Include/arm_math.h ****    * @brief Clips Q63 to Q15 values.
 519:.\Include/arm_math.h ****    */
 520:.\Include/arm_math.h ****   CMSIS_INLINE __STATIC_INLINE q15_t clip_q63_to_q15(
 521:.\Include/arm_math.h ****   q63_t x)
 522:.\Include/arm_math.h ****   {
 523:.\Include/arm_math.h ****     return ((q31_t) (x >> 32) != ((q31_t) x >> 31)) ?
 524:.\Include/arm_math.h ****       ((0x7FFF ^ ((q15_t) (x >> 63)))) : (q15_t) (x >> 15);
 525:.\Include/arm_math.h ****   }
 526:.\Include/arm_math.h **** 
 527:.\Include/arm_math.h ****   /**
 528:.\Include/arm_math.h ****    * @brief Clips Q31 to Q7 values.
 529:.\Include/arm_math.h ****    */
 530:.\Include/arm_math.h ****   CMSIS_INLINE __STATIC_INLINE q7_t clip_q31_to_q7(
 531:.\Include/arm_math.h ****   q31_t x)
 532:.\Include/arm_math.h ****   {
 533:.\Include/arm_math.h ****     return ((q31_t) (x >> 24) != ((q31_t) x >> 23)) ?
 534:.\Include/arm_math.h ****       ((0x7F ^ ((q7_t) (x >> 31)))) : (q7_t) x;
 535:.\Include/arm_math.h ****   }
 536:.\Include/arm_math.h **** 
 537:.\Include/arm_math.h ****   /**
 538:.\Include/arm_math.h ****    * @brief Clips Q31 to Q15 values.
 539:.\Include/arm_math.h ****    */
 540:.\Include/arm_math.h ****   CMSIS_INLINE __STATIC_INLINE q15_t clip_q31_to_q15(
 541:.\Include/arm_math.h ****   q31_t x)
 542:.\Include/arm_math.h ****   {
 543:.\Include/arm_math.h ****     return ((q31_t) (x >> 16) != ((q31_t) x >> 15)) ?
 544:.\Include/arm_math.h ****       ((0x7FFF ^ ((q15_t) (x >> 31)))) : (q15_t) x;
 545:.\Include/arm_math.h ****   }
 546:.\Include/arm_math.h **** 
 547:.\Include/arm_math.h ****   /**
 548:.\Include/arm_math.h ****    * @brief Multiplies 32 X 64 and returns 32 bit result in 2.30 format.
 549:.\Include/arm_math.h ****    */
 550:.\Include/arm_math.h **** 
 551:.\Include/arm_math.h ****   CMSIS_INLINE __STATIC_INLINE q63_t mult32x64(
 552:.\Include/arm_math.h ****   q63_t x,
ARM GAS  C:\Users\fneves\AppData\Local\Temp\ccyl4tsw.s 			page 43


 553:.\Include/arm_math.h ****   q31_t y)
 554:.\Include/arm_math.h ****   {
 555:.\Include/arm_math.h ****     return ((((q63_t) (x & 0x00000000FFFFFFFF) * y) >> 32) +
 556:.\Include/arm_math.h ****             (((q63_t) (x >> 32) * y)));
 557:.\Include/arm_math.h ****   }
 558:.\Include/arm_math.h **** 
 559:.\Include/arm_math.h **** /*
 560:.\Include/arm_math.h ****   #if defined (ARM_MATH_CM0_FAMILY) && defined ( __CC_ARM   )
 561:.\Include/arm_math.h ****   #define __CLZ __clz
 562:.\Include/arm_math.h ****   #endif
 563:.\Include/arm_math.h ****  */
 564:.\Include/arm_math.h **** /* note: function can be removed when all toolchain support __CLZ for Cortex-M0 */
 565:.\Include/arm_math.h **** #if defined (ARM_MATH_CM0_FAMILY) && ((defined (__ICCARM__))  )
 566:.\Include/arm_math.h ****   CMSIS_INLINE __STATIC_INLINE uint32_t __CLZ(
 567:.\Include/arm_math.h ****   q31_t data);
 568:.\Include/arm_math.h **** 
 569:.\Include/arm_math.h ****   CMSIS_INLINE __STATIC_INLINE uint32_t __CLZ(
 570:.\Include/arm_math.h ****   q31_t data)
 571:.\Include/arm_math.h ****   {
 572:.\Include/arm_math.h ****     uint32_t count = 0;
 573:.\Include/arm_math.h ****     uint32_t mask = 0x80000000;
 574:.\Include/arm_math.h **** 
 575:.\Include/arm_math.h ****     while ((data & mask) == 0)
 576:.\Include/arm_math.h ****     {
 577:.\Include/arm_math.h ****       count += 1u;
 578:.\Include/arm_math.h ****       mask = mask >> 1u;
 579:.\Include/arm_math.h ****     }
 580:.\Include/arm_math.h **** 
 581:.\Include/arm_math.h ****     return (count);
 582:.\Include/arm_math.h ****   }
 583:.\Include/arm_math.h **** #endif
 584:.\Include/arm_math.h **** 
 585:.\Include/arm_math.h ****   /**
 586:.\Include/arm_math.h ****    * @brief Function to Calculates 1/in (reciprocal) value of Q31 Data type.
 587:.\Include/arm_math.h ****    */
 588:.\Include/arm_math.h **** 
 589:.\Include/arm_math.h ****   CMSIS_INLINE __STATIC_INLINE uint32_t arm_recip_q31(
 590:.\Include/arm_math.h ****   q31_t in,
 591:.\Include/arm_math.h ****   q31_t * dst,
 592:.\Include/arm_math.h ****   q31_t * pRecipTable)
 593:.\Include/arm_math.h ****   {
 594:.\Include/arm_math.h ****     q31_t out;
 595:.\Include/arm_math.h ****     uint32_t tempVal;
 596:.\Include/arm_math.h ****     uint32_t index, i;
 597:.\Include/arm_math.h ****     uint32_t signBits;
 598:.\Include/arm_math.h **** 
 599:.\Include/arm_math.h ****     if (in > 0)
 600:.\Include/arm_math.h ****     {
 601:.\Include/arm_math.h ****       signBits = ((uint32_t) (__CLZ( in) - 1));
 602:.\Include/arm_math.h ****     }
 603:.\Include/arm_math.h ****     else
 604:.\Include/arm_math.h ****     {
 605:.\Include/arm_math.h ****       signBits = ((uint32_t) (__CLZ(-in) - 1));
 606:.\Include/arm_math.h ****     }
 607:.\Include/arm_math.h **** 
 608:.\Include/arm_math.h ****     /* Convert input sample to 1.31 format */
 609:.\Include/arm_math.h ****     in = (in << signBits);
ARM GAS  C:\Users\fneves\AppData\Local\Temp\ccyl4tsw.s 			page 44


 610:.\Include/arm_math.h **** 
 611:.\Include/arm_math.h ****     /* calculation of index for initial approximated Val */
 612:.\Include/arm_math.h ****     index = (uint32_t)(in >> 24);
 613:.\Include/arm_math.h ****     index = (index & INDEX_MASK);
 614:.\Include/arm_math.h **** 
 615:.\Include/arm_math.h ****     /* 1.31 with exp 1 */
 616:.\Include/arm_math.h ****     out = pRecipTable[index];
 617:.\Include/arm_math.h **** 
 618:.\Include/arm_math.h ****     /* calculation of reciprocal value */
 619:.\Include/arm_math.h ****     /* running approximation for two iterations */
 620:.\Include/arm_math.h ****     for (i = 0u; i < 2u; i++)
 621:.\Include/arm_math.h ****     {
 622:.\Include/arm_math.h ****       tempVal = (uint32_t) (((q63_t) in * out) >> 31);
 623:.\Include/arm_math.h ****       tempVal = 0x7FFFFFFFu - tempVal;
 624:.\Include/arm_math.h ****       /*      1.31 with exp 1 */
 625:.\Include/arm_math.h ****       /* out = (q31_t) (((q63_t) out * tempVal) >> 30); */
 626:.\Include/arm_math.h ****       out = clip_q63_to_q31(((q63_t) out * tempVal) >> 30);
 627:.\Include/arm_math.h ****     }
 628:.\Include/arm_math.h **** 
 629:.\Include/arm_math.h ****     /* write output */
 630:.\Include/arm_math.h ****     *dst = out;
 631:.\Include/arm_math.h **** 
 632:.\Include/arm_math.h ****     /* return num of signbits of out = 1/in value */
 633:.\Include/arm_math.h ****     return (signBits + 1u);
 634:.\Include/arm_math.h ****   }
 635:.\Include/arm_math.h **** 
 636:.\Include/arm_math.h **** 
 637:.\Include/arm_math.h ****   /**
 638:.\Include/arm_math.h ****    * @brief Function to Calculates 1/in (reciprocal) value of Q15 Data type.
 639:.\Include/arm_math.h ****    */
 640:.\Include/arm_math.h ****   CMSIS_INLINE __STATIC_INLINE uint32_t arm_recip_q15(
 641:.\Include/arm_math.h ****   q15_t in,
 642:.\Include/arm_math.h ****   q15_t * dst,
 643:.\Include/arm_math.h ****   q15_t * pRecipTable)
 644:.\Include/arm_math.h ****   {
 645:.\Include/arm_math.h ****     q15_t out = 0;
 646:.\Include/arm_math.h ****     uint32_t tempVal = 0;
 647:.\Include/arm_math.h ****     uint32_t index = 0, i = 0;
 648:.\Include/arm_math.h ****     uint32_t signBits = 0;
 649:.\Include/arm_math.h **** 
 650:.\Include/arm_math.h ****     if (in > 0)
 651:.\Include/arm_math.h ****     {
 652:.\Include/arm_math.h ****       signBits = ((uint32_t)(__CLZ( in) - 17));
 653:.\Include/arm_math.h ****     }
 654:.\Include/arm_math.h ****     else
 655:.\Include/arm_math.h ****     {
 656:.\Include/arm_math.h ****       signBits = ((uint32_t)(__CLZ(-in) - 17));
 657:.\Include/arm_math.h ****     }
 658:.\Include/arm_math.h **** 
 659:.\Include/arm_math.h ****     /* Convert input sample to 1.15 format */
 660:.\Include/arm_math.h ****     in = (in << signBits);
 661:.\Include/arm_math.h **** 
 662:.\Include/arm_math.h ****     /* calculation of index for initial approximated Val */
 663:.\Include/arm_math.h ****     index = (uint32_t)(in >>  8);
 664:.\Include/arm_math.h ****     index = (index & INDEX_MASK);
 665:.\Include/arm_math.h **** 
 666:.\Include/arm_math.h ****     /*      1.15 with exp 1  */
ARM GAS  C:\Users\fneves\AppData\Local\Temp\ccyl4tsw.s 			page 45


 667:.\Include/arm_math.h ****     out = pRecipTable[index];
 668:.\Include/arm_math.h **** 
 669:.\Include/arm_math.h ****     /* calculation of reciprocal value */
 670:.\Include/arm_math.h ****     /* running approximation for two iterations */
 671:.\Include/arm_math.h ****     for (i = 0u; i < 2u; i++)
 672:.\Include/arm_math.h ****     {
 673:.\Include/arm_math.h ****       tempVal = (uint32_t) (((q31_t) in * out) >> 15);
 674:.\Include/arm_math.h ****       tempVal = 0x7FFFu - tempVal;
 675:.\Include/arm_math.h ****       /*      1.15 with exp 1 */
 676:.\Include/arm_math.h ****       out = (q15_t) (((q31_t) out * tempVal) >> 14);
 677:.\Include/arm_math.h ****       /* out = clip_q31_to_q15(((q31_t) out * tempVal) >> 14); */
 678:.\Include/arm_math.h ****     }
 679:.\Include/arm_math.h **** 
 680:.\Include/arm_math.h ****     /* write output */
 681:.\Include/arm_math.h ****     *dst = out;
 682:.\Include/arm_math.h **** 
 683:.\Include/arm_math.h ****     /* return num of signbits of out = 1/in value */
 684:.\Include/arm_math.h ****     return (signBits + 1);
 685:.\Include/arm_math.h ****   }
 686:.\Include/arm_math.h **** 
 687:.\Include/arm_math.h **** 
 688:.\Include/arm_math.h ****   /*
 689:.\Include/arm_math.h ****    * @brief C custom defined intrinisic function for only M0 processors
 690:.\Include/arm_math.h ****    */
 691:.\Include/arm_math.h **** #if defined(ARM_MATH_CM0_FAMILY)
 692:.\Include/arm_math.h ****   CMSIS_INLINE __STATIC_INLINE q31_t __SSAT(
 693:.\Include/arm_math.h ****   q31_t x,
 694:.\Include/arm_math.h ****   uint32_t y)
 695:.\Include/arm_math.h ****   {
 696:.\Include/arm_math.h ****     int32_t posMax, negMin;
 697:.\Include/arm_math.h ****     uint32_t i;
 698:.\Include/arm_math.h **** 
 699:.\Include/arm_math.h ****     posMax = 1;
 700:.\Include/arm_math.h ****     for (i = 0; i < (y - 1); i++)
 701:.\Include/arm_math.h ****     {
 702:.\Include/arm_math.h ****       posMax = posMax * 2;
 703:.\Include/arm_math.h ****     }
 704:.\Include/arm_math.h **** 
 705:.\Include/arm_math.h ****     if (x > 0)
 706:.\Include/arm_math.h ****     {
 707:.\Include/arm_math.h ****       posMax = (posMax - 1);
 708:.\Include/arm_math.h **** 
 709:.\Include/arm_math.h ****       if (x > posMax)
 710:.\Include/arm_math.h ****       {
 711:.\Include/arm_math.h ****         x = posMax;
 712:.\Include/arm_math.h ****       }
 713:.\Include/arm_math.h ****     }
 714:.\Include/arm_math.h ****     else
 715:.\Include/arm_math.h ****     {
 716:.\Include/arm_math.h ****       negMin = -posMax;
 717:.\Include/arm_math.h **** 
 718:.\Include/arm_math.h ****       if (x < negMin)
 719:.\Include/arm_math.h ****       {
 720:.\Include/arm_math.h ****         x = negMin;
 721:.\Include/arm_math.h ****       }
 722:.\Include/arm_math.h ****     }
 723:.\Include/arm_math.h ****     return (x);
ARM GAS  C:\Users\fneves\AppData\Local\Temp\ccyl4tsw.s 			page 46


 724:.\Include/arm_math.h ****   }
 725:.\Include/arm_math.h **** #endif /* end of ARM_MATH_CM0_FAMILY */
 726:.\Include/arm_math.h **** 
 727:.\Include/arm_math.h **** 
 728:.\Include/arm_math.h ****   /*
 729:.\Include/arm_math.h ****    * @brief C custom defined intrinsic function for M3 and M0 processors
 730:.\Include/arm_math.h ****    */
 731:.\Include/arm_math.h **** /* #if defined (ARM_MATH_CM3) || defined (ARM_MATH_CM0_FAMILY) */
 732:.\Include/arm_math.h **** #if !defined (ARM_MATH_DSP)
 733:.\Include/arm_math.h **** 
 734:.\Include/arm_math.h ****   /*
 735:.\Include/arm_math.h ****    * @brief C custom defined QADD8 for M3 and M0 processors
 736:.\Include/arm_math.h ****    */
 737:.\Include/arm_math.h ****   CMSIS_INLINE __STATIC_INLINE uint32_t __QADD8(
 738:.\Include/arm_math.h ****   uint32_t x,
 739:.\Include/arm_math.h ****   uint32_t y)
 740:.\Include/arm_math.h ****   {
 741:.\Include/arm_math.h ****     q31_t r, s, t, u;
 742:.\Include/arm_math.h **** 
 743:.\Include/arm_math.h ****     r = __SSAT(((((q31_t)x << 24) >> 24) + (((q31_t)y << 24) >> 24)), 8) & (int32_t)0x000000FF;
 744:.\Include/arm_math.h ****     s = __SSAT(((((q31_t)x << 16) >> 24) + (((q31_t)y << 16) >> 24)), 8) & (int32_t)0x000000FF;
 745:.\Include/arm_math.h ****     t = __SSAT(((((q31_t)x <<  8) >> 24) + (((q31_t)y <<  8) >> 24)), 8) & (int32_t)0x000000FF;
 746:.\Include/arm_math.h ****     u = __SSAT(((((q31_t)x      ) >> 24) + (((q31_t)y      ) >> 24)), 8) & (int32_t)0x000000FF;
 747:.\Include/arm_math.h **** 
 748:.\Include/arm_math.h ****     return ((uint32_t)((u << 24) | (t << 16) | (s <<  8) | (r      )));
 749:.\Include/arm_math.h ****   }
 750:.\Include/arm_math.h **** 
 751:.\Include/arm_math.h **** 
 752:.\Include/arm_math.h ****   /*
 753:.\Include/arm_math.h ****    * @brief C custom defined QSUB8 for M3 and M0 processors
 754:.\Include/arm_math.h ****    */
 755:.\Include/arm_math.h ****   CMSIS_INLINE __STATIC_INLINE uint32_t __QSUB8(
 756:.\Include/arm_math.h ****   uint32_t x,
 757:.\Include/arm_math.h ****   uint32_t y)
 758:.\Include/arm_math.h ****   {
 759:.\Include/arm_math.h ****     q31_t r, s, t, u;
 760:.\Include/arm_math.h **** 
 761:.\Include/arm_math.h ****     r = __SSAT(((((q31_t)x << 24) >> 24) - (((q31_t)y << 24) >> 24)), 8) & (int32_t)0x000000FF;
 762:.\Include/arm_math.h ****     s = __SSAT(((((q31_t)x << 16) >> 24) - (((q31_t)y << 16) >> 24)), 8) & (int32_t)0x000000FF;
 763:.\Include/arm_math.h ****     t = __SSAT(((((q31_t)x <<  8) >> 24) - (((q31_t)y <<  8) >> 24)), 8) & (int32_t)0x000000FF;
 764:.\Include/arm_math.h ****     u = __SSAT(((((q31_t)x      ) >> 24) - (((q31_t)y      ) >> 24)), 8) & (int32_t)0x000000FF;
 765:.\Include/arm_math.h **** 
 766:.\Include/arm_math.h ****     return ((uint32_t)((u << 24) | (t << 16) | (s <<  8) | (r      )));
 767:.\Include/arm_math.h ****   }
 768:.\Include/arm_math.h **** 
 769:.\Include/arm_math.h **** 
 770:.\Include/arm_math.h ****   /*
 771:.\Include/arm_math.h ****    * @brief C custom defined QADD16 for M3 and M0 processors
 772:.\Include/arm_math.h ****    */
 773:.\Include/arm_math.h ****   CMSIS_INLINE __STATIC_INLINE uint32_t __QADD16(
 774:.\Include/arm_math.h ****   uint32_t x,
 775:.\Include/arm_math.h ****   uint32_t y)
 776:.\Include/arm_math.h ****   {
 777:.\Include/arm_math.h **** /*  q31_t r,     s;  without initialisation 'arm_offset_q15 test' fails  but 'intrinsic' tests pass
 778:.\Include/arm_math.h ****     q31_t r = 0, s = 0;
 779:.\Include/arm_math.h **** 
 780:.\Include/arm_math.h ****     r = __SSAT(((((q31_t)x << 16) >> 16) + (((q31_t)y << 16) >> 16)), 16) & (int32_t)0x0000FFFF;
ARM GAS  C:\Users\fneves\AppData\Local\Temp\ccyl4tsw.s 			page 47


 781:.\Include/arm_math.h ****     s = __SSAT(((((q31_t)x      ) >> 16) + (((q31_t)y      ) >> 16)), 16) & (int32_t)0x0000FFFF;
 782:.\Include/arm_math.h **** 
 783:.\Include/arm_math.h ****     return ((uint32_t)((s << 16) | (r      )));
 784:.\Include/arm_math.h ****   }
 785:.\Include/arm_math.h **** 
 786:.\Include/arm_math.h **** 
 787:.\Include/arm_math.h ****   /*
 788:.\Include/arm_math.h ****    * @brief C custom defined SHADD16 for M3 and M0 processors
 789:.\Include/arm_math.h ****    */
 790:.\Include/arm_math.h ****   CMSIS_INLINE __STATIC_INLINE uint32_t __SHADD16(
 791:.\Include/arm_math.h ****   uint32_t x,
 792:.\Include/arm_math.h ****   uint32_t y)
 793:.\Include/arm_math.h ****   {
 794:.\Include/arm_math.h ****     q31_t r, s;
 795:.\Include/arm_math.h **** 
 796:.\Include/arm_math.h ****     r = (((((q31_t)x << 16) >> 16) + (((q31_t)y << 16) >> 16)) >> 1) & (int32_t)0x0000FFFF;
 797:.\Include/arm_math.h ****     s = (((((q31_t)x      ) >> 16) + (((q31_t)y      ) >> 16)) >> 1) & (int32_t)0x0000FFFF;
 798:.\Include/arm_math.h **** 
 799:.\Include/arm_math.h ****     return ((uint32_t)((s << 16) | (r      )));
 800:.\Include/arm_math.h ****   }
 801:.\Include/arm_math.h **** 
 802:.\Include/arm_math.h **** 
 803:.\Include/arm_math.h ****   /*
 804:.\Include/arm_math.h ****    * @brief C custom defined QSUB16 for M3 and M0 processors
 805:.\Include/arm_math.h ****    */
 806:.\Include/arm_math.h ****   CMSIS_INLINE __STATIC_INLINE uint32_t __QSUB16(
 807:.\Include/arm_math.h ****   uint32_t x,
 808:.\Include/arm_math.h ****   uint32_t y)
 809:.\Include/arm_math.h ****   {
 810:.\Include/arm_math.h ****     q31_t r, s;
 811:.\Include/arm_math.h **** 
 812:.\Include/arm_math.h ****     r = __SSAT(((((q31_t)x << 16) >> 16) - (((q31_t)y << 16) >> 16)), 16) & (int32_t)0x0000FFFF;
 813:.\Include/arm_math.h ****     s = __SSAT(((((q31_t)x      ) >> 16) - (((q31_t)y      ) >> 16)), 16) & (int32_t)0x0000FFFF;
 814:.\Include/arm_math.h **** 
 815:.\Include/arm_math.h ****     return ((uint32_t)((s << 16) | (r      )));
 816:.\Include/arm_math.h ****   }
 817:.\Include/arm_math.h **** 
 818:.\Include/arm_math.h **** 
 819:.\Include/arm_math.h ****   /*
 820:.\Include/arm_math.h ****    * @brief C custom defined SHSUB16 for M3 and M0 processors
 821:.\Include/arm_math.h ****    */
 822:.\Include/arm_math.h ****   CMSIS_INLINE __STATIC_INLINE uint32_t __SHSUB16(
 823:.\Include/arm_math.h ****   uint32_t x,
 824:.\Include/arm_math.h ****   uint32_t y)
 825:.\Include/arm_math.h ****   {
 826:.\Include/arm_math.h ****     q31_t r, s;
 827:.\Include/arm_math.h **** 
 828:.\Include/arm_math.h ****     r = (((((q31_t)x << 16) >> 16) - (((q31_t)y << 16) >> 16)) >> 1) & (int32_t)0x0000FFFF;
 829:.\Include/arm_math.h ****     s = (((((q31_t)x      ) >> 16) - (((q31_t)y      ) >> 16)) >> 1) & (int32_t)0x0000FFFF;
 830:.\Include/arm_math.h **** 
 831:.\Include/arm_math.h ****     return ((uint32_t)((s << 16) | (r      )));
 832:.\Include/arm_math.h ****   }
 833:.\Include/arm_math.h **** 
 834:.\Include/arm_math.h **** 
 835:.\Include/arm_math.h ****   /*
 836:.\Include/arm_math.h ****    * @brief C custom defined QASX for M3 and M0 processors
 837:.\Include/arm_math.h ****    */
ARM GAS  C:\Users\fneves\AppData\Local\Temp\ccyl4tsw.s 			page 48


 838:.\Include/arm_math.h ****   CMSIS_INLINE __STATIC_INLINE uint32_t __QASX(
 839:.\Include/arm_math.h ****   uint32_t x,
 840:.\Include/arm_math.h ****   uint32_t y)
 841:.\Include/arm_math.h ****   {
 842:.\Include/arm_math.h ****     q31_t r, s;
 843:.\Include/arm_math.h **** 
 844:.\Include/arm_math.h ****     r = __SSAT(((((q31_t)x << 16) >> 16) - (((q31_t)y      ) >> 16)), 16) & (int32_t)0x0000FFFF;
 845:.\Include/arm_math.h ****     s = __SSAT(((((q31_t)x      ) >> 16) + (((q31_t)y << 16) >> 16)), 16) & (int32_t)0x0000FFFF;
 846:.\Include/arm_math.h **** 
 847:.\Include/arm_math.h ****     return ((uint32_t)((s << 16) | (r      )));
 848:.\Include/arm_math.h ****   }
 849:.\Include/arm_math.h **** 
 850:.\Include/arm_math.h **** 
 851:.\Include/arm_math.h ****   /*
 852:.\Include/arm_math.h ****    * @brief C custom defined SHASX for M3 and M0 processors
 853:.\Include/arm_math.h ****    */
 854:.\Include/arm_math.h ****   CMSIS_INLINE __STATIC_INLINE uint32_t __SHASX(
 855:.\Include/arm_math.h ****   uint32_t x,
 856:.\Include/arm_math.h ****   uint32_t y)
 857:.\Include/arm_math.h ****   {
 858:.\Include/arm_math.h ****     q31_t r, s;
 859:.\Include/arm_math.h **** 
 860:.\Include/arm_math.h ****     r = (((((q31_t)x << 16) >> 16) - (((q31_t)y      ) >> 16)) >> 1) & (int32_t)0x0000FFFF;
 861:.\Include/arm_math.h ****     s = (((((q31_t)x      ) >> 16) + (((q31_t)y << 16) >> 16)) >> 1) & (int32_t)0x0000FFFF;
 862:.\Include/arm_math.h **** 
 863:.\Include/arm_math.h ****     return ((uint32_t)((s << 16) | (r      )));
 864:.\Include/arm_math.h ****   }
 865:.\Include/arm_math.h **** 
 866:.\Include/arm_math.h **** 
 867:.\Include/arm_math.h ****   /*
 868:.\Include/arm_math.h ****    * @brief C custom defined QSAX for M3 and M0 processors
 869:.\Include/arm_math.h ****    */
 870:.\Include/arm_math.h ****   CMSIS_INLINE __STATIC_INLINE uint32_t __QSAX(
 871:.\Include/arm_math.h ****   uint32_t x,
 872:.\Include/arm_math.h ****   uint32_t y)
 873:.\Include/arm_math.h ****   {
 874:.\Include/arm_math.h ****     q31_t r, s;
 875:.\Include/arm_math.h **** 
 876:.\Include/arm_math.h ****     r = __SSAT(((((q31_t)x << 16) >> 16) + (((q31_t)y      ) >> 16)), 16) & (int32_t)0x0000FFFF;
 877:.\Include/arm_math.h ****     s = __SSAT(((((q31_t)x      ) >> 16) - (((q31_t)y << 16) >> 16)), 16) & (int32_t)0x0000FFFF;
 878:.\Include/arm_math.h **** 
 879:.\Include/arm_math.h ****     return ((uint32_t)((s << 16) | (r      )));
 880:.\Include/arm_math.h ****   }
 881:.\Include/arm_math.h **** 
 882:.\Include/arm_math.h **** 
 883:.\Include/arm_math.h ****   /*
 884:.\Include/arm_math.h ****    * @brief C custom defined SHSAX for M3 and M0 processors
 885:.\Include/arm_math.h ****    */
 886:.\Include/arm_math.h ****   CMSIS_INLINE __STATIC_INLINE uint32_t __SHSAX(
 887:.\Include/arm_math.h ****   uint32_t x,
 888:.\Include/arm_math.h ****   uint32_t y)
 889:.\Include/arm_math.h ****   {
 890:.\Include/arm_math.h ****     q31_t r, s;
 891:.\Include/arm_math.h **** 
 892:.\Include/arm_math.h ****     r = (((((q31_t)x << 16) >> 16) + (((q31_t)y      ) >> 16)) >> 1) & (int32_t)0x0000FFFF;
 893:.\Include/arm_math.h ****     s = (((((q31_t)x      ) >> 16) - (((q31_t)y << 16) >> 16)) >> 1) & (int32_t)0x0000FFFF;
 894:.\Include/arm_math.h **** 
ARM GAS  C:\Users\fneves\AppData\Local\Temp\ccyl4tsw.s 			page 49


 895:.\Include/arm_math.h ****     return ((uint32_t)((s << 16) | (r      )));
 896:.\Include/arm_math.h ****   }
 897:.\Include/arm_math.h **** 
 898:.\Include/arm_math.h **** 
 899:.\Include/arm_math.h ****   /*
 900:.\Include/arm_math.h ****    * @brief C custom defined SMUSDX for M3 and M0 processors
 901:.\Include/arm_math.h ****    */
 902:.\Include/arm_math.h ****   CMSIS_INLINE __STATIC_INLINE uint32_t __SMUSDX(
 903:.\Include/arm_math.h ****   uint32_t x,
 904:.\Include/arm_math.h ****   uint32_t y)
 905:.\Include/arm_math.h ****   {
 906:.\Include/arm_math.h ****     return ((uint32_t)(((((q31_t)x << 16) >> 16) * (((q31_t)y      ) >> 16)) -
 907:.\Include/arm_math.h ****                        ((((q31_t)x      ) >> 16) * (((q31_t)y << 16) >> 16))   ));
 908:.\Include/arm_math.h ****   }
 909:.\Include/arm_math.h **** 
 910:.\Include/arm_math.h ****   /*
 911:.\Include/arm_math.h ****    * @brief C custom defined SMUADX for M3 and M0 processors
 912:.\Include/arm_math.h ****    */
 913:.\Include/arm_math.h ****   CMSIS_INLINE __STATIC_INLINE uint32_t __SMUADX(
 914:.\Include/arm_math.h ****   uint32_t x,
 915:.\Include/arm_math.h ****   uint32_t y)
 916:.\Include/arm_math.h ****   {
 917:.\Include/arm_math.h ****     return ((uint32_t)(((((q31_t)x << 16) >> 16) * (((q31_t)y      ) >> 16)) +
 918:.\Include/arm_math.h ****                        ((((q31_t)x      ) >> 16) * (((q31_t)y << 16) >> 16))   ));
 919:.\Include/arm_math.h ****   }
 920:.\Include/arm_math.h **** 
 921:.\Include/arm_math.h **** 
 922:.\Include/arm_math.h ****   /*
 923:.\Include/arm_math.h ****    * @brief C custom defined QADD for M3 and M0 processors
 924:.\Include/arm_math.h ****    */
 925:.\Include/arm_math.h ****   CMSIS_INLINE __STATIC_INLINE int32_t __QADD(
 926:.\Include/arm_math.h ****   int32_t x,
 927:.\Include/arm_math.h ****   int32_t y)
 928:.\Include/arm_math.h ****   {
 929:.\Include/arm_math.h ****     return ((int32_t)(clip_q63_to_q31((q63_t)x + (q31_t)y)));
 930:.\Include/arm_math.h ****   }
 931:.\Include/arm_math.h **** 
 932:.\Include/arm_math.h **** 
 933:.\Include/arm_math.h ****   /*
 934:.\Include/arm_math.h ****    * @brief C custom defined QSUB for M3 and M0 processors
 935:.\Include/arm_math.h ****    */
 936:.\Include/arm_math.h ****   CMSIS_INLINE __STATIC_INLINE int32_t __QSUB(
 937:.\Include/arm_math.h ****   int32_t x,
 938:.\Include/arm_math.h ****   int32_t y)
 939:.\Include/arm_math.h ****   {
 940:.\Include/arm_math.h ****     return ((int32_t)(clip_q63_to_q31((q63_t)x - (q31_t)y)));
 941:.\Include/arm_math.h ****   }
 942:.\Include/arm_math.h **** 
 943:.\Include/arm_math.h **** 
 944:.\Include/arm_math.h ****   /*
 945:.\Include/arm_math.h ****    * @brief C custom defined SMLAD for M3 and M0 processors
 946:.\Include/arm_math.h ****    */
 947:.\Include/arm_math.h ****   CMSIS_INLINE __STATIC_INLINE uint32_t __SMLAD(
 948:.\Include/arm_math.h ****   uint32_t x,
 949:.\Include/arm_math.h ****   uint32_t y,
 950:.\Include/arm_math.h ****   uint32_t sum)
 951:.\Include/arm_math.h ****   {
ARM GAS  C:\Users\fneves\AppData\Local\Temp\ccyl4tsw.s 			page 50


 952:.\Include/arm_math.h ****     return ((uint32_t)(((((q31_t)x << 16) >> 16) * (((q31_t)y << 16) >> 16)) +
 953:.\Include/arm_math.h ****                        ((((q31_t)x      ) >> 16) * (((q31_t)y      ) >> 16)) +
 954:.\Include/arm_math.h ****                        ( ((q31_t)sum    )                                  )   ));
 955:.\Include/arm_math.h ****   }
 956:.\Include/arm_math.h **** 
 957:.\Include/arm_math.h **** 
 958:.\Include/arm_math.h ****   /*
 959:.\Include/arm_math.h ****    * @brief C custom defined SMLADX for M3 and M0 processors
 960:.\Include/arm_math.h ****    */
 961:.\Include/arm_math.h ****   CMSIS_INLINE __STATIC_INLINE uint32_t __SMLADX(
 962:.\Include/arm_math.h ****   uint32_t x,
 963:.\Include/arm_math.h ****   uint32_t y,
 964:.\Include/arm_math.h ****   uint32_t sum)
 965:.\Include/arm_math.h ****   {
 966:.\Include/arm_math.h ****     return ((uint32_t)(((((q31_t)x << 16) >> 16) * (((q31_t)y      ) >> 16)) +
 967:.\Include/arm_math.h ****                        ((((q31_t)x      ) >> 16) * (((q31_t)y << 16) >> 16)) +
 968:.\Include/arm_math.h ****                        ( ((q31_t)sum    )                                  )   ));
 969:.\Include/arm_math.h ****   }
 970:.\Include/arm_math.h **** 
 971:.\Include/arm_math.h **** 
 972:.\Include/arm_math.h ****   /*
 973:.\Include/arm_math.h ****    * @brief C custom defined SMLSDX for M3 and M0 processors
 974:.\Include/arm_math.h ****    */
 975:.\Include/arm_math.h ****   CMSIS_INLINE __STATIC_INLINE uint32_t __SMLSDX(
 976:.\Include/arm_math.h ****   uint32_t x,
 977:.\Include/arm_math.h ****   uint32_t y,
 978:.\Include/arm_math.h ****   uint32_t sum)
 979:.\Include/arm_math.h ****   {
 980:.\Include/arm_math.h ****     return ((uint32_t)(((((q31_t)x << 16) >> 16) * (((q31_t)y      ) >> 16)) -
 981:.\Include/arm_math.h ****                        ((((q31_t)x      ) >> 16) * (((q31_t)y << 16) >> 16)) +
 982:.\Include/arm_math.h ****                        ( ((q31_t)sum    )                                  )   ));
 983:.\Include/arm_math.h ****   }
 984:.\Include/arm_math.h **** 
 985:.\Include/arm_math.h **** 
 986:.\Include/arm_math.h ****   /*
 987:.\Include/arm_math.h ****    * @brief C custom defined SMLALD for M3 and M0 processors
 988:.\Include/arm_math.h ****    */
 989:.\Include/arm_math.h ****   CMSIS_INLINE __STATIC_INLINE uint64_t __SMLALD(
 990:.\Include/arm_math.h ****   uint32_t x,
 991:.\Include/arm_math.h ****   uint32_t y,
 992:.\Include/arm_math.h ****   uint64_t sum)
 993:.\Include/arm_math.h ****   {
 994:.\Include/arm_math.h **** /*  return (sum + ((q15_t) (x >> 16) * (q15_t) (y >> 16)) + ((q15_t) x * (q15_t) y)); */
 995:.\Include/arm_math.h ****     return ((uint64_t)(((((q31_t)x << 16) >> 16) * (((q31_t)y << 16) >> 16)) +
 1618              		.loc 2 995 0
 1619 0bda 8823     		mov	r3, #136
 1620 0bdc 5B00     		lsl	r3, r3, #1
 1621 0bde 9022     		mov	r2, #144
 1622 0be0 9446     		mov	ip, r2
 1623 0be2 0822     		mov	r2, #8
 1624 0be4 9046     		mov	r8, r2
 1625 0be6 0822     		mov	r2, #8
 1626 0be8 9146     		mov	r9, r2
 1627 0bea B944     		add	r9, r9, r7
 1628 0bec C844     		add	r8, r8, r9
 1629 0bee C444     		add	ip, ip, r8
 1630 0bf0 6344     		add	r3, r3, ip
ARM GAS  C:\Users\fneves\AppData\Local\Temp\ccyl4tsw.s 			page 51


 1631 0bf2 1B68     		ldr	r3, [r3]
 1632 0bf4 1B04     		lsl	r3, r3, #16
 1633 0bf6 1A14     		asr	r2, r3, #16
 1634 0bf8 8623     		mov	r3, #134
 1635 0bfa 5B00     		lsl	r3, r3, #1
 1636 0bfc 9021     		mov	r1, #144
 1637 0bfe 8C46     		mov	ip, r1
 1638 0c00 0821     		mov	r1, #8
 1639 0c02 8846     		mov	r8, r1
 1640 0c04 0821     		mov	r1, #8
 1641 0c06 8946     		mov	r9, r1
 1642 0c08 B944     		add	r9, r9, r7
 1643 0c0a C844     		add	r8, r8, r9
 1644 0c0c C444     		add	ip, ip, r8
 1645 0c0e 6344     		add	r3, r3, ip
 1646 0c10 1B68     		ldr	r3, [r3]
 1647 0c12 1B04     		lsl	r3, r3, #16
 1648 0c14 1B14     		asr	r3, r3, #16
 1649 0c16 5343     		mul	r3, r2
 1650 0c18 191C     		mov	r1, r3
 996:.\Include/arm_math.h ****                        ((((q31_t)x      ) >> 16) * (((q31_t)y      ) >> 16)) +
 1651              		.loc 2 996 0
 1652 0c1a 8823     		mov	r3, #136
 1653 0c1c 5B00     		lsl	r3, r3, #1
 1654 0c1e 9022     		mov	r2, #144
 1655 0c20 9446     		mov	ip, r2
 1656 0c22 0822     		mov	r2, #8
 1657 0c24 9046     		mov	r8, r2
 1658 0c26 0822     		mov	r2, #8
 1659 0c28 9146     		mov	r9, r2
 1660 0c2a B944     		add	r9, r9, r7
 1661 0c2c C844     		add	r8, r8, r9
 1662 0c2e C444     		add	ip, ip, r8
 1663 0c30 6344     		add	r3, r3, ip
 1664 0c32 1B68     		ldr	r3, [r3]
 1665 0c34 1A14     		asr	r2, r3, #16
 1666 0c36 8623     		mov	r3, #134
 1667 0c38 5B00     		lsl	r3, r3, #1
 1668 0c3a 9020     		mov	r0, #144
 1669 0c3c 8446     		mov	ip, r0
 1670 0c3e 0820     		mov	r0, #8
 1671 0c40 8046     		mov	r8, r0
 1672 0c42 0820     		mov	r0, #8
 1673 0c44 8146     		mov	r9, r0
 1674 0c46 B944     		add	r9, r9, r7
 1675 0c48 C844     		add	r8, r8, r9
 1676 0c4a C444     		add	ip, ip, r8
 1677 0c4c 6344     		add	r3, r3, ip
 1678 0c4e 1B68     		ldr	r3, [r3]
 1679 0c50 1B14     		asr	r3, r3, #16
 1680 0c52 5343     		mul	r3, r2
 995:.\Include/arm_math.h ****                        ((((q31_t)x      ) >> 16) * (((q31_t)y      ) >> 16)) +
 1681              		.loc 2 995 0
 1682 0c54 CB18     		add	r3, r1, r3
 1683              		.loc 2 996 0
 1684 0c56 3B65     		str	r3, [r7, #80]
 1685 0c58 DB17     		asr	r3, r3, #31
ARM GAS  C:\Users\fneves\AppData\Local\Temp\ccyl4tsw.s 			page 52


 1686 0c5a 7B65     		str	r3, [r7, #84]
 997:.\Include/arm_math.h ****                        ( ((q63_t)sum    )                                  )   ));
 1687              		.loc 2 997 0
 1688 0c5c C823     		mov	r3, #200
 1689 0c5e 5B00     		lsl	r3, r3, #1
 1690 0c60 0822     		mov	r2, #8
 1691 0c62 9446     		mov	ip, r2
 1692 0c64 0822     		mov	r2, #8
 1693 0c66 9046     		mov	r8, r2
 1694 0c68 B844     		add	r8, r8, r7
 1695 0c6a C444     		add	ip, ip, r8
 1696 0c6c 6344     		add	r3, r3, ip
 1697 0c6e 5C68     		ldr	r4, [r3, #4]
 1698 0c70 1B68     		ldr	r3, [r3]
 996:.\Include/arm_math.h ****                        ((((q31_t)x      ) >> 16) * (((q31_t)y      ) >> 16)) +
 1699              		.loc 2 996 0
 1700 0c72 396D     		ldr	r1, [r7, #80]
 1701 0c74 7A6D     		ldr	r2, [r7, #84]
 1702 0c76 5B18     		add	r3, r3, r1
 1703 0c78 5441     		adc	r4, r4, r2
 1704              	.LBE31:
 1705              	.LBE30:
 1706              		.loc 1 223 0
 1707 0c7a B022     		mov	r2, #176
 1708 0c7c 5200     		lsl	r2, r2, #1
 1709 0c7e 9021     		mov	r1, #144
 1710 0c80 8C46     		mov	ip, r1
 1711 0c82 0821     		mov	r1, #8
 1712 0c84 8846     		mov	r8, r1
 1713 0c86 0821     		mov	r1, #8
 1714 0c88 8946     		mov	r9, r1
 1715 0c8a B944     		add	r9, r9, r7
 1716 0c8c C844     		add	r8, r8, r9
 1717 0c8e C444     		add	ip, ip, r8
 1718 0c90 6244     		add	r2, r2, ip
 1719 0c92 1360     		str	r3, [r2]
 1720 0c94 5460     		str	r4, [r2, #4]
 224:Source\FilteringFunctions/arm_conv_partial_opt_q15.c ****         acc2 = __SMLALD(x2, y1, acc2);
 1721              		.loc 1 224 0
 1722 0c96 A023     		mov	r3, #160
 1723 0c98 5B00     		lsl	r3, r3, #1
 1724 0c9a 9022     		mov	r2, #144
 1725 0c9c 9446     		mov	ip, r2
 1726 0c9e 0822     		mov	r2, #8
 1727 0ca0 9046     		mov	r8, r2
 1728 0ca2 0822     		mov	r2, #8
 1729 0ca4 9146     		mov	r9, r2
 1730 0ca6 B944     		add	r9, r9, r7
 1731 0ca8 C844     		add	r8, r8, r9
 1732 0caa C444     		add	ip, ip, r8
 1733 0cac 6344     		add	r3, r3, ip
 1734 0cae 1968     		ldr	r1, [r3]
 1735 0cb0 8E23     		mov	r3, #142
 1736 0cb2 5B00     		lsl	r3, r3, #1
 1737 0cb4 9022     		mov	r2, #144
 1738 0cb6 9446     		mov	ip, r2
 1739 0cb8 0822     		mov	r2, #8
ARM GAS  C:\Users\fneves\AppData\Local\Temp\ccyl4tsw.s 			page 53


 1740 0cba 9046     		mov	r8, r2
 1741 0cbc 0822     		mov	r2, #8
 1742 0cbe 9146     		mov	r9, r2
 1743 0cc0 B944     		add	r9, r9, r7
 1744 0cc2 C844     		add	r8, r8, r9
 1745 0cc4 C444     		add	ip, ip, r8
 1746 0cc6 6344     		add	r3, r3, ip
 1747 0cc8 1A68     		ldr	r2, [r3]
 1748 0cca A823     		mov	r3, #168
 1749 0ccc 5B00     		lsl	r3, r3, #1
 1750 0cce 9020     		mov	r0, #144
 1751 0cd0 8446     		mov	ip, r0
 1752 0cd2 0820     		mov	r0, #8
 1753 0cd4 8046     		mov	r8, r0
 1754 0cd6 0820     		mov	r0, #8
 1755 0cd8 8146     		mov	r9, r0
 1756 0cda B944     		add	r9, r9, r7
 1757 0cdc C844     		add	r8, r8, r9
 1758 0cde C444     		add	ip, ip, r8
 1759 0ce0 6344     		add	r3, r3, ip
 1760 0ce2 5C68     		ldr	r4, [r3, #4]
 1761 0ce4 1B68     		ldr	r3, [r3]
 1762 0ce6 BB60     		str	r3, [r7, #8]
 1763 0ce8 FC60     		str	r4, [r7, #12]
 1764 0cea FC20     		mov	r0, #252
 1765 0cec 9023     		mov	r3, #144
 1766 0cee 9C46     		mov	ip, r3
 1767 0cf0 0823     		mov	r3, #8
 1768 0cf2 9846     		mov	r8, r3
 1769 0cf4 0823     		mov	r3, #8
 1770 0cf6 9946     		mov	r9, r3
 1771 0cf8 B944     		add	r9, r9, r7
 1772 0cfa C844     		add	r8, r8, r9
 1773 0cfc C444     		add	ip, ip, r8
 1774 0cfe 6044     		add	r0, r0, ip
 1775 0d00 0160     		str	r1, [r0]
 1776 0d02 F821     		mov	r1, #248
 1777 0d04 9020     		mov	r0, #144
 1778 0d06 8446     		mov	ip, r0
 1779 0d08 0823     		mov	r3, #8
 1780 0d0a 9846     		mov	r8, r3
 1781 0d0c 0823     		mov	r3, #8
 1782 0d0e 9946     		mov	r9, r3
 1783 0d10 B944     		add	r9, r9, r7
 1784 0d12 C844     		add	r8, r8, r9
 1785 0d14 C444     		add	ip, ip, r8
 1786 0d16 6144     		add	r1, r1, ip
 1787 0d18 0A60     		str	r2, [r1]
 1788 0d1a F022     		mov	r2, #240
 1789 0d1c 9021     		mov	r1, #144
 1790 0d1e 8C46     		mov	ip, r1
 1791 0d20 0823     		mov	r3, #8
 1792 0d22 9846     		mov	r8, r3
 1793 0d24 0823     		mov	r3, #8
 1794 0d26 9946     		mov	r9, r3
 1795 0d28 B944     		add	r9, r9, r7
 1796 0d2a C844     		add	r8, r8, r9
ARM GAS  C:\Users\fneves\AppData\Local\Temp\ccyl4tsw.s 			page 54


 1797 0d2c C444     		add	ip, ip, r8
 1798 0d2e 6244     		add	r2, r2, ip
 1799 0d30 BB68     		ldr	r3, [r7, #8]
 1800 0d32 FC68     		ldr	r4, [r7, #12]
 1801 0d34 1360     		str	r3, [r2]
 1802 0d36 5460     		str	r4, [r2, #4]
 1803              	.LBB32:
 1804              	.LBB33:
 995:.\Include/arm_math.h ****                        ((((q31_t)x      ) >> 16) * (((q31_t)y      ) >> 16)) +
 1805              		.loc 2 995 0
 1806 0d38 FC23     		mov	r3, #252
 1807 0d3a 9022     		mov	r2, #144
 1808 0d3c 9446     		mov	ip, r2
 1809 0d3e 0822     		mov	r2, #8
 1810 0d40 9046     		mov	r8, r2
 1811 0d42 0822     		mov	r2, #8
 1812 0d44 9146     		mov	r9, r2
 1813 0d46 B944     		add	r9, r9, r7
 1814 0d48 C844     		add	r8, r8, r9
 1815 0d4a C444     		add	ip, ip, r8
 1816 0d4c 6344     		add	r3, r3, ip
 1817 0d4e 1B68     		ldr	r3, [r3]
 1818 0d50 1B04     		lsl	r3, r3, #16
 1819 0d52 1A14     		asr	r2, r3, #16
 1820 0d54 F823     		mov	r3, #248
 1821 0d56 9021     		mov	r1, #144
 1822 0d58 8C46     		mov	ip, r1
 1823 0d5a 0821     		mov	r1, #8
 1824 0d5c 8846     		mov	r8, r1
 1825 0d5e 0821     		mov	r1, #8
 1826 0d60 8946     		mov	r9, r1
 1827 0d62 B944     		add	r9, r9, r7
 1828 0d64 C844     		add	r8, r8, r9
 1829 0d66 C444     		add	ip, ip, r8
 1830 0d68 6344     		add	r3, r3, ip
 1831 0d6a 1B68     		ldr	r3, [r3]
 1832 0d6c 1B04     		lsl	r3, r3, #16
 1833 0d6e 1B14     		asr	r3, r3, #16
 1834 0d70 5343     		mul	r3, r2
 1835 0d72 191C     		mov	r1, r3
 996:.\Include/arm_math.h ****                        ( ((q63_t)sum    )                                  )   ));
 1836              		.loc 2 996 0
 1837 0d74 FC23     		mov	r3, #252
 1838 0d76 9022     		mov	r2, #144
 1839 0d78 9446     		mov	ip, r2
 1840 0d7a 0822     		mov	r2, #8
 1841 0d7c 9046     		mov	r8, r2
 1842 0d7e 0822     		mov	r2, #8
 1843 0d80 9146     		mov	r9, r2
 1844 0d82 B944     		add	r9, r9, r7
 1845 0d84 C844     		add	r8, r8, r9
 1846 0d86 C444     		add	ip, ip, r8
 1847 0d88 6344     		add	r3, r3, ip
 1848 0d8a 1B68     		ldr	r3, [r3]
 1849 0d8c 1A14     		asr	r2, r3, #16
 1850 0d8e F823     		mov	r3, #248
 1851 0d90 9020     		mov	r0, #144
ARM GAS  C:\Users\fneves\AppData\Local\Temp\ccyl4tsw.s 			page 55


 1852 0d92 8446     		mov	ip, r0
 1853 0d94 0820     		mov	r0, #8
 1854 0d96 8046     		mov	r8, r0
 1855 0d98 0820     		mov	r0, #8
 1856 0d9a 8146     		mov	r9, r0
 1857 0d9c B944     		add	r9, r9, r7
 1858 0d9e C844     		add	r8, r8, r9
 1859 0da0 C444     		add	ip, ip, r8
 1860 0da2 6344     		add	r3, r3, ip
 1861 0da4 1B68     		ldr	r3, [r3]
 1862 0da6 1B14     		asr	r3, r3, #16
 1863 0da8 5343     		mul	r3, r2
 995:.\Include/arm_math.h ****                        ((((q31_t)x      ) >> 16) * (((q31_t)y      ) >> 16)) +
 1864              		.loc 2 995 0
 1865 0daa CB18     		add	r3, r1, r3
 996:.\Include/arm_math.h ****                        ( ((q63_t)sum    )                                  )   ));
 1866              		.loc 2 996 0
 1867 0dac BB64     		str	r3, [r7, #72]
 1868 0dae DB17     		asr	r3, r3, #31
 1869 0db0 FB64     		str	r3, [r7, #76]
 1870              		.loc 2 997 0
 1871 0db2 F023     		mov	r3, #240
 1872 0db4 9022     		mov	r2, #144
 1873 0db6 9446     		mov	ip, r2
 1874 0db8 0822     		mov	r2, #8
 1875 0dba 9046     		mov	r8, r2
 1876 0dbc 0822     		mov	r2, #8
 1877 0dbe 9146     		mov	r9, r2
 1878 0dc0 B944     		add	r9, r9, r7
 1879 0dc2 C844     		add	r8, r8, r9
 1880 0dc4 C444     		add	ip, ip, r8
 1881 0dc6 6344     		add	r3, r3, ip
 1882 0dc8 5C68     		ldr	r4, [r3, #4]
 1883 0dca 1B68     		ldr	r3, [r3]
 996:.\Include/arm_math.h ****                        ( ((q63_t)sum    )                                  )   ));
 1884              		.loc 2 996 0
 1885 0dcc B96C     		ldr	r1, [r7, #72]
 1886 0dce FA6C     		ldr	r2, [r7, #76]
 1887 0dd0 5B18     		add	r3, r3, r1
 1888 0dd2 5441     		adc	r4, r4, r2
 1889              	.LBE33:
 1890              	.LBE32:
 1891              		.loc 1 224 0
 1892 0dd4 A822     		mov	r2, #168
 1893 0dd6 5200     		lsl	r2, r2, #1
 1894 0dd8 9021     		mov	r1, #144
 1895 0dda 8C46     		mov	ip, r1
 1896 0ddc 0821     		mov	r1, #8
 1897 0dde 8846     		mov	r8, r1
 1898 0de0 0821     		mov	r1, #8
 1899 0de2 8946     		mov	r9, r1
 1900 0de4 B944     		add	r9, r9, r7
 1901 0de6 C844     		add	r8, r8, r9
 1902 0de8 C444     		add	ip, ip, r8
 1903 0dea 6244     		add	r2, r2, ip
 1904 0dec 1360     		str	r3, [r2]
 1905 0dee 5460     		str	r4, [r2, #4]
ARM GAS  C:\Users\fneves\AppData\Local\Temp\ccyl4tsw.s 			page 56


 225:Source\FilteringFunctions/arm_conv_partial_opt_q15.c **** 
 226:Source\FilteringFunctions/arm_conv_partial_opt_q15.c ****         /* pack input data */
 227:Source\FilteringFunctions/arm_conv_partial_opt_q15.c **** #ifndef ARM_MATH_BIG_ENDIAN
 228:Source\FilteringFunctions/arm_conv_partial_opt_q15.c ****         x3 = __PKHBT(x2, x1, 0);
 1906              		.loc 1 228 0
 1907 0df0 A023     		mov	r3, #160
 1908 0df2 5B00     		lsl	r3, r3, #1
 1909 0df4 9022     		mov	r2, #144
 1910 0df6 9446     		mov	ip, r2
 1911 0df8 0822     		mov	r2, #8
 1912 0dfa 9046     		mov	r8, r2
 1913 0dfc 0822     		mov	r2, #8
 1914 0dfe 9146     		mov	r9, r2
 1915 0e00 B944     		add	r9, r9, r7
 1916 0e02 C844     		add	r8, r8, r9
 1917 0e04 C444     		add	ip, ip, r8
 1918 0e06 6344     		add	r3, r3, ip
 1919 0e08 1B68     		ldr	r3, [r3]
 1920 0e0a 1B04     		lsl	r3, r3, #16
 1921 0e0c 1A0C     		lsr	r2, r3, #16
 1922 0e0e A223     		mov	r3, #162
 1923 0e10 5B00     		lsl	r3, r3, #1
 1924 0e12 9021     		mov	r1, #144
 1925 0e14 8C46     		mov	ip, r1
 1926 0e16 0821     		mov	r1, #8
 1927 0e18 8846     		mov	r8, r1
 1928 0e1a 0821     		mov	r1, #8
 1929 0e1c 8946     		mov	r9, r1
 1930 0e1e B944     		add	r9, r9, r7
 1931 0e20 C844     		add	r8, r8, r9
 1932 0e22 C444     		add	ip, ip, r8
 1933 0e24 6344     		add	r3, r3, ip
 1934 0e26 1B68     		ldr	r3, [r3]
 1935 0e28 1B0C     		lsr	r3, r3, #16
 1936 0e2a 1B04     		lsl	r3, r3, #16
 1937 0e2c 1343     		orr	r3, r2
 1938 0e2e 8A22     		mov	r2, #138
 1939 0e30 5200     		lsl	r2, r2, #1
 1940 0e32 9021     		mov	r1, #144
 1941 0e34 8C46     		mov	ip, r1
 1942 0e36 0821     		mov	r1, #8
 1943 0e38 8846     		mov	r8, r1
 1944 0e3a 0821     		mov	r1, #8
 1945 0e3c 8946     		mov	r9, r1
 1946 0e3e B944     		add	r9, r9, r7
 1947 0e40 C844     		add	r8, r8, r9
 1948 0e42 C444     		add	ip, ip, r8
 1949 0e44 6244     		add	r2, r2, ip
 1950 0e46 1360     		str	r3, [r2]
 229:Source\FilteringFunctions/arm_conv_partial_opt_q15.c **** #else
 230:Source\FilteringFunctions/arm_conv_partial_opt_q15.c ****         x3 = __PKHBT(x1, x2, 0);
 231:Source\FilteringFunctions/arm_conv_partial_opt_q15.c **** #endif
 232:Source\FilteringFunctions/arm_conv_partial_opt_q15.c **** 
 233:Source\FilteringFunctions/arm_conv_partial_opt_q15.c ****         /* multiply and accumlate */
 234:Source\FilteringFunctions/arm_conv_partial_opt_q15.c ****         acc1 = __SMLALDX(x3, y1, acc1);
 1951              		.loc 1 234 0
 1952 0e48 8A23     		mov	r3, #138
ARM GAS  C:\Users\fneves\AppData\Local\Temp\ccyl4tsw.s 			page 57


 1953 0e4a 5B00     		lsl	r3, r3, #1
 1954 0e4c 9022     		mov	r2, #144
 1955 0e4e 9446     		mov	ip, r2
 1956 0e50 0822     		mov	r2, #8
 1957 0e52 9046     		mov	r8, r2
 1958 0e54 0822     		mov	r2, #8
 1959 0e56 9146     		mov	r9, r2
 1960 0e58 B944     		add	r9, r9, r7
 1961 0e5a C844     		add	r8, r8, r9
 1962 0e5c C444     		add	ip, ip, r8
 1963 0e5e 6344     		add	r3, r3, ip
 1964 0e60 1968     		ldr	r1, [r3]
 1965 0e62 8E23     		mov	r3, #142
 1966 0e64 5B00     		lsl	r3, r3, #1
 1967 0e66 9022     		mov	r2, #144
 1968 0e68 9446     		mov	ip, r2
 1969 0e6a 0822     		mov	r2, #8
 1970 0e6c 9046     		mov	r8, r2
 1971 0e6e 0822     		mov	r2, #8
 1972 0e70 9146     		mov	r9, r2
 1973 0e72 B944     		add	r9, r9, r7
 1974 0e74 C844     		add	r8, r8, r9
 1975 0e76 C444     		add	ip, ip, r8
 1976 0e78 6344     		add	r3, r3, ip
 1977 0e7a 1A68     		ldr	r2, [r3]
 1978 0e7c AC23     		mov	r3, #172
 1979 0e7e 5B00     		lsl	r3, r3, #1
 1980 0e80 9020     		mov	r0, #144
 1981 0e82 8446     		mov	ip, r0
 1982 0e84 0820     		mov	r0, #8
 1983 0e86 8046     		mov	r8, r0
 1984 0e88 0820     		mov	r0, #8
 1985 0e8a 8146     		mov	r9, r0
 1986 0e8c B944     		add	r9, r9, r7
 1987 0e8e C844     		add	r8, r8, r9
 1988 0e90 C444     		add	ip, ip, r8
 1989 0e92 6344     		add	r3, r3, ip
 1990 0e94 5C68     		ldr	r4, [r3, #4]
 1991 0e96 1B68     		ldr	r3, [r3]
 1992 0e98 BB60     		str	r3, [r7, #8]
 1993 0e9a FC60     		str	r4, [r7, #12]
 1994 0e9c EC20     		mov	r0, #236
 1995 0e9e 9023     		mov	r3, #144
 1996 0ea0 9C46     		mov	ip, r3
 1997 0ea2 0823     		mov	r3, #8
 1998 0ea4 9846     		mov	r8, r3
 1999 0ea6 0823     		mov	r3, #8
 2000 0ea8 9946     		mov	r9, r3
 2001 0eaa B944     		add	r9, r9, r7
 2002 0eac C844     		add	r8, r8, r9
 2003 0eae C444     		add	ip, ip, r8
 2004 0eb0 6044     		add	r0, r0, ip
 2005 0eb2 0160     		str	r1, [r0]
 2006 0eb4 E821     		mov	r1, #232
 2007 0eb6 9020     		mov	r0, #144
 2008 0eb8 8446     		mov	ip, r0
 2009 0eba 0823     		mov	r3, #8
ARM GAS  C:\Users\fneves\AppData\Local\Temp\ccyl4tsw.s 			page 58


 2010 0ebc 9846     		mov	r8, r3
 2011 0ebe 0823     		mov	r3, #8
 2012 0ec0 9946     		mov	r9, r3
 2013 0ec2 B944     		add	r9, r9, r7
 2014 0ec4 C844     		add	r8, r8, r9
 2015 0ec6 C444     		add	ip, ip, r8
 2016 0ec8 6144     		add	r1, r1, ip
 2017 0eca 0A60     		str	r2, [r1]
 2018 0ecc E022     		mov	r2, #224
 2019 0ece 9021     		mov	r1, #144
 2020 0ed0 8C46     		mov	ip, r1
 2021 0ed2 0823     		mov	r3, #8
 2022 0ed4 9846     		mov	r8, r3
 2023 0ed6 0823     		mov	r3, #8
 2024 0ed8 9946     		mov	r9, r3
 2025 0eda B944     		add	r9, r9, r7
 2026 0edc C844     		add	r8, r8, r9
 2027 0ede C444     		add	ip, ip, r8
 2028 0ee0 6244     		add	r2, r2, ip
 2029 0ee2 BB68     		ldr	r3, [r7, #8]
 2030 0ee4 FC68     		ldr	r4, [r7, #12]
 2031 0ee6 1360     		str	r3, [r2]
 2032 0ee8 5460     		str	r4, [r2, #4]
 2033              	.LBB34:
 2034              	.LBB35:
 998:.\Include/arm_math.h ****   }
 999:.\Include/arm_math.h **** 
1000:.\Include/arm_math.h **** 
1001:.\Include/arm_math.h ****   /*
1002:.\Include/arm_math.h ****    * @brief C custom defined SMLALDX for M3 and M0 processors
1003:.\Include/arm_math.h ****    */
1004:.\Include/arm_math.h ****   CMSIS_INLINE __STATIC_INLINE uint64_t __SMLALDX(
1005:.\Include/arm_math.h ****   uint32_t x,
1006:.\Include/arm_math.h ****   uint32_t y,
1007:.\Include/arm_math.h ****   uint64_t sum)
1008:.\Include/arm_math.h ****   {
1009:.\Include/arm_math.h **** /*  return (sum + ((q15_t) (x >> 16) * (q15_t) y)) + ((q15_t) x * (q15_t) (y >> 16)); */
1010:.\Include/arm_math.h ****     return ((uint64_t)(((((q31_t)x << 16) >> 16) * (((q31_t)y      ) >> 16)) +
 2035              		.loc 2 1010 0
 2036 0eea EC23     		mov	r3, #236
 2037 0eec 9022     		mov	r2, #144
 2038 0eee 9446     		mov	ip, r2
 2039 0ef0 0822     		mov	r2, #8
 2040 0ef2 9046     		mov	r8, r2
 2041 0ef4 0822     		mov	r2, #8
 2042 0ef6 9146     		mov	r9, r2
 2043 0ef8 B944     		add	r9, r9, r7
 2044 0efa C844     		add	r8, r8, r9
 2045 0efc C444     		add	ip, ip, r8
 2046 0efe 6344     		add	r3, r3, ip
 2047 0f00 1B68     		ldr	r3, [r3]
 2048 0f02 1B04     		lsl	r3, r3, #16
 2049 0f04 1A14     		asr	r2, r3, #16
 2050 0f06 E823     		mov	r3, #232
 2051 0f08 9021     		mov	r1, #144
 2052 0f0a 8C46     		mov	ip, r1
 2053 0f0c 0821     		mov	r1, #8
ARM GAS  C:\Users\fneves\AppData\Local\Temp\ccyl4tsw.s 			page 59


 2054 0f0e 8846     		mov	r8, r1
 2055 0f10 0821     		mov	r1, #8
 2056 0f12 8946     		mov	r9, r1
 2057 0f14 B944     		add	r9, r9, r7
 2058 0f16 C844     		add	r8, r8, r9
 2059 0f18 C444     		add	ip, ip, r8
 2060 0f1a 6344     		add	r3, r3, ip
 2061 0f1c 1B68     		ldr	r3, [r3]
 2062 0f1e 1B14     		asr	r3, r3, #16
 2063 0f20 5343     		mul	r3, r2
 2064 0f22 191C     		mov	r1, r3
1011:.\Include/arm_math.h ****                        ((((q31_t)x      ) >> 16) * (((q31_t)y << 16) >> 16)) +
 2065              		.loc 2 1011 0
 2066 0f24 EC23     		mov	r3, #236
 2067 0f26 9022     		mov	r2, #144
 2068 0f28 9446     		mov	ip, r2
 2069 0f2a 0822     		mov	r2, #8
 2070 0f2c 9046     		mov	r8, r2
 2071 0f2e 0822     		mov	r2, #8
 2072 0f30 9146     		mov	r9, r2
 2073 0f32 B944     		add	r9, r9, r7
 2074 0f34 C844     		add	r8, r8, r9
 2075 0f36 C444     		add	ip, ip, r8
 2076 0f38 6344     		add	r3, r3, ip
 2077 0f3a 1B68     		ldr	r3, [r3]
 2078 0f3c 1A14     		asr	r2, r3, #16
 2079 0f3e E823     		mov	r3, #232
 2080 0f40 9020     		mov	r0, #144
 2081 0f42 8446     		mov	ip, r0
 2082 0f44 0820     		mov	r0, #8
 2083 0f46 8046     		mov	r8, r0
 2084 0f48 0820     		mov	r0, #8
 2085 0f4a 8146     		mov	r9, r0
 2086 0f4c B944     		add	r9, r9, r7
 2087 0f4e C844     		add	r8, r8, r9
 2088 0f50 C444     		add	ip, ip, r8
 2089 0f52 6344     		add	r3, r3, ip
 2090 0f54 1B68     		ldr	r3, [r3]
 2091 0f56 1B04     		lsl	r3, r3, #16
 2092 0f58 1B14     		asr	r3, r3, #16
 2093 0f5a 5343     		mul	r3, r2
1010:.\Include/arm_math.h ****                        ((((q31_t)x      ) >> 16) * (((q31_t)y << 16) >> 16)) +
 2094              		.loc 2 1010 0
 2095 0f5c CB18     		add	r3, r1, r3
 2096              		.loc 2 1011 0
 2097 0f5e 3B64     		str	r3, [r7, #64]
 2098 0f60 DB17     		asr	r3, r3, #31
 2099 0f62 7B64     		str	r3, [r7, #68]
1012:.\Include/arm_math.h ****                        ( ((q63_t)sum    )                                  )   ));
 2100              		.loc 2 1012 0
 2101 0f64 E023     		mov	r3, #224
 2102 0f66 9022     		mov	r2, #144
 2103 0f68 9446     		mov	ip, r2
 2104 0f6a 0822     		mov	r2, #8
 2105 0f6c 9046     		mov	r8, r2
 2106 0f6e 0822     		mov	r2, #8
 2107 0f70 9146     		mov	r9, r2
ARM GAS  C:\Users\fneves\AppData\Local\Temp\ccyl4tsw.s 			page 60


 2108 0f72 B944     		add	r9, r9, r7
 2109 0f74 C844     		add	r8, r8, r9
 2110 0f76 C444     		add	ip, ip, r8
 2111 0f78 6344     		add	r3, r3, ip
 2112 0f7a 5C68     		ldr	r4, [r3, #4]
 2113 0f7c 1B68     		ldr	r3, [r3]
1011:.\Include/arm_math.h ****                        ((((q31_t)x      ) >> 16) * (((q31_t)y << 16) >> 16)) +
 2114              		.loc 2 1011 0
 2115 0f7e 396C     		ldr	r1, [r7, #64]
 2116 0f80 7A6C     		ldr	r2, [r7, #68]
 2117 0f82 5B18     		add	r3, r3, r1
 2118 0f84 5441     		adc	r4, r4, r2
 2119              	.LBE35:
 2120              	.LBE34:
 2121              		.loc 1 234 0
 2122 0f86 AC22     		mov	r2, #172
 2123 0f88 5200     		lsl	r2, r2, #1
 2124 0f8a 9021     		mov	r1, #144
 2125 0f8c 8C46     		mov	ip, r1
 2126 0f8e 0821     		mov	r1, #8
 2127 0f90 8846     		mov	r8, r1
 2128 0f92 0821     		mov	r1, #8
 2129 0f94 8946     		mov	r9, r1
 2130 0f96 B944     		add	r9, r9, r7
 2131 0f98 C844     		add	r8, r8, r9
 2132 0f9a C444     		add	ip, ip, r8
 2133 0f9c 6244     		add	r2, r2, ip
 2134 0f9e 1360     		str	r3, [r2]
 2135 0fa0 5460     		str	r4, [r2, #4]
 235:Source\FilteringFunctions/arm_conv_partial_opt_q15.c **** 
 236:Source\FilteringFunctions/arm_conv_partial_opt_q15.c ****         /* Read next two samples from scratch1 buffer */
 237:Source\FilteringFunctions/arm_conv_partial_opt_q15.c ****         x1 = _SIMD32_OFFSET(pScr1);
 2136              		.loc 1 237 0
 2137 0fa2 A423     		mov	r3, #164
 2138 0fa4 0822     		mov	r2, #8
 2139 0fa6 9446     		mov	ip, r2
 2140 0fa8 0822     		mov	r2, #8
 2141 0faa 9046     		mov	r8, r2
 2142 0fac B844     		add	r8, r8, r7
 2143 0fae C444     		add	ip, ip, r8
 2144 0fb0 6344     		add	r3, r3, ip
 2145 0fb2 1B68     		ldr	r3, [r3]
 2146 0fb4 1B68     		ldr	r3, [r3]
 2147 0fb6 A222     		mov	r2, #162
 2148 0fb8 5200     		lsl	r2, r2, #1
 2149 0fba 9021     		mov	r1, #144
 2150 0fbc 8C46     		mov	ip, r1
 2151 0fbe 0821     		mov	r1, #8
 2152 0fc0 8846     		mov	r8, r1
 2153 0fc2 0821     		mov	r1, #8
 2154 0fc4 8946     		mov	r9, r1
 2155 0fc6 B944     		add	r9, r9, r7
 2156 0fc8 C844     		add	r8, r8, r9
 2157 0fca C444     		add	ip, ip, r8
 2158 0fcc 6244     		add	r2, r2, ip
 2159 0fce 1360     		str	r3, [r2]
 238:Source\FilteringFunctions/arm_conv_partial_opt_q15.c **** 
ARM GAS  C:\Users\fneves\AppData\Local\Temp\ccyl4tsw.s 			page 61


 239:Source\FilteringFunctions/arm_conv_partial_opt_q15.c ****         /* multiply and accumlate */
 240:Source\FilteringFunctions/arm_conv_partial_opt_q15.c ****         acc0 = __SMLALD(x2, y2, acc0);
 2160              		.loc 1 240 0
 2161 0fd0 A023     		mov	r3, #160
 2162 0fd2 5B00     		lsl	r3, r3, #1
 2163 0fd4 9022     		mov	r2, #144
 2164 0fd6 9446     		mov	ip, r2
 2165 0fd8 0822     		mov	r2, #8
 2166 0fda 9046     		mov	r8, r2
 2167 0fdc 0822     		mov	r2, #8
 2168 0fde 9146     		mov	r9, r2
 2169 0fe0 B944     		add	r9, r9, r7
 2170 0fe2 C844     		add	r8, r8, r9
 2171 0fe4 C444     		add	ip, ip, r8
 2172 0fe6 6344     		add	r3, r3, ip
 2173 0fe8 1968     		ldr	r1, [r3]
 2174 0fea 8C23     		mov	r3, #140
 2175 0fec 5B00     		lsl	r3, r3, #1
 2176 0fee 9022     		mov	r2, #144
 2177 0ff0 9446     		mov	ip, r2
 2178 0ff2 0822     		mov	r2, #8
 2179 0ff4 9046     		mov	r8, r2
 2180 0ff6 0822     		mov	r2, #8
 2181 0ff8 9146     		mov	r9, r2
 2182 0ffa B944     		add	r9, r9, r7
 2183 0ffc C844     		add	r8, r8, r9
 2184 0ffe C444     		add	ip, ip, r8
 2185 1000 6344     		add	r3, r3, ip
 2186 1002 1A68     		ldr	r2, [r3]
 2187 1004 B023     		mov	r3, #176
 2188 1006 5B00     		lsl	r3, r3, #1
 2189 1008 9020     		mov	r0, #144
 2190 100a 8446     		mov	ip, r0
 2191 100c 0820     		mov	r0, #8
 2192 100e 8046     		mov	r8, r0
 2193 1010 0820     		mov	r0, #8
 2194 1012 8146     		mov	r9, r0
 2195 1014 B944     		add	r9, r9, r7
 2196 1016 C844     		add	r8, r8, r9
 2197 1018 C444     		add	ip, ip, r8
 2198 101a 6344     		add	r3, r3, ip
 2199 101c 5C68     		ldr	r4, [r3, #4]
 2200 101e 1B68     		ldr	r3, [r3]
 2201 1020 BB60     		str	r3, [r7, #8]
 2202 1022 FC60     		str	r4, [r7, #12]
 2203 1024 DC20     		mov	r0, #220
 2204 1026 9023     		mov	r3, #144
 2205 1028 9C46     		mov	ip, r3
 2206 102a 0823     		mov	r3, #8
 2207 102c 9846     		mov	r8, r3
 2208 102e 0823     		mov	r3, #8
 2209 1030 9946     		mov	r9, r3
 2210 1032 B944     		add	r9, r9, r7
 2211 1034 C844     		add	r8, r8, r9
 2212 1036 C444     		add	ip, ip, r8
 2213 1038 6044     		add	r0, r0, ip
 2214 103a 0160     		str	r1, [r0]
ARM GAS  C:\Users\fneves\AppData\Local\Temp\ccyl4tsw.s 			page 62


 2215 103c D821     		mov	r1, #216
 2216 103e 9020     		mov	r0, #144
 2217 1040 8446     		mov	ip, r0
 2218 1042 0823     		mov	r3, #8
 2219 1044 9846     		mov	r8, r3
 2220 1046 0823     		mov	r3, #8
 2221 1048 9946     		mov	r9, r3
 2222 104a B944     		add	r9, r9, r7
 2223 104c C844     		add	r8, r8, r9
 2224 104e C444     		add	ip, ip, r8
 2225 1050 6144     		add	r1, r1, ip
 2226 1052 0A60     		str	r2, [r1]
 2227 1054 D022     		mov	r2, #208
 2228 1056 9021     		mov	r1, #144
 2229 1058 8C46     		mov	ip, r1
 2230 105a 0823     		mov	r3, #8
 2231 105c 9846     		mov	r8, r3
 2232 105e 0823     		mov	r3, #8
 2233 1060 9946     		mov	r9, r3
 2234 1062 B944     		add	r9, r9, r7
 2235 1064 C844     		add	r8, r8, r9
 2236 1066 C444     		add	ip, ip, r8
 2237 1068 6244     		add	r2, r2, ip
 2238 106a BB68     		ldr	r3, [r7, #8]
 2239 106c FC68     		ldr	r4, [r7, #12]
 2240 106e 1360     		str	r3, [r2]
 2241 1070 5460     		str	r4, [r2, #4]
 2242              	.LBB36:
 2243              	.LBB37:
 995:.\Include/arm_math.h ****                        ((((q31_t)x      ) >> 16) * (((q31_t)y      ) >> 16)) +
 2244              		.loc 2 995 0
 2245 1072 DC23     		mov	r3, #220
 2246 1074 9022     		mov	r2, #144
 2247 1076 9446     		mov	ip, r2
 2248 1078 0822     		mov	r2, #8
 2249 107a 9046     		mov	r8, r2
 2250 107c 0822     		mov	r2, #8
 2251 107e 9146     		mov	r9, r2
 2252 1080 B944     		add	r9, r9, r7
 2253 1082 C844     		add	r8, r8, r9
 2254 1084 C444     		add	ip, ip, r8
 2255 1086 6344     		add	r3, r3, ip
 2256 1088 1B68     		ldr	r3, [r3]
 2257 108a 1B04     		lsl	r3, r3, #16
 2258 108c 1A14     		asr	r2, r3, #16
 2259 108e D823     		mov	r3, #216
 2260 1090 9021     		mov	r1, #144
 2261 1092 8C46     		mov	ip, r1
 2262 1094 0821     		mov	r1, #8
 2263 1096 8846     		mov	r8, r1
 2264 1098 0821     		mov	r1, #8
 2265 109a 8946     		mov	r9, r1
 2266 109c B944     		add	r9, r9, r7
 2267 109e C844     		add	r8, r8, r9
 2268 10a0 C444     		add	ip, ip, r8
 2269 10a2 6344     		add	r3, r3, ip
 2270 10a4 1B68     		ldr	r3, [r3]
ARM GAS  C:\Users\fneves\AppData\Local\Temp\ccyl4tsw.s 			page 63


 2271 10a6 1B04     		lsl	r3, r3, #16
 2272 10a8 1B14     		asr	r3, r3, #16
 2273 10aa 5343     		mul	r3, r2
 2274 10ac 191C     		mov	r1, r3
 996:.\Include/arm_math.h ****                        ( ((q63_t)sum    )                                  )   ));
 2275              		.loc 2 996 0
 2276 10ae DC23     		mov	r3, #220
 2277 10b0 9022     		mov	r2, #144
 2278 10b2 9446     		mov	ip, r2
 2279 10b4 0822     		mov	r2, #8
 2280 10b6 9046     		mov	r8, r2
 2281 10b8 0822     		mov	r2, #8
 2282 10ba 9146     		mov	r9, r2
 2283 10bc B944     		add	r9, r9, r7
 2284 10be C844     		add	r8, r8, r9
 2285 10c0 C444     		add	ip, ip, r8
 2286 10c2 6344     		add	r3, r3, ip
 2287 10c4 1B68     		ldr	r3, [r3]
 2288 10c6 1A14     		asr	r2, r3, #16
 2289 10c8 D823     		mov	r3, #216
 2290 10ca 9020     		mov	r0, #144
 2291 10cc 8446     		mov	ip, r0
 2292 10ce 0820     		mov	r0, #8
 2293 10d0 8046     		mov	r8, r0
 2294 10d2 0820     		mov	r0, #8
 2295 10d4 8146     		mov	r9, r0
 2296 10d6 B944     		add	r9, r9, r7
 2297 10d8 C844     		add	r8, r8, r9
 2298 10da C444     		add	ip, ip, r8
 2299 10dc 6344     		add	r3, r3, ip
 2300 10de 1B68     		ldr	r3, [r3]
 2301 10e0 1B14     		asr	r3, r3, #16
 2302 10e2 5343     		mul	r3, r2
 995:.\Include/arm_math.h ****                        ((((q31_t)x      ) >> 16) * (((q31_t)y      ) >> 16)) +
 2303              		.loc 2 995 0
 2304 10e4 CB18     		add	r3, r1, r3
 996:.\Include/arm_math.h ****                        ( ((q63_t)sum    )                                  )   ));
 2305              		.loc 2 996 0
 2306 10e6 BB63     		str	r3, [r7, #56]
 2307 10e8 DB17     		asr	r3, r3, #31
 2308 10ea FB63     		str	r3, [r7, #60]
 997:.\Include/arm_math.h ****   }
 2309              		.loc 2 997 0
 2310 10ec D023     		mov	r3, #208
 2311 10ee 9022     		mov	r2, #144
 2312 10f0 9446     		mov	ip, r2
 2313 10f2 0822     		mov	r2, #8
 2314 10f4 9046     		mov	r8, r2
 2315 10f6 0822     		mov	r2, #8
 2316 10f8 9146     		mov	r9, r2
 2317 10fa B944     		add	r9, r9, r7
 2318 10fc C844     		add	r8, r8, r9
 2319 10fe C444     		add	ip, ip, r8
 2320 1100 6344     		add	r3, r3, ip
 2321 1102 5C68     		ldr	r4, [r3, #4]
 2322 1104 1B68     		ldr	r3, [r3]
 996:.\Include/arm_math.h ****                        ( ((q63_t)sum    )                                  )   ));
ARM GAS  C:\Users\fneves\AppData\Local\Temp\ccyl4tsw.s 			page 64


 2323              		.loc 2 996 0
 2324 1106 B96B     		ldr	r1, [r7, #56]
 2325 1108 FA6B     		ldr	r2, [r7, #60]
 2326 110a 5B18     		add	r3, r3, r1
 2327 110c 5441     		adc	r4, r4, r2
 2328              	.LBE37:
 2329              	.LBE36:
 2330              		.loc 1 240 0
 2331 110e B022     		mov	r2, #176
 2332 1110 5200     		lsl	r2, r2, #1
 2333 1112 9021     		mov	r1, #144
 2334 1114 8C46     		mov	ip, r1
 2335 1116 0821     		mov	r1, #8
 2336 1118 8846     		mov	r8, r1
 2337 111a 0821     		mov	r1, #8
 2338 111c 8946     		mov	r9, r1
 2339 111e B944     		add	r9, r9, r7
 2340 1120 C844     		add	r8, r8, r9
 2341 1122 C444     		add	ip, ip, r8
 2342 1124 6244     		add	r2, r2, ip
 2343 1126 1360     		str	r3, [r2]
 2344 1128 5460     		str	r4, [r2, #4]
 241:Source\FilteringFunctions/arm_conv_partial_opt_q15.c ****         acc2 = __SMLALD(x1, y2, acc2);
 2345              		.loc 1 241 0
 2346 112a A223     		mov	r3, #162
 2347 112c 5B00     		lsl	r3, r3, #1
 2348 112e 9022     		mov	r2, #144
 2349 1130 9446     		mov	ip, r2
 2350 1132 0822     		mov	r2, #8
 2351 1134 9046     		mov	r8, r2
 2352 1136 0822     		mov	r2, #8
 2353 1138 9146     		mov	r9, r2
 2354 113a B944     		add	r9, r9, r7
 2355 113c C844     		add	r8, r8, r9
 2356 113e C444     		add	ip, ip, r8
 2357 1140 6344     		add	r3, r3, ip
 2358 1142 1968     		ldr	r1, [r3]
 2359 1144 8C23     		mov	r3, #140
 2360 1146 5B00     		lsl	r3, r3, #1
 2361 1148 9022     		mov	r2, #144
 2362 114a 9446     		mov	ip, r2
 2363 114c 0822     		mov	r2, #8
 2364 114e 9046     		mov	r8, r2
 2365 1150 0822     		mov	r2, #8
 2366 1152 9146     		mov	r9, r2
 2367 1154 B944     		add	r9, r9, r7
 2368 1156 C844     		add	r8, r8, r9
 2369 1158 C444     		add	ip, ip, r8
 2370 115a 6344     		add	r3, r3, ip
 2371 115c 1A68     		ldr	r2, [r3]
 2372 115e A823     		mov	r3, #168
 2373 1160 5B00     		lsl	r3, r3, #1
 2374 1162 9020     		mov	r0, #144
 2375 1164 8446     		mov	ip, r0
 2376 1166 0820     		mov	r0, #8
 2377 1168 8046     		mov	r8, r0
 2378 116a 0820     		mov	r0, #8
ARM GAS  C:\Users\fneves\AppData\Local\Temp\ccyl4tsw.s 			page 65


 2379 116c 8146     		mov	r9, r0
 2380 116e B944     		add	r9, r9, r7
 2381 1170 C844     		add	r8, r8, r9
 2382 1172 C444     		add	ip, ip, r8
 2383 1174 6344     		add	r3, r3, ip
 2384 1176 5C68     		ldr	r4, [r3, #4]
 2385 1178 1B68     		ldr	r3, [r3]
 2386 117a BB60     		str	r3, [r7, #8]
 2387 117c FC60     		str	r4, [r7, #12]
 2388 117e CC20     		mov	r0, #204
 2389 1180 9023     		mov	r3, #144
 2390 1182 9C46     		mov	ip, r3
 2391 1184 0823     		mov	r3, #8
 2392 1186 9846     		mov	r8, r3
 2393 1188 0823     		mov	r3, #8
 2394 118a 9946     		mov	r9, r3
 2395 118c B944     		add	r9, r9, r7
 2396 118e C844     		add	r8, r8, r9
 2397 1190 C444     		add	ip, ip, r8
 2398 1192 6044     		add	r0, r0, ip
 2399 1194 0160     		str	r1, [r0]
 2400 1196 C821     		mov	r1, #200
 2401 1198 9020     		mov	r0, #144
 2402 119a 8446     		mov	ip, r0
 2403 119c 0823     		mov	r3, #8
 2404 119e 9846     		mov	r8, r3
 2405 11a0 0823     		mov	r3, #8
 2406 11a2 9946     		mov	r9, r3
 2407 11a4 B944     		add	r9, r9, r7
 2408 11a6 C844     		add	r8, r8, r9
 2409 11a8 C444     		add	ip, ip, r8
 2410 11aa 6144     		add	r1, r1, ip
 2411 11ac 0A60     		str	r2, [r1]
 2412 11ae C022     		mov	r2, #192
 2413 11b0 9021     		mov	r1, #144
 2414 11b2 8C46     		mov	ip, r1
 2415 11b4 0823     		mov	r3, #8
 2416 11b6 9846     		mov	r8, r3
 2417 11b8 0823     		mov	r3, #8
 2418 11ba 9946     		mov	r9, r3
 2419 11bc B944     		add	r9, r9, r7
 2420 11be C844     		add	r8, r8, r9
 2421 11c0 C444     		add	ip, ip, r8
 2422 11c2 6244     		add	r2, r2, ip
 2423 11c4 BB68     		ldr	r3, [r7, #8]
 2424 11c6 FC68     		ldr	r4, [r7, #12]
 2425 11c8 1360     		str	r3, [r2]
 2426 11ca 5460     		str	r4, [r2, #4]
 2427              	.LBB38:
 2428              	.LBB39:
 995:.\Include/arm_math.h ****                        ((((q31_t)x      ) >> 16) * (((q31_t)y      ) >> 16)) +
 2429              		.loc 2 995 0
 2430 11cc CC23     		mov	r3, #204
 2431 11ce 9022     		mov	r2, #144
 2432 11d0 9446     		mov	ip, r2
 2433 11d2 0822     		mov	r2, #8
 2434 11d4 9046     		mov	r8, r2
ARM GAS  C:\Users\fneves\AppData\Local\Temp\ccyl4tsw.s 			page 66


 2435 11d6 0822     		mov	r2, #8
 2436 11d8 9146     		mov	r9, r2
 2437 11da B944     		add	r9, r9, r7
 2438 11dc C844     		add	r8, r8, r9
 2439 11de C444     		add	ip, ip, r8
 2440 11e0 6344     		add	r3, r3, ip
 2441 11e2 1B68     		ldr	r3, [r3]
 2442 11e4 1B04     		lsl	r3, r3, #16
 2443 11e6 1A14     		asr	r2, r3, #16
 2444 11e8 C823     		mov	r3, #200
 2445 11ea 9021     		mov	r1, #144
 2446 11ec 8C46     		mov	ip, r1
 2447 11ee 0821     		mov	r1, #8
 2448 11f0 8846     		mov	r8, r1
 2449 11f2 0821     		mov	r1, #8
 2450 11f4 8946     		mov	r9, r1
 2451 11f6 B944     		add	r9, r9, r7
 2452 11f8 C844     		add	r8, r8, r9
 2453 11fa C444     		add	ip, ip, r8
 2454 11fc 6344     		add	r3, r3, ip
 2455 11fe 1B68     		ldr	r3, [r3]
 2456 1200 1B04     		lsl	r3, r3, #16
 2457 1202 1B14     		asr	r3, r3, #16
 2458 1204 5343     		mul	r3, r2
 2459 1206 191C     		mov	r1, r3
 996:.\Include/arm_math.h ****                        ( ((q63_t)sum    )                                  )   ));
 2460              		.loc 2 996 0
 2461 1208 CC23     		mov	r3, #204
 2462 120a 9022     		mov	r2, #144
 2463 120c 9446     		mov	ip, r2
 2464 120e 0822     		mov	r2, #8
 2465 1210 9046     		mov	r8, r2
 2466 1212 0822     		mov	r2, #8
 2467 1214 9146     		mov	r9, r2
 2468 1216 B944     		add	r9, r9, r7
 2469 1218 C844     		add	r8, r8, r9
 2470 121a C444     		add	ip, ip, r8
 2471 121c 6344     		add	r3, r3, ip
 2472 121e 1B68     		ldr	r3, [r3]
 2473 1220 1A14     		asr	r2, r3, #16
 2474 1222 C823     		mov	r3, #200
 2475 1224 9020     		mov	r0, #144
 2476 1226 8446     		mov	ip, r0
 2477 1228 0820     		mov	r0, #8
 2478 122a 8046     		mov	r8, r0
 2479 122c 0820     		mov	r0, #8
 2480 122e 8146     		mov	r9, r0
 2481 1230 B944     		add	r9, r9, r7
 2482 1232 C844     		add	r8, r8, r9
 2483 1234 C444     		add	ip, ip, r8
 2484 1236 6344     		add	r3, r3, ip
 2485 1238 1B68     		ldr	r3, [r3]
 2486 123a 1B14     		asr	r3, r3, #16
 2487 123c 5343     		mul	r3, r2
 995:.\Include/arm_math.h ****                        ((((q31_t)x      ) >> 16) * (((q31_t)y      ) >> 16)) +
 2488              		.loc 2 995 0
 2489 123e CB18     		add	r3, r1, r3
ARM GAS  C:\Users\fneves\AppData\Local\Temp\ccyl4tsw.s 			page 67


 996:.\Include/arm_math.h ****                        ( ((q63_t)sum    )                                  )   ));
 2490              		.loc 2 996 0
 2491 1240 3B63     		str	r3, [r7, #48]
 2492 1242 DB17     		asr	r3, r3, #31
 2493 1244 7B63     		str	r3, [r7, #52]
 997:.\Include/arm_math.h ****   }
 2494              		.loc 2 997 0
 2495 1246 C023     		mov	r3, #192
 2496 1248 9022     		mov	r2, #144
 2497 124a 9446     		mov	ip, r2
 2498 124c 0822     		mov	r2, #8
 2499 124e 9046     		mov	r8, r2
 2500 1250 0822     		mov	r2, #8
 2501 1252 9146     		mov	r9, r2
 2502 1254 B944     		add	r9, r9, r7
 2503 1256 C844     		add	r8, r8, r9
 2504 1258 C444     		add	ip, ip, r8
 2505 125a 6344     		add	r3, r3, ip
 2506 125c 5C68     		ldr	r4, [r3, #4]
 2507 125e 1B68     		ldr	r3, [r3]
 996:.\Include/arm_math.h ****                        ( ((q63_t)sum    )                                  )   ));
 2508              		.loc 2 996 0
 2509 1260 396B     		ldr	r1, [r7, #48]
 2510 1262 7A6B     		ldr	r2, [r7, #52]
 2511 1264 5B18     		add	r3, r3, r1
 2512 1266 5441     		adc	r4, r4, r2
 2513              	.LBE39:
 2514              	.LBE38:
 2515              		.loc 1 241 0
 2516 1268 A822     		mov	r2, #168
 2517 126a 5200     		lsl	r2, r2, #1
 2518 126c 9021     		mov	r1, #144
 2519 126e 8C46     		mov	ip, r1
 2520 1270 0821     		mov	r1, #8
 2521 1272 8846     		mov	r8, r1
 2522 1274 0821     		mov	r1, #8
 2523 1276 8946     		mov	r9, r1
 2524 1278 B944     		add	r9, r9, r7
 2525 127a C844     		add	r8, r8, r9
 2526 127c C444     		add	ip, ip, r8
 2527 127e 6244     		add	r2, r2, ip
 2528 1280 1360     		str	r3, [r2]
 2529 1282 5460     		str	r4, [r2, #4]
 242:Source\FilteringFunctions/arm_conv_partial_opt_q15.c **** 
 243:Source\FilteringFunctions/arm_conv_partial_opt_q15.c ****         /* pack input data */
 244:Source\FilteringFunctions/arm_conv_partial_opt_q15.c **** #ifndef ARM_MATH_BIG_ENDIAN
 245:Source\FilteringFunctions/arm_conv_partial_opt_q15.c ****         x3 = __PKHBT(x1, x2, 0);
 2530              		.loc 1 245 0
 2531 1284 A223     		mov	r3, #162
 2532 1286 5B00     		lsl	r3, r3, #1
 2533 1288 9022     		mov	r2, #144
 2534 128a 9446     		mov	ip, r2
 2535 128c 0822     		mov	r2, #8
 2536 128e 9046     		mov	r8, r2
 2537 1290 0822     		mov	r2, #8
 2538 1292 9146     		mov	r9, r2
 2539 1294 B944     		add	r9, r9, r7
ARM GAS  C:\Users\fneves\AppData\Local\Temp\ccyl4tsw.s 			page 68


 2540 1296 C844     		add	r8, r8, r9
 2541 1298 C444     		add	ip, ip, r8
 2542 129a 6344     		add	r3, r3, ip
 2543 129c 1B68     		ldr	r3, [r3]
 2544 129e 1B04     		lsl	r3, r3, #16
 2545 12a0 1A0C     		lsr	r2, r3, #16
 2546 12a2 A023     		mov	r3, #160
 2547 12a4 5B00     		lsl	r3, r3, #1
 2548 12a6 9021     		mov	r1, #144
 2549 12a8 8C46     		mov	ip, r1
 2550 12aa 0821     		mov	r1, #8
 2551 12ac 8846     		mov	r8, r1
 2552 12ae 0821     		mov	r1, #8
 2553 12b0 8946     		mov	r9, r1
 2554 12b2 B944     		add	r9, r9, r7
 2555 12b4 C844     		add	r8, r8, r9
 2556 12b6 C444     		add	ip, ip, r8
 2557 12b8 6344     		add	r3, r3, ip
 2558 12ba 1B68     		ldr	r3, [r3]
 2559 12bc 1B0C     		lsr	r3, r3, #16
 2560 12be 1B04     		lsl	r3, r3, #16
 2561 12c0 1343     		orr	r3, r2
 2562 12c2 8A22     		mov	r2, #138
 2563 12c4 5200     		lsl	r2, r2, #1
 2564 12c6 9021     		mov	r1, #144
 2565 12c8 8C46     		mov	ip, r1
 2566 12ca 0821     		mov	r1, #8
 2567 12cc 8846     		mov	r8, r1
 2568 12ce 0821     		mov	r1, #8
 2569 12d0 8946     		mov	r9, r1
 2570 12d2 B944     		add	r9, r9, r7
 2571 12d4 C844     		add	r8, r8, r9
 2572 12d6 C444     		add	ip, ip, r8
 2573 12d8 6244     		add	r2, r2, ip
 2574 12da 1360     		str	r3, [r2]
 246:Source\FilteringFunctions/arm_conv_partial_opt_q15.c **** #else
 247:Source\FilteringFunctions/arm_conv_partial_opt_q15.c ****         x3 = __PKHBT(x2, x1, 0);
 248:Source\FilteringFunctions/arm_conv_partial_opt_q15.c **** #endif
 249:Source\FilteringFunctions/arm_conv_partial_opt_q15.c **** 
 250:Source\FilteringFunctions/arm_conv_partial_opt_q15.c ****         acc3 = __SMLALDX(x3, y1, acc3);
 2575              		.loc 1 250 0
 2576 12dc 8A23     		mov	r3, #138
 2577 12de 5B00     		lsl	r3, r3, #1
 2578 12e0 9022     		mov	r2, #144
 2579 12e2 9446     		mov	ip, r2
 2580 12e4 0822     		mov	r2, #8
 2581 12e6 9046     		mov	r8, r2
 2582 12e8 0822     		mov	r2, #8
 2583 12ea 9146     		mov	r9, r2
 2584 12ec B944     		add	r9, r9, r7
 2585 12ee C844     		add	r8, r8, r9
 2586 12f0 C444     		add	ip, ip, r8
 2587 12f2 6344     		add	r3, r3, ip
 2588 12f4 1968     		ldr	r1, [r3]
 2589 12f6 8E23     		mov	r3, #142
 2590 12f8 5B00     		lsl	r3, r3, #1
 2591 12fa 9022     		mov	r2, #144
ARM GAS  C:\Users\fneves\AppData\Local\Temp\ccyl4tsw.s 			page 69


 2592 12fc 9446     		mov	ip, r2
 2593 12fe 0822     		mov	r2, #8
 2594 1300 9046     		mov	r8, r2
 2595 1302 0822     		mov	r2, #8
 2596 1304 9146     		mov	r9, r2
 2597 1306 B944     		add	r9, r9, r7
 2598 1308 C844     		add	r8, r8, r9
 2599 130a C444     		add	ip, ip, r8
 2600 130c 6344     		add	r3, r3, ip
 2601 130e 1A68     		ldr	r2, [r3]
 2602 1310 A423     		mov	r3, #164
 2603 1312 5B00     		lsl	r3, r3, #1
 2604 1314 9020     		mov	r0, #144
 2605 1316 8446     		mov	ip, r0
 2606 1318 0820     		mov	r0, #8
 2607 131a 8046     		mov	r8, r0
 2608 131c 0820     		mov	r0, #8
 2609 131e 8146     		mov	r9, r0
 2610 1320 B944     		add	r9, r9, r7
 2611 1322 C844     		add	r8, r8, r9
 2612 1324 C444     		add	ip, ip, r8
 2613 1326 6344     		add	r3, r3, ip
 2614 1328 5C68     		ldr	r4, [r3, #4]
 2615 132a 1B68     		ldr	r3, [r3]
 2616 132c BB60     		str	r3, [r7, #8]
 2617 132e FC60     		str	r4, [r7, #12]
 2618 1330 BC20     		mov	r0, #188
 2619 1332 9023     		mov	r3, #144
 2620 1334 9C46     		mov	ip, r3
 2621 1336 0823     		mov	r3, #8
 2622 1338 9846     		mov	r8, r3
 2623 133a 0823     		mov	r3, #8
 2624 133c 9946     		mov	r9, r3
 2625 133e B944     		add	r9, r9, r7
 2626 1340 C844     		add	r8, r8, r9
 2627 1342 C444     		add	ip, ip, r8
 2628 1344 6044     		add	r0, r0, ip
 2629 1346 0160     		str	r1, [r0]
 2630 1348 B821     		mov	r1, #184
 2631 134a 9020     		mov	r0, #144
 2632 134c 8446     		mov	ip, r0
 2633 134e 0823     		mov	r3, #8
 2634 1350 9846     		mov	r8, r3
 2635 1352 0823     		mov	r3, #8
 2636 1354 9946     		mov	r9, r3
 2637 1356 B944     		add	r9, r9, r7
 2638 1358 C844     		add	r8, r8, r9
 2639 135a C444     		add	ip, ip, r8
 2640 135c 6144     		add	r1, r1, ip
 2641 135e 0A60     		str	r2, [r1]
 2642 1360 B022     		mov	r2, #176
 2643 1362 9021     		mov	r1, #144
 2644 1364 8C46     		mov	ip, r1
 2645 1366 0823     		mov	r3, #8
 2646 1368 9846     		mov	r8, r3
 2647 136a 0823     		mov	r3, #8
 2648 136c 9946     		mov	r9, r3
ARM GAS  C:\Users\fneves\AppData\Local\Temp\ccyl4tsw.s 			page 70


 2649 136e B944     		add	r9, r9, r7
 2650 1370 C844     		add	r8, r8, r9
 2651 1372 C444     		add	ip, ip, r8
 2652 1374 6244     		add	r2, r2, ip
 2653 1376 BB68     		ldr	r3, [r7, #8]
 2654 1378 FC68     		ldr	r4, [r7, #12]
 2655 137a 1360     		str	r3, [r2]
 2656 137c 5460     		str	r4, [r2, #4]
 2657              	.LBB40:
 2658              	.LBB41:
1010:.\Include/arm_math.h ****                        ((((q31_t)x      ) >> 16) * (((q31_t)y << 16) >> 16)) +
 2659              		.loc 2 1010 0
 2660 137e BC23     		mov	r3, #188
 2661 1380 9022     		mov	r2, #144
 2662 1382 9446     		mov	ip, r2
 2663 1384 0822     		mov	r2, #8
 2664 1386 9046     		mov	r8, r2
 2665 1388 0822     		mov	r2, #8
 2666 138a 9146     		mov	r9, r2
 2667 138c B944     		add	r9, r9, r7
 2668 138e C844     		add	r8, r8, r9
 2669 1390 C444     		add	ip, ip, r8
 2670 1392 6344     		add	r3, r3, ip
 2671 1394 1B68     		ldr	r3, [r3]
 2672 1396 1B04     		lsl	r3, r3, #16
 2673 1398 1A14     		asr	r2, r3, #16
 2674 139a B823     		mov	r3, #184
 2675 139c 9021     		mov	r1, #144
 2676 139e 8C46     		mov	ip, r1
 2677 13a0 0821     		mov	r1, #8
 2678 13a2 8846     		mov	r8, r1
 2679 13a4 0821     		mov	r1, #8
 2680 13a6 8946     		mov	r9, r1
 2681 13a8 B944     		add	r9, r9, r7
 2682 13aa C844     		add	r8, r8, r9
 2683 13ac C444     		add	ip, ip, r8
 2684 13ae 6344     		add	r3, r3, ip
 2685 13b0 1B68     		ldr	r3, [r3]
 2686 13b2 1B14     		asr	r3, r3, #16
 2687 13b4 5343     		mul	r3, r2
 2688 13b6 191C     		mov	r1, r3
1011:.\Include/arm_math.h ****                        ( ((q63_t)sum    )                                  )   ));
 2689              		.loc 2 1011 0
 2690 13b8 BC23     		mov	r3, #188
 2691 13ba 9022     		mov	r2, #144
 2692 13bc 9446     		mov	ip, r2
 2693 13be 0822     		mov	r2, #8
 2694 13c0 9046     		mov	r8, r2
 2695 13c2 0822     		mov	r2, #8
 2696 13c4 9146     		mov	r9, r2
 2697 13c6 B944     		add	r9, r9, r7
 2698 13c8 C844     		add	r8, r8, r9
 2699 13ca C444     		add	ip, ip, r8
 2700 13cc 6344     		add	r3, r3, ip
 2701 13ce 1B68     		ldr	r3, [r3]
 2702 13d0 1A14     		asr	r2, r3, #16
 2703 13d2 B823     		mov	r3, #184
ARM GAS  C:\Users\fneves\AppData\Local\Temp\ccyl4tsw.s 			page 71


 2704 13d4 9020     		mov	r0, #144
 2705 13d6 8446     		mov	ip, r0
 2706 13d8 0820     		mov	r0, #8
 2707 13da 8046     		mov	r8, r0
 2708 13dc 0820     		mov	r0, #8
 2709 13de 8146     		mov	r9, r0
 2710 13e0 B944     		add	r9, r9, r7
 2711 13e2 C844     		add	r8, r8, r9
 2712 13e4 C444     		add	ip, ip, r8
 2713 13e6 6344     		add	r3, r3, ip
 2714 13e8 1B68     		ldr	r3, [r3]
 2715 13ea 1B04     		lsl	r3, r3, #16
 2716 13ec 1B14     		asr	r3, r3, #16
 2717 13ee 5343     		mul	r3, r2
1010:.\Include/arm_math.h ****                        ((((q31_t)x      ) >> 16) * (((q31_t)y << 16) >> 16)) +
 2718              		.loc 2 1010 0
 2719 13f0 CB18     		add	r3, r1, r3
1011:.\Include/arm_math.h ****                        ( ((q63_t)sum    )                                  )   ));
 2720              		.loc 2 1011 0
 2721 13f2 BB62     		str	r3, [r7, #40]
 2722 13f4 DB17     		asr	r3, r3, #31
 2723 13f6 FB62     		str	r3, [r7, #44]
 2724              		.loc 2 1012 0
 2725 13f8 B023     		mov	r3, #176
 2726 13fa 9022     		mov	r2, #144
 2727 13fc 9446     		mov	ip, r2
 2728 13fe 0822     		mov	r2, #8
 2729 1400 9046     		mov	r8, r2
 2730 1402 0822     		mov	r2, #8
 2731 1404 9146     		mov	r9, r2
 2732 1406 B944     		add	r9, r9, r7
 2733 1408 C844     		add	r8, r8, r9
 2734 140a C444     		add	ip, ip, r8
 2735 140c 6344     		add	r3, r3, ip
 2736 140e 5C68     		ldr	r4, [r3, #4]
 2737 1410 1B68     		ldr	r3, [r3]
1011:.\Include/arm_math.h ****                        ( ((q63_t)sum    )                                  )   ));
 2738              		.loc 2 1011 0
 2739 1412 B96A     		ldr	r1, [r7, #40]
 2740 1414 FA6A     		ldr	r2, [r7, #44]
 2741 1416 5B18     		add	r3, r3, r1
 2742 1418 5441     		adc	r4, r4, r2
 2743              	.LBE41:
 2744              	.LBE40:
 2745              		.loc 1 250 0
 2746 141a A422     		mov	r2, #164
 2747 141c 5200     		lsl	r2, r2, #1
 2748 141e 9021     		mov	r1, #144
 2749 1420 8C46     		mov	ip, r1
 2750 1422 0821     		mov	r1, #8
 2751 1424 8846     		mov	r8, r1
 2752 1426 0821     		mov	r1, #8
 2753 1428 8946     		mov	r9, r1
 2754 142a B944     		add	r9, r9, r7
 2755 142c C844     		add	r8, r8, r9
 2756 142e C444     		add	ip, ip, r8
 2757 1430 6244     		add	r2, r2, ip
ARM GAS  C:\Users\fneves\AppData\Local\Temp\ccyl4tsw.s 			page 72


 2758 1432 1360     		str	r3, [r2]
 2759 1434 5460     		str	r4, [r2, #4]
 251:Source\FilteringFunctions/arm_conv_partial_opt_q15.c ****         acc1 = __SMLALDX(x3, y2, acc1);
 2760              		.loc 1 251 0
 2761 1436 8A23     		mov	r3, #138
 2762 1438 5B00     		lsl	r3, r3, #1
 2763 143a 9022     		mov	r2, #144
 2764 143c 9446     		mov	ip, r2
 2765 143e 0822     		mov	r2, #8
 2766 1440 9046     		mov	r8, r2
 2767 1442 0822     		mov	r2, #8
 2768 1444 9146     		mov	r9, r2
 2769 1446 B944     		add	r9, r9, r7
 2770 1448 C844     		add	r8, r8, r9
 2771 144a C444     		add	ip, ip, r8
 2772 144c 6344     		add	r3, r3, ip
 2773 144e 1968     		ldr	r1, [r3]
 2774 1450 8C23     		mov	r3, #140
 2775 1452 5B00     		lsl	r3, r3, #1
 2776 1454 9022     		mov	r2, #144
 2777 1456 9446     		mov	ip, r2
 2778 1458 0822     		mov	r2, #8
 2779 145a 9046     		mov	r8, r2
 2780 145c 0822     		mov	r2, #8
 2781 145e 9146     		mov	r9, r2
 2782 1460 B944     		add	r9, r9, r7
 2783 1462 C844     		add	r8, r8, r9
 2784 1464 C444     		add	ip, ip, r8
 2785 1466 6344     		add	r3, r3, ip
 2786 1468 1A68     		ldr	r2, [r3]
 2787 146a AC23     		mov	r3, #172
 2788 146c 5B00     		lsl	r3, r3, #1
 2789 146e 9020     		mov	r0, #144
 2790 1470 8446     		mov	ip, r0
 2791 1472 0820     		mov	r0, #8
 2792 1474 8046     		mov	r8, r0
 2793 1476 0820     		mov	r0, #8
 2794 1478 8146     		mov	r9, r0
 2795 147a B944     		add	r9, r9, r7
 2796 147c C844     		add	r8, r8, r9
 2797 147e C444     		add	ip, ip, r8
 2798 1480 6344     		add	r3, r3, ip
 2799 1482 5C68     		ldr	r4, [r3, #4]
 2800 1484 1B68     		ldr	r3, [r3]
 2801 1486 BB60     		str	r3, [r7, #8]
 2802 1488 FC60     		str	r4, [r7, #12]
 2803 148a AC20     		mov	r0, #172
 2804 148c 9023     		mov	r3, #144
 2805 148e 9C46     		mov	ip, r3
 2806 1490 0823     		mov	r3, #8
 2807 1492 9846     		mov	r8, r3
 2808 1494 0823     		mov	r3, #8
 2809 1496 9946     		mov	r9, r3
 2810 1498 B944     		add	r9, r9, r7
 2811 149a C844     		add	r8, r8, r9
 2812 149c C444     		add	ip, ip, r8
 2813 149e 6044     		add	r0, r0, ip
ARM GAS  C:\Users\fneves\AppData\Local\Temp\ccyl4tsw.s 			page 73


 2814 14a0 0160     		str	r1, [r0]
 2815 14a2 A821     		mov	r1, #168
 2816 14a4 9020     		mov	r0, #144
 2817 14a6 8446     		mov	ip, r0
 2818 14a8 0823     		mov	r3, #8
 2819 14aa 9846     		mov	r8, r3
 2820 14ac 0823     		mov	r3, #8
 2821 14ae 9946     		mov	r9, r3
 2822 14b0 B944     		add	r9, r9, r7
 2823 14b2 C844     		add	r8, r8, r9
 2824 14b4 C444     		add	ip, ip, r8
 2825 14b6 6144     		add	r1, r1, ip
 2826 14b8 0A60     		str	r2, [r1]
 2827 14ba A022     		mov	r2, #160
 2828 14bc 9021     		mov	r1, #144
 2829 14be 8C46     		mov	ip, r1
 2830 14c0 0823     		mov	r3, #8
 2831 14c2 9846     		mov	r8, r3
 2832 14c4 0823     		mov	r3, #8
 2833 14c6 9946     		mov	r9, r3
 2834 14c8 B944     		add	r9, r9, r7
 2835 14ca C844     		add	r8, r8, r9
 2836 14cc C444     		add	ip, ip, r8
 2837 14ce 6244     		add	r2, r2, ip
 2838 14d0 BB68     		ldr	r3, [r7, #8]
 2839 14d2 FC68     		ldr	r4, [r7, #12]
 2840 14d4 1360     		str	r3, [r2]
 2841 14d6 5460     		str	r4, [r2, #4]
 2842              	.LBB42:
 2843              	.LBB43:
1010:.\Include/arm_math.h ****                        ((((q31_t)x      ) >> 16) * (((q31_t)y << 16) >> 16)) +
 2844              		.loc 2 1010 0
 2845 14d8 AC23     		mov	r3, #172
 2846 14da 9022     		mov	r2, #144
 2847 14dc 9446     		mov	ip, r2
 2848 14de 0822     		mov	r2, #8
 2849 14e0 9046     		mov	r8, r2
 2850 14e2 0822     		mov	r2, #8
 2851 14e4 9146     		mov	r9, r2
 2852 14e6 B944     		add	r9, r9, r7
 2853 14e8 C844     		add	r8, r8, r9
 2854 14ea C444     		add	ip, ip, r8
 2855 14ec 6344     		add	r3, r3, ip
 2856 14ee 1B68     		ldr	r3, [r3]
 2857 14f0 1B04     		lsl	r3, r3, #16
 2858 14f2 1A14     		asr	r2, r3, #16
 2859 14f4 A823     		mov	r3, #168
 2860 14f6 9021     		mov	r1, #144
 2861 14f8 8C46     		mov	ip, r1
 2862 14fa 0821     		mov	r1, #8
 2863 14fc 8846     		mov	r8, r1
 2864 14fe 0821     		mov	r1, #8
 2865 1500 8946     		mov	r9, r1
 2866 1502 B944     		add	r9, r9, r7
 2867 1504 C844     		add	r8, r8, r9
 2868 1506 C444     		add	ip, ip, r8
 2869 1508 6344     		add	r3, r3, ip
ARM GAS  C:\Users\fneves\AppData\Local\Temp\ccyl4tsw.s 			page 74


 2870 150a 1B68     		ldr	r3, [r3]
 2871 150c 1B14     		asr	r3, r3, #16
 2872 150e 5343     		mul	r3, r2
 2873 1510 191C     		mov	r1, r3
1011:.\Include/arm_math.h ****                        ( ((q63_t)sum    )                                  )   ));
 2874              		.loc 2 1011 0
 2875 1512 AC23     		mov	r3, #172
 2876 1514 9022     		mov	r2, #144
 2877 1516 9446     		mov	ip, r2
 2878 1518 0822     		mov	r2, #8
 2879 151a 9046     		mov	r8, r2
 2880 151c 0822     		mov	r2, #8
 2881 151e 9146     		mov	r9, r2
 2882 1520 B944     		add	r9, r9, r7
 2883 1522 C844     		add	r8, r8, r9
 2884 1524 C444     		add	ip, ip, r8
 2885 1526 6344     		add	r3, r3, ip
 2886 1528 1B68     		ldr	r3, [r3]
 2887 152a 1A14     		asr	r2, r3, #16
 2888 152c A823     		mov	r3, #168
 2889 152e 9020     		mov	r0, #144
 2890 1530 8446     		mov	ip, r0
 2891 1532 0820     		mov	r0, #8
 2892 1534 8046     		mov	r8, r0
 2893 1536 0820     		mov	r0, #8
 2894 1538 8146     		mov	r9, r0
 2895 153a B944     		add	r9, r9, r7
 2896 153c C844     		add	r8, r8, r9
 2897 153e C444     		add	ip, ip, r8
 2898 1540 6344     		add	r3, r3, ip
 2899 1542 1B68     		ldr	r3, [r3]
 2900 1544 1B04     		lsl	r3, r3, #16
 2901 1546 1B14     		asr	r3, r3, #16
 2902 1548 5343     		mul	r3, r2
1010:.\Include/arm_math.h ****                        ((((q31_t)x      ) >> 16) * (((q31_t)y << 16) >> 16)) +
 2903              		.loc 2 1010 0
 2904 154a CB18     		add	r3, r1, r3
1011:.\Include/arm_math.h ****                        ( ((q63_t)sum    )                                  )   ));
 2905              		.loc 2 1011 0
 2906 154c 3B62     		str	r3, [r7, #32]
 2907 154e DB17     		asr	r3, r3, #31
 2908 1550 7B62     		str	r3, [r7, #36]
 2909              		.loc 2 1012 0
 2910 1552 A023     		mov	r3, #160
 2911 1554 9022     		mov	r2, #144
 2912 1556 9446     		mov	ip, r2
 2913 1558 0822     		mov	r2, #8
 2914 155a 9046     		mov	r8, r2
 2915 155c 0822     		mov	r2, #8
 2916 155e 9146     		mov	r9, r2
 2917 1560 B944     		add	r9, r9, r7
 2918 1562 C844     		add	r8, r8, r9
 2919 1564 C444     		add	ip, ip, r8
 2920 1566 6344     		add	r3, r3, ip
 2921 1568 5C68     		ldr	r4, [r3, #4]
 2922 156a 1B68     		ldr	r3, [r3]
1011:.\Include/arm_math.h ****                        ( ((q63_t)sum    )                                  )   ));
ARM GAS  C:\Users\fneves\AppData\Local\Temp\ccyl4tsw.s 			page 75


 2923              		.loc 2 1011 0
 2924 156c 396A     		ldr	r1, [r7, #32]
 2925 156e 7A6A     		ldr	r2, [r7, #36]
 2926 1570 5B18     		add	r3, r3, r1
 2927 1572 5441     		adc	r4, r4, r2
 2928              	.LBE43:
 2929              	.LBE42:
 2930              		.loc 1 251 0
 2931 1574 AC22     		mov	r2, #172
 2932 1576 5200     		lsl	r2, r2, #1
 2933 1578 9021     		mov	r1, #144
 2934 157a 8C46     		mov	ip, r1
 2935 157c 0821     		mov	r1, #8
 2936 157e 8846     		mov	r8, r1
 2937 1580 0821     		mov	r1, #8
 2938 1582 8946     		mov	r9, r1
 2939 1584 B944     		add	r9, r9, r7
 2940 1586 C844     		add	r8, r8, r9
 2941 1588 C444     		add	ip, ip, r8
 2942 158a 6244     		add	r2, r2, ip
 2943 158c 1360     		str	r3, [r2]
 2944 158e 5460     		str	r4, [r2, #4]
 252:Source\FilteringFunctions/arm_conv_partial_opt_q15.c **** 
 253:Source\FilteringFunctions/arm_conv_partial_opt_q15.c ****         x2 = _SIMD32_OFFSET(pScr1 + 2u);
 2945              		.loc 1 253 0
 2946 1590 A423     		mov	r3, #164
 2947 1592 0822     		mov	r2, #8
 2948 1594 9446     		mov	ip, r2
 2949 1596 0822     		mov	r2, #8
 2950 1598 9046     		mov	r8, r2
 2951 159a B844     		add	r8, r8, r7
 2952 159c C444     		add	ip, ip, r8
 2953 159e 6344     		add	r3, r3, ip
 2954 15a0 1B68     		ldr	r3, [r3]
 2955 15a2 5B68     		ldr	r3, [r3, #4]
 2956 15a4 A022     		mov	r2, #160
 2957 15a6 5200     		lsl	r2, r2, #1
 2958 15a8 9021     		mov	r1, #144
 2959 15aa 8C46     		mov	ip, r1
 2960 15ac 0821     		mov	r1, #8
 2961 15ae 8846     		mov	r8, r1
 2962 15b0 0821     		mov	r1, #8
 2963 15b2 8946     		mov	r9, r1
 2964 15b4 B944     		add	r9, r9, r7
 2965 15b6 C844     		add	r8, r8, r9
 2966 15b8 C444     		add	ip, ip, r8
 2967 15ba 6244     		add	r2, r2, ip
 2968 15bc 1360     		str	r3, [r2]
 254:Source\FilteringFunctions/arm_conv_partial_opt_q15.c **** 
 255:Source\FilteringFunctions/arm_conv_partial_opt_q15.c **** #ifndef ARM_MATH_BIG_ENDIAN
 256:Source\FilteringFunctions/arm_conv_partial_opt_q15.c ****         x3 = __PKHBT(x2, x1, 0);
 2969              		.loc 1 256 0
 2970 15be A023     		mov	r3, #160
 2971 15c0 5B00     		lsl	r3, r3, #1
 2972 15c2 9022     		mov	r2, #144
 2973 15c4 9446     		mov	ip, r2
 2974 15c6 0822     		mov	r2, #8
ARM GAS  C:\Users\fneves\AppData\Local\Temp\ccyl4tsw.s 			page 76


 2975 15c8 9046     		mov	r8, r2
 2976 15ca 0822     		mov	r2, #8
 2977 15cc 9146     		mov	r9, r2
 2978 15ce B944     		add	r9, r9, r7
 2979 15d0 C844     		add	r8, r8, r9
 2980 15d2 C444     		add	ip, ip, r8
 2981 15d4 6344     		add	r3, r3, ip
 2982 15d6 1B68     		ldr	r3, [r3]
 2983 15d8 1B04     		lsl	r3, r3, #16
 2984 15da 1A0C     		lsr	r2, r3, #16
 2985 15dc A223     		mov	r3, #162
 2986 15de 5B00     		lsl	r3, r3, #1
 2987 15e0 9021     		mov	r1, #144
 2988 15e2 8C46     		mov	ip, r1
 2989 15e4 0821     		mov	r1, #8
 2990 15e6 8846     		mov	r8, r1
 2991 15e8 0821     		mov	r1, #8
 2992 15ea 8946     		mov	r9, r1
 2993 15ec B944     		add	r9, r9, r7
 2994 15ee C844     		add	r8, r8, r9
 2995 15f0 C444     		add	ip, ip, r8
 2996 15f2 6344     		add	r3, r3, ip
 2997 15f4 1B68     		ldr	r3, [r3]
 2998 15f6 1B0C     		lsr	r3, r3, #16
 2999 15f8 1B04     		lsl	r3, r3, #16
 3000 15fa 1343     		orr	r3, r2
 3001 15fc 8A22     		mov	r2, #138
 3002 15fe 5200     		lsl	r2, r2, #1
 3003 1600 9021     		mov	r1, #144
 3004 1602 8C46     		mov	ip, r1
 3005 1604 0821     		mov	r1, #8
 3006 1606 8846     		mov	r8, r1
 3007 1608 0821     		mov	r1, #8
 3008 160a 8946     		mov	r9, r1
 3009 160c B944     		add	r9, r9, r7
 3010 160e C844     		add	r8, r8, r9
 3011 1610 C444     		add	ip, ip, r8
 3012 1612 6244     		add	r2, r2, ip
 3013 1614 1360     		str	r3, [r2]
 257:Source\FilteringFunctions/arm_conv_partial_opt_q15.c **** #else
 258:Source\FilteringFunctions/arm_conv_partial_opt_q15.c ****         x3 = __PKHBT(x1, x2, 0);
 259:Source\FilteringFunctions/arm_conv_partial_opt_q15.c **** #endif
 260:Source\FilteringFunctions/arm_conv_partial_opt_q15.c **** 
 261:Source\FilteringFunctions/arm_conv_partial_opt_q15.c ****         acc3 = __SMLALDX(x3, y2, acc3);
 3014              		.loc 1 261 0
 3015 1616 8A23     		mov	r3, #138
 3016 1618 5B00     		lsl	r3, r3, #1
 3017 161a 9022     		mov	r2, #144
 3018 161c 9446     		mov	ip, r2
 3019 161e 0822     		mov	r2, #8
 3020 1620 9046     		mov	r8, r2
 3021 1622 0822     		mov	r2, #8
 3022 1624 9146     		mov	r9, r2
 3023 1626 B944     		add	r9, r9, r7
 3024 1628 C844     		add	r8, r8, r9
 3025 162a C444     		add	ip, ip, r8
 3026 162c 6344     		add	r3, r3, ip
ARM GAS  C:\Users\fneves\AppData\Local\Temp\ccyl4tsw.s 			page 77


 3027 162e 1968     		ldr	r1, [r3]
 3028 1630 8C23     		mov	r3, #140
 3029 1632 5B00     		lsl	r3, r3, #1
 3030 1634 9022     		mov	r2, #144
 3031 1636 9446     		mov	ip, r2
 3032 1638 0822     		mov	r2, #8
 3033 163a 9046     		mov	r8, r2
 3034 163c 0822     		mov	r2, #8
 3035 163e 9146     		mov	r9, r2
 3036 1640 B944     		add	r9, r9, r7
 3037 1642 C844     		add	r8, r8, r9
 3038 1644 C444     		add	ip, ip, r8
 3039 1646 6344     		add	r3, r3, ip
 3040 1648 1A68     		ldr	r2, [r3]
 3041 164a A423     		mov	r3, #164
 3042 164c 5B00     		lsl	r3, r3, #1
 3043 164e 9020     		mov	r0, #144
 3044 1650 8446     		mov	ip, r0
 3045 1652 0820     		mov	r0, #8
 3046 1654 8046     		mov	r8, r0
 3047 1656 0820     		mov	r0, #8
 3048 1658 8146     		mov	r9, r0
 3049 165a B944     		add	r9, r9, r7
 3050 165c C844     		add	r8, r8, r9
 3051 165e C444     		add	ip, ip, r8
 3052 1660 6344     		add	r3, r3, ip
 3053 1662 5C68     		ldr	r4, [r3, #4]
 3054 1664 1B68     		ldr	r3, [r3]
 3055 1666 BB60     		str	r3, [r7, #8]
 3056 1668 FC60     		str	r4, [r7, #12]
 3057 166a 9C20     		mov	r0, #156
 3058 166c 9023     		mov	r3, #144
 3059 166e 9C46     		mov	ip, r3
 3060 1670 0823     		mov	r3, #8
 3061 1672 9846     		mov	r8, r3
 3062 1674 0823     		mov	r3, #8
 3063 1676 9946     		mov	r9, r3
 3064 1678 B944     		add	r9, r9, r7
 3065 167a C844     		add	r8, r8, r9
 3066 167c C444     		add	ip, ip, r8
 3067 167e 6044     		add	r0, r0, ip
 3068 1680 0160     		str	r1, [r0]
 3069 1682 9821     		mov	r1, #152
 3070 1684 9020     		mov	r0, #144
 3071 1686 8446     		mov	ip, r0
 3072 1688 0823     		mov	r3, #8
 3073 168a 9846     		mov	r8, r3
 3074 168c 0823     		mov	r3, #8
 3075 168e 9946     		mov	r9, r3
 3076 1690 B944     		add	r9, r9, r7
 3077 1692 C844     		add	r8, r8, r9
 3078 1694 C444     		add	ip, ip, r8
 3079 1696 6144     		add	r1, r1, ip
 3080 1698 0A60     		str	r2, [r1]
 3081 169a 9022     		mov	r2, #144
 3082 169c 9021     		mov	r1, #144
 3083 169e 8C46     		mov	ip, r1
ARM GAS  C:\Users\fneves\AppData\Local\Temp\ccyl4tsw.s 			page 78


 3084 16a0 0823     		mov	r3, #8
 3085 16a2 9846     		mov	r8, r3
 3086 16a4 0823     		mov	r3, #8
 3087 16a6 9946     		mov	r9, r3
 3088 16a8 B944     		add	r9, r9, r7
 3089 16aa C844     		add	r8, r8, r9
 3090 16ac C444     		add	ip, ip, r8
 3091 16ae 6244     		add	r2, r2, ip
 3092 16b0 BB68     		ldr	r3, [r7, #8]
 3093 16b2 FC68     		ldr	r4, [r7, #12]
 3094 16b4 1360     		str	r3, [r2]
 3095 16b6 5460     		str	r4, [r2, #4]
 3096              	.LBB44:
 3097              	.LBB45:
1010:.\Include/arm_math.h ****                        ((((q31_t)x      ) >> 16) * (((q31_t)y << 16) >> 16)) +
 3098              		.loc 2 1010 0
 3099 16b8 9C23     		mov	r3, #156
 3100 16ba 9022     		mov	r2, #144
 3101 16bc 9446     		mov	ip, r2
 3102 16be 0822     		mov	r2, #8
 3103 16c0 9046     		mov	r8, r2
 3104 16c2 0822     		mov	r2, #8
 3105 16c4 9146     		mov	r9, r2
 3106 16c6 B944     		add	r9, r9, r7
 3107 16c8 C844     		add	r8, r8, r9
 3108 16ca C444     		add	ip, ip, r8
 3109 16cc 6344     		add	r3, r3, ip
 3110 16ce 1B68     		ldr	r3, [r3]
 3111 16d0 1B04     		lsl	r3, r3, #16
 3112 16d2 1A14     		asr	r2, r3, #16
 3113 16d4 9823     		mov	r3, #152
 3114 16d6 9021     		mov	r1, #144
 3115 16d8 8C46     		mov	ip, r1
 3116 16da 0821     		mov	r1, #8
 3117 16dc 8846     		mov	r8, r1
 3118 16de 0821     		mov	r1, #8
 3119 16e0 8946     		mov	r9, r1
 3120 16e2 B944     		add	r9, r9, r7
 3121 16e4 C844     		add	r8, r8, r9
 3122 16e6 C444     		add	ip, ip, r8
 3123 16e8 6344     		add	r3, r3, ip
 3124 16ea 1B68     		ldr	r3, [r3]
 3125 16ec 1B14     		asr	r3, r3, #16
 3126 16ee 5343     		mul	r3, r2
 3127 16f0 191C     		mov	r1, r3
1011:.\Include/arm_math.h ****                        ( ((q63_t)sum    )                                  )   ));
 3128              		.loc 2 1011 0
 3129 16f2 9C23     		mov	r3, #156
 3130 16f4 9022     		mov	r2, #144
 3131 16f6 9446     		mov	ip, r2
 3132 16f8 0822     		mov	r2, #8
 3133 16fa 9046     		mov	r8, r2
 3134 16fc 0822     		mov	r2, #8
 3135 16fe 9146     		mov	r9, r2
 3136 1700 B944     		add	r9, r9, r7
 3137 1702 C844     		add	r8, r8, r9
 3138 1704 C444     		add	ip, ip, r8
ARM GAS  C:\Users\fneves\AppData\Local\Temp\ccyl4tsw.s 			page 79


 3139 1706 6344     		add	r3, r3, ip
 3140 1708 1B68     		ldr	r3, [r3]
 3141 170a 1A14     		asr	r2, r3, #16
 3142 170c 9823     		mov	r3, #152
 3143 170e 9020     		mov	r0, #144
 3144 1710 8446     		mov	ip, r0
 3145 1712 0820     		mov	r0, #8
 3146 1714 8046     		mov	r8, r0
 3147 1716 0820     		mov	r0, #8
 3148 1718 8146     		mov	r9, r0
 3149 171a B944     		add	r9, r9, r7
 3150 171c C844     		add	r8, r8, r9
 3151 171e C444     		add	ip, ip, r8
 3152 1720 6344     		add	r3, r3, ip
 3153 1722 1B68     		ldr	r3, [r3]
 3154 1724 1B04     		lsl	r3, r3, #16
 3155 1726 1B14     		asr	r3, r3, #16
 3156 1728 5343     		mul	r3, r2
1010:.\Include/arm_math.h ****                        ((((q31_t)x      ) >> 16) * (((q31_t)y << 16) >> 16)) +
 3157              		.loc 2 1010 0
 3158 172a CB18     		add	r3, r1, r3
1011:.\Include/arm_math.h ****                        ( ((q63_t)sum    )                                  )   ));
 3159              		.loc 2 1011 0
 3160 172c BB61     		str	r3, [r7, #24]
 3161 172e DB17     		asr	r3, r3, #31
 3162 1730 FB61     		str	r3, [r7, #28]
 3163              		.loc 2 1012 0
 3164 1732 9023     		mov	r3, #144
 3165 1734 9022     		mov	r2, #144
 3166 1736 9446     		mov	ip, r2
 3167 1738 0822     		mov	r2, #8
 3168 173a 9046     		mov	r8, r2
 3169 173c 0822     		mov	r2, #8
 3170 173e 9146     		mov	r9, r2
 3171 1740 B944     		add	r9, r9, r7
 3172 1742 C844     		add	r8, r8, r9
 3173 1744 C444     		add	ip, ip, r8
 3174 1746 6344     		add	r3, r3, ip
 3175 1748 5C68     		ldr	r4, [r3, #4]
 3176 174a 1B68     		ldr	r3, [r3]
1011:.\Include/arm_math.h ****                        ( ((q63_t)sum    )                                  )   ));
 3177              		.loc 2 1011 0
 3178 174c B969     		ldr	r1, [r7, #24]
 3179 174e FA69     		ldr	r2, [r7, #28]
 3180 1750 5B18     		add	r3, r3, r1
 3181 1752 5441     		adc	r4, r4, r2
 3182              	.LBE45:
 3183              	.LBE44:
 3184              		.loc 1 261 0
 3185 1754 A422     		mov	r2, #164
 3186 1756 5200     		lsl	r2, r2, #1
 3187 1758 9021     		mov	r1, #144
 3188 175a 8C46     		mov	ip, r1
 3189 175c 0821     		mov	r1, #8
 3190 175e 8846     		mov	r8, r1
 3191 1760 0821     		mov	r1, #8
 3192 1762 8946     		mov	r9, r1
ARM GAS  C:\Users\fneves\AppData\Local\Temp\ccyl4tsw.s 			page 80


 3193 1764 B944     		add	r9, r9, r7
 3194 1766 C844     		add	r8, r8, r9
 3195 1768 C444     		add	ip, ip, r8
 3196 176a 6244     		add	r2, r2, ip
 3197 176c 1360     		str	r3, [r2]
 3198 176e 5460     		str	r4, [r2, #4]
 262:Source\FilteringFunctions/arm_conv_partial_opt_q15.c **** 
 263:Source\FilteringFunctions/arm_conv_partial_opt_q15.c ****         /* update scratch pointers */
 264:Source\FilteringFunctions/arm_conv_partial_opt_q15.c ****         pIn2 += 4u;
 3199              		.loc 1 264 0
 3200 1770 A023     		mov	r3, #160
 3201 1772 0822     		mov	r2, #8
 3202 1774 9446     		mov	ip, r2
 3203 1776 0822     		mov	r2, #8
 3204 1778 9046     		mov	r8, r2
 3205 177a B844     		add	r8, r8, r7
 3206 177c C444     		add	ip, ip, r8
 3207 177e 6344     		add	r3, r3, ip
 3208 1780 1B68     		ldr	r3, [r3]
 3209 1782 0833     		add	r3, r3, #8
 3210 1784 A022     		mov	r2, #160
 3211 1786 0821     		mov	r1, #8
 3212 1788 8C46     		mov	ip, r1
 3213 178a 0821     		mov	r1, #8
 3214 178c 8846     		mov	r8, r1
 3215 178e B844     		add	r8, r8, r7
 3216 1790 C444     		add	ip, ip, r8
 3217 1792 6244     		add	r2, r2, ip
 3218 1794 1360     		str	r3, [r2]
 265:Source\FilteringFunctions/arm_conv_partial_opt_q15.c ****         pScr1 += 4u;
 3219              		.loc 1 265 0
 3220 1796 A423     		mov	r3, #164
 3221 1798 0822     		mov	r2, #8
 3222 179a 9446     		mov	ip, r2
 3223 179c 0822     		mov	r2, #8
 3224 179e 9046     		mov	r8, r2
 3225 17a0 B844     		add	r8, r8, r7
 3226 17a2 C444     		add	ip, ip, r8
 3227 17a4 6344     		add	r3, r3, ip
 3228 17a6 1B68     		ldr	r3, [r3]
 3229 17a8 0833     		add	r3, r3, #8
 3230 17aa A422     		mov	r2, #164
 3231 17ac 0821     		mov	r1, #8
 3232 17ae 8C46     		mov	ip, r1
 3233 17b0 0821     		mov	r1, #8
 3234 17b2 8846     		mov	r8, r1
 3235 17b4 B844     		add	r8, r8, r7
 3236 17b6 C444     		add	ip, ip, r8
 3237 17b8 6244     		add	r2, r2, ip
 3238 17ba 1360     		str	r3, [r2]
 266:Source\FilteringFunctions/arm_conv_partial_opt_q15.c **** 
 267:Source\FilteringFunctions/arm_conv_partial_opt_q15.c **** 
 268:Source\FilteringFunctions/arm_conv_partial_opt_q15.c ****         /* Decrement the loop counter */
 269:Source\FilteringFunctions/arm_conv_partial_opt_q15.c ****         tapCnt--;
 3239              		.loc 1 269 0
 3240 17bc 9423     		mov	r3, #148
 3241 17be 5B00     		lsl	r3, r3, #1
ARM GAS  C:\Users\fneves\AppData\Local\Temp\ccyl4tsw.s 			page 81


 3242 17c0 9022     		mov	r2, #144
 3243 17c2 9446     		mov	ip, r2
 3244 17c4 0822     		mov	r2, #8
 3245 17c6 9046     		mov	r8, r2
 3246 17c8 0822     		mov	r2, #8
 3247 17ca 9146     		mov	r9, r2
 3248 17cc B944     		add	r9, r9, r7
 3249 17ce C844     		add	r8, r8, r9
 3250 17d0 C444     		add	ip, ip, r8
 3251 17d2 6344     		add	r3, r3, ip
 3252 17d4 1B68     		ldr	r3, [r3]
 3253 17d6 013B     		sub	r3, r3, #1
 3254 17d8 9422     		mov	r2, #148
 3255 17da 5200     		lsl	r2, r2, #1
 3256 17dc 9021     		mov	r1, #144
 3257 17de 8C46     		mov	ip, r1
 3258 17e0 0821     		mov	r1, #8
 3259 17e2 8846     		mov	r8, r1
 3260 17e4 0821     		mov	r1, #8
 3261 17e6 8946     		mov	r9, r1
 3262 17e8 B944     		add	r9, r9, r7
 3263 17ea C844     		add	r8, r8, r9
 3264 17ec C444     		add	ip, ip, r8
 3265 17ee 6244     		add	r2, r2, ip
 3266 17f0 1360     		str	r3, [r2]
 3267              	.L11:
 215:Source\FilteringFunctions/arm_conv_partial_opt_q15.c ****       {
 3268              		.loc 1 215 0
 3269 17f2 9423     		mov	r3, #148
 3270 17f4 5B00     		lsl	r3, r3, #1
 3271 17f6 9022     		mov	r2, #144
 3272 17f8 9446     		mov	ip, r2
 3273 17fa 0822     		mov	r2, #8
 3274 17fc 9046     		mov	r8, r2
 3275 17fe 0822     		mov	r2, #8
 3276 1800 9146     		mov	r9, r2
 3277 1802 B944     		add	r9, r9, r7
 3278 1804 C844     		add	r8, r8, r9
 3279 1806 C444     		add	ip, ip, r8
 3280 1808 6344     		add	r3, r3, ip
 3281 180a 1B68     		ldr	r3, [r3]
 3282 180c 002B     		cmp	r3, #0
 3283 180e 01D0     		beq	.LCB3083
 3284 1810 FFF764F9 		bl	.L20	@far jump
 3285              	.LCB3083:
 270:Source\FilteringFunctions/arm_conv_partial_opt_q15.c ****       }
 271:Source\FilteringFunctions/arm_conv_partial_opt_q15.c **** 
 272:Source\FilteringFunctions/arm_conv_partial_opt_q15.c ****       /* Update scratch pointer for remaining samples of smaller length sequence */
 273:Source\FilteringFunctions/arm_conv_partial_opt_q15.c ****       pScr1 -= 4u;
 3286              		.loc 1 273 0
 3287 1814 A423     		mov	r3, #164
 3288 1816 0822     		mov	r2, #8
 3289 1818 9446     		mov	ip, r2
 3290 181a 0822     		mov	r2, #8
 3291 181c 9046     		mov	r8, r2
 3292 181e B844     		add	r8, r8, r7
 3293 1820 C444     		add	ip, ip, r8
ARM GAS  C:\Users\fneves\AppData\Local\Temp\ccyl4tsw.s 			page 82


 3294 1822 6344     		add	r3, r3, ip
 3295 1824 1B68     		ldr	r3, [r3]
 3296 1826 083B     		sub	r3, r3, #8
 3297 1828 A422     		mov	r2, #164
 3298 182a 0821     		mov	r1, #8
 3299 182c 8C46     		mov	ip, r1
 3300 182e 0821     		mov	r1, #8
 3301 1830 8846     		mov	r8, r1
 3302 1832 B844     		add	r8, r8, r7
 3303 1834 C444     		add	ip, ip, r8
 3304 1836 6244     		add	r2, r2, ip
 3305 1838 1360     		str	r3, [r2]
 274:Source\FilteringFunctions/arm_conv_partial_opt_q15.c **** 
 275:Source\FilteringFunctions/arm_conv_partial_opt_q15.c ****       /* apply same above for remaining samples of smaller length sequence */
 276:Source\FilteringFunctions/arm_conv_partial_opt_q15.c ****       tapCnt = (srcBLen) & 3u;
 3306              		.loc 1 276 0
 3307 183a 9023     		mov	r3, #144
 3308 183c 0822     		mov	r2, #8
 3309 183e 9446     		mov	ip, r2
 3310 1840 0822     		mov	r2, #8
 3311 1842 9046     		mov	r8, r2
 3312 1844 B844     		add	r8, r8, r7
 3313 1846 C444     		add	ip, ip, r8
 3314 1848 6344     		add	r3, r3, ip
 3315 184a 1A68     		ldr	r2, [r3]
 3316 184c 0323     		mov	r3, #3
 3317 184e 1340     		and	r3, r2
 3318 1850 9422     		mov	r2, #148
 3319 1852 5200     		lsl	r2, r2, #1
 3320 1854 9021     		mov	r1, #144
 3321 1856 8C46     		mov	ip, r1
 3322 1858 0821     		mov	r1, #8
 3323 185a 8846     		mov	r8, r1
 3324 185c 0821     		mov	r1, #8
 3325 185e 8946     		mov	r9, r1
 3326 1860 B944     		add	r9, r9, r7
 3327 1862 C844     		add	r8, r8, r9
 3328 1864 C444     		add	ip, ip, r8
 3329 1866 6244     		add	r2, r2, ip
 3330 1868 1360     		str	r3, [r2]
 277:Source\FilteringFunctions/arm_conv_partial_opt_q15.c **** 
 278:Source\FilteringFunctions/arm_conv_partial_opt_q15.c ****       while (tapCnt > 0u)
 3331              		.loc 1 278 0
 3332 186a 47E1     		b	.L21
 3333              	.L22:
 279:Source\FilteringFunctions/arm_conv_partial_opt_q15.c ****       {
 280:Source\FilteringFunctions/arm_conv_partial_opt_q15.c ****         /* accumlate the results */
 281:Source\FilteringFunctions/arm_conv_partial_opt_q15.c ****         acc0 += (*pScr1++ * *pIn2);
 3334              		.loc 1 281 0
 3335 186c A423     		mov	r3, #164
 3336 186e 0822     		mov	r2, #8
 3337 1870 9446     		mov	ip, r2
 3338 1872 0822     		mov	r2, #8
 3339 1874 9046     		mov	r8, r2
 3340 1876 B844     		add	r8, r8, r7
 3341 1878 C444     		add	ip, ip, r8
 3342 187a 6344     		add	r3, r3, ip
ARM GAS  C:\Users\fneves\AppData\Local\Temp\ccyl4tsw.s 			page 83


 3343 187c 1A68     		ldr	r2, [r3]
 3344 187e 931C     		add	r3, r2, #2
 3345 1880 A421     		mov	r1, #164
 3346 1882 0820     		mov	r0, #8
 3347 1884 8446     		mov	ip, r0
 3348 1886 0820     		mov	r0, #8
 3349 1888 8046     		mov	r8, r0
 3350 188a B844     		add	r8, r8, r7
 3351 188c C444     		add	ip, ip, r8
 3352 188e 6144     		add	r1, r1, ip
 3353 1890 0B60     		str	r3, [r1]
 3354 1892 1388     		ldrh	r3, [r2]
 3355 1894 1AB2     		sxth	r2, r3
 3356 1896 A023     		mov	r3, #160
 3357 1898 0821     		mov	r1, #8
 3358 189a 8C46     		mov	ip, r1
 3359 189c 0821     		mov	r1, #8
 3360 189e 8846     		mov	r8, r1
 3361 18a0 B844     		add	r8, r8, r7
 3362 18a2 C444     		add	ip, ip, r8
 3363 18a4 6344     		add	r3, r3, ip
 3364 18a6 1B68     		ldr	r3, [r3]
 3365 18a8 1B88     		ldrh	r3, [r3]
 3366 18aa 1BB2     		sxth	r3, r3
 3367 18ac 5343     		mul	r3, r2
 3368 18ae BB67     		str	r3, [r7, #120]
 3369 18b0 DB17     		asr	r3, r3, #31
 3370 18b2 FB67     		str	r3, [r7, #124]
 3371 18b4 B023     		mov	r3, #176
 3372 18b6 5B00     		lsl	r3, r3, #1
 3373 18b8 9022     		mov	r2, #144
 3374 18ba 9446     		mov	ip, r2
 3375 18bc 0822     		mov	r2, #8
 3376 18be 9046     		mov	r8, r2
 3377 18c0 0822     		mov	r2, #8
 3378 18c2 9146     		mov	r9, r2
 3379 18c4 B944     		add	r9, r9, r7
 3380 18c6 C844     		add	r8, r8, r9
 3381 18c8 C444     		add	ip, ip, r8
 3382 18ca 6344     		add	r3, r3, ip
 3383 18cc 5C68     		ldr	r4, [r3, #4]
 3384 18ce 1B68     		ldr	r3, [r3]
 3385 18d0 B96F     		ldr	r1, [r7, #120]
 3386 18d2 FA6F     		ldr	r2, [r7, #124]
 3387 18d4 5B18     		add	r3, r3, r1
 3388 18d6 5441     		adc	r4, r4, r2
 3389 18d8 B022     		mov	r2, #176
 3390 18da 5200     		lsl	r2, r2, #1
 3391 18dc 9021     		mov	r1, #144
 3392 18de 8C46     		mov	ip, r1
 3393 18e0 0821     		mov	r1, #8
 3394 18e2 8846     		mov	r8, r1
 3395 18e4 0821     		mov	r1, #8
 3396 18e6 8946     		mov	r9, r1
 3397 18e8 B944     		add	r9, r9, r7
 3398 18ea C844     		add	r8, r8, r9
 3399 18ec C444     		add	ip, ip, r8
ARM GAS  C:\Users\fneves\AppData\Local\Temp\ccyl4tsw.s 			page 84


 3400 18ee 6244     		add	r2, r2, ip
 3401 18f0 1360     		str	r3, [r2]
 3402 18f2 5460     		str	r4, [r2, #4]
 282:Source\FilteringFunctions/arm_conv_partial_opt_q15.c ****         acc1 += (*pScr1++ * *pIn2);
 3403              		.loc 1 282 0
 3404 18f4 A423     		mov	r3, #164
 3405 18f6 0822     		mov	r2, #8
 3406 18f8 9446     		mov	ip, r2
 3407 18fa 0822     		mov	r2, #8
 3408 18fc 9046     		mov	r8, r2
 3409 18fe B844     		add	r8, r8, r7
 3410 1900 C444     		add	ip, ip, r8
 3411 1902 6344     		add	r3, r3, ip
 3412 1904 1A68     		ldr	r2, [r3]
 3413 1906 931C     		add	r3, r2, #2
 3414 1908 A421     		mov	r1, #164
 3415 190a 0820     		mov	r0, #8
 3416 190c 8446     		mov	ip, r0
 3417 190e 0820     		mov	r0, #8
 3418 1910 8046     		mov	r8, r0
 3419 1912 B844     		add	r8, r8, r7
 3420 1914 C444     		add	ip, ip, r8
 3421 1916 6144     		add	r1, r1, ip
 3422 1918 0B60     		str	r3, [r1]
 3423 191a 1388     		ldrh	r3, [r2]
 3424 191c 1AB2     		sxth	r2, r3
 3425 191e A023     		mov	r3, #160
 3426 1920 0821     		mov	r1, #8
 3427 1922 8C46     		mov	ip, r1
 3428 1924 0821     		mov	r1, #8
 3429 1926 8846     		mov	r8, r1
 3430 1928 B844     		add	r8, r8, r7
 3431 192a C444     		add	ip, ip, r8
 3432 192c 6344     		add	r3, r3, ip
 3433 192e 1B68     		ldr	r3, [r3]
 3434 1930 1B88     		ldrh	r3, [r3]
 3435 1932 1BB2     		sxth	r3, r3
 3436 1934 5343     		mul	r3, r2
 3437 1936 3B67     		str	r3, [r7, #112]
 3438 1938 DB17     		asr	r3, r3, #31
 3439 193a 7B67     		str	r3, [r7, #116]
 3440 193c AC23     		mov	r3, #172
 3441 193e 5B00     		lsl	r3, r3, #1
 3442 1940 9022     		mov	r2, #144
 3443 1942 9446     		mov	ip, r2
 3444 1944 0822     		mov	r2, #8
 3445 1946 9046     		mov	r8, r2
 3446 1948 0822     		mov	r2, #8
 3447 194a 9146     		mov	r9, r2
 3448 194c B944     		add	r9, r9, r7
 3449 194e C844     		add	r8, r8, r9
 3450 1950 C444     		add	ip, ip, r8
 3451 1952 6344     		add	r3, r3, ip
 3452 1954 5C68     		ldr	r4, [r3, #4]
 3453 1956 1B68     		ldr	r3, [r3]
 3454 1958 396F     		ldr	r1, [r7, #112]
 3455 195a 7A6F     		ldr	r2, [r7, #116]
ARM GAS  C:\Users\fneves\AppData\Local\Temp\ccyl4tsw.s 			page 85


 3456 195c 5B18     		add	r3, r3, r1
 3457 195e 5441     		adc	r4, r4, r2
 3458 1960 AC22     		mov	r2, #172
 3459 1962 5200     		lsl	r2, r2, #1
 3460 1964 9021     		mov	r1, #144
 3461 1966 8C46     		mov	ip, r1
 3462 1968 0821     		mov	r1, #8
 3463 196a 8846     		mov	r8, r1
 3464 196c 0821     		mov	r1, #8
 3465 196e 8946     		mov	r9, r1
 3466 1970 B944     		add	r9, r9, r7
 3467 1972 C844     		add	r8, r8, r9
 3468 1974 C444     		add	ip, ip, r8
 3469 1976 6244     		add	r2, r2, ip
 3470 1978 1360     		str	r3, [r2]
 3471 197a 5460     		str	r4, [r2, #4]
 283:Source\FilteringFunctions/arm_conv_partial_opt_q15.c ****         acc2 += (*pScr1++ * *pIn2);
 3472              		.loc 1 283 0
 3473 197c A423     		mov	r3, #164
 3474 197e 0822     		mov	r2, #8
 3475 1980 9446     		mov	ip, r2
 3476 1982 0822     		mov	r2, #8
 3477 1984 9046     		mov	r8, r2
 3478 1986 B844     		add	r8, r8, r7
 3479 1988 C444     		add	ip, ip, r8
 3480 198a 6344     		add	r3, r3, ip
 3481 198c 1A68     		ldr	r2, [r3]
 3482 198e 931C     		add	r3, r2, #2
 3483 1990 A421     		mov	r1, #164
 3484 1992 0820     		mov	r0, #8
 3485 1994 8446     		mov	ip, r0
 3486 1996 0820     		mov	r0, #8
 3487 1998 8046     		mov	r8, r0
 3488 199a B844     		add	r8, r8, r7
 3489 199c C444     		add	ip, ip, r8
 3490 199e 6144     		add	r1, r1, ip
 3491 19a0 0B60     		str	r3, [r1]
 3492 19a2 1388     		ldrh	r3, [r2]
 3493 19a4 1AB2     		sxth	r2, r3
 3494 19a6 A023     		mov	r3, #160
 3495 19a8 0821     		mov	r1, #8
 3496 19aa 8C46     		mov	ip, r1
 3497 19ac 0821     		mov	r1, #8
 3498 19ae 8846     		mov	r8, r1
 3499 19b0 B844     		add	r8, r8, r7
 3500 19b2 C444     		add	ip, ip, r8
 3501 19b4 6344     		add	r3, r3, ip
 3502 19b6 1B68     		ldr	r3, [r3]
 3503 19b8 1B88     		ldrh	r3, [r3]
 3504 19ba 1BB2     		sxth	r3, r3
 3505 19bc 5343     		mul	r3, r2
 3506 19be BB66     		str	r3, [r7, #104]
 3507 19c0 DB17     		asr	r3, r3, #31
 3508 19c2 FB66     		str	r3, [r7, #108]
 3509 19c4 A823     		mov	r3, #168
 3510 19c6 5B00     		lsl	r3, r3, #1
 3511 19c8 9022     		mov	r2, #144
ARM GAS  C:\Users\fneves\AppData\Local\Temp\ccyl4tsw.s 			page 86


 3512 19ca 9446     		mov	ip, r2
 3513 19cc 0822     		mov	r2, #8
 3514 19ce 9046     		mov	r8, r2
 3515 19d0 0822     		mov	r2, #8
 3516 19d2 9146     		mov	r9, r2
 3517 19d4 B944     		add	r9, r9, r7
 3518 19d6 C844     		add	r8, r8, r9
 3519 19d8 C444     		add	ip, ip, r8
 3520 19da 6344     		add	r3, r3, ip
 3521 19dc 5C68     		ldr	r4, [r3, #4]
 3522 19de 1B68     		ldr	r3, [r3]
 3523 19e0 B96E     		ldr	r1, [r7, #104]
 3524 19e2 FA6E     		ldr	r2, [r7, #108]
 3525 19e4 5B18     		add	r3, r3, r1
 3526 19e6 5441     		adc	r4, r4, r2
 3527 19e8 A822     		mov	r2, #168
 3528 19ea 5200     		lsl	r2, r2, #1
 3529 19ec 9021     		mov	r1, #144
 3530 19ee 8C46     		mov	ip, r1
 3531 19f0 0821     		mov	r1, #8
 3532 19f2 8846     		mov	r8, r1
 3533 19f4 0821     		mov	r1, #8
 3534 19f6 8946     		mov	r9, r1
 3535 19f8 B944     		add	r9, r9, r7
 3536 19fa C844     		add	r8, r8, r9
 3537 19fc C444     		add	ip, ip, r8
 3538 19fe 6244     		add	r2, r2, ip
 3539 1a00 1360     		str	r3, [r2]
 3540 1a02 5460     		str	r4, [r2, #4]
 284:Source\FilteringFunctions/arm_conv_partial_opt_q15.c ****         acc3 += (*pScr1++ * *pIn2++);
 3541              		.loc 1 284 0
 3542 1a04 A423     		mov	r3, #164
 3543 1a06 0822     		mov	r2, #8
 3544 1a08 9446     		mov	ip, r2
 3545 1a0a 0822     		mov	r2, #8
 3546 1a0c 9046     		mov	r8, r2
 3547 1a0e B844     		add	r8, r8, r7
 3548 1a10 C444     		add	ip, ip, r8
 3549 1a12 6344     		add	r3, r3, ip
 3550 1a14 1A68     		ldr	r2, [r3]
 3551 1a16 931C     		add	r3, r2, #2
 3552 1a18 A421     		mov	r1, #164
 3553 1a1a 0820     		mov	r0, #8
 3554 1a1c 8446     		mov	ip, r0
 3555 1a1e 0820     		mov	r0, #8
 3556 1a20 8046     		mov	r8, r0
 3557 1a22 B844     		add	r8, r8, r7
 3558 1a24 C444     		add	ip, ip, r8
 3559 1a26 6144     		add	r1, r1, ip
 3560 1a28 0B60     		str	r3, [r1]
 3561 1a2a 1388     		ldrh	r3, [r2]
 3562 1a2c 19B2     		sxth	r1, r3
 3563 1a2e A023     		mov	r3, #160
 3564 1a30 0822     		mov	r2, #8
 3565 1a32 9446     		mov	ip, r2
 3566 1a34 0822     		mov	r2, #8
 3567 1a36 9046     		mov	r8, r2
ARM GAS  C:\Users\fneves\AppData\Local\Temp\ccyl4tsw.s 			page 87


 3568 1a38 B844     		add	r8, r8, r7
 3569 1a3a C444     		add	ip, ip, r8
 3570 1a3c 6344     		add	r3, r3, ip
 3571 1a3e 1A68     		ldr	r2, [r3]
 3572 1a40 931C     		add	r3, r2, #2
 3573 1a42 A020     		mov	r0, #160
 3574 1a44 0824     		mov	r4, #8
 3575 1a46 A446     		mov	ip, r4
 3576 1a48 0824     		mov	r4, #8
 3577 1a4a A046     		mov	r8, r4
 3578 1a4c B844     		add	r8, r8, r7
 3579 1a4e C444     		add	ip, ip, r8
 3580 1a50 6044     		add	r0, r0, ip
 3581 1a52 0360     		str	r3, [r0]
 3582 1a54 1388     		ldrh	r3, [r2]
 3583 1a56 1BB2     		sxth	r3, r3
 3584 1a58 4B43     		mul	r3, r1
 3585 1a5a 3B66     		str	r3, [r7, #96]
 3586 1a5c DB17     		asr	r3, r3, #31
 3587 1a5e 7B66     		str	r3, [r7, #100]
 3588 1a60 A423     		mov	r3, #164
 3589 1a62 5B00     		lsl	r3, r3, #1
 3590 1a64 9022     		mov	r2, #144
 3591 1a66 9446     		mov	ip, r2
 3592 1a68 0822     		mov	r2, #8
 3593 1a6a 9046     		mov	r8, r2
 3594 1a6c 0822     		mov	r2, #8
 3595 1a6e 9146     		mov	r9, r2
 3596 1a70 B944     		add	r9, r9, r7
 3597 1a72 C844     		add	r8, r8, r9
 3598 1a74 C444     		add	ip, ip, r8
 3599 1a76 6344     		add	r3, r3, ip
 3600 1a78 5C68     		ldr	r4, [r3, #4]
 3601 1a7a 1B68     		ldr	r3, [r3]
 3602 1a7c 396E     		ldr	r1, [r7, #96]
 3603 1a7e 7A6E     		ldr	r2, [r7, #100]
 3604 1a80 5B18     		add	r3, r3, r1
 3605 1a82 5441     		adc	r4, r4, r2
 3606 1a84 A422     		mov	r2, #164
 3607 1a86 5200     		lsl	r2, r2, #1
 3608 1a88 9021     		mov	r1, #144
 3609 1a8a 8C46     		mov	ip, r1
 3610 1a8c 0821     		mov	r1, #8
 3611 1a8e 8846     		mov	r8, r1
 3612 1a90 0821     		mov	r1, #8
 3613 1a92 8946     		mov	r9, r1
 3614 1a94 B944     		add	r9, r9, r7
 3615 1a96 C844     		add	r8, r8, r9
 3616 1a98 C444     		add	ip, ip, r8
 3617 1a9a 6244     		add	r2, r2, ip
 3618 1a9c 1360     		str	r3, [r2]
 3619 1a9e 5460     		str	r4, [r2, #4]
 285:Source\FilteringFunctions/arm_conv_partial_opt_q15.c **** 
 286:Source\FilteringFunctions/arm_conv_partial_opt_q15.c ****         pScr1 -= 3u;
 3620              		.loc 1 286 0
 3621 1aa0 A423     		mov	r3, #164
 3622 1aa2 0822     		mov	r2, #8
ARM GAS  C:\Users\fneves\AppData\Local\Temp\ccyl4tsw.s 			page 88


 3623 1aa4 9446     		mov	ip, r2
 3624 1aa6 0822     		mov	r2, #8
 3625 1aa8 9046     		mov	r8, r2
 3626 1aaa B844     		add	r8, r8, r7
 3627 1aac C444     		add	ip, ip, r8
 3628 1aae 6344     		add	r3, r3, ip
 3629 1ab0 1B68     		ldr	r3, [r3]
 3630 1ab2 063B     		sub	r3, r3, #6
 3631 1ab4 A422     		mov	r2, #164
 3632 1ab6 0821     		mov	r1, #8
 3633 1ab8 8C46     		mov	ip, r1
 3634 1aba 0821     		mov	r1, #8
 3635 1abc 8846     		mov	r8, r1
 3636 1abe B844     		add	r8, r8, r7
 3637 1ac0 C444     		add	ip, ip, r8
 3638 1ac2 6244     		add	r2, r2, ip
 3639 1ac4 1360     		str	r3, [r2]
 287:Source\FilteringFunctions/arm_conv_partial_opt_q15.c **** 
 288:Source\FilteringFunctions/arm_conv_partial_opt_q15.c ****         /* Decrement the loop counter */
 289:Source\FilteringFunctions/arm_conv_partial_opt_q15.c ****         tapCnt--;
 3640              		.loc 1 289 0
 3641 1ac6 9423     		mov	r3, #148
 3642 1ac8 5B00     		lsl	r3, r3, #1
 3643 1aca 9022     		mov	r2, #144
 3644 1acc 9446     		mov	ip, r2
 3645 1ace 0822     		mov	r2, #8
 3646 1ad0 9046     		mov	r8, r2
 3647 1ad2 0822     		mov	r2, #8
 3648 1ad4 9146     		mov	r9, r2
 3649 1ad6 B944     		add	r9, r9, r7
 3650 1ad8 C844     		add	r8, r8, r9
 3651 1ada C444     		add	ip, ip, r8
 3652 1adc 6344     		add	r3, r3, ip
 3653 1ade 1B68     		ldr	r3, [r3]
 3654 1ae0 013B     		sub	r3, r3, #1
 3655 1ae2 9422     		mov	r2, #148
 3656 1ae4 5200     		lsl	r2, r2, #1
 3657 1ae6 9021     		mov	r1, #144
 3658 1ae8 8C46     		mov	ip, r1
 3659 1aea 0821     		mov	r1, #8
 3660 1aec 8846     		mov	r8, r1
 3661 1aee 0821     		mov	r1, #8
 3662 1af0 8946     		mov	r9, r1
 3663 1af2 B944     		add	r9, r9, r7
 3664 1af4 C844     		add	r8, r8, r9
 3665 1af6 C444     		add	ip, ip, r8
 3666 1af8 6244     		add	r2, r2, ip
 3667 1afa 1360     		str	r3, [r2]
 3668              	.L21:
 278:Source\FilteringFunctions/arm_conv_partial_opt_q15.c ****       {
 3669              		.loc 1 278 0
 3670 1afc 9423     		mov	r3, #148
 3671 1afe 5B00     		lsl	r3, r3, #1
 3672 1b00 9022     		mov	r2, #144
 3673 1b02 9446     		mov	ip, r2
 3674 1b04 0822     		mov	r2, #8
 3675 1b06 9046     		mov	r8, r2
ARM GAS  C:\Users\fneves\AppData\Local\Temp\ccyl4tsw.s 			page 89


 3676 1b08 0822     		mov	r2, #8
 3677 1b0a 9146     		mov	r9, r2
 3678 1b0c B944     		add	r9, r9, r7
 3679 1b0e C844     		add	r8, r8, r9
 3680 1b10 C444     		add	ip, ip, r8
 3681 1b12 6344     		add	r3, r3, ip
 3682 1b14 1B68     		ldr	r3, [r3]
 3683 1b16 002B     		cmp	r3, #0
 3684 1b18 00D0     		beq	.LCB3459
 3685 1b1a A7E6     		b	.L22	@long jump
 3686              	.LCB3459:
 290:Source\FilteringFunctions/arm_conv_partial_opt_q15.c ****       }
 291:Source\FilteringFunctions/arm_conv_partial_opt_q15.c **** 
 292:Source\FilteringFunctions/arm_conv_partial_opt_q15.c ****       blkCnt--;
 3687              		.loc 1 292 0
 3688 1b1c 9823     		mov	r3, #152
 3689 1b1e 5B00     		lsl	r3, r3, #1
 3690 1b20 9022     		mov	r2, #144
 3691 1b22 9446     		mov	ip, r2
 3692 1b24 0822     		mov	r2, #8
 3693 1b26 9046     		mov	r8, r2
 3694 1b28 0822     		mov	r2, #8
 3695 1b2a 9146     		mov	r9, r2
 3696 1b2c B944     		add	r9, r9, r7
 3697 1b2e C844     		add	r8, r8, r9
 3698 1b30 C444     		add	ip, ip, r8
 3699 1b32 6344     		add	r3, r3, ip
 3700 1b34 1B68     		ldr	r3, [r3]
 3701 1b36 013B     		sub	r3, r3, #1
 3702 1b38 9822     		mov	r2, #152
 3703 1b3a 5200     		lsl	r2, r2, #1
 3704 1b3c 9021     		mov	r1, #144
 3705 1b3e 8C46     		mov	ip, r1
 3706 1b40 0821     		mov	r1, #8
 3707 1b42 8846     		mov	r8, r1
 3708 1b44 0821     		mov	r1, #8
 3709 1b46 8946     		mov	r9, r1
 3710 1b48 B944     		add	r9, r9, r7
 3711 1b4a C844     		add	r8, r8, r9
 3712 1b4c C444     		add	ip, ip, r8
 3713 1b4e 6244     		add	r2, r2, ip
 3714 1b50 1360     		str	r3, [r2]
 293:Source\FilteringFunctions/arm_conv_partial_opt_q15.c **** 
 294:Source\FilteringFunctions/arm_conv_partial_opt_q15.c **** 
 295:Source\FilteringFunctions/arm_conv_partial_opt_q15.c ****       /* Store the results in the accumulators in the destination buffer. */
 296:Source\FilteringFunctions/arm_conv_partial_opt_q15.c **** 
 297:Source\FilteringFunctions/arm_conv_partial_opt_q15.c **** #ifndef  ARM_MATH_BIG_ENDIAN
 298:Source\FilteringFunctions/arm_conv_partial_opt_q15.c **** 
 299:Source\FilteringFunctions/arm_conv_partial_opt_q15.c ****       *__SIMD32(pOut)++ =
 3715              		.loc 1 299 0
 3716 1b52 1823     		mov	r3, #24
 3717 1b54 9022     		mov	r2, #144
 3718 1b56 0821     		mov	r1, #8
 3719 1b58 8C46     		mov	ip, r1
 3720 1b5a 0821     		mov	r1, #8
 3721 1b5c 8846     		mov	r8, r1
 3722 1b5e B844     		add	r8, r8, r7
ARM GAS  C:\Users\fneves\AppData\Local\Temp\ccyl4tsw.s 			page 90


 3723 1b60 C444     		add	ip, ip, r8
 3724 1b62 6244     		add	r2, r2, ip
 3725 1b64 D218     		add	r2, r2, r3
 3726 1b66 1068     		ldr	r0, [r2]
 3727 1b68 031D     		add	r3, r0, #4
 3728 1b6a 1360     		str	r3, [r2]
 300:Source\FilteringFunctions/arm_conv_partial_opt_q15.c ****         __PKHBT(__SSAT((acc0 >> 15), 16), __SSAT((acc1 >> 15), 16), 16);
 3729              		.loc 1 300 0
 3730 1b6c B223     		mov	r3, #178
 3731 1b6e 5B00     		lsl	r3, r3, #1
 3732 1b70 9022     		mov	r2, #144
 3733 1b72 9446     		mov	ip, r2
 3734 1b74 0822     		mov	r2, #8
 3735 1b76 9046     		mov	r8, r2
 3736 1b78 0822     		mov	r2, #8
 3737 1b7a 9146     		mov	r9, r2
 3738 1b7c B944     		add	r9, r9, r7
 3739 1b7e C844     		add	r8, r8, r9
 3740 1b80 C444     		add	ip, ip, r8
 3741 1b82 6344     		add	r3, r3, ip
 3742 1b84 1B68     		ldr	r3, [r3]
 3743 1b86 5A04     		lsl	r2, r3, #17
 3744 1b88 B023     		mov	r3, #176
 3745 1b8a 5B00     		lsl	r3, r3, #1
 3746 1b8c 9021     		mov	r1, #144
 3747 1b8e 8C46     		mov	ip, r1
 3748 1b90 0821     		mov	r1, #8
 3749 1b92 8846     		mov	r8, r1
 3750 1b94 0821     		mov	r1, #8
 3751 1b96 8946     		mov	r9, r1
 3752 1b98 B944     		add	r9, r9, r7
 3753 1b9a C844     		add	r8, r8, r9
 3754 1b9c C444     		add	ip, ip, r8
 3755 1b9e 6344     		add	r3, r3, ip
 3756 1ba0 1B68     		ldr	r3, [r3]
 3757 1ba2 DB0B     		lsr	r3, r3, #15
 3758 1ba4 8821     		mov	r1, #136
 3759 1ba6 0824     		mov	r4, #8
 3760 1ba8 A446     		mov	ip, r4
 3761 1baa 0824     		mov	r4, #8
 3762 1bac A046     		mov	r8, r4
 3763 1bae B844     		add	r8, r8, r7
 3764 1bb0 C444     		add	ip, ip, r8
 3765 1bb2 6144     		add	r1, r1, ip
 3766 1bb4 0B60     		str	r3, [r1]
 3767 1bb6 8823     		mov	r3, #136
 3768 1bb8 0821     		mov	r1, #8
 3769 1bba 8C46     		mov	ip, r1
 3770 1bbc 0821     		mov	r1, #8
 3771 1bbe 8846     		mov	r8, r1
 3772 1bc0 B844     		add	r8, r8, r7
 3773 1bc2 C444     		add	ip, ip, r8
 3774 1bc4 6344     		add	r3, r3, ip
 3775 1bc6 1B68     		ldr	r3, [r3]
 3776 1bc8 1343     		orr	r3, r2
 3777 1bca 8822     		mov	r2, #136
 3778 1bcc 0821     		mov	r1, #8
ARM GAS  C:\Users\fneves\AppData\Local\Temp\ccyl4tsw.s 			page 91


 3779 1bce 8C46     		mov	ip, r1
 3780 1bd0 0821     		mov	r1, #8
 3781 1bd2 8846     		mov	r8, r1
 3782 1bd4 B844     		add	r8, r8, r7
 3783 1bd6 C444     		add	ip, ip, r8
 3784 1bd8 6244     		add	r2, r2, ip
 3785 1bda 1360     		str	r3, [r2]
 3786 1bdc B223     		mov	r3, #178
 3787 1bde 5B00     		lsl	r3, r3, #1
 3788 1be0 9022     		mov	r2, #144
 3789 1be2 9446     		mov	ip, r2
 3790 1be4 0822     		mov	r2, #8
 3791 1be6 9046     		mov	r8, r2
 3792 1be8 0822     		mov	r2, #8
 3793 1bea 9146     		mov	r9, r2
 3794 1bec B944     		add	r9, r9, r7
 3795 1bee C844     		add	r8, r8, r9
 3796 1bf0 C444     		add	ip, ip, r8
 3797 1bf2 6344     		add	r3, r3, ip
 3798 1bf4 1B68     		ldr	r3, [r3]
 3799 1bf6 DB13     		asr	r3, r3, #15
 3800 1bf8 8C22     		mov	r2, #140
 3801 1bfa 0821     		mov	r1, #8
 3802 1bfc 8C46     		mov	ip, r1
 3803 1bfe 0821     		mov	r1, #8
 3804 1c00 8846     		mov	r8, r1
 3805 1c02 B844     		add	r8, r8, r7
 3806 1c04 C444     		add	ip, ip, r8
 3807 1c06 6244     		add	r2, r2, ip
 3808 1c08 1360     		str	r3, [r2]
 3809 1c0a 8823     		mov	r3, #136
 3810 1c0c 0822     		mov	r2, #8
 3811 1c0e 9446     		mov	ip, r2
 3812 1c10 0822     		mov	r2, #8
 3813 1c12 9046     		mov	r8, r2
 3814 1c14 B844     		add	r8, r8, r7
 3815 1c16 C444     		add	ip, ip, r8
 3816 1c18 6344     		add	r3, r3, ip
 3817 1c1a 1B68     		ldr	r3, [r3]
 3818 1c1c 8C22     		mov	r2, #140
 3819 1c1e 9021     		mov	r1, #144
 3820 1c20 8C46     		mov	ip, r1
 3821 1c22 0821     		mov	r1, #8
 3822 1c24 8846     		mov	r8, r1
 3823 1c26 0821     		mov	r1, #8
 3824 1c28 8946     		mov	r9, r1
 3825 1c2a B944     		add	r9, r9, r7
 3826 1c2c C844     		add	r8, r8, r9
 3827 1c2e C444     		add	ip, ip, r8
 3828 1c30 6244     		add	r2, r2, ip
 3829 1c32 1360     		str	r3, [r2]
 3830 1c34 1023     		mov	r3, #16
 3831 1c36 8822     		mov	r2, #136
 3832 1c38 9021     		mov	r1, #144
 3833 1c3a 8C46     		mov	ip, r1
 3834 1c3c 0821     		mov	r1, #8
 3835 1c3e 8846     		mov	r8, r1
ARM GAS  C:\Users\fneves\AppData\Local\Temp\ccyl4tsw.s 			page 92


 3836 1c40 0821     		mov	r1, #8
 3837 1c42 8946     		mov	r9, r1
 3838 1c44 B944     		add	r9, r9, r7
 3839 1c46 C844     		add	r8, r8, r9
 3840 1c48 C444     		add	ip, ip, r8
 3841 1c4a 6244     		add	r2, r2, ip
 3842 1c4c 1360     		str	r3, [r2]
 3843              	.LBB46:
 3844              	.LBB47:
 699:.\Include/arm_math.h ****     for (i = 0; i < (y - 1); i++)
 3845              		.loc 2 699 0
 3846 1c4e 0123     		mov	r3, #1
 3847 1c50 8422     		mov	r2, #132
 3848 1c52 9021     		mov	r1, #144
 3849 1c54 8C46     		mov	ip, r1
 3850 1c56 0821     		mov	r1, #8
 3851 1c58 8846     		mov	r8, r1
 3852 1c5a 0821     		mov	r1, #8
 3853 1c5c 8946     		mov	r9, r1
 3854 1c5e B944     		add	r9, r9, r7
 3855 1c60 C844     		add	r8, r8, r9
 3856 1c62 C444     		add	ip, ip, r8
 3857 1c64 6244     		add	r2, r2, ip
 3858 1c66 1360     		str	r3, [r2]
 700:.\Include/arm_math.h ****     {
 3859              		.loc 2 700 0
 3860 1c68 0023     		mov	r3, #0
 3861 1c6a 8022     		mov	r2, #128
 3862 1c6c 9021     		mov	r1, #144
 3863 1c6e 8C46     		mov	ip, r1
 3864 1c70 0821     		mov	r1, #8
 3865 1c72 8846     		mov	r8, r1
 3866 1c74 0821     		mov	r1, #8
 3867 1c76 8946     		mov	r9, r1
 3868 1c78 B944     		add	r9, r9, r7
 3869 1c7a C844     		add	r8, r8, r9
 3870 1c7c C444     		add	ip, ip, r8
 3871 1c7e 6244     		add	r2, r2, ip
 3872 1c80 1360     		str	r3, [r2]
 3873 1c82 31E0     		b	.L23
 3874              	.L24:
 702:.\Include/arm_math.h ****     }
 3875              		.loc 2 702 0
 3876 1c84 8423     		mov	r3, #132
 3877 1c86 9022     		mov	r2, #144
 3878 1c88 9446     		mov	ip, r2
 3879 1c8a 0822     		mov	r2, #8
 3880 1c8c 9046     		mov	r8, r2
 3881 1c8e 0822     		mov	r2, #8
 3882 1c90 9146     		mov	r9, r2
 3883 1c92 B944     		add	r9, r9, r7
 3884 1c94 C844     		add	r8, r8, r9
 3885 1c96 C444     		add	ip, ip, r8
 3886 1c98 6344     		add	r3, r3, ip
 3887 1c9a 1B68     		ldr	r3, [r3]
 3888 1c9c 5B00     		lsl	r3, r3, #1
 3889 1c9e 8422     		mov	r2, #132
ARM GAS  C:\Users\fneves\AppData\Local\Temp\ccyl4tsw.s 			page 93


 3890 1ca0 9021     		mov	r1, #144
 3891 1ca2 8C46     		mov	ip, r1
 3892 1ca4 0821     		mov	r1, #8
 3893 1ca6 8846     		mov	r8, r1
 3894 1ca8 0821     		mov	r1, #8
 3895 1caa 8946     		mov	r9, r1
 3896 1cac B944     		add	r9, r9, r7
 3897 1cae C844     		add	r8, r8, r9
 3898 1cb0 C444     		add	ip, ip, r8
 3899 1cb2 6244     		add	r2, r2, ip
 3900 1cb4 1360     		str	r3, [r2]
 700:.\Include/arm_math.h ****     {
 3901              		.loc 2 700 0
 3902 1cb6 8023     		mov	r3, #128
 3903 1cb8 9022     		mov	r2, #144
 3904 1cba 9446     		mov	ip, r2
 3905 1cbc 0822     		mov	r2, #8
 3906 1cbe 9046     		mov	r8, r2
 3907 1cc0 0822     		mov	r2, #8
 3908 1cc2 9146     		mov	r9, r2
 3909 1cc4 B944     		add	r9, r9, r7
 3910 1cc6 C844     		add	r8, r8, r9
 3911 1cc8 C444     		add	ip, ip, r8
 3912 1cca 6344     		add	r3, r3, ip
 3913 1ccc 1B68     		ldr	r3, [r3]
 3914 1cce 0133     		add	r3, r3, #1
 3915 1cd0 8022     		mov	r2, #128
 3916 1cd2 9021     		mov	r1, #144
 3917 1cd4 8C46     		mov	ip, r1
 3918 1cd6 0821     		mov	r1, #8
 3919 1cd8 8846     		mov	r8, r1
 3920 1cda 0821     		mov	r1, #8
 3921 1cdc 8946     		mov	r9, r1
 3922 1cde B944     		add	r9, r9, r7
 3923 1ce0 C844     		add	r8, r8, r9
 3924 1ce2 C444     		add	ip, ip, r8
 3925 1ce4 6244     		add	r2, r2, ip
 3926 1ce6 1360     		str	r3, [r2]
 3927              	.L23:
 3928 1ce8 8823     		mov	r3, #136
 3929 1cea 9022     		mov	r2, #144
 3930 1cec 9446     		mov	ip, r2
 3931 1cee 0822     		mov	r2, #8
 3932 1cf0 9046     		mov	r8, r2
 3933 1cf2 0822     		mov	r2, #8
 3934 1cf4 9146     		mov	r9, r2
 3935 1cf6 B944     		add	r9, r9, r7
 3936 1cf8 C844     		add	r8, r8, r9
 3937 1cfa C444     		add	ip, ip, r8
 3938 1cfc 6344     		add	r3, r3, ip
 3939 1cfe 1B68     		ldr	r3, [r3]
 3940 1d00 5A1E     		sub	r2, r3, #1
 3941 1d02 8023     		mov	r3, #128
 3942 1d04 9021     		mov	r1, #144
 3943 1d06 8C46     		mov	ip, r1
 3944 1d08 0821     		mov	r1, #8
 3945 1d0a 8846     		mov	r8, r1
ARM GAS  C:\Users\fneves\AppData\Local\Temp\ccyl4tsw.s 			page 94


 3946 1d0c 0821     		mov	r1, #8
 3947 1d0e 8946     		mov	r9, r1
 3948 1d10 B944     		add	r9, r9, r7
 3949 1d12 C844     		add	r8, r8, r9
 3950 1d14 C444     		add	ip, ip, r8
 3951 1d16 6344     		add	r3, r3, ip
 3952 1d18 1B68     		ldr	r3, [r3]
 3953 1d1a 9342     		cmp	r3, r2
 3954 1d1c B2D3     		bcc	.L24
 705:.\Include/arm_math.h ****     {
 3955              		.loc 2 705 0
 3956 1d1e 8C23     		mov	r3, #140
 3957 1d20 9022     		mov	r2, #144
 3958 1d22 9446     		mov	ip, r2
 3959 1d24 0822     		mov	r2, #8
 3960 1d26 9046     		mov	r8, r2
 3961 1d28 0822     		mov	r2, #8
 3962 1d2a 9146     		mov	r9, r2
 3963 1d2c B944     		add	r9, r9, r7
 3964 1d2e C844     		add	r8, r8, r9
 3965 1d30 C444     		add	ip, ip, r8
 3966 1d32 6344     		add	r3, r3, ip
 3967 1d34 1B68     		ldr	r3, [r3]
 3968 1d36 002B     		cmp	r3, #0
 3969 1d38 4BDD     		ble	.L25
 707:.\Include/arm_math.h **** 
 3970              		.loc 2 707 0
 3971 1d3a 8423     		mov	r3, #132
 3972 1d3c 9022     		mov	r2, #144
 3973 1d3e 9446     		mov	ip, r2
 3974 1d40 0822     		mov	r2, #8
 3975 1d42 9046     		mov	r8, r2
 3976 1d44 0822     		mov	r2, #8
 3977 1d46 9146     		mov	r9, r2
 3978 1d48 B944     		add	r9, r9, r7
 3979 1d4a C844     		add	r8, r8, r9
 3980 1d4c C444     		add	ip, ip, r8
 3981 1d4e 6344     		add	r3, r3, ip
 3982 1d50 1B68     		ldr	r3, [r3]
 3983 1d52 013B     		sub	r3, r3, #1
 3984 1d54 8422     		mov	r2, #132
 3985 1d56 9021     		mov	r1, #144
 3986 1d58 8C46     		mov	ip, r1
 3987 1d5a 0821     		mov	r1, #8
 3988 1d5c 8846     		mov	r8, r1
 3989 1d5e 0821     		mov	r1, #8
 3990 1d60 8946     		mov	r9, r1
 3991 1d62 B944     		add	r9, r9, r7
 3992 1d64 C844     		add	r8, r8, r9
 3993 1d66 C444     		add	ip, ip, r8
 3994 1d68 6244     		add	r2, r2, ip
 3995 1d6a 1360     		str	r3, [r2]
 709:.\Include/arm_math.h ****       {
 3996              		.loc 2 709 0
 3997 1d6c 8C23     		mov	r3, #140
 3998 1d6e 9022     		mov	r2, #144
 3999 1d70 9446     		mov	ip, r2
ARM GAS  C:\Users\fneves\AppData\Local\Temp\ccyl4tsw.s 			page 95


 4000 1d72 0822     		mov	r2, #8
 4001 1d74 9046     		mov	r8, r2
 4002 1d76 0822     		mov	r2, #8
 4003 1d78 9146     		mov	r9, r2
 4004 1d7a B944     		add	r9, r9, r7
 4005 1d7c C844     		add	r8, r8, r9
 4006 1d7e C444     		add	ip, ip, r8
 4007 1d80 6344     		add	r3, r3, ip
 4008 1d82 1A68     		ldr	r2, [r3]
 4009 1d84 8423     		mov	r3, #132
 4010 1d86 9021     		mov	r1, #144
 4011 1d88 8C46     		mov	ip, r1
 4012 1d8a 0821     		mov	r1, #8
 4013 1d8c 8846     		mov	r8, r1
 4014 1d8e 0821     		mov	r1, #8
 4015 1d90 8946     		mov	r9, r1
 4016 1d92 B944     		add	r9, r9, r7
 4017 1d94 C844     		add	r8, r8, r9
 4018 1d96 C444     		add	ip, ip, r8
 4019 1d98 6344     		add	r3, r3, ip
 4020 1d9a 1B68     		ldr	r3, [r3]
 4021 1d9c 9A42     		cmp	r2, r3
 4022 1d9e 5EDD     		ble	.L62
 711:.\Include/arm_math.h ****       }
 4023              		.loc 2 711 0
 4024 1da0 8423     		mov	r3, #132
 4025 1da2 9022     		mov	r2, #144
 4026 1da4 9446     		mov	ip, r2
 4027 1da6 0822     		mov	r2, #8
 4028 1da8 9046     		mov	r8, r2
 4029 1daa 0822     		mov	r2, #8
 4030 1dac 9146     		mov	r9, r2
 4031 1dae B944     		add	r9, r9, r7
 4032 1db0 C844     		add	r8, r8, r9
 4033 1db2 C444     		add	ip, ip, r8
 4034 1db4 6344     		add	r3, r3, ip
 4035 1db6 1B68     		ldr	r3, [r3]
 4036 1db8 8C22     		mov	r2, #140
 4037 1dba 9021     		mov	r1, #144
 4038 1dbc 8C46     		mov	ip, r1
 4039 1dbe 0821     		mov	r1, #8
 4040 1dc0 8846     		mov	r8, r1
 4041 1dc2 0821     		mov	r1, #8
 4042 1dc4 8946     		mov	r9, r1
 4043 1dc6 B944     		add	r9, r9, r7
 4044 1dc8 C844     		add	r8, r8, r9
 4045 1dca C444     		add	ip, ip, r8
 4046 1dcc 6244     		add	r2, r2, ip
 4047 1dce 1360     		str	r3, [r2]
 4048 1dd0 46E0     		b	.L27
 4049              	.L25:
 716:.\Include/arm_math.h **** 
 4050              		.loc 2 716 0
 4051 1dd2 8423     		mov	r3, #132
 4052 1dd4 9022     		mov	r2, #144
 4053 1dd6 9446     		mov	ip, r2
 4054 1dd8 0822     		mov	r2, #8
ARM GAS  C:\Users\fneves\AppData\Local\Temp\ccyl4tsw.s 			page 96


 4055 1dda 9046     		mov	r8, r2
 4056 1ddc 0822     		mov	r2, #8
 4057 1dde 9146     		mov	r9, r2
 4058 1de0 B944     		add	r9, r9, r7
 4059 1de2 C844     		add	r8, r8, r9
 4060 1de4 C444     		add	ip, ip, r8
 4061 1de6 6344     		add	r3, r3, ip
 4062 1de8 1B68     		ldr	r3, [r3]
 4063 1dea 5B42     		neg	r3, r3
 4064 1dec 8622     		mov	r2, #134
 4065 1dee 5200     		lsl	r2, r2, #1
 4066 1df0 0821     		mov	r1, #8
 4067 1df2 8C46     		mov	ip, r1
 4068 1df4 0821     		mov	r1, #8
 4069 1df6 8846     		mov	r8, r1
 4070 1df8 B844     		add	r8, r8, r7
 4071 1dfa C444     		add	ip, ip, r8
 4072 1dfc 6244     		add	r2, r2, ip
 4073 1dfe 1360     		str	r3, [r2]
 718:.\Include/arm_math.h ****       {
 4074              		.loc 2 718 0
 4075 1e00 8C23     		mov	r3, #140
 4076 1e02 9022     		mov	r2, #144
 4077 1e04 9446     		mov	ip, r2
 4078 1e06 0822     		mov	r2, #8
 4079 1e08 9046     		mov	r8, r2
 4080 1e0a 0822     		mov	r2, #8
 4081 1e0c 9146     		mov	r9, r2
 4082 1e0e B944     		add	r9, r9, r7
 4083 1e10 C844     		add	r8, r8, r9
 4084 1e12 C444     		add	ip, ip, r8
 4085 1e14 6344     		add	r3, r3, ip
 4086 1e16 1A68     		ldr	r2, [r3]
 4087 1e18 8623     		mov	r3, #134
 4088 1e1a 5B00     		lsl	r3, r3, #1
 4089 1e1c 0821     		mov	r1, #8
 4090 1e1e 8C46     		mov	ip, r1
 4091 1e20 0821     		mov	r1, #8
 4092 1e22 8846     		mov	r8, r1
 4093 1e24 B844     		add	r8, r8, r7
 4094 1e26 C444     		add	ip, ip, r8
 4095 1e28 6344     		add	r3, r3, ip
 4096 1e2a 1B68     		ldr	r3, [r3]
 4097 1e2c 9A42     		cmp	r2, r3
 4098 1e2e 17DA     		bge	.L27
 720:.\Include/arm_math.h ****       }
 4099              		.loc 2 720 0
 4100 1e30 8623     		mov	r3, #134
 4101 1e32 5B00     		lsl	r3, r3, #1
 4102 1e34 0822     		mov	r2, #8
 4103 1e36 9446     		mov	ip, r2
 4104 1e38 0822     		mov	r2, #8
 4105 1e3a 9046     		mov	r8, r2
 4106 1e3c B844     		add	r8, r8, r7
 4107 1e3e C444     		add	ip, ip, r8
 4108 1e40 6344     		add	r3, r3, ip
 4109 1e42 1B68     		ldr	r3, [r3]
ARM GAS  C:\Users\fneves\AppData\Local\Temp\ccyl4tsw.s 			page 97


 4110 1e44 8C22     		mov	r2, #140
 4111 1e46 9021     		mov	r1, #144
 4112 1e48 8C46     		mov	ip, r1
 4113 1e4a 0821     		mov	r1, #8
 4114 1e4c 8846     		mov	r8, r1
