ARM GAS  C:\Users\fneves\AppData\Local\Temp\ccdqidB6.s 			page 1


   1              		.cpu cortex-m0plus
   2              		.fpu softvfp
   3              		.eabi_attribute 20, 1
   4              		.eabi_attribute 21, 1
   5              		.eabi_attribute 23, 3
   6              		.eabi_attribute 24, 1
   7              		.eabi_attribute 25, 1
   8              		.eabi_attribute 26, 1
   9              		.eabi_attribute 30, 6
  10              		.eabi_attribute 34, 0
  11              		.eabi_attribute 18, 4
  12              		.code	16
  13              		.file	"arm_conv_q31.c"
  14              		.text
  15              	.Ltext0:
  16              		.cfi_sections	.debug_frame
  17              		.global	__aeabi_lmul
  18              		.section	.text.arm_conv_q31,"ax",%progbits
  19              		.align	2
  20              		.global	arm_conv_q31
  21              		.code	16
  22              		.thumb_func
  23              		.type	arm_conv_q31, %function
  24              	arm_conv_q31:
  25              	.LFB82:
  26              		.file 1 "Source\\FilteringFunctions\\arm_conv_q31.c"
   1:Source\FilteringFunctions/arm_conv_q31.c **** /* ----------------------------------------------------------------------
   2:Source\FilteringFunctions/arm_conv_q31.c ****  * Project:      CMSIS DSP Library
   3:Source\FilteringFunctions/arm_conv_q31.c ****  * Title:        arm_conv_q31.c
   4:Source\FilteringFunctions/arm_conv_q31.c ****  * Description:  Convolution of Q31 sequences
   5:Source\FilteringFunctions/arm_conv_q31.c ****  *
   6:Source\FilteringFunctions/arm_conv_q31.c ****  * $Date:        27. January 2017
   7:Source\FilteringFunctions/arm_conv_q31.c ****  * $Revision:    V.1.5.1
   8:Source\FilteringFunctions/arm_conv_q31.c ****  *
   9:Source\FilteringFunctions/arm_conv_q31.c ****  * Target Processor: Cortex-M cores
  10:Source\FilteringFunctions/arm_conv_q31.c ****  * -------------------------------------------------------------------- */
  11:Source\FilteringFunctions/arm_conv_q31.c **** /*
  12:Source\FilteringFunctions/arm_conv_q31.c ****  * Copyright (C) 2010-2017 ARM Limited or its affiliates. All rights reserved.
  13:Source\FilteringFunctions/arm_conv_q31.c ****  *
  14:Source\FilteringFunctions/arm_conv_q31.c ****  * SPDX-License-Identifier: Apache-2.0
  15:Source\FilteringFunctions/arm_conv_q31.c ****  *
  16:Source\FilteringFunctions/arm_conv_q31.c ****  * Licensed under the Apache License, Version 2.0 (the License); you may
  17:Source\FilteringFunctions/arm_conv_q31.c ****  * not use this file except in compliance with the License.
  18:Source\FilteringFunctions/arm_conv_q31.c ****  * You may obtain a copy of the License at
  19:Source\FilteringFunctions/arm_conv_q31.c ****  *
  20:Source\FilteringFunctions/arm_conv_q31.c ****  * www.apache.org/licenses/LICENSE-2.0
  21:Source\FilteringFunctions/arm_conv_q31.c ****  *
  22:Source\FilteringFunctions/arm_conv_q31.c ****  * Unless required by applicable law or agreed to in writing, software
  23:Source\FilteringFunctions/arm_conv_q31.c ****  * distributed under the License is distributed on an AS IS BASIS, WITHOUT
  24:Source\FilteringFunctions/arm_conv_q31.c ****  * WARRANTIES OR CONDITIONS OF ANY KIND, either express or implied.
  25:Source\FilteringFunctions/arm_conv_q31.c ****  * See the License for the specific language governing permissions and
  26:Source\FilteringFunctions/arm_conv_q31.c ****  * limitations under the License.
  27:Source\FilteringFunctions/arm_conv_q31.c ****  */
  28:Source\FilteringFunctions/arm_conv_q31.c **** 
  29:Source\FilteringFunctions/arm_conv_q31.c **** #include "arm_math.h"
  30:Source\FilteringFunctions/arm_conv_q31.c **** 
  31:Source\FilteringFunctions/arm_conv_q31.c **** /**
ARM GAS  C:\Users\fneves\AppData\Local\Temp\ccdqidB6.s 			page 2


  32:Source\FilteringFunctions/arm_conv_q31.c ****  * @ingroup groupFilters
  33:Source\FilteringFunctions/arm_conv_q31.c ****  */
  34:Source\FilteringFunctions/arm_conv_q31.c **** 
  35:Source\FilteringFunctions/arm_conv_q31.c **** /**
  36:Source\FilteringFunctions/arm_conv_q31.c ****  * @addtogroup Conv
  37:Source\FilteringFunctions/arm_conv_q31.c ****  * @{
  38:Source\FilteringFunctions/arm_conv_q31.c ****  */
  39:Source\FilteringFunctions/arm_conv_q31.c **** 
  40:Source\FilteringFunctions/arm_conv_q31.c **** /**
  41:Source\FilteringFunctions/arm_conv_q31.c ****  * @brief Convolution of Q31 sequences.
  42:Source\FilteringFunctions/arm_conv_q31.c ****  * @param[in] *pSrcA points to the first input sequence.
  43:Source\FilteringFunctions/arm_conv_q31.c ****  * @param[in] srcALen length of the first input sequence.
  44:Source\FilteringFunctions/arm_conv_q31.c ****  * @param[in] *pSrcB points to the second input sequence.
  45:Source\FilteringFunctions/arm_conv_q31.c ****  * @param[in] srcBLen length of the second input sequence.
  46:Source\FilteringFunctions/arm_conv_q31.c ****  * @param[out] *pDst points to the location where the output result is written.  Length srcALen+src
  47:Source\FilteringFunctions/arm_conv_q31.c ****  * @return none.
  48:Source\FilteringFunctions/arm_conv_q31.c ****  *
  49:Source\FilteringFunctions/arm_conv_q31.c ****  * @details
  50:Source\FilteringFunctions/arm_conv_q31.c ****  * <b>Scaling and Overflow Behavior:</b>
  51:Source\FilteringFunctions/arm_conv_q31.c ****  *
  52:Source\FilteringFunctions/arm_conv_q31.c ****  * \par
  53:Source\FilteringFunctions/arm_conv_q31.c ****  * The function is implemented using an internal 64-bit accumulator.
  54:Source\FilteringFunctions/arm_conv_q31.c ****  * The accumulator has a 2.62 format and maintains full precision of the intermediate multiplicatio
  55:Source\FilteringFunctions/arm_conv_q31.c ****  * There is no saturation on intermediate additions.
  56:Source\FilteringFunctions/arm_conv_q31.c ****  * Thus, if the accumulator overflows it wraps around and distorts the result.
  57:Source\FilteringFunctions/arm_conv_q31.c ****  * The input signals should be scaled down to avoid intermediate overflows.
  58:Source\FilteringFunctions/arm_conv_q31.c ****  * Scale down the inputs by log2(min(srcALen, srcBLen)) (log2 is read as log to the base 2) times t
  59:Source\FilteringFunctions/arm_conv_q31.c ****  * as maximum of min(srcALen, srcBLen) number of additions are carried internally.
  60:Source\FilteringFunctions/arm_conv_q31.c ****  * The 2.62 accumulator is right shifted by 31 bits and saturated to 1.31 format to yield the final
  61:Source\FilteringFunctions/arm_conv_q31.c ****  *
  62:Source\FilteringFunctions/arm_conv_q31.c ****  * \par
  63:Source\FilteringFunctions/arm_conv_q31.c ****  * See <code>arm_conv_fast_q31()</code> for a faster but less precise implementation of this functi
  64:Source\FilteringFunctions/arm_conv_q31.c ****  */
  65:Source\FilteringFunctions/arm_conv_q31.c **** 
  66:Source\FilteringFunctions/arm_conv_q31.c **** void arm_conv_q31(
  67:Source\FilteringFunctions/arm_conv_q31.c ****   q31_t * pSrcA,
  68:Source\FilteringFunctions/arm_conv_q31.c ****   uint32_t srcALen,
  69:Source\FilteringFunctions/arm_conv_q31.c ****   q31_t * pSrcB,
  70:Source\FilteringFunctions/arm_conv_q31.c ****   uint32_t srcBLen,
  71:Source\FilteringFunctions/arm_conv_q31.c ****   q31_t * pDst)
  72:Source\FilteringFunctions/arm_conv_q31.c **** {
  27              		.loc 1 72 0
  28              		.cfi_startproc
  29 0000 B0B5     		push	{r4, r5, r7, lr}
  30              		.cfi_def_cfa_offset 16
  31              		.cfi_offset 4, -16
  32              		.cfi_offset 5, -12
  33              		.cfi_offset 7, -8
  34              		.cfi_offset 14, -4
  35 0002 8EB0     		sub	sp, sp, #56
  36              		.cfi_def_cfa_offset 72
  37 0004 00AF     		add	r7, sp, #0
  38              		.cfi_def_cfa_register 7
  39 0006 F861     		str	r0, [r7, #28]
  40 0008 B961     		str	r1, [r7, #24]
  41 000a 7A61     		str	r2, [r7, #20]
  42 000c 3B61     		str	r3, [r7, #16]
ARM GAS  C:\Users\fneves\AppData\Local\Temp\ccdqidB6.s 			page 3


  73:Source\FilteringFunctions/arm_conv_q31.c **** 
  74:Source\FilteringFunctions/arm_conv_q31.c **** 
  75:Source\FilteringFunctions/arm_conv_q31.c **** #if defined (ARM_MATH_DSP)
  76:Source\FilteringFunctions/arm_conv_q31.c **** 
  77:Source\FilteringFunctions/arm_conv_q31.c ****   /* Run the below code for Cortex-M4 and Cortex-M3 */
  78:Source\FilteringFunctions/arm_conv_q31.c **** 
  79:Source\FilteringFunctions/arm_conv_q31.c ****   q31_t *pIn1;                                   /* inputA pointer */
  80:Source\FilteringFunctions/arm_conv_q31.c ****   q31_t *pIn2;                                   /* inputB pointer */
  81:Source\FilteringFunctions/arm_conv_q31.c ****   q31_t *pOut = pDst;                            /* output pointer */
  82:Source\FilteringFunctions/arm_conv_q31.c ****   q31_t *px;                                     /* Intermediate inputA pointer  */
  83:Source\FilteringFunctions/arm_conv_q31.c ****   q31_t *py;                                     /* Intermediate inputB pointer  */
  84:Source\FilteringFunctions/arm_conv_q31.c ****   q31_t *pSrc1, *pSrc2;                          /* Intermediate pointers */
  85:Source\FilteringFunctions/arm_conv_q31.c ****   q63_t sum;                                     /* Accumulator */
  86:Source\FilteringFunctions/arm_conv_q31.c ****   q63_t acc0, acc1, acc2;                        /* Accumulator */
  87:Source\FilteringFunctions/arm_conv_q31.c ****   q31_t x0, x1, x2, c0;                          /* Temporary variables to hold state and coefficie
  88:Source\FilteringFunctions/arm_conv_q31.c ****   uint32_t j, k, count, blkCnt, blockSize1, blockSize2, blockSize3;     /* loop counter */
  89:Source\FilteringFunctions/arm_conv_q31.c **** 
  90:Source\FilteringFunctions/arm_conv_q31.c ****   /* The algorithm implementation is based on the lengths of the inputs. */
  91:Source\FilteringFunctions/arm_conv_q31.c ****   /* srcB is always made to slide across srcA. */
  92:Source\FilteringFunctions/arm_conv_q31.c ****   /* So srcBLen is always considered as shorter or equal to srcALen */
  93:Source\FilteringFunctions/arm_conv_q31.c ****   if (srcALen >= srcBLen)
  94:Source\FilteringFunctions/arm_conv_q31.c ****   {
  95:Source\FilteringFunctions/arm_conv_q31.c ****     /* Initialization of inputA pointer */
  96:Source\FilteringFunctions/arm_conv_q31.c ****     pIn1 = pSrcA;
  97:Source\FilteringFunctions/arm_conv_q31.c **** 
  98:Source\FilteringFunctions/arm_conv_q31.c ****     /* Initialization of inputB pointer */
  99:Source\FilteringFunctions/arm_conv_q31.c ****     pIn2 = pSrcB;
 100:Source\FilteringFunctions/arm_conv_q31.c ****   }
 101:Source\FilteringFunctions/arm_conv_q31.c ****   else
 102:Source\FilteringFunctions/arm_conv_q31.c ****   {
 103:Source\FilteringFunctions/arm_conv_q31.c ****     /* Initialization of inputA pointer */
 104:Source\FilteringFunctions/arm_conv_q31.c ****     pIn1 = (q31_t *) pSrcB;
 105:Source\FilteringFunctions/arm_conv_q31.c **** 
 106:Source\FilteringFunctions/arm_conv_q31.c ****     /* Initialization of inputB pointer */
 107:Source\FilteringFunctions/arm_conv_q31.c ****     pIn2 = (q31_t *) pSrcA;
 108:Source\FilteringFunctions/arm_conv_q31.c **** 
 109:Source\FilteringFunctions/arm_conv_q31.c ****     /* srcBLen is always considered as shorter or equal to srcALen */
 110:Source\FilteringFunctions/arm_conv_q31.c ****     j = srcBLen;
 111:Source\FilteringFunctions/arm_conv_q31.c ****     srcBLen = srcALen;
 112:Source\FilteringFunctions/arm_conv_q31.c ****     srcALen = j;
 113:Source\FilteringFunctions/arm_conv_q31.c ****   }
 114:Source\FilteringFunctions/arm_conv_q31.c **** 
 115:Source\FilteringFunctions/arm_conv_q31.c ****   /* conv(x,y) at n = x[n] * y[0] + x[n-1] * y[1] + x[n-2] * y[2] + ...+ x[n-N+1] * y[N -1] */
 116:Source\FilteringFunctions/arm_conv_q31.c ****   /* The function is internally
 117:Source\FilteringFunctions/arm_conv_q31.c ****    * divided into three stages according to the number of multiplications that has to be
 118:Source\FilteringFunctions/arm_conv_q31.c ****    * taken place between inputA samples and inputB samples. In the first stage of the
 119:Source\FilteringFunctions/arm_conv_q31.c ****    * algorithm, the multiplications increase by one for every iteration.
 120:Source\FilteringFunctions/arm_conv_q31.c ****    * In the second stage of the algorithm, srcBLen number of multiplications are done.
 121:Source\FilteringFunctions/arm_conv_q31.c ****    * In the third stage of the algorithm, the multiplications decrease by one
 122:Source\FilteringFunctions/arm_conv_q31.c ****    * for every iteration. */
 123:Source\FilteringFunctions/arm_conv_q31.c **** 
 124:Source\FilteringFunctions/arm_conv_q31.c ****   /* The algorithm is implemented in three stages.
 125:Source\FilteringFunctions/arm_conv_q31.c ****      The loop counters of each stage is initiated here. */
 126:Source\FilteringFunctions/arm_conv_q31.c ****   blockSize1 = srcBLen - 1u;
 127:Source\FilteringFunctions/arm_conv_q31.c ****   blockSize2 = srcALen - (srcBLen - 1u);
 128:Source\FilteringFunctions/arm_conv_q31.c ****   blockSize3 = blockSize1;
 129:Source\FilteringFunctions/arm_conv_q31.c **** 
ARM GAS  C:\Users\fneves\AppData\Local\Temp\ccdqidB6.s 			page 4


 130:Source\FilteringFunctions/arm_conv_q31.c ****   /* --------------------------
 131:Source\FilteringFunctions/arm_conv_q31.c ****    * Initializations of stage1
 132:Source\FilteringFunctions/arm_conv_q31.c ****    * -------------------------*/
 133:Source\FilteringFunctions/arm_conv_q31.c **** 
 134:Source\FilteringFunctions/arm_conv_q31.c ****   /* sum = x[0] * y[0]
 135:Source\FilteringFunctions/arm_conv_q31.c ****    * sum = x[0] * y[1] + x[1] * y[0]
 136:Source\FilteringFunctions/arm_conv_q31.c ****    * ....
 137:Source\FilteringFunctions/arm_conv_q31.c ****    * sum = x[0] * y[srcBlen - 1] + x[1] * y[srcBlen - 2] +...+ x[srcBLen - 1] * y[0]
 138:Source\FilteringFunctions/arm_conv_q31.c ****    */
 139:Source\FilteringFunctions/arm_conv_q31.c **** 
 140:Source\FilteringFunctions/arm_conv_q31.c ****   /* In this stage the MAC operations are increased by 1 for every iteration.
 141:Source\FilteringFunctions/arm_conv_q31.c ****      The count variable holds the number of MAC operations performed */
 142:Source\FilteringFunctions/arm_conv_q31.c ****   count = 1u;
 143:Source\FilteringFunctions/arm_conv_q31.c **** 
 144:Source\FilteringFunctions/arm_conv_q31.c ****   /* Working pointer of inputA */
 145:Source\FilteringFunctions/arm_conv_q31.c ****   px = pIn1;
 146:Source\FilteringFunctions/arm_conv_q31.c **** 
 147:Source\FilteringFunctions/arm_conv_q31.c ****   /* Working pointer of inputB */
 148:Source\FilteringFunctions/arm_conv_q31.c ****   py = pIn2;
 149:Source\FilteringFunctions/arm_conv_q31.c **** 
 150:Source\FilteringFunctions/arm_conv_q31.c **** 
 151:Source\FilteringFunctions/arm_conv_q31.c ****   /* ------------------------
 152:Source\FilteringFunctions/arm_conv_q31.c ****    * Stage1 process
 153:Source\FilteringFunctions/arm_conv_q31.c ****    * ----------------------*/
 154:Source\FilteringFunctions/arm_conv_q31.c **** 
 155:Source\FilteringFunctions/arm_conv_q31.c ****   /* The first stage starts here */
 156:Source\FilteringFunctions/arm_conv_q31.c ****   while (blockSize1 > 0u)
 157:Source\FilteringFunctions/arm_conv_q31.c ****   {
 158:Source\FilteringFunctions/arm_conv_q31.c ****     /* Accumulator is made zero for every iteration */
 159:Source\FilteringFunctions/arm_conv_q31.c ****     sum = 0;
 160:Source\FilteringFunctions/arm_conv_q31.c **** 
 161:Source\FilteringFunctions/arm_conv_q31.c ****     /* Apply loop unrolling and compute 4 MACs simultaneously. */
 162:Source\FilteringFunctions/arm_conv_q31.c ****     k = count >> 2u;
 163:Source\FilteringFunctions/arm_conv_q31.c **** 
 164:Source\FilteringFunctions/arm_conv_q31.c ****     /* First part of the processing with loop unrolling.  Compute 4 MACs at a time.
 165:Source\FilteringFunctions/arm_conv_q31.c ****      ** a second loop below computes MACs for the remaining 1 to 3 samples. */
 166:Source\FilteringFunctions/arm_conv_q31.c ****     while (k > 0u)
 167:Source\FilteringFunctions/arm_conv_q31.c ****     {
 168:Source\FilteringFunctions/arm_conv_q31.c ****       /* x[0] * y[srcBLen - 1] */
 169:Source\FilteringFunctions/arm_conv_q31.c ****       sum += (q63_t) * px++ * (*py--);
 170:Source\FilteringFunctions/arm_conv_q31.c ****       /* x[1] * y[srcBLen - 2] */
 171:Source\FilteringFunctions/arm_conv_q31.c ****       sum += (q63_t) * px++ * (*py--);
 172:Source\FilteringFunctions/arm_conv_q31.c ****       /* x[2] * y[srcBLen - 3] */
 173:Source\FilteringFunctions/arm_conv_q31.c ****       sum += (q63_t) * px++ * (*py--);
 174:Source\FilteringFunctions/arm_conv_q31.c ****       /* x[3] * y[srcBLen - 4] */
 175:Source\FilteringFunctions/arm_conv_q31.c ****       sum += (q63_t) * px++ * (*py--);
 176:Source\FilteringFunctions/arm_conv_q31.c **** 
 177:Source\FilteringFunctions/arm_conv_q31.c ****       /* Decrement the loop counter */
 178:Source\FilteringFunctions/arm_conv_q31.c ****       k--;
 179:Source\FilteringFunctions/arm_conv_q31.c ****     }
 180:Source\FilteringFunctions/arm_conv_q31.c **** 
 181:Source\FilteringFunctions/arm_conv_q31.c ****     /* If the count is not a multiple of 4, compute any remaining MACs here.
 182:Source\FilteringFunctions/arm_conv_q31.c ****      ** No loop unrolling is used. */
 183:Source\FilteringFunctions/arm_conv_q31.c ****     k = count % 0x4u;
 184:Source\FilteringFunctions/arm_conv_q31.c **** 
 185:Source\FilteringFunctions/arm_conv_q31.c ****     while (k > 0u)
 186:Source\FilteringFunctions/arm_conv_q31.c ****     {
ARM GAS  C:\Users\fneves\AppData\Local\Temp\ccdqidB6.s 			page 5


 187:Source\FilteringFunctions/arm_conv_q31.c ****       /* Perform the multiply-accumulate */
 188:Source\FilteringFunctions/arm_conv_q31.c ****       sum += (q63_t) * px++ * (*py--);
 189:Source\FilteringFunctions/arm_conv_q31.c **** 
 190:Source\FilteringFunctions/arm_conv_q31.c ****       /* Decrement the loop counter */
 191:Source\FilteringFunctions/arm_conv_q31.c ****       k--;
 192:Source\FilteringFunctions/arm_conv_q31.c ****     }
 193:Source\FilteringFunctions/arm_conv_q31.c **** 
 194:Source\FilteringFunctions/arm_conv_q31.c ****     /* Store the result in the accumulator in the destination buffer. */
 195:Source\FilteringFunctions/arm_conv_q31.c ****     *pOut++ = (q31_t) (sum >> 31);
 196:Source\FilteringFunctions/arm_conv_q31.c **** 
 197:Source\FilteringFunctions/arm_conv_q31.c ****     /* Update the inputA and inputB pointers for next MAC calculation */
 198:Source\FilteringFunctions/arm_conv_q31.c ****     py = pIn2 + count;
 199:Source\FilteringFunctions/arm_conv_q31.c ****     px = pIn1;
 200:Source\FilteringFunctions/arm_conv_q31.c **** 
 201:Source\FilteringFunctions/arm_conv_q31.c ****     /* Increment the MAC count */
 202:Source\FilteringFunctions/arm_conv_q31.c ****     count++;
 203:Source\FilteringFunctions/arm_conv_q31.c **** 
 204:Source\FilteringFunctions/arm_conv_q31.c ****     /* Decrement the loop counter */
 205:Source\FilteringFunctions/arm_conv_q31.c ****     blockSize1--;
 206:Source\FilteringFunctions/arm_conv_q31.c ****   }
 207:Source\FilteringFunctions/arm_conv_q31.c **** 
 208:Source\FilteringFunctions/arm_conv_q31.c ****   /* --------------------------
 209:Source\FilteringFunctions/arm_conv_q31.c ****    * Initializations of stage2
 210:Source\FilteringFunctions/arm_conv_q31.c ****    * ------------------------*/
 211:Source\FilteringFunctions/arm_conv_q31.c **** 
 212:Source\FilteringFunctions/arm_conv_q31.c ****   /* sum = x[0] * y[srcBLen-1] + x[1] * y[srcBLen-2] +...+ x[srcBLen-1] * y[0]
 213:Source\FilteringFunctions/arm_conv_q31.c ****    * sum = x[1] * y[srcBLen-1] + x[2] * y[srcBLen-2] +...+ x[srcBLen] * y[0]
 214:Source\FilteringFunctions/arm_conv_q31.c ****    * ....
 215:Source\FilteringFunctions/arm_conv_q31.c ****    * sum = x[srcALen-srcBLen-2] * y[srcBLen-1] + x[srcALen] * y[srcBLen-2] +...+ x[srcALen-1] * y[0
 216:Source\FilteringFunctions/arm_conv_q31.c ****    */
 217:Source\FilteringFunctions/arm_conv_q31.c **** 
 218:Source\FilteringFunctions/arm_conv_q31.c ****   /* Working pointer of inputA */
 219:Source\FilteringFunctions/arm_conv_q31.c ****   px = pIn1;
 220:Source\FilteringFunctions/arm_conv_q31.c **** 
 221:Source\FilteringFunctions/arm_conv_q31.c ****   /* Working pointer of inputB */
 222:Source\FilteringFunctions/arm_conv_q31.c ****   pSrc2 = pIn2 + (srcBLen - 1u);
 223:Source\FilteringFunctions/arm_conv_q31.c ****   py = pSrc2;
 224:Source\FilteringFunctions/arm_conv_q31.c **** 
 225:Source\FilteringFunctions/arm_conv_q31.c ****   /* count is index by which the pointer pIn1 to be incremented */
 226:Source\FilteringFunctions/arm_conv_q31.c ****   count = 0u;
 227:Source\FilteringFunctions/arm_conv_q31.c **** 
 228:Source\FilteringFunctions/arm_conv_q31.c ****   /* -------------------
 229:Source\FilteringFunctions/arm_conv_q31.c ****    * Stage2 process
 230:Source\FilteringFunctions/arm_conv_q31.c ****    * ------------------*/
 231:Source\FilteringFunctions/arm_conv_q31.c **** 
 232:Source\FilteringFunctions/arm_conv_q31.c ****   /* Stage2 depends on srcBLen as in this stage srcBLen number of MACS are performed.
 233:Source\FilteringFunctions/arm_conv_q31.c ****    * So, to loop unroll over blockSize2,
 234:Source\FilteringFunctions/arm_conv_q31.c ****    * srcBLen should be greater than or equal to 4 */
 235:Source\FilteringFunctions/arm_conv_q31.c ****   if (srcBLen >= 4u)
 236:Source\FilteringFunctions/arm_conv_q31.c ****   {
 237:Source\FilteringFunctions/arm_conv_q31.c ****     /* Loop unroll by 3 */
 238:Source\FilteringFunctions/arm_conv_q31.c ****     blkCnt = blockSize2 / 3;
 239:Source\FilteringFunctions/arm_conv_q31.c **** 
 240:Source\FilteringFunctions/arm_conv_q31.c ****     while (blkCnt > 0u)
 241:Source\FilteringFunctions/arm_conv_q31.c ****     {
 242:Source\FilteringFunctions/arm_conv_q31.c ****       /* Set all accumulators to zero */
 243:Source\FilteringFunctions/arm_conv_q31.c ****       acc0 = 0;
ARM GAS  C:\Users\fneves\AppData\Local\Temp\ccdqidB6.s 			page 6


 244:Source\FilteringFunctions/arm_conv_q31.c ****       acc1 = 0;
 245:Source\FilteringFunctions/arm_conv_q31.c ****       acc2 = 0;
 246:Source\FilteringFunctions/arm_conv_q31.c **** 
 247:Source\FilteringFunctions/arm_conv_q31.c ****       /* read x[0], x[1], x[2] samples */
 248:Source\FilteringFunctions/arm_conv_q31.c ****       x0 = *(px++);
 249:Source\FilteringFunctions/arm_conv_q31.c ****       x1 = *(px++);
 250:Source\FilteringFunctions/arm_conv_q31.c **** 
 251:Source\FilteringFunctions/arm_conv_q31.c ****       /* Apply loop unrolling and compute 3 MACs simultaneously. */
 252:Source\FilteringFunctions/arm_conv_q31.c ****       k = srcBLen / 3;
 253:Source\FilteringFunctions/arm_conv_q31.c **** 
 254:Source\FilteringFunctions/arm_conv_q31.c ****       /* First part of the processing with loop unrolling.  Compute 3 MACs at a time.
 255:Source\FilteringFunctions/arm_conv_q31.c ****        ** a second loop below computes MACs for the remaining 1 to 2 samples. */
 256:Source\FilteringFunctions/arm_conv_q31.c ****       do
 257:Source\FilteringFunctions/arm_conv_q31.c ****       {
 258:Source\FilteringFunctions/arm_conv_q31.c ****         /* Read y[srcBLen - 1] sample */
 259:Source\FilteringFunctions/arm_conv_q31.c ****         c0 = *(py);
 260:Source\FilteringFunctions/arm_conv_q31.c **** 
 261:Source\FilteringFunctions/arm_conv_q31.c ****         /* Read x[3] sample */
 262:Source\FilteringFunctions/arm_conv_q31.c ****         x2 = *(px);
 263:Source\FilteringFunctions/arm_conv_q31.c **** 
 264:Source\FilteringFunctions/arm_conv_q31.c ****         /* Perform the multiply-accumulates */
 265:Source\FilteringFunctions/arm_conv_q31.c ****         /* acc0 +=  x[0] * y[srcBLen - 1] */
 266:Source\FilteringFunctions/arm_conv_q31.c ****         acc0 += ((q63_t) x0 * c0);
 267:Source\FilteringFunctions/arm_conv_q31.c ****         /* acc1 +=  x[1] * y[srcBLen - 1] */
 268:Source\FilteringFunctions/arm_conv_q31.c ****         acc1 += ((q63_t) x1 * c0);
 269:Source\FilteringFunctions/arm_conv_q31.c ****         /* acc2 +=  x[2] * y[srcBLen - 1] */
 270:Source\FilteringFunctions/arm_conv_q31.c ****         acc2 += ((q63_t) x2 * c0);
 271:Source\FilteringFunctions/arm_conv_q31.c **** 
 272:Source\FilteringFunctions/arm_conv_q31.c ****         /* Read y[srcBLen - 2] sample */
 273:Source\FilteringFunctions/arm_conv_q31.c ****         c0 = *(py - 1u);
 274:Source\FilteringFunctions/arm_conv_q31.c **** 
 275:Source\FilteringFunctions/arm_conv_q31.c ****         /* Read x[4] sample */
 276:Source\FilteringFunctions/arm_conv_q31.c ****         x0 = *(px + 1u);
 277:Source\FilteringFunctions/arm_conv_q31.c **** 
 278:Source\FilteringFunctions/arm_conv_q31.c ****         /* Perform the multiply-accumulate */
 279:Source\FilteringFunctions/arm_conv_q31.c ****         /* acc0 +=  x[1] * y[srcBLen - 2] */
 280:Source\FilteringFunctions/arm_conv_q31.c ****         acc0 += ((q63_t) x1 * c0);
 281:Source\FilteringFunctions/arm_conv_q31.c ****         /* acc1 +=  x[2] * y[srcBLen - 2] */
 282:Source\FilteringFunctions/arm_conv_q31.c ****         acc1 += ((q63_t) x2 * c0);
 283:Source\FilteringFunctions/arm_conv_q31.c ****         /* acc2 +=  x[3] * y[srcBLen - 2] */
 284:Source\FilteringFunctions/arm_conv_q31.c ****         acc2 += ((q63_t) x0 * c0);
 285:Source\FilteringFunctions/arm_conv_q31.c **** 
 286:Source\FilteringFunctions/arm_conv_q31.c ****         /* Read y[srcBLen - 3] sample */
 287:Source\FilteringFunctions/arm_conv_q31.c ****         c0 = *(py - 2u);
 288:Source\FilteringFunctions/arm_conv_q31.c **** 
 289:Source\FilteringFunctions/arm_conv_q31.c ****         /* Read x[5] sample */
 290:Source\FilteringFunctions/arm_conv_q31.c ****         x1 = *(px + 2u);
 291:Source\FilteringFunctions/arm_conv_q31.c **** 
 292:Source\FilteringFunctions/arm_conv_q31.c ****         /* Perform the multiply-accumulates */
 293:Source\FilteringFunctions/arm_conv_q31.c ****         /* acc0 +=  x[2] * y[srcBLen - 3] */
 294:Source\FilteringFunctions/arm_conv_q31.c ****         acc0 += ((q63_t) x2 * c0);
 295:Source\FilteringFunctions/arm_conv_q31.c ****         /* acc1 +=  x[3] * y[srcBLen - 2] */
 296:Source\FilteringFunctions/arm_conv_q31.c ****         acc1 += ((q63_t) x0 * c0);
 297:Source\FilteringFunctions/arm_conv_q31.c ****         /* acc2 +=  x[4] * y[srcBLen - 2] */
 298:Source\FilteringFunctions/arm_conv_q31.c ****         acc2 += ((q63_t) x1 * c0);
 299:Source\FilteringFunctions/arm_conv_q31.c **** 
 300:Source\FilteringFunctions/arm_conv_q31.c ****         /* update scratch pointers */
ARM GAS  C:\Users\fneves\AppData\Local\Temp\ccdqidB6.s 			page 7


 301:Source\FilteringFunctions/arm_conv_q31.c ****         px += 3u;
 302:Source\FilteringFunctions/arm_conv_q31.c ****         py -= 3u;
 303:Source\FilteringFunctions/arm_conv_q31.c **** 
 304:Source\FilteringFunctions/arm_conv_q31.c ****       } while (--k);
 305:Source\FilteringFunctions/arm_conv_q31.c **** 
 306:Source\FilteringFunctions/arm_conv_q31.c ****       /* If the srcBLen is not a multiple of 3, compute any remaining MACs here.
 307:Source\FilteringFunctions/arm_conv_q31.c ****        ** No loop unrolling is used. */
 308:Source\FilteringFunctions/arm_conv_q31.c ****       k = srcBLen - (3 * (srcBLen / 3));
 309:Source\FilteringFunctions/arm_conv_q31.c **** 
 310:Source\FilteringFunctions/arm_conv_q31.c ****       while (k > 0u)
 311:Source\FilteringFunctions/arm_conv_q31.c ****       {
 312:Source\FilteringFunctions/arm_conv_q31.c ****         /* Read y[srcBLen - 5] sample */
 313:Source\FilteringFunctions/arm_conv_q31.c ****         c0 = *(py--);
 314:Source\FilteringFunctions/arm_conv_q31.c **** 
 315:Source\FilteringFunctions/arm_conv_q31.c ****         /* Read x[7] sample */
 316:Source\FilteringFunctions/arm_conv_q31.c ****         x2 = *(px++);
 317:Source\FilteringFunctions/arm_conv_q31.c **** 
 318:Source\FilteringFunctions/arm_conv_q31.c ****         /* Perform the multiply-accumulates */
 319:Source\FilteringFunctions/arm_conv_q31.c ****         /* acc0 +=  x[4] * y[srcBLen - 5] */
 320:Source\FilteringFunctions/arm_conv_q31.c ****         acc0 += ((q63_t) x0 * c0);
 321:Source\FilteringFunctions/arm_conv_q31.c ****         /* acc1 +=  x[5] * y[srcBLen - 5] */
 322:Source\FilteringFunctions/arm_conv_q31.c ****         acc1 += ((q63_t) x1 * c0);
 323:Source\FilteringFunctions/arm_conv_q31.c ****         /* acc2 +=  x[6] * y[srcBLen - 5] */
 324:Source\FilteringFunctions/arm_conv_q31.c ****         acc2 += ((q63_t) x2 * c0);
 325:Source\FilteringFunctions/arm_conv_q31.c **** 
 326:Source\FilteringFunctions/arm_conv_q31.c ****         /* Reuse the present samples for the next MAC */
 327:Source\FilteringFunctions/arm_conv_q31.c ****         x0 = x1;
 328:Source\FilteringFunctions/arm_conv_q31.c ****         x1 = x2;
 329:Source\FilteringFunctions/arm_conv_q31.c **** 
 330:Source\FilteringFunctions/arm_conv_q31.c ****         /* Decrement the loop counter */
 331:Source\FilteringFunctions/arm_conv_q31.c ****         k--;
 332:Source\FilteringFunctions/arm_conv_q31.c ****       }
 333:Source\FilteringFunctions/arm_conv_q31.c **** 
 334:Source\FilteringFunctions/arm_conv_q31.c ****       /* Store the results in the accumulators in the destination buffer. */
 335:Source\FilteringFunctions/arm_conv_q31.c ****       *pOut++ = (q31_t) (acc0 >> 31);
 336:Source\FilteringFunctions/arm_conv_q31.c ****       *pOut++ = (q31_t) (acc1 >> 31);
 337:Source\FilteringFunctions/arm_conv_q31.c ****       *pOut++ = (q31_t) (acc2 >> 31);
 338:Source\FilteringFunctions/arm_conv_q31.c **** 
 339:Source\FilteringFunctions/arm_conv_q31.c ****       /* Increment the pointer pIn1 index, count by 3 */
 340:Source\FilteringFunctions/arm_conv_q31.c ****       count += 3u;
 341:Source\FilteringFunctions/arm_conv_q31.c **** 
 342:Source\FilteringFunctions/arm_conv_q31.c ****       /* Update the inputA and inputB pointers for next MAC calculation */
 343:Source\FilteringFunctions/arm_conv_q31.c ****       px = pIn1 + count;
 344:Source\FilteringFunctions/arm_conv_q31.c ****       py = pSrc2;
 345:Source\FilteringFunctions/arm_conv_q31.c **** 
 346:Source\FilteringFunctions/arm_conv_q31.c ****       /* Decrement the loop counter */
 347:Source\FilteringFunctions/arm_conv_q31.c ****       blkCnt--;
 348:Source\FilteringFunctions/arm_conv_q31.c ****     }
 349:Source\FilteringFunctions/arm_conv_q31.c **** 
 350:Source\FilteringFunctions/arm_conv_q31.c ****     /* If the blockSize2 is not a multiple of 3, compute any remaining output samples here.
 351:Source\FilteringFunctions/arm_conv_q31.c ****      ** No loop unrolling is used. */
 352:Source\FilteringFunctions/arm_conv_q31.c ****     blkCnt = blockSize2 - 3 * (blockSize2 / 3);
 353:Source\FilteringFunctions/arm_conv_q31.c **** 
 354:Source\FilteringFunctions/arm_conv_q31.c ****     while (blkCnt > 0u)
 355:Source\FilteringFunctions/arm_conv_q31.c ****     {
 356:Source\FilteringFunctions/arm_conv_q31.c ****       /* Accumulator is made zero for every iteration */
 357:Source\FilteringFunctions/arm_conv_q31.c ****       sum = 0;
ARM GAS  C:\Users\fneves\AppData\Local\Temp\ccdqidB6.s 			page 8


 358:Source\FilteringFunctions/arm_conv_q31.c **** 
 359:Source\FilteringFunctions/arm_conv_q31.c ****       /* Apply loop unrolling and compute 4 MACs simultaneously. */
 360:Source\FilteringFunctions/arm_conv_q31.c ****       k = srcBLen >> 2u;
 361:Source\FilteringFunctions/arm_conv_q31.c **** 
 362:Source\FilteringFunctions/arm_conv_q31.c ****       /* First part of the processing with loop unrolling.  Compute 4 MACs at a time.
 363:Source\FilteringFunctions/arm_conv_q31.c ****        ** a second loop below computes MACs for the remaining 1 to 3 samples. */
 364:Source\FilteringFunctions/arm_conv_q31.c ****       while (k > 0u)
 365:Source\FilteringFunctions/arm_conv_q31.c ****       {
 366:Source\FilteringFunctions/arm_conv_q31.c ****         /* Perform the multiply-accumulates */
 367:Source\FilteringFunctions/arm_conv_q31.c ****         sum += (q63_t) * px++ * (*py--);
 368:Source\FilteringFunctions/arm_conv_q31.c ****         sum += (q63_t) * px++ * (*py--);
 369:Source\FilteringFunctions/arm_conv_q31.c ****         sum += (q63_t) * px++ * (*py--);
 370:Source\FilteringFunctions/arm_conv_q31.c ****         sum += (q63_t) * px++ * (*py--);
 371:Source\FilteringFunctions/arm_conv_q31.c **** 
 372:Source\FilteringFunctions/arm_conv_q31.c ****         /* Decrement the loop counter */
 373:Source\FilteringFunctions/arm_conv_q31.c ****         k--;
 374:Source\FilteringFunctions/arm_conv_q31.c ****       }
 375:Source\FilteringFunctions/arm_conv_q31.c **** 
 376:Source\FilteringFunctions/arm_conv_q31.c ****       /* If the srcBLen is not a multiple of 4, compute any remaining MACs here.
 377:Source\FilteringFunctions/arm_conv_q31.c ****        ** No loop unrolling is used. */
 378:Source\FilteringFunctions/arm_conv_q31.c ****       k = srcBLen % 0x4u;
 379:Source\FilteringFunctions/arm_conv_q31.c **** 
 380:Source\FilteringFunctions/arm_conv_q31.c ****       while (k > 0u)
 381:Source\FilteringFunctions/arm_conv_q31.c ****       {
 382:Source\FilteringFunctions/arm_conv_q31.c ****         /* Perform the multiply-accumulate */
 383:Source\FilteringFunctions/arm_conv_q31.c ****         sum += (q63_t) * px++ * (*py--);
 384:Source\FilteringFunctions/arm_conv_q31.c **** 
 385:Source\FilteringFunctions/arm_conv_q31.c ****         /* Decrement the loop counter */
 386:Source\FilteringFunctions/arm_conv_q31.c ****         k--;
 387:Source\FilteringFunctions/arm_conv_q31.c ****       }
 388:Source\FilteringFunctions/arm_conv_q31.c **** 
 389:Source\FilteringFunctions/arm_conv_q31.c ****       /* Store the result in the accumulator in the destination buffer. */
 390:Source\FilteringFunctions/arm_conv_q31.c ****       *pOut++ = (q31_t) (sum >> 31);
 391:Source\FilteringFunctions/arm_conv_q31.c **** 
 392:Source\FilteringFunctions/arm_conv_q31.c ****       /* Increment the MAC count */
 393:Source\FilteringFunctions/arm_conv_q31.c ****       count++;
 394:Source\FilteringFunctions/arm_conv_q31.c **** 
 395:Source\FilteringFunctions/arm_conv_q31.c ****       /* Update the inputA and inputB pointers for next MAC calculation */
 396:Source\FilteringFunctions/arm_conv_q31.c ****       px = pIn1 + count;
 397:Source\FilteringFunctions/arm_conv_q31.c ****       py = pSrc2;
 398:Source\FilteringFunctions/arm_conv_q31.c **** 
 399:Source\FilteringFunctions/arm_conv_q31.c ****       /* Decrement the loop counter */
 400:Source\FilteringFunctions/arm_conv_q31.c ****       blkCnt--;
 401:Source\FilteringFunctions/arm_conv_q31.c ****     }
 402:Source\FilteringFunctions/arm_conv_q31.c ****   }
 403:Source\FilteringFunctions/arm_conv_q31.c ****   else
 404:Source\FilteringFunctions/arm_conv_q31.c ****   {
 405:Source\FilteringFunctions/arm_conv_q31.c ****     /* If the srcBLen is not a multiple of 4,
 406:Source\FilteringFunctions/arm_conv_q31.c ****      * the blockSize2 loop cannot be unrolled by 4 */
 407:Source\FilteringFunctions/arm_conv_q31.c ****     blkCnt = blockSize2;
 408:Source\FilteringFunctions/arm_conv_q31.c **** 
 409:Source\FilteringFunctions/arm_conv_q31.c ****     while (blkCnt > 0u)
 410:Source\FilteringFunctions/arm_conv_q31.c ****     {
 411:Source\FilteringFunctions/arm_conv_q31.c ****       /* Accumulator is made zero for every iteration */
 412:Source\FilteringFunctions/arm_conv_q31.c ****       sum = 0;
 413:Source\FilteringFunctions/arm_conv_q31.c **** 
 414:Source\FilteringFunctions/arm_conv_q31.c ****       /* srcBLen number of MACS should be performed */
ARM GAS  C:\Users\fneves\AppData\Local\Temp\ccdqidB6.s 			page 9


 415:Source\FilteringFunctions/arm_conv_q31.c ****       k = srcBLen;
 416:Source\FilteringFunctions/arm_conv_q31.c **** 
 417:Source\FilteringFunctions/arm_conv_q31.c ****       while (k > 0u)
 418:Source\FilteringFunctions/arm_conv_q31.c ****       {
 419:Source\FilteringFunctions/arm_conv_q31.c ****         /* Perform the multiply-accumulate */
 420:Source\FilteringFunctions/arm_conv_q31.c ****         sum += (q63_t) * px++ * (*py--);
 421:Source\FilteringFunctions/arm_conv_q31.c **** 
 422:Source\FilteringFunctions/arm_conv_q31.c ****         /* Decrement the loop counter */
 423:Source\FilteringFunctions/arm_conv_q31.c ****         k--;
 424:Source\FilteringFunctions/arm_conv_q31.c ****       }
 425:Source\FilteringFunctions/arm_conv_q31.c **** 
 426:Source\FilteringFunctions/arm_conv_q31.c ****       /* Store the result in the accumulator in the destination buffer. */
 427:Source\FilteringFunctions/arm_conv_q31.c ****       *pOut++ = (q31_t) (sum >> 31);
 428:Source\FilteringFunctions/arm_conv_q31.c **** 
 429:Source\FilteringFunctions/arm_conv_q31.c ****       /* Increment the MAC count */
 430:Source\FilteringFunctions/arm_conv_q31.c ****       count++;
 431:Source\FilteringFunctions/arm_conv_q31.c **** 
 432:Source\FilteringFunctions/arm_conv_q31.c ****       /* Update the inputA and inputB pointers for next MAC calculation */
 433:Source\FilteringFunctions/arm_conv_q31.c ****       px = pIn1 + count;
 434:Source\FilteringFunctions/arm_conv_q31.c ****       py = pSrc2;
 435:Source\FilteringFunctions/arm_conv_q31.c **** 
 436:Source\FilteringFunctions/arm_conv_q31.c ****       /* Decrement the loop counter */
 437:Source\FilteringFunctions/arm_conv_q31.c ****       blkCnt--;
 438:Source\FilteringFunctions/arm_conv_q31.c ****     }
 439:Source\FilteringFunctions/arm_conv_q31.c ****   }
 440:Source\FilteringFunctions/arm_conv_q31.c **** 
 441:Source\FilteringFunctions/arm_conv_q31.c **** 
 442:Source\FilteringFunctions/arm_conv_q31.c ****   /* --------------------------
 443:Source\FilteringFunctions/arm_conv_q31.c ****    * Initializations of stage3
 444:Source\FilteringFunctions/arm_conv_q31.c ****    * -------------------------*/
 445:Source\FilteringFunctions/arm_conv_q31.c **** 
 446:Source\FilteringFunctions/arm_conv_q31.c ****   /* sum += x[srcALen-srcBLen+1] * y[srcBLen-1] + x[srcALen-srcBLen+2] * y[srcBLen-2] +...+ x[srcAL
 447:Source\FilteringFunctions/arm_conv_q31.c ****    * sum += x[srcALen-srcBLen+2] * y[srcBLen-1] + x[srcALen-srcBLen+3] * y[srcBLen-2] +...+ x[srcAL
 448:Source\FilteringFunctions/arm_conv_q31.c ****    * ....
 449:Source\FilteringFunctions/arm_conv_q31.c ****    * sum +=  x[srcALen-2] * y[srcBLen-1] + x[srcALen-1] * y[srcBLen-2]
 450:Source\FilteringFunctions/arm_conv_q31.c ****    * sum +=  x[srcALen-1] * y[srcBLen-1]
 451:Source\FilteringFunctions/arm_conv_q31.c ****    */
 452:Source\FilteringFunctions/arm_conv_q31.c **** 
 453:Source\FilteringFunctions/arm_conv_q31.c ****   /* In this stage the MAC operations are decreased by 1 for every iteration.
 454:Source\FilteringFunctions/arm_conv_q31.c ****      The blockSize3 variable holds the number of MAC operations performed */
 455:Source\FilteringFunctions/arm_conv_q31.c **** 
 456:Source\FilteringFunctions/arm_conv_q31.c ****   /* Working pointer of inputA */
 457:Source\FilteringFunctions/arm_conv_q31.c ****   pSrc1 = (pIn1 + srcALen) - (srcBLen - 1u);
 458:Source\FilteringFunctions/arm_conv_q31.c ****   px = pSrc1;
 459:Source\FilteringFunctions/arm_conv_q31.c **** 
 460:Source\FilteringFunctions/arm_conv_q31.c ****   /* Working pointer of inputB */
 461:Source\FilteringFunctions/arm_conv_q31.c ****   pSrc2 = pIn2 + (srcBLen - 1u);
 462:Source\FilteringFunctions/arm_conv_q31.c ****   py = pSrc2;
 463:Source\FilteringFunctions/arm_conv_q31.c **** 
 464:Source\FilteringFunctions/arm_conv_q31.c ****   /* -------------------
 465:Source\FilteringFunctions/arm_conv_q31.c ****    * Stage3 process
 466:Source\FilteringFunctions/arm_conv_q31.c ****    * ------------------*/
 467:Source\FilteringFunctions/arm_conv_q31.c **** 
 468:Source\FilteringFunctions/arm_conv_q31.c ****   while (blockSize3 > 0u)
 469:Source\FilteringFunctions/arm_conv_q31.c ****   {
 470:Source\FilteringFunctions/arm_conv_q31.c ****     /* Accumulator is made zero for every iteration */
 471:Source\FilteringFunctions/arm_conv_q31.c ****     sum = 0;
ARM GAS  C:\Users\fneves\AppData\Local\Temp\ccdqidB6.s 			page 10


 472:Source\FilteringFunctions/arm_conv_q31.c **** 
 473:Source\FilteringFunctions/arm_conv_q31.c ****     /* Apply loop unrolling and compute 4 MACs simultaneously. */
 474:Source\FilteringFunctions/arm_conv_q31.c ****     k = blockSize3 >> 2u;
 475:Source\FilteringFunctions/arm_conv_q31.c **** 
 476:Source\FilteringFunctions/arm_conv_q31.c ****     /* First part of the processing with loop unrolling.  Compute 4 MACs at a time.
 477:Source\FilteringFunctions/arm_conv_q31.c ****      ** a second loop below computes MACs for the remaining 1 to 3 samples. */
 478:Source\FilteringFunctions/arm_conv_q31.c ****     while (k > 0u)
 479:Source\FilteringFunctions/arm_conv_q31.c ****     {
 480:Source\FilteringFunctions/arm_conv_q31.c ****       /* sum += x[srcALen - srcBLen + 1] * y[srcBLen - 1] */
 481:Source\FilteringFunctions/arm_conv_q31.c ****       sum += (q63_t) * px++ * (*py--);
 482:Source\FilteringFunctions/arm_conv_q31.c ****       /* sum += x[srcALen - srcBLen + 2] * y[srcBLen - 2] */
 483:Source\FilteringFunctions/arm_conv_q31.c ****       sum += (q63_t) * px++ * (*py--);
 484:Source\FilteringFunctions/arm_conv_q31.c ****       /* sum += x[srcALen - srcBLen + 3] * y[srcBLen - 3] */
 485:Source\FilteringFunctions/arm_conv_q31.c ****       sum += (q63_t) * px++ * (*py--);
 486:Source\FilteringFunctions/arm_conv_q31.c ****       /* sum += x[srcALen - srcBLen + 4] * y[srcBLen - 4] */
 487:Source\FilteringFunctions/arm_conv_q31.c ****       sum += (q63_t) * px++ * (*py--);
 488:Source\FilteringFunctions/arm_conv_q31.c **** 
 489:Source\FilteringFunctions/arm_conv_q31.c ****       /* Decrement the loop counter */
 490:Source\FilteringFunctions/arm_conv_q31.c ****       k--;
 491:Source\FilteringFunctions/arm_conv_q31.c ****     }
 492:Source\FilteringFunctions/arm_conv_q31.c **** 
 493:Source\FilteringFunctions/arm_conv_q31.c ****     /* If the blockSize3 is not a multiple of 4, compute any remaining MACs here.
 494:Source\FilteringFunctions/arm_conv_q31.c ****      ** No loop unrolling is used. */
 495:Source\FilteringFunctions/arm_conv_q31.c ****     k = blockSize3 % 0x4u;
 496:Source\FilteringFunctions/arm_conv_q31.c **** 
 497:Source\FilteringFunctions/arm_conv_q31.c ****     while (k > 0u)
 498:Source\FilteringFunctions/arm_conv_q31.c ****     {
 499:Source\FilteringFunctions/arm_conv_q31.c ****       /* Perform the multiply-accumulate */
 500:Source\FilteringFunctions/arm_conv_q31.c ****       sum += (q63_t) * px++ * (*py--);
 501:Source\FilteringFunctions/arm_conv_q31.c **** 
 502:Source\FilteringFunctions/arm_conv_q31.c ****       /* Decrement the loop counter */
 503:Source\FilteringFunctions/arm_conv_q31.c ****       k--;
 504:Source\FilteringFunctions/arm_conv_q31.c ****     }
 505:Source\FilteringFunctions/arm_conv_q31.c **** 
 506:Source\FilteringFunctions/arm_conv_q31.c ****     /* Store the result in the accumulator in the destination buffer. */
 507:Source\FilteringFunctions/arm_conv_q31.c ****     *pOut++ = (q31_t) (sum >> 31);
 508:Source\FilteringFunctions/arm_conv_q31.c **** 
 509:Source\FilteringFunctions/arm_conv_q31.c ****     /* Update the inputA and inputB pointers for next MAC calculation */
 510:Source\FilteringFunctions/arm_conv_q31.c ****     px = ++pSrc1;
 511:Source\FilteringFunctions/arm_conv_q31.c ****     py = pSrc2;
 512:Source\FilteringFunctions/arm_conv_q31.c **** 
 513:Source\FilteringFunctions/arm_conv_q31.c ****     /* Decrement the loop counter */
 514:Source\FilteringFunctions/arm_conv_q31.c ****     blockSize3--;
 515:Source\FilteringFunctions/arm_conv_q31.c ****   }
 516:Source\FilteringFunctions/arm_conv_q31.c **** 
 517:Source\FilteringFunctions/arm_conv_q31.c **** #else
 518:Source\FilteringFunctions/arm_conv_q31.c **** 
 519:Source\FilteringFunctions/arm_conv_q31.c ****   /* Run the below code for Cortex-M0 */
 520:Source\FilteringFunctions/arm_conv_q31.c **** 
 521:Source\FilteringFunctions/arm_conv_q31.c ****   q31_t *pIn1 = pSrcA;                           /* input pointer */
  43              		.loc 1 521 0
  44 000e FB69     		ldr	r3, [r7, #28]
  45 0010 7B62     		str	r3, [r7, #36]
 522:Source\FilteringFunctions/arm_conv_q31.c ****   q31_t *pIn2 = pSrcB;                           /* coefficient pointer */
  46              		.loc 1 522 0
  47 0012 7B69     		ldr	r3, [r7, #20]
  48 0014 3B62     		str	r3, [r7, #32]
ARM GAS  C:\Users\fneves\AppData\Local\Temp\ccdqidB6.s 			page 11


 523:Source\FilteringFunctions/arm_conv_q31.c ****   q63_t sum;                                     /* Accumulator */
 524:Source\FilteringFunctions/arm_conv_q31.c ****   uint32_t i, j;                                 /* loop counter */
 525:Source\FilteringFunctions/arm_conv_q31.c **** 
 526:Source\FilteringFunctions/arm_conv_q31.c ****   /* Loop to calculate output of convolution for output length number of times */
 527:Source\FilteringFunctions/arm_conv_q31.c ****   for (i = 0; i < (srcALen + srcBLen - 1); i++)
  49              		.loc 1 527 0
  50 0016 0023     		mov	r3, #0
  51 0018 FB62     		str	r3, [r7, #44]
  52 001a 49E0     		b	.L2
  53              	.L6:
 528:Source\FilteringFunctions/arm_conv_q31.c ****   {
 529:Source\FilteringFunctions/arm_conv_q31.c ****     /* Initialize sum with zero to carry on MAC operations */
 530:Source\FilteringFunctions/arm_conv_q31.c ****     sum = 0;
  54              		.loc 1 530 0
  55 001c 0022     		mov	r2, #0
  56 001e 0023     		mov	r3, #0
  57 0020 3A63     		str	r2, [r7, #48]
  58 0022 7B63     		str	r3, [r7, #52]
 531:Source\FilteringFunctions/arm_conv_q31.c **** 
 532:Source\FilteringFunctions/arm_conv_q31.c ****     /* Loop to perform MAC operations according to convolution equation */
 533:Source\FilteringFunctions/arm_conv_q31.c ****     for (j = 0; j <= i; j++)
  59              		.loc 1 533 0
  60 0024 0023     		mov	r3, #0
  61 0026 BB62     		str	r3, [r7, #40]
  62 0028 2EE0     		b	.L3
  63              	.L5:
 534:Source\FilteringFunctions/arm_conv_q31.c ****     {
 535:Source\FilteringFunctions/arm_conv_q31.c ****       /* Check the array limitations */
 536:Source\FilteringFunctions/arm_conv_q31.c ****       if (((i - j) < srcBLen) && (j < srcALen))
  64              		.loc 1 536 0
  65 002a FA6A     		ldr	r2, [r7, #44]
  66 002c BB6A     		ldr	r3, [r7, #40]
  67 002e D21A     		sub	r2, r2, r3
  68 0030 3B69     		ldr	r3, [r7, #16]
  69 0032 9A42     		cmp	r2, r3
  70 0034 25D2     		bcs	.L4
  71              		.loc 1 536 0 is_stmt 0 discriminator 1
  72 0036 BA6A     		ldr	r2, [r7, #40]
  73 0038 BB69     		ldr	r3, [r7, #24]
  74 003a 9A42     		cmp	r2, r3
  75 003c 21D2     		bcs	.L4
 537:Source\FilteringFunctions/arm_conv_q31.c ****       {
 538:Source\FilteringFunctions/arm_conv_q31.c ****         /* z[i] += x[i-j] * y[j] */
 539:Source\FilteringFunctions/arm_conv_q31.c ****         sum += ((q63_t) pIn1[j] * (pIn2[i - j]));
  76              		.loc 1 539 0 is_stmt 1
  77 003e BB6A     		ldr	r3, [r7, #40]
  78 0040 9B00     		lsl	r3, r3, #2
  79 0042 7A6A     		ldr	r2, [r7, #36]
  80 0044 D318     		add	r3, r2, r3
  81 0046 1B68     		ldr	r3, [r3]
  82 0048 BB60     		str	r3, [r7, #8]
  83 004a DB17     		asr	r3, r3, #31
  84 004c FB60     		str	r3, [r7, #12]
  85 004e FA6A     		ldr	r2, [r7, #44]
  86 0050 BB6A     		ldr	r3, [r7, #40]
  87 0052 D31A     		sub	r3, r2, r3
  88 0054 9B00     		lsl	r3, r3, #2
ARM GAS  C:\Users\fneves\AppData\Local\Temp\ccdqidB6.s 			page 12


  89 0056 3A6A     		ldr	r2, [r7, #32]
  90 0058 D318     		add	r3, r2, r3
  91 005a 1B68     		ldr	r3, [r3]
  92 005c 3B60     		str	r3, [r7]
  93 005e DB17     		asr	r3, r3, #31
  94 0060 7B60     		str	r3, [r7, #4]
  95 0062 B868     		ldr	r0, [r7, #8]
  96 0064 F968     		ldr	r1, [r7, #12]
  97 0066 3A68     		ldr	r2, [r7]
  98 0068 7B68     		ldr	r3, [r7, #4]
  99 006a FFF7FEFF 		bl	__aeabi_lmul
 100 006e 021C     		mov	r2, r0
 101 0070 0B1C     		mov	r3, r1
 102 0072 101C     		mov	r0, r2
 103 0074 191C     		mov	r1, r3
 104 0076 3A6B     		ldr	r2, [r7, #48]
 105 0078 7B6B     		ldr	r3, [r7, #52]
 106 007a 1218     		add	r2, r2, r0
 107 007c 4B41     		adc	r3, r3, r1
 108 007e 3A63     		str	r2, [r7, #48]
 109 0080 7B63     		str	r3, [r7, #52]
 110              	.L4:
 533:Source\FilteringFunctions/arm_conv_q31.c ****     {
 111              		.loc 1 533 0 discriminator 2
 112 0082 BB6A     		ldr	r3, [r7, #40]
 113 0084 0133     		add	r3, r3, #1
 114 0086 BB62     		str	r3, [r7, #40]
 115              	.L3:
 533:Source\FilteringFunctions/arm_conv_q31.c ****     {
 116              		.loc 1 533 0 is_stmt 0 discriminator 1
 117 0088 BA6A     		ldr	r2, [r7, #40]
 118 008a FB6A     		ldr	r3, [r7, #44]
 119 008c 9A42     		cmp	r2, r3
 120 008e CCD9     		bls	.L5
 540:Source\FilteringFunctions/arm_conv_q31.c ****       }
 541:Source\FilteringFunctions/arm_conv_q31.c ****     }
 542:Source\FilteringFunctions/arm_conv_q31.c **** 
 543:Source\FilteringFunctions/arm_conv_q31.c ****     /* Store the output in the destination buffer */
 544:Source\FilteringFunctions/arm_conv_q31.c ****     pDst[i] = (q31_t) (sum >> 31u);
 121              		.loc 1 544 0 is_stmt 1 discriminator 2
 122 0090 FB6A     		ldr	r3, [r7, #44]
 123 0092 9B00     		lsl	r3, r3, #2
 124 0094 BA6C     		ldr	r2, [r7, #72]
 125 0096 D318     		add	r3, r2, r3
 126 0098 7A6B     		ldr	r2, [r7, #52]
 127 009a 5200     		lsl	r2, r2, #1
 128 009c 396B     		ldr	r1, [r7, #48]
 129 009e CC0F     		lsr	r4, r1, #31
 130 00a0 1443     		orr	r4, r2
 131 00a2 7A6B     		ldr	r2, [r7, #52]
 132 00a4 D517     		asr	r5, r2, #31
 133 00a6 221C     		mov	r2, r4
 134 00a8 1A60     		str	r2, [r3]
 527:Source\FilteringFunctions/arm_conv_q31.c ****   {
 135              		.loc 1 527 0 discriminator 2
 136 00aa FB6A     		ldr	r3, [r7, #44]
 137 00ac 0133     		add	r3, r3, #1
ARM GAS  C:\Users\fneves\AppData\Local\Temp\ccdqidB6.s 			page 13


 138 00ae FB62     		str	r3, [r7, #44]
 139              	.L2:
 527:Source\FilteringFunctions/arm_conv_q31.c ****   {
 140              		.loc 1 527 0 is_stmt 0 discriminator 1
 141 00b0 BA69     		ldr	r2, [r7, #24]
 142 00b2 3B69     		ldr	r3, [r7, #16]
 143 00b4 D318     		add	r3, r2, r3
 144 00b6 5A1E     		sub	r2, r3, #1
 145 00b8 FB6A     		ldr	r3, [r7, #44]
 146 00ba 9A42     		cmp	r2, r3
 147 00bc AED8     		bhi	.L6
 545:Source\FilteringFunctions/arm_conv_q31.c ****   }
 546:Source\FilteringFunctions/arm_conv_q31.c **** 
 547:Source\FilteringFunctions/arm_conv_q31.c **** #endif /*     #if defined (ARM_MATH_DSP) */
 548:Source\FilteringFunctions/arm_conv_q31.c **** 
 549:Source\FilteringFunctions/arm_conv_q31.c **** }
 148              		.loc 1 549 0 is_stmt 1
 149 00be BD46     		mov	sp, r7
 150 00c0 0EB0     		add	sp, sp, #56
 151              		@ sp needed
 152 00c2 B0BD     		pop	{r4, r5, r7, pc}
 153              		.cfi_endproc
 154              	.LFE82:
 155              		.size	arm_conv_q31, .-arm_conv_q31
 156              		.text
 157              	.Letext0:
 158              		.file 2 "c:\\program files (x86)\\cypress\\psoc creator\\4.0\\psoc creator\\import\\gnu\\arm\\4.9.
 159              		.file 3 "c:\\program files (x86)\\cypress\\psoc creator\\4.0\\psoc creator\\import\\gnu\\arm\\4.9.
 160              		.file 4 ".\\Include/arm_math.h"