ARM GAS  C:\Users\fneves\AppData\Local\Temp\ccDCqtyq.s 			page 1


   1              		.cpu cortex-m0plus
   2              		.fpu softvfp
   3              		.eabi_attribute 20, 1
   4              		.eabi_attribute 21, 1
   5              		.eabi_attribute 23, 3
   6              		.eabi_attribute 24, 1
   7              		.eabi_attribute 25, 1
   8              		.eabi_attribute 26, 1
   9              		.eabi_attribute 30, 6
  10              		.eabi_attribute 34, 0
  11              		.eabi_attribute 18, 4
  12              		.code	16
  13              		.file	"arm_q15_to_float.c"
  14              		.text
  15              	.Ltext0:
  16              		.cfi_sections	.debug_frame
  17              		.global	__aeabi_i2f
  18              		.global	__aeabi_fdiv
  19              		.section	.text.arm_q15_to_float,"ax",%progbits
  20              		.align	2
  21              		.global	arm_q15_to_float
  22              		.code	16
  23              		.thumb_func
  24              		.type	arm_q15_to_float, %function
  25              	arm_q15_to_float:
  26              	.LFB82:
  27              		.file 1 "Source\\SupportFunctions\\arm_q15_to_float.c"
   1:Source\SupportFunctions/arm_q15_to_float.c **** /* ----------------------------------------------------------------------
   2:Source\SupportFunctions/arm_q15_to_float.c ****  * Project:      CMSIS DSP Library
   3:Source\SupportFunctions/arm_q15_to_float.c ****  * Title:        arm_q15_to_float.c
   4:Source\SupportFunctions/arm_q15_to_float.c ****  * Description:  Converts the elements of the Q15 vector to floating-point vector
   5:Source\SupportFunctions/arm_q15_to_float.c ****  *
   6:Source\SupportFunctions/arm_q15_to_float.c ****  * $Date:        27. January 2017
   7:Source\SupportFunctions/arm_q15_to_float.c ****  * $Revision:    V.1.5.1
   8:Source\SupportFunctions/arm_q15_to_float.c ****  *
   9:Source\SupportFunctions/arm_q15_to_float.c ****  * Target Processor: Cortex-M cores
  10:Source\SupportFunctions/arm_q15_to_float.c ****  * -------------------------------------------------------------------- */
  11:Source\SupportFunctions/arm_q15_to_float.c **** /*
  12:Source\SupportFunctions/arm_q15_to_float.c ****  * Copyright (C) 2010-2017 ARM Limited or its affiliates. All rights reserved.
  13:Source\SupportFunctions/arm_q15_to_float.c ****  *
  14:Source\SupportFunctions/arm_q15_to_float.c ****  * SPDX-License-Identifier: Apache-2.0
  15:Source\SupportFunctions/arm_q15_to_float.c ****  *
  16:Source\SupportFunctions/arm_q15_to_float.c ****  * Licensed under the Apache License, Version 2.0 (the License); you may
  17:Source\SupportFunctions/arm_q15_to_float.c ****  * not use this file except in compliance with the License.
  18:Source\SupportFunctions/arm_q15_to_float.c ****  * You may obtain a copy of the License at
  19:Source\SupportFunctions/arm_q15_to_float.c ****  *
  20:Source\SupportFunctions/arm_q15_to_float.c ****  * www.apache.org/licenses/LICENSE-2.0
  21:Source\SupportFunctions/arm_q15_to_float.c ****  *
  22:Source\SupportFunctions/arm_q15_to_float.c ****  * Unless required by applicable law or agreed to in writing, software
  23:Source\SupportFunctions/arm_q15_to_float.c ****  * distributed under the License is distributed on an AS IS BASIS, WITHOUT
  24:Source\SupportFunctions/arm_q15_to_float.c ****  * WARRANTIES OR CONDITIONS OF ANY KIND, either express or implied.
  25:Source\SupportFunctions/arm_q15_to_float.c ****  * See the License for the specific language governing permissions and
  26:Source\SupportFunctions/arm_q15_to_float.c ****  * limitations under the License.
  27:Source\SupportFunctions/arm_q15_to_float.c ****  */
  28:Source\SupportFunctions/arm_q15_to_float.c **** 
  29:Source\SupportFunctions/arm_q15_to_float.c **** #include "arm_math.h"
  30:Source\SupportFunctions/arm_q15_to_float.c **** 
ARM GAS  C:\Users\fneves\AppData\Local\Temp\ccDCqtyq.s 			page 2


  31:Source\SupportFunctions/arm_q15_to_float.c **** /**
  32:Source\SupportFunctions/arm_q15_to_float.c ****  * @ingroup groupSupport
  33:Source\SupportFunctions/arm_q15_to_float.c ****  */
  34:Source\SupportFunctions/arm_q15_to_float.c **** 
  35:Source\SupportFunctions/arm_q15_to_float.c **** /**
  36:Source\SupportFunctions/arm_q15_to_float.c ****  * @defgroup q15_to_x  Convert 16-bit Integer value
  37:Source\SupportFunctions/arm_q15_to_float.c ****  */
  38:Source\SupportFunctions/arm_q15_to_float.c **** 
  39:Source\SupportFunctions/arm_q15_to_float.c **** /**
  40:Source\SupportFunctions/arm_q15_to_float.c ****  * @addtogroup q15_to_x
  41:Source\SupportFunctions/arm_q15_to_float.c ****  * @{
  42:Source\SupportFunctions/arm_q15_to_float.c ****  */
  43:Source\SupportFunctions/arm_q15_to_float.c **** 
  44:Source\SupportFunctions/arm_q15_to_float.c **** 
  45:Source\SupportFunctions/arm_q15_to_float.c **** 
  46:Source\SupportFunctions/arm_q15_to_float.c **** 
  47:Source\SupportFunctions/arm_q15_to_float.c **** /**
  48:Source\SupportFunctions/arm_q15_to_float.c ****  * @brief  Converts the elements of the Q15 vector to floating-point vector.
  49:Source\SupportFunctions/arm_q15_to_float.c ****  * @param[in]       *pSrc points to the Q15 input vector
  50:Source\SupportFunctions/arm_q15_to_float.c ****  * @param[out]      *pDst points to the floating-point output vector
  51:Source\SupportFunctions/arm_q15_to_float.c ****  * @param[in]       blockSize length of the input vector
  52:Source\SupportFunctions/arm_q15_to_float.c ****  * @return none.
  53:Source\SupportFunctions/arm_q15_to_float.c ****  *
  54:Source\SupportFunctions/arm_q15_to_float.c ****  * \par Description:
  55:Source\SupportFunctions/arm_q15_to_float.c ****  *
  56:Source\SupportFunctions/arm_q15_to_float.c ****  * The equation used for the conversion process is:
  57:Source\SupportFunctions/arm_q15_to_float.c ****  *
  58:Source\SupportFunctions/arm_q15_to_float.c ****  * <pre>
  59:Source\SupportFunctions/arm_q15_to_float.c ****  * 	pDst[n] = (float32_t) pSrc[n] / 32768;   0 <= n < blockSize.
  60:Source\SupportFunctions/arm_q15_to_float.c ****  * </pre>
  61:Source\SupportFunctions/arm_q15_to_float.c ****  *
  62:Source\SupportFunctions/arm_q15_to_float.c ****  */
  63:Source\SupportFunctions/arm_q15_to_float.c **** 
  64:Source\SupportFunctions/arm_q15_to_float.c **** 
  65:Source\SupportFunctions/arm_q15_to_float.c **** void arm_q15_to_float(
  66:Source\SupportFunctions/arm_q15_to_float.c ****   q15_t * pSrc,
  67:Source\SupportFunctions/arm_q15_to_float.c ****   float32_t * pDst,
  68:Source\SupportFunctions/arm_q15_to_float.c ****   uint32_t blockSize)
  69:Source\SupportFunctions/arm_q15_to_float.c **** {
  28              		.loc 1 69 0
  29              		.cfi_startproc
  30 0000 90B5     		push	{r4, r7, lr}
  31              		.cfi_def_cfa_offset 12
  32              		.cfi_offset 4, -12
  33              		.cfi_offset 7, -8
  34              		.cfi_offset 14, -4
  35 0002 87B0     		sub	sp, sp, #28
  36              		.cfi_def_cfa_offset 40
  37 0004 00AF     		add	r7, sp, #0
  38              		.cfi_def_cfa_register 7
  39 0006 F860     		str	r0, [r7, #12]
  40 0008 B960     		str	r1, [r7, #8]
  41 000a 7A60     		str	r2, [r7, #4]
  70:Source\SupportFunctions/arm_q15_to_float.c ****   q15_t *pIn = pSrc;                             /* Src pointer */
  42              		.loc 1 70 0
  43 000c FB68     		ldr	r3, [r7, #12]
  44 000e 7B61     		str	r3, [r7, #20]
ARM GAS  C:\Users\fneves\AppData\Local\Temp\ccDCqtyq.s 			page 3


  71:Source\SupportFunctions/arm_q15_to_float.c ****   uint32_t blkCnt;                               /* loop counter */
  72:Source\SupportFunctions/arm_q15_to_float.c **** 
  73:Source\SupportFunctions/arm_q15_to_float.c **** 
  74:Source\SupportFunctions/arm_q15_to_float.c **** #if defined (ARM_MATH_DSP)
  75:Source\SupportFunctions/arm_q15_to_float.c **** 
  76:Source\SupportFunctions/arm_q15_to_float.c ****   /* Run the below code for Cortex-M4 and Cortex-M3 */
  77:Source\SupportFunctions/arm_q15_to_float.c **** 
  78:Source\SupportFunctions/arm_q15_to_float.c ****   /*loop Unrolling */
  79:Source\SupportFunctions/arm_q15_to_float.c ****   blkCnt = blockSize >> 2u;
  80:Source\SupportFunctions/arm_q15_to_float.c **** 
  81:Source\SupportFunctions/arm_q15_to_float.c ****   /* First part of the processing with loop unrolling.  Compute 4 outputs at a time.
  82:Source\SupportFunctions/arm_q15_to_float.c ****    ** a second loop below computes the remaining 1 to 3 samples. */
  83:Source\SupportFunctions/arm_q15_to_float.c ****   while (blkCnt > 0u)
  84:Source\SupportFunctions/arm_q15_to_float.c ****   {
  85:Source\SupportFunctions/arm_q15_to_float.c ****     /* C = (float32_t) A / 32768 */
  86:Source\SupportFunctions/arm_q15_to_float.c ****     /* convert from q15 to float and then store the results in the destination buffer */
  87:Source\SupportFunctions/arm_q15_to_float.c ****     *pDst++ = ((float32_t) * pIn++ / 32768.0f);
  88:Source\SupportFunctions/arm_q15_to_float.c ****     *pDst++ = ((float32_t) * pIn++ / 32768.0f);
  89:Source\SupportFunctions/arm_q15_to_float.c ****     *pDst++ = ((float32_t) * pIn++ / 32768.0f);
  90:Source\SupportFunctions/arm_q15_to_float.c ****     *pDst++ = ((float32_t) * pIn++ / 32768.0f);
  91:Source\SupportFunctions/arm_q15_to_float.c **** 
  92:Source\SupportFunctions/arm_q15_to_float.c ****     /* Decrement the loop counter */
  93:Source\SupportFunctions/arm_q15_to_float.c ****     blkCnt--;
  94:Source\SupportFunctions/arm_q15_to_float.c ****   }
  95:Source\SupportFunctions/arm_q15_to_float.c **** 
  96:Source\SupportFunctions/arm_q15_to_float.c ****   /* If the blockSize is not a multiple of 4, compute any remaining output samples here.
  97:Source\SupportFunctions/arm_q15_to_float.c ****    ** No loop unrolling is used. */
  98:Source\SupportFunctions/arm_q15_to_float.c ****   blkCnt = blockSize % 0x4u;
  99:Source\SupportFunctions/arm_q15_to_float.c **** 
 100:Source\SupportFunctions/arm_q15_to_float.c **** #else
 101:Source\SupportFunctions/arm_q15_to_float.c **** 
 102:Source\SupportFunctions/arm_q15_to_float.c ****   /* Run the below code for Cortex-M0 */
 103:Source\SupportFunctions/arm_q15_to_float.c **** 
 104:Source\SupportFunctions/arm_q15_to_float.c ****   /* Loop over blockSize number of values */
 105:Source\SupportFunctions/arm_q15_to_float.c ****   blkCnt = blockSize;
  45              		.loc 1 105 0
  46 0010 7B68     		ldr	r3, [r7, #4]
  47 0012 3B61     		str	r3, [r7, #16]
 106:Source\SupportFunctions/arm_q15_to_float.c **** 
 107:Source\SupportFunctions/arm_q15_to_float.c **** #endif /* #if defined (ARM_MATH_DSP) */
 108:Source\SupportFunctions/arm_q15_to_float.c **** 
 109:Source\SupportFunctions/arm_q15_to_float.c ****   while (blkCnt > 0u)
  48              		.loc 1 109 0
  49 0014 15E0     		b	.L2
  50              	.L3:
 110:Source\SupportFunctions/arm_q15_to_float.c ****   {
 111:Source\SupportFunctions/arm_q15_to_float.c ****     /* C = (float32_t) A / 32768 */
 112:Source\SupportFunctions/arm_q15_to_float.c ****     /* convert from q15 to float and then store the results in the destination buffer */
 113:Source\SupportFunctions/arm_q15_to_float.c ****     *pDst++ = ((float32_t) * pIn++ / 32768.0f);
  51              		.loc 1 113 0
  52 0016 BC68     		ldr	r4, [r7, #8]
  53 0018 231D     		add	r3, r4, #4
  54 001a BB60     		str	r3, [r7, #8]
  55 001c 7B69     		ldr	r3, [r7, #20]
  56 001e 9A1C     		add	r2, r3, #2
  57 0020 7A61     		str	r2, [r7, #20]
  58 0022 1B88     		ldrh	r3, [r3]
ARM GAS  C:\Users\fneves\AppData\Local\Temp\ccDCqtyq.s 			page 4


  59 0024 1BB2     		sxth	r3, r3
  60 0026 181C     		mov	r0, r3
  61 0028 FFF7FEFF 		bl	__aeabi_i2f
  62 002c 031C     		add	r3, r0, #0
  63 002e 181C     		add	r0, r3, #0
  64 0030 8E21     		mov	r1, #142
  65 0032 C905     		lsl	r1, r1, #23
  66 0034 FFF7FEFF 		bl	__aeabi_fdiv
  67 0038 031C     		add	r3, r0, #0
  68 003a 2360     		str	r3, [r4]
 114:Source\SupportFunctions/arm_q15_to_float.c **** 
 115:Source\SupportFunctions/arm_q15_to_float.c ****     /* Decrement the loop counter */
 116:Source\SupportFunctions/arm_q15_to_float.c ****     blkCnt--;
  69              		.loc 1 116 0
  70 003c 3B69     		ldr	r3, [r7, #16]
  71 003e 013B     		sub	r3, r3, #1
  72 0040 3B61     		str	r3, [r7, #16]
  73              	.L2:
 109:Source\SupportFunctions/arm_q15_to_float.c ****   {
  74              		.loc 1 109 0
  75 0042 3B69     		ldr	r3, [r7, #16]
  76 0044 002B     		cmp	r3, #0
  77 0046 E6D1     		bne	.L3
 117:Source\SupportFunctions/arm_q15_to_float.c ****   }
 118:Source\SupportFunctions/arm_q15_to_float.c **** }
  78              		.loc 1 118 0
  79 0048 BD46     		mov	sp, r7
  80 004a 07B0     		add	sp, sp, #28
  81              		@ sp needed
  82 004c 90BD     		pop	{r4, r7, pc}
  83              		.cfi_endproc
  84              	.LFE82:
  85              		.size	arm_q15_to_float, .-arm_q15_to_float
  86 004e C046     		.text
  87              	.Letext0:
  88              		.file 2 "c:\\program files (x86)\\cypress\\psoc creator\\4.0\\psoc creator\\import\\gnu\\arm\\4.9.
  89              		.file 3 "c:\\program files (x86)\\cypress\\psoc creator\\4.0\\psoc creator\\import\\gnu\\arm\\4.9.
  90              		.file 4 ".\\Include/arm_math.h"