ARM GAS  C:\Users\fneves\AppData\Local\Temp\ccEvVDfm.s 			page 1


   1              		.cpu cortex-m0plus
   2              		.fpu softvfp
   3              		.eabi_attribute 20, 1
   4              		.eabi_attribute 21, 1
   5              		.eabi_attribute 23, 3
   6              		.eabi_attribute 24, 1
   7              		.eabi_attribute 25, 1
   8              		.eabi_attribute 26, 1
   9              		.eabi_attribute 30, 6
  10              		.eabi_attribute 34, 0
  11              		.eabi_attribute 18, 4
  12              		.code	16
  13              		.file	"arm_mean_q31.c"
  14              		.text
  15              	.Ltext0:
  16              		.cfi_sections	.debug_frame
  17              		.global	__aeabi_ldivmod
  18              		.section	.text.arm_mean_q31,"ax",%progbits
  19              		.align	2
  20              		.global	arm_mean_q31
  21              		.code	16
  22              		.thumb_func
  23              		.type	arm_mean_q31, %function
  24              	arm_mean_q31:
  25              	.LFB82:
  26              		.file 1 "Source\\StatisticsFunctions\\arm_mean_q31.c"
   1:Source\StatisticsFunctions/arm_mean_q31.c **** /* ----------------------------------------------------------------------
   2:Source\StatisticsFunctions/arm_mean_q31.c ****  * Project:      CMSIS DSP Library
   3:Source\StatisticsFunctions/arm_mean_q31.c ****  * Title:        arm_mean_q31.c
   4:Source\StatisticsFunctions/arm_mean_q31.c ****  * Description:  Mean value of a Q31 vector
   5:Source\StatisticsFunctions/arm_mean_q31.c ****  *
   6:Source\StatisticsFunctions/arm_mean_q31.c ****  * $Date:        27. January 2017
   7:Source\StatisticsFunctions/arm_mean_q31.c ****  * $Revision:    V.1.5.1
   8:Source\StatisticsFunctions/arm_mean_q31.c ****  *
   9:Source\StatisticsFunctions/arm_mean_q31.c ****  * Target Processor: Cortex-M cores
  10:Source\StatisticsFunctions/arm_mean_q31.c ****  * -------------------------------------------------------------------- */
  11:Source\StatisticsFunctions/arm_mean_q31.c **** /*
  12:Source\StatisticsFunctions/arm_mean_q31.c ****  * Copyright (C) 2010-2017 ARM Limited or its affiliates. All rights reserved.
  13:Source\StatisticsFunctions/arm_mean_q31.c ****  *
  14:Source\StatisticsFunctions/arm_mean_q31.c ****  * SPDX-License-Identifier: Apache-2.0
  15:Source\StatisticsFunctions/arm_mean_q31.c ****  *
  16:Source\StatisticsFunctions/arm_mean_q31.c ****  * Licensed under the Apache License, Version 2.0 (the License); you may
  17:Source\StatisticsFunctions/arm_mean_q31.c ****  * not use this file except in compliance with the License.
  18:Source\StatisticsFunctions/arm_mean_q31.c ****  * You may obtain a copy of the License at
  19:Source\StatisticsFunctions/arm_mean_q31.c ****  *
  20:Source\StatisticsFunctions/arm_mean_q31.c ****  * www.apache.org/licenses/LICENSE-2.0
  21:Source\StatisticsFunctions/arm_mean_q31.c ****  *
  22:Source\StatisticsFunctions/arm_mean_q31.c ****  * Unless required by applicable law or agreed to in writing, software
  23:Source\StatisticsFunctions/arm_mean_q31.c ****  * distributed under the License is distributed on an AS IS BASIS, WITHOUT
  24:Source\StatisticsFunctions/arm_mean_q31.c ****  * WARRANTIES OR CONDITIONS OF ANY KIND, either express or implied.
  25:Source\StatisticsFunctions/arm_mean_q31.c ****  * See the License for the specific language governing permissions and
  26:Source\StatisticsFunctions/arm_mean_q31.c ****  * limitations under the License.
  27:Source\StatisticsFunctions/arm_mean_q31.c ****  */
  28:Source\StatisticsFunctions/arm_mean_q31.c **** 
  29:Source\StatisticsFunctions/arm_mean_q31.c **** #include "arm_math.h"
  30:Source\StatisticsFunctions/arm_mean_q31.c **** 
  31:Source\StatisticsFunctions/arm_mean_q31.c **** /**
ARM GAS  C:\Users\fneves\AppData\Local\Temp\ccEvVDfm.s 			page 2


  32:Source\StatisticsFunctions/arm_mean_q31.c ****  * @ingroup groupStats
  33:Source\StatisticsFunctions/arm_mean_q31.c ****  */
  34:Source\StatisticsFunctions/arm_mean_q31.c **** 
  35:Source\StatisticsFunctions/arm_mean_q31.c **** /**
  36:Source\StatisticsFunctions/arm_mean_q31.c ****  * @addtogroup mean
  37:Source\StatisticsFunctions/arm_mean_q31.c ****  * @{
  38:Source\StatisticsFunctions/arm_mean_q31.c ****  */
  39:Source\StatisticsFunctions/arm_mean_q31.c **** 
  40:Source\StatisticsFunctions/arm_mean_q31.c **** 
  41:Source\StatisticsFunctions/arm_mean_q31.c **** /**
  42:Source\StatisticsFunctions/arm_mean_q31.c ****  * @brief Mean value of a Q31 vector.
  43:Source\StatisticsFunctions/arm_mean_q31.c ****  * @param[in]       *pSrc points to the input vector
  44:Source\StatisticsFunctions/arm_mean_q31.c ****  * @param[in]       blockSize length of the input vector
  45:Source\StatisticsFunctions/arm_mean_q31.c ****  * @param[out]      *pResult mean value returned here
  46:Source\StatisticsFunctions/arm_mean_q31.c ****  * @return none.
  47:Source\StatisticsFunctions/arm_mean_q31.c ****  *
  48:Source\StatisticsFunctions/arm_mean_q31.c ****  * @details
  49:Source\StatisticsFunctions/arm_mean_q31.c ****  * <b>Scaling and Overflow Behavior:</b>
  50:Source\StatisticsFunctions/arm_mean_q31.c ****  *\par
  51:Source\StatisticsFunctions/arm_mean_q31.c ****  * The function is implemented using a 64-bit internal accumulator.
  52:Source\StatisticsFunctions/arm_mean_q31.c ****  * The input is represented in 1.31 format and is accumulated in a 64-bit
  53:Source\StatisticsFunctions/arm_mean_q31.c ****  * accumulator in 33.31 format.
  54:Source\StatisticsFunctions/arm_mean_q31.c ****  * There is no risk of internal overflow with this approach, and the
  55:Source\StatisticsFunctions/arm_mean_q31.c ****  * full precision of intermediate result is preserved.
  56:Source\StatisticsFunctions/arm_mean_q31.c ****  * Finally, the accumulator is truncated to yield a result of 1.31 format.
  57:Source\StatisticsFunctions/arm_mean_q31.c ****  *
  58:Source\StatisticsFunctions/arm_mean_q31.c ****  */
  59:Source\StatisticsFunctions/arm_mean_q31.c **** 
  60:Source\StatisticsFunctions/arm_mean_q31.c **** void arm_mean_q31(
  61:Source\StatisticsFunctions/arm_mean_q31.c ****   q31_t * pSrc,
  62:Source\StatisticsFunctions/arm_mean_q31.c ****   uint32_t blockSize,
  63:Source\StatisticsFunctions/arm_mean_q31.c ****   q31_t * pResult)
  64:Source\StatisticsFunctions/arm_mean_q31.c **** {
  27              		.loc 1 64 0
  28              		.cfi_startproc
  29 0000 F0B5     		push	{r4, r5, r6, r7, lr}
  30              		.cfi_def_cfa_offset 20
  31              		.cfi_offset 4, -20
  32              		.cfi_offset 5, -16
  33              		.cfi_offset 6, -12
  34              		.cfi_offset 7, -8
  35              		.cfi_offset 14, -4
  36 0002 8BB0     		sub	sp, sp, #44
  37              		.cfi_def_cfa_offset 64
  38 0004 00AF     		add	r7, sp, #0
  39              		.cfi_def_cfa_register 7
  40 0006 7861     		str	r0, [r7, #20]
  41 0008 3961     		str	r1, [r7, #16]
  42 000a FA60     		str	r2, [r7, #12]
  65:Source\StatisticsFunctions/arm_mean_q31.c ****   q63_t sum = 0;                                 /* Temporary result storage */
  43              		.loc 1 65 0
  44 000c 0023     		mov	r3, #0
  45 000e 0024     		mov	r4, #0
  46 0010 3B62     		str	r3, [r7, #32]
  47 0012 7C62     		str	r4, [r7, #36]
  66:Source\StatisticsFunctions/arm_mean_q31.c ****   uint32_t blkCnt;                               /* loop counter */
  67:Source\StatisticsFunctions/arm_mean_q31.c **** 
ARM GAS  C:\Users\fneves\AppData\Local\Temp\ccEvVDfm.s 			page 3


  68:Source\StatisticsFunctions/arm_mean_q31.c **** #if defined (ARM_MATH_DSP)
  69:Source\StatisticsFunctions/arm_mean_q31.c ****   /* Run the below code for Cortex-M4 and Cortex-M3 */
  70:Source\StatisticsFunctions/arm_mean_q31.c **** 
  71:Source\StatisticsFunctions/arm_mean_q31.c ****   q31_t in1, in2, in3, in4;
  72:Source\StatisticsFunctions/arm_mean_q31.c **** 
  73:Source\StatisticsFunctions/arm_mean_q31.c ****   /*loop Unrolling */
  74:Source\StatisticsFunctions/arm_mean_q31.c ****   blkCnt = blockSize >> 2u;
  75:Source\StatisticsFunctions/arm_mean_q31.c **** 
  76:Source\StatisticsFunctions/arm_mean_q31.c ****   /* First part of the processing with loop unrolling.  Compute 4 outputs at a time.
  77:Source\StatisticsFunctions/arm_mean_q31.c ****    ** a second loop below computes the remaining 1 to 3 samples. */
  78:Source\StatisticsFunctions/arm_mean_q31.c ****   while (blkCnt > 0u)
  79:Source\StatisticsFunctions/arm_mean_q31.c ****   {
  80:Source\StatisticsFunctions/arm_mean_q31.c ****     /* C = (A[0] + A[1] + A[2] + ... + A[blockSize-1]) */
  81:Source\StatisticsFunctions/arm_mean_q31.c ****     in1 = *pSrc++;
  82:Source\StatisticsFunctions/arm_mean_q31.c ****     in2 = *pSrc++;
  83:Source\StatisticsFunctions/arm_mean_q31.c ****     in3 = *pSrc++;
  84:Source\StatisticsFunctions/arm_mean_q31.c ****     in4 = *pSrc++;
  85:Source\StatisticsFunctions/arm_mean_q31.c **** 
  86:Source\StatisticsFunctions/arm_mean_q31.c ****     sum += in1;
  87:Source\StatisticsFunctions/arm_mean_q31.c ****     sum += in2;
  88:Source\StatisticsFunctions/arm_mean_q31.c ****     sum += in3;
  89:Source\StatisticsFunctions/arm_mean_q31.c ****     sum += in4;
  90:Source\StatisticsFunctions/arm_mean_q31.c **** 
  91:Source\StatisticsFunctions/arm_mean_q31.c ****     /* Decrement the loop counter */
  92:Source\StatisticsFunctions/arm_mean_q31.c ****     blkCnt--;
  93:Source\StatisticsFunctions/arm_mean_q31.c ****   }
  94:Source\StatisticsFunctions/arm_mean_q31.c **** 
  95:Source\StatisticsFunctions/arm_mean_q31.c ****   /* If the blockSize is not a multiple of 4, compute any remaining output samples here.
  96:Source\StatisticsFunctions/arm_mean_q31.c ****    ** No loop unrolling is used. */
  97:Source\StatisticsFunctions/arm_mean_q31.c ****   blkCnt = blockSize % 0x4u;
  98:Source\StatisticsFunctions/arm_mean_q31.c **** 
  99:Source\StatisticsFunctions/arm_mean_q31.c **** #else
 100:Source\StatisticsFunctions/arm_mean_q31.c ****   /* Run the below code for Cortex-M0 */
 101:Source\StatisticsFunctions/arm_mean_q31.c **** 
 102:Source\StatisticsFunctions/arm_mean_q31.c ****   /* Loop over blockSize number of values */
 103:Source\StatisticsFunctions/arm_mean_q31.c ****   blkCnt = blockSize;
  48              		.loc 1 103 0
  49 0014 3B69     		ldr	r3, [r7, #16]
  50 0016 FB61     		str	r3, [r7, #28]
 104:Source\StatisticsFunctions/arm_mean_q31.c **** 
 105:Source\StatisticsFunctions/arm_mean_q31.c **** #endif /* #if defined (ARM_MATH_DSP) */
 106:Source\StatisticsFunctions/arm_mean_q31.c **** 
 107:Source\StatisticsFunctions/arm_mean_q31.c ****   while (blkCnt > 0u)
  51              		.loc 1 107 0
  52 0018 0FE0     		b	.L2
  53              	.L3:
 108:Source\StatisticsFunctions/arm_mean_q31.c ****   {
 109:Source\StatisticsFunctions/arm_mean_q31.c ****     /* C = (A[0] + A[1] + A[2] + ... + A[blockSize-1]) */
 110:Source\StatisticsFunctions/arm_mean_q31.c ****     sum += *pSrc++;
  54              		.loc 1 110 0
  55 001a 7B69     		ldr	r3, [r7, #20]
  56 001c 1A1D     		add	r2, r3, #4
  57 001e 7A61     		str	r2, [r7, #20]
  58 0020 1B68     		ldr	r3, [r3]
  59 0022 1D1C     		mov	r5, r3
  60 0024 DB17     		asr	r3, r3, #31
  61 0026 1E1C     		mov	r6, r3
ARM GAS  C:\Users\fneves\AppData\Local\Temp\ccEvVDfm.s 			page 4


  62 0028 3B6A     		ldr	r3, [r7, #32]
  63 002a 7C6A     		ldr	r4, [r7, #36]
  64 002c 5B19     		add	r3, r3, r5
  65 002e 7441     		adc	r4, r4, r6
  66 0030 3B62     		str	r3, [r7, #32]
  67 0032 7C62     		str	r4, [r7, #36]
 111:Source\StatisticsFunctions/arm_mean_q31.c **** 
 112:Source\StatisticsFunctions/arm_mean_q31.c ****     /* Decrement the loop counter */
 113:Source\StatisticsFunctions/arm_mean_q31.c ****     blkCnt--;
  68              		.loc 1 113 0
  69 0034 FB69     		ldr	r3, [r7, #28]
  70 0036 013B     		sub	r3, r3, #1
  71 0038 FB61     		str	r3, [r7, #28]
  72              	.L2:
 107:Source\StatisticsFunctions/arm_mean_q31.c ****   {
  73              		.loc 1 107 0
  74 003a FB69     		ldr	r3, [r7, #28]
  75 003c 002B     		cmp	r3, #0
  76 003e ECD1     		bne	.L3
 114:Source\StatisticsFunctions/arm_mean_q31.c ****   }
 115:Source\StatisticsFunctions/arm_mean_q31.c **** 
 116:Source\StatisticsFunctions/arm_mean_q31.c ****   /* C = (A[0] + A[1] + A[2] + ... + A[blockSize-1]) / blockSize  */
 117:Source\StatisticsFunctions/arm_mean_q31.c ****   /* Store the result to the destination */
 118:Source\StatisticsFunctions/arm_mean_q31.c ****   *pResult = (q31_t) (sum / (int32_t) blockSize);
  77              		.loc 1 118 0
  78 0040 3B69     		ldr	r3, [r7, #16]
  79 0042 3B60     		str	r3, [r7]
  80 0044 DB17     		asr	r3, r3, #31
  81 0046 7B60     		str	r3, [r7, #4]
  82 0048 386A     		ldr	r0, [r7, #32]
  83 004a 796A     		ldr	r1, [r7, #36]
  84 004c 3A68     		ldr	r2, [r7]
  85 004e 7B68     		ldr	r3, [r7, #4]
  86 0050 FFF7FEFF 		bl	__aeabi_ldivmod
  87 0054 031C     		mov	r3, r0
  88 0056 0C1C     		mov	r4, r1
  89 0058 1A1C     		mov	r2, r3
  90 005a FB68     		ldr	r3, [r7, #12]
  91 005c 1A60     		str	r2, [r3]
 119:Source\StatisticsFunctions/arm_mean_q31.c **** }
  92              		.loc 1 119 0
  93 005e BD46     		mov	sp, r7
  94 0060 0BB0     		add	sp, sp, #44
  95              		@ sp needed
  96 0062 F0BD     		pop	{r4, r5, r6, r7, pc}
  97              		.cfi_endproc
  98              	.LFE82:
  99              		.size	arm_mean_q31, .-arm_mean_q31
 100              		.text
 101              	.Letext0:
 102              		.file 2 "c:\\program files (x86)\\cypress\\psoc creator\\4.0\\psoc creator\\import\\gnu\\arm\\4.9.
 103              		.file 3 "c:\\program files (x86)\\cypress\\psoc creator\\4.0\\psoc creator\\import\\gnu\\arm\\4.9.
 104              		.file 4 ".\\Include/arm_math.h"