ARM GAS  C:\Users\fneves\AppData\Local\Temp\ccyzs4li.s 			page 1


   1              		.cpu cortex-m0plus
   2              		.fpu softvfp
   3              		.eabi_attribute 20, 1
   4              		.eabi_attribute 21, 1
   5              		.eabi_attribute 23, 3
   6              		.eabi_attribute 24, 1
   7              		.eabi_attribute 25, 1
   8              		.eabi_attribute 26, 1
   9              		.eabi_attribute 30, 6
  10              		.eabi_attribute 34, 0
  11              		.eabi_attribute 18, 4
  12              		.code	16
  13              		.file	"arm_dot_prod_f32.c"
  14              		.text
  15              	.Ltext0:
  16              		.cfi_sections	.debug_frame
  17              		.global	__aeabi_fmul
  18              		.global	__aeabi_fadd
  19              		.section	.text.arm_dot_prod_f32,"ax",%progbits
  20              		.align	2
  21              		.global	arm_dot_prod_f32
  22              		.code	16
  23              		.thumb_func
  24              		.type	arm_dot_prod_f32, %function
  25              	arm_dot_prod_f32:
  26              	.LFB82:
  27              		.file 1 "Source\\BasicMathFunctions\\arm_dot_prod_f32.c"
   1:Source\BasicMathFunctions/arm_dot_prod_f32.c **** /* ----------------------------------------------------------------------
   2:Source\BasicMathFunctions/arm_dot_prod_f32.c ****  * Project:      CMSIS DSP Library
   3:Source\BasicMathFunctions/arm_dot_prod_f32.c ****  * Title:        arm_dot_prod_f32.c
   4:Source\BasicMathFunctions/arm_dot_prod_f32.c ****  * Description:  Floating-point dot product
   5:Source\BasicMathFunctions/arm_dot_prod_f32.c ****  *
   6:Source\BasicMathFunctions/arm_dot_prod_f32.c ****  * $Date:        27. January 2017
   7:Source\BasicMathFunctions/arm_dot_prod_f32.c ****  * $Revision:    V.1.5.1
   8:Source\BasicMathFunctions/arm_dot_prod_f32.c ****  *
   9:Source\BasicMathFunctions/arm_dot_prod_f32.c ****  * Target Processor: Cortex-M cores
  10:Source\BasicMathFunctions/arm_dot_prod_f32.c ****  * -------------------------------------------------------------------- */
  11:Source\BasicMathFunctions/arm_dot_prod_f32.c **** /*
  12:Source\BasicMathFunctions/arm_dot_prod_f32.c ****  * Copyright (C) 2010-2017 ARM Limited or its affiliates. All rights reserved.
  13:Source\BasicMathFunctions/arm_dot_prod_f32.c ****  *
  14:Source\BasicMathFunctions/arm_dot_prod_f32.c ****  * SPDX-License-Identifier: Apache-2.0
  15:Source\BasicMathFunctions/arm_dot_prod_f32.c ****  *
  16:Source\BasicMathFunctions/arm_dot_prod_f32.c ****  * Licensed under the Apache License, Version 2.0 (the License); you may
  17:Source\BasicMathFunctions/arm_dot_prod_f32.c ****  * not use this file except in compliance with the License.
  18:Source\BasicMathFunctions/arm_dot_prod_f32.c ****  * You may obtain a copy of the License at
  19:Source\BasicMathFunctions/arm_dot_prod_f32.c ****  *
  20:Source\BasicMathFunctions/arm_dot_prod_f32.c ****  * www.apache.org/licenses/LICENSE-2.0
  21:Source\BasicMathFunctions/arm_dot_prod_f32.c ****  *
  22:Source\BasicMathFunctions/arm_dot_prod_f32.c ****  * Unless required by applicable law or agreed to in writing, software
  23:Source\BasicMathFunctions/arm_dot_prod_f32.c ****  * distributed under the License is distributed on an AS IS BASIS, WITHOUT
  24:Source\BasicMathFunctions/arm_dot_prod_f32.c ****  * WARRANTIES OR CONDITIONS OF ANY KIND, either express or implied.
  25:Source\BasicMathFunctions/arm_dot_prod_f32.c ****  * See the License for the specific language governing permissions and
  26:Source\BasicMathFunctions/arm_dot_prod_f32.c ****  * limitations under the License.
  27:Source\BasicMathFunctions/arm_dot_prod_f32.c ****  */
  28:Source\BasicMathFunctions/arm_dot_prod_f32.c **** 
  29:Source\BasicMathFunctions/arm_dot_prod_f32.c **** #include "arm_math.h"
  30:Source\BasicMathFunctions/arm_dot_prod_f32.c **** 
ARM GAS  C:\Users\fneves\AppData\Local\Temp\ccyzs4li.s 			page 2


  31:Source\BasicMathFunctions/arm_dot_prod_f32.c **** /**
  32:Source\BasicMathFunctions/arm_dot_prod_f32.c ****  * @ingroup groupMath
  33:Source\BasicMathFunctions/arm_dot_prod_f32.c ****  */
  34:Source\BasicMathFunctions/arm_dot_prod_f32.c **** 
  35:Source\BasicMathFunctions/arm_dot_prod_f32.c **** /**
  36:Source\BasicMathFunctions/arm_dot_prod_f32.c ****  * @defgroup dot_prod Vector Dot Product
  37:Source\BasicMathFunctions/arm_dot_prod_f32.c ****  *
  38:Source\BasicMathFunctions/arm_dot_prod_f32.c ****  * Computes the dot product of two vectors.
  39:Source\BasicMathFunctions/arm_dot_prod_f32.c ****  * The vectors are multiplied element-by-element and then summed.
  40:Source\BasicMathFunctions/arm_dot_prod_f32.c ****  *
  41:Source\BasicMathFunctions/arm_dot_prod_f32.c ****  * <pre>
  42:Source\BasicMathFunctions/arm_dot_prod_f32.c ****  *     sum = pSrcA[0]*pSrcB[0] + pSrcA[1]*pSrcB[1] + ... + pSrcA[blockSize-1]*pSrcB[blockSize-1]
  43:Source\BasicMathFunctions/arm_dot_prod_f32.c ****  * </pre>
  44:Source\BasicMathFunctions/arm_dot_prod_f32.c ****  *
  45:Source\BasicMathFunctions/arm_dot_prod_f32.c ****  * There are separate functions for floating-point, Q7, Q15, and Q31 data types.
  46:Source\BasicMathFunctions/arm_dot_prod_f32.c ****  */
  47:Source\BasicMathFunctions/arm_dot_prod_f32.c **** 
  48:Source\BasicMathFunctions/arm_dot_prod_f32.c **** /**
  49:Source\BasicMathFunctions/arm_dot_prod_f32.c ****  * @addtogroup dot_prod
  50:Source\BasicMathFunctions/arm_dot_prod_f32.c ****  * @{
  51:Source\BasicMathFunctions/arm_dot_prod_f32.c ****  */
  52:Source\BasicMathFunctions/arm_dot_prod_f32.c **** 
  53:Source\BasicMathFunctions/arm_dot_prod_f32.c **** /**
  54:Source\BasicMathFunctions/arm_dot_prod_f32.c ****  * @brief Dot product of floating-point vectors.
  55:Source\BasicMathFunctions/arm_dot_prod_f32.c ****  * @param[in]       *pSrcA points to the first input vector
  56:Source\BasicMathFunctions/arm_dot_prod_f32.c ****  * @param[in]       *pSrcB points to the second input vector
  57:Source\BasicMathFunctions/arm_dot_prod_f32.c ****  * @param[in]       blockSize number of samples in each vector
  58:Source\BasicMathFunctions/arm_dot_prod_f32.c ****  * @param[out]      *result output result returned here
  59:Source\BasicMathFunctions/arm_dot_prod_f32.c ****  * @return none.
  60:Source\BasicMathFunctions/arm_dot_prod_f32.c ****  */
  61:Source\BasicMathFunctions/arm_dot_prod_f32.c **** 
  62:Source\BasicMathFunctions/arm_dot_prod_f32.c **** 
  63:Source\BasicMathFunctions/arm_dot_prod_f32.c **** void arm_dot_prod_f32(
  64:Source\BasicMathFunctions/arm_dot_prod_f32.c ****   float32_t * pSrcA,
  65:Source\BasicMathFunctions/arm_dot_prod_f32.c ****   float32_t * pSrcB,
  66:Source\BasicMathFunctions/arm_dot_prod_f32.c ****   uint32_t blockSize,
  67:Source\BasicMathFunctions/arm_dot_prod_f32.c ****   float32_t * result)
  68:Source\BasicMathFunctions/arm_dot_prod_f32.c **** {
  28              		.loc 1 68 0
  29              		.cfi_startproc
  30 0000 80B5     		push	{r7, lr}
  31              		.cfi_def_cfa_offset 8
  32              		.cfi_offset 7, -8
  33              		.cfi_offset 14, -4
  34 0002 86B0     		sub	sp, sp, #24
  35              		.cfi_def_cfa_offset 32
  36 0004 00AF     		add	r7, sp, #0
  37              		.cfi_def_cfa_register 7
  38 0006 F860     		str	r0, [r7, #12]
  39 0008 B960     		str	r1, [r7, #8]
  40 000a 7A60     		str	r2, [r7, #4]
  41 000c 3B60     		str	r3, [r7]
  69:Source\BasicMathFunctions/arm_dot_prod_f32.c ****   float32_t sum = 0.0f;                          /* Temporary result storage */
  42              		.loc 1 69 0
  43 000e 0023     		mov	r3, #0
  44 0010 7B61     		str	r3, [r7, #20]
  70:Source\BasicMathFunctions/arm_dot_prod_f32.c ****   uint32_t blkCnt;                               /* loop counter */
ARM GAS  C:\Users\fneves\AppData\Local\Temp\ccyzs4li.s 			page 3


  71:Source\BasicMathFunctions/arm_dot_prod_f32.c **** 
  72:Source\BasicMathFunctions/arm_dot_prod_f32.c **** 
  73:Source\BasicMathFunctions/arm_dot_prod_f32.c **** #if defined (ARM_MATH_DSP)
  74:Source\BasicMathFunctions/arm_dot_prod_f32.c **** 
  75:Source\BasicMathFunctions/arm_dot_prod_f32.c **** /* Run the below code for Cortex-M4 and Cortex-M3 */
  76:Source\BasicMathFunctions/arm_dot_prod_f32.c ****   /*loop Unrolling */
  77:Source\BasicMathFunctions/arm_dot_prod_f32.c ****   blkCnt = blockSize >> 2u;
  78:Source\BasicMathFunctions/arm_dot_prod_f32.c **** 
  79:Source\BasicMathFunctions/arm_dot_prod_f32.c ****   /* First part of the processing with loop unrolling.  Compute 4 outputs at a time.
  80:Source\BasicMathFunctions/arm_dot_prod_f32.c ****    ** a second loop below computes the remaining 1 to 3 samples. */
  81:Source\BasicMathFunctions/arm_dot_prod_f32.c ****   while (blkCnt > 0u)
  82:Source\BasicMathFunctions/arm_dot_prod_f32.c ****   {
  83:Source\BasicMathFunctions/arm_dot_prod_f32.c ****     /* C = A[0]* B[0] + A[1]* B[1] + A[2]* B[2] + .....+ A[blockSize-1]* B[blockSize-1] */
  84:Source\BasicMathFunctions/arm_dot_prod_f32.c ****     /* Calculate dot product and then store the result in a temporary buffer */
  85:Source\BasicMathFunctions/arm_dot_prod_f32.c ****     sum += (*pSrcA++) * (*pSrcB++);
  86:Source\BasicMathFunctions/arm_dot_prod_f32.c ****     sum += (*pSrcA++) * (*pSrcB++);
  87:Source\BasicMathFunctions/arm_dot_prod_f32.c ****     sum += (*pSrcA++) * (*pSrcB++);
  88:Source\BasicMathFunctions/arm_dot_prod_f32.c ****     sum += (*pSrcA++) * (*pSrcB++);
  89:Source\BasicMathFunctions/arm_dot_prod_f32.c **** 
  90:Source\BasicMathFunctions/arm_dot_prod_f32.c ****     /* Decrement the loop counter */
  91:Source\BasicMathFunctions/arm_dot_prod_f32.c ****     blkCnt--;
  92:Source\BasicMathFunctions/arm_dot_prod_f32.c ****   }
  93:Source\BasicMathFunctions/arm_dot_prod_f32.c **** 
  94:Source\BasicMathFunctions/arm_dot_prod_f32.c ****   /* If the blockSize is not a multiple of 4, compute any remaining output samples here.
  95:Source\BasicMathFunctions/arm_dot_prod_f32.c ****    ** No loop unrolling is used. */
  96:Source\BasicMathFunctions/arm_dot_prod_f32.c ****   blkCnt = blockSize % 0x4u;
  97:Source\BasicMathFunctions/arm_dot_prod_f32.c **** 
  98:Source\BasicMathFunctions/arm_dot_prod_f32.c **** #else
  99:Source\BasicMathFunctions/arm_dot_prod_f32.c **** 
 100:Source\BasicMathFunctions/arm_dot_prod_f32.c ****   /* Run the below code for Cortex-M0 */
 101:Source\BasicMathFunctions/arm_dot_prod_f32.c **** 
 102:Source\BasicMathFunctions/arm_dot_prod_f32.c ****   /* Initialize blkCnt with number of samples */
 103:Source\BasicMathFunctions/arm_dot_prod_f32.c ****   blkCnt = blockSize;
  45              		.loc 1 103 0
  46 0012 7B68     		ldr	r3, [r7, #4]
  47 0014 3B61     		str	r3, [r7, #16]
 104:Source\BasicMathFunctions/arm_dot_prod_f32.c **** 
 105:Source\BasicMathFunctions/arm_dot_prod_f32.c **** #endif /* #if defined (ARM_MATH_DSP) */
 106:Source\BasicMathFunctions/arm_dot_prod_f32.c **** 
 107:Source\BasicMathFunctions/arm_dot_prod_f32.c **** 
 108:Source\BasicMathFunctions/arm_dot_prod_f32.c ****   while (blkCnt > 0u)
  48              		.loc 1 108 0
  49 0016 15E0     		b	.L2
  50              	.L3:
 109:Source\BasicMathFunctions/arm_dot_prod_f32.c ****   {
 110:Source\BasicMathFunctions/arm_dot_prod_f32.c ****     /* C = A[0]* B[0] + A[1]* B[1] + A[2]* B[2] + .....+ A[blockSize-1]* B[blockSize-1] */
 111:Source\BasicMathFunctions/arm_dot_prod_f32.c ****     /* Calculate dot product and then store the result in a temporary buffer. */
 112:Source\BasicMathFunctions/arm_dot_prod_f32.c ****     sum += (*pSrcA++) * (*pSrcB++);
  51              		.loc 1 112 0
  52 0018 FB68     		ldr	r3, [r7, #12]
  53 001a 1A1D     		add	r2, r3, #4
  54 001c FA60     		str	r2, [r7, #12]
  55 001e 1968     		ldr	r1, [r3]
  56 0020 BB68     		ldr	r3, [r7, #8]
  57 0022 1A1D     		add	r2, r3, #4
  58 0024 BA60     		str	r2, [r7, #8]
  59 0026 1B68     		ldr	r3, [r3]
ARM GAS  C:\Users\fneves\AppData\Local\Temp\ccyzs4li.s 			page 4


  60 0028 081C     		add	r0, r1, #0
  61 002a 191C     		add	r1, r3, #0
  62 002c FFF7FEFF 		bl	__aeabi_fmul
  63 0030 031C     		add	r3, r0, #0
  64 0032 7869     		ldr	r0, [r7, #20]
  65 0034 191C     		add	r1, r3, #0
  66 0036 FFF7FEFF 		bl	__aeabi_fadd
  67 003a 031C     		add	r3, r0, #0
  68 003c 7B61     		str	r3, [r7, #20]
 113:Source\BasicMathFunctions/arm_dot_prod_f32.c **** 
 114:Source\BasicMathFunctions/arm_dot_prod_f32.c ****     /* Decrement the loop counter */
 115:Source\BasicMathFunctions/arm_dot_prod_f32.c ****     blkCnt--;
  69              		.loc 1 115 0
  70 003e 3B69     		ldr	r3, [r7, #16]
  71 0040 013B     		sub	r3, r3, #1
  72 0042 3B61     		str	r3, [r7, #16]
  73              	.L2:
 108:Source\BasicMathFunctions/arm_dot_prod_f32.c ****   {
  74              		.loc 1 108 0
  75 0044 3B69     		ldr	r3, [r7, #16]
  76 0046 002B     		cmp	r3, #0
  77 0048 E6D1     		bne	.L3
 116:Source\BasicMathFunctions/arm_dot_prod_f32.c ****   }
 117:Source\BasicMathFunctions/arm_dot_prod_f32.c ****   /* Store the result back in the destination buffer */
 118:Source\BasicMathFunctions/arm_dot_prod_f32.c ****   *result = sum;
  78              		.loc 1 118 0
  79 004a 3B68     		ldr	r3, [r7]
  80 004c 7A69     		ldr	r2, [r7, #20]
  81 004e 1A60     		str	r2, [r3]
 119:Source\BasicMathFunctions/arm_dot_prod_f32.c **** }
  82              		.loc 1 119 0
  83 0050 BD46     		mov	sp, r7
  84 0052 06B0     		add	sp, sp, #24
  85              		@ sp needed
  86 0054 80BD     		pop	{r7, pc}
  87              		.cfi_endproc
  88              	.LFE82:
  89              		.size	arm_dot_prod_f32, .-arm_dot_prod_f32
  90 0056 C046     		.text
  91              	.Letext0:
  92              		.file 2 "c:\\program files (x86)\\cypress\\psoc creator\\4.0\\psoc creator\\import\\gnu\\arm\\4.9.
  93              		.file 3 "c:\\program files (x86)\\cypress\\psoc creator\\4.0\\psoc creator\\import\\gnu\\arm\\4.9.
  94              		.file 4 ".\\Include/arm_math.h"