ARM GAS  C:\Users\fneves\AppData\Local\Temp\ccySSOwP.s 			page 1


   1              		.cpu cortex-m0plus
   2              		.fpu softvfp
   3              		.eabi_attribute 20, 1
   4              		.eabi_attribute 21, 1
   5              		.eabi_attribute 23, 3
   6              		.eabi_attribute 24, 1
   7              		.eabi_attribute 25, 1
   8              		.eabi_attribute 26, 1
   9              		.eabi_attribute 30, 6
  10              		.eabi_attribute 34, 0
  11              		.eabi_attribute 18, 4
  12              		.code	16
  13              		.file	"arm_min_q15.c"
  14              		.text
  15              	.Ltext0:
  16              		.cfi_sections	.debug_frame
  17              		.section	.text.arm_min_q15,"ax",%progbits
  18              		.align	2
  19              		.global	arm_min_q15
  20              		.code	16
  21              		.thumb_func
  22              		.type	arm_min_q15, %function
  23              	arm_min_q15:
  24              	.LFB82:
  25              		.file 1 "Source\\StatisticsFunctions\\arm_min_q15.c"
   1:Source\StatisticsFunctions/arm_min_q15.c **** /* ----------------------------------------------------------------------
   2:Source\StatisticsFunctions/arm_min_q15.c ****  * Project:      CMSIS DSP Library
   3:Source\StatisticsFunctions/arm_min_q15.c ****  * Title:        arm_min_q15.c
   4:Source\StatisticsFunctions/arm_min_q15.c ****  * Description:  Minimum value of a Q15 vector
   5:Source\StatisticsFunctions/arm_min_q15.c ****  *
   6:Source\StatisticsFunctions/arm_min_q15.c ****  * $Date:        27. January 2017
   7:Source\StatisticsFunctions/arm_min_q15.c ****  * $Revision:    V.1.5.1
   8:Source\StatisticsFunctions/arm_min_q15.c ****  *
   9:Source\StatisticsFunctions/arm_min_q15.c ****  * Target Processor: Cortex-M cores
  10:Source\StatisticsFunctions/arm_min_q15.c ****  * -------------------------------------------------------------------- */
  11:Source\StatisticsFunctions/arm_min_q15.c **** /*
  12:Source\StatisticsFunctions/arm_min_q15.c ****  * Copyright (C) 2010-2017 ARM Limited or its affiliates. All rights reserved.
  13:Source\StatisticsFunctions/arm_min_q15.c ****  *
  14:Source\StatisticsFunctions/arm_min_q15.c ****  * SPDX-License-Identifier: Apache-2.0
  15:Source\StatisticsFunctions/arm_min_q15.c ****  *
  16:Source\StatisticsFunctions/arm_min_q15.c ****  * Licensed under the Apache License, Version 2.0 (the License); you may
  17:Source\StatisticsFunctions/arm_min_q15.c ****  * not use this file except in compliance with the License.
  18:Source\StatisticsFunctions/arm_min_q15.c ****  * You may obtain a copy of the License at
  19:Source\StatisticsFunctions/arm_min_q15.c ****  *
  20:Source\StatisticsFunctions/arm_min_q15.c ****  * www.apache.org/licenses/LICENSE-2.0
  21:Source\StatisticsFunctions/arm_min_q15.c ****  *
  22:Source\StatisticsFunctions/arm_min_q15.c ****  * Unless required by applicable law or agreed to in writing, software
  23:Source\StatisticsFunctions/arm_min_q15.c ****  * distributed under the License is distributed on an AS IS BASIS, WITHOUT
  24:Source\StatisticsFunctions/arm_min_q15.c ****  * WARRANTIES OR CONDITIONS OF ANY KIND, either express or implied.
  25:Source\StatisticsFunctions/arm_min_q15.c ****  * See the License for the specific language governing permissions and
  26:Source\StatisticsFunctions/arm_min_q15.c ****  * limitations under the License.
  27:Source\StatisticsFunctions/arm_min_q15.c ****  */
  28:Source\StatisticsFunctions/arm_min_q15.c **** 
  29:Source\StatisticsFunctions/arm_min_q15.c **** #include "arm_math.h"
  30:Source\StatisticsFunctions/arm_min_q15.c **** 
  31:Source\StatisticsFunctions/arm_min_q15.c **** /**
  32:Source\StatisticsFunctions/arm_min_q15.c ****  * @ingroup groupStats
ARM GAS  C:\Users\fneves\AppData\Local\Temp\ccySSOwP.s 			page 2


  33:Source\StatisticsFunctions/arm_min_q15.c ****  */
  34:Source\StatisticsFunctions/arm_min_q15.c **** 
  35:Source\StatisticsFunctions/arm_min_q15.c **** 
  36:Source\StatisticsFunctions/arm_min_q15.c **** /**
  37:Source\StatisticsFunctions/arm_min_q15.c ****  * @addtogroup Min
  38:Source\StatisticsFunctions/arm_min_q15.c ****  * @{
  39:Source\StatisticsFunctions/arm_min_q15.c ****  */
  40:Source\StatisticsFunctions/arm_min_q15.c **** 
  41:Source\StatisticsFunctions/arm_min_q15.c **** 
  42:Source\StatisticsFunctions/arm_min_q15.c **** /**
  43:Source\StatisticsFunctions/arm_min_q15.c ****  * @brief Minimum value of a Q15 vector.
  44:Source\StatisticsFunctions/arm_min_q15.c ****  * @param[in]       *pSrc points to the input vector
  45:Source\StatisticsFunctions/arm_min_q15.c ****  * @param[in]       blockSize length of the input vector
  46:Source\StatisticsFunctions/arm_min_q15.c ****  * @param[out]      *pResult minimum value returned here
  47:Source\StatisticsFunctions/arm_min_q15.c ****  * @param[out]      *pIndex index of minimum value returned here
  48:Source\StatisticsFunctions/arm_min_q15.c ****  * @return none.
  49:Source\StatisticsFunctions/arm_min_q15.c ****  */
  50:Source\StatisticsFunctions/arm_min_q15.c **** 
  51:Source\StatisticsFunctions/arm_min_q15.c **** void arm_min_q15(
  52:Source\StatisticsFunctions/arm_min_q15.c ****   q15_t * pSrc,
  53:Source\StatisticsFunctions/arm_min_q15.c ****   uint32_t blockSize,
  54:Source\StatisticsFunctions/arm_min_q15.c ****   q15_t * pResult,
  55:Source\StatisticsFunctions/arm_min_q15.c ****   uint32_t * pIndex)
  56:Source\StatisticsFunctions/arm_min_q15.c **** {
  26              		.loc 1 56 0
  27              		.cfi_startproc
  28 0000 80B5     		push	{r7, lr}
  29              		.cfi_def_cfa_offset 8
  30              		.cfi_offset 7, -8
  31              		.cfi_offset 14, -4
  32 0002 88B0     		sub	sp, sp, #32
  33              		.cfi_def_cfa_offset 40
  34 0004 00AF     		add	r7, sp, #0
  35              		.cfi_def_cfa_register 7
  36 0006 F860     		str	r0, [r7, #12]
  37 0008 B960     		str	r1, [r7, #8]
  38 000a 7A60     		str	r2, [r7, #4]
  39 000c 3B60     		str	r3, [r7]
  57:Source\StatisticsFunctions/arm_min_q15.c **** #if defined (ARM_MATH_DSP)
  58:Source\StatisticsFunctions/arm_min_q15.c ****   /* Run the below code for Cortex-M4 and Cortex-M3 */
  59:Source\StatisticsFunctions/arm_min_q15.c **** 
  60:Source\StatisticsFunctions/arm_min_q15.c ****   q15_t minVal1, minVal2, out;                   /* Temporary variables to store the output value. 
  61:Source\StatisticsFunctions/arm_min_q15.c ****   uint32_t blkCnt, outIndex, count;              /* loop counter */
  62:Source\StatisticsFunctions/arm_min_q15.c **** 
  63:Source\StatisticsFunctions/arm_min_q15.c ****   /* Initialise the count value. */
  64:Source\StatisticsFunctions/arm_min_q15.c ****   count = 0u;
  65:Source\StatisticsFunctions/arm_min_q15.c ****   /* Initialise the index value to zero. */
  66:Source\StatisticsFunctions/arm_min_q15.c ****   outIndex = 0u;
  67:Source\StatisticsFunctions/arm_min_q15.c ****   /* Load first input value that act as reference value for comparision */
  68:Source\StatisticsFunctions/arm_min_q15.c ****   out = *pSrc++;
  69:Source\StatisticsFunctions/arm_min_q15.c **** 
  70:Source\StatisticsFunctions/arm_min_q15.c ****   /* Loop unrolling */
  71:Source\StatisticsFunctions/arm_min_q15.c ****   blkCnt = (blockSize - 1u) >> 2u;
  72:Source\StatisticsFunctions/arm_min_q15.c **** 
  73:Source\StatisticsFunctions/arm_min_q15.c ****   while (blkCnt > 0u)
  74:Source\StatisticsFunctions/arm_min_q15.c ****   {
  75:Source\StatisticsFunctions/arm_min_q15.c ****     /* Initialize minVal to the next consecutive values one by one */
ARM GAS  C:\Users\fneves\AppData\Local\Temp\ccySSOwP.s 			page 3


  76:Source\StatisticsFunctions/arm_min_q15.c ****     minVal1 = *pSrc++;
  77:Source\StatisticsFunctions/arm_min_q15.c ****     minVal2 = *pSrc++;
  78:Source\StatisticsFunctions/arm_min_q15.c **** 
  79:Source\StatisticsFunctions/arm_min_q15.c ****     /* compare for the minimum value */
  80:Source\StatisticsFunctions/arm_min_q15.c ****     if (out > minVal1)
  81:Source\StatisticsFunctions/arm_min_q15.c ****     {
  82:Source\StatisticsFunctions/arm_min_q15.c ****       /* Update the minimum value and its index */
  83:Source\StatisticsFunctions/arm_min_q15.c ****       out = minVal1;
  84:Source\StatisticsFunctions/arm_min_q15.c ****       outIndex = count + 1u;
  85:Source\StatisticsFunctions/arm_min_q15.c ****     }
  86:Source\StatisticsFunctions/arm_min_q15.c **** 
  87:Source\StatisticsFunctions/arm_min_q15.c ****     /* compare for the minimum value */
  88:Source\StatisticsFunctions/arm_min_q15.c ****     if (out > minVal2)
  89:Source\StatisticsFunctions/arm_min_q15.c ****     {
  90:Source\StatisticsFunctions/arm_min_q15.c ****       /* Update the minimum value and its index */
  91:Source\StatisticsFunctions/arm_min_q15.c ****       out = minVal2;
  92:Source\StatisticsFunctions/arm_min_q15.c ****       outIndex = count + 2u;
  93:Source\StatisticsFunctions/arm_min_q15.c ****     }
  94:Source\StatisticsFunctions/arm_min_q15.c **** 
  95:Source\StatisticsFunctions/arm_min_q15.c ****     /* Initialize minVal to the next consecutive values one by one */
  96:Source\StatisticsFunctions/arm_min_q15.c ****     minVal1 = *pSrc++;
  97:Source\StatisticsFunctions/arm_min_q15.c ****     minVal2 = *pSrc++;
  98:Source\StatisticsFunctions/arm_min_q15.c **** 
  99:Source\StatisticsFunctions/arm_min_q15.c ****     /* compare for the minimum value */
 100:Source\StatisticsFunctions/arm_min_q15.c ****     if (out > minVal1)
 101:Source\StatisticsFunctions/arm_min_q15.c ****     {
 102:Source\StatisticsFunctions/arm_min_q15.c ****       /* Update the minimum value and its index */
 103:Source\StatisticsFunctions/arm_min_q15.c ****       out = minVal1;
 104:Source\StatisticsFunctions/arm_min_q15.c ****       outIndex = count + 3u;
 105:Source\StatisticsFunctions/arm_min_q15.c ****     }
 106:Source\StatisticsFunctions/arm_min_q15.c **** 
 107:Source\StatisticsFunctions/arm_min_q15.c ****     /* compare for the minimum value */
 108:Source\StatisticsFunctions/arm_min_q15.c ****     if (out > minVal2)
 109:Source\StatisticsFunctions/arm_min_q15.c ****     {
 110:Source\StatisticsFunctions/arm_min_q15.c ****       /* Update the minimum value and its index */
 111:Source\StatisticsFunctions/arm_min_q15.c ****       out = minVal2;
 112:Source\StatisticsFunctions/arm_min_q15.c ****       outIndex = count + 4u;
 113:Source\StatisticsFunctions/arm_min_q15.c ****     }
 114:Source\StatisticsFunctions/arm_min_q15.c **** 
 115:Source\StatisticsFunctions/arm_min_q15.c ****     count += 4u;
 116:Source\StatisticsFunctions/arm_min_q15.c **** 
 117:Source\StatisticsFunctions/arm_min_q15.c ****     /* Decrement the loop counter */
 118:Source\StatisticsFunctions/arm_min_q15.c ****     blkCnt--;
 119:Source\StatisticsFunctions/arm_min_q15.c ****   }
 120:Source\StatisticsFunctions/arm_min_q15.c **** 
 121:Source\StatisticsFunctions/arm_min_q15.c ****   /* if (blockSize - 1u) is not multiple of 4 */
 122:Source\StatisticsFunctions/arm_min_q15.c ****   blkCnt = (blockSize - 1u) % 4u;
 123:Source\StatisticsFunctions/arm_min_q15.c **** 
 124:Source\StatisticsFunctions/arm_min_q15.c **** #else
 125:Source\StatisticsFunctions/arm_min_q15.c ****   /* Run the below code for Cortex-M0 */
 126:Source\StatisticsFunctions/arm_min_q15.c **** 
 127:Source\StatisticsFunctions/arm_min_q15.c ****   q15_t minVal1, out;                            /* Temporary variables to store the output value. 
 128:Source\StatisticsFunctions/arm_min_q15.c ****   uint32_t blkCnt, outIndex;                     /* loop counter */
 129:Source\StatisticsFunctions/arm_min_q15.c **** 
 130:Source\StatisticsFunctions/arm_min_q15.c ****   /* Initialise the index value to zero. */
 131:Source\StatisticsFunctions/arm_min_q15.c ****   outIndex = 0u;
  40              		.loc 1 131 0
ARM GAS  C:\Users\fneves\AppData\Local\Temp\ccySSOwP.s 			page 4


  41 000e 0023     		mov	r3, #0
  42 0010 7B61     		str	r3, [r7, #20]
 132:Source\StatisticsFunctions/arm_min_q15.c ****   /* Load first input value that act as reference value for comparision */
 133:Source\StatisticsFunctions/arm_min_q15.c ****   out = *pSrc++;
  43              		.loc 1 133 0
  44 0012 FB68     		ldr	r3, [r7, #12]
  45 0014 9A1C     		add	r2, r3, #2
  46 0016 FA60     		str	r2, [r7, #12]
  47 0018 1E22     		mov	r2, #30
  48 001a BA18     		add	r2, r7, r2
  49 001c 1B88     		ldrh	r3, [r3]
  50 001e 1380     		strh	r3, [r2]
 134:Source\StatisticsFunctions/arm_min_q15.c **** 
 135:Source\StatisticsFunctions/arm_min_q15.c ****   blkCnt = (blockSize - 1u);
  51              		.loc 1 135 0
  52 0020 BB68     		ldr	r3, [r7, #8]
  53 0022 013B     		sub	r3, r3, #1
  54 0024 BB61     		str	r3, [r7, #24]
 136:Source\StatisticsFunctions/arm_min_q15.c **** 
 137:Source\StatisticsFunctions/arm_min_q15.c **** #endif /* #if defined (ARM_MATH_DSP) */
 138:Source\StatisticsFunctions/arm_min_q15.c **** 
 139:Source\StatisticsFunctions/arm_min_q15.c ****   while (blkCnt > 0u)
  55              		.loc 1 139 0
  56 0026 1DE0     		b	.L2
  57              	.L4:
 140:Source\StatisticsFunctions/arm_min_q15.c ****   {
 141:Source\StatisticsFunctions/arm_min_q15.c ****     /* Initialize minVal to the next consecutive values one by one */
 142:Source\StatisticsFunctions/arm_min_q15.c ****     minVal1 = *pSrc++;
  58              		.loc 1 142 0
  59 0028 FB68     		ldr	r3, [r7, #12]
  60 002a 9A1C     		add	r2, r3, #2
  61 002c FA60     		str	r2, [r7, #12]
  62 002e 1222     		mov	r2, #18
  63 0030 BA18     		add	r2, r7, r2
  64 0032 1B88     		ldrh	r3, [r3]
  65 0034 1380     		strh	r3, [r2]
 143:Source\StatisticsFunctions/arm_min_q15.c **** 
 144:Source\StatisticsFunctions/arm_min_q15.c ****     /* compare for the minimum value */
 145:Source\StatisticsFunctions/arm_min_q15.c ****     if (out > minVal1)
  66              		.loc 1 145 0
  67 0036 1E23     		mov	r3, #30
  68 0038 FA18     		add	r2, r7, r3
  69 003a 1223     		mov	r3, #18
  70 003c FB18     		add	r3, r7, r3
  71 003e 0021     		mov	r1, #0
  72 0040 525E     		ldrsh	r2, [r2, r1]
  73 0042 0021     		mov	r1, #0
  74 0044 5B5E     		ldrsh	r3, [r3, r1]
  75 0046 9A42     		cmp	r2, r3
  76 0048 09DD     		ble	.L3
 146:Source\StatisticsFunctions/arm_min_q15.c ****     {
 147:Source\StatisticsFunctions/arm_min_q15.c ****       /* Update the minimum value and it's index */
 148:Source\StatisticsFunctions/arm_min_q15.c ****       out = minVal1;
  77              		.loc 1 148 0
  78 004a 1E23     		mov	r3, #30
  79 004c FB18     		add	r3, r7, r3
  80 004e 1222     		mov	r2, #18
ARM GAS  C:\Users\fneves\AppData\Local\Temp\ccySSOwP.s 			page 5


  81 0050 BA18     		add	r2, r7, r2
  82 0052 1288     		ldrh	r2, [r2]
  83 0054 1A80     		strh	r2, [r3]
 149:Source\StatisticsFunctions/arm_min_q15.c ****       outIndex = blockSize - blkCnt;
  84              		.loc 1 149 0
  85 0056 BA68     		ldr	r2, [r7, #8]
  86 0058 BB69     		ldr	r3, [r7, #24]
  87 005a D31A     		sub	r3, r2, r3
  88 005c 7B61     		str	r3, [r7, #20]
  89              	.L3:
 150:Source\StatisticsFunctions/arm_min_q15.c ****     }
 151:Source\StatisticsFunctions/arm_min_q15.c **** 
 152:Source\StatisticsFunctions/arm_min_q15.c ****     /* Decrement the loop counter */
 153:Source\StatisticsFunctions/arm_min_q15.c ****     blkCnt--;
  90              		.loc 1 153 0
  91 005e BB69     		ldr	r3, [r7, #24]
  92 0060 013B     		sub	r3, r3, #1
  93 0062 BB61     		str	r3, [r7, #24]
  94              	.L2:
 139:Source\StatisticsFunctions/arm_min_q15.c ****   {
  95              		.loc 1 139 0
  96 0064 BB69     		ldr	r3, [r7, #24]
  97 0066 002B     		cmp	r3, #0
  98 0068 DED1     		bne	.L4
 154:Source\StatisticsFunctions/arm_min_q15.c ****   }
 155:Source\StatisticsFunctions/arm_min_q15.c **** 
 156:Source\StatisticsFunctions/arm_min_q15.c ****   /* Store the minimum value and it's index into destination pointers */
 157:Source\StatisticsFunctions/arm_min_q15.c ****   *pResult = out;
  99              		.loc 1 157 0
 100 006a 7B68     		ldr	r3, [r7, #4]
 101 006c 1E22     		mov	r2, #30
 102 006e BA18     		add	r2, r7, r2
 103 0070 1288     		ldrh	r2, [r2]
 104 0072 1A80     		strh	r2, [r3]
 158:Source\StatisticsFunctions/arm_min_q15.c ****   *pIndex = outIndex;
 105              		.loc 1 158 0
 106 0074 3B68     		ldr	r3, [r7]
 107 0076 7A69     		ldr	r2, [r7, #20]
 108 0078 1A60     		str	r2, [r3]
 159:Source\StatisticsFunctions/arm_min_q15.c **** }
 109              		.loc 1 159 0
 110 007a BD46     		mov	sp, r7
 111 007c 08B0     		add	sp, sp, #32
 112              		@ sp needed
 113 007e 80BD     		pop	{r7, pc}
 114              		.cfi_endproc
 115              	.LFE82:
 116              		.size	arm_min_q15, .-arm_min_q15
 117              		.text
 118              	.Letext0:
 119              		.file 2 "c:\\program files (x86)\\cypress\\psoc creator\\4.0\\psoc creator\\import\\gnu\\arm\\4.9.
 120              		.file 3 "c:\\program files (x86)\\cypress\\psoc creator\\4.0\\psoc creator\\import\\gnu\\arm\\4.9.
 121              		.file 4 ".\\Include/arm_math.h"