ARM GAS  C:\Users\fneves\AppData\Local\Temp\cc7FsGJ9.s 			page 1


   1              		.cpu cortex-m0plus
   2              		.fpu softvfp
   3              		.eabi_attribute 20, 1
   4              		.eabi_attribute 21, 1
   5              		.eabi_attribute 23, 3
   6              		.eabi_attribute 24, 1
   7              		.eabi_attribute 25, 1
   8              		.eabi_attribute 26, 1
   9              		.eabi_attribute 30, 6
  10              		.eabi_attribute 34, 0
  11              		.eabi_attribute 18, 4
  12              		.code	16
  13              		.file	"arm_sqrt_q15.c"
  14              		.text
  15              	.Ltext0:
  16              		.cfi_sections	.debug_frame
  17              		.global	__clzsi2
  18              		.global	__aeabi_i2f
  19              		.global	__aeabi_fmul
  20              		.global	__aeabi_f2iz
  21              		.section	.text.arm_sqrt_q15,"ax",%progbits
  22              		.align	2
  23              		.global	arm_sqrt_q15
  24              		.code	16
  25              		.thumb_func
  26              		.type	arm_sqrt_q15, %function
  27              	arm_sqrt_q15:
  28              	.LFB82:
  29              		.file 1 "Source\\FastMathFunctions\\arm_sqrt_q15.c"
   1:Source\FastMathFunctions/arm_sqrt_q15.c **** /* ----------------------------------------------------------------------
   2:Source\FastMathFunctions/arm_sqrt_q15.c ****  * Project:      CMSIS DSP Library
   3:Source\FastMathFunctions/arm_sqrt_q15.c ****  * Title:        arm_sqrt_q15.c
   4:Source\FastMathFunctions/arm_sqrt_q15.c ****  * Description:  Q15 square root function
   5:Source\FastMathFunctions/arm_sqrt_q15.c ****  *
   6:Source\FastMathFunctions/arm_sqrt_q15.c ****  * $Date:        27. January 2017
   7:Source\FastMathFunctions/arm_sqrt_q15.c ****  * $Revision:    V.1.5.1
   8:Source\FastMathFunctions/arm_sqrt_q15.c ****  *
   9:Source\FastMathFunctions/arm_sqrt_q15.c ****  * Target Processor: Cortex-M cores
  10:Source\FastMathFunctions/arm_sqrt_q15.c ****  * -------------------------------------------------------------------- */
  11:Source\FastMathFunctions/arm_sqrt_q15.c **** /*
  12:Source\FastMathFunctions/arm_sqrt_q15.c ****  * Copyright (C) 2010-2017 ARM Limited or its affiliates. All rights reserved.
  13:Source\FastMathFunctions/arm_sqrt_q15.c ****  *
  14:Source\FastMathFunctions/arm_sqrt_q15.c ****  * SPDX-License-Identifier: Apache-2.0
  15:Source\FastMathFunctions/arm_sqrt_q15.c ****  *
  16:Source\FastMathFunctions/arm_sqrt_q15.c ****  * Licensed under the Apache License, Version 2.0 (the License); you may
  17:Source\FastMathFunctions/arm_sqrt_q15.c ****  * not use this file except in compliance with the License.
  18:Source\FastMathFunctions/arm_sqrt_q15.c ****  * You may obtain a copy of the License at
  19:Source\FastMathFunctions/arm_sqrt_q15.c ****  *
  20:Source\FastMathFunctions/arm_sqrt_q15.c ****  * www.apache.org/licenses/LICENSE-2.0
  21:Source\FastMathFunctions/arm_sqrt_q15.c ****  *
  22:Source\FastMathFunctions/arm_sqrt_q15.c ****  * Unless required by applicable law or agreed to in writing, software
  23:Source\FastMathFunctions/arm_sqrt_q15.c ****  * distributed under the License is distributed on an AS IS BASIS, WITHOUT
  24:Source\FastMathFunctions/arm_sqrt_q15.c ****  * WARRANTIES OR CONDITIONS OF ANY KIND, either express or implied.
  25:Source\FastMathFunctions/arm_sqrt_q15.c ****  * See the License for the specific language governing permissions and
  26:Source\FastMathFunctions/arm_sqrt_q15.c ****  * limitations under the License.
  27:Source\FastMathFunctions/arm_sqrt_q15.c ****  */
  28:Source\FastMathFunctions/arm_sqrt_q15.c **** 
ARM GAS  C:\Users\fneves\AppData\Local\Temp\cc7FsGJ9.s 			page 2


  29:Source\FastMathFunctions/arm_sqrt_q15.c **** #include "arm_math.h"
  30:Source\FastMathFunctions/arm_sqrt_q15.c **** #include "arm_common_tables.h"
  31:Source\FastMathFunctions/arm_sqrt_q15.c **** 
  32:Source\FastMathFunctions/arm_sqrt_q15.c **** 
  33:Source\FastMathFunctions/arm_sqrt_q15.c **** /**
  34:Source\FastMathFunctions/arm_sqrt_q15.c ****  * @ingroup groupFastMath
  35:Source\FastMathFunctions/arm_sqrt_q15.c ****  */
  36:Source\FastMathFunctions/arm_sqrt_q15.c **** 
  37:Source\FastMathFunctions/arm_sqrt_q15.c **** /**
  38:Source\FastMathFunctions/arm_sqrt_q15.c ****  * @addtogroup SQRT
  39:Source\FastMathFunctions/arm_sqrt_q15.c ****  * @{
  40:Source\FastMathFunctions/arm_sqrt_q15.c ****  */
  41:Source\FastMathFunctions/arm_sqrt_q15.c **** 
  42:Source\FastMathFunctions/arm_sqrt_q15.c ****   /**
  43:Source\FastMathFunctions/arm_sqrt_q15.c ****    * @brief  Q15 square root function.
  44:Source\FastMathFunctions/arm_sqrt_q15.c ****    * @param[in]   in     input value.  The range of the input value is [0 +1) or 0x0000 to 0x7FFF.
  45:Source\FastMathFunctions/arm_sqrt_q15.c ****    * @param[out]  *pOut  square root of input value.
  46:Source\FastMathFunctions/arm_sqrt_q15.c ****    * @return The function returns ARM_MATH_SUCCESS if the input value is positive
  47:Source\FastMathFunctions/arm_sqrt_q15.c ****    * and ARM_MATH_ARGUMENT_ERROR if the input is negative.  For
  48:Source\FastMathFunctions/arm_sqrt_q15.c ****    * negative inputs, the function returns *pOut = 0.
  49:Source\FastMathFunctions/arm_sqrt_q15.c ****    */
  50:Source\FastMathFunctions/arm_sqrt_q15.c **** 
  51:Source\FastMathFunctions/arm_sqrt_q15.c **** arm_status arm_sqrt_q15(
  52:Source\FastMathFunctions/arm_sqrt_q15.c ****   q15_t in,
  53:Source\FastMathFunctions/arm_sqrt_q15.c ****   q15_t * pOut)
  54:Source\FastMathFunctions/arm_sqrt_q15.c **** {
  30              		.loc 1 54 0
  31              		.cfi_startproc
  32 0000 80B5     		push	{r7, lr}
  33              		.cfi_def_cfa_offset 8
  34              		.cfi_offset 7, -8
  35              		.cfi_offset 14, -4
  36 0002 88B0     		sub	sp, sp, #32
  37              		.cfi_def_cfa_offset 40
  38 0004 00AF     		add	r7, sp, #0
  39              		.cfi_def_cfa_register 7
  40 0006 021C     		mov	r2, r0
  41 0008 3960     		str	r1, [r7]
  42 000a BB1D     		add	r3, r7, #6
  43 000c 1A80     		strh	r2, [r3]
  55:Source\FastMathFunctions/arm_sqrt_q15.c ****   q15_t number, temp1, var1, signBits1, half;
  56:Source\FastMathFunctions/arm_sqrt_q15.c ****   q31_t bits_val1;
  57:Source\FastMathFunctions/arm_sqrt_q15.c ****   float32_t temp_float1;
  58:Source\FastMathFunctions/arm_sqrt_q15.c ****   union
  59:Source\FastMathFunctions/arm_sqrt_q15.c ****   {
  60:Source\FastMathFunctions/arm_sqrt_q15.c ****     q31_t fracval;
  61:Source\FastMathFunctions/arm_sqrt_q15.c ****     float32_t floatval;
  62:Source\FastMathFunctions/arm_sqrt_q15.c ****   } tempconv;
  63:Source\FastMathFunctions/arm_sqrt_q15.c **** 
  64:Source\FastMathFunctions/arm_sqrt_q15.c ****   number = in;
  44              		.loc 1 64 0
  45 000e 1E23     		mov	r3, #30
  46 0010 FB18     		add	r3, r7, r3
  47 0012 BA1D     		add	r2, r7, #6
  48 0014 1288     		ldrh	r2, [r2]
  49 0016 1A80     		strh	r2, [r3]
  65:Source\FastMathFunctions/arm_sqrt_q15.c **** 
ARM GAS  C:\Users\fneves\AppData\Local\Temp\cc7FsGJ9.s 			page 3


  66:Source\FastMathFunctions/arm_sqrt_q15.c ****   /* If the input is a positive number then compute the signBits. */
  67:Source\FastMathFunctions/arm_sqrt_q15.c ****   if (number > 0)
  50              		.loc 1 67 0
  51 0018 1E23     		mov	r3, #30
  52 001a FB18     		add	r3, r7, r3
  53 001c 0022     		mov	r2, #0
  54 001e 9B5E     		ldrsh	r3, [r3, r2]
  55 0020 002B     		cmp	r3, #0
  56 0022 00DC     		bgt	.LCB25
  57 0024 12E1     		b	.L2	@long jump
  58              	.LCB25:
  68:Source\FastMathFunctions/arm_sqrt_q15.c ****   {
  69:Source\FastMathFunctions/arm_sqrt_q15.c ****     signBits1 = __CLZ(number) - 17;
  59              		.loc 1 69 0
  60 0026 1E23     		mov	r3, #30
  61 0028 FB18     		add	r3, r7, r3
  62 002a 0022     		mov	r2, #0
  63 002c 9B5E     		ldrsh	r3, [r3, r2]
  64 002e 181C     		mov	r0, r3
  65 0030 FFF7FEFF 		bl	__clzsi2
  66 0034 031C     		mov	r3, r0
  67 0036 9BB2     		uxth	r3, r3
  68 0038 113B     		sub	r3, r3, #17
  69 003a 9AB2     		uxth	r2, r3
  70 003c 1A23     		mov	r3, #26
  71 003e FB18     		add	r3, r7, r3
  72 0040 1A80     		strh	r2, [r3]
  70:Source\FastMathFunctions/arm_sqrt_q15.c **** 
  71:Source\FastMathFunctions/arm_sqrt_q15.c ****     /* Shift by the number of signBits1 */
  72:Source\FastMathFunctions/arm_sqrt_q15.c ****     if ((signBits1 % 2) == 0)
  73              		.loc 1 72 0
  74 0042 1A23     		mov	r3, #26
  75 0044 FB18     		add	r3, r7, r3
  76 0046 1B88     		ldrh	r3, [r3]
  77 0048 0122     		mov	r2, #1
  78 004a 1340     		and	r3, r2
  79 004c 9BB2     		uxth	r3, r3
  80 004e 002B     		cmp	r3, #0
  81 0050 0CD1     		bne	.L3
  73:Source\FastMathFunctions/arm_sqrt_q15.c ****     {
  74:Source\FastMathFunctions/arm_sqrt_q15.c ****       number = number << signBits1;
  82              		.loc 1 74 0
  83 0052 1E23     		mov	r3, #30
  84 0054 FB18     		add	r3, r7, r3
  85 0056 0022     		mov	r2, #0
  86 0058 9A5E     		ldrsh	r2, [r3, r2]
  87 005a 1A23     		mov	r3, #26
  88 005c FB18     		add	r3, r7, r3
  89 005e 0021     		mov	r1, #0
  90 0060 5B5E     		ldrsh	r3, [r3, r1]
  91 0062 9A40     		lsl	r2, r2, r3
  92 0064 1E23     		mov	r3, #30
  93 0066 FB18     		add	r3, r7, r3
  94 0068 1A80     		strh	r2, [r3]
  95 006a 0CE0     		b	.L4
  96              	.L3:
  75:Source\FastMathFunctions/arm_sqrt_q15.c ****     }
ARM GAS  C:\Users\fneves\AppData\Local\Temp\cc7FsGJ9.s 			page 4


  76:Source\FastMathFunctions/arm_sqrt_q15.c ****     else
  77:Source\FastMathFunctions/arm_sqrt_q15.c ****     {
  78:Source\FastMathFunctions/arm_sqrt_q15.c ****       number = number << (signBits1 - 1);
  97              		.loc 1 78 0
  98 006c 1E23     		mov	r3, #30
  99 006e FB18     		add	r3, r7, r3
 100 0070 0022     		mov	r2, #0
 101 0072 9A5E     		ldrsh	r2, [r3, r2]
 102 0074 1A23     		mov	r3, #26
 103 0076 FB18     		add	r3, r7, r3
 104 0078 0021     		mov	r1, #0
 105 007a 5B5E     		ldrsh	r3, [r3, r1]
 106 007c 013B     		sub	r3, r3, #1
 107 007e 9A40     		lsl	r2, r2, r3
 108 0080 1E23     		mov	r3, #30
 109 0082 FB18     		add	r3, r7, r3
 110 0084 1A80     		strh	r2, [r3]
 111              	.L4:
  79:Source\FastMathFunctions/arm_sqrt_q15.c ****     }
  80:Source\FastMathFunctions/arm_sqrt_q15.c **** 
  81:Source\FastMathFunctions/arm_sqrt_q15.c ****     /* Calculate half value of the number */
  82:Source\FastMathFunctions/arm_sqrt_q15.c ****     half = number >> 1;
 112              		.loc 1 82 0
 113 0086 1823     		mov	r3, #24
 114 0088 FB18     		add	r3, r7, r3
 115 008a 1E22     		mov	r2, #30
 116 008c BA18     		add	r2, r7, r2
 117 008e 0021     		mov	r1, #0
 118 0090 525E     		ldrsh	r2, [r2, r1]
 119 0092 5210     		asr	r2, r2, #1
 120 0094 1A80     		strh	r2, [r3]
  83:Source\FastMathFunctions/arm_sqrt_q15.c ****     /* Store the number for later use */
  84:Source\FastMathFunctions/arm_sqrt_q15.c ****     temp1 = number;
 121              		.loc 1 84 0
 122 0096 1623     		mov	r3, #22
 123 0098 FB18     		add	r3, r7, r3
 124 009a 1E22     		mov	r2, #30
 125 009c BA18     		add	r2, r7, r2
 126 009e 1288     		ldrh	r2, [r2]
 127 00a0 1A80     		strh	r2, [r3]
  85:Source\FastMathFunctions/arm_sqrt_q15.c **** 
  86:Source\FastMathFunctions/arm_sqrt_q15.c ****     /* Convert to float */
  87:Source\FastMathFunctions/arm_sqrt_q15.c ****     temp_float1 = number * 3.051757812500000e-005f;
 128              		.loc 1 87 0
 129 00a2 1E23     		mov	r3, #30
 130 00a4 FB18     		add	r3, r7, r3
 131 00a6 0022     		mov	r2, #0
 132 00a8 9B5E     		ldrsh	r3, [r3, r2]
 133 00aa 181C     		mov	r0, r3
 134 00ac FFF7FEFF 		bl	__aeabi_i2f
 135 00b0 031C     		add	r3, r0, #0
 136 00b2 181C     		add	r0, r3, #0
 137 00b4 E021     		mov	r1, #224
 138 00b6 8905     		lsl	r1, r1, #22
 139 00b8 FFF7FEFF 		bl	__aeabi_fmul
 140 00bc 031C     		add	r3, r0, #0
 141 00be 3B61     		str	r3, [r7, #16]
ARM GAS  C:\Users\fneves\AppData\Local\Temp\cc7FsGJ9.s 			page 5


  88:Source\FastMathFunctions/arm_sqrt_q15.c ****     /*Store as integer */
  89:Source\FastMathFunctions/arm_sqrt_q15.c ****     tempconv.floatval = temp_float1;
 142              		.loc 1 89 0
 143 00c0 3B69     		ldr	r3, [r7, #16]
 144 00c2 BB60     		str	r3, [r7, #8]
  90:Source\FastMathFunctions/arm_sqrt_q15.c ****     bits_val1 = tempconv.fracval;
 145              		.loc 1 90 0
 146 00c4 BB68     		ldr	r3, [r7, #8]
 147 00c6 FB60     		str	r3, [r7, #12]
  91:Source\FastMathFunctions/arm_sqrt_q15.c ****     /* Subtract the shifted value from the magic number to give intial guess */
  92:Source\FastMathFunctions/arm_sqrt_q15.c ****     bits_val1 = 0x5f3759df - (bits_val1 >> 1);  /* gives initial guess */
 148              		.loc 1 92 0
 149 00c8 FB68     		ldr	r3, [r7, #12]
 150 00ca 5B10     		asr	r3, r3, #1
 151 00cc 644A     		ldr	r2, .L11
 152 00ce D31A     		sub	r3, r2, r3
 153 00d0 FB60     		str	r3, [r7, #12]
  93:Source\FastMathFunctions/arm_sqrt_q15.c ****     /* Store as float */
  94:Source\FastMathFunctions/arm_sqrt_q15.c ****     tempconv.fracval = bits_val1;
 154              		.loc 1 94 0
 155 00d2 FB68     		ldr	r3, [r7, #12]
 156 00d4 BB60     		str	r3, [r7, #8]
  95:Source\FastMathFunctions/arm_sqrt_q15.c ****     temp_float1 = tempconv.floatval;
 157              		.loc 1 95 0
 158 00d6 BB68     		ldr	r3, [r7, #8]
 159 00d8 3B61     		str	r3, [r7, #16]
  96:Source\FastMathFunctions/arm_sqrt_q15.c ****     /* Convert to integer format */
  97:Source\FastMathFunctions/arm_sqrt_q15.c ****     var1 = (q31_t) (temp_float1 * 16384);
 160              		.loc 1 97 0
 161 00da 3869     		ldr	r0, [r7, #16]
 162 00dc 8D21     		mov	r1, #141
 163 00de C905     		lsl	r1, r1, #23
 164 00e0 FFF7FEFF 		bl	__aeabi_fmul
 165 00e4 031C     		add	r3, r0, #0
 166 00e6 181C     		add	r0, r3, #0
 167 00e8 FFF7FEFF 		bl	__aeabi_f2iz
 168 00ec 021C     		mov	r2, r0
 169 00ee 1C23     		mov	r3, #28
 170 00f0 FB18     		add	r3, r7, r3
 171 00f2 1A80     		strh	r2, [r3]
  98:Source\FastMathFunctions/arm_sqrt_q15.c **** 
  99:Source\FastMathFunctions/arm_sqrt_q15.c ****     /* 1st iteration */
 100:Source\FastMathFunctions/arm_sqrt_q15.c ****     var1 = ((q15_t) ((q31_t) var1 * (0x3000 -
 172              		.loc 1 100 0
 173 00f4 1C23     		mov	r3, #28
 174 00f6 FB18     		add	r3, r7, r3
 175 00f8 0022     		mov	r2, #0
 176 00fa 9B5E     		ldrsh	r3, [r3, r2]
 101:Source\FastMathFunctions/arm_sqrt_q15.c ****                                      ((q15_t)
 102:Source\FastMathFunctions/arm_sqrt_q15.c ****                                       ((((q15_t)
 103:Source\FastMathFunctions/arm_sqrt_q15.c ****                                          (((q31_t) var1 * var1) >> 15)) *
 177              		.loc 1 103 0
 178 00fc 1C22     		mov	r2, #28
 179 00fe BA18     		add	r2, r7, r2
 180 0100 0021     		mov	r1, #0
 181 0102 525E     		ldrsh	r2, [r2, r1]
 182 0104 1C21     		mov	r1, #28
ARM GAS  C:\Users\fneves\AppData\Local\Temp\cc7FsGJ9.s 			page 6


 183 0106 7918     		add	r1, r7, r1
 184 0108 0020     		mov	r0, #0
 185 010a 095E     		ldrsh	r1, [r1, r0]
 186 010c 4A43     		mul	r2, r1
 187 010e D213     		asr	r2, r2, #15
 102:Source\FastMathFunctions/arm_sqrt_q15.c ****                                          (((q31_t) var1 * var1) >> 15)) *
 188              		.loc 1 102 0
 189 0110 92B2     		uxth	r2, r2
 190              		.loc 1 103 0
 191 0112 12B2     		sxth	r2, r2
 104:Source\FastMathFunctions/arm_sqrt_q15.c ****                                         (q31_t) half) >> 15))) >> 15)) << 2;
 192              		.loc 1 104 0
 193 0114 1821     		mov	r1, #24
 194 0116 7918     		add	r1, r7, r1
 195 0118 0020     		mov	r0, #0
 196 011a 095E     		ldrsh	r1, [r1, r0]
 103:Source\FastMathFunctions/arm_sqrt_q15.c ****                                         (q31_t) half) >> 15))) >> 15)) << 2;
 197              		.loc 1 103 0
 198 011c 4A43     		mul	r2, r1
 199              		.loc 1 104 0
 200 011e D213     		asr	r2, r2, #15
 101:Source\FastMathFunctions/arm_sqrt_q15.c ****                                       ((((q15_t)
 201              		.loc 1 101 0
 202 0120 92B2     		uxth	r2, r2
 100:Source\FastMathFunctions/arm_sqrt_q15.c ****                                      ((q15_t)
 203              		.loc 1 100 0
 204 0122 12B2     		sxth	r2, r2
 205 0124 C021     		mov	r1, #192
 206 0126 8901     		lsl	r1, r1, #6
 207 0128 8A1A     		sub	r2, r1, r2
 208 012a 5343     		mul	r3, r2
 209              		.loc 1 104 0
 210 012c DB13     		asr	r3, r3, #15
 100:Source\FastMathFunctions/arm_sqrt_q15.c ****                                      ((q15_t)
 211              		.loc 1 100 0
 212 012e 9BB2     		uxth	r3, r3
 213              		.loc 1 104 0
 214 0130 1BB2     		sxth	r3, r3
 215 0132 9A00     		lsl	r2, r3, #2
 100:Source\FastMathFunctions/arm_sqrt_q15.c ****                                      ((q15_t)
 216              		.loc 1 100 0
 217 0134 1C23     		mov	r3, #28
 218 0136 FB18     		add	r3, r7, r3
 219 0138 1A80     		strh	r2, [r3]
 105:Source\FastMathFunctions/arm_sqrt_q15.c ****     /* 2nd iteration */
 106:Source\FastMathFunctions/arm_sqrt_q15.c ****     var1 = ((q15_t) ((q31_t) var1 * (0x3000 -
 220              		.loc 1 106 0
 221 013a 1C23     		mov	r3, #28
 222 013c FB18     		add	r3, r7, r3
 223 013e 0022     		mov	r2, #0
 224 0140 9B5E     		ldrsh	r3, [r3, r2]
 107:Source\FastMathFunctions/arm_sqrt_q15.c ****                                      ((q15_t)
 108:Source\FastMathFunctions/arm_sqrt_q15.c ****                                       ((((q15_t)
 109:Source\FastMathFunctions/arm_sqrt_q15.c ****                                          (((q31_t) var1 * var1) >> 15)) *
 225              		.loc 1 109 0
 226 0142 1C22     		mov	r2, #28
 227 0144 BA18     		add	r2, r7, r2
ARM GAS  C:\Users\fneves\AppData\Local\Temp\cc7FsGJ9.s 			page 7


 228 0146 0021     		mov	r1, #0
 229 0148 525E     		ldrsh	r2, [r2, r1]
 230 014a 1C21     		mov	r1, #28
 231 014c 7918     		add	r1, r7, r1
 232 014e 0020     		mov	r0, #0
 233 0150 095E     		ldrsh	r1, [r1, r0]
 234 0152 4A43     		mul	r2, r1
 235 0154 D213     		asr	r2, r2, #15
 108:Source\FastMathFunctions/arm_sqrt_q15.c ****                                          (((q31_t) var1 * var1) >> 15)) *
 236              		.loc 1 108 0
 237 0156 92B2     		uxth	r2, r2
 238              		.loc 1 109 0
 239 0158 12B2     		sxth	r2, r2
 110:Source\FastMathFunctions/arm_sqrt_q15.c ****                                         (q31_t) half) >> 15))) >> 15)) << 2;
 240              		.loc 1 110 0
 241 015a 1821     		mov	r1, #24
 242 015c 7918     		add	r1, r7, r1
 243 015e 0020     		mov	r0, #0
 244 0160 095E     		ldrsh	r1, [r1, r0]
 109:Source\FastMathFunctions/arm_sqrt_q15.c ****                                         (q31_t) half) >> 15))) >> 15)) << 2;
 245              		.loc 1 109 0
 246 0162 4A43     		mul	r2, r1
 247              		.loc 1 110 0
 248 0164 D213     		asr	r2, r2, #15
 107:Source\FastMathFunctions/arm_sqrt_q15.c ****                                       ((((q15_t)
 249              		.loc 1 107 0
 250 0166 92B2     		uxth	r2, r2
 106:Source\FastMathFunctions/arm_sqrt_q15.c ****                                      ((q15_t)
 251              		.loc 1 106 0
 252 0168 12B2     		sxth	r2, r2
 253 016a C021     		mov	r1, #192
 254 016c 8901     		lsl	r1, r1, #6
 255 016e 8A1A     		sub	r2, r1, r2
 256 0170 5343     		mul	r3, r2
 257              		.loc 1 110 0
 258 0172 DB13     		asr	r3, r3, #15
 106:Source\FastMathFunctions/arm_sqrt_q15.c ****                                      ((q15_t)
 259              		.loc 1 106 0
 260 0174 9BB2     		uxth	r3, r3
 261              		.loc 1 110 0
 262 0176 1BB2     		sxth	r3, r3
 263 0178 9A00     		lsl	r2, r3, #2
 106:Source\FastMathFunctions/arm_sqrt_q15.c ****                                      ((q15_t)
 264              		.loc 1 106 0
 265 017a 1C23     		mov	r3, #28
 266 017c FB18     		add	r3, r7, r3
 267 017e 1A80     		strh	r2, [r3]
 111:Source\FastMathFunctions/arm_sqrt_q15.c ****     /* 3rd iteration */
 112:Source\FastMathFunctions/arm_sqrt_q15.c ****     var1 = ((q15_t) ((q31_t) var1 * (0x3000 -
 268              		.loc 1 112 0
 269 0180 1C23     		mov	r3, #28
 270 0182 FB18     		add	r3, r7, r3
 271 0184 0022     		mov	r2, #0
 272 0186 9B5E     		ldrsh	r3, [r3, r2]
 113:Source\FastMathFunctions/arm_sqrt_q15.c ****                                      ((q15_t)
 114:Source\FastMathFunctions/arm_sqrt_q15.c ****                                       ((((q15_t)
 115:Source\FastMathFunctions/arm_sqrt_q15.c ****                                          (((q31_t) var1 * var1) >> 15)) *
ARM GAS  C:\Users\fneves\AppData\Local\Temp\cc7FsGJ9.s 			page 8


 273              		.loc 1 115 0
 274 0188 1C22     		mov	r2, #28
 275 018a BA18     		add	r2, r7, r2
 276 018c 0021     		mov	r1, #0
 277 018e 525E     		ldrsh	r2, [r2, r1]
 278 0190 1C21     		mov	r1, #28
 279 0192 7918     		add	r1, r7, r1
 280 0194 0020     		mov	r0, #0
 281 0196 095E     		ldrsh	r1, [r1, r0]
 282 0198 4A43     		mul	r2, r1
 283 019a D213     		asr	r2, r2, #15
 114:Source\FastMathFunctions/arm_sqrt_q15.c ****                                          (((q31_t) var1 * var1) >> 15)) *
 284              		.loc 1 114 0
 285 019c 92B2     		uxth	r2, r2
 286              		.loc 1 115 0
 287 019e 12B2     		sxth	r2, r2
 116:Source\FastMathFunctions/arm_sqrt_q15.c ****                                         (q31_t) half) >> 15))) >> 15)) << 2;
 288              		.loc 1 116 0
 289 01a0 1821     		mov	r1, #24
 290 01a2 7918     		add	r1, r7, r1
 291 01a4 0020     		mov	r0, #0
 292 01a6 095E     		ldrsh	r1, [r1, r0]
 115:Source\FastMathFunctions/arm_sqrt_q15.c ****                                         (q31_t) half) >> 15))) >> 15)) << 2;
 293              		.loc 1 115 0
 294 01a8 4A43     		mul	r2, r1
 295              		.loc 1 116 0
 296 01aa D213     		asr	r2, r2, #15
 113:Source\FastMathFunctions/arm_sqrt_q15.c ****                                       ((((q15_t)
 297              		.loc 1 113 0
 298 01ac 92B2     		uxth	r2, r2
 112:Source\FastMathFunctions/arm_sqrt_q15.c ****                                      ((q15_t)
 299              		.loc 1 112 0
 300 01ae 12B2     		sxth	r2, r2
 301 01b0 C021     		mov	r1, #192
 302 01b2 8901     		lsl	r1, r1, #6
 303 01b4 8A1A     		sub	r2, r1, r2
 304 01b6 5343     		mul	r3, r2
 305              		.loc 1 116 0
 306 01b8 DB13     		asr	r3, r3, #15
 112:Source\FastMathFunctions/arm_sqrt_q15.c ****                                      ((q15_t)
 307              		.loc 1 112 0
 308 01ba 9BB2     		uxth	r3, r3
 309              		.loc 1 116 0
 310 01bc 1BB2     		sxth	r3, r3
 311 01be 9A00     		lsl	r2, r3, #2
 112:Source\FastMathFunctions/arm_sqrt_q15.c ****                                      ((q15_t)
 312              		.loc 1 112 0
 313 01c0 1C23     		mov	r3, #28
 314 01c2 FB18     		add	r3, r7, r3
 315 01c4 1A80     		strh	r2, [r3]
 117:Source\FastMathFunctions/arm_sqrt_q15.c **** 
 118:Source\FastMathFunctions/arm_sqrt_q15.c ****     /* Multiply the inverse square root with the original value */
 119:Source\FastMathFunctions/arm_sqrt_q15.c ****     var1 = ((q15_t) (((q31_t) temp1 * var1) >> 15)) << 1;
 316              		.loc 1 119 0
 317 01c6 1623     		mov	r3, #22
 318 01c8 FB18     		add	r3, r7, r3
 319 01ca 0022     		mov	r2, #0
ARM GAS  C:\Users\fneves\AppData\Local\Temp\cc7FsGJ9.s 			page 9


 320 01cc 9B5E     		ldrsh	r3, [r3, r2]
 321 01ce 1C22     		mov	r2, #28
 322 01d0 BA18     		add	r2, r7, r2
 323 01d2 0021     		mov	r1, #0
 324 01d4 525E     		ldrsh	r2, [r2, r1]
 325 01d6 5343     		mul	r3, r2
 326 01d8 DB13     		asr	r3, r3, #15
 327 01da 9BB2     		uxth	r3, r3
 328 01dc 1BB2     		sxth	r3, r3
 329 01de 5A00     		lsl	r2, r3, #1
 330 01e0 1C23     		mov	r3, #28
 331 01e2 FB18     		add	r3, r7, r3
 332 01e4 1A80     		strh	r2, [r3]
 120:Source\FastMathFunctions/arm_sqrt_q15.c **** 
 121:Source\FastMathFunctions/arm_sqrt_q15.c ****     /* Shift the output down accordingly */
 122:Source\FastMathFunctions/arm_sqrt_q15.c ****     if ((signBits1 % 2) == 0)
 333              		.loc 1 122 0
 334 01e6 1A23     		mov	r3, #26
 335 01e8 FB18     		add	r3, r7, r3
 336 01ea 1B88     		ldrh	r3, [r3]
 337 01ec 0122     		mov	r2, #1
 338 01ee 1340     		and	r3, r2
 339 01f0 9BB2     		uxth	r3, r3
 340 01f2 002B     		cmp	r3, #0
 341 01f4 12D1     		bne	.L5
 123:Source\FastMathFunctions/arm_sqrt_q15.c ****     {
 124:Source\FastMathFunctions/arm_sqrt_q15.c ****       var1 = var1 >> (signBits1 / 2);
 342              		.loc 1 124 0
 343 01f6 1C23     		mov	r3, #28
 344 01f8 FB18     		add	r3, r7, r3
 345 01fa 0022     		mov	r2, #0
 346 01fc 9A5E     		ldrsh	r2, [r3, r2]
 347 01fe 1A23     		mov	r3, #26
 348 0200 FB18     		add	r3, r7, r3
 349 0202 0021     		mov	r1, #0
 350 0204 5B5E     		ldrsh	r3, [r3, r1]
 351 0206 002B     		cmp	r3, #0
 352 0208 00DA     		bge	.L6
 353 020a 0133     		add	r3, r3, #1
 354              	.L6:
 355 020c 5B10     		asr	r3, r3, #1
 356 020e 9BB2     		uxth	r3, r3
 357 0210 1BB2     		sxth	r3, r3
 358 0212 1A41     		asr	r2, r2, r3
 359 0214 1C23     		mov	r3, #28
 360 0216 FB18     		add	r3, r7, r3
 361 0218 1A80     		strh	r2, [r3]
 362 021a 10E0     		b	.L7
 363              	.L5:
 125:Source\FastMathFunctions/arm_sqrt_q15.c ****     }
 126:Source\FastMathFunctions/arm_sqrt_q15.c ****     else
 127:Source\FastMathFunctions/arm_sqrt_q15.c ****     {
 128:Source\FastMathFunctions/arm_sqrt_q15.c ****       var1 = var1 >> ((signBits1 - 1) / 2);
 364              		.loc 1 128 0
 365 021c 1C23     		mov	r3, #28
 366 021e FB18     		add	r3, r7, r3
 367 0220 0022     		mov	r2, #0
ARM GAS  C:\Users\fneves\AppData\Local\Temp\cc7FsGJ9.s 			page 10


 368 0222 9A5E     		ldrsh	r2, [r3, r2]
 369 0224 1A23     		mov	r3, #26
 370 0226 FB18     		add	r3, r7, r3
 371 0228 0021     		mov	r1, #0
 372 022a 5B5E     		ldrsh	r3, [r3, r1]
 373 022c 013B     		sub	r3, r3, #1
 374 022e 002B     		cmp	r3, #0
 375 0230 00DA     		bge	.L8
 376 0232 0133     		add	r3, r3, #1
 377              	.L8:
 378 0234 5B10     		asr	r3, r3, #1
 379 0236 1A41     		asr	r2, r2, r3
 380 0238 1C23     		mov	r3, #28
 381 023a FB18     		add	r3, r7, r3
 382 023c 1A80     		strh	r2, [r3]
 383              	.L7:
 129:Source\FastMathFunctions/arm_sqrt_q15.c ****     }
 130:Source\FastMathFunctions/arm_sqrt_q15.c ****     *pOut = var1;
 384              		.loc 1 130 0
 385 023e 3B68     		ldr	r3, [r7]
 386 0240 1C22     		mov	r2, #28
 387 0242 BA18     		add	r2, r7, r2
 388 0244 1288     		ldrh	r2, [r2]
 389 0246 1A80     		strh	r2, [r3]
 131:Source\FastMathFunctions/arm_sqrt_q15.c **** 
 132:Source\FastMathFunctions/arm_sqrt_q15.c ****     return (ARM_MATH_SUCCESS);
 390              		.loc 1 132 0
 391 0248 0023     		mov	r3, #0
 392 024a 03E0     		b	.L10
 393              	.L2:
 133:Source\FastMathFunctions/arm_sqrt_q15.c ****   }
 134:Source\FastMathFunctions/arm_sqrt_q15.c ****   /* If the number is a negative number then store zero as its square root value */
 135:Source\FastMathFunctions/arm_sqrt_q15.c ****   else
 136:Source\FastMathFunctions/arm_sqrt_q15.c ****   {
 137:Source\FastMathFunctions/arm_sqrt_q15.c ****     *pOut = 0;
 394              		.loc 1 137 0
 395 024c 3B68     		ldr	r3, [r7]
 396 024e 0022     		mov	r2, #0
 397 0250 1A80     		strh	r2, [r3]
 138:Source\FastMathFunctions/arm_sqrt_q15.c ****     return (ARM_MATH_ARGUMENT_ERROR);
 398              		.loc 1 138 0
 399 0252 FF23     		mov	r3, #255
 400              	.L10:
 401 0254 5BB2     		sxtb	r3, r3
 139:Source\FastMathFunctions/arm_sqrt_q15.c ****   }
 140:Source\FastMathFunctions/arm_sqrt_q15.c **** }
 402              		.loc 1 140 0 discriminator 1
 403 0256 181C     		mov	r0, r3
 404 0258 BD46     		mov	sp, r7
 405 025a 08B0     		add	sp, sp, #32
 406              		@ sp needed
 407 025c 80BD     		pop	{r7, pc}
 408              	.L12:
 409 025e C046     		.align	2
 410              	.L11:
 411 0260 DF59375F 		.word	1597463007
 412              		.cfi_endproc
ARM GAS  C:\Users\fneves\AppData\Local\Temp\cc7FsGJ9.s 			page 11


 413              	.LFE82:
 414              		.size	arm_sqrt_q15, .-arm_sqrt_q15
 415              		.text
 416              	.Letext0:
 417              		.file 2 "c:\\program files (x86)\\cypress\\psoc creator\\4.0\\psoc creator\\import\\gnu\\arm\\4.9.
 418              		.file 3 "c:\\program files (x86)\\cypress\\psoc creator\\4.0\\psoc creator\\import\\gnu\\arm\\4.9.
 419              		.file 4 ".\\Include/arm_math.h"