ARM GAS  C:\Users\fneves\AppData\Local\Temp\cccevkEm.s 			page 1


   1              		.cpu cortex-m0plus
   2              		.fpu softvfp
   3              		.eabi_attribute 20, 1
   4              		.eabi_attribute 21, 1
   5              		.eabi_attribute 23, 3
   6              		.eabi_attribute 24, 1
   7              		.eabi_attribute 25, 1
   8              		.eabi_attribute 26, 1
   9              		.eabi_attribute 30, 6
  10              		.eabi_attribute 34, 0
  11              		.eabi_attribute 18, 4
  12              		.code	16
  13              		.file	"arm_cmplx_conj_f32.c"
  14              		.text
  15              	.Ltext0:
  16              		.cfi_sections	.debug_frame
  17              		.section	.text.arm_cmplx_conj_f32,"ax",%progbits
  18              		.align	2
  19              		.global	arm_cmplx_conj_f32
  20              		.code	16
  21              		.thumb_func
  22              		.type	arm_cmplx_conj_f32, %function
  23              	arm_cmplx_conj_f32:
  24              	.LFB82:
  25              		.file 1 "Source\\ComplexMathFunctions\\arm_cmplx_conj_f32.c"
   1:Source\ComplexMathFunctions/arm_cmplx_conj_f32.c **** /* ----------------------------------------------------------------------
   2:Source\ComplexMathFunctions/arm_cmplx_conj_f32.c ****  * Project:      CMSIS DSP Library
   3:Source\ComplexMathFunctions/arm_cmplx_conj_f32.c ****  * Title:        arm_cmplx_conj_f32.c
   4:Source\ComplexMathFunctions/arm_cmplx_conj_f32.c ****  * Description:  Floating-point complex conjugate
   5:Source\ComplexMathFunctions/arm_cmplx_conj_f32.c ****  *
   6:Source\ComplexMathFunctions/arm_cmplx_conj_f32.c ****  * $Date:        27. January 2017
   7:Source\ComplexMathFunctions/arm_cmplx_conj_f32.c ****  * $Revision:    V.1.5.1
   8:Source\ComplexMathFunctions/arm_cmplx_conj_f32.c ****  *
   9:Source\ComplexMathFunctions/arm_cmplx_conj_f32.c ****  * Target Processor: Cortex-M cores
  10:Source\ComplexMathFunctions/arm_cmplx_conj_f32.c ****  * -------------------------------------------------------------------- */
  11:Source\ComplexMathFunctions/arm_cmplx_conj_f32.c **** /*
  12:Source\ComplexMathFunctions/arm_cmplx_conj_f32.c ****  * Copyright (C) 2010-2017 ARM Limited or its affiliates. All rights reserved.
  13:Source\ComplexMathFunctions/arm_cmplx_conj_f32.c ****  *
  14:Source\ComplexMathFunctions/arm_cmplx_conj_f32.c ****  * SPDX-License-Identifier: Apache-2.0
  15:Source\ComplexMathFunctions/arm_cmplx_conj_f32.c ****  *
  16:Source\ComplexMathFunctions/arm_cmplx_conj_f32.c ****  * Licensed under the Apache License, Version 2.0 (the License); you may
  17:Source\ComplexMathFunctions/arm_cmplx_conj_f32.c ****  * not use this file except in compliance with the License.
  18:Source\ComplexMathFunctions/arm_cmplx_conj_f32.c ****  * You may obtain a copy of the License at
  19:Source\ComplexMathFunctions/arm_cmplx_conj_f32.c ****  *
  20:Source\ComplexMathFunctions/arm_cmplx_conj_f32.c ****  * www.apache.org/licenses/LICENSE-2.0
  21:Source\ComplexMathFunctions/arm_cmplx_conj_f32.c ****  *
  22:Source\ComplexMathFunctions/arm_cmplx_conj_f32.c ****  * Unless required by applicable law or agreed to in writing, software
  23:Source\ComplexMathFunctions/arm_cmplx_conj_f32.c ****  * distributed under the License is distributed on an AS IS BASIS, WITHOUT
  24:Source\ComplexMathFunctions/arm_cmplx_conj_f32.c ****  * WARRANTIES OR CONDITIONS OF ANY KIND, either express or implied.
  25:Source\ComplexMathFunctions/arm_cmplx_conj_f32.c ****  * See the License for the specific language governing permissions and
  26:Source\ComplexMathFunctions/arm_cmplx_conj_f32.c ****  * limitations under the License.
  27:Source\ComplexMathFunctions/arm_cmplx_conj_f32.c ****  */
  28:Source\ComplexMathFunctions/arm_cmplx_conj_f32.c **** 
  29:Source\ComplexMathFunctions/arm_cmplx_conj_f32.c **** #include "arm_math.h"
  30:Source\ComplexMathFunctions/arm_cmplx_conj_f32.c **** 
  31:Source\ComplexMathFunctions/arm_cmplx_conj_f32.c **** /**
  32:Source\ComplexMathFunctions/arm_cmplx_conj_f32.c ****  * @ingroup groupCmplxMath
ARM GAS  C:\Users\fneves\AppData\Local\Temp\cccevkEm.s 			page 2


  33:Source\ComplexMathFunctions/arm_cmplx_conj_f32.c ****  */
  34:Source\ComplexMathFunctions/arm_cmplx_conj_f32.c **** 
  35:Source\ComplexMathFunctions/arm_cmplx_conj_f32.c **** /**
  36:Source\ComplexMathFunctions/arm_cmplx_conj_f32.c ****  * @defgroup cmplx_conj Complex Conjugate
  37:Source\ComplexMathFunctions/arm_cmplx_conj_f32.c ****  *
  38:Source\ComplexMathFunctions/arm_cmplx_conj_f32.c ****  * Conjugates the elements of a complex data vector.
  39:Source\ComplexMathFunctions/arm_cmplx_conj_f32.c ****  *
  40:Source\ComplexMathFunctions/arm_cmplx_conj_f32.c ****  * The <code>pSrc</code> points to the source data and
  41:Source\ComplexMathFunctions/arm_cmplx_conj_f32.c ****  * <code>pDst</code> points to the where the result should be written.
  42:Source\ComplexMathFunctions/arm_cmplx_conj_f32.c ****  * <code>numSamples</code> specifies the number of complex samples
  43:Source\ComplexMathFunctions/arm_cmplx_conj_f32.c ****  * and the data in each array is stored in an interleaved fashion
  44:Source\ComplexMathFunctions/arm_cmplx_conj_f32.c ****  * (real, imag, real, imag, ...).
  45:Source\ComplexMathFunctions/arm_cmplx_conj_f32.c ****  * Each array has a total of <code>2*numSamples</code> values.
  46:Source\ComplexMathFunctions/arm_cmplx_conj_f32.c ****  * The underlying algorithm is used:
  47:Source\ComplexMathFunctions/arm_cmplx_conj_f32.c ****  *
  48:Source\ComplexMathFunctions/arm_cmplx_conj_f32.c ****  * <pre>
  49:Source\ComplexMathFunctions/arm_cmplx_conj_f32.c ****  * for(n=0; n<numSamples; n++) {
  50:Source\ComplexMathFunctions/arm_cmplx_conj_f32.c ****  *     pDst[(2*n)+0)] = pSrc[(2*n)+0];     // real part
  51:Source\ComplexMathFunctions/arm_cmplx_conj_f32.c ****  *     pDst[(2*n)+1)] = -pSrc[(2*n)+1];    // imag part
  52:Source\ComplexMathFunctions/arm_cmplx_conj_f32.c ****  * }
  53:Source\ComplexMathFunctions/arm_cmplx_conj_f32.c ****  * </pre>
  54:Source\ComplexMathFunctions/arm_cmplx_conj_f32.c ****  *
  55:Source\ComplexMathFunctions/arm_cmplx_conj_f32.c ****  * There are separate functions for floating-point, Q15, and Q31 data types.
  56:Source\ComplexMathFunctions/arm_cmplx_conj_f32.c ****  */
  57:Source\ComplexMathFunctions/arm_cmplx_conj_f32.c **** 
  58:Source\ComplexMathFunctions/arm_cmplx_conj_f32.c **** /**
  59:Source\ComplexMathFunctions/arm_cmplx_conj_f32.c ****  * @addtogroup cmplx_conj
  60:Source\ComplexMathFunctions/arm_cmplx_conj_f32.c ****  * @{
  61:Source\ComplexMathFunctions/arm_cmplx_conj_f32.c ****  */
  62:Source\ComplexMathFunctions/arm_cmplx_conj_f32.c **** 
  63:Source\ComplexMathFunctions/arm_cmplx_conj_f32.c **** /**
  64:Source\ComplexMathFunctions/arm_cmplx_conj_f32.c ****  * @brief  Floating-point complex conjugate.
  65:Source\ComplexMathFunctions/arm_cmplx_conj_f32.c ****  * @param  *pSrc points to the input vector
  66:Source\ComplexMathFunctions/arm_cmplx_conj_f32.c ****  * @param  *pDst points to the output vector
  67:Source\ComplexMathFunctions/arm_cmplx_conj_f32.c ****  * @param  numSamples number of complex samples in each vector
  68:Source\ComplexMathFunctions/arm_cmplx_conj_f32.c ****  * @return none.
  69:Source\ComplexMathFunctions/arm_cmplx_conj_f32.c ****  */
  70:Source\ComplexMathFunctions/arm_cmplx_conj_f32.c **** 
  71:Source\ComplexMathFunctions/arm_cmplx_conj_f32.c **** void arm_cmplx_conj_f32(
  72:Source\ComplexMathFunctions/arm_cmplx_conj_f32.c ****   float32_t * pSrc,
  73:Source\ComplexMathFunctions/arm_cmplx_conj_f32.c ****   float32_t * pDst,
  74:Source\ComplexMathFunctions/arm_cmplx_conj_f32.c ****   uint32_t numSamples)
  75:Source\ComplexMathFunctions/arm_cmplx_conj_f32.c **** {
  26              		.loc 1 75 0
  27              		.cfi_startproc
  28 0000 80B5     		push	{r7, lr}
  29              		.cfi_def_cfa_offset 8
  30              		.cfi_offset 7, -8
  31              		.cfi_offset 14, -4
  32 0002 86B0     		sub	sp, sp, #24
  33              		.cfi_def_cfa_offset 32
  34 0004 00AF     		add	r7, sp, #0
  35              		.cfi_def_cfa_register 7
  36 0006 F860     		str	r0, [r7, #12]
  37 0008 B960     		str	r1, [r7, #8]
  38 000a 7A60     		str	r2, [r7, #4]
  76:Source\ComplexMathFunctions/arm_cmplx_conj_f32.c ****   uint32_t blkCnt;                               /* loop counter */
ARM GAS  C:\Users\fneves\AppData\Local\Temp\cccevkEm.s 			page 3


  77:Source\ComplexMathFunctions/arm_cmplx_conj_f32.c **** 
  78:Source\ComplexMathFunctions/arm_cmplx_conj_f32.c **** #if defined (ARM_MATH_DSP)
  79:Source\ComplexMathFunctions/arm_cmplx_conj_f32.c **** 
  80:Source\ComplexMathFunctions/arm_cmplx_conj_f32.c ****   /* Run the below code for Cortex-M4 and Cortex-M3 */
  81:Source\ComplexMathFunctions/arm_cmplx_conj_f32.c ****   float32_t inR1, inR2, inR3, inR4;
  82:Source\ComplexMathFunctions/arm_cmplx_conj_f32.c ****   float32_t inI1, inI2, inI3, inI4;
  83:Source\ComplexMathFunctions/arm_cmplx_conj_f32.c **** 
  84:Source\ComplexMathFunctions/arm_cmplx_conj_f32.c ****   /*loop Unrolling */
  85:Source\ComplexMathFunctions/arm_cmplx_conj_f32.c ****   blkCnt = numSamples >> 2u;
  86:Source\ComplexMathFunctions/arm_cmplx_conj_f32.c **** 
  87:Source\ComplexMathFunctions/arm_cmplx_conj_f32.c ****   /* First part of the processing with loop unrolling.  Compute 4 outputs at a time.
  88:Source\ComplexMathFunctions/arm_cmplx_conj_f32.c ****    ** a second loop below computes the remaining 1 to 3 samples. */
  89:Source\ComplexMathFunctions/arm_cmplx_conj_f32.c ****   while (blkCnt > 0u)
  90:Source\ComplexMathFunctions/arm_cmplx_conj_f32.c ****   {
  91:Source\ComplexMathFunctions/arm_cmplx_conj_f32.c ****     /* C[0]+jC[1] = A[0]+ j (-1) A[1] */
  92:Source\ComplexMathFunctions/arm_cmplx_conj_f32.c ****     /* Calculate Complex Conjugate and then store the results in the destination buffer. */
  93:Source\ComplexMathFunctions/arm_cmplx_conj_f32.c ****     /* read real input samples */
  94:Source\ComplexMathFunctions/arm_cmplx_conj_f32.c ****     inR1 = pSrc[0];
  95:Source\ComplexMathFunctions/arm_cmplx_conj_f32.c ****     /* store real samples to destination */
  96:Source\ComplexMathFunctions/arm_cmplx_conj_f32.c ****     pDst[0] = inR1;
  97:Source\ComplexMathFunctions/arm_cmplx_conj_f32.c ****     inR2 = pSrc[2];
  98:Source\ComplexMathFunctions/arm_cmplx_conj_f32.c ****     pDst[2] = inR2;
  99:Source\ComplexMathFunctions/arm_cmplx_conj_f32.c ****     inR3 = pSrc[4];
 100:Source\ComplexMathFunctions/arm_cmplx_conj_f32.c ****     pDst[4] = inR3;
 101:Source\ComplexMathFunctions/arm_cmplx_conj_f32.c ****     inR4 = pSrc[6];
 102:Source\ComplexMathFunctions/arm_cmplx_conj_f32.c ****     pDst[6] = inR4;
 103:Source\ComplexMathFunctions/arm_cmplx_conj_f32.c **** 
 104:Source\ComplexMathFunctions/arm_cmplx_conj_f32.c ****     /* read imaginary input samples */
 105:Source\ComplexMathFunctions/arm_cmplx_conj_f32.c ****     inI1 = pSrc[1];
 106:Source\ComplexMathFunctions/arm_cmplx_conj_f32.c ****     inI2 = pSrc[3];
 107:Source\ComplexMathFunctions/arm_cmplx_conj_f32.c **** 
 108:Source\ComplexMathFunctions/arm_cmplx_conj_f32.c ****     /* conjugate input */
 109:Source\ComplexMathFunctions/arm_cmplx_conj_f32.c ****     inI1 = -inI1;
 110:Source\ComplexMathFunctions/arm_cmplx_conj_f32.c **** 
 111:Source\ComplexMathFunctions/arm_cmplx_conj_f32.c ****     /* read imaginary input samples */
 112:Source\ComplexMathFunctions/arm_cmplx_conj_f32.c ****     inI3 = pSrc[5];
 113:Source\ComplexMathFunctions/arm_cmplx_conj_f32.c **** 
 114:Source\ComplexMathFunctions/arm_cmplx_conj_f32.c ****     /* conjugate input */
 115:Source\ComplexMathFunctions/arm_cmplx_conj_f32.c ****     inI2 = -inI2;
 116:Source\ComplexMathFunctions/arm_cmplx_conj_f32.c **** 
 117:Source\ComplexMathFunctions/arm_cmplx_conj_f32.c ****     /* read imaginary input samples */
 118:Source\ComplexMathFunctions/arm_cmplx_conj_f32.c ****     inI4 = pSrc[7];
 119:Source\ComplexMathFunctions/arm_cmplx_conj_f32.c **** 
 120:Source\ComplexMathFunctions/arm_cmplx_conj_f32.c ****     /* conjugate input */
 121:Source\ComplexMathFunctions/arm_cmplx_conj_f32.c ****     inI3 = -inI3;
 122:Source\ComplexMathFunctions/arm_cmplx_conj_f32.c **** 
 123:Source\ComplexMathFunctions/arm_cmplx_conj_f32.c ****     /* store imaginary samples to destination */
 124:Source\ComplexMathFunctions/arm_cmplx_conj_f32.c ****     pDst[1] = inI1;
 125:Source\ComplexMathFunctions/arm_cmplx_conj_f32.c ****     pDst[3] = inI2;
 126:Source\ComplexMathFunctions/arm_cmplx_conj_f32.c **** 
 127:Source\ComplexMathFunctions/arm_cmplx_conj_f32.c ****     /* conjugate input */
 128:Source\ComplexMathFunctions/arm_cmplx_conj_f32.c ****     inI4 = -inI4;
 129:Source\ComplexMathFunctions/arm_cmplx_conj_f32.c **** 
 130:Source\ComplexMathFunctions/arm_cmplx_conj_f32.c ****     /* store imaginary samples to destination */
 131:Source\ComplexMathFunctions/arm_cmplx_conj_f32.c ****     pDst[5] = inI3;
 132:Source\ComplexMathFunctions/arm_cmplx_conj_f32.c **** 
 133:Source\ComplexMathFunctions/arm_cmplx_conj_f32.c ****     /* increment source pointer by 8 to process next sampels */
ARM GAS  C:\Users\fneves\AppData\Local\Temp\cccevkEm.s 			page 4


 134:Source\ComplexMathFunctions/arm_cmplx_conj_f32.c ****     pSrc += 8u;
 135:Source\ComplexMathFunctions/arm_cmplx_conj_f32.c **** 
 136:Source\ComplexMathFunctions/arm_cmplx_conj_f32.c ****     /* store imaginary sample to destination */
 137:Source\ComplexMathFunctions/arm_cmplx_conj_f32.c ****     pDst[7] = inI4;
 138:Source\ComplexMathFunctions/arm_cmplx_conj_f32.c **** 
 139:Source\ComplexMathFunctions/arm_cmplx_conj_f32.c ****     /* increment destination pointer by 8 to store next samples */
 140:Source\ComplexMathFunctions/arm_cmplx_conj_f32.c ****     pDst += 8u;
 141:Source\ComplexMathFunctions/arm_cmplx_conj_f32.c **** 
 142:Source\ComplexMathFunctions/arm_cmplx_conj_f32.c ****     /* Decrement the loop counter */
 143:Source\ComplexMathFunctions/arm_cmplx_conj_f32.c ****     blkCnt--;
 144:Source\ComplexMathFunctions/arm_cmplx_conj_f32.c ****   }
 145:Source\ComplexMathFunctions/arm_cmplx_conj_f32.c **** 
 146:Source\ComplexMathFunctions/arm_cmplx_conj_f32.c ****   /* If the numSamples is not a multiple of 4, compute any remaining output samples here.
 147:Source\ComplexMathFunctions/arm_cmplx_conj_f32.c ****    ** No loop unrolling is used. */
 148:Source\ComplexMathFunctions/arm_cmplx_conj_f32.c ****   blkCnt = numSamples % 0x4u;
 149:Source\ComplexMathFunctions/arm_cmplx_conj_f32.c **** 
 150:Source\ComplexMathFunctions/arm_cmplx_conj_f32.c **** #else
 151:Source\ComplexMathFunctions/arm_cmplx_conj_f32.c **** 
 152:Source\ComplexMathFunctions/arm_cmplx_conj_f32.c ****   /* Run the below code for Cortex-M0 */
 153:Source\ComplexMathFunctions/arm_cmplx_conj_f32.c ****   blkCnt = numSamples;
  39              		.loc 1 153 0
  40 000c 7B68     		ldr	r3, [r7, #4]
  41 000e 7B61     		str	r3, [r7, #20]
 154:Source\ComplexMathFunctions/arm_cmplx_conj_f32.c **** 
 155:Source\ComplexMathFunctions/arm_cmplx_conj_f32.c **** #endif /* #if defined (ARM_MATH_DSP) */
 156:Source\ComplexMathFunctions/arm_cmplx_conj_f32.c **** 
 157:Source\ComplexMathFunctions/arm_cmplx_conj_f32.c ****   while (blkCnt > 0u)
  42              		.loc 1 157 0
  43 0010 15E0     		b	.L2
  44              	.L3:
 158:Source\ComplexMathFunctions/arm_cmplx_conj_f32.c ****   {
 159:Source\ComplexMathFunctions/arm_cmplx_conj_f32.c ****     /* realOut + j (imagOut) = realIn + j (-1) imagIn */
 160:Source\ComplexMathFunctions/arm_cmplx_conj_f32.c ****     /* Calculate Complex Conjugate and then store the results in the destination buffer. */
 161:Source\ComplexMathFunctions/arm_cmplx_conj_f32.c ****     *pDst++ = *pSrc++;
  45              		.loc 1 161 0
  46 0012 BB68     		ldr	r3, [r7, #8]
  47 0014 1A1D     		add	r2, r3, #4
  48 0016 BA60     		str	r2, [r7, #8]
  49 0018 FA68     		ldr	r2, [r7, #12]
  50 001a 111D     		add	r1, r2, #4
  51 001c F960     		str	r1, [r7, #12]
  52 001e 1268     		ldr	r2, [r2]
  53 0020 1A60     		str	r2, [r3]
 162:Source\ComplexMathFunctions/arm_cmplx_conj_f32.c ****     *pDst++ = -*pSrc++;
  54              		.loc 1 162 0
  55 0022 BB68     		ldr	r3, [r7, #8]
  56 0024 1A1D     		add	r2, r3, #4
  57 0026 BA60     		str	r2, [r7, #8]
  58 0028 FA68     		ldr	r2, [r7, #12]
  59 002a 111D     		add	r1, r2, #4
  60 002c F960     		str	r1, [r7, #12]
  61 002e 1268     		ldr	r2, [r2]
  62 0030 8021     		mov	r1, #128
  63 0032 0906     		lsl	r1, r1, #24
  64 0034 4A40     		eor	r2, r1
  65 0036 1A60     		str	r2, [r3]
 163:Source\ComplexMathFunctions/arm_cmplx_conj_f32.c **** 
ARM GAS  C:\Users\fneves\AppData\Local\Temp\cccevkEm.s 			page 5


 164:Source\ComplexMathFunctions/arm_cmplx_conj_f32.c ****     /* Decrement the loop counter */
 165:Source\ComplexMathFunctions/arm_cmplx_conj_f32.c ****     blkCnt--;
  66              		.loc 1 165 0
  67 0038 7B69     		ldr	r3, [r7, #20]
  68 003a 013B     		sub	r3, r3, #1
  69 003c 7B61     		str	r3, [r7, #20]
  70              	.L2:
 157:Source\ComplexMathFunctions/arm_cmplx_conj_f32.c ****   {
  71              		.loc 1 157 0
  72 003e 7B69     		ldr	r3, [r7, #20]
  73 0040 002B     		cmp	r3, #0
  74 0042 E6D1     		bne	.L3
 166:Source\ComplexMathFunctions/arm_cmplx_conj_f32.c ****   }
 167:Source\ComplexMathFunctions/arm_cmplx_conj_f32.c **** }
  75              		.loc 1 167 0
  76 0044 BD46     		mov	sp, r7
  77 0046 06B0     		add	sp, sp, #24
  78              		@ sp needed
  79 0048 80BD     		pop	{r7, pc}
  80              		.cfi_endproc
  81              	.LFE82:
  82              		.size	arm_cmplx_conj_f32, .-arm_cmplx_conj_f32
  83 004a C046     		.text
  84              	.Letext0:
  85              		.file 2 "c:\\program files (x86)\\cypress\\psoc creator\\4.0\\psoc creator\\import\\gnu\\arm\\4.9.
  86              		.file 3 "c:\\program files (x86)\\cypress\\psoc creator\\4.0\\psoc creator\\import\\gnu\\arm\\4.9.
  87              		.file 4 ".\\Include/arm_math.h"