ARM GAS  C:\Users\fneves\AppData\Local\Temp\ccCgeQ3x.s 			page 1


   1              		.cpu cortex-m0plus
   2              		.fpu softvfp
   3              		.eabi_attribute 20, 1
   4              		.eabi_attribute 21, 1
   5              		.eabi_attribute 23, 3
   6              		.eabi_attribute 24, 1
   7              		.eabi_attribute 25, 1
   8              		.eabi_attribute 26, 1
   9              		.eabi_attribute 30, 6
  10              		.eabi_attribute 34, 0
  11              		.eabi_attribute 18, 4
  12              		.code	16
  13              		.file	"arm_sin_cos_f32.c"
  14              		.text
  15              	.Ltext0:
  16              		.cfi_sections	.debug_frame
  17              		.global	__aeabi_fmul
  18              		.global	__aeabi_fcmplt
  19              		.global	__aeabi_f2iz
  20              		.global	__aeabi_i2f
  21              		.global	__aeabi_fsub
  22              		.global	__aeabi_f2uiz
  23              		.global	__aeabi_ui2f
  24              		.global	__aeabi_fadd
  25              		.section	.text.arm_sin_cos_f32,"ax",%progbits
  26              		.align	2
  27              		.global	arm_sin_cos_f32
  28              		.code	16
  29              		.thumb_func
  30              		.type	arm_sin_cos_f32, %function
  31              	arm_sin_cos_f32:
  32              	.LFB82:
  33              		.file 1 "Source\\ControllerFunctions\\arm_sin_cos_f32.c"
   1:Source\ControllerFunctions/arm_sin_cos_f32.c **** /* ----------------------------------------------------------------------
   2:Source\ControllerFunctions/arm_sin_cos_f32.c ****  * Project:      CMSIS DSP Library
   3:Source\ControllerFunctions/arm_sin_cos_f32.c ****  * Title:        arm_sin_cos_f32.c
   4:Source\ControllerFunctions/arm_sin_cos_f32.c ****  * Description:  Sine and Cosine calculation for floating-point values
   5:Source\ControllerFunctions/arm_sin_cos_f32.c ****  *
   6:Source\ControllerFunctions/arm_sin_cos_f32.c ****  * $Date:        27. January 2017
   7:Source\ControllerFunctions/arm_sin_cos_f32.c ****  * $Revision:    V.1.5.1
   8:Source\ControllerFunctions/arm_sin_cos_f32.c ****  *
   9:Source\ControllerFunctions/arm_sin_cos_f32.c ****  * Target Processor: Cortex-M cores
  10:Source\ControllerFunctions/arm_sin_cos_f32.c ****  * -------------------------------------------------------------------- */
  11:Source\ControllerFunctions/arm_sin_cos_f32.c **** /*
  12:Source\ControllerFunctions/arm_sin_cos_f32.c ****  * Copyright (C) 2010-2017 ARM Limited or its affiliates. All rights reserved.
  13:Source\ControllerFunctions/arm_sin_cos_f32.c ****  *
  14:Source\ControllerFunctions/arm_sin_cos_f32.c ****  * SPDX-License-Identifier: Apache-2.0
  15:Source\ControllerFunctions/arm_sin_cos_f32.c ****  *
  16:Source\ControllerFunctions/arm_sin_cos_f32.c ****  * Licensed under the Apache License, Version 2.0 (the License); you may
  17:Source\ControllerFunctions/arm_sin_cos_f32.c ****  * not use this file except in compliance with the License.
  18:Source\ControllerFunctions/arm_sin_cos_f32.c ****  * You may obtain a copy of the License at
  19:Source\ControllerFunctions/arm_sin_cos_f32.c ****  *
  20:Source\ControllerFunctions/arm_sin_cos_f32.c ****  * www.apache.org/licenses/LICENSE-2.0
  21:Source\ControllerFunctions/arm_sin_cos_f32.c ****  *
  22:Source\ControllerFunctions/arm_sin_cos_f32.c ****  * Unless required by applicable law or agreed to in writing, software
  23:Source\ControllerFunctions/arm_sin_cos_f32.c ****  * distributed under the License is distributed on an AS IS BASIS, WITHOUT
  24:Source\ControllerFunctions/arm_sin_cos_f32.c ****  * WARRANTIES OR CONDITIONS OF ANY KIND, either express or implied.
ARM GAS  C:\Users\fneves\AppData\Local\Temp\ccCgeQ3x.s 			page 2


  25:Source\ControllerFunctions/arm_sin_cos_f32.c ****  * See the License for the specific language governing permissions and
  26:Source\ControllerFunctions/arm_sin_cos_f32.c ****  * limitations under the License.
  27:Source\ControllerFunctions/arm_sin_cos_f32.c ****  */
  28:Source\ControllerFunctions/arm_sin_cos_f32.c **** 
  29:Source\ControllerFunctions/arm_sin_cos_f32.c **** #include "arm_math.h"
  30:Source\ControllerFunctions/arm_sin_cos_f32.c **** #include "arm_common_tables.h"
  31:Source\ControllerFunctions/arm_sin_cos_f32.c **** 
  32:Source\ControllerFunctions/arm_sin_cos_f32.c **** /**
  33:Source\ControllerFunctions/arm_sin_cos_f32.c ****  * @ingroup groupController
  34:Source\ControllerFunctions/arm_sin_cos_f32.c ****  */
  35:Source\ControllerFunctions/arm_sin_cos_f32.c **** 
  36:Source\ControllerFunctions/arm_sin_cos_f32.c **** /**
  37:Source\ControllerFunctions/arm_sin_cos_f32.c ****  * @defgroup SinCos Sine Cosine
  38:Source\ControllerFunctions/arm_sin_cos_f32.c ****  *
  39:Source\ControllerFunctions/arm_sin_cos_f32.c ****  * Computes the trigonometric sine and cosine values using a combination of table lookup
  40:Source\ControllerFunctions/arm_sin_cos_f32.c ****  * and linear interpolation.
  41:Source\ControllerFunctions/arm_sin_cos_f32.c ****  * There are separate functions for Q31 and floating-point data types.
  42:Source\ControllerFunctions/arm_sin_cos_f32.c ****  * The input to the floating-point version is in degrees while the
  43:Source\ControllerFunctions/arm_sin_cos_f32.c ****  * fixed-point Q31 have a scaled input with the range
  44:Source\ControllerFunctions/arm_sin_cos_f32.c ****  * [-1 0.9999] mapping to [-180 +180] degrees.
  45:Source\ControllerFunctions/arm_sin_cos_f32.c ****  *
  46:Source\ControllerFunctions/arm_sin_cos_f32.c ****  * The floating point function also allows values that are out of the usual range. When this happen
  47:Source\ControllerFunctions/arm_sin_cos_f32.c ****  * take extra time to adjust the input value to the range of [-180 180].
  48:Source\ControllerFunctions/arm_sin_cos_f32.c ****  *
  49:Source\ControllerFunctions/arm_sin_cos_f32.c ****  * The result is accurate to 5 digits after the decimal point.
  50:Source\ControllerFunctions/arm_sin_cos_f32.c ****  *
  51:Source\ControllerFunctions/arm_sin_cos_f32.c ****  * The implementation is based on table lookup using 360 values together with linear interpolation.
  52:Source\ControllerFunctions/arm_sin_cos_f32.c ****  * The steps used are:
  53:Source\ControllerFunctions/arm_sin_cos_f32.c ****  *  -# Calculation of the nearest integer table index.
  54:Source\ControllerFunctions/arm_sin_cos_f32.c ****  *  -# Compute the fractional portion (fract) of the input.
  55:Source\ControllerFunctions/arm_sin_cos_f32.c ****  *  -# Fetch the value corresponding to \c index from sine table to \c y0 and also value from \c in
  56:Source\ControllerFunctions/arm_sin_cos_f32.c ****  *  -# Sine value is computed as <code> *psinVal = y0 + (fract * (y1 - y0))</code>.
  57:Source\ControllerFunctions/arm_sin_cos_f32.c ****  *  -# Fetch the value corresponding to \c index from cosine table to \c y0 and also value from \c 
  58:Source\ControllerFunctions/arm_sin_cos_f32.c ****  *  -# Cosine value is computed as <code> *pcosVal = y0 + (fract * (y1 - y0))</code>.
  59:Source\ControllerFunctions/arm_sin_cos_f32.c ****  */
  60:Source\ControllerFunctions/arm_sin_cos_f32.c **** 
  61:Source\ControllerFunctions/arm_sin_cos_f32.c ****  /**
  62:Source\ControllerFunctions/arm_sin_cos_f32.c ****  * @addtogroup SinCos
  63:Source\ControllerFunctions/arm_sin_cos_f32.c ****  * @{
  64:Source\ControllerFunctions/arm_sin_cos_f32.c ****  */
  65:Source\ControllerFunctions/arm_sin_cos_f32.c **** 
  66:Source\ControllerFunctions/arm_sin_cos_f32.c **** /**
  67:Source\ControllerFunctions/arm_sin_cos_f32.c ****  * @brief  Floating-point sin_cos function.
  68:Source\ControllerFunctions/arm_sin_cos_f32.c ****  * @param[in]  theta    input value in degrees
  69:Source\ControllerFunctions/arm_sin_cos_f32.c ****  * @param[out] *pSinVal points to the processed sine output.
  70:Source\ControllerFunctions/arm_sin_cos_f32.c ****  * @param[out] *pCosVal points to the processed cos output.
  71:Source\ControllerFunctions/arm_sin_cos_f32.c ****  * @return none.
  72:Source\ControllerFunctions/arm_sin_cos_f32.c ****  */
  73:Source\ControllerFunctions/arm_sin_cos_f32.c **** 
  74:Source\ControllerFunctions/arm_sin_cos_f32.c **** void arm_sin_cos_f32(
  75:Source\ControllerFunctions/arm_sin_cos_f32.c ****                       float32_t theta,
  76:Source\ControllerFunctions/arm_sin_cos_f32.c ****                       float32_t * pSinVal,
  77:Source\ControllerFunctions/arm_sin_cos_f32.c ****                       float32_t * pCosVal)
  78:Source\ControllerFunctions/arm_sin_cos_f32.c **** {
  34              		.loc 1 78 0
  35              		.cfi_startproc
  36 0000 B0B5     		push	{r4, r5, r7, lr}
ARM GAS  C:\Users\fneves\AppData\Local\Temp\ccCgeQ3x.s 			page 3


  37              		.cfi_def_cfa_offset 16
  38              		.cfi_offset 4, -16
  39              		.cfi_offset 5, -12
  40              		.cfi_offset 7, -8
  41              		.cfi_offset 14, -4
  42 0002 90B0     		sub	sp, sp, #64
  43              		.cfi_def_cfa_offset 80
  44 0004 00AF     		add	r7, sp, #0
  45              		.cfi_def_cfa_register 7
  46 0006 F860     		str	r0, [r7, #12]
  47 0008 B960     		str	r1, [r7, #8]
  48 000a 7A60     		str	r2, [r7, #4]
  79:Source\ControllerFunctions/arm_sin_cos_f32.c ****     float32_t fract, in;                             /* Temporary variables for input, output */
  80:Source\ControllerFunctions/arm_sin_cos_f32.c ****     uint16_t indexS, indexC;                         /* Index variable */
  81:Source\ControllerFunctions/arm_sin_cos_f32.c ****     float32_t f1, f2, d1, d2;                        /* Two nearest output values */
  82:Source\ControllerFunctions/arm_sin_cos_f32.c ****     float32_t findex, Dn, Df, temp;
  83:Source\ControllerFunctions/arm_sin_cos_f32.c **** 
  84:Source\ControllerFunctions/arm_sin_cos_f32.c ****     /* input x is in degrees */
  85:Source\ControllerFunctions/arm_sin_cos_f32.c ****     /* Scale the input, divide input by 360, for cosine add 0.25 (pi/2) to read sine table */
  86:Source\ControllerFunctions/arm_sin_cos_f32.c ****     in = theta * 0.00277777777778f;
  49              		.loc 1 86 0
  50 000c F868     		ldr	r0, [r7, #12]
  51 000e C649     		ldr	r1, .L8
  52 0010 FFF7FEFF 		bl	__aeabi_fmul
  53 0014 031C     		add	r3, r0, #0
  54 0016 FB63     		str	r3, [r7, #60]
  87:Source\ControllerFunctions/arm_sin_cos_f32.c **** 
  88:Source\ControllerFunctions/arm_sin_cos_f32.c ****     if (in < 0.0f)
  55              		.loc 1 88 0
  56 0018 F86B     		ldr	r0, [r7, #60]
  57 001a 0021     		mov	r1, #0
  58 001c FFF7FEFF 		bl	__aeabi_fcmplt
  59 0020 031E     		sub	r3, r0, #0
  60 0022 04D0     		beq	.L2
  89:Source\ControllerFunctions/arm_sin_cos_f32.c ****     {
  90:Source\ControllerFunctions/arm_sin_cos_f32.c ****         in = -in;
  61              		.loc 1 90 0
  62 0024 FB6B     		ldr	r3, [r7, #60]
  63 0026 8022     		mov	r2, #128
  64 0028 1206     		lsl	r2, r2, #24
  65 002a 5340     		eor	r3, r2
  66 002c FB63     		str	r3, [r7, #60]
  67              	.L2:
  91:Source\ControllerFunctions/arm_sin_cos_f32.c ****     }
  92:Source\ControllerFunctions/arm_sin_cos_f32.c **** 
  93:Source\ControllerFunctions/arm_sin_cos_f32.c ****     in = in - (int32_t)in;
  68              		.loc 1 93 0
  69 002e F86B     		ldr	r0, [r7, #60]
  70 0030 FFF7FEFF 		bl	__aeabi_f2iz
  71 0034 031C     		mov	r3, r0
  72 0036 181C     		mov	r0, r3
  73 0038 FFF7FEFF 		bl	__aeabi_i2f
  74 003c 031C     		add	r3, r0, #0
  75 003e F86B     		ldr	r0, [r7, #60]
  76 0040 191C     		add	r1, r3, #0
  77 0042 FFF7FEFF 		bl	__aeabi_fsub
  78 0046 031C     		add	r3, r0, #0
ARM GAS  C:\Users\fneves\AppData\Local\Temp\ccCgeQ3x.s 			page 4


  79 0048 FB63     		str	r3, [r7, #60]
  94:Source\ControllerFunctions/arm_sin_cos_f32.c **** 
  95:Source\ControllerFunctions/arm_sin_cos_f32.c ****     /* Calculation of index of the table */
  96:Source\ControllerFunctions/arm_sin_cos_f32.c ****     findex = (float32_t) FAST_MATH_TABLE_SIZE * in;
  80              		.loc 1 96 0
  81 004a F86B     		ldr	r0, [r7, #60]
  82 004c 8821     		mov	r1, #136
  83 004e C905     		lsl	r1, r1, #23
  84 0050 FFF7FEFF 		bl	__aeabi_fmul
  85 0054 031C     		add	r3, r0, #0
  86 0056 BB63     		str	r3, [r7, #56]
  97:Source\ControllerFunctions/arm_sin_cos_f32.c ****     indexS = ((uint16_t)findex) & 0x1ff;
  87              		.loc 1 97 0
  88 0058 B86B     		ldr	r0, [r7, #56]
  89 005a FFF7FEFF 		bl	__aeabi_f2uiz
  90 005e 031C     		mov	r3, r0
  91 0060 9AB2     		uxth	r2, r3
  92 0062 3623     		mov	r3, #54
  93 0064 FB18     		add	r3, r7, r3
  94 0066 D205     		lsl	r2, r2, #23
  95 0068 D20D     		lsr	r2, r2, #23
  96 006a 1A80     		strh	r2, [r3]
  98:Source\ControllerFunctions/arm_sin_cos_f32.c ****     indexC = (indexS + (FAST_MATH_TABLE_SIZE / 4)) & 0x1ff;
  97              		.loc 1 98 0
  98 006c 3623     		mov	r3, #54
  99 006e FB18     		add	r3, r7, r3
 100 0070 1B88     		ldrh	r3, [r3]
 101 0072 8033     		add	r3, r3, #128
 102 0074 9AB2     		uxth	r2, r3
 103 0076 3423     		mov	r3, #52
 104 0078 FB18     		add	r3, r7, r3
 105 007a D205     		lsl	r2, r2, #23
 106 007c D20D     		lsr	r2, r2, #23
 107 007e 1A80     		strh	r2, [r3]
  99:Source\ControllerFunctions/arm_sin_cos_f32.c **** 
 100:Source\ControllerFunctions/arm_sin_cos_f32.c ****     /* fractional value calculation */
 101:Source\ControllerFunctions/arm_sin_cos_f32.c ****     fract = findex - (float32_t) indexS;
 108              		.loc 1 101 0
 109 0080 3623     		mov	r3, #54
 110 0082 FB18     		add	r3, r7, r3
 111 0084 1B88     		ldrh	r3, [r3]
 112 0086 181C     		mov	r0, r3
 113 0088 FFF7FEFF 		bl	__aeabi_ui2f
 114 008c 031C     		add	r3, r0, #0
 115 008e B86B     		ldr	r0, [r7, #56]
 116 0090 191C     		add	r1, r3, #0
 117 0092 FFF7FEFF 		bl	__aeabi_fsub
 118 0096 031C     		add	r3, r0, #0
 119 0098 3B63     		str	r3, [r7, #48]
 102:Source\ControllerFunctions/arm_sin_cos_f32.c **** 
 103:Source\ControllerFunctions/arm_sin_cos_f32.c ****     /* Read two nearest values of input value from the cos & sin tables */
 104:Source\ControllerFunctions/arm_sin_cos_f32.c ****     f1 = sinTable_f32[indexC+0];
 120              		.loc 1 104 0
 121 009a 3423     		mov	r3, #52
 122 009c FB18     		add	r3, r7, r3
 123 009e 1A88     		ldrh	r2, [r3]
 124 00a0 A24B     		ldr	r3, .L8+4
ARM GAS  C:\Users\fneves\AppData\Local\Temp\ccCgeQ3x.s 			page 5


 125 00a2 9200     		lsl	r2, r2, #2
 126 00a4 D358     		ldr	r3, [r2, r3]
 127 00a6 FB62     		str	r3, [r7, #44]
 105:Source\ControllerFunctions/arm_sin_cos_f32.c ****     f2 = sinTable_f32[indexC+1];
 128              		.loc 1 105 0
 129 00a8 3423     		mov	r3, #52
 130 00aa FB18     		add	r3, r7, r3
 131 00ac 1B88     		ldrh	r3, [r3]
 132 00ae 5A1C     		add	r2, r3, #1
 133 00b0 9E4B     		ldr	r3, .L8+4
 134 00b2 9200     		lsl	r2, r2, #2
 135 00b4 D358     		ldr	r3, [r2, r3]
 136 00b6 BB62     		str	r3, [r7, #40]
 106:Source\ControllerFunctions/arm_sin_cos_f32.c ****     d1 = -sinTable_f32[indexS+0];
 137              		.loc 1 106 0
 138 00b8 3623     		mov	r3, #54
 139 00ba FB18     		add	r3, r7, r3
 140 00bc 1A88     		ldrh	r2, [r3]
 141 00be 9B4B     		ldr	r3, .L8+4
 142 00c0 9200     		lsl	r2, r2, #2
 143 00c2 D358     		ldr	r3, [r2, r3]
 144 00c4 8022     		mov	r2, #128
 145 00c6 1206     		lsl	r2, r2, #24
 146 00c8 5340     		eor	r3, r2
 147 00ca 7B62     		str	r3, [r7, #36]
 107:Source\ControllerFunctions/arm_sin_cos_f32.c ****     d2 = -sinTable_f32[indexS+1];
 148              		.loc 1 107 0
 149 00cc 3623     		mov	r3, #54
 150 00ce FB18     		add	r3, r7, r3
 151 00d0 1B88     		ldrh	r3, [r3]
 152 00d2 5A1C     		add	r2, r3, #1
 153 00d4 954B     		ldr	r3, .L8+4
 154 00d6 9200     		lsl	r2, r2, #2
 155 00d8 D358     		ldr	r3, [r2, r3]
 156 00da 8022     		mov	r2, #128
 157 00dc 1206     		lsl	r2, r2, #24
 158 00de 5340     		eor	r3, r2
 159 00e0 3B62     		str	r3, [r7, #32]
 108:Source\ControllerFunctions/arm_sin_cos_f32.c **** 
 109:Source\ControllerFunctions/arm_sin_cos_f32.c ****     temp = (1.0f - fract) * f1 + fract * f2;
 160              		.loc 1 109 0
 161 00e2 FE20     		mov	r0, #254
 162 00e4 8005     		lsl	r0, r0, #22
 163 00e6 396B     		ldr	r1, [r7, #48]
 164 00e8 FFF7FEFF 		bl	__aeabi_fsub
 165 00ec 031C     		add	r3, r0, #0
 166 00ee 181C     		add	r0, r3, #0
 167 00f0 F96A     		ldr	r1, [r7, #44]
 168 00f2 FFF7FEFF 		bl	__aeabi_fmul
 169 00f6 031C     		add	r3, r0, #0
 170 00f8 1C1C     		add	r4, r3, #0
 171 00fa 386B     		ldr	r0, [r7, #48]
 172 00fc B96A     		ldr	r1, [r7, #40]
 173 00fe FFF7FEFF 		bl	__aeabi_fmul
 174 0102 031C     		add	r3, r0, #0
 175 0104 201C     		add	r0, r4, #0
 176 0106 191C     		add	r1, r3, #0
ARM GAS  C:\Users\fneves\AppData\Local\Temp\ccCgeQ3x.s 			page 6


 177 0108 FFF7FEFF 		bl	__aeabi_fadd
 178 010c 031C     		add	r3, r0, #0
 179 010e FB61     		str	r3, [r7, #28]
 110:Source\ControllerFunctions/arm_sin_cos_f32.c **** 
 111:Source\ControllerFunctions/arm_sin_cos_f32.c ****     Dn = 0.0122718463030f; // delta between the two points (fixed), in this case 2*pi/FAST_MATH_TAB
 180              		.loc 1 111 0
 181 0110 874B     		ldr	r3, .L8+8
 182 0112 BB61     		str	r3, [r7, #24]
 112:Source\ControllerFunctions/arm_sin_cos_f32.c ****     Df = f2 - f1;          // delta between the values of the functions
 183              		.loc 1 112 0
 184 0114 B86A     		ldr	r0, [r7, #40]
 185 0116 F96A     		ldr	r1, [r7, #44]
 186 0118 FFF7FEFF 		bl	__aeabi_fsub
 187 011c 031C     		add	r3, r0, #0
 188 011e 7B61     		str	r3, [r7, #20]
 113:Source\ControllerFunctions/arm_sin_cos_f32.c **** 
 114:Source\ControllerFunctions/arm_sin_cos_f32.c ****     temp = Dn *(d1 + d2) - 2 * Df;
 189              		.loc 1 114 0
 190 0120 786A     		ldr	r0, [r7, #36]
 191 0122 396A     		ldr	r1, [r7, #32]
 192 0124 FFF7FEFF 		bl	__aeabi_fadd
 193 0128 031C     		add	r3, r0, #0
 194 012a 181C     		add	r0, r3, #0
 195 012c B969     		ldr	r1, [r7, #24]
 196 012e FFF7FEFF 		bl	__aeabi_fmul
 197 0132 031C     		add	r3, r0, #0
 198 0134 1C1C     		add	r4, r3, #0
 199 0136 7B69     		ldr	r3, [r7, #20]
 200 0138 181C     		add	r0, r3, #0
 201 013a 191C     		add	r1, r3, #0
 202 013c FFF7FEFF 		bl	__aeabi_fadd
 203 0140 031C     		add	r3, r0, #0
 204 0142 201C     		add	r0, r4, #0
 205 0144 191C     		add	r1, r3, #0
 206 0146 FFF7FEFF 		bl	__aeabi_fsub
 207 014a 031C     		add	r3, r0, #0
 208 014c FB61     		str	r3, [r7, #28]
 115:Source\ControllerFunctions/arm_sin_cos_f32.c ****     temp = fract * temp + (3 * Df - (d2 + 2 * d1) * Dn);
 209              		.loc 1 115 0
 210 014e 386B     		ldr	r0, [r7, #48]
 211 0150 F969     		ldr	r1, [r7, #28]
 212 0152 FFF7FEFF 		bl	__aeabi_fmul
 213 0156 031C     		add	r3, r0, #0
 214 0158 1C1C     		add	r4, r3, #0
 215 015a 7869     		ldr	r0, [r7, #20]
 216 015c 7549     		ldr	r1, .L8+12
 217 015e FFF7FEFF 		bl	__aeabi_fmul
 218 0162 031C     		add	r3, r0, #0
 219 0164 1D1C     		add	r5, r3, #0
 220 0166 7B6A     		ldr	r3, [r7, #36]
 221 0168 181C     		add	r0, r3, #0
 222 016a 191C     		add	r1, r3, #0
 223 016c FFF7FEFF 		bl	__aeabi_fadd
 224 0170 031C     		add	r3, r0, #0
 225 0172 181C     		add	r0, r3, #0
 226 0174 396A     		ldr	r1, [r7, #32]
 227 0176 FFF7FEFF 		bl	__aeabi_fadd
ARM GAS  C:\Users\fneves\AppData\Local\Temp\ccCgeQ3x.s 			page 7


 228 017a 031C     		add	r3, r0, #0
 229 017c 181C     		add	r0, r3, #0
 230 017e B969     		ldr	r1, [r7, #24]
 231 0180 FFF7FEFF 		bl	__aeabi_fmul
 232 0184 031C     		add	r3, r0, #0
 233 0186 281C     		add	r0, r5, #0
 234 0188 191C     		add	r1, r3, #0
 235 018a FFF7FEFF 		bl	__aeabi_fsub
 236 018e 031C     		add	r3, r0, #0
 237 0190 201C     		add	r0, r4, #0
 238 0192 191C     		add	r1, r3, #0
 239 0194 FFF7FEFF 		bl	__aeabi_fadd
 240 0198 031C     		add	r3, r0, #0
 241 019a FB61     		str	r3, [r7, #28]
 116:Source\ControllerFunctions/arm_sin_cos_f32.c ****     temp = fract * temp + d1 * Dn;
 242              		.loc 1 116 0
 243 019c 386B     		ldr	r0, [r7, #48]
 244 019e F969     		ldr	r1, [r7, #28]
 245 01a0 FFF7FEFF 		bl	__aeabi_fmul
 246 01a4 031C     		add	r3, r0, #0
 247 01a6 1C1C     		add	r4, r3, #0
 248 01a8 786A     		ldr	r0, [r7, #36]
 249 01aa B969     		ldr	r1, [r7, #24]
 250 01ac FFF7FEFF 		bl	__aeabi_fmul
 251 01b0 031C     		add	r3, r0, #0
 252 01b2 201C     		add	r0, r4, #0
 253 01b4 191C     		add	r1, r3, #0
 254 01b6 FFF7FEFF 		bl	__aeabi_fadd
 255 01ba 031C     		add	r3, r0, #0
 256 01bc FB61     		str	r3, [r7, #28]
 117:Source\ControllerFunctions/arm_sin_cos_f32.c **** 
 118:Source\ControllerFunctions/arm_sin_cos_f32.c ****     /* Calculation of cosine value */
 119:Source\ControllerFunctions/arm_sin_cos_f32.c ****     *pCosVal = fract * temp + f1;
 257              		.loc 1 119 0
 258 01be 386B     		ldr	r0, [r7, #48]
 259 01c0 F969     		ldr	r1, [r7, #28]
 260 01c2 FFF7FEFF 		bl	__aeabi_fmul
 261 01c6 031C     		add	r3, r0, #0
 262 01c8 181C     		add	r0, r3, #0
 263 01ca F96A     		ldr	r1, [r7, #44]
 264 01cc FFF7FEFF 		bl	__aeabi_fadd
 265 01d0 031C     		add	r3, r0, #0
 266 01d2 1A1C     		add	r2, r3, #0
 267 01d4 7B68     		ldr	r3, [r7, #4]
 268 01d6 1A60     		str	r2, [r3]
 120:Source\ControllerFunctions/arm_sin_cos_f32.c **** 
 121:Source\ControllerFunctions/arm_sin_cos_f32.c ****     /* Read two nearest values of input value from the cos & sin tables */
 122:Source\ControllerFunctions/arm_sin_cos_f32.c ****     f1 = sinTable_f32[indexS+0];
 269              		.loc 1 122 0
 270 01d8 3623     		mov	r3, #54
 271 01da FB18     		add	r3, r7, r3
 272 01dc 1A88     		ldrh	r2, [r3]
 273 01de 534B     		ldr	r3, .L8+4
 274 01e0 9200     		lsl	r2, r2, #2
 275 01e2 D358     		ldr	r3, [r2, r3]
 276 01e4 FB62     		str	r3, [r7, #44]
 123:Source\ControllerFunctions/arm_sin_cos_f32.c ****     f2 = sinTable_f32[indexS+1];
ARM GAS  C:\Users\fneves\AppData\Local\Temp\ccCgeQ3x.s 			page 8


 277              		.loc 1 123 0
 278 01e6 3623     		mov	r3, #54
 279 01e8 FB18     		add	r3, r7, r3
 280 01ea 1B88     		ldrh	r3, [r3]
 281 01ec 5A1C     		add	r2, r3, #1
 282 01ee 4F4B     		ldr	r3, .L8+4
 283 01f0 9200     		lsl	r2, r2, #2
 284 01f2 D358     		ldr	r3, [r2, r3]
 285 01f4 BB62     		str	r3, [r7, #40]
 124:Source\ControllerFunctions/arm_sin_cos_f32.c ****     d1 = sinTable_f32[indexC+0];
 286              		.loc 1 124 0
 287 01f6 3423     		mov	r3, #52
 288 01f8 FB18     		add	r3, r7, r3
 289 01fa 1A88     		ldrh	r2, [r3]
 290 01fc 4B4B     		ldr	r3, .L8+4
 291 01fe 9200     		lsl	r2, r2, #2
 292 0200 D358     		ldr	r3, [r2, r3]
 293 0202 7B62     		str	r3, [r7, #36]
 125:Source\ControllerFunctions/arm_sin_cos_f32.c ****     d2 = sinTable_f32[indexC+1];
 294              		.loc 1 125 0
 295 0204 3423     		mov	r3, #52
 296 0206 FB18     		add	r3, r7, r3
 297 0208 1B88     		ldrh	r3, [r3]
 298 020a 5A1C     		add	r2, r3, #1
 299 020c 474B     		ldr	r3, .L8+4
 300 020e 9200     		lsl	r2, r2, #2
 301 0210 D358     		ldr	r3, [r2, r3]
 302 0212 3B62     		str	r3, [r7, #32]
 126:Source\ControllerFunctions/arm_sin_cos_f32.c **** 
 127:Source\ControllerFunctions/arm_sin_cos_f32.c ****     temp = (1.0f - fract) * f1 + fract * f2;
 303              		.loc 1 127 0
 304 0214 FE20     		mov	r0, #254
 305 0216 8005     		lsl	r0, r0, #22
 306 0218 396B     		ldr	r1, [r7, #48]
 307 021a FFF7FEFF 		bl	__aeabi_fsub
 308 021e 031C     		add	r3, r0, #0
 309 0220 181C     		add	r0, r3, #0
 310 0222 F96A     		ldr	r1, [r7, #44]
 311 0224 FFF7FEFF 		bl	__aeabi_fmul
 312 0228 031C     		add	r3, r0, #0
 313 022a 1C1C     		add	r4, r3, #0
 314 022c 386B     		ldr	r0, [r7, #48]
 315 022e B96A     		ldr	r1, [r7, #40]
 316 0230 FFF7FEFF 		bl	__aeabi_fmul
 317 0234 031C     		add	r3, r0, #0
 318 0236 201C     		add	r0, r4, #0
 319 0238 191C     		add	r1, r3, #0
 320 023a FFF7FEFF 		bl	__aeabi_fadd
 321 023e 031C     		add	r3, r0, #0
 322 0240 FB61     		str	r3, [r7, #28]
 128:Source\ControllerFunctions/arm_sin_cos_f32.c **** 
 129:Source\ControllerFunctions/arm_sin_cos_f32.c ****     Df = f2 - f1; // delta between the values of the functions
 323              		.loc 1 129 0
 324 0242 B86A     		ldr	r0, [r7, #40]
 325 0244 F96A     		ldr	r1, [r7, #44]
 326 0246 FFF7FEFF 		bl	__aeabi_fsub
 327 024a 031C     		add	r3, r0, #0
ARM GAS  C:\Users\fneves\AppData\Local\Temp\ccCgeQ3x.s 			page 9


 328 024c 7B61     		str	r3, [r7, #20]
 130:Source\ControllerFunctions/arm_sin_cos_f32.c ****     temp = Dn*(d1 + d2) - 2*Df;
 329              		.loc 1 130 0
 330 024e 786A     		ldr	r0, [r7, #36]
 331 0250 396A     		ldr	r1, [r7, #32]
 332 0252 FFF7FEFF 		bl	__aeabi_fadd
 333 0256 031C     		add	r3, r0, #0
 334 0258 181C     		add	r0, r3, #0
 335 025a B969     		ldr	r1, [r7, #24]
 336 025c FFF7FEFF 		bl	__aeabi_fmul
 337 0260 031C     		add	r3, r0, #0
 338 0262 1C1C     		add	r4, r3, #0
 339 0264 7B69     		ldr	r3, [r7, #20]
 340 0266 181C     		add	r0, r3, #0
 341 0268 191C     		add	r1, r3, #0
 342 026a FFF7FEFF 		bl	__aeabi_fadd
 343 026e 031C     		add	r3, r0, #0
 344 0270 201C     		add	r0, r4, #0
 345 0272 191C     		add	r1, r3, #0
 346 0274 FFF7FEFF 		bl	__aeabi_fsub
 347 0278 031C     		add	r3, r0, #0
 348 027a FB61     		str	r3, [r7, #28]
 131:Source\ControllerFunctions/arm_sin_cos_f32.c ****     temp = fract*temp + (3*Df - (d2 + 2*d1)*Dn);
 349              		.loc 1 131 0
 350 027c 386B     		ldr	r0, [r7, #48]
 351 027e F969     		ldr	r1, [r7, #28]
 352 0280 FFF7FEFF 		bl	__aeabi_fmul
 353 0284 031C     		add	r3, r0, #0
 354 0286 1C1C     		add	r4, r3, #0
 355 0288 7869     		ldr	r0, [r7, #20]
 356 028a 2A49     		ldr	r1, .L8+12
 357 028c FFF7FEFF 		bl	__aeabi_fmul
 358 0290 031C     		add	r3, r0, #0
 359 0292 1D1C     		add	r5, r3, #0
 360 0294 7B6A     		ldr	r3, [r7, #36]
 361 0296 181C     		add	r0, r3, #0
 362 0298 191C     		add	r1, r3, #0
 363 029a FFF7FEFF 		bl	__aeabi_fadd
 364 029e 031C     		add	r3, r0, #0
 365 02a0 181C     		add	r0, r3, #0
 366 02a2 396A     		ldr	r1, [r7, #32]
 367 02a4 FFF7FEFF 		bl	__aeabi_fadd
 368 02a8 031C     		add	r3, r0, #0
 369 02aa 181C     		add	r0, r3, #0
 370 02ac B969     		ldr	r1, [r7, #24]
 371 02ae FFF7FEFF 		bl	__aeabi_fmul
 372 02b2 031C     		add	r3, r0, #0
 373 02b4 281C     		add	r0, r5, #0
 374 02b6 191C     		add	r1, r3, #0
 375 02b8 FFF7FEFF 		bl	__aeabi_fsub
 376 02bc 031C     		add	r3, r0, #0
 377 02be 201C     		add	r0, r4, #0
 378 02c0 191C     		add	r1, r3, #0
 379 02c2 FFF7FEFF 		bl	__aeabi_fadd
 380 02c6 031C     		add	r3, r0, #0
 381 02c8 FB61     		str	r3, [r7, #28]
 132:Source\ControllerFunctions/arm_sin_cos_f32.c ****     temp = fract*temp + d1*Dn;
ARM GAS  C:\Users\fneves\AppData\Local\Temp\ccCgeQ3x.s 			page 10


 382              		.loc 1 132 0
 383 02ca 386B     		ldr	r0, [r7, #48]
 384 02cc F969     		ldr	r1, [r7, #28]
 385 02ce FFF7FEFF 		bl	__aeabi_fmul
 386 02d2 031C     		add	r3, r0, #0
 387 02d4 1C1C     		add	r4, r3, #0
 388 02d6 786A     		ldr	r0, [r7, #36]
 389 02d8 B969     		ldr	r1, [r7, #24]
 390 02da FFF7FEFF 		bl	__aeabi_fmul
 391 02de 031C     		add	r3, r0, #0
 392 02e0 201C     		add	r0, r4, #0
 393 02e2 191C     		add	r1, r3, #0
 394 02e4 FFF7FEFF 		bl	__aeabi_fadd
 395 02e8 031C     		add	r3, r0, #0
 396 02ea FB61     		str	r3, [r7, #28]
 133:Source\ControllerFunctions/arm_sin_cos_f32.c **** 
 134:Source\ControllerFunctions/arm_sin_cos_f32.c ****     /* Calculation of sine value */
 135:Source\ControllerFunctions/arm_sin_cos_f32.c ****     *pSinVal = fract*temp + f1;
 397              		.loc 1 135 0
 398 02ec 386B     		ldr	r0, [r7, #48]
 399 02ee F969     		ldr	r1, [r7, #28]
 400 02f0 FFF7FEFF 		bl	__aeabi_fmul
 401 02f4 031C     		add	r3, r0, #0
 402 02f6 181C     		add	r0, r3, #0
 403 02f8 F96A     		ldr	r1, [r7, #44]
 404 02fa FFF7FEFF 		bl	__aeabi_fadd
 405 02fe 031C     		add	r3, r0, #0
 406 0300 1A1C     		add	r2, r3, #0
 407 0302 BB68     		ldr	r3, [r7, #8]
 408 0304 1A60     		str	r2, [r3]
 136:Source\ControllerFunctions/arm_sin_cos_f32.c **** 
 137:Source\ControllerFunctions/arm_sin_cos_f32.c ****     if (theta < 0.0f)
 409              		.loc 1 137 0
 410 0306 F868     		ldr	r0, [r7, #12]
 411 0308 0021     		mov	r1, #0
 412 030a FFF7FEFF 		bl	__aeabi_fcmplt
 413 030e 031E     		sub	r3, r0, #0
 414 0310 06D0     		beq	.L1
 138:Source\ControllerFunctions/arm_sin_cos_f32.c ****     {
 139:Source\ControllerFunctions/arm_sin_cos_f32.c ****         *pSinVal = -*pSinVal;
 415              		.loc 1 139 0
 416 0312 BB68     		ldr	r3, [r7, #8]
 417 0314 1B68     		ldr	r3, [r3]
 418 0316 8022     		mov	r2, #128
 419 0318 1206     		lsl	r2, r2, #24
 420 031a 5A40     		eor	r2, r3
 421 031c BB68     		ldr	r3, [r7, #8]
 422 031e 1A60     		str	r2, [r3]
 423              	.L1:
 140:Source\ControllerFunctions/arm_sin_cos_f32.c ****     }
 141:Source\ControllerFunctions/arm_sin_cos_f32.c **** }
 424              		.loc 1 141 0
 425 0320 BD46     		mov	sp, r7
 426 0322 10B0     		add	sp, sp, #64
 427              		@ sp needed
 428 0324 B0BD     		pop	{r4, r5, r7, pc}
 429              	.L9:
ARM GAS  C:\Users\fneves\AppData\Local\Temp\ccCgeQ3x.s 			page 11


 430 0326 C046     		.align	2
 431              	.L8:
 432 0328 610B363B 		.word	993397601
 433 032c 00000000 		.word	sinTable_f32
 434 0330 DB0F493C 		.word	1011421147
 435 0334 00004040 		.word	1077936128
 436              		.cfi_endproc
 437              	.LFE82:
 438              		.size	arm_sin_cos_f32, .-arm_sin_cos_f32
 439              		.text
 440              	.Letext0:
 441              		.file 2 "c:\\program files (x86)\\cypress\\psoc creator\\4.0\\psoc creator\\import\\gnu\\arm\\4.9.
 442              		.file 3 "c:\\program files (x86)\\cypress\\psoc creator\\4.0\\psoc creator\\import\\gnu\\arm\\4.9.
 443              		.file 4 ".\\Include/arm_math.h"
 444              		.file 5 ".\\Include/arm_common_tables.h"