ARM GAS  C:\Users\fneves\AppData\Local\Temp\ccfhElsR.s 			page 1


   1              		.cpu cortex-m0plus
   2              		.fpu softvfp
   3              		.eabi_attribute 20, 1
   4              		.eabi_attribute 21, 1
   5              		.eabi_attribute 23, 3
   6              		.eabi_attribute 24, 1
   7              		.eabi_attribute 25, 1
   8              		.eabi_attribute 26, 1
   9              		.eabi_attribute 30, 6
  10              		.eabi_attribute 34, 0
  11              		.eabi_attribute 18, 4
  12              		.code	16
  13              		.file	"arm_mean_f32.c"
  14              		.text
  15              	.Ltext0:
  16              		.cfi_sections	.debug_frame
  17              		.global	__aeabi_fadd
  18              		.global	__aeabi_ui2f
  19              		.global	__aeabi_fdiv
  20              		.section	.text.arm_mean_f32,"ax",%progbits
  21              		.align	2
  22              		.global	arm_mean_f32
  23              		.code	16
  24              		.thumb_func
  25              		.type	arm_mean_f32, %function
  26              	arm_mean_f32:
  27              	.LFB82:
  28              		.file 1 "Source\\StatisticsFunctions\\arm_mean_f32.c"
   1:Source\StatisticsFunctions/arm_mean_f32.c **** /* ----------------------------------------------------------------------
   2:Source\StatisticsFunctions/arm_mean_f32.c ****  * Project:      CMSIS DSP Library
   3:Source\StatisticsFunctions/arm_mean_f32.c ****  * Title:        arm_mean_f32.c
   4:Source\StatisticsFunctions/arm_mean_f32.c ****  * Description:  Mean value of a floating-point vector
   5:Source\StatisticsFunctions/arm_mean_f32.c ****  *
   6:Source\StatisticsFunctions/arm_mean_f32.c ****  * $Date:        27. January 2017
   7:Source\StatisticsFunctions/arm_mean_f32.c ****  * $Revision:    V.1.5.1
   8:Source\StatisticsFunctions/arm_mean_f32.c ****  *
   9:Source\StatisticsFunctions/arm_mean_f32.c ****  * Target Processor: Cortex-M cores
  10:Source\StatisticsFunctions/arm_mean_f32.c ****  * -------------------------------------------------------------------- */
  11:Source\StatisticsFunctions/arm_mean_f32.c **** /*
  12:Source\StatisticsFunctions/arm_mean_f32.c ****  * Copyright (C) 2010-2017 ARM Limited or its affiliates. All rights reserved.
  13:Source\StatisticsFunctions/arm_mean_f32.c ****  *
  14:Source\StatisticsFunctions/arm_mean_f32.c ****  * SPDX-License-Identifier: Apache-2.0
  15:Source\StatisticsFunctions/arm_mean_f32.c ****  *
  16:Source\StatisticsFunctions/arm_mean_f32.c ****  * Licensed under the Apache License, Version 2.0 (the License); you may
  17:Source\StatisticsFunctions/arm_mean_f32.c ****  * not use this file except in compliance with the License.
  18:Source\StatisticsFunctions/arm_mean_f32.c ****  * You may obtain a copy of the License at
  19:Source\StatisticsFunctions/arm_mean_f32.c ****  *
  20:Source\StatisticsFunctions/arm_mean_f32.c ****  * www.apache.org/licenses/LICENSE-2.0
  21:Source\StatisticsFunctions/arm_mean_f32.c ****  *
  22:Source\StatisticsFunctions/arm_mean_f32.c ****  * Unless required by applicable law or agreed to in writing, software
  23:Source\StatisticsFunctions/arm_mean_f32.c ****  * distributed under the License is distributed on an AS IS BASIS, WITHOUT
  24:Source\StatisticsFunctions/arm_mean_f32.c ****  * WARRANTIES OR CONDITIONS OF ANY KIND, either express or implied.
  25:Source\StatisticsFunctions/arm_mean_f32.c ****  * See the License for the specific language governing permissions and
  26:Source\StatisticsFunctions/arm_mean_f32.c ****  * limitations under the License.
  27:Source\StatisticsFunctions/arm_mean_f32.c ****  */
  28:Source\StatisticsFunctions/arm_mean_f32.c **** 
  29:Source\StatisticsFunctions/arm_mean_f32.c **** #include "arm_math.h"
ARM GAS  C:\Users\fneves\AppData\Local\Temp\ccfhElsR.s 			page 2


  30:Source\StatisticsFunctions/arm_mean_f32.c **** 
  31:Source\StatisticsFunctions/arm_mean_f32.c **** /**
  32:Source\StatisticsFunctions/arm_mean_f32.c ****  * @ingroup groupStats
  33:Source\StatisticsFunctions/arm_mean_f32.c ****  */
  34:Source\StatisticsFunctions/arm_mean_f32.c **** 
  35:Source\StatisticsFunctions/arm_mean_f32.c **** /**
  36:Source\StatisticsFunctions/arm_mean_f32.c ****  * @defgroup mean Mean
  37:Source\StatisticsFunctions/arm_mean_f32.c ****  *
  38:Source\StatisticsFunctions/arm_mean_f32.c ****  * Calculates the mean of the input vector. Mean is defined as the average of the elements in the v
  39:Source\StatisticsFunctions/arm_mean_f32.c ****  * The underlying algorithm is used:
  40:Source\StatisticsFunctions/arm_mean_f32.c ****  *
  41:Source\StatisticsFunctions/arm_mean_f32.c ****  * <pre>
  42:Source\StatisticsFunctions/arm_mean_f32.c ****  * 	Result = (pSrc[0] + pSrc[1] + pSrc[2] + ... + pSrc[blockSize-1]) / blockSize;
  43:Source\StatisticsFunctions/arm_mean_f32.c ****  * </pre>
  44:Source\StatisticsFunctions/arm_mean_f32.c ****  *
  45:Source\StatisticsFunctions/arm_mean_f32.c ****  * There are separate functions for floating-point, Q31, Q15, and Q7 data types.
  46:Source\StatisticsFunctions/arm_mean_f32.c ****  */
  47:Source\StatisticsFunctions/arm_mean_f32.c **** 
  48:Source\StatisticsFunctions/arm_mean_f32.c **** /**
  49:Source\StatisticsFunctions/arm_mean_f32.c ****  * @addtogroup mean
  50:Source\StatisticsFunctions/arm_mean_f32.c ****  * @{
  51:Source\StatisticsFunctions/arm_mean_f32.c ****  */
  52:Source\StatisticsFunctions/arm_mean_f32.c **** 
  53:Source\StatisticsFunctions/arm_mean_f32.c **** 
  54:Source\StatisticsFunctions/arm_mean_f32.c **** /**
  55:Source\StatisticsFunctions/arm_mean_f32.c ****  * @brief Mean value of a floating-point vector.
  56:Source\StatisticsFunctions/arm_mean_f32.c ****  * @param[in]       *pSrc points to the input vector
  57:Source\StatisticsFunctions/arm_mean_f32.c ****  * @param[in]       blockSize length of the input vector
  58:Source\StatisticsFunctions/arm_mean_f32.c ****  * @param[out]      *pResult mean value returned here
  59:Source\StatisticsFunctions/arm_mean_f32.c ****  * @return none.
  60:Source\StatisticsFunctions/arm_mean_f32.c ****  */
  61:Source\StatisticsFunctions/arm_mean_f32.c **** 
  62:Source\StatisticsFunctions/arm_mean_f32.c **** void arm_mean_f32(
  63:Source\StatisticsFunctions/arm_mean_f32.c ****   float32_t * pSrc,
  64:Source\StatisticsFunctions/arm_mean_f32.c ****   uint32_t blockSize,
  65:Source\StatisticsFunctions/arm_mean_f32.c ****   float32_t * pResult)
  66:Source\StatisticsFunctions/arm_mean_f32.c **** {
  29              		.loc 1 66 0
  30              		.cfi_startproc
  31 0000 80B5     		push	{r7, lr}
  32              		.cfi_def_cfa_offset 8
  33              		.cfi_offset 7, -8
  34              		.cfi_offset 14, -4
  35 0002 86B0     		sub	sp, sp, #24
  36              		.cfi_def_cfa_offset 32
  37 0004 00AF     		add	r7, sp, #0
  38              		.cfi_def_cfa_register 7
  39 0006 F860     		str	r0, [r7, #12]
  40 0008 B960     		str	r1, [r7, #8]
  41 000a 7A60     		str	r2, [r7, #4]
  67:Source\StatisticsFunctions/arm_mean_f32.c ****   float32_t sum = 0.0f;                          /* Temporary result storage */
  42              		.loc 1 67 0
  43 000c 0023     		mov	r3, #0
  44 000e 7B61     		str	r3, [r7, #20]
  68:Source\StatisticsFunctions/arm_mean_f32.c ****   uint32_t blkCnt;                               /* loop counter */
  69:Source\StatisticsFunctions/arm_mean_f32.c **** 
  70:Source\StatisticsFunctions/arm_mean_f32.c **** #if defined (ARM_MATH_DSP)
ARM GAS  C:\Users\fneves\AppData\Local\Temp\ccfhElsR.s 			page 3


  71:Source\StatisticsFunctions/arm_mean_f32.c ****   /* Run the below code for Cortex-M4 and Cortex-M3 */
  72:Source\StatisticsFunctions/arm_mean_f32.c **** 
  73:Source\StatisticsFunctions/arm_mean_f32.c ****   float32_t in1, in2, in3, in4;
  74:Source\StatisticsFunctions/arm_mean_f32.c **** 
  75:Source\StatisticsFunctions/arm_mean_f32.c ****   /*loop Unrolling */
  76:Source\StatisticsFunctions/arm_mean_f32.c ****   blkCnt = blockSize >> 2u;
  77:Source\StatisticsFunctions/arm_mean_f32.c **** 
  78:Source\StatisticsFunctions/arm_mean_f32.c ****   /* First part of the processing with loop unrolling.  Compute 4 outputs at a time.
  79:Source\StatisticsFunctions/arm_mean_f32.c ****    ** a second loop below computes the remaining 1 to 3 samples. */
  80:Source\StatisticsFunctions/arm_mean_f32.c ****   while (blkCnt > 0u)
  81:Source\StatisticsFunctions/arm_mean_f32.c ****   {
  82:Source\StatisticsFunctions/arm_mean_f32.c ****     /* C = (A[0] + A[1] + A[2] + ... + A[blockSize-1]) */
  83:Source\StatisticsFunctions/arm_mean_f32.c ****     in1 = *pSrc++;
  84:Source\StatisticsFunctions/arm_mean_f32.c ****     in2 = *pSrc++;
  85:Source\StatisticsFunctions/arm_mean_f32.c ****     in3 = *pSrc++;
  86:Source\StatisticsFunctions/arm_mean_f32.c ****     in4 = *pSrc++;
  87:Source\StatisticsFunctions/arm_mean_f32.c **** 
  88:Source\StatisticsFunctions/arm_mean_f32.c ****     sum += in1;
  89:Source\StatisticsFunctions/arm_mean_f32.c ****     sum += in2;
  90:Source\StatisticsFunctions/arm_mean_f32.c ****     sum += in3;
  91:Source\StatisticsFunctions/arm_mean_f32.c ****     sum += in4;
  92:Source\StatisticsFunctions/arm_mean_f32.c **** 
  93:Source\StatisticsFunctions/arm_mean_f32.c ****     /* Decrement the loop counter */
  94:Source\StatisticsFunctions/arm_mean_f32.c ****     blkCnt--;
  95:Source\StatisticsFunctions/arm_mean_f32.c ****   }
  96:Source\StatisticsFunctions/arm_mean_f32.c **** 
  97:Source\StatisticsFunctions/arm_mean_f32.c ****   /* If the blockSize is not a multiple of 4, compute any remaining output samples here.
  98:Source\StatisticsFunctions/arm_mean_f32.c ****    ** No loop unrolling is used. */
  99:Source\StatisticsFunctions/arm_mean_f32.c ****   blkCnt = blockSize % 0x4u;
 100:Source\StatisticsFunctions/arm_mean_f32.c **** 
 101:Source\StatisticsFunctions/arm_mean_f32.c **** #else
 102:Source\StatisticsFunctions/arm_mean_f32.c ****   /* Run the below code for Cortex-M0 */
 103:Source\StatisticsFunctions/arm_mean_f32.c **** 
 104:Source\StatisticsFunctions/arm_mean_f32.c ****   /* Loop over blockSize number of values */
 105:Source\StatisticsFunctions/arm_mean_f32.c ****   blkCnt = blockSize;
  45              		.loc 1 105 0
  46 0010 BB68     		ldr	r3, [r7, #8]
  47 0012 3B61     		str	r3, [r7, #16]
 106:Source\StatisticsFunctions/arm_mean_f32.c **** 
 107:Source\StatisticsFunctions/arm_mean_f32.c **** #endif /* #if defined (ARM_MATH_DSP) */
 108:Source\StatisticsFunctions/arm_mean_f32.c **** 
 109:Source\StatisticsFunctions/arm_mean_f32.c ****   while (blkCnt > 0u)
  48              		.loc 1 109 0
  49 0014 0CE0     		b	.L2
  50              	.L3:
 110:Source\StatisticsFunctions/arm_mean_f32.c ****   {
 111:Source\StatisticsFunctions/arm_mean_f32.c ****     /* C = (A[0] + A[1] + A[2] + ... + A[blockSize-1]) */
 112:Source\StatisticsFunctions/arm_mean_f32.c ****     sum += *pSrc++;
  51              		.loc 1 112 0
  52 0016 FB68     		ldr	r3, [r7, #12]
  53 0018 1A1D     		add	r2, r3, #4
  54 001a FA60     		str	r2, [r7, #12]
  55 001c 1B68     		ldr	r3, [r3]
  56 001e 7869     		ldr	r0, [r7, #20]
  57 0020 191C     		add	r1, r3, #0
  58 0022 FFF7FEFF 		bl	__aeabi_fadd
  59 0026 031C     		add	r3, r0, #0
ARM GAS  C:\Users\fneves\AppData\Local\Temp\ccfhElsR.s 			page 4


  60 0028 7B61     		str	r3, [r7, #20]
 113:Source\StatisticsFunctions/arm_mean_f32.c **** 
 114:Source\StatisticsFunctions/arm_mean_f32.c ****     /* Decrement the loop counter */
 115:Source\StatisticsFunctions/arm_mean_f32.c ****     blkCnt--;
  61              		.loc 1 115 0
  62 002a 3B69     		ldr	r3, [r7, #16]
  63 002c 013B     		sub	r3, r3, #1
  64 002e 3B61     		str	r3, [r7, #16]
  65              	.L2:
 109:Source\StatisticsFunctions/arm_mean_f32.c ****   {
  66              		.loc 1 109 0
  67 0030 3B69     		ldr	r3, [r7, #16]
  68 0032 002B     		cmp	r3, #0
  69 0034 EFD1     		bne	.L3
 116:Source\StatisticsFunctions/arm_mean_f32.c ****   }
 117:Source\StatisticsFunctions/arm_mean_f32.c **** 
 118:Source\StatisticsFunctions/arm_mean_f32.c ****   /* C = (A[0] + A[1] + A[2] + ... + A[blockSize-1]) / blockSize  */
 119:Source\StatisticsFunctions/arm_mean_f32.c ****   /* Store the result to the destination */
 120:Source\StatisticsFunctions/arm_mean_f32.c ****   *pResult = sum / (float32_t) blockSize;
  70              		.loc 1 120 0
  71 0036 B868     		ldr	r0, [r7, #8]
  72 0038 FFF7FEFF 		bl	__aeabi_ui2f
  73 003c 031C     		add	r3, r0, #0
  74 003e 7869     		ldr	r0, [r7, #20]
  75 0040 191C     		add	r1, r3, #0
  76 0042 FFF7FEFF 		bl	__aeabi_fdiv
  77 0046 031C     		add	r3, r0, #0
  78 0048 1A1C     		add	r2, r3, #0
  79 004a 7B68     		ldr	r3, [r7, #4]
  80 004c 1A60     		str	r2, [r3]
 121:Source\StatisticsFunctions/arm_mean_f32.c **** }
  81              		.loc 1 121 0
  82 004e BD46     		mov	sp, r7
  83 0050 06B0     		add	sp, sp, #24
  84              		@ sp needed
  85 0052 80BD     		pop	{r7, pc}
  86              		.cfi_endproc
  87              	.LFE82:
  88              		.size	arm_mean_f32, .-arm_mean_f32
  89              		.text
  90              	.Letext0:
  91              		.file 2 "c:\\program files (x86)\\cypress\\psoc creator\\4.0\\psoc creator\\import\\gnu\\arm\\4.9.
  92              		.file 3 "c:\\program files (x86)\\cypress\\psoc creator\\4.0\\psoc creator\\import\\gnu\\arm\\4.9.
  93              		.file 4 ".\\Include/arm_math.h"