ARM GAS  C:\Users\fneves\AppData\Local\Temp\ccVCDPgb.s 			page 1


   1              		.cpu cortex-m0plus
   2              		.fpu softvfp
   3              		.eabi_attribute 20, 1
   4              		.eabi_attribute 21, 1
   5              		.eabi_attribute 23, 3
   6              		.eabi_attribute 24, 1
   7              		.eabi_attribute 25, 1
   8              		.eabi_attribute 26, 1
   9              		.eabi_attribute 30, 6
  10              		.eabi_attribute 34, 0
  11              		.eabi_attribute 18, 4
  12              		.code	16
  13              		.file	"arm_fir_lattice_q15.c"
  14              		.text
  15              	.Ltext0:
  16              		.cfi_sections	.debug_frame
  17              		.section	.text.arm_fir_lattice_q15,"ax",%progbits
  18              		.align	2
  19              		.global	arm_fir_lattice_q15
  20              		.code	16
  21              		.thumb_func
  22              		.type	arm_fir_lattice_q15, %function
  23              	arm_fir_lattice_q15:
  24              	.LFB82:
  25              		.file 1 "Source\\FilteringFunctions\\arm_fir_lattice_q15.c"
   1:Source\FilteringFunctions/arm_fir_lattice_q15.c **** /* ----------------------------------------------------------------------
   2:Source\FilteringFunctions/arm_fir_lattice_q15.c ****  * Project:      CMSIS DSP Library
   3:Source\FilteringFunctions/arm_fir_lattice_q15.c ****  * Title:        arm_fir_lattice_q15.c
   4:Source\FilteringFunctions/arm_fir_lattice_q15.c ****  * Description:  Q15 FIR lattice filter processing function
   5:Source\FilteringFunctions/arm_fir_lattice_q15.c ****  *
   6:Source\FilteringFunctions/arm_fir_lattice_q15.c ****  * $Date:        27. January 2017
   7:Source\FilteringFunctions/arm_fir_lattice_q15.c ****  * $Revision:    V.1.5.1
   8:Source\FilteringFunctions/arm_fir_lattice_q15.c ****  *
   9:Source\FilteringFunctions/arm_fir_lattice_q15.c ****  * Target Processor: Cortex-M cores
  10:Source\FilteringFunctions/arm_fir_lattice_q15.c ****  * -------------------------------------------------------------------- */
  11:Source\FilteringFunctions/arm_fir_lattice_q15.c **** /*
  12:Source\FilteringFunctions/arm_fir_lattice_q15.c ****  * Copyright (C) 2010-2017 ARM Limited or its affiliates. All rights reserved.
  13:Source\FilteringFunctions/arm_fir_lattice_q15.c ****  *
  14:Source\FilteringFunctions/arm_fir_lattice_q15.c ****  * SPDX-License-Identifier: Apache-2.0
  15:Source\FilteringFunctions/arm_fir_lattice_q15.c ****  *
  16:Source\FilteringFunctions/arm_fir_lattice_q15.c ****  * Licensed under the Apache License, Version 2.0 (the License); you may
  17:Source\FilteringFunctions/arm_fir_lattice_q15.c ****  * not use this file except in compliance with the License.
  18:Source\FilteringFunctions/arm_fir_lattice_q15.c ****  * You may obtain a copy of the License at
  19:Source\FilteringFunctions/arm_fir_lattice_q15.c ****  *
  20:Source\FilteringFunctions/arm_fir_lattice_q15.c ****  * www.apache.org/licenses/LICENSE-2.0
  21:Source\FilteringFunctions/arm_fir_lattice_q15.c ****  *
  22:Source\FilteringFunctions/arm_fir_lattice_q15.c ****  * Unless required by applicable law or agreed to in writing, software
  23:Source\FilteringFunctions/arm_fir_lattice_q15.c ****  * distributed under the License is distributed on an AS IS BASIS, WITHOUT
  24:Source\FilteringFunctions/arm_fir_lattice_q15.c ****  * WARRANTIES OR CONDITIONS OF ANY KIND, either express or implied.
  25:Source\FilteringFunctions/arm_fir_lattice_q15.c ****  * See the License for the specific language governing permissions and
  26:Source\FilteringFunctions/arm_fir_lattice_q15.c ****  * limitations under the License.
  27:Source\FilteringFunctions/arm_fir_lattice_q15.c ****  */
  28:Source\FilteringFunctions/arm_fir_lattice_q15.c **** 
  29:Source\FilteringFunctions/arm_fir_lattice_q15.c **** #include "arm_math.h"
  30:Source\FilteringFunctions/arm_fir_lattice_q15.c **** 
  31:Source\FilteringFunctions/arm_fir_lattice_q15.c **** /**
  32:Source\FilteringFunctions/arm_fir_lattice_q15.c ****  * @ingroup groupFilters
ARM GAS  C:\Users\fneves\AppData\Local\Temp\ccVCDPgb.s 			page 2


  33:Source\FilteringFunctions/arm_fir_lattice_q15.c ****  */
  34:Source\FilteringFunctions/arm_fir_lattice_q15.c **** 
  35:Source\FilteringFunctions/arm_fir_lattice_q15.c **** /**
  36:Source\FilteringFunctions/arm_fir_lattice_q15.c ****  * @addtogroup FIR_Lattice
  37:Source\FilteringFunctions/arm_fir_lattice_q15.c ****  * @{
  38:Source\FilteringFunctions/arm_fir_lattice_q15.c ****  */
  39:Source\FilteringFunctions/arm_fir_lattice_q15.c **** 
  40:Source\FilteringFunctions/arm_fir_lattice_q15.c **** 
  41:Source\FilteringFunctions/arm_fir_lattice_q15.c **** /**
  42:Source\FilteringFunctions/arm_fir_lattice_q15.c ****  * @brief Processing function for the Q15 FIR lattice filter.
  43:Source\FilteringFunctions/arm_fir_lattice_q15.c ****  * @param[in]  *S        points to an instance of the Q15 FIR lattice structure.
  44:Source\FilteringFunctions/arm_fir_lattice_q15.c ****  * @param[in]  *pSrc     points to the block of input data.
  45:Source\FilteringFunctions/arm_fir_lattice_q15.c ****  * @param[out] *pDst     points to the block of output data
  46:Source\FilteringFunctions/arm_fir_lattice_q15.c ****  * @param[in]  blockSize number of samples to process.
  47:Source\FilteringFunctions/arm_fir_lattice_q15.c ****  * @return none.
  48:Source\FilteringFunctions/arm_fir_lattice_q15.c ****  */
  49:Source\FilteringFunctions/arm_fir_lattice_q15.c **** 
  50:Source\FilteringFunctions/arm_fir_lattice_q15.c **** void arm_fir_lattice_q15(
  51:Source\FilteringFunctions/arm_fir_lattice_q15.c ****   const arm_fir_lattice_instance_q15 * S,
  52:Source\FilteringFunctions/arm_fir_lattice_q15.c ****   q15_t * pSrc,
  53:Source\FilteringFunctions/arm_fir_lattice_q15.c ****   q15_t * pDst,
  54:Source\FilteringFunctions/arm_fir_lattice_q15.c ****   uint32_t blockSize)
  55:Source\FilteringFunctions/arm_fir_lattice_q15.c **** {
  26              		.loc 1 55 0
  27              		.cfi_startproc
  28 0000 80B5     		push	{r7, lr}
  29              		.cfi_def_cfa_offset 8
  30              		.cfi_offset 7, -8
  31              		.cfi_offset 14, -4
  32 0002 A8B0     		sub	sp, sp, #160
  33              		.cfi_def_cfa_offset 168
  34 0004 00AF     		add	r7, sp, #0
  35              		.cfi_def_cfa_register 7
  36 0006 F860     		str	r0, [r7, #12]
  37 0008 B960     		str	r1, [r7, #8]
  38 000a 7A60     		str	r2, [r7, #4]
  39 000c 3B60     		str	r3, [r7]
  56:Source\FilteringFunctions/arm_fir_lattice_q15.c ****   q15_t *pState;                                 /* State pointer */
  57:Source\FilteringFunctions/arm_fir_lattice_q15.c ****   q15_t *pCoeffs = S->pCoeffs;                   /* Coefficient pointer */
  40              		.loc 1 57 0
  41 000e FB68     		ldr	r3, [r7, #12]
  42 0010 9B68     		ldr	r3, [r3, #8]
  43 0012 8422     		mov	r2, #132
  44 0014 BA18     		add	r2, r7, r2
  45 0016 1360     		str	r3, [r2]
  58:Source\FilteringFunctions/arm_fir_lattice_q15.c ****   q15_t *px;                                     /* temporary state pointer */
  59:Source\FilteringFunctions/arm_fir_lattice_q15.c ****   q15_t *pk;                                     /* temporary coefficient pointer */
  60:Source\FilteringFunctions/arm_fir_lattice_q15.c **** 
  61:Source\FilteringFunctions/arm_fir_lattice_q15.c **** 
  62:Source\FilteringFunctions/arm_fir_lattice_q15.c **** #if defined (ARM_MATH_DSP)
  63:Source\FilteringFunctions/arm_fir_lattice_q15.c **** 
  64:Source\FilteringFunctions/arm_fir_lattice_q15.c ****   /* Run the below code for Cortex-M4 and Cortex-M3 */
  65:Source\FilteringFunctions/arm_fir_lattice_q15.c **** 
  66:Source\FilteringFunctions/arm_fir_lattice_q15.c ****   q31_t fcurnt1, fnext1, gcurnt1 = 0, gnext1;    /* temporary variables for first sample in loop un
  67:Source\FilteringFunctions/arm_fir_lattice_q15.c ****   q31_t fcurnt2, fnext2, gnext2;                 /* temporary variables for second sample in loop u
  68:Source\FilteringFunctions/arm_fir_lattice_q15.c ****   q31_t fcurnt3, fnext3, gnext3;                 /* temporary variables for third sample in loop un
  69:Source\FilteringFunctions/arm_fir_lattice_q15.c ****   q31_t fcurnt4, fnext4, gnext4;                 /* temporary variables for fourth sample in loop u
ARM GAS  C:\Users\fneves\AppData\Local\Temp\ccVCDPgb.s 			page 3


  70:Source\FilteringFunctions/arm_fir_lattice_q15.c ****   uint32_t numStages = S->numStages;             /* Number of stages in the filter */
  71:Source\FilteringFunctions/arm_fir_lattice_q15.c ****   uint32_t blkCnt, stageCnt;                     /* temporary variables for counts */
  72:Source\FilteringFunctions/arm_fir_lattice_q15.c **** 
  73:Source\FilteringFunctions/arm_fir_lattice_q15.c ****   pState = &S->pState[0];
  74:Source\FilteringFunctions/arm_fir_lattice_q15.c **** 
  75:Source\FilteringFunctions/arm_fir_lattice_q15.c ****   blkCnt = blockSize >> 2u;
  76:Source\FilteringFunctions/arm_fir_lattice_q15.c **** 
  77:Source\FilteringFunctions/arm_fir_lattice_q15.c ****   /* First part of the processing with loop unrolling.  Compute 4 outputs at a time.
  78:Source\FilteringFunctions/arm_fir_lattice_q15.c ****    ** a second loop below computes the remaining 1 to 3 samples. */
  79:Source\FilteringFunctions/arm_fir_lattice_q15.c ****   while (blkCnt > 0u)
  80:Source\FilteringFunctions/arm_fir_lattice_q15.c ****   {
  81:Source\FilteringFunctions/arm_fir_lattice_q15.c **** 
  82:Source\FilteringFunctions/arm_fir_lattice_q15.c ****     /* Read two samples from input buffer */
  83:Source\FilteringFunctions/arm_fir_lattice_q15.c ****     /* f0(n) = x(n) */
  84:Source\FilteringFunctions/arm_fir_lattice_q15.c ****     fcurnt1 = *pSrc++;
  85:Source\FilteringFunctions/arm_fir_lattice_q15.c ****     fcurnt2 = *pSrc++;
  86:Source\FilteringFunctions/arm_fir_lattice_q15.c **** 
  87:Source\FilteringFunctions/arm_fir_lattice_q15.c ****     /* Initialize coeff pointer */
  88:Source\FilteringFunctions/arm_fir_lattice_q15.c ****     pk = (pCoeffs);
  89:Source\FilteringFunctions/arm_fir_lattice_q15.c **** 
  90:Source\FilteringFunctions/arm_fir_lattice_q15.c ****     /* Initialize state pointer */
  91:Source\FilteringFunctions/arm_fir_lattice_q15.c ****     px = pState;
  92:Source\FilteringFunctions/arm_fir_lattice_q15.c **** 
  93:Source\FilteringFunctions/arm_fir_lattice_q15.c ****     /* Read g0(n-1) from state */
  94:Source\FilteringFunctions/arm_fir_lattice_q15.c ****     gcurnt1 = *px;
  95:Source\FilteringFunctions/arm_fir_lattice_q15.c **** 
  96:Source\FilteringFunctions/arm_fir_lattice_q15.c ****     /* Process first sample for first tap */
  97:Source\FilteringFunctions/arm_fir_lattice_q15.c ****     /* f1(n) = f0(n) +  K1 * g0(n-1) */
  98:Source\FilteringFunctions/arm_fir_lattice_q15.c ****     fnext1 = (q31_t) ((gcurnt1 * (*pk)) >> 15u) + fcurnt1;
  99:Source\FilteringFunctions/arm_fir_lattice_q15.c ****     fnext1 = __SSAT(fnext1, 16);
 100:Source\FilteringFunctions/arm_fir_lattice_q15.c **** 
 101:Source\FilteringFunctions/arm_fir_lattice_q15.c ****     /* g1(n) = f0(n) * K1  +  g0(n-1) */
 102:Source\FilteringFunctions/arm_fir_lattice_q15.c ****     gnext1 = (q31_t) ((fcurnt1 * (*pk)) >> 15u) + gcurnt1;
 103:Source\FilteringFunctions/arm_fir_lattice_q15.c ****     gnext1 = __SSAT(gnext1, 16);
 104:Source\FilteringFunctions/arm_fir_lattice_q15.c **** 
 105:Source\FilteringFunctions/arm_fir_lattice_q15.c ****     /* Process second sample for first tap */
 106:Source\FilteringFunctions/arm_fir_lattice_q15.c ****     /* for sample 2 processing */
 107:Source\FilteringFunctions/arm_fir_lattice_q15.c ****     fnext2 = (q31_t) ((fcurnt1 * (*pk)) >> 15u) + fcurnt2;
 108:Source\FilteringFunctions/arm_fir_lattice_q15.c ****     fnext2 = __SSAT(fnext2, 16);
 109:Source\FilteringFunctions/arm_fir_lattice_q15.c **** 
 110:Source\FilteringFunctions/arm_fir_lattice_q15.c ****     gnext2 = (q31_t) ((fcurnt2 * (*pk)) >> 15u) + fcurnt1;
 111:Source\FilteringFunctions/arm_fir_lattice_q15.c ****     gnext2 = __SSAT(gnext2, 16);
 112:Source\FilteringFunctions/arm_fir_lattice_q15.c **** 
 113:Source\FilteringFunctions/arm_fir_lattice_q15.c **** 
 114:Source\FilteringFunctions/arm_fir_lattice_q15.c ****     /* Read next two samples from input buffer */
 115:Source\FilteringFunctions/arm_fir_lattice_q15.c ****     /* f0(n+2) = x(n+2) */
 116:Source\FilteringFunctions/arm_fir_lattice_q15.c ****     fcurnt3 = *pSrc++;
 117:Source\FilteringFunctions/arm_fir_lattice_q15.c ****     fcurnt4 = *pSrc++;
 118:Source\FilteringFunctions/arm_fir_lattice_q15.c **** 
 119:Source\FilteringFunctions/arm_fir_lattice_q15.c ****     /* Copy only last input samples into the state buffer
 120:Source\FilteringFunctions/arm_fir_lattice_q15.c ****        which is used for next four samples processing */
 121:Source\FilteringFunctions/arm_fir_lattice_q15.c ****     *px++ = (q15_t) fcurnt4;
 122:Source\FilteringFunctions/arm_fir_lattice_q15.c **** 
 123:Source\FilteringFunctions/arm_fir_lattice_q15.c ****     /* Process third sample for first tap */
 124:Source\FilteringFunctions/arm_fir_lattice_q15.c ****     fnext3 = (q31_t) ((fcurnt2 * (*pk)) >> 15u) + fcurnt3;
 125:Source\FilteringFunctions/arm_fir_lattice_q15.c ****     fnext3 = __SSAT(fnext3, 16);
 126:Source\FilteringFunctions/arm_fir_lattice_q15.c ****     gnext3 = (q31_t) ((fcurnt3 * (*pk)) >> 15u) + fcurnt2;
ARM GAS  C:\Users\fneves\AppData\Local\Temp\ccVCDPgb.s 			page 4


 127:Source\FilteringFunctions/arm_fir_lattice_q15.c ****     gnext3 = __SSAT(gnext3, 16);
 128:Source\FilteringFunctions/arm_fir_lattice_q15.c **** 
 129:Source\FilteringFunctions/arm_fir_lattice_q15.c ****     /* Process fourth sample for first tap */
 130:Source\FilteringFunctions/arm_fir_lattice_q15.c ****     fnext4 = (q31_t) ((fcurnt3 * (*pk)) >> 15u) + fcurnt4;
 131:Source\FilteringFunctions/arm_fir_lattice_q15.c ****     fnext4 = __SSAT(fnext4, 16);
 132:Source\FilteringFunctions/arm_fir_lattice_q15.c ****     gnext4 = (q31_t) ((fcurnt4 * (*pk++)) >> 15u) + fcurnt3;
 133:Source\FilteringFunctions/arm_fir_lattice_q15.c ****     gnext4 = __SSAT(gnext4, 16);
 134:Source\FilteringFunctions/arm_fir_lattice_q15.c **** 
 135:Source\FilteringFunctions/arm_fir_lattice_q15.c ****     /* Update of f values for next coefficient set processing */
 136:Source\FilteringFunctions/arm_fir_lattice_q15.c ****     fcurnt1 = fnext1;
 137:Source\FilteringFunctions/arm_fir_lattice_q15.c ****     fcurnt2 = fnext2;
 138:Source\FilteringFunctions/arm_fir_lattice_q15.c ****     fcurnt3 = fnext3;
 139:Source\FilteringFunctions/arm_fir_lattice_q15.c ****     fcurnt4 = fnext4;
 140:Source\FilteringFunctions/arm_fir_lattice_q15.c **** 
 141:Source\FilteringFunctions/arm_fir_lattice_q15.c **** 
 142:Source\FilteringFunctions/arm_fir_lattice_q15.c ****     /* Loop unrolling.  Process 4 taps at a time . */
 143:Source\FilteringFunctions/arm_fir_lattice_q15.c ****     stageCnt = (numStages - 1u) >> 2;
 144:Source\FilteringFunctions/arm_fir_lattice_q15.c **** 
 145:Source\FilteringFunctions/arm_fir_lattice_q15.c **** 
 146:Source\FilteringFunctions/arm_fir_lattice_q15.c ****     /* Loop over the number of taps.  Unroll by a factor of 4.
 147:Source\FilteringFunctions/arm_fir_lattice_q15.c ****      ** Repeat until we've computed numStages-3 coefficients. */
 148:Source\FilteringFunctions/arm_fir_lattice_q15.c **** 
 149:Source\FilteringFunctions/arm_fir_lattice_q15.c ****     /* Process 2nd, 3rd, 4th and 5th taps ... here */
 150:Source\FilteringFunctions/arm_fir_lattice_q15.c ****     while (stageCnt > 0u)
 151:Source\FilteringFunctions/arm_fir_lattice_q15.c ****     {
 152:Source\FilteringFunctions/arm_fir_lattice_q15.c ****       /* Read g1(n-1), g3(n-1) .... from state */
 153:Source\FilteringFunctions/arm_fir_lattice_q15.c ****       gcurnt1 = *px;
 154:Source\FilteringFunctions/arm_fir_lattice_q15.c **** 
 155:Source\FilteringFunctions/arm_fir_lattice_q15.c ****       /* save g1(n) in state buffer */
 156:Source\FilteringFunctions/arm_fir_lattice_q15.c ****       *px++ = (q15_t) gnext4;
 157:Source\FilteringFunctions/arm_fir_lattice_q15.c **** 
 158:Source\FilteringFunctions/arm_fir_lattice_q15.c ****       /* Process first sample for 2nd, 6th .. tap */
 159:Source\FilteringFunctions/arm_fir_lattice_q15.c ****       /* Sample processing for K2, K6.... */
 160:Source\FilteringFunctions/arm_fir_lattice_q15.c ****       /* f1(n) = f0(n) +  K1 * g0(n-1) */
 161:Source\FilteringFunctions/arm_fir_lattice_q15.c ****       fnext1 = (q31_t) ((gcurnt1 * (*pk)) >> 15u) + fcurnt1;
 162:Source\FilteringFunctions/arm_fir_lattice_q15.c ****       fnext1 = __SSAT(fnext1, 16);
 163:Source\FilteringFunctions/arm_fir_lattice_q15.c **** 
 164:Source\FilteringFunctions/arm_fir_lattice_q15.c **** 
 165:Source\FilteringFunctions/arm_fir_lattice_q15.c ****       /* Process second sample for 2nd, 6th .. tap */
 166:Source\FilteringFunctions/arm_fir_lattice_q15.c ****       /* for sample 2 processing */
 167:Source\FilteringFunctions/arm_fir_lattice_q15.c ****       fnext2 = (q31_t) ((gnext1 * (*pk)) >> 15u) + fcurnt2;
 168:Source\FilteringFunctions/arm_fir_lattice_q15.c ****       fnext2 = __SSAT(fnext2, 16);
 169:Source\FilteringFunctions/arm_fir_lattice_q15.c ****       /* Process third sample for 2nd, 6th .. tap */
 170:Source\FilteringFunctions/arm_fir_lattice_q15.c ****       fnext3 = (q31_t) ((gnext2 * (*pk)) >> 15u) + fcurnt3;
 171:Source\FilteringFunctions/arm_fir_lattice_q15.c ****       fnext3 = __SSAT(fnext3, 16);
 172:Source\FilteringFunctions/arm_fir_lattice_q15.c ****       /* Process fourth sample for 2nd, 6th .. tap */
 173:Source\FilteringFunctions/arm_fir_lattice_q15.c ****       /* fnext4 = fcurnt4 + (*pk) * gnext3; */
 174:Source\FilteringFunctions/arm_fir_lattice_q15.c ****       fnext4 = (q31_t) ((gnext3 * (*pk)) >> 15u) + fcurnt4;
 175:Source\FilteringFunctions/arm_fir_lattice_q15.c ****       fnext4 = __SSAT(fnext4, 16);
 176:Source\FilteringFunctions/arm_fir_lattice_q15.c **** 
 177:Source\FilteringFunctions/arm_fir_lattice_q15.c ****       /* g1(n) = f0(n) * K1  +  g0(n-1) */
 178:Source\FilteringFunctions/arm_fir_lattice_q15.c ****       /* Calculation of state values for next stage */
 179:Source\FilteringFunctions/arm_fir_lattice_q15.c ****       gnext4 = (q31_t) ((fcurnt4 * (*pk)) >> 15u) + gnext3;
 180:Source\FilteringFunctions/arm_fir_lattice_q15.c ****       gnext4 = __SSAT(gnext4, 16);
 181:Source\FilteringFunctions/arm_fir_lattice_q15.c ****       gnext3 = (q31_t) ((fcurnt3 * (*pk)) >> 15u) + gnext2;
 182:Source\FilteringFunctions/arm_fir_lattice_q15.c ****       gnext3 = __SSAT(gnext3, 16);
 183:Source\FilteringFunctions/arm_fir_lattice_q15.c **** 
ARM GAS  C:\Users\fneves\AppData\Local\Temp\ccVCDPgb.s 			page 5


 184:Source\FilteringFunctions/arm_fir_lattice_q15.c ****       gnext2 = (q31_t) ((fcurnt2 * (*pk)) >> 15u) + gnext1;
 185:Source\FilteringFunctions/arm_fir_lattice_q15.c ****       gnext2 = __SSAT(gnext2, 16);
 186:Source\FilteringFunctions/arm_fir_lattice_q15.c **** 
 187:Source\FilteringFunctions/arm_fir_lattice_q15.c ****       gnext1 = (q31_t) ((fcurnt1 * (*pk++)) >> 15u) + gcurnt1;
 188:Source\FilteringFunctions/arm_fir_lattice_q15.c ****       gnext1 = __SSAT(gnext1, 16);
 189:Source\FilteringFunctions/arm_fir_lattice_q15.c **** 
 190:Source\FilteringFunctions/arm_fir_lattice_q15.c **** 
 191:Source\FilteringFunctions/arm_fir_lattice_q15.c ****       /* Read g2(n-1), g4(n-1) .... from state */
 192:Source\FilteringFunctions/arm_fir_lattice_q15.c ****       gcurnt1 = *px;
 193:Source\FilteringFunctions/arm_fir_lattice_q15.c **** 
 194:Source\FilteringFunctions/arm_fir_lattice_q15.c ****       /* save g1(n) in state buffer */
 195:Source\FilteringFunctions/arm_fir_lattice_q15.c ****       *px++ = (q15_t) gnext4;
 196:Source\FilteringFunctions/arm_fir_lattice_q15.c **** 
 197:Source\FilteringFunctions/arm_fir_lattice_q15.c ****       /* Sample processing for K3, K7.... */
 198:Source\FilteringFunctions/arm_fir_lattice_q15.c ****       /* Process first sample for 3rd, 7th .. tap */
 199:Source\FilteringFunctions/arm_fir_lattice_q15.c ****       /* f3(n) = f2(n) +  K3 * g2(n-1) */
 200:Source\FilteringFunctions/arm_fir_lattice_q15.c ****       fcurnt1 = (q31_t) ((gcurnt1 * (*pk)) >> 15u) + fnext1;
 201:Source\FilteringFunctions/arm_fir_lattice_q15.c ****       fcurnt1 = __SSAT(fcurnt1, 16);
 202:Source\FilteringFunctions/arm_fir_lattice_q15.c **** 
 203:Source\FilteringFunctions/arm_fir_lattice_q15.c ****       /* Process second sample for 3rd, 7th .. tap */
 204:Source\FilteringFunctions/arm_fir_lattice_q15.c ****       fcurnt2 = (q31_t) ((gnext1 * (*pk)) >> 15u) + fnext2;
 205:Source\FilteringFunctions/arm_fir_lattice_q15.c ****       fcurnt2 = __SSAT(fcurnt2, 16);
 206:Source\FilteringFunctions/arm_fir_lattice_q15.c **** 
 207:Source\FilteringFunctions/arm_fir_lattice_q15.c ****       /* Process third sample for 3rd, 7th .. tap */
 208:Source\FilteringFunctions/arm_fir_lattice_q15.c ****       fcurnt3 = (q31_t) ((gnext2 * (*pk)) >> 15u) + fnext3;
 209:Source\FilteringFunctions/arm_fir_lattice_q15.c ****       fcurnt3 = __SSAT(fcurnt3, 16);
 210:Source\FilteringFunctions/arm_fir_lattice_q15.c **** 
 211:Source\FilteringFunctions/arm_fir_lattice_q15.c ****       /* Process fourth sample for 3rd, 7th .. tap */
 212:Source\FilteringFunctions/arm_fir_lattice_q15.c ****       fcurnt4 = (q31_t) ((gnext3 * (*pk)) >> 15u) + fnext4;
 213:Source\FilteringFunctions/arm_fir_lattice_q15.c ****       fcurnt4 = __SSAT(fcurnt4, 16);
 214:Source\FilteringFunctions/arm_fir_lattice_q15.c **** 
 215:Source\FilteringFunctions/arm_fir_lattice_q15.c ****       /* Calculation of state values for next stage */
 216:Source\FilteringFunctions/arm_fir_lattice_q15.c ****       /* g3(n) = f2(n) * K3  +  g2(n-1) */
 217:Source\FilteringFunctions/arm_fir_lattice_q15.c ****       gnext4 = (q31_t) ((fnext4 * (*pk)) >> 15u) + gnext3;
 218:Source\FilteringFunctions/arm_fir_lattice_q15.c ****       gnext4 = __SSAT(gnext4, 16);
 219:Source\FilteringFunctions/arm_fir_lattice_q15.c **** 
 220:Source\FilteringFunctions/arm_fir_lattice_q15.c ****       gnext3 = (q31_t) ((fnext3 * (*pk)) >> 15u) + gnext2;
 221:Source\FilteringFunctions/arm_fir_lattice_q15.c ****       gnext3 = __SSAT(gnext3, 16);
 222:Source\FilteringFunctions/arm_fir_lattice_q15.c **** 
 223:Source\FilteringFunctions/arm_fir_lattice_q15.c ****       gnext2 = (q31_t) ((fnext2 * (*pk)) >> 15u) + gnext1;
 224:Source\FilteringFunctions/arm_fir_lattice_q15.c ****       gnext2 = __SSAT(gnext2, 16);
 225:Source\FilteringFunctions/arm_fir_lattice_q15.c **** 
 226:Source\FilteringFunctions/arm_fir_lattice_q15.c ****       gnext1 = (q31_t) ((fnext1 * (*pk++)) >> 15u) + gcurnt1;
 227:Source\FilteringFunctions/arm_fir_lattice_q15.c ****       gnext1 = __SSAT(gnext1, 16);
 228:Source\FilteringFunctions/arm_fir_lattice_q15.c **** 
 229:Source\FilteringFunctions/arm_fir_lattice_q15.c ****       /* Read g1(n-1), g3(n-1) .... from state */
 230:Source\FilteringFunctions/arm_fir_lattice_q15.c ****       gcurnt1 = *px;
 231:Source\FilteringFunctions/arm_fir_lattice_q15.c **** 
 232:Source\FilteringFunctions/arm_fir_lattice_q15.c ****       /* save g1(n) in state buffer */
 233:Source\FilteringFunctions/arm_fir_lattice_q15.c ****       *px++ = (q15_t) gnext4;
 234:Source\FilteringFunctions/arm_fir_lattice_q15.c **** 
 235:Source\FilteringFunctions/arm_fir_lattice_q15.c ****       /* Sample processing for K4, K8.... */
 236:Source\FilteringFunctions/arm_fir_lattice_q15.c ****       /* Process first sample for 4th, 8th .. tap */
 237:Source\FilteringFunctions/arm_fir_lattice_q15.c ****       /* f4(n) = f3(n) +  K4 * g3(n-1) */
 238:Source\FilteringFunctions/arm_fir_lattice_q15.c ****       fnext1 = (q31_t) ((gcurnt1 * (*pk)) >> 15u) + fcurnt1;
 239:Source\FilteringFunctions/arm_fir_lattice_q15.c ****       fnext1 = __SSAT(fnext1, 16);
 240:Source\FilteringFunctions/arm_fir_lattice_q15.c **** 
ARM GAS  C:\Users\fneves\AppData\Local\Temp\ccVCDPgb.s 			page 6


 241:Source\FilteringFunctions/arm_fir_lattice_q15.c ****       /* Process second sample for 4th, 8th .. tap */
 242:Source\FilteringFunctions/arm_fir_lattice_q15.c ****       /* for sample 2 processing */
 243:Source\FilteringFunctions/arm_fir_lattice_q15.c ****       fnext2 = (q31_t) ((gnext1 * (*pk)) >> 15u) + fcurnt2;
 244:Source\FilteringFunctions/arm_fir_lattice_q15.c ****       fnext2 = __SSAT(fnext2, 16);
 245:Source\FilteringFunctions/arm_fir_lattice_q15.c **** 
 246:Source\FilteringFunctions/arm_fir_lattice_q15.c ****       /* Process third sample for 4th, 8th .. tap */
 247:Source\FilteringFunctions/arm_fir_lattice_q15.c ****       fnext3 = (q31_t) ((gnext2 * (*pk)) >> 15u) + fcurnt3;
 248:Source\FilteringFunctions/arm_fir_lattice_q15.c ****       fnext3 = __SSAT(fnext3, 16);
 249:Source\FilteringFunctions/arm_fir_lattice_q15.c **** 
 250:Source\FilteringFunctions/arm_fir_lattice_q15.c ****       /* Process fourth sample for 4th, 8th .. tap */
 251:Source\FilteringFunctions/arm_fir_lattice_q15.c ****       fnext4 = (q31_t) ((gnext3 * (*pk)) >> 15u) + fcurnt4;
 252:Source\FilteringFunctions/arm_fir_lattice_q15.c ****       fnext4 = __SSAT(fnext4, 16);
 253:Source\FilteringFunctions/arm_fir_lattice_q15.c **** 
 254:Source\FilteringFunctions/arm_fir_lattice_q15.c ****       /* g4(n) = f3(n) * K4  +  g3(n-1) */
 255:Source\FilteringFunctions/arm_fir_lattice_q15.c ****       /* Calculation of state values for next stage */
 256:Source\FilteringFunctions/arm_fir_lattice_q15.c ****       gnext4 = (q31_t) ((fcurnt4 * (*pk)) >> 15u) + gnext3;
 257:Source\FilteringFunctions/arm_fir_lattice_q15.c ****       gnext4 = __SSAT(gnext4, 16);
 258:Source\FilteringFunctions/arm_fir_lattice_q15.c **** 
 259:Source\FilteringFunctions/arm_fir_lattice_q15.c ****       gnext3 = (q31_t) ((fcurnt3 * (*pk)) >> 15u) + gnext2;
 260:Source\FilteringFunctions/arm_fir_lattice_q15.c ****       gnext3 = __SSAT(gnext3, 16);
 261:Source\FilteringFunctions/arm_fir_lattice_q15.c **** 
 262:Source\FilteringFunctions/arm_fir_lattice_q15.c ****       gnext2 = (q31_t) ((fcurnt2 * (*pk)) >> 15u) + gnext1;
 263:Source\FilteringFunctions/arm_fir_lattice_q15.c ****       gnext2 = __SSAT(gnext2, 16);
 264:Source\FilteringFunctions/arm_fir_lattice_q15.c ****       gnext1 = (q31_t) ((fcurnt1 * (*pk++)) >> 15u) + gcurnt1;
 265:Source\FilteringFunctions/arm_fir_lattice_q15.c ****       gnext1 = __SSAT(gnext1, 16);
 266:Source\FilteringFunctions/arm_fir_lattice_q15.c **** 
 267:Source\FilteringFunctions/arm_fir_lattice_q15.c **** 
 268:Source\FilteringFunctions/arm_fir_lattice_q15.c ****       /* Read g2(n-1), g4(n-1) .... from state */
 269:Source\FilteringFunctions/arm_fir_lattice_q15.c ****       gcurnt1 = *px;
 270:Source\FilteringFunctions/arm_fir_lattice_q15.c **** 
 271:Source\FilteringFunctions/arm_fir_lattice_q15.c ****       /* save g4(n) in state buffer */
 272:Source\FilteringFunctions/arm_fir_lattice_q15.c ****       *px++ = (q15_t) gnext4;
 273:Source\FilteringFunctions/arm_fir_lattice_q15.c **** 
 274:Source\FilteringFunctions/arm_fir_lattice_q15.c ****       /* Sample processing for K5, K9.... */
 275:Source\FilteringFunctions/arm_fir_lattice_q15.c ****       /* Process first sample for 5th, 9th .. tap */
 276:Source\FilteringFunctions/arm_fir_lattice_q15.c ****       /* f5(n) = f4(n) +  K5 * g4(n-1) */
 277:Source\FilteringFunctions/arm_fir_lattice_q15.c ****       fcurnt1 = (q31_t) ((gcurnt1 * (*pk)) >> 15u) + fnext1;
 278:Source\FilteringFunctions/arm_fir_lattice_q15.c ****       fcurnt1 = __SSAT(fcurnt1, 16);
 279:Source\FilteringFunctions/arm_fir_lattice_q15.c **** 
 280:Source\FilteringFunctions/arm_fir_lattice_q15.c ****       /* Process second sample for 5th, 9th .. tap */
 281:Source\FilteringFunctions/arm_fir_lattice_q15.c ****       fcurnt2 = (q31_t) ((gnext1 * (*pk)) >> 15u) + fnext2;
 282:Source\FilteringFunctions/arm_fir_lattice_q15.c ****       fcurnt2 = __SSAT(fcurnt2, 16);
 283:Source\FilteringFunctions/arm_fir_lattice_q15.c **** 
 284:Source\FilteringFunctions/arm_fir_lattice_q15.c ****       /* Process third sample for 5th, 9th .. tap */
 285:Source\FilteringFunctions/arm_fir_lattice_q15.c ****       fcurnt3 = (q31_t) ((gnext2 * (*pk)) >> 15u) + fnext3;
 286:Source\FilteringFunctions/arm_fir_lattice_q15.c ****       fcurnt3 = __SSAT(fcurnt3, 16);
 287:Source\FilteringFunctions/arm_fir_lattice_q15.c **** 
 288:Source\FilteringFunctions/arm_fir_lattice_q15.c ****       /* Process fourth sample for 5th, 9th .. tap */
 289:Source\FilteringFunctions/arm_fir_lattice_q15.c ****       fcurnt4 = (q31_t) ((gnext3 * (*pk)) >> 15u) + fnext4;
 290:Source\FilteringFunctions/arm_fir_lattice_q15.c ****       fcurnt4 = __SSAT(fcurnt4, 16);
 291:Source\FilteringFunctions/arm_fir_lattice_q15.c **** 
 292:Source\FilteringFunctions/arm_fir_lattice_q15.c ****       /* Calculation of state values for next stage */
 293:Source\FilteringFunctions/arm_fir_lattice_q15.c ****       /* g5(n) = f4(n) * K5  +  g4(n-1) */
 294:Source\FilteringFunctions/arm_fir_lattice_q15.c ****       gnext4 = (q31_t) ((fnext4 * (*pk)) >> 15u) + gnext3;
 295:Source\FilteringFunctions/arm_fir_lattice_q15.c ****       gnext4 = __SSAT(gnext4, 16);
 296:Source\FilteringFunctions/arm_fir_lattice_q15.c ****       gnext3 = (q31_t) ((fnext3 * (*pk)) >> 15u) + gnext2;
 297:Source\FilteringFunctions/arm_fir_lattice_q15.c ****       gnext3 = __SSAT(gnext3, 16);
ARM GAS  C:\Users\fneves\AppData\Local\Temp\ccVCDPgb.s 			page 7


 298:Source\FilteringFunctions/arm_fir_lattice_q15.c ****       gnext2 = (q31_t) ((fnext2 * (*pk)) >> 15u) + gnext1;
 299:Source\FilteringFunctions/arm_fir_lattice_q15.c ****       gnext2 = __SSAT(gnext2, 16);
 300:Source\FilteringFunctions/arm_fir_lattice_q15.c ****       gnext1 = (q31_t) ((fnext1 * (*pk++)) >> 15u) + gcurnt1;
 301:Source\FilteringFunctions/arm_fir_lattice_q15.c ****       gnext1 = __SSAT(gnext1, 16);
 302:Source\FilteringFunctions/arm_fir_lattice_q15.c **** 
 303:Source\FilteringFunctions/arm_fir_lattice_q15.c ****       stageCnt--;
 304:Source\FilteringFunctions/arm_fir_lattice_q15.c ****     }
 305:Source\FilteringFunctions/arm_fir_lattice_q15.c **** 
 306:Source\FilteringFunctions/arm_fir_lattice_q15.c ****     /* If the (filter length -1) is not a multiple of 4, compute the remaining filter taps */
 307:Source\FilteringFunctions/arm_fir_lattice_q15.c ****     stageCnt = (numStages - 1u) % 0x4u;
 308:Source\FilteringFunctions/arm_fir_lattice_q15.c **** 
 309:Source\FilteringFunctions/arm_fir_lattice_q15.c ****     while (stageCnt > 0u)
 310:Source\FilteringFunctions/arm_fir_lattice_q15.c ****     {
 311:Source\FilteringFunctions/arm_fir_lattice_q15.c ****       gcurnt1 = *px;
 312:Source\FilteringFunctions/arm_fir_lattice_q15.c **** 
 313:Source\FilteringFunctions/arm_fir_lattice_q15.c ****       /* save g value in state buffer */
 314:Source\FilteringFunctions/arm_fir_lattice_q15.c ****       *px++ = (q15_t) gnext4;
 315:Source\FilteringFunctions/arm_fir_lattice_q15.c **** 
 316:Source\FilteringFunctions/arm_fir_lattice_q15.c ****       /* Process four samples for last three taps here */
 317:Source\FilteringFunctions/arm_fir_lattice_q15.c ****       fnext1 = (q31_t) ((gcurnt1 * (*pk)) >> 15u) + fcurnt1;
 318:Source\FilteringFunctions/arm_fir_lattice_q15.c ****       fnext1 = __SSAT(fnext1, 16);
 319:Source\FilteringFunctions/arm_fir_lattice_q15.c ****       fnext2 = (q31_t) ((gnext1 * (*pk)) >> 15u) + fcurnt2;
 320:Source\FilteringFunctions/arm_fir_lattice_q15.c ****       fnext2 = __SSAT(fnext2, 16);
 321:Source\FilteringFunctions/arm_fir_lattice_q15.c **** 
 322:Source\FilteringFunctions/arm_fir_lattice_q15.c ****       fnext3 = (q31_t) ((gnext2 * (*pk)) >> 15u) + fcurnt3;
 323:Source\FilteringFunctions/arm_fir_lattice_q15.c ****       fnext3 = __SSAT(fnext3, 16);
 324:Source\FilteringFunctions/arm_fir_lattice_q15.c **** 
 325:Source\FilteringFunctions/arm_fir_lattice_q15.c ****       fnext4 = (q31_t) ((gnext3 * (*pk)) >> 15u) + fcurnt4;
 326:Source\FilteringFunctions/arm_fir_lattice_q15.c ****       fnext4 = __SSAT(fnext4, 16);
 327:Source\FilteringFunctions/arm_fir_lattice_q15.c **** 
 328:Source\FilteringFunctions/arm_fir_lattice_q15.c ****       /* g1(n) = f0(n) * K1  +  g0(n-1) */
 329:Source\FilteringFunctions/arm_fir_lattice_q15.c ****       gnext4 = (q31_t) ((fcurnt4 * (*pk)) >> 15u) + gnext3;
 330:Source\FilteringFunctions/arm_fir_lattice_q15.c ****       gnext4 = __SSAT(gnext4, 16);
 331:Source\FilteringFunctions/arm_fir_lattice_q15.c ****       gnext3 = (q31_t) ((fcurnt3 * (*pk)) >> 15u) + gnext2;
 332:Source\FilteringFunctions/arm_fir_lattice_q15.c ****       gnext3 = __SSAT(gnext3, 16);
 333:Source\FilteringFunctions/arm_fir_lattice_q15.c ****       gnext2 = (q31_t) ((fcurnt2 * (*pk)) >> 15u) + gnext1;
 334:Source\FilteringFunctions/arm_fir_lattice_q15.c ****       gnext2 = __SSAT(gnext2, 16);
 335:Source\FilteringFunctions/arm_fir_lattice_q15.c ****       gnext1 = (q31_t) ((fcurnt1 * (*pk++)) >> 15u) + gcurnt1;
 336:Source\FilteringFunctions/arm_fir_lattice_q15.c ****       gnext1 = __SSAT(gnext1, 16);
 337:Source\FilteringFunctions/arm_fir_lattice_q15.c **** 
 338:Source\FilteringFunctions/arm_fir_lattice_q15.c ****       /* Update of f values for next coefficient set processing */
 339:Source\FilteringFunctions/arm_fir_lattice_q15.c ****       fcurnt1 = fnext1;
 340:Source\FilteringFunctions/arm_fir_lattice_q15.c ****       fcurnt2 = fnext2;
 341:Source\FilteringFunctions/arm_fir_lattice_q15.c ****       fcurnt3 = fnext3;
 342:Source\FilteringFunctions/arm_fir_lattice_q15.c ****       fcurnt4 = fnext4;
 343:Source\FilteringFunctions/arm_fir_lattice_q15.c **** 
 344:Source\FilteringFunctions/arm_fir_lattice_q15.c ****       stageCnt--;
 345:Source\FilteringFunctions/arm_fir_lattice_q15.c **** 
 346:Source\FilteringFunctions/arm_fir_lattice_q15.c ****     }
 347:Source\FilteringFunctions/arm_fir_lattice_q15.c **** 
 348:Source\FilteringFunctions/arm_fir_lattice_q15.c ****     /* The results in the 4 accumulators, store in the destination buffer. */
 349:Source\FilteringFunctions/arm_fir_lattice_q15.c ****     /* y(n) = fN(n) */
 350:Source\FilteringFunctions/arm_fir_lattice_q15.c **** 
 351:Source\FilteringFunctions/arm_fir_lattice_q15.c **** #ifndef  ARM_MATH_BIG_ENDIAN
 352:Source\FilteringFunctions/arm_fir_lattice_q15.c **** 
 353:Source\FilteringFunctions/arm_fir_lattice_q15.c ****     *__SIMD32(pDst)++ = __PKHBT(fcurnt1, fcurnt2, 16);
 354:Source\FilteringFunctions/arm_fir_lattice_q15.c ****     *__SIMD32(pDst)++ = __PKHBT(fcurnt3, fcurnt4, 16);
ARM GAS  C:\Users\fneves\AppData\Local\Temp\ccVCDPgb.s 			page 8


 355:Source\FilteringFunctions/arm_fir_lattice_q15.c **** 
 356:Source\FilteringFunctions/arm_fir_lattice_q15.c **** #else
 357:Source\FilteringFunctions/arm_fir_lattice_q15.c **** 
 358:Source\FilteringFunctions/arm_fir_lattice_q15.c ****     *__SIMD32(pDst)++ = __PKHBT(fcurnt2, fcurnt1, 16);
 359:Source\FilteringFunctions/arm_fir_lattice_q15.c ****     *__SIMD32(pDst)++ = __PKHBT(fcurnt4, fcurnt3, 16);
 360:Source\FilteringFunctions/arm_fir_lattice_q15.c **** 
 361:Source\FilteringFunctions/arm_fir_lattice_q15.c **** #endif /*      #ifndef  ARM_MATH_BIG_ENDIAN    */
 362:Source\FilteringFunctions/arm_fir_lattice_q15.c **** 
 363:Source\FilteringFunctions/arm_fir_lattice_q15.c ****     blkCnt--;
 364:Source\FilteringFunctions/arm_fir_lattice_q15.c ****   }
 365:Source\FilteringFunctions/arm_fir_lattice_q15.c **** 
 366:Source\FilteringFunctions/arm_fir_lattice_q15.c ****   /* If the blockSize is not a multiple of 4, compute any remaining output samples here.
 367:Source\FilteringFunctions/arm_fir_lattice_q15.c ****    ** No loop unrolling is used. */
 368:Source\FilteringFunctions/arm_fir_lattice_q15.c ****   blkCnt = blockSize % 0x4u;
 369:Source\FilteringFunctions/arm_fir_lattice_q15.c **** 
 370:Source\FilteringFunctions/arm_fir_lattice_q15.c ****   while (blkCnt > 0u)
 371:Source\FilteringFunctions/arm_fir_lattice_q15.c ****   {
 372:Source\FilteringFunctions/arm_fir_lattice_q15.c ****     /* f0(n) = x(n) */
 373:Source\FilteringFunctions/arm_fir_lattice_q15.c ****     fcurnt1 = *pSrc++;
 374:Source\FilteringFunctions/arm_fir_lattice_q15.c **** 
 375:Source\FilteringFunctions/arm_fir_lattice_q15.c ****     /* Initialize coeff pointer */
 376:Source\FilteringFunctions/arm_fir_lattice_q15.c ****     pk = (pCoeffs);
 377:Source\FilteringFunctions/arm_fir_lattice_q15.c **** 
 378:Source\FilteringFunctions/arm_fir_lattice_q15.c ****     /* Initialize state pointer */
 379:Source\FilteringFunctions/arm_fir_lattice_q15.c ****     px = pState;
 380:Source\FilteringFunctions/arm_fir_lattice_q15.c **** 
 381:Source\FilteringFunctions/arm_fir_lattice_q15.c ****     /* read g2(n) from state buffer */
 382:Source\FilteringFunctions/arm_fir_lattice_q15.c ****     gcurnt1 = *px;
 383:Source\FilteringFunctions/arm_fir_lattice_q15.c **** 
 384:Source\FilteringFunctions/arm_fir_lattice_q15.c ****     /* for sample 1 processing */
 385:Source\FilteringFunctions/arm_fir_lattice_q15.c ****     /* f1(n) = f0(n) +  K1 * g0(n-1) */
 386:Source\FilteringFunctions/arm_fir_lattice_q15.c ****     fnext1 = (((q31_t) gcurnt1 * (*pk)) >> 15u) + fcurnt1;
 387:Source\FilteringFunctions/arm_fir_lattice_q15.c ****     fnext1 = __SSAT(fnext1, 16);
 388:Source\FilteringFunctions/arm_fir_lattice_q15.c **** 
 389:Source\FilteringFunctions/arm_fir_lattice_q15.c **** 
 390:Source\FilteringFunctions/arm_fir_lattice_q15.c ****     /* g1(n) = f0(n) * K1  +  g0(n-1) */
 391:Source\FilteringFunctions/arm_fir_lattice_q15.c ****     gnext1 = (((q31_t) fcurnt1 * (*pk++)) >> 15u) + gcurnt1;
 392:Source\FilteringFunctions/arm_fir_lattice_q15.c ****     gnext1 = __SSAT(gnext1, 16);
 393:Source\FilteringFunctions/arm_fir_lattice_q15.c **** 
 394:Source\FilteringFunctions/arm_fir_lattice_q15.c ****     /* save g1(n) in state buffer */
 395:Source\FilteringFunctions/arm_fir_lattice_q15.c ****     *px++ = (q15_t) fcurnt1;
 396:Source\FilteringFunctions/arm_fir_lattice_q15.c **** 
 397:Source\FilteringFunctions/arm_fir_lattice_q15.c ****     /* f1(n) is saved in fcurnt1
 398:Source\FilteringFunctions/arm_fir_lattice_q15.c ****        for next stage processing */
 399:Source\FilteringFunctions/arm_fir_lattice_q15.c ****     fcurnt1 = fnext1;
 400:Source\FilteringFunctions/arm_fir_lattice_q15.c **** 
 401:Source\FilteringFunctions/arm_fir_lattice_q15.c ****     stageCnt = (numStages - 1u);
 402:Source\FilteringFunctions/arm_fir_lattice_q15.c **** 
 403:Source\FilteringFunctions/arm_fir_lattice_q15.c ****     /* stage loop */
 404:Source\FilteringFunctions/arm_fir_lattice_q15.c ****     while (stageCnt > 0u)
 405:Source\FilteringFunctions/arm_fir_lattice_q15.c ****     {
 406:Source\FilteringFunctions/arm_fir_lattice_q15.c ****       /* read g2(n) from state buffer */
 407:Source\FilteringFunctions/arm_fir_lattice_q15.c ****       gcurnt1 = *px;
 408:Source\FilteringFunctions/arm_fir_lattice_q15.c **** 
 409:Source\FilteringFunctions/arm_fir_lattice_q15.c ****       /* save g1(n) in state buffer */
 410:Source\FilteringFunctions/arm_fir_lattice_q15.c ****       *px++ = (q15_t) gnext1;
 411:Source\FilteringFunctions/arm_fir_lattice_q15.c **** 
ARM GAS  C:\Users\fneves\AppData\Local\Temp\ccVCDPgb.s 			page 9


 412:Source\FilteringFunctions/arm_fir_lattice_q15.c ****       /* Sample processing for K2, K3.... */
 413:Source\FilteringFunctions/arm_fir_lattice_q15.c ****       /* f2(n) = f1(n) +  K2 * g1(n-1) */
 414:Source\FilteringFunctions/arm_fir_lattice_q15.c ****       fnext1 = (((q31_t) gcurnt1 * (*pk)) >> 15u) + fcurnt1;
 415:Source\FilteringFunctions/arm_fir_lattice_q15.c ****       fnext1 = __SSAT(fnext1, 16);
 416:Source\FilteringFunctions/arm_fir_lattice_q15.c **** 
 417:Source\FilteringFunctions/arm_fir_lattice_q15.c ****       /* g2(n) = f1(n) * K2  +  g1(n-1) */
 418:Source\FilteringFunctions/arm_fir_lattice_q15.c ****       gnext1 = (((q31_t) fcurnt1 * (*pk++)) >> 15u) + gcurnt1;
 419:Source\FilteringFunctions/arm_fir_lattice_q15.c ****       gnext1 = __SSAT(gnext1, 16);
 420:Source\FilteringFunctions/arm_fir_lattice_q15.c **** 
 421:Source\FilteringFunctions/arm_fir_lattice_q15.c **** 
 422:Source\FilteringFunctions/arm_fir_lattice_q15.c ****       /* f1(n) is saved in fcurnt1
 423:Source\FilteringFunctions/arm_fir_lattice_q15.c ****          for next stage processing */
 424:Source\FilteringFunctions/arm_fir_lattice_q15.c ****       fcurnt1 = fnext1;
 425:Source\FilteringFunctions/arm_fir_lattice_q15.c **** 
 426:Source\FilteringFunctions/arm_fir_lattice_q15.c ****       stageCnt--;
 427:Source\FilteringFunctions/arm_fir_lattice_q15.c **** 
 428:Source\FilteringFunctions/arm_fir_lattice_q15.c ****     }
 429:Source\FilteringFunctions/arm_fir_lattice_q15.c **** 
 430:Source\FilteringFunctions/arm_fir_lattice_q15.c ****     /* y(n) = fN(n) */
 431:Source\FilteringFunctions/arm_fir_lattice_q15.c ****     *pDst++ = __SSAT(fcurnt1, 16);
 432:Source\FilteringFunctions/arm_fir_lattice_q15.c **** 
 433:Source\FilteringFunctions/arm_fir_lattice_q15.c **** 
 434:Source\FilteringFunctions/arm_fir_lattice_q15.c ****     blkCnt--;
 435:Source\FilteringFunctions/arm_fir_lattice_q15.c **** 
 436:Source\FilteringFunctions/arm_fir_lattice_q15.c ****   }
 437:Source\FilteringFunctions/arm_fir_lattice_q15.c **** 
 438:Source\FilteringFunctions/arm_fir_lattice_q15.c **** #else
 439:Source\FilteringFunctions/arm_fir_lattice_q15.c **** 
 440:Source\FilteringFunctions/arm_fir_lattice_q15.c ****   /* Run the below code for Cortex-M0 */
 441:Source\FilteringFunctions/arm_fir_lattice_q15.c **** 
 442:Source\FilteringFunctions/arm_fir_lattice_q15.c ****   q31_t fcurnt, fnext, gcurnt, gnext;            /* temporary variables */
 443:Source\FilteringFunctions/arm_fir_lattice_q15.c ****   uint32_t numStages = S->numStages;             /* Length of the filter */
  46              		.loc 1 443 0
  47 0018 FB68     		ldr	r3, [r7, #12]
  48 001a 1B88     		ldrh	r3, [r3]
  49 001c 8022     		mov	r2, #128
  50 001e BA18     		add	r2, r7, r2
  51 0020 1360     		str	r3, [r2]
 444:Source\FilteringFunctions/arm_fir_lattice_q15.c ****   uint32_t blkCnt, stageCnt;                     /* temporary variables for counts */
 445:Source\FilteringFunctions/arm_fir_lattice_q15.c **** 
 446:Source\FilteringFunctions/arm_fir_lattice_q15.c ****   pState = &S->pState[0];
  52              		.loc 1 446 0
  53 0022 FB68     		ldr	r3, [r7, #12]
  54 0024 5B68     		ldr	r3, [r3, #4]
  55 0026 FB67     		str	r3, [r7, #124]
 447:Source\FilteringFunctions/arm_fir_lattice_q15.c **** 
 448:Source\FilteringFunctions/arm_fir_lattice_q15.c ****   blkCnt = blockSize;
  56              		.loc 1 448 0
  57 0028 3B68     		ldr	r3, [r7]
  58 002a 8C22     		mov	r2, #140
  59 002c BA18     		add	r2, r7, r2
  60 002e 1360     		str	r3, [r2]
 449:Source\FilteringFunctions/arm_fir_lattice_q15.c **** 
 450:Source\FilteringFunctions/arm_fir_lattice_q15.c ****   while (blkCnt > 0u)
  61              		.loc 1 450 0
  62 0030 8DE1     		b	.L2
  63              	.L35:
ARM GAS  C:\Users\fneves\AppData\Local\Temp\ccVCDPgb.s 			page 10


 451:Source\FilteringFunctions/arm_fir_lattice_q15.c ****   {
 452:Source\FilteringFunctions/arm_fir_lattice_q15.c ****     /* f0(n) = x(n) */
 453:Source\FilteringFunctions/arm_fir_lattice_q15.c ****     fcurnt = *pSrc++;
  64              		.loc 1 453 0
  65 0032 BB68     		ldr	r3, [r7, #8]
  66 0034 9A1C     		add	r2, r3, #2
  67 0036 BA60     		str	r2, [r7, #8]
  68 0038 1B88     		ldrh	r3, [r3]
  69 003a 1BB2     		sxth	r3, r3
  70 003c 9422     		mov	r2, #148
  71 003e BA18     		add	r2, r7, r2
  72 0040 1360     		str	r3, [r2]
 454:Source\FilteringFunctions/arm_fir_lattice_q15.c **** 
 455:Source\FilteringFunctions/arm_fir_lattice_q15.c ****     /* Initialize coeff pointer */
 456:Source\FilteringFunctions/arm_fir_lattice_q15.c ****     pk = (pCoeffs);
  73              		.loc 1 456 0
  74 0042 8423     		mov	r3, #132
  75 0044 FB18     		add	r3, r7, r3
  76 0046 1B68     		ldr	r3, [r3]
  77 0048 9822     		mov	r2, #152
  78 004a BA18     		add	r2, r7, r2
  79 004c 1360     		str	r3, [r2]
 457:Source\FilteringFunctions/arm_fir_lattice_q15.c **** 
 458:Source\FilteringFunctions/arm_fir_lattice_q15.c ****     /* Initialize state pointer */
 459:Source\FilteringFunctions/arm_fir_lattice_q15.c ****     px = pState;
  80              		.loc 1 459 0
  81 004e FB6F     		ldr	r3, [r7, #124]
  82 0050 9C22     		mov	r2, #156
  83 0052 BA18     		add	r2, r7, r2
  84 0054 1360     		str	r3, [r2]
 460:Source\FilteringFunctions/arm_fir_lattice_q15.c **** 
 461:Source\FilteringFunctions/arm_fir_lattice_q15.c ****     /* read g0(n-1) from state buffer */
 462:Source\FilteringFunctions/arm_fir_lattice_q15.c ****     gcurnt = *px;
  85              		.loc 1 462 0
  86 0056 9C23     		mov	r3, #156
  87 0058 FB18     		add	r3, r7, r3
  88 005a 1B68     		ldr	r3, [r3]
  89 005c 1B88     		ldrh	r3, [r3]
  90 005e 1BB2     		sxth	r3, r3
  91 0060 BB67     		str	r3, [r7, #120]
 463:Source\FilteringFunctions/arm_fir_lattice_q15.c **** 
 464:Source\FilteringFunctions/arm_fir_lattice_q15.c ****     /* for sample 1 processing */
 465:Source\FilteringFunctions/arm_fir_lattice_q15.c ****     /* f1(n) = f0(n) +  K1 * g0(n-1) */
 466:Source\FilteringFunctions/arm_fir_lattice_q15.c ****     fnext = ((gcurnt * (*pk)) >> 15u) + fcurnt;
  92              		.loc 1 466 0
  93 0062 9823     		mov	r3, #152
  94 0064 FB18     		add	r3, r7, r3
  95 0066 1B68     		ldr	r3, [r3]
  96 0068 1B88     		ldrh	r3, [r3]
  97 006a 1BB2     		sxth	r3, r3
  98 006c BA6F     		ldr	r2, [r7, #120]
  99 006e 5343     		mul	r3, r2
 100 0070 DA13     		asr	r2, r3, #15
 101 0072 9423     		mov	r3, #148
 102 0074 FB18     		add	r3, r7, r3
 103 0076 1B68     		ldr	r3, [r3]
 104 0078 D318     		add	r3, r2, r3
ARM GAS  C:\Users\fneves\AppData\Local\Temp\ccVCDPgb.s 			page 11


 105 007a 7B67     		str	r3, [r7, #116]
 106 007c 7B6F     		ldr	r3, [r7, #116]
 107 007e 3B67     		str	r3, [r7, #112]
 108 0080 1023     		mov	r3, #16
 109 0082 FB66     		str	r3, [r7, #108]
 110              	.LBB12:
 111              	.LBB13:
 112              		.file 2 ".\\Include/arm_math.h"
   1:.\Include/arm_math.h **** /* ----------------------------------------------------------------------
   2:.\Include/arm_math.h ****  * Project:      CMSIS DSP Library
   3:.\Include/arm_math.h ****  * Title:        arm_math.h
   4:.\Include/arm_math.h ****  * Description:  Public header file for CMSIS DSP Library
   5:.\Include/arm_math.h ****  *
   6:.\Include/arm_math.h ****  * $Date:        27. January 2017
   7:.\Include/arm_math.h ****  * $Revision:    V.1.5.1
   8:.\Include/arm_math.h ****  *
   9:.\Include/arm_math.h ****  * Target Processor: Cortex-M cores
  10:.\Include/arm_math.h ****  * -------------------------------------------------------------------- */
  11:.\Include/arm_math.h **** /*
  12:.\Include/arm_math.h ****  * Copyright (C) 2010-2017 ARM Limited or its affiliates. All rights reserved.
  13:.\Include/arm_math.h ****  *
  14:.\Include/arm_math.h ****  * SPDX-License-Identifier: Apache-2.0
  15:.\Include/arm_math.h ****  *
  16:.\Include/arm_math.h ****  * Licensed under the Apache License, Version 2.0 (the License); you may
  17:.\Include/arm_math.h ****  * not use this file except in compliance with the License.
  18:.\Include/arm_math.h ****  * You may obtain a copy of the License at
  19:.\Include/arm_math.h ****  *
  20:.\Include/arm_math.h ****  * www.apache.org/licenses/LICENSE-2.0
  21:.\Include/arm_math.h ****  *
  22:.\Include/arm_math.h ****  * Unless required by applicable law or agreed to in writing, software
  23:.\Include/arm_math.h ****  * distributed under the License is distributed on an AS IS BASIS, WITHOUT
  24:.\Include/arm_math.h ****  * WARRANTIES OR CONDITIONS OF ANY KIND, either express or implied.
  25:.\Include/arm_math.h ****  * See the License for the specific language governing permissions and
  26:.\Include/arm_math.h ****  * limitations under the License.
  27:.\Include/arm_math.h ****  */
  28:.\Include/arm_math.h **** 
  29:.\Include/arm_math.h **** /**
  30:.\Include/arm_math.h ****    \mainpage CMSIS DSP Software Library
  31:.\Include/arm_math.h ****    *
  32:.\Include/arm_math.h ****    * Introduction
  33:.\Include/arm_math.h ****    * ------------
  34:.\Include/arm_math.h ****    *
  35:.\Include/arm_math.h ****    * This user manual describes the CMSIS DSP software library,
  36:.\Include/arm_math.h ****    * a suite of common signal processing functions for use on Cortex-M processor based devices.
  37:.\Include/arm_math.h ****    *
  38:.\Include/arm_math.h ****    * The library is divided into a number of functions each covering a specific category:
  39:.\Include/arm_math.h ****    * - Basic math functions
  40:.\Include/arm_math.h ****    * - Fast math functions
  41:.\Include/arm_math.h ****    * - Complex math functions
  42:.\Include/arm_math.h ****    * - Filters
  43:.\Include/arm_math.h ****    * - Matrix functions
  44:.\Include/arm_math.h ****    * - Transforms
  45:.\Include/arm_math.h ****    * - Motor control functions
  46:.\Include/arm_math.h ****    * - Statistical functions
  47:.\Include/arm_math.h ****    * - Support functions
  48:.\Include/arm_math.h ****    * - Interpolation functions
  49:.\Include/arm_math.h ****    *
ARM GAS  C:\Users\fneves\AppData\Local\Temp\ccVCDPgb.s 			page 12


  50:.\Include/arm_math.h ****    * The library has separate functions for operating on 8-bit integers, 16-bit integers,
  51:.\Include/arm_math.h ****    * 32-bit integer and 32-bit floating-point values.
  52:.\Include/arm_math.h ****    *
  53:.\Include/arm_math.h ****    * Using the Library
  54:.\Include/arm_math.h ****    * ------------
  55:.\Include/arm_math.h ****    *
  56:.\Include/arm_math.h ****    * The library installer contains prebuilt versions of the libraries in the <code>Lib</code> fold
  57:.\Include/arm_math.h ****    * - arm_cortexM7lfdp_math.lib (Cortex-M7, Little endian, Double Precision Floating Point Unit)
  58:.\Include/arm_math.h ****    * - arm_cortexM7bfdp_math.lib (Cortex-M7, Big endian, Double Precision Floating Point Unit)
  59:.\Include/arm_math.h ****    * - arm_cortexM7lfsp_math.lib (Cortex-M7, Little endian, Single Precision Floating Point Unit)
  60:.\Include/arm_math.h ****    * - arm_cortexM7bfsp_math.lib (Cortex-M7, Big endian and Single Precision Floating Point Unit on
  61:.\Include/arm_math.h ****    * - arm_cortexM7l_math.lib (Cortex-M7, Little endian)
  62:.\Include/arm_math.h ****    * - arm_cortexM7b_math.lib (Cortex-M7, Big endian)
  63:.\Include/arm_math.h ****    * - arm_cortexM4lf_math.lib (Cortex-M4, Little endian, Floating Point Unit)
  64:.\Include/arm_math.h ****    * - arm_cortexM4bf_math.lib (Cortex-M4, Big endian, Floating Point Unit)
  65:.\Include/arm_math.h ****    * - arm_cortexM4l_math.lib (Cortex-M4, Little endian)
  66:.\Include/arm_math.h ****    * - arm_cortexM4b_math.lib (Cortex-M4, Big endian)
  67:.\Include/arm_math.h ****    * - arm_cortexM3l_math.lib (Cortex-M3, Little endian)
  68:.\Include/arm_math.h ****    * - arm_cortexM3b_math.lib (Cortex-M3, Big endian)
  69:.\Include/arm_math.h ****    * - arm_cortexM0l_math.lib (Cortex-M0 / Cortex-M0+, Little endian)
  70:.\Include/arm_math.h ****    * - arm_cortexM0b_math.lib (Cortex-M0 / Cortex-M0+, Big endian)
  71:.\Include/arm_math.h ****    * - arm_ARMv8MBLl_math.lib (ARMv8M Baseline, Little endian)
  72:.\Include/arm_math.h ****    * - arm_ARMv8MMLl_math.lib (ARMv8M Mainline, Little endian)
  73:.\Include/arm_math.h ****    * - arm_ARMv8MMLlfsp_math.lib (ARMv8M Mainline, Little endian, Single Precision Floating Point U
  74:.\Include/arm_math.h ****    * - arm_ARMv8MMLld_math.lib (ARMv8M Mainline, Little endian, DSP instructions)
  75:.\Include/arm_math.h ****    * - arm_ARMv8MMLldfsp_math.lib (ARMv8M Mainline, Little endian, DSP instructions, Single Precisi
  76:.\Include/arm_math.h ****    *
  77:.\Include/arm_math.h ****    * The library functions are declared in the public file <code>arm_math.h</code> which is placed 
  78:.\Include/arm_math.h ****    * Simply include this file and link the appropriate library in the application and begin calling
  79:.\Include/arm_math.h ****    * public header file <code> arm_math.h</code> for Cortex-M cores with little endian and big endi
  80:.\Include/arm_math.h ****    * Define the appropriate pre processor MACRO ARM_MATH_CM7 or ARM_MATH_CM4 or  ARM_MATH_CM3 or
  81:.\Include/arm_math.h ****    * ARM_MATH_CM0 or ARM_MATH_CM0PLUS depending on the target processor in the application.
  82:.\Include/arm_math.h ****    * For ARMv8M cores define pre processor MACRO ARM_MATH_ARMV8MBL or ARM_MATH_ARMV8MML.
  83:.\Include/arm_math.h ****    * Set Pre processor MACRO __DSP_PRESENT if ARMv8M Mainline core supports DSP instructions.
  84:.\Include/arm_math.h ****    * 
  85:.\Include/arm_math.h ****    *
  86:.\Include/arm_math.h ****    * Examples
  87:.\Include/arm_math.h ****    * --------
  88:.\Include/arm_math.h ****    *
  89:.\Include/arm_math.h ****    * The library ships with a number of examples which demonstrate how to use the library functions
  90:.\Include/arm_math.h ****    *
  91:.\Include/arm_math.h ****    * Toolchain Support
  92:.\Include/arm_math.h ****    * ------------
  93:.\Include/arm_math.h ****    *
  94:.\Include/arm_math.h ****    * The library has been developed and tested with MDK-ARM version 5.14.0.0
  95:.\Include/arm_math.h ****    * The library is being tested in GCC and IAR toolchains and updates on this activity will be mad
  96:.\Include/arm_math.h ****    *
  97:.\Include/arm_math.h ****    * Building the Library
  98:.\Include/arm_math.h ****    * ------------
  99:.\Include/arm_math.h ****    *
 100:.\Include/arm_math.h ****    * The library installer contains a project file to re build libraries on MDK-ARM Tool chain in t
 101:.\Include/arm_math.h ****    * - arm_cortexM_math.uvprojx
 102:.\Include/arm_math.h ****    *
 103:.\Include/arm_math.h ****    *
 104:.\Include/arm_math.h ****    * The libraries can be built by opening the arm_cortexM_math.uvprojx project in MDK-ARM, selecti
 105:.\Include/arm_math.h ****    *
 106:.\Include/arm_math.h ****    * Pre-processor Macros
ARM GAS  C:\Users\fneves\AppData\Local\Temp\ccVCDPgb.s 			page 13


 107:.\Include/arm_math.h ****    * ------------
 108:.\Include/arm_math.h ****    *
 109:.\Include/arm_math.h ****    * Each library project have differant pre-processor macros.
 110:.\Include/arm_math.h ****    *
 111:.\Include/arm_math.h ****    * - UNALIGNED_SUPPORT_DISABLE:
 112:.\Include/arm_math.h ****    *
 113:.\Include/arm_math.h ****    * Define macro UNALIGNED_SUPPORT_DISABLE, If the silicon does not support unaligned memory acces
 114:.\Include/arm_math.h ****    *
 115:.\Include/arm_math.h ****    * - ARM_MATH_BIG_ENDIAN:
 116:.\Include/arm_math.h ****    *
 117:.\Include/arm_math.h ****    * Define macro ARM_MATH_BIG_ENDIAN to build the library for big endian targets. By default libra
 118:.\Include/arm_math.h ****    *
 119:.\Include/arm_math.h ****    * - ARM_MATH_MATRIX_CHECK:
 120:.\Include/arm_math.h ****    *
 121:.\Include/arm_math.h ****    * Define macro ARM_MATH_MATRIX_CHECK for checking on the input and output sizes of matrices
 122:.\Include/arm_math.h ****    *
 123:.\Include/arm_math.h ****    * - ARM_MATH_ROUNDING:
 124:.\Include/arm_math.h ****    *
 125:.\Include/arm_math.h ****    * Define macro ARM_MATH_ROUNDING for rounding on support functions
 126:.\Include/arm_math.h ****    *
 127:.\Include/arm_math.h ****    * - ARM_MATH_CMx:
 128:.\Include/arm_math.h ****    *
 129:.\Include/arm_math.h ****    * Define macro ARM_MATH_CM4 for building the library on Cortex-M4 target, ARM_MATH_CM3 for build
 130:.\Include/arm_math.h ****    * and ARM_MATH_CM0 for building library on Cortex-M0 target, ARM_MATH_CM0PLUS for building libra
 131:.\Include/arm_math.h ****    * ARM_MATH_CM7 for building the library on cortex-M7.
 132:.\Include/arm_math.h ****    *
 133:.\Include/arm_math.h ****    * - ARM_MATH_ARMV8MxL:
 134:.\Include/arm_math.h ****    *
 135:.\Include/arm_math.h ****    * Define macro ARM_MATH_ARMV8MBL for building the library on ARMv8M Baseline target, ARM_MATH_AR
 136:.\Include/arm_math.h ****    * on ARMv8M Mainline target.
 137:.\Include/arm_math.h ****    *
 138:.\Include/arm_math.h ****    * - __FPU_PRESENT:
 139:.\Include/arm_math.h ****    *
 140:.\Include/arm_math.h ****    * Initialize macro __FPU_PRESENT = 1 when building on FPU supported Targets. Enable this macro f
 141:.\Include/arm_math.h ****    *
 142:.\Include/arm_math.h ****    * - __DSP_PRESENT:
 143:.\Include/arm_math.h ****    *
 144:.\Include/arm_math.h ****    * Initialize macro __DSP_PRESENT = 1 when ARMv8M Mainline core supports DSP instructions.
 145:.\Include/arm_math.h ****    *
 146:.\Include/arm_math.h ****    * <hr>
 147:.\Include/arm_math.h ****    * CMSIS-DSP in ARM::CMSIS Pack
 148:.\Include/arm_math.h ****    * -----------------------------
 149:.\Include/arm_math.h ****    *
 150:.\Include/arm_math.h ****    * The following files relevant to CMSIS-DSP are present in the <b>ARM::CMSIS</b> Pack directorie
 151:.\Include/arm_math.h ****    * |File/Folder                   |Content                                                       
 152:.\Include/arm_math.h ****    * |------------------------------|--------------------------------------------------------------
 153:.\Include/arm_math.h ****    * |\b CMSIS\\Documentation\\DSP  | This documentation                                           
 154:.\Include/arm_math.h ****    * |\b CMSIS\\DSP_Lib             | Software license agreement (license.txt)                     
 155:.\Include/arm_math.h ****    * |\b CMSIS\\DSP_Lib\\Examples   | Example projects demonstrating the usage of the library funct
 156:.\Include/arm_math.h ****    * |\b CMSIS\\DSP_Lib\\Source     | Source files for rebuilding the library                      
 157:.\Include/arm_math.h ****    *
 158:.\Include/arm_math.h ****    * <hr>
 159:.\Include/arm_math.h ****    * Revision History of CMSIS-DSP
 160:.\Include/arm_math.h ****    * ------------
 161:.\Include/arm_math.h ****    * Please refer to \ref ChangeLog_pg.
 162:.\Include/arm_math.h ****    *
 163:.\Include/arm_math.h ****    * Copyright Notice
ARM GAS  C:\Users\fneves\AppData\Local\Temp\ccVCDPgb.s 			page 14


 164:.\Include/arm_math.h ****    * ------------
 165:.\Include/arm_math.h ****    *
 166:.\Include/arm_math.h ****    * Copyright (C) 2010-2015 ARM Limited. All rights reserved.
 167:.\Include/arm_math.h ****    */
 168:.\Include/arm_math.h **** 
 169:.\Include/arm_math.h **** 
 170:.\Include/arm_math.h **** /**
 171:.\Include/arm_math.h ****  * @defgroup groupMath Basic Math Functions
 172:.\Include/arm_math.h ****  */
 173:.\Include/arm_math.h **** 
 174:.\Include/arm_math.h **** /**
 175:.\Include/arm_math.h ****  * @defgroup groupFastMath Fast Math Functions
 176:.\Include/arm_math.h ****  * This set of functions provides a fast approximation to sine, cosine, and square root.
 177:.\Include/arm_math.h ****  * As compared to most of the other functions in the CMSIS math library, the fast math functions
 178:.\Include/arm_math.h ****  * operate on individual values and not arrays.
 179:.\Include/arm_math.h ****  * There are separate functions for Q15, Q31, and floating-point data.
 180:.\Include/arm_math.h ****  *
 181:.\Include/arm_math.h ****  */
 182:.\Include/arm_math.h **** 
 183:.\Include/arm_math.h **** /**
 184:.\Include/arm_math.h ****  * @defgroup groupCmplxMath Complex Math Functions
 185:.\Include/arm_math.h ****  * This set of functions operates on complex data vectors.
 186:.\Include/arm_math.h ****  * The data in the complex arrays is stored in an interleaved fashion
 187:.\Include/arm_math.h ****  * (real, imag, real, imag, ...).
 188:.\Include/arm_math.h ****  * In the API functions, the number of samples in a complex array refers
 189:.\Include/arm_math.h ****  * to the number of complex values; the array contains twice this number of
 190:.\Include/arm_math.h ****  * real values.
 191:.\Include/arm_math.h ****  */
 192:.\Include/arm_math.h **** 
 193:.\Include/arm_math.h **** /**
 194:.\Include/arm_math.h ****  * @defgroup groupFilters Filtering Functions
 195:.\Include/arm_math.h ****  */
 196:.\Include/arm_math.h **** 
 197:.\Include/arm_math.h **** /**
 198:.\Include/arm_math.h ****  * @defgroup groupMatrix Matrix Functions
 199:.\Include/arm_math.h ****  *
 200:.\Include/arm_math.h ****  * This set of functions provides basic matrix math operations.
 201:.\Include/arm_math.h ****  * The functions operate on matrix data structures.  For example,
 202:.\Include/arm_math.h ****  * the type
 203:.\Include/arm_math.h ****  * definition for the floating-point matrix structure is shown
 204:.\Include/arm_math.h ****  * below:
 205:.\Include/arm_math.h ****  * <pre>
 206:.\Include/arm_math.h ****  *     typedef struct
 207:.\Include/arm_math.h ****  *     {
 208:.\Include/arm_math.h ****  *       uint16_t numRows;     // number of rows of the matrix.
 209:.\Include/arm_math.h ****  *       uint16_t numCols;     // number of columns of the matrix.
 210:.\Include/arm_math.h ****  *       float32_t *pData;     // points to the data of the matrix.
 211:.\Include/arm_math.h ****  *     } arm_matrix_instance_f32;
 212:.\Include/arm_math.h ****  * </pre>
 213:.\Include/arm_math.h ****  * There are similar definitions for Q15 and Q31 data types.
 214:.\Include/arm_math.h ****  *
 215:.\Include/arm_math.h ****  * The structure specifies the size of the matrix and then points to
 216:.\Include/arm_math.h ****  * an array of data.  The array is of size <code>numRows X numCols</code>
 217:.\Include/arm_math.h ****  * and the values are arranged in row order.  That is, the
 218:.\Include/arm_math.h ****  * matrix element (i, j) is stored at:
 219:.\Include/arm_math.h ****  * <pre>
 220:.\Include/arm_math.h ****  *     pData[i*numCols + j]
ARM GAS  C:\Users\fneves\AppData\Local\Temp\ccVCDPgb.s 			page 15


 221:.\Include/arm_math.h ****  * </pre>
 222:.\Include/arm_math.h ****  *
 223:.\Include/arm_math.h ****  * \par Init Functions
 224:.\Include/arm_math.h ****  * There is an associated initialization function for each type of matrix
 225:.\Include/arm_math.h ****  * data structure.
 226:.\Include/arm_math.h ****  * The initialization function sets the values of the internal structure fields.
 227:.\Include/arm_math.h ****  * Refer to the function <code>arm_mat_init_f32()</code>, <code>arm_mat_init_q31()</code>
 228:.\Include/arm_math.h ****  * and <code>arm_mat_init_q15()</code> for floating-point, Q31 and Q15 types,  respectively.
 229:.\Include/arm_math.h ****  *
 230:.\Include/arm_math.h ****  * \par
 231:.\Include/arm_math.h ****  * Use of the initialization function is optional. However, if initialization function is used
 232:.\Include/arm_math.h ****  * then the instance structure cannot be placed into a const data section.
 233:.\Include/arm_math.h ****  * To place the instance structure in a const data
 234:.\Include/arm_math.h ****  * section, manually initialize the data structure.  For example:
 235:.\Include/arm_math.h ****  * <pre>
 236:.\Include/arm_math.h ****  * <code>arm_matrix_instance_f32 S = {nRows, nColumns, pData};</code>
 237:.\Include/arm_math.h ****  * <code>arm_matrix_instance_q31 S = {nRows, nColumns, pData};</code>
 238:.\Include/arm_math.h ****  * <code>arm_matrix_instance_q15 S = {nRows, nColumns, pData};</code>
 239:.\Include/arm_math.h ****  * </pre>
 240:.\Include/arm_math.h ****  * where <code>nRows</code> specifies the number of rows, <code>nColumns</code>
 241:.\Include/arm_math.h ****  * specifies the number of columns, and <code>pData</code> points to the
 242:.\Include/arm_math.h ****  * data array.
 243:.\Include/arm_math.h ****  *
 244:.\Include/arm_math.h ****  * \par Size Checking
 245:.\Include/arm_math.h ****  * By default all of the matrix functions perform size checking on the input and
 246:.\Include/arm_math.h ****  * output matrices.  For example, the matrix addition function verifies that the
 247:.\Include/arm_math.h ****  * two input matrices and the output matrix all have the same number of rows and
 248:.\Include/arm_math.h ****  * columns.  If the size check fails the functions return:
 249:.\Include/arm_math.h ****  * <pre>
 250:.\Include/arm_math.h ****  *     ARM_MATH_SIZE_MISMATCH
 251:.\Include/arm_math.h ****  * </pre>
 252:.\Include/arm_math.h ****  * Otherwise the functions return
 253:.\Include/arm_math.h ****  * <pre>
 254:.\Include/arm_math.h ****  *     ARM_MATH_SUCCESS
 255:.\Include/arm_math.h ****  * </pre>
 256:.\Include/arm_math.h ****  * There is some overhead associated with this matrix size checking.
 257:.\Include/arm_math.h ****  * The matrix size checking is enabled via the \#define
 258:.\Include/arm_math.h ****  * <pre>
 259:.\Include/arm_math.h ****  *     ARM_MATH_MATRIX_CHECK
 260:.\Include/arm_math.h ****  * </pre>
 261:.\Include/arm_math.h ****  * within the library project settings.  By default this macro is defined
 262:.\Include/arm_math.h ****  * and size checking is enabled.  By changing the project settings and
 263:.\Include/arm_math.h ****  * undefining this macro size checking is eliminated and the functions
 264:.\Include/arm_math.h ****  * run a bit faster.  With size checking disabled the functions always
 265:.\Include/arm_math.h ****  * return <code>ARM_MATH_SUCCESS</code>.
 266:.\Include/arm_math.h ****  */
 267:.\Include/arm_math.h **** 
 268:.\Include/arm_math.h **** /**
 269:.\Include/arm_math.h ****  * @defgroup groupTransforms Transform Functions
 270:.\Include/arm_math.h ****  */
 271:.\Include/arm_math.h **** 
 272:.\Include/arm_math.h **** /**
 273:.\Include/arm_math.h ****  * @defgroup groupController Controller Functions
 274:.\Include/arm_math.h ****  */
 275:.\Include/arm_math.h **** 
 276:.\Include/arm_math.h **** /**
 277:.\Include/arm_math.h ****  * @defgroup groupStats Statistics Functions
ARM GAS  C:\Users\fneves\AppData\Local\Temp\ccVCDPgb.s 			page 16


 278:.\Include/arm_math.h ****  */
 279:.\Include/arm_math.h **** /**
 280:.\Include/arm_math.h ****  * @defgroup groupSupport Support Functions
 281:.\Include/arm_math.h ****  */
 282:.\Include/arm_math.h **** 
 283:.\Include/arm_math.h **** /**
 284:.\Include/arm_math.h ****  * @defgroup groupInterpolation Interpolation Functions
 285:.\Include/arm_math.h ****  * These functions perform 1- and 2-dimensional interpolation of data.
 286:.\Include/arm_math.h ****  * Linear interpolation is used for 1-dimensional data and
 287:.\Include/arm_math.h ****  * bilinear interpolation is used for 2-dimensional data.
 288:.\Include/arm_math.h ****  */
 289:.\Include/arm_math.h **** 
 290:.\Include/arm_math.h **** /**
 291:.\Include/arm_math.h ****  * @defgroup groupExamples Examples
 292:.\Include/arm_math.h ****  */
 293:.\Include/arm_math.h **** #ifndef _ARM_MATH_H
 294:.\Include/arm_math.h **** #define _ARM_MATH_H
 295:.\Include/arm_math.h **** 
 296:.\Include/arm_math.h **** /* ignore some GCC warnings */
 297:.\Include/arm_math.h **** #if defined ( __GNUC__ )
 298:.\Include/arm_math.h **** #pragma GCC diagnostic push
 299:.\Include/arm_math.h **** #pragma GCC diagnostic ignored "-Wsign-conversion"
 300:.\Include/arm_math.h **** #pragma GCC diagnostic ignored "-Wconversion"
 301:.\Include/arm_math.h **** #pragma GCC diagnostic ignored "-Wunused-parameter"
 302:.\Include/arm_math.h **** #endif
 303:.\Include/arm_math.h **** 
 304:.\Include/arm_math.h **** #define __CMSIS_GENERIC         /* disable NVIC and Systick functions */
 305:.\Include/arm_math.h **** 
 306:.\Include/arm_math.h **** #if defined(ARM_MATH_CM7)
 307:.\Include/arm_math.h ****   #include "core_cm7.h"
 308:.\Include/arm_math.h ****   #define ARM_MATH_DSP
 309:.\Include/arm_math.h **** #elif defined (ARM_MATH_CM4)
 310:.\Include/arm_math.h ****   #include "core_cm4.h"
 311:.\Include/arm_math.h ****   #define ARM_MATH_DSP
 312:.\Include/arm_math.h **** #elif defined (ARM_MATH_CM3)
 313:.\Include/arm_math.h ****   #include "core_cm3.h"
 314:.\Include/arm_math.h **** #elif defined (ARM_MATH_CM0)
 315:.\Include/arm_math.h ****   #include "core_cm0.h"
 316:.\Include/arm_math.h ****   #define ARM_MATH_CM0_FAMILY
 317:.\Include/arm_math.h **** #elif defined (ARM_MATH_CM0PLUS)
 318:.\Include/arm_math.h ****   #include "core_cm0plus.h"
 319:.\Include/arm_math.h ****   #define ARM_MATH_CM0_FAMILY
 320:.\Include/arm_math.h **** #elif defined (ARM_MATH_ARMV8MBL)
 321:.\Include/arm_math.h ****   #include "core_armv8mbl.h"
 322:.\Include/arm_math.h ****   #define ARM_MATH_CM0_FAMILY
 323:.\Include/arm_math.h **** #elif defined (ARM_MATH_ARMV8MML)
 324:.\Include/arm_math.h ****   #include "core_armv8mml.h"
 325:.\Include/arm_math.h ****   #if (defined (__DSP_PRESENT) && (__DSP_PRESENT == 1))
 326:.\Include/arm_math.h ****     #define ARM_MATH_DSP
 327:.\Include/arm_math.h ****   #endif
 328:.\Include/arm_math.h **** #else
 329:.\Include/arm_math.h ****   #error "Define according the used Cortex core ARM_MATH_CM7, ARM_MATH_CM4, ARM_MATH_CM3, ARM_MATH_
 330:.\Include/arm_math.h **** #endif
 331:.\Include/arm_math.h **** 
 332:.\Include/arm_math.h **** #undef  __CMSIS_GENERIC         /* enable NVIC and Systick functions */
 333:.\Include/arm_math.h **** #include "string.h"
 334:.\Include/arm_math.h **** #include "math.h"
ARM GAS  C:\Users\fneves\AppData\Local\Temp\ccVCDPgb.s 			page 17


 335:.\Include/arm_math.h **** #ifdef   __cplusplus
 336:.\Include/arm_math.h **** extern "C"
 337:.\Include/arm_math.h **** {
 338:.\Include/arm_math.h **** #endif
 339:.\Include/arm_math.h **** 
 340:.\Include/arm_math.h **** 
 341:.\Include/arm_math.h ****   /**
 342:.\Include/arm_math.h ****    * @brief Macros required for reciprocal calculation in Normalized LMS
 343:.\Include/arm_math.h ****    */
 344:.\Include/arm_math.h **** 
 345:.\Include/arm_math.h **** #define DELTA_Q31          (0x100)
 346:.\Include/arm_math.h **** #define DELTA_Q15          0x5
 347:.\Include/arm_math.h **** #define INDEX_MASK         0x0000003F
 348:.\Include/arm_math.h **** #ifndef PI
 349:.\Include/arm_math.h ****   #define PI               3.14159265358979f
 350:.\Include/arm_math.h **** #endif
 351:.\Include/arm_math.h **** 
 352:.\Include/arm_math.h ****   /**
 353:.\Include/arm_math.h ****    * @brief Macros required for SINE and COSINE Fast math approximations
 354:.\Include/arm_math.h ****    */
 355:.\Include/arm_math.h **** 
 356:.\Include/arm_math.h **** #define FAST_MATH_TABLE_SIZE  512
 357:.\Include/arm_math.h **** #define FAST_MATH_Q31_SHIFT   (32 - 10)
 358:.\Include/arm_math.h **** #define FAST_MATH_Q15_SHIFT   (16 - 10)
 359:.\Include/arm_math.h **** #define CONTROLLER_Q31_SHIFT  (32 - 9)
 360:.\Include/arm_math.h **** #define TABLE_SPACING_Q31     0x400000
 361:.\Include/arm_math.h **** #define TABLE_SPACING_Q15     0x80
 362:.\Include/arm_math.h **** 
 363:.\Include/arm_math.h ****   /**
 364:.\Include/arm_math.h ****    * @brief Macros required for SINE and COSINE Controller functions
 365:.\Include/arm_math.h ****    */
 366:.\Include/arm_math.h ****   /* 1.31(q31) Fixed value of 2/360 */
 367:.\Include/arm_math.h ****   /* -1 to +1 is divided into 360 values so total spacing is (2/360) */
 368:.\Include/arm_math.h **** #define INPUT_SPACING         0xB60B61
 369:.\Include/arm_math.h **** 
 370:.\Include/arm_math.h ****   /**
 371:.\Include/arm_math.h ****    * @brief Macro for Unaligned Support
 372:.\Include/arm_math.h ****    */
 373:.\Include/arm_math.h **** #ifndef UNALIGNED_SUPPORT_DISABLE
 374:.\Include/arm_math.h ****     #define ALIGN4
 375:.\Include/arm_math.h **** #else
 376:.\Include/arm_math.h ****   #if defined  (__GNUC__)
 377:.\Include/arm_math.h ****     #define ALIGN4 __attribute__((aligned(4)))
 378:.\Include/arm_math.h ****   #else
 379:.\Include/arm_math.h ****     #define ALIGN4 __align(4)
 380:.\Include/arm_math.h ****   #endif
 381:.\Include/arm_math.h **** #endif   /* #ifndef UNALIGNED_SUPPORT_DISABLE */
 382:.\Include/arm_math.h **** 
 383:.\Include/arm_math.h ****   /**
 384:.\Include/arm_math.h ****    * @brief Error status returned by some functions in the library.
 385:.\Include/arm_math.h ****    */
 386:.\Include/arm_math.h **** 
 387:.\Include/arm_math.h ****   typedef enum
 388:.\Include/arm_math.h ****   {
 389:.\Include/arm_math.h ****     ARM_MATH_SUCCESS = 0,                /**< No error */
 390:.\Include/arm_math.h ****     ARM_MATH_ARGUMENT_ERROR = -1,        /**< One or more arguments are incorrect */
 391:.\Include/arm_math.h ****     ARM_MATH_LENGTH_ERROR = -2,          /**< Length of data buffer is incorrect */
ARM GAS  C:\Users\fneves\AppData\Local\Temp\ccVCDPgb.s 			page 18


 392:.\Include/arm_math.h ****     ARM_MATH_SIZE_MISMATCH = -3,         /**< Size of matrices is not compatible with the operation
 393:.\Include/arm_math.h ****     ARM_MATH_NANINF = -4,                /**< Not-a-number (NaN) or infinity is generated */
 394:.\Include/arm_math.h ****     ARM_MATH_SINGULAR = -5,              /**< Generated by matrix inversion if the input matrix is 
 395:.\Include/arm_math.h ****     ARM_MATH_TEST_FAILURE = -6           /**< Test Failed  */
 396:.\Include/arm_math.h ****   } arm_status;
 397:.\Include/arm_math.h **** 
 398:.\Include/arm_math.h ****   /**
 399:.\Include/arm_math.h ****    * @brief 8-bit fractional data type in 1.7 format.
 400:.\Include/arm_math.h ****    */
 401:.\Include/arm_math.h ****   typedef int8_t q7_t;
 402:.\Include/arm_math.h **** 
 403:.\Include/arm_math.h ****   /**
 404:.\Include/arm_math.h ****    * @brief 16-bit fractional data type in 1.15 format.
 405:.\Include/arm_math.h ****    */
 406:.\Include/arm_math.h ****   typedef int16_t q15_t;
 407:.\Include/arm_math.h **** 
 408:.\Include/arm_math.h ****   /**
 409:.\Include/arm_math.h ****    * @brief 32-bit fractional data type in 1.31 format.
 410:.\Include/arm_math.h ****    */
 411:.\Include/arm_math.h ****   typedef int32_t q31_t;
 412:.\Include/arm_math.h **** 
 413:.\Include/arm_math.h ****   /**
 414:.\Include/arm_math.h ****    * @brief 64-bit fractional data type in 1.63 format.
 415:.\Include/arm_math.h ****    */
 416:.\Include/arm_math.h ****   typedef int64_t q63_t;
 417:.\Include/arm_math.h **** 
 418:.\Include/arm_math.h ****   /**
 419:.\Include/arm_math.h ****    * @brief 32-bit floating-point type definition.
 420:.\Include/arm_math.h ****    */
 421:.\Include/arm_math.h ****   typedef float float32_t;
 422:.\Include/arm_math.h **** 
 423:.\Include/arm_math.h ****   /**
 424:.\Include/arm_math.h ****    * @brief 64-bit floating-point type definition.
 425:.\Include/arm_math.h ****    */
 426:.\Include/arm_math.h ****   typedef double float64_t;
 427:.\Include/arm_math.h **** 
 428:.\Include/arm_math.h ****   /**
 429:.\Include/arm_math.h ****    * @brief definition to read/write two 16 bit values.
 430:.\Include/arm_math.h ****    */
 431:.\Include/arm_math.h **** #if   defined ( __CC_ARM )
 432:.\Include/arm_math.h ****   #define __SIMD32_TYPE int32_t __packed
 433:.\Include/arm_math.h ****   #define CMSIS_UNUSED __attribute__((unused))
 434:.\Include/arm_math.h ****   #define CMSIS_INLINE __attribute__((always_inline))
 435:.\Include/arm_math.h **** 
 436:.\Include/arm_math.h **** #elif defined ( __ARMCC_VERSION ) && ( __ARMCC_VERSION >= 6010050 )
 437:.\Include/arm_math.h ****   #define __SIMD32_TYPE int32_t
 438:.\Include/arm_math.h ****   #define CMSIS_UNUSED __attribute__((unused))
 439:.\Include/arm_math.h ****   #define CMSIS_INLINE __attribute__((always_inline))
 440:.\Include/arm_math.h **** 
 441:.\Include/arm_math.h **** #elif defined ( __GNUC__ )
 442:.\Include/arm_math.h ****   #define __SIMD32_TYPE int32_t
 443:.\Include/arm_math.h ****   #define CMSIS_UNUSED __attribute__((unused))
 444:.\Include/arm_math.h ****   #define CMSIS_INLINE __attribute__((always_inline))
 445:.\Include/arm_math.h **** 
 446:.\Include/arm_math.h **** #elif defined ( __ICCARM__ )
 447:.\Include/arm_math.h ****   #define __SIMD32_TYPE int32_t __packed
 448:.\Include/arm_math.h ****   #define CMSIS_UNUSED
ARM GAS  C:\Users\fneves\AppData\Local\Temp\ccVCDPgb.s 			page 19


 449:.\Include/arm_math.h ****   #define CMSIS_INLINE
 450:.\Include/arm_math.h **** 
 451:.\Include/arm_math.h **** #elif defined ( __TI_ARM__ )
 452:.\Include/arm_math.h ****   #define __SIMD32_TYPE int32_t
 453:.\Include/arm_math.h ****   #define CMSIS_UNUSED __attribute__((unused))
 454:.\Include/arm_math.h ****   #define CMSIS_INLINE
 455:.\Include/arm_math.h **** 
 456:.\Include/arm_math.h **** #elif defined ( __CSMC__ )
 457:.\Include/arm_math.h ****   #define __SIMD32_TYPE int32_t
 458:.\Include/arm_math.h ****   #define CMSIS_UNUSED
 459:.\Include/arm_math.h ****   #define CMSIS_INLINE
 460:.\Include/arm_math.h **** 
 461:.\Include/arm_math.h **** #elif defined ( __TASKING__ )
 462:.\Include/arm_math.h ****   #define __SIMD32_TYPE __unaligned int32_t
 463:.\Include/arm_math.h ****   #define CMSIS_UNUSED
 464:.\Include/arm_math.h ****   #define CMSIS_INLINE
 465:.\Include/arm_math.h **** 
 466:.\Include/arm_math.h **** #else
 467:.\Include/arm_math.h ****   #error Unknown compiler
 468:.\Include/arm_math.h **** #endif
 469:.\Include/arm_math.h **** 
 470:.\Include/arm_math.h **** #define __SIMD32(addr)        (*(__SIMD32_TYPE **) & (addr))
 471:.\Include/arm_math.h **** #define __SIMD32_CONST(addr)  ((__SIMD32_TYPE *)(addr))
 472:.\Include/arm_math.h **** #define _SIMD32_OFFSET(addr)  (*(__SIMD32_TYPE *)  (addr))
 473:.\Include/arm_math.h **** #define __SIMD64(addr)        (*(int64_t **) & (addr))
 474:.\Include/arm_math.h **** 
 475:.\Include/arm_math.h **** /* #if defined (ARM_MATH_CM3) || defined (ARM_MATH_CM0_FAMILY) */
 476:.\Include/arm_math.h **** #if !defined (ARM_MATH_DSP)
 477:.\Include/arm_math.h ****   /**
 478:.\Include/arm_math.h ****    * @brief definition to pack two 16 bit values.
 479:.\Include/arm_math.h ****    */
 480:.\Include/arm_math.h **** #define __PKHBT(ARG1, ARG2, ARG3) ( (((int32_t)(ARG1) <<    0) & (int32_t)0x0000FFFF) | \
 481:.\Include/arm_math.h ****                                     (((int32_t)(ARG2) << ARG3) & (int32_t)0xFFFF0000)  )
 482:.\Include/arm_math.h **** #define __PKHTB(ARG1, ARG2, ARG3) ( (((int32_t)(ARG1) <<    0) & (int32_t)0xFFFF0000) | \
 483:.\Include/arm_math.h ****                                     (((int32_t)(ARG2) >> ARG3) & (int32_t)0x0000FFFF)  )
 484:.\Include/arm_math.h **** 
 485:.\Include/arm_math.h **** /* #endif // defined (ARM_MATH_CM3) || defined (ARM_MATH_CM0_FAMILY) */
 486:.\Include/arm_math.h **** #endif /* !defined (ARM_MATH_DSP) */
 487:.\Include/arm_math.h **** 
 488:.\Include/arm_math.h ****    /**
 489:.\Include/arm_math.h ****    * @brief definition to pack four 8 bit values.
 490:.\Include/arm_math.h ****    */
 491:.\Include/arm_math.h **** #ifndef ARM_MATH_BIG_ENDIAN
 492:.\Include/arm_math.h **** 
 493:.\Include/arm_math.h **** #define __PACKq7(v0,v1,v2,v3) ( (((int32_t)(v0) <<  0) & (int32_t)0x000000FF) | \
 494:.\Include/arm_math.h ****                                 (((int32_t)(v1) <<  8) & (int32_t)0x0000FF00) | \
 495:.\Include/arm_math.h ****                                 (((int32_t)(v2) << 16) & (int32_t)0x00FF0000) | \
 496:.\Include/arm_math.h ****                                 (((int32_t)(v3) << 24) & (int32_t)0xFF000000)  )
 497:.\Include/arm_math.h **** #else
 498:.\Include/arm_math.h **** 
 499:.\Include/arm_math.h **** #define __PACKq7(v0,v1,v2,v3) ( (((int32_t)(v3) <<  0) & (int32_t)0x000000FF) | \
 500:.\Include/arm_math.h ****                                 (((int32_t)(v2) <<  8) & (int32_t)0x0000FF00) | \
 501:.\Include/arm_math.h ****                                 (((int32_t)(v1) << 16) & (int32_t)0x00FF0000) | \
 502:.\Include/arm_math.h ****                                 (((int32_t)(v0) << 24) & (int32_t)0xFF000000)  )
 503:.\Include/arm_math.h **** 
 504:.\Include/arm_math.h **** #endif
 505:.\Include/arm_math.h **** 
ARM GAS  C:\Users\fneves\AppData\Local\Temp\ccVCDPgb.s 			page 20


 506:.\Include/arm_math.h **** 
 507:.\Include/arm_math.h ****   /**
 508:.\Include/arm_math.h ****    * @brief Clips Q63 to Q31 values.
 509:.\Include/arm_math.h ****    */
 510:.\Include/arm_math.h ****   CMSIS_INLINE __STATIC_INLINE q31_t clip_q63_to_q31(
 511:.\Include/arm_math.h ****   q63_t x)
 512:.\Include/arm_math.h ****   {
 513:.\Include/arm_math.h ****     return ((q31_t) (x >> 32) != ((q31_t) x >> 31)) ?
 514:.\Include/arm_math.h ****       ((0x7FFFFFFF ^ ((q31_t) (x >> 63)))) : (q31_t) x;
 515:.\Include/arm_math.h ****   }
 516:.\Include/arm_math.h **** 
 517:.\Include/arm_math.h ****   /**
 518:.\Include/arm_math.h ****    * @brief Clips Q63 to Q15 values.
 519:.\Include/arm_math.h ****    */
 520:.\Include/arm_math.h ****   CMSIS_INLINE __STATIC_INLINE q15_t clip_q63_to_q15(
 521:.\Include/arm_math.h ****   q63_t x)
 522:.\Include/arm_math.h ****   {
 523:.\Include/arm_math.h ****     return ((q31_t) (x >> 32) != ((q31_t) x >> 31)) ?
 524:.\Include/arm_math.h ****       ((0x7FFF ^ ((q15_t) (x >> 63)))) : (q15_t) (x >> 15);
 525:.\Include/arm_math.h ****   }
 526:.\Include/arm_math.h **** 
 527:.\Include/arm_math.h ****   /**
 528:.\Include/arm_math.h ****    * @brief Clips Q31 to Q7 values.
 529:.\Include/arm_math.h ****    */
 530:.\Include/arm_math.h ****   CMSIS_INLINE __STATIC_INLINE q7_t clip_q31_to_q7(
 531:.\Include/arm_math.h ****   q31_t x)
 532:.\Include/arm_math.h ****   {
 533:.\Include/arm_math.h ****     return ((q31_t) (x >> 24) != ((q31_t) x >> 23)) ?
 534:.\Include/arm_math.h ****       ((0x7F ^ ((q7_t) (x >> 31)))) : (q7_t) x;
 535:.\Include/arm_math.h ****   }
 536:.\Include/arm_math.h **** 
 537:.\Include/arm_math.h ****   /**
 538:.\Include/arm_math.h ****    * @brief Clips Q31 to Q15 values.
 539:.\Include/arm_math.h ****    */
 540:.\Include/arm_math.h ****   CMSIS_INLINE __STATIC_INLINE q15_t clip_q31_to_q15(
 541:.\Include/arm_math.h ****   q31_t x)
 542:.\Include/arm_math.h ****   {
 543:.\Include/arm_math.h ****     return ((q31_t) (x >> 16) != ((q31_t) x >> 15)) ?
 544:.\Include/arm_math.h ****       ((0x7FFF ^ ((q15_t) (x >> 31)))) : (q15_t) x;
 545:.\Include/arm_math.h ****   }
 546:.\Include/arm_math.h **** 
 547:.\Include/arm_math.h ****   /**
 548:.\Include/arm_math.h ****    * @brief Multiplies 32 X 64 and returns 32 bit result in 2.30 format.
 549:.\Include/arm_math.h ****    */
 550:.\Include/arm_math.h **** 
 551:.\Include/arm_math.h ****   CMSIS_INLINE __STATIC_INLINE q63_t mult32x64(
 552:.\Include/arm_math.h ****   q63_t x,
 553:.\Include/arm_math.h ****   q31_t y)
 554:.\Include/arm_math.h ****   {
 555:.\Include/arm_math.h ****     return ((((q63_t) (x & 0x00000000FFFFFFFF) * y) >> 32) +
 556:.\Include/arm_math.h ****             (((q63_t) (x >> 32) * y)));
 557:.\Include/arm_math.h ****   }
 558:.\Include/arm_math.h **** 
 559:.\Include/arm_math.h **** /*
 560:.\Include/arm_math.h ****   #if defined (ARM_MATH_CM0_FAMILY) && defined ( __CC_ARM   )
 561:.\Include/arm_math.h ****   #define __CLZ __clz
 562:.\Include/arm_math.h ****   #endif
ARM GAS  C:\Users\fneves\AppData\Local\Temp\ccVCDPgb.s 			page 21


 563:.\Include/arm_math.h ****  */
 564:.\Include/arm_math.h **** /* note: function can be removed when all toolchain support __CLZ for Cortex-M0 */
 565:.\Include/arm_math.h **** #if defined (ARM_MATH_CM0_FAMILY) && ((defined (__ICCARM__))  )
 566:.\Include/arm_math.h ****   CMSIS_INLINE __STATIC_INLINE uint32_t __CLZ(
 567:.\Include/arm_math.h ****   q31_t data);
 568:.\Include/arm_math.h **** 
 569:.\Include/arm_math.h ****   CMSIS_INLINE __STATIC_INLINE uint32_t __CLZ(
 570:.\Include/arm_math.h ****   q31_t data)
 571:.\Include/arm_math.h ****   {
 572:.\Include/arm_math.h ****     uint32_t count = 0;
 573:.\Include/arm_math.h ****     uint32_t mask = 0x80000000;
 574:.\Include/arm_math.h **** 
 575:.\Include/arm_math.h ****     while ((data & mask) == 0)
 576:.\Include/arm_math.h ****     {
 577:.\Include/arm_math.h ****       count += 1u;
 578:.\Include/arm_math.h ****       mask = mask >> 1u;
 579:.\Include/arm_math.h ****     }
 580:.\Include/arm_math.h **** 
 581:.\Include/arm_math.h ****     return (count);
 582:.\Include/arm_math.h ****   }
 583:.\Include/arm_math.h **** #endif
 584:.\Include/arm_math.h **** 
 585:.\Include/arm_math.h ****   /**
 586:.\Include/arm_math.h ****    * @brief Function to Calculates 1/in (reciprocal) value of Q31 Data type.
 587:.\Include/arm_math.h ****    */
 588:.\Include/arm_math.h **** 
 589:.\Include/arm_math.h ****   CMSIS_INLINE __STATIC_INLINE uint32_t arm_recip_q31(
 590:.\Include/arm_math.h ****   q31_t in,
 591:.\Include/arm_math.h ****   q31_t * dst,
 592:.\Include/arm_math.h ****   q31_t * pRecipTable)
 593:.\Include/arm_math.h ****   {
 594:.\Include/arm_math.h ****     q31_t out;
 595:.\Include/arm_math.h ****     uint32_t tempVal;
 596:.\Include/arm_math.h ****     uint32_t index, i;
 597:.\Include/arm_math.h ****     uint32_t signBits;
 598:.\Include/arm_math.h **** 
 599:.\Include/arm_math.h ****     if (in > 0)
 600:.\Include/arm_math.h ****     {
 601:.\Include/arm_math.h ****       signBits = ((uint32_t) (__CLZ( in) - 1));
 602:.\Include/arm_math.h ****     }
 603:.\Include/arm_math.h ****     else
 604:.\Include/arm_math.h ****     {
 605:.\Include/arm_math.h ****       signBits = ((uint32_t) (__CLZ(-in) - 1));
 606:.\Include/arm_math.h ****     }
 607:.\Include/arm_math.h **** 
 608:.\Include/arm_math.h ****     /* Convert input sample to 1.31 format */
 609:.\Include/arm_math.h ****     in = (in << signBits);
 610:.\Include/arm_math.h **** 
 611:.\Include/arm_math.h ****     /* calculation of index for initial approximated Val */
 612:.\Include/arm_math.h ****     index = (uint32_t)(in >> 24);
 613:.\Include/arm_math.h ****     index = (index & INDEX_MASK);
 614:.\Include/arm_math.h **** 
 615:.\Include/arm_math.h ****     /* 1.31 with exp 1 */
 616:.\Include/arm_math.h ****     out = pRecipTable[index];
 617:.\Include/arm_math.h **** 
 618:.\Include/arm_math.h ****     /* calculation of reciprocal value */
 619:.\Include/arm_math.h ****     /* running approximation for two iterations */
ARM GAS  C:\Users\fneves\AppData\Local\Temp\ccVCDPgb.s 			page 22


 620:.\Include/arm_math.h ****     for (i = 0u; i < 2u; i++)
 621:.\Include/arm_math.h ****     {
 622:.\Include/arm_math.h ****       tempVal = (uint32_t) (((q63_t) in * out) >> 31);
 623:.\Include/arm_math.h ****       tempVal = 0x7FFFFFFFu - tempVal;
 624:.\Include/arm_math.h ****       /*      1.31 with exp 1 */
 625:.\Include/arm_math.h ****       /* out = (q31_t) (((q63_t) out * tempVal) >> 30); */
 626:.\Include/arm_math.h ****       out = clip_q63_to_q31(((q63_t) out * tempVal) >> 30);
 627:.\Include/arm_math.h ****     }
 628:.\Include/arm_math.h **** 
 629:.\Include/arm_math.h ****     /* write output */
 630:.\Include/arm_math.h ****     *dst = out;
 631:.\Include/arm_math.h **** 
 632:.\Include/arm_math.h ****     /* return num of signbits of out = 1/in value */
 633:.\Include/arm_math.h ****     return (signBits + 1u);
 634:.\Include/arm_math.h ****   }
 635:.\Include/arm_math.h **** 
 636:.\Include/arm_math.h **** 
 637:.\Include/arm_math.h ****   /**
 638:.\Include/arm_math.h ****    * @brief Function to Calculates 1/in (reciprocal) value of Q15 Data type.
 639:.\Include/arm_math.h ****    */
 640:.\Include/arm_math.h ****   CMSIS_INLINE __STATIC_INLINE uint32_t arm_recip_q15(
 641:.\Include/arm_math.h ****   q15_t in,
 642:.\Include/arm_math.h ****   q15_t * dst,
 643:.\Include/arm_math.h ****   q15_t * pRecipTable)
 644:.\Include/arm_math.h ****   {
 645:.\Include/arm_math.h ****     q15_t out = 0;
 646:.\Include/arm_math.h ****     uint32_t tempVal = 0;
 647:.\Include/arm_math.h ****     uint32_t index = 0, i = 0;
 648:.\Include/arm_math.h ****     uint32_t signBits = 0;
 649:.\Include/arm_math.h **** 
 650:.\Include/arm_math.h ****     if (in > 0)
 651:.\Include/arm_math.h ****     {
 652:.\Include/arm_math.h ****       signBits = ((uint32_t)(__CLZ( in) - 17));
 653:.\Include/arm_math.h ****     }
 654:.\Include/arm_math.h ****     else
 655:.\Include/arm_math.h ****     {
 656:.\Include/arm_math.h ****       signBits = ((uint32_t)(__CLZ(-in) - 17));
 657:.\Include/arm_math.h ****     }
 658:.\Include/arm_math.h **** 
 659:.\Include/arm_math.h ****     /* Convert input sample to 1.15 format */
 660:.\Include/arm_math.h ****     in = (in << signBits);
 661:.\Include/arm_math.h **** 
 662:.\Include/arm_math.h ****     /* calculation of index for initial approximated Val */
 663:.\Include/arm_math.h ****     index = (uint32_t)(in >>  8);
 664:.\Include/arm_math.h ****     index = (index & INDEX_MASK);
 665:.\Include/arm_math.h **** 
 666:.\Include/arm_math.h ****     /*      1.15 with exp 1  */
 667:.\Include/arm_math.h ****     out = pRecipTable[index];
 668:.\Include/arm_math.h **** 
 669:.\Include/arm_math.h ****     /* calculation of reciprocal value */
 670:.\Include/arm_math.h ****     /* running approximation for two iterations */
 671:.\Include/arm_math.h ****     for (i = 0u; i < 2u; i++)
 672:.\Include/arm_math.h ****     {
 673:.\Include/arm_math.h ****       tempVal = (uint32_t) (((q31_t) in * out) >> 15);
 674:.\Include/arm_math.h ****       tempVal = 0x7FFFu - tempVal;
 675:.\Include/arm_math.h ****       /*      1.15 with exp 1 */
 676:.\Include/arm_math.h ****       out = (q15_t) (((q31_t) out * tempVal) >> 14);
ARM GAS  C:\Users\fneves\AppData\Local\Temp\ccVCDPgb.s 			page 23


 677:.\Include/arm_math.h ****       /* out = clip_q31_to_q15(((q31_t) out * tempVal) >> 14); */
 678:.\Include/arm_math.h ****     }
 679:.\Include/arm_math.h **** 
 680:.\Include/arm_math.h ****     /* write output */
 681:.\Include/arm_math.h ****     *dst = out;
 682:.\Include/arm_math.h **** 
 683:.\Include/arm_math.h ****     /* return num of signbits of out = 1/in value */
 684:.\Include/arm_math.h ****     return (signBits + 1);
 685:.\Include/arm_math.h ****   }
 686:.\Include/arm_math.h **** 
 687:.\Include/arm_math.h **** 
 688:.\Include/arm_math.h ****   /*
 689:.\Include/arm_math.h ****    * @brief C custom defined intrinisic function for only M0 processors
 690:.\Include/arm_math.h ****    */
 691:.\Include/arm_math.h **** #if defined(ARM_MATH_CM0_FAMILY)
 692:.\Include/arm_math.h ****   CMSIS_INLINE __STATIC_INLINE q31_t __SSAT(
 693:.\Include/arm_math.h ****   q31_t x,
 694:.\Include/arm_math.h ****   uint32_t y)
 695:.\Include/arm_math.h ****   {
 696:.\Include/arm_math.h ****     int32_t posMax, negMin;
 697:.\Include/arm_math.h ****     uint32_t i;
 698:.\Include/arm_math.h **** 
 699:.\Include/arm_math.h ****     posMax = 1;
 113              		.loc 2 699 0
 114 0084 0123     		mov	r3, #1
 115 0086 BB66     		str	r3, [r7, #104]
 700:.\Include/arm_math.h ****     for (i = 0; i < (y - 1); i++)
 116              		.loc 2 700 0
 117 0088 0023     		mov	r3, #0
 118 008a 7B66     		str	r3, [r7, #100]
 119 008c 05E0     		b	.L3
 120              	.L4:
 701:.\Include/arm_math.h ****     {
 702:.\Include/arm_math.h ****       posMax = posMax * 2;
 121              		.loc 2 702 0
 122 008e BB6E     		ldr	r3, [r7, #104]
 123 0090 5B00     		lsl	r3, r3, #1
 124 0092 BB66     		str	r3, [r7, #104]
 700:.\Include/arm_math.h ****     for (i = 0; i < (y - 1); i++)
 125              		.loc 2 700 0
 126 0094 7B6E     		ldr	r3, [r7, #100]
 127 0096 0133     		add	r3, r3, #1
 128 0098 7B66     		str	r3, [r7, #100]
 129              	.L3:
 130 009a FB6E     		ldr	r3, [r7, #108]
 131 009c 013B     		sub	r3, r3, #1
 132 009e 7A6E     		ldr	r2, [r7, #100]
 133 00a0 9A42     		cmp	r2, r3
 134 00a2 F4D3     		bcc	.L4
 703:.\Include/arm_math.h ****     }
 704:.\Include/arm_math.h **** 
 705:.\Include/arm_math.h ****     if (x > 0)
 135              		.loc 2 705 0
 136 00a4 3B6F     		ldr	r3, [r7, #112]
 137 00a6 002B     		cmp	r3, #0
 138 00a8 09DD     		ble	.L5
 706:.\Include/arm_math.h ****     {
ARM GAS  C:\Users\fneves\AppData\Local\Temp\ccVCDPgb.s 			page 24


 707:.\Include/arm_math.h ****       posMax = (posMax - 1);
 139              		.loc 2 707 0
 140 00aa BB6E     		ldr	r3, [r7, #104]
 141 00ac 013B     		sub	r3, r3, #1
 142 00ae BB66     		str	r3, [r7, #104]
 708:.\Include/arm_math.h **** 
 709:.\Include/arm_math.h ****       if (x > posMax)
 143              		.loc 2 709 0
 144 00b0 3A6F     		ldr	r2, [r7, #112]
 145 00b2 BB6E     		ldr	r3, [r7, #104]
 146 00b4 9A42     		cmp	r2, r3
 147 00b6 0CDD     		ble	.L36
 710:.\Include/arm_math.h ****       {
 711:.\Include/arm_math.h ****         x = posMax;
 148              		.loc 2 711 0
 149 00b8 BB6E     		ldr	r3, [r7, #104]
 150 00ba 3B67     		str	r3, [r7, #112]
 151 00bc 0AE0     		b	.L7
 152              	.L5:
 712:.\Include/arm_math.h ****       }
 713:.\Include/arm_math.h ****     }
 714:.\Include/arm_math.h ****     else
 715:.\Include/arm_math.h ****     {
 716:.\Include/arm_math.h ****       negMin = -posMax;
 153              		.loc 2 716 0
 154 00be BB6E     		ldr	r3, [r7, #104]
 155 00c0 5B42     		neg	r3, r3
 156 00c2 3B66     		str	r3, [r7, #96]
 717:.\Include/arm_math.h **** 
 718:.\Include/arm_math.h ****       if (x < negMin)
 157              		.loc 2 718 0
 158 00c4 3A6F     		ldr	r2, [r7, #112]
 159 00c6 3B6E     		ldr	r3, [r7, #96]
 160 00c8 9A42     		cmp	r2, r3
 161 00ca 03DA     		bge	.L7
 719:.\Include/arm_math.h ****       {
 720:.\Include/arm_math.h ****         x = negMin;
 162              		.loc 2 720 0
 163 00cc 3B6E     		ldr	r3, [r7, #96]
 164 00ce 3B67     		str	r3, [r7, #112]
 165 00d0 00E0     		b	.L7
 166              	.L36:
 711:.\Include/arm_math.h ****       }
 167              		.loc 2 711 0
 168 00d2 C046     		mov	r8, r8
 169              	.L7:
 721:.\Include/arm_math.h ****       }
 722:.\Include/arm_math.h ****     }
 723:.\Include/arm_math.h ****     return (x);
 170              		.loc 2 723 0
 171 00d4 3B6F     		ldr	r3, [r7, #112]
 172              	.LBE13:
 173              	.LBE12:
 467:Source\FilteringFunctions/arm_fir_lattice_q15.c ****     fnext = __SSAT(fnext, 16);
 174              		.loc 1 467 0
 175 00d6 7B67     		str	r3, [r7, #116]
 468:Source\FilteringFunctions/arm_fir_lattice_q15.c **** 
ARM GAS  C:\Users\fneves\AppData\Local\Temp\ccVCDPgb.s 			page 25


 469:Source\FilteringFunctions/arm_fir_lattice_q15.c **** 
 470:Source\FilteringFunctions/arm_fir_lattice_q15.c ****     /* g1(n) = f0(n) * K1  +  g0(n-1) */
 471:Source\FilteringFunctions/arm_fir_lattice_q15.c ****     gnext = ((fcurnt * (*pk++)) >> 15u) + gcurnt;
 176              		.loc 1 471 0
 177 00d8 9823     		mov	r3, #152
 178 00da FB18     		add	r3, r7, r3
 179 00dc 1B68     		ldr	r3, [r3]
 180 00de 9A1C     		add	r2, r3, #2
 181 00e0 9821     		mov	r1, #152
 182 00e2 7918     		add	r1, r7, r1
 183 00e4 0A60     		str	r2, [r1]
 184 00e6 1B88     		ldrh	r3, [r3]
 185 00e8 1BB2     		sxth	r3, r3
 186 00ea 9422     		mov	r2, #148
 187 00ec BA18     		add	r2, r7, r2
 188 00ee 1268     		ldr	r2, [r2]
 189 00f0 5343     		mul	r3, r2
 190 00f2 DA13     		asr	r2, r3, #15
 191 00f4 BB6F     		ldr	r3, [r7, #120]
 192 00f6 D318     		add	r3, r2, r3
 193 00f8 9022     		mov	r2, #144
 194 00fa BA18     		add	r2, r7, r2
 195 00fc 1360     		str	r3, [r2]
 196 00fe 9023     		mov	r3, #144
 197 0100 FB18     		add	r3, r7, r3
 198 0102 1B68     		ldr	r3, [r3]
 199 0104 FB65     		str	r3, [r7, #92]
 200 0106 1023     		mov	r3, #16
 201 0108 BB65     		str	r3, [r7, #88]
 202              	.LBB14:
 203              	.LBB15:
 699:.\Include/arm_math.h ****     for (i = 0; i < (y - 1); i++)
 204              		.loc 2 699 0
 205 010a 0123     		mov	r3, #1
 206 010c 7B65     		str	r3, [r7, #84]
 700:.\Include/arm_math.h ****     {
 207              		.loc 2 700 0
 208 010e 0023     		mov	r3, #0
 209 0110 3B65     		str	r3, [r7, #80]
 210 0112 05E0     		b	.L9
 211              	.L10:
 702:.\Include/arm_math.h ****     }
 212              		.loc 2 702 0
 213 0114 7B6D     		ldr	r3, [r7, #84]
 214 0116 5B00     		lsl	r3, r3, #1
 215 0118 7B65     		str	r3, [r7, #84]
 700:.\Include/arm_math.h ****     {
 216              		.loc 2 700 0
 217 011a 3B6D     		ldr	r3, [r7, #80]
 218 011c 0133     		add	r3, r3, #1
 219 011e 3B65     		str	r3, [r7, #80]
 220              	.L9:
 221 0120 BB6D     		ldr	r3, [r7, #88]
 222 0122 013B     		sub	r3, r3, #1
 223 0124 3A6D     		ldr	r2, [r7, #80]
 224 0126 9A42     		cmp	r2, r3
 225 0128 F4D3     		bcc	.L10
ARM GAS  C:\Users\fneves\AppData\Local\Temp\ccVCDPgb.s 			page 26


 705:.\Include/arm_math.h ****     {
 226              		.loc 2 705 0
 227 012a FB6D     		ldr	r3, [r7, #92]
 228 012c 002B     		cmp	r3, #0
 229 012e 09DD     		ble	.L11
 707:.\Include/arm_math.h **** 
 230              		.loc 2 707 0
 231 0130 7B6D     		ldr	r3, [r7, #84]
 232 0132 013B     		sub	r3, r3, #1
 233 0134 7B65     		str	r3, [r7, #84]
 709:.\Include/arm_math.h ****       {
 234              		.loc 2 709 0
 235 0136 FA6D     		ldr	r2, [r7, #92]
 236 0138 7B6D     		ldr	r3, [r7, #84]
 237 013a 9A42     		cmp	r2, r3
 238 013c 0CDD     		ble	.L37
 711:.\Include/arm_math.h ****       }
 239              		.loc 2 711 0
 240 013e 7B6D     		ldr	r3, [r7, #84]
 241 0140 FB65     		str	r3, [r7, #92]
 242 0142 0AE0     		b	.L13
 243              	.L11:
 716:.\Include/arm_math.h **** 
 244              		.loc 2 716 0
 245 0144 7B6D     		ldr	r3, [r7, #84]
 246 0146 5B42     		neg	r3, r3
 247 0148 FB64     		str	r3, [r7, #76]
 718:.\Include/arm_math.h ****       {
 248              		.loc 2 718 0
 249 014a FA6D     		ldr	r2, [r7, #92]
 250 014c FB6C     		ldr	r3, [r7, #76]
 251 014e 9A42     		cmp	r2, r3
 252 0150 03DA     		bge	.L13
 720:.\Include/arm_math.h ****       }
 253              		.loc 2 720 0
 254 0152 FB6C     		ldr	r3, [r7, #76]
 255 0154 FB65     		str	r3, [r7, #92]
 256 0156 00E0     		b	.L13
 257              	.L37:
 711:.\Include/arm_math.h ****       }
 258              		.loc 2 711 0
 259 0158 C046     		mov	r8, r8
 260              	.L13:
 261              		.loc 2 723 0
 262 015a FB6D     		ldr	r3, [r7, #92]
 263              	.LBE15:
 264              	.LBE14:
 472:Source\FilteringFunctions/arm_fir_lattice_q15.c ****     gnext = __SSAT(gnext, 16);
 265              		.loc 1 472 0
 266 015c 9022     		mov	r2, #144
 267 015e BA18     		add	r2, r7, r2
 268 0160 1360     		str	r3, [r2]
 473:Source\FilteringFunctions/arm_fir_lattice_q15.c **** 
 474:Source\FilteringFunctions/arm_fir_lattice_q15.c ****     /* save f0(n) in state buffer */
 475:Source\FilteringFunctions/arm_fir_lattice_q15.c ****     *px++ = (q15_t) fcurnt;
 269              		.loc 1 475 0
 270 0162 9C23     		mov	r3, #156
ARM GAS  C:\Users\fneves\AppData\Local\Temp\ccVCDPgb.s 			page 27


 271 0164 FB18     		add	r3, r7, r3
 272 0166 1B68     		ldr	r3, [r3]
 273 0168 9A1C     		add	r2, r3, #2
 274 016a 9C21     		mov	r1, #156
 275 016c 7918     		add	r1, r7, r1
 276 016e 0A60     		str	r2, [r1]
 277 0170 9422     		mov	r2, #148
 278 0172 BA18     		add	r2, r7, r2
 279 0174 1268     		ldr	r2, [r2]
 280 0176 92B2     		uxth	r2, r2
 281 0178 1A80     		strh	r2, [r3]
 476:Source\FilteringFunctions/arm_fir_lattice_q15.c **** 
 477:Source\FilteringFunctions/arm_fir_lattice_q15.c ****     /* f1(n) is saved in fcurnt
 478:Source\FilteringFunctions/arm_fir_lattice_q15.c ****        for next stage processing */
 479:Source\FilteringFunctions/arm_fir_lattice_q15.c ****     fcurnt = fnext;
 282              		.loc 1 479 0
 283 017a 7B6F     		ldr	r3, [r7, #116]
 284 017c 9422     		mov	r2, #148
 285 017e BA18     		add	r2, r7, r2
 286 0180 1360     		str	r3, [r2]
 480:Source\FilteringFunctions/arm_fir_lattice_q15.c **** 
 481:Source\FilteringFunctions/arm_fir_lattice_q15.c ****     stageCnt = (numStages - 1u);
 287              		.loc 1 481 0
 288 0182 8023     		mov	r3, #128
 289 0184 FB18     		add	r3, r7, r3
 290 0186 1B68     		ldr	r3, [r3]
 291 0188 013B     		sub	r3, r3, #1
 292 018a 8822     		mov	r2, #136
 293 018c BA18     		add	r2, r7, r2
 294 018e 1360     		str	r3, [r2]
 482:Source\FilteringFunctions/arm_fir_lattice_q15.c **** 
 483:Source\FilteringFunctions/arm_fir_lattice_q15.c ****     /* stage loop */
 484:Source\FilteringFunctions/arm_fir_lattice_q15.c ****     while (stageCnt > 0u)
 295              		.loc 1 484 0
 296 0190 9CE0     		b	.L15
 297              	.L28:
 485:Source\FilteringFunctions/arm_fir_lattice_q15.c ****     {
 486:Source\FilteringFunctions/arm_fir_lattice_q15.c ****       /* read g1(n-1) from state buffer */
 487:Source\FilteringFunctions/arm_fir_lattice_q15.c ****       gcurnt = *px;
 298              		.loc 1 487 0
 299 0192 9C23     		mov	r3, #156
 300 0194 FB18     		add	r3, r7, r3
 301 0196 1B68     		ldr	r3, [r3]
 302 0198 1B88     		ldrh	r3, [r3]
 303 019a 1BB2     		sxth	r3, r3
 304 019c BB67     		str	r3, [r7, #120]
 488:Source\FilteringFunctions/arm_fir_lattice_q15.c **** 
 489:Source\FilteringFunctions/arm_fir_lattice_q15.c ****       /* save g0(n-1) in state buffer */
 490:Source\FilteringFunctions/arm_fir_lattice_q15.c ****       *px++ = (q15_t) gnext;
 305              		.loc 1 490 0
 306 019e 9C23     		mov	r3, #156
 307 01a0 FB18     		add	r3, r7, r3
 308 01a2 1B68     		ldr	r3, [r3]
 309 01a4 9A1C     		add	r2, r3, #2
 310 01a6 9C21     		mov	r1, #156
 311 01a8 7918     		add	r1, r7, r1
 312 01aa 0A60     		str	r2, [r1]
ARM GAS  C:\Users\fneves\AppData\Local\Temp\ccVCDPgb.s 			page 28


 313 01ac 9022     		mov	r2, #144
 314 01ae BA18     		add	r2, r7, r2
 315 01b0 1268     		ldr	r2, [r2]
 316 01b2 92B2     		uxth	r2, r2
 317 01b4 1A80     		strh	r2, [r3]
 491:Source\FilteringFunctions/arm_fir_lattice_q15.c **** 
 492:Source\FilteringFunctions/arm_fir_lattice_q15.c ****       /* Sample processing for K2, K3.... */
 493:Source\FilteringFunctions/arm_fir_lattice_q15.c ****       /* f2(n) = f1(n) +  K2 * g1(n-1) */
 494:Source\FilteringFunctions/arm_fir_lattice_q15.c ****       fnext = ((gcurnt * (*pk)) >> 15u) + fcurnt;
 318              		.loc 1 494 0
 319 01b6 9823     		mov	r3, #152
 320 01b8 FB18     		add	r3, r7, r3
 321 01ba 1B68     		ldr	r3, [r3]
 322 01bc 1B88     		ldrh	r3, [r3]
 323 01be 1BB2     		sxth	r3, r3
 324 01c0 BA6F     		ldr	r2, [r7, #120]
 325 01c2 5343     		mul	r3, r2
 326 01c4 DA13     		asr	r2, r3, #15
 327 01c6 9423     		mov	r3, #148
 328 01c8 FB18     		add	r3, r7, r3
 329 01ca 1B68     		ldr	r3, [r3]
 330 01cc D318     		add	r3, r2, r3
 331 01ce 7B67     		str	r3, [r7, #116]
 332 01d0 7B6F     		ldr	r3, [r7, #116]
 333 01d2 BB64     		str	r3, [r7, #72]
 334 01d4 1023     		mov	r3, #16
 335 01d6 7B64     		str	r3, [r7, #68]
 336              	.LBB16:
 337              	.LBB17:
 699:.\Include/arm_math.h ****     for (i = 0; i < (y - 1); i++)
 338              		.loc 2 699 0
 339 01d8 0123     		mov	r3, #1
 340 01da 3B64     		str	r3, [r7, #64]
 700:.\Include/arm_math.h ****     {
 341              		.loc 2 700 0
 342 01dc 0023     		mov	r3, #0
 343 01de FB63     		str	r3, [r7, #60]
 344 01e0 05E0     		b	.L16
 345              	.L17:
 702:.\Include/arm_math.h ****     }
 346              		.loc 2 702 0
 347 01e2 3B6C     		ldr	r3, [r7, #64]
 348 01e4 5B00     		lsl	r3, r3, #1
 349 01e6 3B64     		str	r3, [r7, #64]
 700:.\Include/arm_math.h ****     {
 350              		.loc 2 700 0
 351 01e8 FB6B     		ldr	r3, [r7, #60]
 352 01ea 0133     		add	r3, r3, #1
 353 01ec FB63     		str	r3, [r7, #60]
 354              	.L16:
 355 01ee 7B6C     		ldr	r3, [r7, #68]
 356 01f0 013B     		sub	r3, r3, #1
 357 01f2 FA6B     		ldr	r2, [r7, #60]
 358 01f4 9A42     		cmp	r2, r3
 359 01f6 F4D3     		bcc	.L17
 705:.\Include/arm_math.h ****     {
 360              		.loc 2 705 0
ARM GAS  C:\Users\fneves\AppData\Local\Temp\ccVCDPgb.s 			page 29


 361 01f8 BB6C     		ldr	r3, [r7, #72]
 362 01fa 002B     		cmp	r3, #0
 363 01fc 09DD     		ble	.L18
 707:.\Include/arm_math.h **** 
 364              		.loc 2 707 0
 365 01fe 3B6C     		ldr	r3, [r7, #64]
 366 0200 013B     		sub	r3, r3, #1
 367 0202 3B64     		str	r3, [r7, #64]
 709:.\Include/arm_math.h ****       {
 368              		.loc 2 709 0
 369 0204 BA6C     		ldr	r2, [r7, #72]
 370 0206 3B6C     		ldr	r3, [r7, #64]
 371 0208 9A42     		cmp	r2, r3
 372 020a 0CDD     		ble	.L38
 711:.\Include/arm_math.h ****       }
 373              		.loc 2 711 0
 374 020c 3B6C     		ldr	r3, [r7, #64]
 375 020e BB64     		str	r3, [r7, #72]
 376 0210 0AE0     		b	.L20
 377              	.L18:
 716:.\Include/arm_math.h **** 
 378              		.loc 2 716 0
 379 0212 3B6C     		ldr	r3, [r7, #64]
 380 0214 5B42     		neg	r3, r3
 381 0216 BB63     		str	r3, [r7, #56]
 718:.\Include/arm_math.h ****       {
 382              		.loc 2 718 0
 383 0218 BA6C     		ldr	r2, [r7, #72]
 384 021a BB6B     		ldr	r3, [r7, #56]
 385 021c 9A42     		cmp	r2, r3
 386 021e 03DA     		bge	.L20
 720:.\Include/arm_math.h ****       }
 387              		.loc 2 720 0
 388 0220 BB6B     		ldr	r3, [r7, #56]
 389 0222 BB64     		str	r3, [r7, #72]
 390 0224 00E0     		b	.L20
 391              	.L38:
 711:.\Include/arm_math.h ****       }
 392              		.loc 2 711 0
 393 0226 C046     		mov	r8, r8
 394              	.L20:
 395              		.loc 2 723 0
 396 0228 BB6C     		ldr	r3, [r7, #72]
 397              	.LBE17:
 398              	.LBE16:
 495:Source\FilteringFunctions/arm_fir_lattice_q15.c ****       fnext = __SSAT(fnext, 16);
 399              		.loc 1 495 0
 400 022a 7B67     		str	r3, [r7, #116]
 496:Source\FilteringFunctions/arm_fir_lattice_q15.c **** 
 497:Source\FilteringFunctions/arm_fir_lattice_q15.c ****       /* g2(n) = f1(n) * K2  +  g1(n-1) */
 498:Source\FilteringFunctions/arm_fir_lattice_q15.c ****       gnext = ((fcurnt * (*pk++)) >> 15u) + gcurnt;
 401              		.loc 1 498 0
 402 022c 9823     		mov	r3, #152
 403 022e FB18     		add	r3, r7, r3
 404 0230 1B68     		ldr	r3, [r3]
 405 0232 9A1C     		add	r2, r3, #2
 406 0234 9821     		mov	r1, #152
ARM GAS  C:\Users\fneves\AppData\Local\Temp\ccVCDPgb.s 			page 30


 407 0236 7918     		add	r1, r7, r1
 408 0238 0A60     		str	r2, [r1]
 409 023a 1B88     		ldrh	r3, [r3]
 410 023c 1BB2     		sxth	r3, r3
 411 023e 9422     		mov	r2, #148
 412 0240 BA18     		add	r2, r7, r2
 413 0242 1268     		ldr	r2, [r2]
 414 0244 5343     		mul	r3, r2
 415 0246 DA13     		asr	r2, r3, #15
 416 0248 BB6F     		ldr	r3, [r7, #120]
 417 024a D318     		add	r3, r2, r3
 418 024c 9022     		mov	r2, #144
 419 024e BA18     		add	r2, r7, r2
 420 0250 1360     		str	r3, [r2]
 421 0252 9023     		mov	r3, #144
 422 0254 FB18     		add	r3, r7, r3
 423 0256 1B68     		ldr	r3, [r3]
 424 0258 7B63     		str	r3, [r7, #52]
 425 025a 1023     		mov	r3, #16
 426 025c 3B63     		str	r3, [r7, #48]
 427              	.LBB18:
 428              	.LBB19:
 699:.\Include/arm_math.h ****     for (i = 0; i < (y - 1); i++)
 429              		.loc 2 699 0
 430 025e 0123     		mov	r3, #1
 431 0260 FB62     		str	r3, [r7, #44]
 700:.\Include/arm_math.h ****     {
 432              		.loc 2 700 0
 433 0262 0023     		mov	r3, #0
 434 0264 BB62     		str	r3, [r7, #40]
 435 0266 05E0     		b	.L22
 436              	.L23:
 702:.\Include/arm_math.h ****     }
 437              		.loc 2 702 0
 438 0268 FB6A     		ldr	r3, [r7, #44]
 439 026a 5B00     		lsl	r3, r3, #1
 440 026c FB62     		str	r3, [r7, #44]
 700:.\Include/arm_math.h ****     {
 441              		.loc 2 700 0
 442 026e BB6A     		ldr	r3, [r7, #40]
 443 0270 0133     		add	r3, r3, #1
 444 0272 BB62     		str	r3, [r7, #40]
 445              	.L22:
 446 0274 3B6B     		ldr	r3, [r7, #48]
 447 0276 013B     		sub	r3, r3, #1
 448 0278 BA6A     		ldr	r2, [r7, #40]
 449 027a 9A42     		cmp	r2, r3
 450 027c F4D3     		bcc	.L23
 705:.\Include/arm_math.h ****     {
 451              		.loc 2 705 0
 452 027e 7B6B     		ldr	r3, [r7, #52]
 453 0280 002B     		cmp	r3, #0
 454 0282 09DD     		ble	.L24
 707:.\Include/arm_math.h **** 
 455              		.loc 2 707 0
 456 0284 FB6A     		ldr	r3, [r7, #44]
 457 0286 013B     		sub	r3, r3, #1
ARM GAS  C:\Users\fneves\AppData\Local\Temp\ccVCDPgb.s 			page 31


 458 0288 FB62     		str	r3, [r7, #44]
 709:.\Include/arm_math.h ****       {
 459              		.loc 2 709 0
 460 028a 7A6B     		ldr	r2, [r7, #52]
 461 028c FB6A     		ldr	r3, [r7, #44]
 462 028e 9A42     		cmp	r2, r3
 463 0290 0CDD     		ble	.L39
 711:.\Include/arm_math.h ****       }
 464              		.loc 2 711 0
 465 0292 FB6A     		ldr	r3, [r7, #44]
 466 0294 7B63     		str	r3, [r7, #52]
 467 0296 0AE0     		b	.L26
 468              	.L24:
 716:.\Include/arm_math.h **** 
 469              		.loc 2 716 0
 470 0298 FB6A     		ldr	r3, [r7, #44]
 471 029a 5B42     		neg	r3, r3
 472 029c 7B62     		str	r3, [r7, #36]
 718:.\Include/arm_math.h ****       {
 473              		.loc 2 718 0
 474 029e 7A6B     		ldr	r2, [r7, #52]
 475 02a0 7B6A     		ldr	r3, [r7, #36]
 476 02a2 9A42     		cmp	r2, r3
 477 02a4 03DA     		bge	.L26
 720:.\Include/arm_math.h ****       }
 478              		.loc 2 720 0
 479 02a6 7B6A     		ldr	r3, [r7, #36]
 480 02a8 7B63     		str	r3, [r7, #52]
 481 02aa 00E0     		b	.L26
 482              	.L39:
 711:.\Include/arm_math.h ****       }
 483              		.loc 2 711 0
 484 02ac C046     		mov	r8, r8
 485              	.L26:
 486              		.loc 2 723 0
 487 02ae 7B6B     		ldr	r3, [r7, #52]
 488              	.LBE19:
 489              	.LBE18:
 499:Source\FilteringFunctions/arm_fir_lattice_q15.c ****       gnext = __SSAT(gnext, 16);
 490              		.loc 1 499 0
 491 02b0 9022     		mov	r2, #144
 492 02b2 BA18     		add	r2, r7, r2
 493 02b4 1360     		str	r3, [r2]
 500:Source\FilteringFunctions/arm_fir_lattice_q15.c **** 
 501:Source\FilteringFunctions/arm_fir_lattice_q15.c **** 
 502:Source\FilteringFunctions/arm_fir_lattice_q15.c ****       /* f1(n) is saved in fcurnt
 503:Source\FilteringFunctions/arm_fir_lattice_q15.c ****          for next stage processing */
 504:Source\FilteringFunctions/arm_fir_lattice_q15.c ****       fcurnt = fnext;
 494              		.loc 1 504 0
 495 02b6 7B6F     		ldr	r3, [r7, #116]
 496 02b8 9422     		mov	r2, #148
 497 02ba BA18     		add	r2, r7, r2
 498 02bc 1360     		str	r3, [r2]
 505:Source\FilteringFunctions/arm_fir_lattice_q15.c **** 
 506:Source\FilteringFunctions/arm_fir_lattice_q15.c ****       stageCnt--;
 499              		.loc 1 506 0
 500 02be 8823     		mov	r3, #136
ARM GAS  C:\Users\fneves\AppData\Local\Temp\ccVCDPgb.s 			page 32


 501 02c0 FB18     		add	r3, r7, r3
 502 02c2 1B68     		ldr	r3, [r3]
 503 02c4 013B     		sub	r3, r3, #1
 504 02c6 8822     		mov	r2, #136
 505 02c8 BA18     		add	r2, r7, r2
 506 02ca 1360     		str	r3, [r2]
 507              	.L15:
 484:Source\FilteringFunctions/arm_fir_lattice_q15.c ****     {
 508              		.loc 1 484 0
 509 02cc 8823     		mov	r3, #136
 510 02ce FB18     		add	r3, r7, r3
 511 02d0 1B68     		ldr	r3, [r3]
 512 02d2 002B     		cmp	r3, #0
 513 02d4 00D0     		beq	.LCB447
 514 02d6 5CE7     		b	.L28	@long jump
 515              	.LCB447:
 507:Source\FilteringFunctions/arm_fir_lattice_q15.c **** 
 508:Source\FilteringFunctions/arm_fir_lattice_q15.c ****     }
 509:Source\FilteringFunctions/arm_fir_lattice_q15.c **** 
 510:Source\FilteringFunctions/arm_fir_lattice_q15.c ****     /* y(n) = fN(n) */
 511:Source\FilteringFunctions/arm_fir_lattice_q15.c ****     *pDst++ = __SSAT(fcurnt, 16);
 516              		.loc 1 511 0
 517 02d8 7B68     		ldr	r3, [r7, #4]
 518 02da 9A1C     		add	r2, r3, #2
 519 02dc 7A60     		str	r2, [r7, #4]
 520 02de 9422     		mov	r2, #148
 521 02e0 BA18     		add	r2, r7, r2
 522 02e2 1268     		ldr	r2, [r2]
 523 02e4 3A62     		str	r2, [r7, #32]
 524 02e6 1022     		mov	r2, #16
 525 02e8 FA61     		str	r2, [r7, #28]
 526              	.LBB20:
 527              	.LBB21:
 699:.\Include/arm_math.h ****     for (i = 0; i < (y - 1); i++)
 528              		.loc 2 699 0
 529 02ea 0122     		mov	r2, #1
 530 02ec BA61     		str	r2, [r7, #24]
 700:.\Include/arm_math.h ****     {
 531              		.loc 2 700 0
 532 02ee 0022     		mov	r2, #0
 533 02f0 7A61     		str	r2, [r7, #20]
 534 02f2 05E0     		b	.L29
 535              	.L30:
 702:.\Include/arm_math.h ****     }
 536              		.loc 2 702 0
 537 02f4 BA69     		ldr	r2, [r7, #24]
 538 02f6 5200     		lsl	r2, r2, #1
 539 02f8 BA61     		str	r2, [r7, #24]
 700:.\Include/arm_math.h ****     {
 540              		.loc 2 700 0
 541 02fa 7A69     		ldr	r2, [r7, #20]
 542 02fc 0132     		add	r2, r2, #1
 543 02fe 7A61     		str	r2, [r7, #20]
 544              	.L29:
 545 0300 FA69     		ldr	r2, [r7, #28]
 546 0302 013A     		sub	r2, r2, #1
 547 0304 7969     		ldr	r1, [r7, #20]
ARM GAS  C:\Users\fneves\AppData\Local\Temp\ccVCDPgb.s 			page 33


 548 0306 9142     		cmp	r1, r2
 549 0308 F4D3     		bcc	.L30
 705:.\Include/arm_math.h ****     {
 550              		.loc 2 705 0
 551 030a 3A6A     		ldr	r2, [r7, #32]
 552 030c 002A     		cmp	r2, #0
 553 030e 09DD     		ble	.L31
 707:.\Include/arm_math.h **** 
 554              		.loc 2 707 0
 555 0310 BA69     		ldr	r2, [r7, #24]
 556 0312 013A     		sub	r2, r2, #1
 557 0314 BA61     		str	r2, [r7, #24]
 709:.\Include/arm_math.h ****       {
 558              		.loc 2 709 0
 559 0316 396A     		ldr	r1, [r7, #32]
 560 0318 BA69     		ldr	r2, [r7, #24]
 561 031a 9142     		cmp	r1, r2
 562 031c 0CDD     		ble	.L40
 711:.\Include/arm_math.h ****       }
 563              		.loc 2 711 0
 564 031e BA69     		ldr	r2, [r7, #24]
 565 0320 3A62     		str	r2, [r7, #32]
 566 0322 0AE0     		b	.L33
 567              	.L31:
 716:.\Include/arm_math.h **** 
 568              		.loc 2 716 0
 569 0324 BA69     		ldr	r2, [r7, #24]
 570 0326 5242     		neg	r2, r2
 571 0328 3A61     		str	r2, [r7, #16]
 718:.\Include/arm_math.h ****       {
 572              		.loc 2 718 0
 573 032a 396A     		ldr	r1, [r7, #32]
 574 032c 3A69     		ldr	r2, [r7, #16]
 575 032e 9142     		cmp	r1, r2
 576 0330 03DA     		bge	.L33
 720:.\Include/arm_math.h ****       }
 577              		.loc 2 720 0
 578 0332 3A69     		ldr	r2, [r7, #16]
 579 0334 3A62     		str	r2, [r7, #32]
 580 0336 00E0     		b	.L33
 581              	.L40:
 711:.\Include/arm_math.h ****       }
 582              		.loc 2 711 0
 583 0338 C046     		mov	r8, r8
 584              	.L33:
 585              		.loc 2 723 0
 586 033a 3A6A     		ldr	r2, [r7, #32]
 587              	.LBE21:
 588              	.LBE20:
 589              		.loc 1 511 0
 590 033c 92B2     		uxth	r2, r2
 591 033e 1A80     		strh	r2, [r3]
 512:Source\FilteringFunctions/arm_fir_lattice_q15.c **** 
 513:Source\FilteringFunctions/arm_fir_lattice_q15.c **** 
 514:Source\FilteringFunctions/arm_fir_lattice_q15.c ****     blkCnt--;
 592              		.loc 1 514 0
 593 0340 8C23     		mov	r3, #140
ARM GAS  C:\Users\fneves\AppData\Local\Temp\ccVCDPgb.s 			page 34


 594 0342 FB18     		add	r3, r7, r3
 595 0344 1B68     		ldr	r3, [r3]
 596 0346 013B     		sub	r3, r3, #1
 597 0348 8C22     		mov	r2, #140
 598 034a BA18     		add	r2, r7, r2
 599 034c 1360     		str	r3, [r2]
 600              	.L2:
 450:Source\FilteringFunctions/arm_fir_lattice_q15.c ****   {
 601              		.loc 1 450 0
 602 034e 8C23     		mov	r3, #140
 603 0350 FB18     		add	r3, r7, r3
 604 0352 1B68     		ldr	r3, [r3]
 605 0354 002B     		cmp	r3, #0
 606 0356 00D0     		beq	.LCB530
 607 0358 6BE6     		b	.L35	@long jump
 608              	.LCB530:
 515:Source\FilteringFunctions/arm_fir_lattice_q15.c **** 
 516:Source\FilteringFunctions/arm_fir_lattice_q15.c ****   }
 517:Source\FilteringFunctions/arm_fir_lattice_q15.c **** 
 518:Source\FilteringFunctions/arm_fir_lattice_q15.c **** #endif /*   #if defined (ARM_MATH_DSP) */
 519:Source\FilteringFunctions/arm_fir_lattice_q15.c **** 
 520:Source\FilteringFunctions/arm_fir_lattice_q15.c **** }
 609              		.loc 1 520 0
 610 035a BD46     		mov	sp, r7
 611 035c 28B0     		add	sp, sp, #160
 612              		@ sp needed
 613 035e 80BD     		pop	{r7, pc}
 614              		.cfi_endproc
 615              	.LFE82:
 616              		.size	arm_fir_lattice_q15, .-arm_fir_lattice_q15
 617              		.text
 618              	.Letext0:
 619              		.file 3 "c:\\program files (x86)\\cypress\\psoc creator\\4.0\\psoc creator\\import\\gnu\\arm\\4.9.
 620              		.file 4 "c:\\program files (x86)\\cypress\\psoc creator\\4.0\\psoc creator\\import\\gnu\\arm\\4.9.