ARM GAS  C:\Users\fneves\AppData\Local\Temp\ccc6W3UB.s 			page 1


   1              		.cpu cortex-m0plus
   2              		.fpu softvfp
   3              		.eabi_attribute 20, 1
   4              		.eabi_attribute 21, 1
   5              		.eabi_attribute 23, 3
   6              		.eabi_attribute 24, 1
   7              		.eabi_attribute 25, 1
   8              		.eabi_attribute 26, 1
   9              		.eabi_attribute 30, 6
  10              		.eabi_attribute 34, 0
  11              		.eabi_attribute 18, 4
  12              		.code	16
  13              		.file	"arm_cfft_f32.c"
  14              		.text
  15              	.Ltext0:
  16              		.cfi_sections	.debug_frame
  17              		.global	__aeabi_fadd
  18              		.global	__aeabi_fsub
  19              		.global	__aeabi_fmul
  20              		.section	.text.arm_cfft_radix8by2_f32,"ax",%progbits
  21              		.align	2
  22              		.global	arm_cfft_radix8by2_f32
  23              		.code	16
  24              		.thumb_func
  25              		.type	arm_cfft_radix8by2_f32, %function
  26              	arm_cfft_radix8by2_f32:
  27              	.LFB82:
  28              		.file 1 "Source\\TransformFunctions\\arm_cfft_f32.c"
   1:Source\TransformFunctions/arm_cfft_f32.c **** /* ----------------------------------------------------------------------
   2:Source\TransformFunctions/arm_cfft_f32.c ****  * Project:      CMSIS DSP Library
   3:Source\TransformFunctions/arm_cfft_f32.c ****  * Title:        arm_cfft_f32.c
   4:Source\TransformFunctions/arm_cfft_f32.c ****  * Description:  Combined Radix Decimation in Frequency CFFT Floating point processing function
   5:Source\TransformFunctions/arm_cfft_f32.c ****  *
   6:Source\TransformFunctions/arm_cfft_f32.c ****  * $Date:        27. January 2017
   7:Source\TransformFunctions/arm_cfft_f32.c ****  * $Revision:    V.1.5.1
   8:Source\TransformFunctions/arm_cfft_f32.c ****  *
   9:Source\TransformFunctions/arm_cfft_f32.c ****  * Target Processor: Cortex-M cores
  10:Source\TransformFunctions/arm_cfft_f32.c ****  * -------------------------------------------------------------------- */
  11:Source\TransformFunctions/arm_cfft_f32.c **** /*
  12:Source\TransformFunctions/arm_cfft_f32.c ****  * Copyright (C) 2010-2017 ARM Limited or its affiliates. All rights reserved.
  13:Source\TransformFunctions/arm_cfft_f32.c ****  *
  14:Source\TransformFunctions/arm_cfft_f32.c ****  * SPDX-License-Identifier: Apache-2.0
  15:Source\TransformFunctions/arm_cfft_f32.c ****  *
  16:Source\TransformFunctions/arm_cfft_f32.c ****  * Licensed under the Apache License, Version 2.0 (the License); you may
  17:Source\TransformFunctions/arm_cfft_f32.c ****  * not use this file except in compliance with the License.
  18:Source\TransformFunctions/arm_cfft_f32.c ****  * You may obtain a copy of the License at
  19:Source\TransformFunctions/arm_cfft_f32.c ****  *
  20:Source\TransformFunctions/arm_cfft_f32.c ****  * www.apache.org/licenses/LICENSE-2.0
  21:Source\TransformFunctions/arm_cfft_f32.c ****  *
  22:Source\TransformFunctions/arm_cfft_f32.c ****  * Unless required by applicable law or agreed to in writing, software
  23:Source\TransformFunctions/arm_cfft_f32.c ****  * distributed under the License is distributed on an AS IS BASIS, WITHOUT
  24:Source\TransformFunctions/arm_cfft_f32.c ****  * WARRANTIES OR CONDITIONS OF ANY KIND, either express or implied.
  25:Source\TransformFunctions/arm_cfft_f32.c ****  * See the License for the specific language governing permissions and
  26:Source\TransformFunctions/arm_cfft_f32.c ****  * limitations under the License.
  27:Source\TransformFunctions/arm_cfft_f32.c ****  */
  28:Source\TransformFunctions/arm_cfft_f32.c **** 
  29:Source\TransformFunctions/arm_cfft_f32.c **** #include "arm_math.h"
ARM GAS  C:\Users\fneves\AppData\Local\Temp\ccc6W3UB.s 			page 2


  30:Source\TransformFunctions/arm_cfft_f32.c **** #include "arm_common_tables.h"
  31:Source\TransformFunctions/arm_cfft_f32.c **** 
  32:Source\TransformFunctions/arm_cfft_f32.c **** extern void arm_radix8_butterfly_f32(
  33:Source\TransformFunctions/arm_cfft_f32.c ****     float32_t * pSrc,
  34:Source\TransformFunctions/arm_cfft_f32.c ****     uint16_t fftLen,
  35:Source\TransformFunctions/arm_cfft_f32.c ****     const float32_t * pCoef,
  36:Source\TransformFunctions/arm_cfft_f32.c ****     uint16_t twidCoefModifier);
  37:Source\TransformFunctions/arm_cfft_f32.c **** 
  38:Source\TransformFunctions/arm_cfft_f32.c **** extern void arm_bitreversal_32(
  39:Source\TransformFunctions/arm_cfft_f32.c ****     uint32_t * pSrc,
  40:Source\TransformFunctions/arm_cfft_f32.c ****     const uint16_t bitRevLen,
  41:Source\TransformFunctions/arm_cfft_f32.c ****     const uint16_t * pBitRevTable);
  42:Source\TransformFunctions/arm_cfft_f32.c **** 
  43:Source\TransformFunctions/arm_cfft_f32.c **** /**
  44:Source\TransformFunctions/arm_cfft_f32.c **** * @ingroup groupTransforms
  45:Source\TransformFunctions/arm_cfft_f32.c **** */
  46:Source\TransformFunctions/arm_cfft_f32.c **** 
  47:Source\TransformFunctions/arm_cfft_f32.c **** /**
  48:Source\TransformFunctions/arm_cfft_f32.c **** * @defgroup ComplexFFT Complex FFT Functions
  49:Source\TransformFunctions/arm_cfft_f32.c **** *
  50:Source\TransformFunctions/arm_cfft_f32.c **** * \par
  51:Source\TransformFunctions/arm_cfft_f32.c **** * The Fast Fourier Transform (FFT) is an efficient algorithm for computing the
  52:Source\TransformFunctions/arm_cfft_f32.c **** * Discrete Fourier Transform (DFT).  The FFT can be orders of magnitude faster
  53:Source\TransformFunctions/arm_cfft_f32.c **** * than the DFT, especially for long lengths.
  54:Source\TransformFunctions/arm_cfft_f32.c **** * The algorithms described in this section
  55:Source\TransformFunctions/arm_cfft_f32.c **** * operate on complex data.  A separate set of functions is devoted to handling
  56:Source\TransformFunctions/arm_cfft_f32.c **** * of real sequences.
  57:Source\TransformFunctions/arm_cfft_f32.c **** * \par
  58:Source\TransformFunctions/arm_cfft_f32.c **** * There are separate algorithms for handling floating-point, Q15, and Q31 data
  59:Source\TransformFunctions/arm_cfft_f32.c **** * types.  The algorithms available for each data type are described next.
  60:Source\TransformFunctions/arm_cfft_f32.c **** * \par
  61:Source\TransformFunctions/arm_cfft_f32.c **** * The FFT functions operate in-place.  That is, the array holding the input data
  62:Source\TransformFunctions/arm_cfft_f32.c **** * will also be used to hold the corresponding result.  The input data is complex
  63:Source\TransformFunctions/arm_cfft_f32.c **** * and contains <code>2*fftLen</code> interleaved values as shown below.
  64:Source\TransformFunctions/arm_cfft_f32.c **** * <pre> {real[0], imag[0], real[1], imag[1],..} </pre>
  65:Source\TransformFunctions/arm_cfft_f32.c **** * The FFT result will be contained in the same array and the frequency domain
  66:Source\TransformFunctions/arm_cfft_f32.c **** * values will have the same interleaving.
  67:Source\TransformFunctions/arm_cfft_f32.c **** *
  68:Source\TransformFunctions/arm_cfft_f32.c **** * \par Floating-point
  69:Source\TransformFunctions/arm_cfft_f32.c **** * The floating-point complex FFT uses a mixed-radix algorithm.  Multiple radix-8
  70:Source\TransformFunctions/arm_cfft_f32.c **** * stages are performed along with a single radix-2 or radix-4 stage, as needed.
  71:Source\TransformFunctions/arm_cfft_f32.c **** * The algorithm supports lengths of [16, 32, 64, ..., 4096] and each length uses
  72:Source\TransformFunctions/arm_cfft_f32.c **** * a different twiddle factor table.
  73:Source\TransformFunctions/arm_cfft_f32.c **** * \par
  74:Source\TransformFunctions/arm_cfft_f32.c **** * The function uses the standard FFT definition and output values may grow by a
  75:Source\TransformFunctions/arm_cfft_f32.c **** * factor of <code>fftLen</code> when computing the forward transform.  The
  76:Source\TransformFunctions/arm_cfft_f32.c **** * inverse transform includes a scale of <code>1/fftLen</code> as part of the
  77:Source\TransformFunctions/arm_cfft_f32.c **** * calculation and this matches the textbook definition of the inverse FFT.
  78:Source\TransformFunctions/arm_cfft_f32.c **** * \par
  79:Source\TransformFunctions/arm_cfft_f32.c **** * Pre-initialized data structures containing twiddle factors and bit reversal
  80:Source\TransformFunctions/arm_cfft_f32.c **** * tables are provided and defined in <code>arm_const_structs.h</code>.  Include
  81:Source\TransformFunctions/arm_cfft_f32.c **** * this header in your function and then pass one of the constant structures as
  82:Source\TransformFunctions/arm_cfft_f32.c **** * an argument to arm_cfft_f32.  For example:
  83:Source\TransformFunctions/arm_cfft_f32.c **** * \par
  84:Source\TransformFunctions/arm_cfft_f32.c **** * <code>arm_cfft_f32(arm_cfft_sR_f32_len64, pSrc, 1, 1)</code>
  85:Source\TransformFunctions/arm_cfft_f32.c **** * \par
  86:Source\TransformFunctions/arm_cfft_f32.c **** * computes a 64-point inverse complex FFT including bit reversal.
ARM GAS  C:\Users\fneves\AppData\Local\Temp\ccc6W3UB.s 			page 3


  87:Source\TransformFunctions/arm_cfft_f32.c **** * The data structures are treated as constant data and not modified during the
  88:Source\TransformFunctions/arm_cfft_f32.c **** * calculation.  The same data structure can be reused for multiple transforms
  89:Source\TransformFunctions/arm_cfft_f32.c **** * including mixing forward and inverse transforms.
  90:Source\TransformFunctions/arm_cfft_f32.c **** * \par
  91:Source\TransformFunctions/arm_cfft_f32.c **** * Earlier releases of the library provided separate radix-2 and radix-4
  92:Source\TransformFunctions/arm_cfft_f32.c **** * algorithms that operated on floating-point data.  These functions are still
  93:Source\TransformFunctions/arm_cfft_f32.c **** * provided but are deprecated.  The older functions are slower and less general
  94:Source\TransformFunctions/arm_cfft_f32.c **** * than the new functions.
  95:Source\TransformFunctions/arm_cfft_f32.c **** * \par
  96:Source\TransformFunctions/arm_cfft_f32.c **** * An example of initialization of the constants for the arm_cfft_f32 function follows:
  97:Source\TransformFunctions/arm_cfft_f32.c **** * \code
  98:Source\TransformFunctions/arm_cfft_f32.c **** * const static arm_cfft_instance_f32 *S;
  99:Source\TransformFunctions/arm_cfft_f32.c **** * ...
 100:Source\TransformFunctions/arm_cfft_f32.c **** *   switch (length) {
 101:Source\TransformFunctions/arm_cfft_f32.c **** *     case 16:
 102:Source\TransformFunctions/arm_cfft_f32.c **** *       S = &arm_cfft_sR_f32_len16;
 103:Source\TransformFunctions/arm_cfft_f32.c **** *       break;
 104:Source\TransformFunctions/arm_cfft_f32.c **** *     case 32:
 105:Source\TransformFunctions/arm_cfft_f32.c **** *       S = &arm_cfft_sR_f32_len32;
 106:Source\TransformFunctions/arm_cfft_f32.c **** *       break;
 107:Source\TransformFunctions/arm_cfft_f32.c **** *     case 64:
 108:Source\TransformFunctions/arm_cfft_f32.c **** *       S = &arm_cfft_sR_f32_len64;
 109:Source\TransformFunctions/arm_cfft_f32.c **** *       break;
 110:Source\TransformFunctions/arm_cfft_f32.c **** *     case 128:
 111:Source\TransformFunctions/arm_cfft_f32.c **** *       S = &arm_cfft_sR_f32_len128;
 112:Source\TransformFunctions/arm_cfft_f32.c **** *       break;
 113:Source\TransformFunctions/arm_cfft_f32.c **** *     case 256:
 114:Source\TransformFunctions/arm_cfft_f32.c **** *       S = &arm_cfft_sR_f32_len256;
 115:Source\TransformFunctions/arm_cfft_f32.c **** *       break;
 116:Source\TransformFunctions/arm_cfft_f32.c **** *     case 512:
 117:Source\TransformFunctions/arm_cfft_f32.c **** *       S = &arm_cfft_sR_f32_len512;
 118:Source\TransformFunctions/arm_cfft_f32.c **** *       break;
 119:Source\TransformFunctions/arm_cfft_f32.c **** *     case 1024:
 120:Source\TransformFunctions/arm_cfft_f32.c **** *       S = &arm_cfft_sR_f32_len1024;
 121:Source\TransformFunctions/arm_cfft_f32.c **** *       break;
 122:Source\TransformFunctions/arm_cfft_f32.c **** *     case 2048:
 123:Source\TransformFunctions/arm_cfft_f32.c **** *       S = &arm_cfft_sR_f32_len2048;
 124:Source\TransformFunctions/arm_cfft_f32.c **** *       break;
 125:Source\TransformFunctions/arm_cfft_f32.c **** *     case 4096:
 126:Source\TransformFunctions/arm_cfft_f32.c **** *       S = &arm_cfft_sR_f32_len4096;
 127:Source\TransformFunctions/arm_cfft_f32.c **** *       break;
 128:Source\TransformFunctions/arm_cfft_f32.c **** *   }
 129:Source\TransformFunctions/arm_cfft_f32.c **** * \endcode
 130:Source\TransformFunctions/arm_cfft_f32.c **** * \par Q15 and Q31
 131:Source\TransformFunctions/arm_cfft_f32.c **** * The floating-point complex FFT uses a mixed-radix algorithm.  Multiple radix-4
 132:Source\TransformFunctions/arm_cfft_f32.c **** * stages are performed along with a single radix-2 stage, as needed.
 133:Source\TransformFunctions/arm_cfft_f32.c **** * The algorithm supports lengths of [16, 32, 64, ..., 4096] and each length uses
 134:Source\TransformFunctions/arm_cfft_f32.c **** * a different twiddle factor table.
 135:Source\TransformFunctions/arm_cfft_f32.c **** * \par
 136:Source\TransformFunctions/arm_cfft_f32.c **** * The function uses the standard FFT definition and output values may grow by a
 137:Source\TransformFunctions/arm_cfft_f32.c **** * factor of <code>fftLen</code> when computing the forward transform.  The
 138:Source\TransformFunctions/arm_cfft_f32.c **** * inverse transform includes a scale of <code>1/fftLen</code> as part of the
 139:Source\TransformFunctions/arm_cfft_f32.c **** * calculation and this matches the textbook definition of the inverse FFT.
 140:Source\TransformFunctions/arm_cfft_f32.c **** * \par
 141:Source\TransformFunctions/arm_cfft_f32.c **** * Pre-initialized data structures containing twiddle factors and bit reversal
 142:Source\TransformFunctions/arm_cfft_f32.c **** * tables are provided and defined in <code>arm_const_structs.h</code>.  Include
 143:Source\TransformFunctions/arm_cfft_f32.c **** * this header in your function and then pass one of the constant structures as
ARM GAS  C:\Users\fneves\AppData\Local\Temp\ccc6W3UB.s 			page 4


 144:Source\TransformFunctions/arm_cfft_f32.c **** * an argument to arm_cfft_q31.  For example:
 145:Source\TransformFunctions/arm_cfft_f32.c **** * \par
 146:Source\TransformFunctions/arm_cfft_f32.c **** * <code>arm_cfft_q31(arm_cfft_sR_q31_len64, pSrc, 1, 1)</code>
 147:Source\TransformFunctions/arm_cfft_f32.c **** * \par
 148:Source\TransformFunctions/arm_cfft_f32.c **** * computes a 64-point inverse complex FFT including bit reversal.
 149:Source\TransformFunctions/arm_cfft_f32.c **** * The data structures are treated as constant data and not modified during the
 150:Source\TransformFunctions/arm_cfft_f32.c **** * calculation.  The same data structure can be reused for multiple transforms
 151:Source\TransformFunctions/arm_cfft_f32.c **** * including mixing forward and inverse transforms.
 152:Source\TransformFunctions/arm_cfft_f32.c **** * \par
 153:Source\TransformFunctions/arm_cfft_f32.c **** * Earlier releases of the library provided separate radix-2 and radix-4
 154:Source\TransformFunctions/arm_cfft_f32.c **** * algorithms that operated on floating-point data.  These functions are still
 155:Source\TransformFunctions/arm_cfft_f32.c **** * provided but are deprecated.  The older functions are slower and less general
 156:Source\TransformFunctions/arm_cfft_f32.c **** * than the new functions.
 157:Source\TransformFunctions/arm_cfft_f32.c **** * \par
 158:Source\TransformFunctions/arm_cfft_f32.c **** * An example of initialization of the constants for the arm_cfft_q31 function follows:
 159:Source\TransformFunctions/arm_cfft_f32.c **** * \code
 160:Source\TransformFunctions/arm_cfft_f32.c **** * const static arm_cfft_instance_q31 *S;
 161:Source\TransformFunctions/arm_cfft_f32.c **** * ...
 162:Source\TransformFunctions/arm_cfft_f32.c **** *   switch (length) {
 163:Source\TransformFunctions/arm_cfft_f32.c **** *     case 16:
 164:Source\TransformFunctions/arm_cfft_f32.c **** *       S = &arm_cfft_sR_q31_len16;
 165:Source\TransformFunctions/arm_cfft_f32.c **** *       break;
 166:Source\TransformFunctions/arm_cfft_f32.c **** *     case 32:
 167:Source\TransformFunctions/arm_cfft_f32.c **** *       S = &arm_cfft_sR_q31_len32;
 168:Source\TransformFunctions/arm_cfft_f32.c **** *       break;
 169:Source\TransformFunctions/arm_cfft_f32.c **** *     case 64:
 170:Source\TransformFunctions/arm_cfft_f32.c **** *       S = &arm_cfft_sR_q31_len64;
 171:Source\TransformFunctions/arm_cfft_f32.c **** *       break;
 172:Source\TransformFunctions/arm_cfft_f32.c **** *     case 128:
 173:Source\TransformFunctions/arm_cfft_f32.c **** *       S = &arm_cfft_sR_q31_len128;
 174:Source\TransformFunctions/arm_cfft_f32.c **** *       break;
 175:Source\TransformFunctions/arm_cfft_f32.c **** *     case 256:
 176:Source\TransformFunctions/arm_cfft_f32.c **** *       S = &arm_cfft_sR_q31_len256;
 177:Source\TransformFunctions/arm_cfft_f32.c **** *       break;
 178:Source\TransformFunctions/arm_cfft_f32.c **** *     case 512:
 179:Source\TransformFunctions/arm_cfft_f32.c **** *       S = &arm_cfft_sR_q31_len512;
 180:Source\TransformFunctions/arm_cfft_f32.c **** *       break;
 181:Source\TransformFunctions/arm_cfft_f32.c **** *     case 1024:
 182:Source\TransformFunctions/arm_cfft_f32.c **** *       S = &arm_cfft_sR_q31_len1024;
 183:Source\TransformFunctions/arm_cfft_f32.c **** *       break;
 184:Source\TransformFunctions/arm_cfft_f32.c **** *     case 2048:
 185:Source\TransformFunctions/arm_cfft_f32.c **** *       S = &arm_cfft_sR_q31_len2048;
 186:Source\TransformFunctions/arm_cfft_f32.c **** *       break;
 187:Source\TransformFunctions/arm_cfft_f32.c **** *     case 4096:
 188:Source\TransformFunctions/arm_cfft_f32.c **** *       S = &arm_cfft_sR_q31_len4096;
 189:Source\TransformFunctions/arm_cfft_f32.c **** *       break;
 190:Source\TransformFunctions/arm_cfft_f32.c **** *   }
 191:Source\TransformFunctions/arm_cfft_f32.c **** * \endcode
 192:Source\TransformFunctions/arm_cfft_f32.c **** *
 193:Source\TransformFunctions/arm_cfft_f32.c **** */
 194:Source\TransformFunctions/arm_cfft_f32.c **** 
 195:Source\TransformFunctions/arm_cfft_f32.c **** void arm_cfft_radix8by2_f32( arm_cfft_instance_f32 * S, float32_t * p1)
 196:Source\TransformFunctions/arm_cfft_f32.c **** {
  29              		.loc 1 196 0
  30              		.cfi_startproc
  31 0000 90B5     		push	{r4, r7, lr}
  32              		.cfi_def_cfa_offset 12
ARM GAS  C:\Users\fneves\AppData\Local\Temp\ccc6W3UB.s 			page 5


  33              		.cfi_offset 4, -12
  34              		.cfi_offset 7, -8
  35              		.cfi_offset 14, -4
  36 0002 A1B0     		sub	sp, sp, #132
  37              		.cfi_def_cfa_offset 144
  38 0004 00AF     		add	r7, sp, #0
  39              		.cfi_def_cfa_register 7
  40 0006 7860     		str	r0, [r7, #4]
  41 0008 3960     		str	r1, [r7]
 197:Source\TransformFunctions/arm_cfft_f32.c ****     uint32_t    L  = S->fftLen;
  42              		.loc 1 197 0
  43 000a 7B68     		ldr	r3, [r7, #4]
  44 000c 1B88     		ldrh	r3, [r3]
  45 000e BB66     		str	r3, [r7, #104]
 198:Source\TransformFunctions/arm_cfft_f32.c ****     float32_t * pCol1, * pCol2, * pMid1, * pMid2;
 199:Source\TransformFunctions/arm_cfft_f32.c ****     float32_t * p2 = p1 + L;
  46              		.loc 1 199 0
  47 0010 BB6E     		ldr	r3, [r7, #104]
  48 0012 9B00     		lsl	r3, r3, #2
  49 0014 3A68     		ldr	r2, [r7]
  50 0016 D318     		add	r3, r2, r3
  51 0018 7B67     		str	r3, [r7, #116]
 200:Source\TransformFunctions/arm_cfft_f32.c ****     const float32_t * tw = (float32_t *) S->pTwiddle;
  52              		.loc 1 200 0
  53 001a 7B68     		ldr	r3, [r7, #4]
  54 001c 5B68     		ldr	r3, [r3, #4]
  55 001e 3B67     		str	r3, [r7, #112]
 201:Source\TransformFunctions/arm_cfft_f32.c ****     float32_t t1[4], t2[4], t3[4], t4[4], twR, twI;
 202:Source\TransformFunctions/arm_cfft_f32.c ****     float32_t m0, m1, m2, m3;
 203:Source\TransformFunctions/arm_cfft_f32.c ****     uint32_t l;
 204:Source\TransformFunctions/arm_cfft_f32.c **** 
 205:Source\TransformFunctions/arm_cfft_f32.c ****     pCol1 = p1;
  56              		.loc 1 205 0
  57 0020 3B68     		ldr	r3, [r7]
  58 0022 7B66     		str	r3, [r7, #100]
 206:Source\TransformFunctions/arm_cfft_f32.c ****     pCol2 = p2;
  59              		.loc 1 206 0
  60 0024 7B6F     		ldr	r3, [r7, #116]
  61 0026 3B66     		str	r3, [r7, #96]
 207:Source\TransformFunctions/arm_cfft_f32.c **** 
 208:Source\TransformFunctions/arm_cfft_f32.c ****     //    Define new length
 209:Source\TransformFunctions/arm_cfft_f32.c ****     L >>= 1;
  62              		.loc 1 209 0
  63 0028 BB6E     		ldr	r3, [r7, #104]
  64 002a 5B08     		lsr	r3, r3, #1
  65 002c BB66     		str	r3, [r7, #104]
 210:Source\TransformFunctions/arm_cfft_f32.c ****     //    Initialize mid pointers
 211:Source\TransformFunctions/arm_cfft_f32.c ****     pMid1 = p1 + L;
  66              		.loc 1 211 0
  67 002e BB6E     		ldr	r3, [r7, #104]
  68 0030 9B00     		lsl	r3, r3, #2
  69 0032 3A68     		ldr	r2, [r7]
  70 0034 D318     		add	r3, r2, r3
  71 0036 FB67     		str	r3, [r7, #124]
 212:Source\TransformFunctions/arm_cfft_f32.c ****     pMid2 = p2 + L;
  72              		.loc 1 212 0
  73 0038 BB6E     		ldr	r3, [r7, #104]
ARM GAS  C:\Users\fneves\AppData\Local\Temp\ccc6W3UB.s 			page 6


  74 003a 9B00     		lsl	r3, r3, #2
  75 003c 7A6F     		ldr	r2, [r7, #116]
  76 003e D318     		add	r3, r2, r3
  77 0040 BB67     		str	r3, [r7, #120]
 213:Source\TransformFunctions/arm_cfft_f32.c **** 
 214:Source\TransformFunctions/arm_cfft_f32.c ****     // do two dot Fourier transform
 215:Source\TransformFunctions/arm_cfft_f32.c ****     for ( l = L >> 2; l > 0; l-- )
  78              		.loc 1 215 0
  79 0042 BB6E     		ldr	r3, [r7, #104]
  80 0044 9B08     		lsr	r3, r3, #2
  81 0046 FB66     		str	r3, [r7, #108]
  82 0048 2EE2     		b	.L2
  83              	.L3:
 216:Source\TransformFunctions/arm_cfft_f32.c ****     {
 217:Source\TransformFunctions/arm_cfft_f32.c ****         t1[0] = p1[0];
  84              		.loc 1 217 0 discriminator 3
  85 004a 3B68     		ldr	r3, [r7]
  86 004c 1A68     		ldr	r2, [r3]
  87 004e 3823     		mov	r3, #56
  88 0050 FB18     		add	r3, r7, r3
  89 0052 1A60     		str	r2, [r3]
 218:Source\TransformFunctions/arm_cfft_f32.c ****         t1[1] = p1[1];
  90              		.loc 1 218 0 discriminator 3
  91 0054 3B68     		ldr	r3, [r7]
  92 0056 5A68     		ldr	r2, [r3, #4]
  93 0058 3823     		mov	r3, #56
  94 005a FB18     		add	r3, r7, r3
  95 005c 5A60     		str	r2, [r3, #4]
 219:Source\TransformFunctions/arm_cfft_f32.c ****         t1[2] = p1[2];
  96              		.loc 1 219 0 discriminator 3
  97 005e 3B68     		ldr	r3, [r7]
  98 0060 9A68     		ldr	r2, [r3, #8]
  99 0062 3823     		mov	r3, #56
 100 0064 FB18     		add	r3, r7, r3
 101 0066 9A60     		str	r2, [r3, #8]
 220:Source\TransformFunctions/arm_cfft_f32.c ****         t1[3] = p1[3];
 102              		.loc 1 220 0 discriminator 3
 103 0068 3B68     		ldr	r3, [r7]
 104 006a DA68     		ldr	r2, [r3, #12]
 105 006c 3823     		mov	r3, #56
 106 006e FB18     		add	r3, r7, r3
 107 0070 DA60     		str	r2, [r3, #12]
 221:Source\TransformFunctions/arm_cfft_f32.c **** 
 222:Source\TransformFunctions/arm_cfft_f32.c ****         t2[0] = p2[0];
 108              		.loc 1 222 0 discriminator 3
 109 0072 7B6F     		ldr	r3, [r7, #116]
 110 0074 1A68     		ldr	r2, [r3]
 111 0076 2823     		mov	r3, #40
 112 0078 FB18     		add	r3, r7, r3
 113 007a 1A60     		str	r2, [r3]
 223:Source\TransformFunctions/arm_cfft_f32.c ****         t2[1] = p2[1];
 114              		.loc 1 223 0 discriminator 3
 115 007c 7B6F     		ldr	r3, [r7, #116]
 116 007e 5A68     		ldr	r2, [r3, #4]
 117 0080 2823     		mov	r3, #40
 118 0082 FB18     		add	r3, r7, r3
 119 0084 5A60     		str	r2, [r3, #4]
ARM GAS  C:\Users\fneves\AppData\Local\Temp\ccc6W3UB.s 			page 7


 224:Source\TransformFunctions/arm_cfft_f32.c ****         t2[2] = p2[2];
 120              		.loc 1 224 0 discriminator 3
 121 0086 7B6F     		ldr	r3, [r7, #116]
 122 0088 9A68     		ldr	r2, [r3, #8]
 123 008a 2823     		mov	r3, #40
 124 008c FB18     		add	r3, r7, r3
 125 008e 9A60     		str	r2, [r3, #8]
 225:Source\TransformFunctions/arm_cfft_f32.c ****         t2[3] = p2[3];
 126              		.loc 1 225 0 discriminator 3
 127 0090 7B6F     		ldr	r3, [r7, #116]
 128 0092 DA68     		ldr	r2, [r3, #12]
 129 0094 2823     		mov	r3, #40
 130 0096 FB18     		add	r3, r7, r3
 131 0098 DA60     		str	r2, [r3, #12]
 226:Source\TransformFunctions/arm_cfft_f32.c **** 
 227:Source\TransformFunctions/arm_cfft_f32.c ****         t3[0] = pMid1[0];
 132              		.loc 1 227 0 discriminator 3
 133 009a FB6F     		ldr	r3, [r7, #124]
 134 009c 1A68     		ldr	r2, [r3]
 135 009e 1823     		mov	r3, #24
 136 00a0 FB18     		add	r3, r7, r3
 137 00a2 1A60     		str	r2, [r3]
 228:Source\TransformFunctions/arm_cfft_f32.c ****         t3[1] = pMid1[1];
 138              		.loc 1 228 0 discriminator 3
 139 00a4 FB6F     		ldr	r3, [r7, #124]
 140 00a6 5A68     		ldr	r2, [r3, #4]
 141 00a8 1823     		mov	r3, #24
 142 00aa FB18     		add	r3, r7, r3
 143 00ac 5A60     		str	r2, [r3, #4]
 229:Source\TransformFunctions/arm_cfft_f32.c ****         t3[2] = pMid1[2];
 144              		.loc 1 229 0 discriminator 3
 145 00ae FB6F     		ldr	r3, [r7, #124]
 146 00b0 9A68     		ldr	r2, [r3, #8]
 147 00b2 1823     		mov	r3, #24
 148 00b4 FB18     		add	r3, r7, r3
 149 00b6 9A60     		str	r2, [r3, #8]
 230:Source\TransformFunctions/arm_cfft_f32.c ****         t3[3] = pMid1[3];
 150              		.loc 1 230 0 discriminator 3
 151 00b8 FB6F     		ldr	r3, [r7, #124]
 152 00ba DA68     		ldr	r2, [r3, #12]
 153 00bc 1823     		mov	r3, #24
 154 00be FB18     		add	r3, r7, r3
 155 00c0 DA60     		str	r2, [r3, #12]
 231:Source\TransformFunctions/arm_cfft_f32.c **** 
 232:Source\TransformFunctions/arm_cfft_f32.c ****         t4[0] = pMid2[0];
 156              		.loc 1 232 0 discriminator 3
 157 00c2 BB6F     		ldr	r3, [r7, #120]
 158 00c4 1A68     		ldr	r2, [r3]
 159 00c6 0823     		mov	r3, #8
 160 00c8 FB18     		add	r3, r7, r3
 161 00ca 1A60     		str	r2, [r3]
 233:Source\TransformFunctions/arm_cfft_f32.c ****         t4[1] = pMid2[1];
 162              		.loc 1 233 0 discriminator 3
 163 00cc BB6F     		ldr	r3, [r7, #120]
 164 00ce 5A68     		ldr	r2, [r3, #4]
 165 00d0 0823     		mov	r3, #8
 166 00d2 FB18     		add	r3, r7, r3
ARM GAS  C:\Users\fneves\AppData\Local\Temp\ccc6W3UB.s 			page 8


 167 00d4 5A60     		str	r2, [r3, #4]
 234:Source\TransformFunctions/arm_cfft_f32.c ****         t4[2] = pMid2[2];
 168              		.loc 1 234 0 discriminator 3
 169 00d6 BB6F     		ldr	r3, [r7, #120]
 170 00d8 9A68     		ldr	r2, [r3, #8]
 171 00da 0823     		mov	r3, #8
 172 00dc FB18     		add	r3, r7, r3
 173 00de 9A60     		str	r2, [r3, #8]
 235:Source\TransformFunctions/arm_cfft_f32.c ****         t4[3] = pMid2[3];
 174              		.loc 1 235 0 discriminator 3
 175 00e0 BB6F     		ldr	r3, [r7, #120]
 176 00e2 DA68     		ldr	r2, [r3, #12]
 177 00e4 0823     		mov	r3, #8
 178 00e6 FB18     		add	r3, r7, r3
 179 00e8 DA60     		str	r2, [r3, #12]
 236:Source\TransformFunctions/arm_cfft_f32.c **** 
 237:Source\TransformFunctions/arm_cfft_f32.c ****         *p1++ = t1[0] + t2[0];
 180              		.loc 1 237 0 discriminator 3
 181 00ea 3C68     		ldr	r4, [r7]
 182 00ec 231D     		add	r3, r4, #4
 183 00ee 3B60     		str	r3, [r7]
 184 00f0 3823     		mov	r3, #56
 185 00f2 FB18     		add	r3, r7, r3
 186 00f4 1A68     		ldr	r2, [r3]
 187 00f6 2823     		mov	r3, #40
 188 00f8 FB18     		add	r3, r7, r3
 189 00fa 1B68     		ldr	r3, [r3]
 190 00fc 101C     		add	r0, r2, #0
 191 00fe 191C     		add	r1, r3, #0
 192 0100 FFF7FEFF 		bl	__aeabi_fadd
 193 0104 031C     		add	r3, r0, #0
 194 0106 2360     		str	r3, [r4]
 238:Source\TransformFunctions/arm_cfft_f32.c ****         *p1++ = t1[1] + t2[1];
 195              		.loc 1 238 0 discriminator 3
 196 0108 3C68     		ldr	r4, [r7]
 197 010a 231D     		add	r3, r4, #4
 198 010c 3B60     		str	r3, [r7]
 199 010e 3823     		mov	r3, #56
 200 0110 FB18     		add	r3, r7, r3
 201 0112 5A68     		ldr	r2, [r3, #4]
 202 0114 2823     		mov	r3, #40
 203 0116 FB18     		add	r3, r7, r3
 204 0118 5B68     		ldr	r3, [r3, #4]
 205 011a 101C     		add	r0, r2, #0
 206 011c 191C     		add	r1, r3, #0
 207 011e FFF7FEFF 		bl	__aeabi_fadd
 208 0122 031C     		add	r3, r0, #0
 209 0124 2360     		str	r3, [r4]
 239:Source\TransformFunctions/arm_cfft_f32.c ****         *p1++ = t1[2] + t2[2];
 210              		.loc 1 239 0 discriminator 3
 211 0126 3C68     		ldr	r4, [r7]
 212 0128 231D     		add	r3, r4, #4
 213 012a 3B60     		str	r3, [r7]
 214 012c 3823     		mov	r3, #56
 215 012e FB18     		add	r3, r7, r3
 216 0130 9A68     		ldr	r2, [r3, #8]
 217 0132 2823     		mov	r3, #40
ARM GAS  C:\Users\fneves\AppData\Local\Temp\ccc6W3UB.s 			page 9


 218 0134 FB18     		add	r3, r7, r3
 219 0136 9B68     		ldr	r3, [r3, #8]
 220 0138 101C     		add	r0, r2, #0
 221 013a 191C     		add	r1, r3, #0
 222 013c FFF7FEFF 		bl	__aeabi_fadd
 223 0140 031C     		add	r3, r0, #0
 224 0142 2360     		str	r3, [r4]
 240:Source\TransformFunctions/arm_cfft_f32.c ****         *p1++ = t1[3] + t2[3];    // col 1
 225              		.loc 1 240 0 discriminator 3
 226 0144 3C68     		ldr	r4, [r7]
 227 0146 231D     		add	r3, r4, #4
 228 0148 3B60     		str	r3, [r7]
 229 014a 3823     		mov	r3, #56
 230 014c FB18     		add	r3, r7, r3
 231 014e DA68     		ldr	r2, [r3, #12]
 232 0150 2823     		mov	r3, #40
 233 0152 FB18     		add	r3, r7, r3
 234 0154 DB68     		ldr	r3, [r3, #12]
 235 0156 101C     		add	r0, r2, #0
 236 0158 191C     		add	r1, r3, #0
 237 015a FFF7FEFF 		bl	__aeabi_fadd
 238 015e 031C     		add	r3, r0, #0
 239 0160 2360     		str	r3, [r4]
 241:Source\TransformFunctions/arm_cfft_f32.c **** 
 242:Source\TransformFunctions/arm_cfft_f32.c ****         t2[0] = t1[0] - t2[0];
 240              		.loc 1 242 0 discriminator 3
 241 0162 3823     		mov	r3, #56
 242 0164 FB18     		add	r3, r7, r3
 243 0166 1A68     		ldr	r2, [r3]
 244 0168 2823     		mov	r3, #40
 245 016a FB18     		add	r3, r7, r3
 246 016c 1B68     		ldr	r3, [r3]
 247 016e 101C     		add	r0, r2, #0
 248 0170 191C     		add	r1, r3, #0
 249 0172 FFF7FEFF 		bl	__aeabi_fsub
 250 0176 031C     		add	r3, r0, #0
 251 0178 1A1C     		add	r2, r3, #0
 252 017a 2823     		mov	r3, #40
 253 017c FB18     		add	r3, r7, r3
 254 017e 1A60     		str	r2, [r3]
 243:Source\TransformFunctions/arm_cfft_f32.c ****         t2[1] = t1[1] - t2[1];
 255              		.loc 1 243 0 discriminator 3
 256 0180 3823     		mov	r3, #56
 257 0182 FB18     		add	r3, r7, r3
 258 0184 5A68     		ldr	r2, [r3, #4]
 259 0186 2823     		mov	r3, #40
 260 0188 FB18     		add	r3, r7, r3
 261 018a 5B68     		ldr	r3, [r3, #4]
 262 018c 101C     		add	r0, r2, #0
 263 018e 191C     		add	r1, r3, #0
 264 0190 FFF7FEFF 		bl	__aeabi_fsub
 265 0194 031C     		add	r3, r0, #0
 266 0196 1A1C     		add	r2, r3, #0
 267 0198 2823     		mov	r3, #40
 268 019a FB18     		add	r3, r7, r3
 269 019c 5A60     		str	r2, [r3, #4]
 244:Source\TransformFunctions/arm_cfft_f32.c ****         t2[2] = t1[2] - t2[2];
ARM GAS  C:\Users\fneves\AppData\Local\Temp\ccc6W3UB.s 			page 10


 270              		.loc 1 244 0 discriminator 3
 271 019e 3823     		mov	r3, #56
 272 01a0 FB18     		add	r3, r7, r3
 273 01a2 9A68     		ldr	r2, [r3, #8]
 274 01a4 2823     		mov	r3, #40
 275 01a6 FB18     		add	r3, r7, r3
 276 01a8 9B68     		ldr	r3, [r3, #8]
 277 01aa 101C     		add	r0, r2, #0
 278 01ac 191C     		add	r1, r3, #0
 279 01ae FFF7FEFF 		bl	__aeabi_fsub
 280 01b2 031C     		add	r3, r0, #0
 281 01b4 1A1C     		add	r2, r3, #0
 282 01b6 2823     		mov	r3, #40
 283 01b8 FB18     		add	r3, r7, r3
 284 01ba 9A60     		str	r2, [r3, #8]
 245:Source\TransformFunctions/arm_cfft_f32.c ****         t2[3] = t1[3] - t2[3];    // for col 2
 285              		.loc 1 245 0 discriminator 3
 286 01bc 3823     		mov	r3, #56
 287 01be FB18     		add	r3, r7, r3
 288 01c0 DA68     		ldr	r2, [r3, #12]
 289 01c2 2823     		mov	r3, #40
 290 01c4 FB18     		add	r3, r7, r3
 291 01c6 DB68     		ldr	r3, [r3, #12]
 292 01c8 101C     		add	r0, r2, #0
 293 01ca 191C     		add	r1, r3, #0
 294 01cc FFF7FEFF 		bl	__aeabi_fsub
 295 01d0 031C     		add	r3, r0, #0
 296 01d2 1A1C     		add	r2, r3, #0
 297 01d4 2823     		mov	r3, #40
 298 01d6 FB18     		add	r3, r7, r3
 299 01d8 DA60     		str	r2, [r3, #12]
 246:Source\TransformFunctions/arm_cfft_f32.c **** 
 247:Source\TransformFunctions/arm_cfft_f32.c ****         *pMid1++ = t3[0] + t4[0];
 300              		.loc 1 247 0 discriminator 3
 301 01da FC6F     		ldr	r4, [r7, #124]
 302 01dc 231D     		add	r3, r4, #4
 303 01de FB67     		str	r3, [r7, #124]
 304 01e0 1823     		mov	r3, #24
 305 01e2 FB18     		add	r3, r7, r3
 306 01e4 1A68     		ldr	r2, [r3]
 307 01e6 0823     		mov	r3, #8
 308 01e8 FB18     		add	r3, r7, r3
 309 01ea 1B68     		ldr	r3, [r3]
 310 01ec 101C     		add	r0, r2, #0
 311 01ee 191C     		add	r1, r3, #0
 312 01f0 FFF7FEFF 		bl	__aeabi_fadd
 313 01f4 031C     		add	r3, r0, #0
 314 01f6 2360     		str	r3, [r4]
 248:Source\TransformFunctions/arm_cfft_f32.c ****         *pMid1++ = t3[1] + t4[1];
 315              		.loc 1 248 0 discriminator 3
 316 01f8 FC6F     		ldr	r4, [r7, #124]
 317 01fa 231D     		add	r3, r4, #4
 318 01fc FB67     		str	r3, [r7, #124]
 319 01fe 1823     		mov	r3, #24
 320 0200 FB18     		add	r3, r7, r3
 321 0202 5A68     		ldr	r2, [r3, #4]
 322 0204 0823     		mov	r3, #8
ARM GAS  C:\Users\fneves\AppData\Local\Temp\ccc6W3UB.s 			page 11


 323 0206 FB18     		add	r3, r7, r3
 324 0208 5B68     		ldr	r3, [r3, #4]
 325 020a 101C     		add	r0, r2, #0
 326 020c 191C     		add	r1, r3, #0
 327 020e FFF7FEFF 		bl	__aeabi_fadd
 328 0212 031C     		add	r3, r0, #0
 329 0214 2360     		str	r3, [r4]
 249:Source\TransformFunctions/arm_cfft_f32.c ****         *pMid1++ = t3[2] + t4[2];
 330              		.loc 1 249 0 discriminator 3
 331 0216 FC6F     		ldr	r4, [r7, #124]
 332 0218 231D     		add	r3, r4, #4
 333 021a FB67     		str	r3, [r7, #124]
 334 021c 1823     		mov	r3, #24
 335 021e FB18     		add	r3, r7, r3
 336 0220 9A68     		ldr	r2, [r3, #8]
 337 0222 0823     		mov	r3, #8
 338 0224 FB18     		add	r3, r7, r3
 339 0226 9B68     		ldr	r3, [r3, #8]
 340 0228 101C     		add	r0, r2, #0
 341 022a 191C     		add	r1, r3, #0
 342 022c FFF7FEFF 		bl	__aeabi_fadd
 343 0230 031C     		add	r3, r0, #0
 344 0232 2360     		str	r3, [r4]
 250:Source\TransformFunctions/arm_cfft_f32.c ****         *pMid1++ = t3[3] + t4[3]; // col 1
 345              		.loc 1 250 0 discriminator 3
 346 0234 FC6F     		ldr	r4, [r7, #124]
 347 0236 231D     		add	r3, r4, #4
 348 0238 FB67     		str	r3, [r7, #124]
 349 023a 1823     		mov	r3, #24
 350 023c FB18     		add	r3, r7, r3
 351 023e DA68     		ldr	r2, [r3, #12]
 352 0240 0823     		mov	r3, #8
 353 0242 FB18     		add	r3, r7, r3
 354 0244 DB68     		ldr	r3, [r3, #12]
 355 0246 101C     		add	r0, r2, #0
 356 0248 191C     		add	r1, r3, #0
 357 024a FFF7FEFF 		bl	__aeabi_fadd
 358 024e 031C     		add	r3, r0, #0
 359 0250 2360     		str	r3, [r4]
 251:Source\TransformFunctions/arm_cfft_f32.c **** 
 252:Source\TransformFunctions/arm_cfft_f32.c ****         t4[0] = t4[0] - t3[0];
 360              		.loc 1 252 0 discriminator 3
 361 0252 0823     		mov	r3, #8
 362 0254 FB18     		add	r3, r7, r3
 363 0256 1A68     		ldr	r2, [r3]
 364 0258 1823     		mov	r3, #24
 365 025a FB18     		add	r3, r7, r3
 366 025c 1B68     		ldr	r3, [r3]
 367 025e 101C     		add	r0, r2, #0
 368 0260 191C     		add	r1, r3, #0
 369 0262 FFF7FEFF 		bl	__aeabi_fsub
 370 0266 031C     		add	r3, r0, #0
 371 0268 1A1C     		add	r2, r3, #0
 372 026a 0823     		mov	r3, #8
 373 026c FB18     		add	r3, r7, r3
 374 026e 1A60     		str	r2, [r3]
 253:Source\TransformFunctions/arm_cfft_f32.c ****         t4[1] = t4[1] - t3[1];
ARM GAS  C:\Users\fneves\AppData\Local\Temp\ccc6W3UB.s 			page 12


 375              		.loc 1 253 0 discriminator 3
 376 0270 0823     		mov	r3, #8
 377 0272 FB18     		add	r3, r7, r3
 378 0274 5A68     		ldr	r2, [r3, #4]
 379 0276 1823     		mov	r3, #24
 380 0278 FB18     		add	r3, r7, r3
 381 027a 5B68     		ldr	r3, [r3, #4]
 382 027c 101C     		add	r0, r2, #0
 383 027e 191C     		add	r1, r3, #0
 384 0280 FFF7FEFF 		bl	__aeabi_fsub
 385 0284 031C     		add	r3, r0, #0
 386 0286 1A1C     		add	r2, r3, #0
 387 0288 0823     		mov	r3, #8
 388 028a FB18     		add	r3, r7, r3
 389 028c 5A60     		str	r2, [r3, #4]
 254:Source\TransformFunctions/arm_cfft_f32.c ****         t4[2] = t4[2] - t3[2];
 390              		.loc 1 254 0 discriminator 3
 391 028e 0823     		mov	r3, #8
 392 0290 FB18     		add	r3, r7, r3
 393 0292 9A68     		ldr	r2, [r3, #8]
 394 0294 1823     		mov	r3, #24
 395 0296 FB18     		add	r3, r7, r3
 396 0298 9B68     		ldr	r3, [r3, #8]
 397 029a 101C     		add	r0, r2, #0
 398 029c 191C     		add	r1, r3, #0
 399 029e FFF7FEFF 		bl	__aeabi_fsub
 400 02a2 031C     		add	r3, r0, #0
 401 02a4 1A1C     		add	r2, r3, #0
 402 02a6 0823     		mov	r3, #8
 403 02a8 FB18     		add	r3, r7, r3
 404 02aa 9A60     		str	r2, [r3, #8]
 255:Source\TransformFunctions/arm_cfft_f32.c ****         t4[3] = t4[3] - t3[3];    // for col 2
 405              		.loc 1 255 0 discriminator 3
 406 02ac 0823     		mov	r3, #8
 407 02ae FB18     		add	r3, r7, r3
 408 02b0 DA68     		ldr	r2, [r3, #12]
 409 02b2 1823     		mov	r3, #24
 410 02b4 FB18     		add	r3, r7, r3
 411 02b6 DB68     		ldr	r3, [r3, #12]
 412 02b8 101C     		add	r0, r2, #0
 413 02ba 191C     		add	r1, r3, #0
 414 02bc FFF7FEFF 		bl	__aeabi_fsub
 415 02c0 031C     		add	r3, r0, #0
 416 02c2 1A1C     		add	r2, r3, #0
 417 02c4 0823     		mov	r3, #8
 418 02c6 FB18     		add	r3, r7, r3
 419 02c8 DA60     		str	r2, [r3, #12]
 256:Source\TransformFunctions/arm_cfft_f32.c **** 
 257:Source\TransformFunctions/arm_cfft_f32.c ****         twR = *tw++;
 420              		.loc 1 257 0 discriminator 3
 421 02ca 3B6F     		ldr	r3, [r7, #112]
 422 02cc 1A1D     		add	r2, r3, #4
 423 02ce 3A67     		str	r2, [r7, #112]
 424 02d0 1B68     		ldr	r3, [r3]
 425 02d2 FB65     		str	r3, [r7, #92]
 258:Source\TransformFunctions/arm_cfft_f32.c ****         twI = *tw++;
 426              		.loc 1 258 0 discriminator 3
ARM GAS  C:\Users\fneves\AppData\Local\Temp\ccc6W3UB.s 			page 13


 427 02d4 3B6F     		ldr	r3, [r7, #112]
 428 02d6 1A1D     		add	r2, r3, #4
 429 02d8 3A67     		str	r2, [r7, #112]
 430 02da 1B68     		ldr	r3, [r3]
 431 02dc BB65     		str	r3, [r7, #88]
 259:Source\TransformFunctions/arm_cfft_f32.c **** 
 260:Source\TransformFunctions/arm_cfft_f32.c ****         // multiply by twiddle factors
 261:Source\TransformFunctions/arm_cfft_f32.c ****         m0 = t2[0] * twR;
 432              		.loc 1 261 0 discriminator 3
 433 02de 2823     		mov	r3, #40
 434 02e0 FB18     		add	r3, r7, r3
 435 02e2 1B68     		ldr	r3, [r3]
 436 02e4 181C     		add	r0, r3, #0
 437 02e6 F96D     		ldr	r1, [r7, #92]
 438 02e8 FFF7FEFF 		bl	__aeabi_fmul
 439 02ec 031C     		add	r3, r0, #0
 440 02ee 7B65     		str	r3, [r7, #84]
 262:Source\TransformFunctions/arm_cfft_f32.c ****         m1 = t2[1] * twI;
 441              		.loc 1 262 0 discriminator 3
 442 02f0 2823     		mov	r3, #40
 443 02f2 FB18     		add	r3, r7, r3
 444 02f4 5B68     		ldr	r3, [r3, #4]
 445 02f6 181C     		add	r0, r3, #0
 446 02f8 B96D     		ldr	r1, [r7, #88]
 447 02fa FFF7FEFF 		bl	__aeabi_fmul
 448 02fe 031C     		add	r3, r0, #0
 449 0300 3B65     		str	r3, [r7, #80]
 263:Source\TransformFunctions/arm_cfft_f32.c ****         m2 = t2[1] * twR;
 450              		.loc 1 263 0 discriminator 3
 451 0302 2823     		mov	r3, #40
 452 0304 FB18     		add	r3, r7, r3
 453 0306 5B68     		ldr	r3, [r3, #4]
 454 0308 181C     		add	r0, r3, #0
 455 030a F96D     		ldr	r1, [r7, #92]
 456 030c FFF7FEFF 		bl	__aeabi_fmul
 457 0310 031C     		add	r3, r0, #0
 458 0312 FB64     		str	r3, [r7, #76]
 264:Source\TransformFunctions/arm_cfft_f32.c ****         m3 = t2[0] * twI;
 459              		.loc 1 264 0 discriminator 3
 460 0314 2823     		mov	r3, #40
 461 0316 FB18     		add	r3, r7, r3
 462 0318 1B68     		ldr	r3, [r3]
 463 031a 181C     		add	r0, r3, #0
 464 031c B96D     		ldr	r1, [r7, #88]
 465 031e FFF7FEFF 		bl	__aeabi_fmul
 466 0322 031C     		add	r3, r0, #0
 467 0324 BB64     		str	r3, [r7, #72]
 265:Source\TransformFunctions/arm_cfft_f32.c **** 
 266:Source\TransformFunctions/arm_cfft_f32.c ****         // R  =  R  *  Tr - I * Ti
 267:Source\TransformFunctions/arm_cfft_f32.c ****         *p2++ = m0 + m1;
 468              		.loc 1 267 0 discriminator 3
 469 0326 7C6F     		ldr	r4, [r7, #116]
 470 0328 231D     		add	r3, r4, #4
 471 032a 7B67     		str	r3, [r7, #116]
 472 032c 786D     		ldr	r0, [r7, #84]
 473 032e 396D     		ldr	r1, [r7, #80]
 474 0330 FFF7FEFF 		bl	__aeabi_fadd
ARM GAS  C:\Users\fneves\AppData\Local\Temp\ccc6W3UB.s 			page 14


 475 0334 031C     		add	r3, r0, #0
 476 0336 2360     		str	r3, [r4]
 268:Source\TransformFunctions/arm_cfft_f32.c ****         // I  =  I  *  Tr + R * Ti
 269:Source\TransformFunctions/arm_cfft_f32.c ****         *p2++ = m2 - m3;
 477              		.loc 1 269 0 discriminator 3
 478 0338 7C6F     		ldr	r4, [r7, #116]
 479 033a 231D     		add	r3, r4, #4
 480 033c 7B67     		str	r3, [r7, #116]
 481 033e F86C     		ldr	r0, [r7, #76]
 482 0340 B96C     		ldr	r1, [r7, #72]
 483 0342 FFF7FEFF 		bl	__aeabi_fsub
 484 0346 031C     		add	r3, r0, #0
 485 0348 2360     		str	r3, [r4]
 270:Source\TransformFunctions/arm_cfft_f32.c **** 
 271:Source\TransformFunctions/arm_cfft_f32.c ****         // use vertical symmetry
 272:Source\TransformFunctions/arm_cfft_f32.c ****         //  0.9988 - 0.0491i <==> -0.0491 - 0.9988i
 273:Source\TransformFunctions/arm_cfft_f32.c ****         m0 = t4[0] * twI;
 486              		.loc 1 273 0 discriminator 3
 487 034a 0823     		mov	r3, #8
 488 034c FB18     		add	r3, r7, r3
 489 034e 1B68     		ldr	r3, [r3]
 490 0350 181C     		add	r0, r3, #0
 491 0352 B96D     		ldr	r1, [r7, #88]
 492 0354 FFF7FEFF 		bl	__aeabi_fmul
 493 0358 031C     		add	r3, r0, #0
 494 035a 7B65     		str	r3, [r7, #84]
 274:Source\TransformFunctions/arm_cfft_f32.c ****         m1 = t4[1] * twR;
 495              		.loc 1 274 0 discriminator 3
 496 035c 0823     		mov	r3, #8
 497 035e FB18     		add	r3, r7, r3
 498 0360 5B68     		ldr	r3, [r3, #4]
 499 0362 181C     		add	r0, r3, #0
 500 0364 F96D     		ldr	r1, [r7, #92]
 501 0366 FFF7FEFF 		bl	__aeabi_fmul
 502 036a 031C     		add	r3, r0, #0
 503 036c 3B65     		str	r3, [r7, #80]
 275:Source\TransformFunctions/arm_cfft_f32.c ****         m2 = t4[1] * twI;
 504              		.loc 1 275 0 discriminator 3
 505 036e 0823     		mov	r3, #8
 506 0370 FB18     		add	r3, r7, r3
 507 0372 5B68     		ldr	r3, [r3, #4]
 508 0374 181C     		add	r0, r3, #0
 509 0376 B96D     		ldr	r1, [r7, #88]
 510 0378 FFF7FEFF 		bl	__aeabi_fmul
 511 037c 031C     		add	r3, r0, #0
 512 037e FB64     		str	r3, [r7, #76]
 276:Source\TransformFunctions/arm_cfft_f32.c ****         m3 = t4[0] * twR;
 513              		.loc 1 276 0 discriminator 3
 514 0380 0823     		mov	r3, #8
 515 0382 FB18     		add	r3, r7, r3
 516 0384 1B68     		ldr	r3, [r3]
 517 0386 181C     		add	r0, r3, #0
 518 0388 F96D     		ldr	r1, [r7, #92]
 519 038a FFF7FEFF 		bl	__aeabi_fmul
 520 038e 031C     		add	r3, r0, #0
 521 0390 BB64     		str	r3, [r7, #72]
 277:Source\TransformFunctions/arm_cfft_f32.c **** 
ARM GAS  C:\Users\fneves\AppData\Local\Temp\ccc6W3UB.s 			page 15


 278:Source\TransformFunctions/arm_cfft_f32.c ****         *pMid2++ = m0 - m1;
 522              		.loc 1 278 0 discriminator 3
 523 0392 BC6F     		ldr	r4, [r7, #120]
 524 0394 231D     		add	r3, r4, #4
 525 0396 BB67     		str	r3, [r7, #120]
 526 0398 786D     		ldr	r0, [r7, #84]
 527 039a 396D     		ldr	r1, [r7, #80]
 528 039c FFF7FEFF 		bl	__aeabi_fsub
 529 03a0 031C     		add	r3, r0, #0
 530 03a2 2360     		str	r3, [r4]
 279:Source\TransformFunctions/arm_cfft_f32.c ****         *pMid2++ = m2 + m3;
 531              		.loc 1 279 0 discriminator 3
 532 03a4 BC6F     		ldr	r4, [r7, #120]
 533 03a6 231D     		add	r3, r4, #4
 534 03a8 BB67     		str	r3, [r7, #120]
 535 03aa F86C     		ldr	r0, [r7, #76]
 536 03ac B96C     		ldr	r1, [r7, #72]
 537 03ae FFF7FEFF 		bl	__aeabi_fadd
 538 03b2 031C     		add	r3, r0, #0
 539 03b4 2360     		str	r3, [r4]
 280:Source\TransformFunctions/arm_cfft_f32.c **** 
 281:Source\TransformFunctions/arm_cfft_f32.c ****         twR = *tw++;
 540              		.loc 1 281 0 discriminator 3
 541 03b6 3B6F     		ldr	r3, [r7, #112]
 542 03b8 1A1D     		add	r2, r3, #4
 543 03ba 3A67     		str	r2, [r7, #112]
 544 03bc 1B68     		ldr	r3, [r3]
 545 03be FB65     		str	r3, [r7, #92]
 282:Source\TransformFunctions/arm_cfft_f32.c ****         twI = *tw++;
 546              		.loc 1 282 0 discriminator 3
 547 03c0 3B6F     		ldr	r3, [r7, #112]
 548 03c2 1A1D     		add	r2, r3, #4
 549 03c4 3A67     		str	r2, [r7, #112]
 550 03c6 1B68     		ldr	r3, [r3]
 551 03c8 BB65     		str	r3, [r7, #88]
 283:Source\TransformFunctions/arm_cfft_f32.c **** 
 284:Source\TransformFunctions/arm_cfft_f32.c ****         m0 = t2[2] * twR;
 552              		.loc 1 284 0 discriminator 3
 553 03ca 2823     		mov	r3, #40
 554 03cc FB18     		add	r3, r7, r3
 555 03ce 9B68     		ldr	r3, [r3, #8]
 556 03d0 181C     		add	r0, r3, #0
 557 03d2 F96D     		ldr	r1, [r7, #92]
 558 03d4 FFF7FEFF 		bl	__aeabi_fmul
 559 03d8 031C     		add	r3, r0, #0
 560 03da 7B65     		str	r3, [r7, #84]
 285:Source\TransformFunctions/arm_cfft_f32.c ****         m1 = t2[3] * twI;
 561              		.loc 1 285 0 discriminator 3
 562 03dc 2823     		mov	r3, #40
 563 03de FB18     		add	r3, r7, r3
 564 03e0 DB68     		ldr	r3, [r3, #12]
 565 03e2 181C     		add	r0, r3, #0
 566 03e4 B96D     		ldr	r1, [r7, #88]
 567 03e6 FFF7FEFF 		bl	__aeabi_fmul
 568 03ea 031C     		add	r3, r0, #0
 569 03ec 3B65     		str	r3, [r7, #80]
 286:Source\TransformFunctions/arm_cfft_f32.c ****         m2 = t2[3] * twR;
ARM GAS  C:\Users\fneves\AppData\Local\Temp\ccc6W3UB.s 			page 16


 570              		.loc 1 286 0 discriminator 3
 571 03ee 2823     		mov	r3, #40
 572 03f0 FB18     		add	r3, r7, r3
 573 03f2 DB68     		ldr	r3, [r3, #12]
 574 03f4 181C     		add	r0, r3, #0
 575 03f6 F96D     		ldr	r1, [r7, #92]
 576 03f8 FFF7FEFF 		bl	__aeabi_fmul
 577 03fc 031C     		add	r3, r0, #0
 578 03fe FB64     		str	r3, [r7, #76]
 287:Source\TransformFunctions/arm_cfft_f32.c ****         m3 = t2[2] * twI;
 579              		.loc 1 287 0 discriminator 3
 580 0400 2823     		mov	r3, #40
 581 0402 FB18     		add	r3, r7, r3
 582 0404 9B68     		ldr	r3, [r3, #8]
 583 0406 181C     		add	r0, r3, #0
 584 0408 B96D     		ldr	r1, [r7, #88]
 585 040a FFF7FEFF 		bl	__aeabi_fmul
 586 040e 031C     		add	r3, r0, #0
 587 0410 BB64     		str	r3, [r7, #72]
 288:Source\TransformFunctions/arm_cfft_f32.c **** 
 289:Source\TransformFunctions/arm_cfft_f32.c ****         *p2++ = m0 + m1;
 588              		.loc 1 289 0 discriminator 3
 589 0412 7C6F     		ldr	r4, [r7, #116]
 590 0414 231D     		add	r3, r4, #4
 591 0416 7B67     		str	r3, [r7, #116]
 592 0418 786D     		ldr	r0, [r7, #84]
 593 041a 396D     		ldr	r1, [r7, #80]
 594 041c FFF7FEFF 		bl	__aeabi_fadd
 595 0420 031C     		add	r3, r0, #0
 596 0422 2360     		str	r3, [r4]
 290:Source\TransformFunctions/arm_cfft_f32.c ****         *p2++ = m2 - m3;
 597              		.loc 1 290 0 discriminator 3
 598 0424 7C6F     		ldr	r4, [r7, #116]
 599 0426 231D     		add	r3, r4, #4
 600 0428 7B67     		str	r3, [r7, #116]
 601 042a F86C     		ldr	r0, [r7, #76]
 602 042c B96C     		ldr	r1, [r7, #72]
 603 042e FFF7FEFF 		bl	__aeabi_fsub
 604 0432 031C     		add	r3, r0, #0
 605 0434 2360     		str	r3, [r4]
 291:Source\TransformFunctions/arm_cfft_f32.c **** 
 292:Source\TransformFunctions/arm_cfft_f32.c ****         m0 = t4[2] * twI;
 606              		.loc 1 292 0 discriminator 3
 607 0436 0823     		mov	r3, #8
 608 0438 FB18     		add	r3, r7, r3
 609 043a 9B68     		ldr	r3, [r3, #8]
 610 043c 181C     		add	r0, r3, #0
 611 043e B96D     		ldr	r1, [r7, #88]
 612 0440 FFF7FEFF 		bl	__aeabi_fmul
 613 0444 031C     		add	r3, r0, #0
 614 0446 7B65     		str	r3, [r7, #84]
 293:Source\TransformFunctions/arm_cfft_f32.c ****         m1 = t4[3] * twR;
 615              		.loc 1 293 0 discriminator 3
 616 0448 0823     		mov	r3, #8
 617 044a FB18     		add	r3, r7, r3
 618 044c DB68     		ldr	r3, [r3, #12]
 619 044e 181C     		add	r0, r3, #0
ARM GAS  C:\Users\fneves\AppData\Local\Temp\ccc6W3UB.s 			page 17


 620 0450 F96D     		ldr	r1, [r7, #92]
 621 0452 FFF7FEFF 		bl	__aeabi_fmul
 622 0456 031C     		add	r3, r0, #0
 623 0458 3B65     		str	r3, [r7, #80]
 294:Source\TransformFunctions/arm_cfft_f32.c ****         m2 = t4[3] * twI;
 624              		.loc 1 294 0 discriminator 3
 625 045a 0823     		mov	r3, #8
 626 045c FB18     		add	r3, r7, r3
 627 045e DB68     		ldr	r3, [r3, #12]
 628 0460 181C     		add	r0, r3, #0
 629 0462 B96D     		ldr	r1, [r7, #88]
 630 0464 FFF7FEFF 		bl	__aeabi_fmul
 631 0468 031C     		add	r3, r0, #0
 632 046a FB64     		str	r3, [r7, #76]
 295:Source\TransformFunctions/arm_cfft_f32.c ****         m3 = t4[2] * twR;
 633              		.loc 1 295 0 discriminator 3
 634 046c 0823     		mov	r3, #8
 635 046e FB18     		add	r3, r7, r3
 636 0470 9B68     		ldr	r3, [r3, #8]
 637 0472 181C     		add	r0, r3, #0
 638 0474 F96D     		ldr	r1, [r7, #92]
 639 0476 FFF7FEFF 		bl	__aeabi_fmul
 640 047a 031C     		add	r3, r0, #0
 641 047c BB64     		str	r3, [r7, #72]
 296:Source\TransformFunctions/arm_cfft_f32.c **** 
 297:Source\TransformFunctions/arm_cfft_f32.c ****         *pMid2++ = m0 - m1;
 642              		.loc 1 297 0 discriminator 3
 643 047e BC6F     		ldr	r4, [r7, #120]
 644 0480 231D     		add	r3, r4, #4
 645 0482 BB67     		str	r3, [r7, #120]
 646 0484 786D     		ldr	r0, [r7, #84]
 647 0486 396D     		ldr	r1, [r7, #80]
 648 0488 FFF7FEFF 		bl	__aeabi_fsub
 649 048c 031C     		add	r3, r0, #0
 650 048e 2360     		str	r3, [r4]
 298:Source\TransformFunctions/arm_cfft_f32.c ****         *pMid2++ = m2 + m3;
 651              		.loc 1 298 0 discriminator 3
 652 0490 BC6F     		ldr	r4, [r7, #120]
 653 0492 231D     		add	r3, r4, #4
 654 0494 BB67     		str	r3, [r7, #120]
 655 0496 F86C     		ldr	r0, [r7, #76]
 656 0498 B96C     		ldr	r1, [r7, #72]
 657 049a FFF7FEFF 		bl	__aeabi_fadd
 658 049e 031C     		add	r3, r0, #0
 659 04a0 2360     		str	r3, [r4]
 215:Source\TransformFunctions/arm_cfft_f32.c ****     {
 660              		.loc 1 215 0 discriminator 3
 661 04a2 FB6E     		ldr	r3, [r7, #108]
 662 04a4 013B     		sub	r3, r3, #1
 663 04a6 FB66     		str	r3, [r7, #108]
 664              	.L2:
 215:Source\TransformFunctions/arm_cfft_f32.c ****     {
 665              		.loc 1 215 0 is_stmt 0 discriminator 1
 666 04a8 FB6E     		ldr	r3, [r7, #108]
 667 04aa 002B     		cmp	r3, #0
 668 04ac 00D0     		beq	.LCB573
 669 04ae CCE5     		b	.L3	@long jump
ARM GAS  C:\Users\fneves\AppData\Local\Temp\ccc6W3UB.s 			page 18


 670              	.LCB573:
 299:Source\TransformFunctions/arm_cfft_f32.c ****     }
 300:Source\TransformFunctions/arm_cfft_f32.c **** 
 301:Source\TransformFunctions/arm_cfft_f32.c ****     // first col
 302:Source\TransformFunctions/arm_cfft_f32.c ****     arm_radix8_butterfly_f32( pCol1, L, (float32_t *) S->pTwiddle, 2u);
 671              		.loc 1 302 0 is_stmt 1
 672 04b0 BB6E     		ldr	r3, [r7, #104]
 673 04b2 9AB2     		uxth	r2, r3
 674 04b4 7B68     		ldr	r3, [r7, #4]
 675 04b6 5B68     		ldr	r3, [r3, #4]
 676 04b8 796E     		ldr	r1, [r7, #100]
 677 04ba 081C     		mov	r0, r1
 678 04bc 111C     		mov	r1, r2
 679 04be 1A1C     		mov	r2, r3
 680 04c0 0223     		mov	r3, #2
 681 04c2 FFF7FEFF 		bl	arm_radix8_butterfly_f32
 303:Source\TransformFunctions/arm_cfft_f32.c ****     // second col
 304:Source\TransformFunctions/arm_cfft_f32.c ****     arm_radix8_butterfly_f32( pCol2, L, (float32_t *) S->pTwiddle, 2u);
 682              		.loc 1 304 0
 683 04c6 BB6E     		ldr	r3, [r7, #104]
 684 04c8 9AB2     		uxth	r2, r3
 685 04ca 7B68     		ldr	r3, [r7, #4]
 686 04cc 5B68     		ldr	r3, [r3, #4]
 687 04ce 396E     		ldr	r1, [r7, #96]
 688 04d0 081C     		mov	r0, r1
 689 04d2 111C     		mov	r1, r2
 690 04d4 1A1C     		mov	r2, r3
 691 04d6 0223     		mov	r3, #2
 692 04d8 FFF7FEFF 		bl	arm_radix8_butterfly_f32
 305:Source\TransformFunctions/arm_cfft_f32.c **** }
 693              		.loc 1 305 0
 694 04dc BD46     		mov	sp, r7
 695 04de 21B0     		add	sp, sp, #132
 696              		@ sp needed
 697 04e0 90BD     		pop	{r4, r7, pc}
 698              		.cfi_endproc
 699              	.LFE82:
 700              		.size	arm_cfft_radix8by2_f32, .-arm_cfft_radix8by2_f32
 701 04e2 C046     		.section	.text.arm_cfft_radix8by4_f32,"ax",%progbits
 702              		.align	2
 703              		.global	arm_cfft_radix8by4_f32
 704              		.code	16
 705              		.thumb_func
 706              		.type	arm_cfft_radix8by4_f32, %function
 707              	arm_cfft_radix8by4_f32:
 708              	.LFB83:
 306:Source\TransformFunctions/arm_cfft_f32.c **** 
 307:Source\TransformFunctions/arm_cfft_f32.c **** void arm_cfft_radix8by4_f32( arm_cfft_instance_f32 * S, float32_t * p1)
 308:Source\TransformFunctions/arm_cfft_f32.c **** {
 709              		.loc 1 308 0
 710              		.cfi_startproc
 711 0000 90B5     		push	{r4, r7, lr}
 712              		.cfi_def_cfa_offset 12
 713              		.cfi_offset 4, -12
 714              		.cfi_offset 7, -8
 715              		.cfi_offset 14, -4
 716 0002 ADB0     		sub	sp, sp, #180
ARM GAS  C:\Users\fneves\AppData\Local\Temp\ccc6W3UB.s 			page 19


 717              		.cfi_def_cfa_offset 192
 718 0004 00AF     		add	r7, sp, #0
 719              		.cfi_def_cfa_register 7
 720 0006 7860     		str	r0, [r7, #4]
 721 0008 3960     		str	r1, [r7]
 309:Source\TransformFunctions/arm_cfft_f32.c ****     uint32_t    L  = S->fftLen >> 1;
 722              		.loc 1 309 0
 723 000a 7B68     		ldr	r3, [r7, #4]
 724 000c 1B88     		ldrh	r3, [r3]
 725 000e 5B08     		lsr	r3, r3, #1
 726 0010 9BB2     		uxth	r3, r3
 727 0012 8022     		mov	r2, #128
 728 0014 BA18     		add	r2, r7, r2
 729 0016 1360     		str	r3, [r2]
 310:Source\TransformFunctions/arm_cfft_f32.c ****     float32_t * pCol1, *pCol2, *pCol3, *pCol4, *pEnd1, *pEnd2, *pEnd3, *pEnd4;
 311:Source\TransformFunctions/arm_cfft_f32.c ****     const float32_t *tw2, *tw3, *tw4;
 312:Source\TransformFunctions/arm_cfft_f32.c ****     float32_t * p2 = p1 + L;
 730              		.loc 1 312 0
 731 0018 8023     		mov	r3, #128
 732 001a FB18     		add	r3, r7, r3
 733 001c 1B68     		ldr	r3, [r3]
 734 001e 9B00     		lsl	r3, r3, #2
 735 0020 3A68     		ldr	r2, [r7]
 736 0022 D318     		add	r3, r2, r3
 737 0024 9022     		mov	r2, #144
 738 0026 BA18     		add	r2, r7, r2
 739 0028 1360     		str	r3, [r2]
 313:Source\TransformFunctions/arm_cfft_f32.c ****     float32_t * p3 = p2 + L;
 740              		.loc 1 313 0
 741 002a 8023     		mov	r3, #128
 742 002c FB18     		add	r3, r7, r3
 743 002e 1B68     		ldr	r3, [r3]
 744 0030 9B00     		lsl	r3, r3, #2
 745 0032 9022     		mov	r2, #144
 746 0034 BA18     		add	r2, r7, r2
 747 0036 1268     		ldr	r2, [r2]
 748 0038 D318     		add	r3, r2, r3
 749 003a 8C22     		mov	r2, #140
 750 003c BA18     		add	r2, r7, r2
 751 003e 1360     		str	r3, [r2]
 314:Source\TransformFunctions/arm_cfft_f32.c ****     float32_t * p4 = p3 + L;
 752              		.loc 1 314 0
 753 0040 8023     		mov	r3, #128
 754 0042 FB18     		add	r3, r7, r3
 755 0044 1B68     		ldr	r3, [r3]
 756 0046 9B00     		lsl	r3, r3, #2
 757 0048 8C22     		mov	r2, #140
 758 004a BA18     		add	r2, r7, r2
 759 004c 1268     		ldr	r2, [r2]
 760 004e D318     		add	r3, r2, r3
 761 0050 8822     		mov	r2, #136
 762 0052 BA18     		add	r2, r7, r2
 763 0054 1360     		str	r3, [r2]
 315:Source\TransformFunctions/arm_cfft_f32.c ****     float32_t t2[4], t3[4], t4[4], twR, twI;
 316:Source\TransformFunctions/arm_cfft_f32.c ****     float32_t p1ap3_0, p1sp3_0, p1ap3_1, p1sp3_1;
 317:Source\TransformFunctions/arm_cfft_f32.c ****     float32_t m0, m1, m2, m3;
 318:Source\TransformFunctions/arm_cfft_f32.c ****     uint32_t l, twMod2, twMod3, twMod4;
ARM GAS  C:\Users\fneves\AppData\Local\Temp\ccc6W3UB.s 			page 20


 319:Source\TransformFunctions/arm_cfft_f32.c **** 
 320:Source\TransformFunctions/arm_cfft_f32.c ****     pCol1 = p1;         // points to real values by default
 764              		.loc 1 320 0
 765 0056 3B68     		ldr	r3, [r7]
 766 0058 FB67     		str	r3, [r7, #124]
 321:Source\TransformFunctions/arm_cfft_f32.c ****     pCol2 = p2;
 767              		.loc 1 321 0
 768 005a 9023     		mov	r3, #144
 769 005c FB18     		add	r3, r7, r3
 770 005e 1B68     		ldr	r3, [r3]
 771 0060 BB67     		str	r3, [r7, #120]
 322:Source\TransformFunctions/arm_cfft_f32.c ****     pCol3 = p3;
 772              		.loc 1 322 0
 773 0062 8C23     		mov	r3, #140
 774 0064 FB18     		add	r3, r7, r3
 775 0066 1B68     		ldr	r3, [r3]
 776 0068 7B67     		str	r3, [r7, #116]
 323:Source\TransformFunctions/arm_cfft_f32.c ****     pCol4 = p4;
 777              		.loc 1 323 0
 778 006a 8823     		mov	r3, #136
 779 006c FB18     		add	r3, r7, r3
 780 006e 1B68     		ldr	r3, [r3]
 781 0070 3B67     		str	r3, [r7, #112]
 324:Source\TransformFunctions/arm_cfft_f32.c ****     pEnd1 = p2 - 1;     // points to imaginary values by default
 782              		.loc 1 324 0
 783 0072 9023     		mov	r3, #144
 784 0074 FB18     		add	r3, r7, r3
 785 0076 1B68     		ldr	r3, [r3]
 786 0078 043B     		sub	r3, r3, #4
 787 007a AC22     		mov	r2, #172
 788 007c BA18     		add	r2, r7, r2
 789 007e 1360     		str	r3, [r2]
 325:Source\TransformFunctions/arm_cfft_f32.c ****     pEnd2 = p3 - 1;
 790              		.loc 1 325 0
 791 0080 8C23     		mov	r3, #140
 792 0082 FB18     		add	r3, r7, r3
 793 0084 1B68     		ldr	r3, [r3]
 794 0086 043B     		sub	r3, r3, #4
 795 0088 A822     		mov	r2, #168
 796 008a BA18     		add	r2, r7, r2
 797 008c 1360     		str	r3, [r2]
 326:Source\TransformFunctions/arm_cfft_f32.c ****     pEnd3 = p4 - 1;
 798              		.loc 1 326 0
 799 008e 8823     		mov	r3, #136
 800 0090 FB18     		add	r3, r7, r3
 801 0092 1B68     		ldr	r3, [r3]
 802 0094 043B     		sub	r3, r3, #4
 803 0096 A422     		mov	r2, #164
 804 0098 BA18     		add	r2, r7, r2
 805 009a 1360     		str	r3, [r2]
 327:Source\TransformFunctions/arm_cfft_f32.c ****     pEnd4 = pEnd3 + L;
 806              		.loc 1 327 0
 807 009c 8023     		mov	r3, #128
 808 009e FB18     		add	r3, r7, r3
 809 00a0 1B68     		ldr	r3, [r3]
 810 00a2 9B00     		lsl	r3, r3, #2
 811 00a4 A422     		mov	r2, #164
ARM GAS  C:\Users\fneves\AppData\Local\Temp\ccc6W3UB.s 			page 21


 812 00a6 BA18     		add	r2, r7, r2
 813 00a8 1268     		ldr	r2, [r2]
 814 00aa D318     		add	r3, r2, r3
 815 00ac A022     		mov	r2, #160
 816 00ae BA18     		add	r2, r7, r2
 817 00b0 1360     		str	r3, [r2]
 328:Source\TransformFunctions/arm_cfft_f32.c **** 
 329:Source\TransformFunctions/arm_cfft_f32.c ****     tw2 = tw3 = tw4 = (float32_t *) S->pTwiddle;
 818              		.loc 1 329 0
 819 00b2 7B68     		ldr	r3, [r7, #4]
 820 00b4 5B68     		ldr	r3, [r3, #4]
 821 00b6 9422     		mov	r2, #148
 822 00b8 BA18     		add	r2, r7, r2
 823 00ba 1360     		str	r3, [r2]
 824 00bc 9423     		mov	r3, #148
 825 00be FB18     		add	r3, r7, r3
 826 00c0 1B68     		ldr	r3, [r3]
 827 00c2 9822     		mov	r2, #152
 828 00c4 BA18     		add	r2, r7, r2
 829 00c6 1360     		str	r3, [r2]
 830 00c8 9823     		mov	r3, #152
 831 00ca FB18     		add	r3, r7, r3
 832 00cc 1B68     		ldr	r3, [r3]
 833 00ce 9C22     		mov	r2, #156
 834 00d0 BA18     		add	r2, r7, r2
 835 00d2 1360     		str	r3, [r2]
 330:Source\TransformFunctions/arm_cfft_f32.c **** 
 331:Source\TransformFunctions/arm_cfft_f32.c ****     L >>= 1;
 836              		.loc 1 331 0
 837 00d4 8023     		mov	r3, #128
 838 00d6 FB18     		add	r3, r7, r3
 839 00d8 1B68     		ldr	r3, [r3]
 840 00da 5B08     		lsr	r3, r3, #1
 841 00dc 8022     		mov	r2, #128
 842 00de BA18     		add	r2, r7, r2
 843 00e0 1360     		str	r3, [r2]
 332:Source\TransformFunctions/arm_cfft_f32.c **** 
 333:Source\TransformFunctions/arm_cfft_f32.c ****     // do four dot Fourier transform
 334:Source\TransformFunctions/arm_cfft_f32.c **** 
 335:Source\TransformFunctions/arm_cfft_f32.c ****     twMod2 = 2;
 844              		.loc 1 335 0
 845 00e2 0223     		mov	r3, #2
 846 00e4 FB66     		str	r3, [r7, #108]
 336:Source\TransformFunctions/arm_cfft_f32.c ****     twMod3 = 4;
 847              		.loc 1 336 0
 848 00e6 0423     		mov	r3, #4
 849 00e8 BB66     		str	r3, [r7, #104]
 337:Source\TransformFunctions/arm_cfft_f32.c ****     twMod4 = 6;
 850              		.loc 1 337 0
 851 00ea 0623     		mov	r3, #6
 852 00ec 7B66     		str	r3, [r7, #100]
 338:Source\TransformFunctions/arm_cfft_f32.c **** 
 339:Source\TransformFunctions/arm_cfft_f32.c ****     // TOP
 340:Source\TransformFunctions/arm_cfft_f32.c ****     p1ap3_0 = p1[0] + p3[0];
 853              		.loc 1 340 0
 854 00ee 3B68     		ldr	r3, [r7]
 855 00f0 1A68     		ldr	r2, [r3]
ARM GAS  C:\Users\fneves\AppData\Local\Temp\ccc6W3UB.s 			page 22


 856 00f2 8C23     		mov	r3, #140
 857 00f4 FB18     		add	r3, r7, r3
 858 00f6 1B68     		ldr	r3, [r3]
 859 00f8 1B68     		ldr	r3, [r3]
 860 00fa 101C     		add	r0, r2, #0
 861 00fc 191C     		add	r1, r3, #0
 862 00fe FFF7FEFF 		bl	__aeabi_fadd
 863 0102 031C     		add	r3, r0, #0
 864 0104 3B66     		str	r3, [r7, #96]
 341:Source\TransformFunctions/arm_cfft_f32.c ****     p1sp3_0 = p1[0] - p3[0];
 865              		.loc 1 341 0
 866 0106 3B68     		ldr	r3, [r7]
 867 0108 1A68     		ldr	r2, [r3]
 868 010a 8C23     		mov	r3, #140
 869 010c FB18     		add	r3, r7, r3
 870 010e 1B68     		ldr	r3, [r3]
 871 0110 1B68     		ldr	r3, [r3]
 872 0112 101C     		add	r0, r2, #0
 873 0114 191C     		add	r1, r3, #0
 874 0116 FFF7FEFF 		bl	__aeabi_fsub
 875 011a 031C     		add	r3, r0, #0
 876 011c FB65     		str	r3, [r7, #92]
 342:Source\TransformFunctions/arm_cfft_f32.c ****     p1ap3_1 = p1[1] + p3[1];
 877              		.loc 1 342 0
 878 011e 3B68     		ldr	r3, [r7]
 879 0120 0433     		add	r3, r3, #4
 880 0122 1A68     		ldr	r2, [r3]
 881 0124 8C23     		mov	r3, #140
 882 0126 FB18     		add	r3, r7, r3
 883 0128 1B68     		ldr	r3, [r3]
 884 012a 0433     		add	r3, r3, #4
 885 012c 1B68     		ldr	r3, [r3]
 886 012e 101C     		add	r0, r2, #0
 887 0130 191C     		add	r1, r3, #0
 888 0132 FFF7FEFF 		bl	__aeabi_fadd
 889 0136 031C     		add	r3, r0, #0
 890 0138 BB65     		str	r3, [r7, #88]
 343:Source\TransformFunctions/arm_cfft_f32.c ****     p1sp3_1 = p1[1] - p3[1];
 891              		.loc 1 343 0
 892 013a 3B68     		ldr	r3, [r7]
 893 013c 0433     		add	r3, r3, #4
 894 013e 1A68     		ldr	r2, [r3]
 895 0140 8C23     		mov	r3, #140
 896 0142 FB18     		add	r3, r7, r3
 897 0144 1B68     		ldr	r3, [r3]
 898 0146 0433     		add	r3, r3, #4
 899 0148 1B68     		ldr	r3, [r3]
 900 014a 101C     		add	r0, r2, #0
 901 014c 191C     		add	r1, r3, #0
 902 014e FFF7FEFF 		bl	__aeabi_fsub
 903 0152 031C     		add	r3, r0, #0
 904 0154 7B65     		str	r3, [r7, #84]
 344:Source\TransformFunctions/arm_cfft_f32.c **** 
 345:Source\TransformFunctions/arm_cfft_f32.c ****     // col 2
 346:Source\TransformFunctions/arm_cfft_f32.c ****     t2[0] = p1sp3_0 + p2[1] - p4[1];
 905              		.loc 1 346 0
 906 0156 9023     		mov	r3, #144
ARM GAS  C:\Users\fneves\AppData\Local\Temp\ccc6W3UB.s 			page 23


 907 0158 FB18     		add	r3, r7, r3
 908 015a 1B68     		ldr	r3, [r3]
 909 015c 0433     		add	r3, r3, #4
 910 015e 1B68     		ldr	r3, [r3]
 911 0160 181C     		add	r0, r3, #0
 912 0162 F96D     		ldr	r1, [r7, #92]
 913 0164 FFF7FEFF 		bl	__aeabi_fadd
 914 0168 031C     		add	r3, r0, #0
 915 016a 1A1C     		add	r2, r3, #0
 916 016c 8823     		mov	r3, #136
 917 016e FB18     		add	r3, r7, r3
 918 0170 1B68     		ldr	r3, [r3]
 919 0172 0433     		add	r3, r3, #4
 920 0174 1B68     		ldr	r3, [r3]
 921 0176 101C     		add	r0, r2, #0
 922 0178 191C     		add	r1, r3, #0
 923 017a FFF7FEFF 		bl	__aeabi_fsub
 924 017e 031C     		add	r3, r0, #0
 925 0180 1A1C     		add	r2, r3, #0
 926 0182 2C23     		mov	r3, #44
 927 0184 FB18     		add	r3, r7, r3
 928 0186 1A60     		str	r2, [r3]
 347:Source\TransformFunctions/arm_cfft_f32.c ****     t2[1] = p1sp3_1 - p2[0] + p4[0];
 929              		.loc 1 347 0
 930 0188 9023     		mov	r3, #144
 931 018a FB18     		add	r3, r7, r3
 932 018c 1B68     		ldr	r3, [r3]
 933 018e 1B68     		ldr	r3, [r3]
 934 0190 786D     		ldr	r0, [r7, #84]
 935 0192 191C     		add	r1, r3, #0
 936 0194 FFF7FEFF 		bl	__aeabi_fsub
 937 0198 031C     		add	r3, r0, #0
 938 019a 1A1C     		add	r2, r3, #0
 939 019c 8823     		mov	r3, #136
 940 019e FB18     		add	r3, r7, r3
 941 01a0 1B68     		ldr	r3, [r3]
 942 01a2 1B68     		ldr	r3, [r3]
 943 01a4 101C     		add	r0, r2, #0
 944 01a6 191C     		add	r1, r3, #0
 945 01a8 FFF7FEFF 		bl	__aeabi_fadd
 946 01ac 031C     		add	r3, r0, #0
 947 01ae 1A1C     		add	r2, r3, #0
 948 01b0 2C23     		mov	r3, #44
 949 01b2 FB18     		add	r3, r7, r3
 950 01b4 5A60     		str	r2, [r3, #4]
 348:Source\TransformFunctions/arm_cfft_f32.c ****     // col 3
 349:Source\TransformFunctions/arm_cfft_f32.c ****     t3[0] = p1ap3_0 - p2[0] - p4[0];
 951              		.loc 1 349 0
 952 01b6 9023     		mov	r3, #144
 953 01b8 FB18     		add	r3, r7, r3
 954 01ba 1B68     		ldr	r3, [r3]
 955 01bc 1B68     		ldr	r3, [r3]
 956 01be 386E     		ldr	r0, [r7, #96]
 957 01c0 191C     		add	r1, r3, #0
 958 01c2 FFF7FEFF 		bl	__aeabi_fsub
 959 01c6 031C     		add	r3, r0, #0
 960 01c8 1A1C     		add	r2, r3, #0
ARM GAS  C:\Users\fneves\AppData\Local\Temp\ccc6W3UB.s 			page 24


 961 01ca 8823     		mov	r3, #136
 962 01cc FB18     		add	r3, r7, r3
 963 01ce 1B68     		ldr	r3, [r3]
 964 01d0 1B68     		ldr	r3, [r3]
 965 01d2 101C     		add	r0, r2, #0
 966 01d4 191C     		add	r1, r3, #0
 967 01d6 FFF7FEFF 		bl	__aeabi_fsub
 968 01da 031C     		add	r3, r0, #0
 969 01dc 1A1C     		add	r2, r3, #0
 970 01de 1C23     		mov	r3, #28
 971 01e0 FB18     		add	r3, r7, r3
 972 01e2 1A60     		str	r2, [r3]
 350:Source\TransformFunctions/arm_cfft_f32.c ****     t3[1] = p1ap3_1 - p2[1] - p4[1];
 973              		.loc 1 350 0
 974 01e4 9023     		mov	r3, #144
 975 01e6 FB18     		add	r3, r7, r3
 976 01e8 1B68     		ldr	r3, [r3]
 977 01ea 0433     		add	r3, r3, #4
 978 01ec 1B68     		ldr	r3, [r3]
 979 01ee B86D     		ldr	r0, [r7, #88]
 980 01f0 191C     		add	r1, r3, #0
 981 01f2 FFF7FEFF 		bl	__aeabi_fsub
 982 01f6 031C     		add	r3, r0, #0
 983 01f8 1A1C     		add	r2, r3, #0
 984 01fa 8823     		mov	r3, #136
 985 01fc FB18     		add	r3, r7, r3
 986 01fe 1B68     		ldr	r3, [r3]
 987 0200 0433     		add	r3, r3, #4
 988 0202 1B68     		ldr	r3, [r3]
 989 0204 101C     		add	r0, r2, #0
 990 0206 191C     		add	r1, r3, #0
 991 0208 FFF7FEFF 		bl	__aeabi_fsub
 992 020c 031C     		add	r3, r0, #0
 993 020e 1A1C     		add	r2, r3, #0
 994 0210 1C23     		mov	r3, #28
 995 0212 FB18     		add	r3, r7, r3
 996 0214 5A60     		str	r2, [r3, #4]
 351:Source\TransformFunctions/arm_cfft_f32.c ****     // col 4
 352:Source\TransformFunctions/arm_cfft_f32.c ****     t4[0] = p1sp3_0 - p2[1] + p4[1];
 997              		.loc 1 352 0
 998 0216 9023     		mov	r3, #144
 999 0218 FB18     		add	r3, r7, r3
 1000 021a 1B68     		ldr	r3, [r3]
 1001 021c 0433     		add	r3, r3, #4
 1002 021e 1B68     		ldr	r3, [r3]
 1003 0220 F86D     		ldr	r0, [r7, #92]
 1004 0222 191C     		add	r1, r3, #0
 1005 0224 FFF7FEFF 		bl	__aeabi_fsub
 1006 0228 031C     		add	r3, r0, #0
 1007 022a 1A1C     		add	r2, r3, #0
 1008 022c 8823     		mov	r3, #136
 1009 022e FB18     		add	r3, r7, r3
 1010 0230 1B68     		ldr	r3, [r3]
 1011 0232 0433     		add	r3, r3, #4
 1012 0234 1B68     		ldr	r3, [r3]
 1013 0236 101C     		add	r0, r2, #0
 1014 0238 191C     		add	r1, r3, #0
ARM GAS  C:\Users\fneves\AppData\Local\Temp\ccc6W3UB.s 			page 25


 1015 023a FFF7FEFF 		bl	__aeabi_fadd
 1016 023e 031C     		add	r3, r0, #0
 1017 0240 1A1C     		add	r2, r3, #0
 1018 0242 0C23     		mov	r3, #12
 1019 0244 FB18     		add	r3, r7, r3
 1020 0246 1A60     		str	r2, [r3]
 353:Source\TransformFunctions/arm_cfft_f32.c ****     t4[1] = p1sp3_1 + p2[0] - p4[0];
 1021              		.loc 1 353 0
 1022 0248 9023     		mov	r3, #144
 1023 024a FB18     		add	r3, r7, r3
 1024 024c 1B68     		ldr	r3, [r3]
 1025 024e 1B68     		ldr	r3, [r3]
 1026 0250 181C     		add	r0, r3, #0
 1027 0252 796D     		ldr	r1, [r7, #84]
 1028 0254 FFF7FEFF 		bl	__aeabi_fadd
 1029 0258 031C     		add	r3, r0, #0
 1030 025a 1A1C     		add	r2, r3, #0
 1031 025c 8823     		mov	r3, #136
 1032 025e FB18     		add	r3, r7, r3
 1033 0260 1B68     		ldr	r3, [r3]
 1034 0262 1B68     		ldr	r3, [r3]
 1035 0264 101C     		add	r0, r2, #0
 1036 0266 191C     		add	r1, r3, #0
 1037 0268 FFF7FEFF 		bl	__aeabi_fsub
 1038 026c 031C     		add	r3, r0, #0
 1039 026e 1A1C     		add	r2, r3, #0
 1040 0270 0C23     		mov	r3, #12
 1041 0272 FB18     		add	r3, r7, r3
 1042 0274 5A60     		str	r2, [r3, #4]
 354:Source\TransformFunctions/arm_cfft_f32.c ****     // col 1
 355:Source\TransformFunctions/arm_cfft_f32.c ****     *p1++ = p1ap3_0 + p2[0] + p4[0];
 1043              		.loc 1 355 0
 1044 0276 3C68     		ldr	r4, [r7]
 1045 0278 231D     		add	r3, r4, #4
 1046 027a 3B60     		str	r3, [r7]
 1047 027c 9023     		mov	r3, #144
 1048 027e FB18     		add	r3, r7, r3
 1049 0280 1B68     		ldr	r3, [r3]
 1050 0282 1B68     		ldr	r3, [r3]
 1051 0284 181C     		add	r0, r3, #0
 1052 0286 396E     		ldr	r1, [r7, #96]
 1053 0288 FFF7FEFF 		bl	__aeabi_fadd
 1054 028c 031C     		add	r3, r0, #0
 1055 028e 1A1C     		add	r2, r3, #0
 1056 0290 8823     		mov	r3, #136
 1057 0292 FB18     		add	r3, r7, r3
 1058 0294 1B68     		ldr	r3, [r3]
 1059 0296 1B68     		ldr	r3, [r3]
 1060 0298 101C     		add	r0, r2, #0
 1061 029a 191C     		add	r1, r3, #0
 1062 029c FFF7FEFF 		bl	__aeabi_fadd
 1063 02a0 031C     		add	r3, r0, #0
 1064 02a2 2360     		str	r3, [r4]
 356:Source\TransformFunctions/arm_cfft_f32.c ****     *p1++ = p1ap3_1 + p2[1] + p4[1];
 1065              		.loc 1 356 0
 1066 02a4 3C68     		ldr	r4, [r7]
 1067 02a6 231D     		add	r3, r4, #4
ARM GAS  C:\Users\fneves\AppData\Local\Temp\ccc6W3UB.s 			page 26


 1068 02a8 3B60     		str	r3, [r7]
 1069 02aa 9023     		mov	r3, #144
 1070 02ac FB18     		add	r3, r7, r3
 1071 02ae 1B68     		ldr	r3, [r3]
 1072 02b0 0433     		add	r3, r3, #4
 1073 02b2 1B68     		ldr	r3, [r3]
 1074 02b4 181C     		add	r0, r3, #0
 1075 02b6 B96D     		ldr	r1, [r7, #88]
 1076 02b8 FFF7FEFF 		bl	__aeabi_fadd
 1077 02bc 031C     		add	r3, r0, #0
 1078 02be 1A1C     		add	r2, r3, #0
 1079 02c0 8823     		mov	r3, #136
 1080 02c2 FB18     		add	r3, r7, r3
 1081 02c4 1B68     		ldr	r3, [r3]
 1082 02c6 0433     		add	r3, r3, #4
 1083 02c8 1B68     		ldr	r3, [r3]
 1084 02ca 101C     		add	r0, r2, #0
 1085 02cc 191C     		add	r1, r3, #0
 1086 02ce FFF7FEFF 		bl	__aeabi_fadd
 1087 02d2 031C     		add	r3, r0, #0
 1088 02d4 2360     		str	r3, [r4]
 357:Source\TransformFunctions/arm_cfft_f32.c **** 
 358:Source\TransformFunctions/arm_cfft_f32.c ****     // Twiddle factors are ones
 359:Source\TransformFunctions/arm_cfft_f32.c ****     *p2++ = t2[0];
 1089              		.loc 1 359 0
 1090 02d6 9023     		mov	r3, #144
 1091 02d8 FB18     		add	r3, r7, r3
 1092 02da 1B68     		ldr	r3, [r3]
 1093 02dc 1A1D     		add	r2, r3, #4
 1094 02de 9021     		mov	r1, #144
 1095 02e0 7918     		add	r1, r7, r1
 1096 02e2 0A60     		str	r2, [r1]
 1097 02e4 2C22     		mov	r2, #44
 1098 02e6 BA18     		add	r2, r7, r2
 1099 02e8 1268     		ldr	r2, [r2]
 1100 02ea 1A60     		str	r2, [r3]
 360:Source\TransformFunctions/arm_cfft_f32.c ****     *p2++ = t2[1];
 1101              		.loc 1 360 0
 1102 02ec 9023     		mov	r3, #144
 1103 02ee FB18     		add	r3, r7, r3
 1104 02f0 1B68     		ldr	r3, [r3]
 1105 02f2 1A1D     		add	r2, r3, #4
 1106 02f4 9021     		mov	r1, #144
 1107 02f6 7918     		add	r1, r7, r1
 1108 02f8 0A60     		str	r2, [r1]
 1109 02fa 2C22     		mov	r2, #44
 1110 02fc BA18     		add	r2, r7, r2
 1111 02fe 5268     		ldr	r2, [r2, #4]
 1112 0300 1A60     		str	r2, [r3]
 361:Source\TransformFunctions/arm_cfft_f32.c ****     *p3++ = t3[0];
 1113              		.loc 1 361 0
 1114 0302 8C23     		mov	r3, #140
 1115 0304 FB18     		add	r3, r7, r3
 1116 0306 1B68     		ldr	r3, [r3]
 1117 0308 1A1D     		add	r2, r3, #4
 1118 030a 8C21     		mov	r1, #140
 1119 030c 7918     		add	r1, r7, r1
ARM GAS  C:\Users\fneves\AppData\Local\Temp\ccc6W3UB.s 			page 27


 1120 030e 0A60     		str	r2, [r1]
 1121 0310 1C22     		mov	r2, #28
 1122 0312 BA18     		add	r2, r7, r2
 1123 0314 1268     		ldr	r2, [r2]
 1124 0316 1A60     		str	r2, [r3]
 362:Source\TransformFunctions/arm_cfft_f32.c ****     *p3++ = t3[1];
 1125              		.loc 1 362 0
 1126 0318 8C23     		mov	r3, #140
 1127 031a FB18     		add	r3, r7, r3
 1128 031c 1B68     		ldr	r3, [r3]
 1129 031e 1A1D     		add	r2, r3, #4
 1130 0320 8C21     		mov	r1, #140
 1131 0322 7918     		add	r1, r7, r1
 1132 0324 0A60     		str	r2, [r1]
 1133 0326 1C22     		mov	r2, #28
 1134 0328 BA18     		add	r2, r7, r2
 1135 032a 5268     		ldr	r2, [r2, #4]
 1136 032c 1A60     		str	r2, [r3]
 363:Source\TransformFunctions/arm_cfft_f32.c ****     *p4++ = t4[0];
 1137              		.loc 1 363 0
 1138 032e 8823     		mov	r3, #136
 1139 0330 FB18     		add	r3, r7, r3
 1140 0332 1B68     		ldr	r3, [r3]
 1141 0334 1A1D     		add	r2, r3, #4
 1142 0336 8821     		mov	r1, #136
 1143 0338 7918     		add	r1, r7, r1
 1144 033a 0A60     		str	r2, [r1]
 1145 033c 0C22     		mov	r2, #12
 1146 033e BA18     		add	r2, r7, r2
 1147 0340 1268     		ldr	r2, [r2]
 1148 0342 1A60     		str	r2, [r3]
 364:Source\TransformFunctions/arm_cfft_f32.c ****     *p4++ = t4[1];
 1149              		.loc 1 364 0
 1150 0344 8823     		mov	r3, #136
 1151 0346 FB18     		add	r3, r7, r3
 1152 0348 1B68     		ldr	r3, [r3]
 1153 034a 1A1D     		add	r2, r3, #4
 1154 034c 8821     		mov	r1, #136
 1155 034e 7918     		add	r1, r7, r1
 1156 0350 0A60     		str	r2, [r1]
 1157 0352 0C22     		mov	r2, #12
 1158 0354 BA18     		add	r2, r7, r2
 1159 0356 5268     		ldr	r2, [r2, #4]
 1160 0358 1A60     		str	r2, [r3]
 365:Source\TransformFunctions/arm_cfft_f32.c **** 
 366:Source\TransformFunctions/arm_cfft_f32.c ****     tw2 += twMod2;
 1161              		.loc 1 366 0
 1162 035a FB6E     		ldr	r3, [r7, #108]
 1163 035c 9B00     		lsl	r3, r3, #2
 1164 035e 9C22     		mov	r2, #156
 1165 0360 BA18     		add	r2, r7, r2
 1166 0362 1268     		ldr	r2, [r2]
 1167 0364 D318     		add	r3, r2, r3
 1168 0366 9C22     		mov	r2, #156
 1169 0368 BA18     		add	r2, r7, r2
 1170 036a 1360     		str	r3, [r2]
 367:Source\TransformFunctions/arm_cfft_f32.c ****     tw3 += twMod3;
ARM GAS  C:\Users\fneves\AppData\Local\Temp\ccc6W3UB.s 			page 28


 1171              		.loc 1 367 0
 1172 036c BB6E     		ldr	r3, [r7, #104]
 1173 036e 9B00     		lsl	r3, r3, #2
 1174 0370 9822     		mov	r2, #152
 1175 0372 BA18     		add	r2, r7, r2
 1176 0374 1268     		ldr	r2, [r2]
 1177 0376 D318     		add	r3, r2, r3
 1178 0378 9822     		mov	r2, #152
 1179 037a BA18     		add	r2, r7, r2
 1180 037c 1360     		str	r3, [r2]
 368:Source\TransformFunctions/arm_cfft_f32.c ****     tw4 += twMod4;
 1181              		.loc 1 368 0
 1182 037e 7B6E     		ldr	r3, [r7, #100]
 1183 0380 9B00     		lsl	r3, r3, #2
 1184 0382 9422     		mov	r2, #148
 1185 0384 BA18     		add	r2, r7, r2
 1186 0386 1268     		ldr	r2, [r2]
 1187 0388 D318     		add	r3, r2, r3
 1188 038a 9422     		mov	r2, #148
 1189 038c BA18     		add	r2, r7, r2
 1190 038e 1360     		str	r3, [r2]
 369:Source\TransformFunctions/arm_cfft_f32.c **** 
 370:Source\TransformFunctions/arm_cfft_f32.c ****     for (l = (L - 2) >> 1; l > 0; l-- )
 1191              		.loc 1 370 0
 1192 0390 8023     		mov	r3, #128
 1193 0392 FB18     		add	r3, r7, r3
 1194 0394 1B68     		ldr	r3, [r3]
 1195 0396 023B     		sub	r3, r3, #2
 1196 0398 5B08     		lsr	r3, r3, #1
 1197 039a 8422     		mov	r2, #132
 1198 039c BA18     		add	r2, r7, r2
 1199 039e 1360     		str	r3, [r2]
 1200 03a0 B8E3     		b	.L5
 1201              	.L6:
 371:Source\TransformFunctions/arm_cfft_f32.c ****     {
 372:Source\TransformFunctions/arm_cfft_f32.c ****         // TOP
 373:Source\TransformFunctions/arm_cfft_f32.c ****         p1ap3_0 = p1[0] + p3[0];
 1202              		.loc 1 373 0 discriminator 3
 1203 03a2 3B68     		ldr	r3, [r7]
 1204 03a4 1A68     		ldr	r2, [r3]
 1205 03a6 8C23     		mov	r3, #140
 1206 03a8 FB18     		add	r3, r7, r3
 1207 03aa 1B68     		ldr	r3, [r3]
 1208 03ac 1B68     		ldr	r3, [r3]
 1209 03ae 101C     		add	r0, r2, #0
 1210 03b0 191C     		add	r1, r3, #0
 1211 03b2 FFF7FEFF 		bl	__aeabi_fadd
 1212 03b6 031C     		add	r3, r0, #0
 1213 03b8 3B66     		str	r3, [r7, #96]
 374:Source\TransformFunctions/arm_cfft_f32.c ****         p1sp3_0 = p1[0] - p3[0];
 1214              		.loc 1 374 0 discriminator 3
 1215 03ba 3B68     		ldr	r3, [r7]
 1216 03bc 1A68     		ldr	r2, [r3]
 1217 03be 8C23     		mov	r3, #140
 1218 03c0 FB18     		add	r3, r7, r3
 1219 03c2 1B68     		ldr	r3, [r3]
 1220 03c4 1B68     		ldr	r3, [r3]
ARM GAS  C:\Users\fneves\AppData\Local\Temp\ccc6W3UB.s 			page 29


 1221 03c6 101C     		add	r0, r2, #0
 1222 03c8 191C     		add	r1, r3, #0
 1223 03ca FFF7FEFF 		bl	__aeabi_fsub
 1224 03ce 031C     		add	r3, r0, #0
 1225 03d0 FB65     		str	r3, [r7, #92]
 375:Source\TransformFunctions/arm_cfft_f32.c ****         p1ap3_1 = p1[1] + p3[1];
 1226              		.loc 1 375 0 discriminator 3
 1227 03d2 3B68     		ldr	r3, [r7]
 1228 03d4 0433     		add	r3, r3, #4
 1229 03d6 1A68     		ldr	r2, [r3]
 1230 03d8 8C23     		mov	r3, #140
 1231 03da FB18     		add	r3, r7, r3
 1232 03dc 1B68     		ldr	r3, [r3]
 1233 03de 0433     		add	r3, r3, #4
 1234 03e0 1B68     		ldr	r3, [r3]
 1235 03e2 101C     		add	r0, r2, #0
 1236 03e4 191C     		add	r1, r3, #0
 1237 03e6 FFF7FEFF 		bl	__aeabi_fadd
 1238 03ea 031C     		add	r3, r0, #0
 1239 03ec BB65     		str	r3, [r7, #88]
 376:Source\TransformFunctions/arm_cfft_f32.c ****         p1sp3_1 = p1[1] - p3[1];
 1240              		.loc 1 376 0 discriminator 3
 1241 03ee 3B68     		ldr	r3, [r7]
 1242 03f0 0433     		add	r3, r3, #4
 1243 03f2 1A68     		ldr	r2, [r3]
 1244 03f4 8C23     		mov	r3, #140
 1245 03f6 FB18     		add	r3, r7, r3
 1246 03f8 1B68     		ldr	r3, [r3]
 1247 03fa 0433     		add	r3, r3, #4
 1248 03fc 1B68     		ldr	r3, [r3]
 1249 03fe 101C     		add	r0, r2, #0
 1250 0400 191C     		add	r1, r3, #0
 1251 0402 FFF7FEFF 		bl	__aeabi_fsub
 1252 0406 031C     		add	r3, r0, #0
 1253 0408 7B65     		str	r3, [r7, #84]
 377:Source\TransformFunctions/arm_cfft_f32.c ****         // col 2
 378:Source\TransformFunctions/arm_cfft_f32.c ****         t2[0] = p1sp3_0 + p2[1] - p4[1];
 1254              		.loc 1 378 0 discriminator 3
 1255 040a 9023     		mov	r3, #144
 1256 040c FB18     		add	r3, r7, r3
 1257 040e 1B68     		ldr	r3, [r3]
 1258 0410 0433     		add	r3, r3, #4
 1259 0412 1B68     		ldr	r3, [r3]
 1260 0414 181C     		add	r0, r3, #0
 1261 0416 F96D     		ldr	r1, [r7, #92]
 1262 0418 FFF7FEFF 		bl	__aeabi_fadd
 1263 041c 031C     		add	r3, r0, #0
 1264 041e 1A1C     		add	r2, r3, #0
 1265 0420 8823     		mov	r3, #136
 1266 0422 FB18     		add	r3, r7, r3
 1267 0424 1B68     		ldr	r3, [r3]
 1268 0426 0433     		add	r3, r3, #4
 1269 0428 1B68     		ldr	r3, [r3]
 1270 042a 101C     		add	r0, r2, #0
 1271 042c 191C     		add	r1, r3, #0
 1272 042e FFF7FEFF 		bl	__aeabi_fsub
 1273 0432 031C     		add	r3, r0, #0
ARM GAS  C:\Users\fneves\AppData\Local\Temp\ccc6W3UB.s 			page 30


 1274 0434 1A1C     		add	r2, r3, #0
 1275 0436 2C23     		mov	r3, #44
 1276 0438 FB18     		add	r3, r7, r3
 1277 043a 1A60     		str	r2, [r3]
 379:Source\TransformFunctions/arm_cfft_f32.c ****         t2[1] = p1sp3_1 - p2[0] + p4[0];
 1278              		.loc 1 379 0 discriminator 3
 1279 043c 9023     		mov	r3, #144
 1280 043e FB18     		add	r3, r7, r3
 1281 0440 1B68     		ldr	r3, [r3]
 1282 0442 1B68     		ldr	r3, [r3]
 1283 0444 786D     		ldr	r0, [r7, #84]
 1284 0446 191C     		add	r1, r3, #0
 1285 0448 FFF7FEFF 		bl	__aeabi_fsub
 1286 044c 031C     		add	r3, r0, #0
 1287 044e 1A1C     		add	r2, r3, #0
 1288 0450 8823     		mov	r3, #136
 1289 0452 FB18     		add	r3, r7, r3
 1290 0454 1B68     		ldr	r3, [r3]
 1291 0456 1B68     		ldr	r3, [r3]
 1292 0458 101C     		add	r0, r2, #0
 1293 045a 191C     		add	r1, r3, #0
 1294 045c FFF7FEFF 		bl	__aeabi_fadd
 1295 0460 031C     		add	r3, r0, #0
 1296 0462 1A1C     		add	r2, r3, #0
 1297 0464 2C23     		mov	r3, #44
 1298 0466 FB18     		add	r3, r7, r3
 1299 0468 5A60     		str	r2, [r3, #4]
 380:Source\TransformFunctions/arm_cfft_f32.c ****         // col 3
 381:Source\TransformFunctions/arm_cfft_f32.c ****         t3[0] = p1ap3_0 - p2[0] - p4[0];
 1300              		.loc 1 381 0 discriminator 3
 1301 046a 9023     		mov	r3, #144
 1302 046c FB18     		add	r3, r7, r3
 1303 046e 1B68     		ldr	r3, [r3]
 1304 0470 1B68     		ldr	r3, [r3]
 1305 0472 386E     		ldr	r0, [r7, #96]
 1306 0474 191C     		add	r1, r3, #0
 1307 0476 FFF7FEFF 		bl	__aeabi_fsub
 1308 047a 031C     		add	r3, r0, #0
 1309 047c 1A1C     		add	r2, r3, #0
 1310 047e 8823     		mov	r3, #136
 1311 0480 FB18     		add	r3, r7, r3
 1312 0482 1B68     		ldr	r3, [r3]
 1313 0484 1B68     		ldr	r3, [r3]
 1314 0486 101C     		add	r0, r2, #0
 1315 0488 191C     		add	r1, r3, #0
 1316 048a FFF7FEFF 		bl	__aeabi_fsub
 1317 048e 031C     		add	r3, r0, #0
 1318 0490 1A1C     		add	r2, r3, #0
 1319 0492 1C23     		mov	r3, #28
 1320 0494 FB18     		add	r3, r7, r3
 1321 0496 1A60     		str	r2, [r3]
 382:Source\TransformFunctions/arm_cfft_f32.c ****         t3[1] = p1ap3_1 - p2[1] - p4[1];
 1322              		.loc 1 382 0 discriminator 3
 1323 0498 9023     		mov	r3, #144
 1324 049a FB18     		add	r3, r7, r3
 1325 049c 1B68     		ldr	r3, [r3]
 1326 049e 0433     		add	r3, r3, #4
ARM GAS  C:\Users\fneves\AppData\Local\Temp\ccc6W3UB.s 			page 31


 1327 04a0 1B68     		ldr	r3, [r3]
 1328 04a2 B86D     		ldr	r0, [r7, #88]
 1329 04a4 191C     		add	r1, r3, #0
 1330 04a6 FFF7FEFF 		bl	__aeabi_fsub
 1331 04aa 031C     		add	r3, r0, #0
 1332 04ac 1A1C     		add	r2, r3, #0
 1333 04ae 8823     		mov	r3, #136
 1334 04b0 FB18     		add	r3, r7, r3
 1335 04b2 1B68     		ldr	r3, [r3]
 1336 04b4 0433     		add	r3, r3, #4
 1337 04b6 1B68     		ldr	r3, [r3]
 1338 04b8 101C     		add	r0, r2, #0
 1339 04ba 191C     		add	r1, r3, #0
 1340 04bc FFF7FEFF 		bl	__aeabi_fsub
 1341 04c0 031C     		add	r3, r0, #0
 1342 04c2 1A1C     		add	r2, r3, #0
 1343 04c4 1C23     		mov	r3, #28
 1344 04c6 FB18     		add	r3, r7, r3
 1345 04c8 5A60     		str	r2, [r3, #4]
 383:Source\TransformFunctions/arm_cfft_f32.c ****         // col 4
 384:Source\TransformFunctions/arm_cfft_f32.c ****         t4[0] = p1sp3_0 - p2[1] + p4[1];
 1346              		.loc 1 384 0 discriminator 3
 1347 04ca 9023     		mov	r3, #144
 1348 04cc FB18     		add	r3, r7, r3
 1349 04ce 1B68     		ldr	r3, [r3]
 1350 04d0 0433     		add	r3, r3, #4
 1351 04d2 1B68     		ldr	r3, [r3]
 1352 04d4 F86D     		ldr	r0, [r7, #92]
 1353 04d6 191C     		add	r1, r3, #0
 1354 04d8 FFF7FEFF 		bl	__aeabi_fsub
 1355 04dc 031C     		add	r3, r0, #0
 1356 04de 1A1C     		add	r2, r3, #0
 1357 04e0 8823     		mov	r3, #136
 1358 04e2 FB18     		add	r3, r7, r3
 1359 04e4 1B68     		ldr	r3, [r3]
 1360 04e6 0433     		add	r3, r3, #4
 1361 04e8 1B68     		ldr	r3, [r3]
 1362 04ea 101C     		add	r0, r2, #0
 1363 04ec 191C     		add	r1, r3, #0
 1364 04ee FFF7FEFF 		bl	__aeabi_fadd
 1365 04f2 031C     		add	r3, r0, #0
 1366 04f4 1A1C     		add	r2, r3, #0
 1367 04f6 0C23     		mov	r3, #12
 1368 04f8 FB18     		add	r3, r7, r3
 1369 04fa 1A60     		str	r2, [r3]
 385:Source\TransformFunctions/arm_cfft_f32.c ****         t4[1] = p1sp3_1 + p2[0] - p4[0];
 1370              		.loc 1 385 0 discriminator 3
 1371 04fc 9023     		mov	r3, #144
 1372 04fe FB18     		add	r3, r7, r3
 1373 0500 1B68     		ldr	r3, [r3]
 1374 0502 1B68     		ldr	r3, [r3]
 1375 0504 181C     		add	r0, r3, #0
 1376 0506 796D     		ldr	r1, [r7, #84]
 1377 0508 FFF7FEFF 		bl	__aeabi_fadd
 1378 050c 031C     		add	r3, r0, #0
 1379 050e 1A1C     		add	r2, r3, #0
 1380 0510 8823     		mov	r3, #136
ARM GAS  C:\Users\fneves\AppData\Local\Temp\ccc6W3UB.s 			page 32


 1381 0512 FB18     		add	r3, r7, r3
 1382 0514 1B68     		ldr	r3, [r3]
 1383 0516 1B68     		ldr	r3, [r3]
 1384 0518 101C     		add	r0, r2, #0
 1385 051a 191C     		add	r1, r3, #0
 1386 051c FFF7FEFF 		bl	__aeabi_fsub
 1387 0520 031C     		add	r3, r0, #0
 1388 0522 1A1C     		add	r2, r3, #0
 1389 0524 0C23     		mov	r3, #12
 1390 0526 FB18     		add	r3, r7, r3
 1391 0528 5A60     		str	r2, [r3, #4]
 386:Source\TransformFunctions/arm_cfft_f32.c ****         // col 1 - top
 387:Source\TransformFunctions/arm_cfft_f32.c ****         *p1++ = p1ap3_0 + p2[0] + p4[0];
 1392              		.loc 1 387 0 discriminator 3
 1393 052a 3C68     		ldr	r4, [r7]
 1394 052c 231D     		add	r3, r4, #4
 1395 052e 3B60     		str	r3, [r7]
 1396 0530 9023     		mov	r3, #144
 1397 0532 FB18     		add	r3, r7, r3
 1398 0534 1B68     		ldr	r3, [r3]
 1399 0536 1B68     		ldr	r3, [r3]
 1400 0538 181C     		add	r0, r3, #0
 1401 053a 396E     		ldr	r1, [r7, #96]
 1402 053c FFF7FEFF 		bl	__aeabi_fadd
 1403 0540 031C     		add	r3, r0, #0
 1404 0542 1A1C     		add	r2, r3, #0
 1405 0544 8823     		mov	r3, #136
 1406 0546 FB18     		add	r3, r7, r3
 1407 0548 1B68     		ldr	r3, [r3]
 1408 054a 1B68     		ldr	r3, [r3]
 1409 054c 101C     		add	r0, r2, #0
 1410 054e 191C     		add	r1, r3, #0
 1411 0550 FFF7FEFF 		bl	__aeabi_fadd
 1412 0554 031C     		add	r3, r0, #0
 1413 0556 2360     		str	r3, [r4]
 388:Source\TransformFunctions/arm_cfft_f32.c ****         *p1++ = p1ap3_1 + p2[1] + p4[1];
 1414              		.loc 1 388 0 discriminator 3
 1415 0558 3C68     		ldr	r4, [r7]
 1416 055a 231D     		add	r3, r4, #4
 1417 055c 3B60     		str	r3, [r7]
 1418 055e 9023     		mov	r3, #144
 1419 0560 FB18     		add	r3, r7, r3
 1420 0562 1B68     		ldr	r3, [r3]
 1421 0564 0433     		add	r3, r3, #4
 1422 0566 1B68     		ldr	r3, [r3]
 1423 0568 181C     		add	r0, r3, #0
 1424 056a B96D     		ldr	r1, [r7, #88]
 1425 056c FFF7FEFF 		bl	__aeabi_fadd
 1426 0570 031C     		add	r3, r0, #0
 1427 0572 1A1C     		add	r2, r3, #0
 1428 0574 8823     		mov	r3, #136
 1429 0576 FB18     		add	r3, r7, r3
 1430 0578 1B68     		ldr	r3, [r3]
 1431 057a 0433     		add	r3, r3, #4
 1432 057c 1B68     		ldr	r3, [r3]
 1433 057e 101C     		add	r0, r2, #0
 1434 0580 191C     		add	r1, r3, #0
ARM GAS  C:\Users\fneves\AppData\Local\Temp\ccc6W3UB.s 			page 33


 1435 0582 FFF7FEFF 		bl	__aeabi_fadd
 1436 0586 031C     		add	r3, r0, #0
 1437 0588 2360     		str	r3, [r4]
 389:Source\TransformFunctions/arm_cfft_f32.c **** 
 390:Source\TransformFunctions/arm_cfft_f32.c ****         // BOTTOM
 391:Source\TransformFunctions/arm_cfft_f32.c ****         p1ap3_1 = pEnd1[-1] + pEnd3[-1];
 1438              		.loc 1 391 0 discriminator 3
 1439 058a AC23     		mov	r3, #172
 1440 058c FB18     		add	r3, r7, r3
 1441 058e 1B68     		ldr	r3, [r3]
 1442 0590 043B     		sub	r3, r3, #4
 1443 0592 1A68     		ldr	r2, [r3]
 1444 0594 A423     		mov	r3, #164
 1445 0596 FB18     		add	r3, r7, r3
 1446 0598 1B68     		ldr	r3, [r3]
 1447 059a 043B     		sub	r3, r3, #4
 1448 059c 1B68     		ldr	r3, [r3]
 1449 059e 101C     		add	r0, r2, #0
 1450 05a0 191C     		add	r1, r3, #0
 1451 05a2 FFF7FEFF 		bl	__aeabi_fadd
 1452 05a6 031C     		add	r3, r0, #0
 1453 05a8 BB65     		str	r3, [r7, #88]
 392:Source\TransformFunctions/arm_cfft_f32.c ****         p1sp3_1 = pEnd1[-1] - pEnd3[-1];
 1454              		.loc 1 392 0 discriminator 3
 1455 05aa AC23     		mov	r3, #172
 1456 05ac FB18     		add	r3, r7, r3
 1457 05ae 1B68     		ldr	r3, [r3]
 1458 05b0 043B     		sub	r3, r3, #4
 1459 05b2 1A68     		ldr	r2, [r3]
 1460 05b4 A423     		mov	r3, #164
 1461 05b6 FB18     		add	r3, r7, r3
 1462 05b8 1B68     		ldr	r3, [r3]
 1463 05ba 043B     		sub	r3, r3, #4
 1464 05bc 1B68     		ldr	r3, [r3]
 1465 05be 101C     		add	r0, r2, #0
 1466 05c0 191C     		add	r1, r3, #0
 1467 05c2 FFF7FEFF 		bl	__aeabi_fsub
 1468 05c6 031C     		add	r3, r0, #0
 1469 05c8 7B65     		str	r3, [r7, #84]
 393:Source\TransformFunctions/arm_cfft_f32.c ****         p1ap3_0 = pEnd1[0] + pEnd3[0];
 1470              		.loc 1 393 0 discriminator 3
 1471 05ca AC23     		mov	r3, #172
 1472 05cc FB18     		add	r3, r7, r3
 1473 05ce 1B68     		ldr	r3, [r3]
 1474 05d0 1A68     		ldr	r2, [r3]
 1475 05d2 A423     		mov	r3, #164
 1476 05d4 FB18     		add	r3, r7, r3
 1477 05d6 1B68     		ldr	r3, [r3]
 1478 05d8 1B68     		ldr	r3, [r3]
 1479 05da 101C     		add	r0, r2, #0
 1480 05dc 191C     		add	r1, r3, #0
 1481 05de FFF7FEFF 		bl	__aeabi_fadd
 1482 05e2 031C     		add	r3, r0, #0
 1483 05e4 3B66     		str	r3, [r7, #96]
 394:Source\TransformFunctions/arm_cfft_f32.c ****         p1sp3_0 = pEnd1[0] - pEnd3[0];
 1484              		.loc 1 394 0 discriminator 3
 1485 05e6 AC23     		mov	r3, #172
ARM GAS  C:\Users\fneves\AppData\Local\Temp\ccc6W3UB.s 			page 34


 1486 05e8 FB18     		add	r3, r7, r3
 1487 05ea 1B68     		ldr	r3, [r3]
 1488 05ec 1A68     		ldr	r2, [r3]
 1489 05ee A423     		mov	r3, #164
 1490 05f0 FB18     		add	r3, r7, r3
 1491 05f2 1B68     		ldr	r3, [r3]
 1492 05f4 1B68     		ldr	r3, [r3]
 1493 05f6 101C     		add	r0, r2, #0
 1494 05f8 191C     		add	r1, r3, #0
 1495 05fa FFF7FEFF 		bl	__aeabi_fsub
 1496 05fe 031C     		add	r3, r0, #0
 1497 0600 FB65     		str	r3, [r7, #92]
 395:Source\TransformFunctions/arm_cfft_f32.c ****         // col 2
 396:Source\TransformFunctions/arm_cfft_f32.c ****         t2[2] = pEnd2[0]  - pEnd4[0] + p1sp3_1;
 1498              		.loc 1 396 0 discriminator 3
 1499 0602 A823     		mov	r3, #168
 1500 0604 FB18     		add	r3, r7, r3
 1501 0606 1B68     		ldr	r3, [r3]
 1502 0608 1A68     		ldr	r2, [r3]
 1503 060a A023     		mov	r3, #160
 1504 060c FB18     		add	r3, r7, r3
 1505 060e 1B68     		ldr	r3, [r3]
 1506 0610 1B68     		ldr	r3, [r3]
 1507 0612 101C     		add	r0, r2, #0
 1508 0614 191C     		add	r1, r3, #0
 1509 0616 FFF7FEFF 		bl	__aeabi_fsub
 1510 061a 031C     		add	r3, r0, #0
 1511 061c 181C     		add	r0, r3, #0
 1512 061e 796D     		ldr	r1, [r7, #84]
 1513 0620 FFF7FEFF 		bl	__aeabi_fadd
 1514 0624 031C     		add	r3, r0, #0
 1515 0626 1A1C     		add	r2, r3, #0
 1516 0628 2C23     		mov	r3, #44
 1517 062a FB18     		add	r3, r7, r3
 1518 062c 9A60     		str	r2, [r3, #8]
 397:Source\TransformFunctions/arm_cfft_f32.c ****         t2[3] = pEnd1[0] - pEnd3[0] - pEnd2[-1] + pEnd4[-1];
 1519              		.loc 1 397 0 discriminator 3
 1520 062e AC23     		mov	r3, #172
 1521 0630 FB18     		add	r3, r7, r3
 1522 0632 1B68     		ldr	r3, [r3]
 1523 0634 1A68     		ldr	r2, [r3]
 1524 0636 A423     		mov	r3, #164
 1525 0638 FB18     		add	r3, r7, r3
 1526 063a 1B68     		ldr	r3, [r3]
 1527 063c 1B68     		ldr	r3, [r3]
 1528 063e 101C     		add	r0, r2, #0
 1529 0640 191C     		add	r1, r3, #0
 1530 0642 FFF7FEFF 		bl	__aeabi_fsub
 1531 0646 031C     		add	r3, r0, #0
 1532 0648 1A1C     		add	r2, r3, #0
 1533 064a A823     		mov	r3, #168
 1534 064c FB18     		add	r3, r7, r3
 1535 064e 1B68     		ldr	r3, [r3]
 1536 0650 043B     		sub	r3, r3, #4
 1537 0652 1B68     		ldr	r3, [r3]
 1538 0654 101C     		add	r0, r2, #0
 1539 0656 191C     		add	r1, r3, #0
ARM GAS  C:\Users\fneves\AppData\Local\Temp\ccc6W3UB.s 			page 35


 1540 0658 FFF7FEFF 		bl	__aeabi_fsub
 1541 065c 031C     		add	r3, r0, #0
 1542 065e 1A1C     		add	r2, r3, #0
 1543 0660 A023     		mov	r3, #160
 1544 0662 FB18     		add	r3, r7, r3
 1545 0664 1B68     		ldr	r3, [r3]
 1546 0666 043B     		sub	r3, r3, #4
 1547 0668 1B68     		ldr	r3, [r3]
 1548 066a 101C     		add	r0, r2, #0
 1549 066c 191C     		add	r1, r3, #0
 1550 066e FFF7FEFF 		bl	__aeabi_fadd
 1551 0672 031C     		add	r3, r0, #0
 1552 0674 1A1C     		add	r2, r3, #0
 1553 0676 2C23     		mov	r3, #44
 1554 0678 FB18     		add	r3, r7, r3
 1555 067a DA60     		str	r2, [r3, #12]
 398:Source\TransformFunctions/arm_cfft_f32.c ****         // col 3
 399:Source\TransformFunctions/arm_cfft_f32.c ****         t3[2] = p1ap3_1 - pEnd2[-1] - pEnd4[-1];
 1556              		.loc 1 399 0 discriminator 3
 1557 067c A823     		mov	r3, #168
 1558 067e FB18     		add	r3, r7, r3
 1559 0680 1B68     		ldr	r3, [r3]
 1560 0682 043B     		sub	r3, r3, #4
 1561 0684 1B68     		ldr	r3, [r3]
 1562 0686 B86D     		ldr	r0, [r7, #88]
 1563 0688 191C     		add	r1, r3, #0
 1564 068a FFF7FEFF 		bl	__aeabi_fsub
 1565 068e 031C     		add	r3, r0, #0
 1566 0690 1A1C     		add	r2, r3, #0
 1567 0692 A023     		mov	r3, #160
 1568 0694 FB18     		add	r3, r7, r3
 1569 0696 1B68     		ldr	r3, [r3]
 1570 0698 043B     		sub	r3, r3, #4
 1571 069a 1B68     		ldr	r3, [r3]
 1572 069c 101C     		add	r0, r2, #0
 1573 069e 191C     		add	r1, r3, #0
 1574 06a0 FFF7FEFF 		bl	__aeabi_fsub
 1575 06a4 031C     		add	r3, r0, #0
 1576 06a6 1A1C     		add	r2, r3, #0
 1577 06a8 1C23     		mov	r3, #28
 1578 06aa FB18     		add	r3, r7, r3
 1579 06ac 9A60     		str	r2, [r3, #8]
 400:Source\TransformFunctions/arm_cfft_f32.c ****         t3[3] = p1ap3_0 - pEnd2[0]  - pEnd4[0];
 1580              		.loc 1 400 0 discriminator 3
 1581 06ae A823     		mov	r3, #168
 1582 06b0 FB18     		add	r3, r7, r3
 1583 06b2 1B68     		ldr	r3, [r3]
 1584 06b4 1B68     		ldr	r3, [r3]
 1585 06b6 386E     		ldr	r0, [r7, #96]
 1586 06b8 191C     		add	r1, r3, #0
 1587 06ba FFF7FEFF 		bl	__aeabi_fsub
 1588 06be 031C     		add	r3, r0, #0
 1589 06c0 1A1C     		add	r2, r3, #0
 1590 06c2 A023     		mov	r3, #160
 1591 06c4 FB18     		add	r3, r7, r3
 1592 06c6 1B68     		ldr	r3, [r3]
 1593 06c8 1B68     		ldr	r3, [r3]
ARM GAS  C:\Users\fneves\AppData\Local\Temp\ccc6W3UB.s 			page 36


 1594 06ca 101C     		add	r0, r2, #0
 1595 06cc 191C     		add	r1, r3, #0
 1596 06ce FFF7FEFF 		bl	__aeabi_fsub
 1597 06d2 031C     		add	r3, r0, #0
 1598 06d4 1A1C     		add	r2, r3, #0
 1599 06d6 1C23     		mov	r3, #28
 1600 06d8 FB18     		add	r3, r7, r3
 1601 06da DA60     		str	r2, [r3, #12]
 401:Source\TransformFunctions/arm_cfft_f32.c ****         // col 4
 402:Source\TransformFunctions/arm_cfft_f32.c ****         t4[2] = pEnd2[0]  - pEnd4[0]  - p1sp3_1;
 1602              		.loc 1 402 0 discriminator 3
 1603 06dc A823     		mov	r3, #168
 1604 06de FB18     		add	r3, r7, r3
 1605 06e0 1B68     		ldr	r3, [r3]
 1606 06e2 1A68     		ldr	r2, [r3]
 1607 06e4 A023     		mov	r3, #160
 1608 06e6 FB18     		add	r3, r7, r3
 1609 06e8 1B68     		ldr	r3, [r3]
 1610 06ea 1B68     		ldr	r3, [r3]
 1611 06ec 101C     		add	r0, r2, #0
 1612 06ee 191C     		add	r1, r3, #0
 1613 06f0 FFF7FEFF 		bl	__aeabi_fsub
 1614 06f4 031C     		add	r3, r0, #0
 1615 06f6 181C     		add	r0, r3, #0
 1616 06f8 796D     		ldr	r1, [r7, #84]
 1617 06fa FFF7FEFF 		bl	__aeabi_fsub
 1618 06fe 031C     		add	r3, r0, #0
 1619 0700 1A1C     		add	r2, r3, #0
 1620 0702 0C23     		mov	r3, #12
 1621 0704 FB18     		add	r3, r7, r3
 1622 0706 9A60     		str	r2, [r3, #8]
 403:Source\TransformFunctions/arm_cfft_f32.c ****         t4[3] = pEnd4[-1] - pEnd2[-1] - p1sp3_0;
 1623              		.loc 1 403 0 discriminator 3
 1624 0708 A023     		mov	r3, #160
 1625 070a FB18     		add	r3, r7, r3
 1626 070c 1B68     		ldr	r3, [r3]
 1627 070e 043B     		sub	r3, r3, #4
 1628 0710 1A68     		ldr	r2, [r3]
 1629 0712 A823     		mov	r3, #168
 1630 0714 FB18     		add	r3, r7, r3
 1631 0716 1B68     		ldr	r3, [r3]
 1632 0718 043B     		sub	r3, r3, #4
 1633 071a 1B68     		ldr	r3, [r3]
 1634 071c 101C     		add	r0, r2, #0
 1635 071e 191C     		add	r1, r3, #0
 1636 0720 FFF7FEFF 		bl	__aeabi_fsub
 1637 0724 031C     		add	r3, r0, #0
 1638 0726 181C     		add	r0, r3, #0
 1639 0728 F96D     		ldr	r1, [r7, #92]
 1640 072a FFF7FEFF 		bl	__aeabi_fsub
 1641 072e 031C     		add	r3, r0, #0
 1642 0730 1A1C     		add	r2, r3, #0
 1643 0732 0C23     		mov	r3, #12
 1644 0734 FB18     		add	r3, r7, r3
 1645 0736 DA60     		str	r2, [r3, #12]
 404:Source\TransformFunctions/arm_cfft_f32.c ****         // col 1 - Bottom
 405:Source\TransformFunctions/arm_cfft_f32.c ****         *pEnd1-- = p1ap3_0 + pEnd2[0] + pEnd4[0];
ARM GAS  C:\Users\fneves\AppData\Local\Temp\ccc6W3UB.s 			page 37


 1646              		.loc 1 405 0 discriminator 3
 1647 0738 AC23     		mov	r3, #172
 1648 073a FB18     		add	r3, r7, r3
 1649 073c 1C68     		ldr	r4, [r3]
 1650 073e 231F     		sub	r3, r4, #4
 1651 0740 AC22     		mov	r2, #172
 1652 0742 BA18     		add	r2, r7, r2
 1653 0744 1360     		str	r3, [r2]
 1654 0746 A823     		mov	r3, #168
 1655 0748 FB18     		add	r3, r7, r3
 1656 074a 1B68     		ldr	r3, [r3]
 1657 074c 1B68     		ldr	r3, [r3]
 1658 074e 181C     		add	r0, r3, #0
 1659 0750 396E     		ldr	r1, [r7, #96]
 1660 0752 FFF7FEFF 		bl	__aeabi_fadd
 1661 0756 031C     		add	r3, r0, #0
 1662 0758 1A1C     		add	r2, r3, #0
 1663 075a A023     		mov	r3, #160
 1664 075c FB18     		add	r3, r7, r3
 1665 075e 1B68     		ldr	r3, [r3]
 1666 0760 1B68     		ldr	r3, [r3]
 1667 0762 101C     		add	r0, r2, #0
 1668 0764 191C     		add	r1, r3, #0
 1669 0766 FFF7FEFF 		bl	__aeabi_fadd
 1670 076a 031C     		add	r3, r0, #0
 1671 076c 2360     		str	r3, [r4]
 406:Source\TransformFunctions/arm_cfft_f32.c ****         *pEnd1-- = p1ap3_1 + pEnd2[-1] + pEnd4[-1];
 1672              		.loc 1 406 0 discriminator 3
 1673 076e AC23     		mov	r3, #172
 1674 0770 FB18     		add	r3, r7, r3
 1675 0772 1C68     		ldr	r4, [r3]
 1676 0774 231F     		sub	r3, r4, #4
 1677 0776 AC22     		mov	r2, #172
 1678 0778 BA18     		add	r2, r7, r2
 1679 077a 1360     		str	r3, [r2]
 1680 077c A823     		mov	r3, #168
 1681 077e FB18     		add	r3, r7, r3
 1682 0780 1B68     		ldr	r3, [r3]
 1683 0782 043B     		sub	r3, r3, #4
 1684 0784 1B68     		ldr	r3, [r3]
 1685 0786 181C     		add	r0, r3, #0
 1686 0788 B96D     		ldr	r1, [r7, #88]
 1687 078a FFF7FEFF 		bl	__aeabi_fadd
 1688 078e 031C     		add	r3, r0, #0
 1689 0790 1A1C     		add	r2, r3, #0
 1690 0792 A023     		mov	r3, #160
 1691 0794 FB18     		add	r3, r7, r3
 1692 0796 1B68     		ldr	r3, [r3]
 1693 0798 043B     		sub	r3, r3, #4
 1694 079a 1B68     		ldr	r3, [r3]
 1695 079c 101C     		add	r0, r2, #0
 1696 079e 191C     		add	r1, r3, #0
 1697 07a0 FFF7FEFF 		bl	__aeabi_fadd
 1698 07a4 031C     		add	r3, r0, #0
 1699 07a6 2360     		str	r3, [r4]
 407:Source\TransformFunctions/arm_cfft_f32.c **** 
 408:Source\TransformFunctions/arm_cfft_f32.c ****         // COL 2
ARM GAS  C:\Users\fneves\AppData\Local\Temp\ccc6W3UB.s 			page 38


 409:Source\TransformFunctions/arm_cfft_f32.c ****         // read twiddle factors
 410:Source\TransformFunctions/arm_cfft_f32.c ****         twR = *tw2++;
 1700              		.loc 1 410 0 discriminator 3
 1701 07a8 9C23     		mov	r3, #156
 1702 07aa FB18     		add	r3, r7, r3
 1703 07ac 1B68     		ldr	r3, [r3]
 1704 07ae 1A1D     		add	r2, r3, #4
 1705 07b0 9C21     		mov	r1, #156
 1706 07b2 7918     		add	r1, r7, r1
 1707 07b4 0A60     		str	r2, [r1]
 1708 07b6 1B68     		ldr	r3, [r3]
 1709 07b8 3B65     		str	r3, [r7, #80]
 411:Source\TransformFunctions/arm_cfft_f32.c ****         twI = *tw2++;
 1710              		.loc 1 411 0 discriminator 3
 1711 07ba 9C23     		mov	r3, #156
 1712 07bc FB18     		add	r3, r7, r3
 1713 07be 1B68     		ldr	r3, [r3]
 1714 07c0 1A1D     		add	r2, r3, #4
 1715 07c2 9C21     		mov	r1, #156
 1716 07c4 7918     		add	r1, r7, r1
 1717 07c6 0A60     		str	r2, [r1]
 1718 07c8 1B68     		ldr	r3, [r3]
 1719 07ca FB64     		str	r3, [r7, #76]
 412:Source\TransformFunctions/arm_cfft_f32.c ****         // multiply by twiddle factors
 413:Source\TransformFunctions/arm_cfft_f32.c ****         //  let    Z1 = a + i(b),   Z2 = c + i(d)
 414:Source\TransformFunctions/arm_cfft_f32.c ****         //   =>  Z1 * Z2  =  (a*c - b*d) + i(b*c + a*d)
 415:Source\TransformFunctions/arm_cfft_f32.c **** 
 416:Source\TransformFunctions/arm_cfft_f32.c ****         // Top
 417:Source\TransformFunctions/arm_cfft_f32.c ****         m0 = t2[0] * twR;
 1720              		.loc 1 417 0 discriminator 3
 1721 07cc 2C23     		mov	r3, #44
 1722 07ce FB18     		add	r3, r7, r3
 1723 07d0 1B68     		ldr	r3, [r3]
 1724 07d2 181C     		add	r0, r3, #0
 1725 07d4 396D     		ldr	r1, [r7, #80]
 1726 07d6 FFF7FEFF 		bl	__aeabi_fmul
 1727 07da 031C     		add	r3, r0, #0
 1728 07dc BB64     		str	r3, [r7, #72]
 418:Source\TransformFunctions/arm_cfft_f32.c ****         m1 = t2[1] * twI;
 1729              		.loc 1 418 0 discriminator 3
 1730 07de 2C23     		mov	r3, #44
 1731 07e0 FB18     		add	r3, r7, r3
 1732 07e2 5B68     		ldr	r3, [r3, #4]
 1733 07e4 181C     		add	r0, r3, #0
 1734 07e6 F96C     		ldr	r1, [r7, #76]
 1735 07e8 FFF7FEFF 		bl	__aeabi_fmul
 1736 07ec 031C     		add	r3, r0, #0
 1737 07ee 7B64     		str	r3, [r7, #68]
 419:Source\TransformFunctions/arm_cfft_f32.c ****         m2 = t2[1] * twR;
 1738              		.loc 1 419 0 discriminator 3
 1739 07f0 2C23     		mov	r3, #44
 1740 07f2 FB18     		add	r3, r7, r3
 1741 07f4 5B68     		ldr	r3, [r3, #4]
 1742 07f6 181C     		add	r0, r3, #0
 1743 07f8 396D     		ldr	r1, [r7, #80]
 1744 07fa FFF7FEFF 		bl	__aeabi_fmul
 1745 07fe 031C     		add	r3, r0, #0
ARM GAS  C:\Users\fneves\AppData\Local\Temp\ccc6W3UB.s 			page 39


 1746 0800 3B64     		str	r3, [r7, #64]
 420:Source\TransformFunctions/arm_cfft_f32.c ****         m3 = t2[0] * twI;
 1747              		.loc 1 420 0 discriminator 3
 1748 0802 2C23     		mov	r3, #44
 1749 0804 FB18     		add	r3, r7, r3
 1750 0806 1B68     		ldr	r3, [r3]
 1751 0808 181C     		add	r0, r3, #0
 1752 080a F96C     		ldr	r1, [r7, #76]
 1753 080c FFF7FEFF 		bl	__aeabi_fmul
 1754 0810 031C     		add	r3, r0, #0
 1755 0812 FB63     		str	r3, [r7, #60]
 421:Source\TransformFunctions/arm_cfft_f32.c **** 
 422:Source\TransformFunctions/arm_cfft_f32.c ****         *p2++ = m0 + m1;
 1756              		.loc 1 422 0 discriminator 3
 1757 0814 9023     		mov	r3, #144
 1758 0816 FB18     		add	r3, r7, r3
 1759 0818 1C68     		ldr	r4, [r3]
 1760 081a 231D     		add	r3, r4, #4
 1761 081c 9022     		mov	r2, #144
 1762 081e BA18     		add	r2, r7, r2
 1763 0820 1360     		str	r3, [r2]
 1764 0822 B86C     		ldr	r0, [r7, #72]
 1765 0824 796C     		ldr	r1, [r7, #68]
 1766 0826 FFF7FEFF 		bl	__aeabi_fadd
 1767 082a 031C     		add	r3, r0, #0
 1768 082c 2360     		str	r3, [r4]
 423:Source\TransformFunctions/arm_cfft_f32.c ****         *p2++ = m2 - m3;
 1769              		.loc 1 423 0 discriminator 3
 1770 082e 9023     		mov	r3, #144
 1771 0830 FB18     		add	r3, r7, r3
 1772 0832 1C68     		ldr	r4, [r3]
 1773 0834 231D     		add	r3, r4, #4
 1774 0836 9022     		mov	r2, #144
 1775 0838 BA18     		add	r2, r7, r2
 1776 083a 1360     		str	r3, [r2]
 1777 083c 386C     		ldr	r0, [r7, #64]
 1778 083e F96B     		ldr	r1, [r7, #60]
 1779 0840 FFF7FEFF 		bl	__aeabi_fsub
 1780 0844 031C     		add	r3, r0, #0
 1781 0846 2360     		str	r3, [r4]
 424:Source\TransformFunctions/arm_cfft_f32.c ****         // use vertical symmetry col 2
 425:Source\TransformFunctions/arm_cfft_f32.c ****         // 0.9997 - 0.0245i  <==>  0.0245 - 0.9997i
 426:Source\TransformFunctions/arm_cfft_f32.c ****         // Bottom
 427:Source\TransformFunctions/arm_cfft_f32.c ****         m0 = t2[3] * twI;
 1782              		.loc 1 427 0 discriminator 3
 1783 0848 2C23     		mov	r3, #44
 1784 084a FB18     		add	r3, r7, r3
 1785 084c DB68     		ldr	r3, [r3, #12]
 1786 084e 181C     		add	r0, r3, #0
 1787 0850 F96C     		ldr	r1, [r7, #76]
 1788 0852 FFF7FEFF 		bl	__aeabi_fmul
 1789 0856 031C     		add	r3, r0, #0
 1790 0858 BB64     		str	r3, [r7, #72]
 428:Source\TransformFunctions/arm_cfft_f32.c ****         m1 = t2[2] * twR;
 1791              		.loc 1 428 0 discriminator 3
 1792 085a 2C23     		mov	r3, #44
 1793 085c FB18     		add	r3, r7, r3
ARM GAS  C:\Users\fneves\AppData\Local\Temp\ccc6W3UB.s 			page 40


 1794 085e 9B68     		ldr	r3, [r3, #8]
 1795 0860 181C     		add	r0, r3, #0
 1796 0862 396D     		ldr	r1, [r7, #80]
 1797 0864 FFF7FEFF 		bl	__aeabi_fmul
 1798 0868 031C     		add	r3, r0, #0
 1799 086a 7B64     		str	r3, [r7, #68]
 429:Source\TransformFunctions/arm_cfft_f32.c ****         m2 = t2[2] * twI;
 1800              		.loc 1 429 0 discriminator 3
 1801 086c 2C23     		mov	r3, #44
 1802 086e FB18     		add	r3, r7, r3
 1803 0870 9B68     		ldr	r3, [r3, #8]
 1804 0872 181C     		add	r0, r3, #0
 1805 0874 F96C     		ldr	r1, [r7, #76]
 1806 0876 FFF7FEFF 		bl	__aeabi_fmul
 1807 087a 031C     		add	r3, r0, #0
 1808 087c 3B64     		str	r3, [r7, #64]
 430:Source\TransformFunctions/arm_cfft_f32.c ****         m3 = t2[3] * twR;
 1809              		.loc 1 430 0 discriminator 3
 1810 087e 2C23     		mov	r3, #44
 1811 0880 FB18     		add	r3, r7, r3
 1812 0882 DB68     		ldr	r3, [r3, #12]
 1813 0884 181C     		add	r0, r3, #0
 1814 0886 396D     		ldr	r1, [r7, #80]
 1815 0888 FFF7FEFF 		bl	__aeabi_fmul
 1816 088c 031C     		add	r3, r0, #0
 1817 088e FB63     		str	r3, [r7, #60]
 431:Source\TransformFunctions/arm_cfft_f32.c **** 
 432:Source\TransformFunctions/arm_cfft_f32.c ****         *pEnd2-- = m0 - m1;
 1818              		.loc 1 432 0 discriminator 3
 1819 0890 A823     		mov	r3, #168
 1820 0892 FB18     		add	r3, r7, r3
 1821 0894 1C68     		ldr	r4, [r3]
 1822 0896 231F     		sub	r3, r4, #4
 1823 0898 A822     		mov	r2, #168
 1824 089a BA18     		add	r2, r7, r2
 1825 089c 1360     		str	r3, [r2]
 1826 089e B86C     		ldr	r0, [r7, #72]
 1827 08a0 796C     		ldr	r1, [r7, #68]
 1828 08a2 FFF7FEFF 		bl	__aeabi_fsub
 1829 08a6 031C     		add	r3, r0, #0
 1830 08a8 2360     		str	r3, [r4]
 433:Source\TransformFunctions/arm_cfft_f32.c ****         *pEnd2-- = m2 + m3;
 1831              		.loc 1 433 0 discriminator 3
 1832 08aa A823     		mov	r3, #168
 1833 08ac FB18     		add	r3, r7, r3
 1834 08ae 1C68     		ldr	r4, [r3]
 1835 08b0 231F     		sub	r3, r4, #4
 1836 08b2 A822     		mov	r2, #168
 1837 08b4 BA18     		add	r2, r7, r2
 1838 08b6 1360     		str	r3, [r2]
 1839 08b8 386C     		ldr	r0, [r7, #64]
 1840 08ba F96B     		ldr	r1, [r7, #60]
 1841 08bc FFF7FEFF 		bl	__aeabi_fadd
 1842 08c0 031C     		add	r3, r0, #0
 1843 08c2 2360     		str	r3, [r4]
 434:Source\TransformFunctions/arm_cfft_f32.c **** 
 435:Source\TransformFunctions/arm_cfft_f32.c ****         // COL 3
ARM GAS  C:\Users\fneves\AppData\Local\Temp\ccc6W3UB.s 			page 41


 436:Source\TransformFunctions/arm_cfft_f32.c ****         twR = tw3[0];
 1844              		.loc 1 436 0 discriminator 3
 1845 08c4 9823     		mov	r3, #152
 1846 08c6 FB18     		add	r3, r7, r3
 1847 08c8 1B68     		ldr	r3, [r3]
 1848 08ca 1B68     		ldr	r3, [r3]
 1849 08cc 3B65     		str	r3, [r7, #80]
 437:Source\TransformFunctions/arm_cfft_f32.c ****         twI = tw3[1];
 1850              		.loc 1 437 0 discriminator 3
 1851 08ce 9823     		mov	r3, #152
 1852 08d0 FB18     		add	r3, r7, r3
 1853 08d2 1B68     		ldr	r3, [r3]
 1854 08d4 5B68     		ldr	r3, [r3, #4]
 1855 08d6 FB64     		str	r3, [r7, #76]
 438:Source\TransformFunctions/arm_cfft_f32.c ****         tw3 += twMod3;
 1856              		.loc 1 438 0 discriminator 3
 1857 08d8 BB6E     		ldr	r3, [r7, #104]
 1858 08da 9B00     		lsl	r3, r3, #2
 1859 08dc 9822     		mov	r2, #152
 1860 08de BA18     		add	r2, r7, r2
 1861 08e0 1268     		ldr	r2, [r2]
 1862 08e2 D318     		add	r3, r2, r3
 1863 08e4 9822     		mov	r2, #152
 1864 08e6 BA18     		add	r2, r7, r2
 1865 08e8 1360     		str	r3, [r2]
 439:Source\TransformFunctions/arm_cfft_f32.c ****         // Top
 440:Source\TransformFunctions/arm_cfft_f32.c ****         m0 = t3[0] * twR;
 1866              		.loc 1 440 0 discriminator 3
 1867 08ea 1C23     		mov	r3, #28
 1868 08ec FB18     		add	r3, r7, r3
 1869 08ee 1B68     		ldr	r3, [r3]
 1870 08f0 181C     		add	r0, r3, #0
 1871 08f2 396D     		ldr	r1, [r7, #80]
 1872 08f4 FFF7FEFF 		bl	__aeabi_fmul
 1873 08f8 031C     		add	r3, r0, #0
 1874 08fa BB64     		str	r3, [r7, #72]
 441:Source\TransformFunctions/arm_cfft_f32.c ****         m1 = t3[1] * twI;
 1875              		.loc 1 441 0 discriminator 3
 1876 08fc 1C23     		mov	r3, #28
 1877 08fe FB18     		add	r3, r7, r3
 1878 0900 5B68     		ldr	r3, [r3, #4]
 1879 0902 181C     		add	r0, r3, #0
 1880 0904 F96C     		ldr	r1, [r7, #76]
 1881 0906 FFF7FEFF 		bl	__aeabi_fmul
 1882 090a 031C     		add	r3, r0, #0
 1883 090c 7B64     		str	r3, [r7, #68]
 442:Source\TransformFunctions/arm_cfft_f32.c ****         m2 = t3[1] * twR;
 1884              		.loc 1 442 0 discriminator 3
 1885 090e 1C23     		mov	r3, #28
 1886 0910 FB18     		add	r3, r7, r3
 1887 0912 5B68     		ldr	r3, [r3, #4]
 1888 0914 181C     		add	r0, r3, #0
 1889 0916 396D     		ldr	r1, [r7, #80]
 1890 0918 FFF7FEFF 		bl	__aeabi_fmul
 1891 091c 031C     		add	r3, r0, #0
 1892 091e 3B64     		str	r3, [r7, #64]
 443:Source\TransformFunctions/arm_cfft_f32.c ****         m3 = t3[0] * twI;
ARM GAS  C:\Users\fneves\AppData\Local\Temp\ccc6W3UB.s 			page 42


 1893              		.loc 1 443 0 discriminator 3
 1894 0920 1C23     		mov	r3, #28
 1895 0922 FB18     		add	r3, r7, r3
 1896 0924 1B68     		ldr	r3, [r3]
 1897 0926 181C     		add	r0, r3, #0
 1898 0928 F96C     		ldr	r1, [r7, #76]
 1899 092a FFF7FEFF 		bl	__aeabi_fmul
 1900 092e 031C     		add	r3, r0, #0
 1901 0930 FB63     		str	r3, [r7, #60]
 444:Source\TransformFunctions/arm_cfft_f32.c **** 
 445:Source\TransformFunctions/arm_cfft_f32.c ****         *p3++ = m0 + m1;
 1902              		.loc 1 445 0 discriminator 3
 1903 0932 8C23     		mov	r3, #140
 1904 0934 FB18     		add	r3, r7, r3
 1905 0936 1C68     		ldr	r4, [r3]
 1906 0938 231D     		add	r3, r4, #4
 1907 093a 8C22     		mov	r2, #140
 1908 093c BA18     		add	r2, r7, r2
 1909 093e 1360     		str	r3, [r2]
 1910 0940 B86C     		ldr	r0, [r7, #72]
 1911 0942 796C     		ldr	r1, [r7, #68]
 1912 0944 FFF7FEFF 		bl	__aeabi_fadd
 1913 0948 031C     		add	r3, r0, #0
 1914 094a 2360     		str	r3, [r4]
 446:Source\TransformFunctions/arm_cfft_f32.c ****         *p3++ = m2 - m3;
 1915              		.loc 1 446 0 discriminator 3
 1916 094c 8C23     		mov	r3, #140
 1917 094e FB18     		add	r3, r7, r3
 1918 0950 1C68     		ldr	r4, [r3]
 1919 0952 231D     		add	r3, r4, #4
 1920 0954 8C22     		mov	r2, #140
 1921 0956 BA18     		add	r2, r7, r2
 1922 0958 1360     		str	r3, [r2]
 1923 095a 386C     		ldr	r0, [r7, #64]
 1924 095c F96B     		ldr	r1, [r7, #60]
 1925 095e FFF7FEFF 		bl	__aeabi_fsub
 1926 0962 031C     		add	r3, r0, #0
 1927 0964 2360     		str	r3, [r4]
 447:Source\TransformFunctions/arm_cfft_f32.c ****         // use vertical symmetry col 3
 448:Source\TransformFunctions/arm_cfft_f32.c ****         // 0.9988 - 0.0491i  <==>  -0.9988 - 0.0491i
 449:Source\TransformFunctions/arm_cfft_f32.c ****         // Bottom
 450:Source\TransformFunctions/arm_cfft_f32.c ****         m0 = -t3[3] * twR;
 1928              		.loc 1 450 0 discriminator 3
 1929 0966 1C23     		mov	r3, #28
 1930 0968 FB18     		add	r3, r7, r3
 1931 096a DB68     		ldr	r3, [r3, #12]
 1932 096c 8022     		mov	r2, #128
 1933 096e 1206     		lsl	r2, r2, #24
 1934 0970 5340     		eor	r3, r2
 1935 0972 181C     		add	r0, r3, #0
 1936 0974 396D     		ldr	r1, [r7, #80]
 1937 0976 FFF7FEFF 		bl	__aeabi_fmul
 1938 097a 031C     		add	r3, r0, #0
 1939 097c BB64     		str	r3, [r7, #72]
 451:Source\TransformFunctions/arm_cfft_f32.c ****         m1 = t3[2] * twI;
 1940              		.loc 1 451 0 discriminator 3
 1941 097e 1C23     		mov	r3, #28
ARM GAS  C:\Users\fneves\AppData\Local\Temp\ccc6W3UB.s 			page 43


 1942 0980 FB18     		add	r3, r7, r3
 1943 0982 9B68     		ldr	r3, [r3, #8]
 1944 0984 181C     		add	r0, r3, #0
 1945 0986 F96C     		ldr	r1, [r7, #76]
 1946 0988 FFF7FEFF 		bl	__aeabi_fmul
 1947 098c 031C     		add	r3, r0, #0
 1948 098e 7B64     		str	r3, [r7, #68]
 452:Source\TransformFunctions/arm_cfft_f32.c ****         m2 = t3[2] * twR;
 1949              		.loc 1 452 0 discriminator 3
 1950 0990 1C23     		mov	r3, #28
 1951 0992 FB18     		add	r3, r7, r3
 1952 0994 9B68     		ldr	r3, [r3, #8]
 1953 0996 181C     		add	r0, r3, #0
 1954 0998 396D     		ldr	r1, [r7, #80]
 1955 099a FFF7FEFF 		bl	__aeabi_fmul
 1956 099e 031C     		add	r3, r0, #0
 1957 09a0 3B64     		str	r3, [r7, #64]
 453:Source\TransformFunctions/arm_cfft_f32.c ****         m3 = t3[3] * twI;
 1958              		.loc 1 453 0 discriminator 3
 1959 09a2 1C23     		mov	r3, #28
 1960 09a4 FB18     		add	r3, r7, r3
 1961 09a6 DB68     		ldr	r3, [r3, #12]
 1962 09a8 181C     		add	r0, r3, #0
 1963 09aa F96C     		ldr	r1, [r7, #76]
 1964 09ac FFF7FEFF 		bl	__aeabi_fmul
 1965 09b0 031C     		add	r3, r0, #0
 1966 09b2 FB63     		str	r3, [r7, #60]
 454:Source\TransformFunctions/arm_cfft_f32.c **** 
 455:Source\TransformFunctions/arm_cfft_f32.c ****         *pEnd3-- = m0 - m1;
 1967              		.loc 1 455 0 discriminator 3
 1968 09b4 A423     		mov	r3, #164
 1969 09b6 FB18     		add	r3, r7, r3
 1970 09b8 1C68     		ldr	r4, [r3]
 1971 09ba 231F     		sub	r3, r4, #4
 1972 09bc A422     		mov	r2, #164
 1973 09be BA18     		add	r2, r7, r2
 1974 09c0 1360     		str	r3, [r2]
 1975 09c2 B86C     		ldr	r0, [r7, #72]
 1976 09c4 796C     		ldr	r1, [r7, #68]
 1977 09c6 FFF7FEFF 		bl	__aeabi_fsub
 1978 09ca 031C     		add	r3, r0, #0
 1979 09cc 2360     		str	r3, [r4]
 456:Source\TransformFunctions/arm_cfft_f32.c ****         *pEnd3-- = m3 - m2;
 1980              		.loc 1 456 0 discriminator 3
 1981 09ce A423     		mov	r3, #164
 1982 09d0 FB18     		add	r3, r7, r3
 1983 09d2 1C68     		ldr	r4, [r3]
 1984 09d4 231F     		sub	r3, r4, #4
 1985 09d6 A422     		mov	r2, #164
 1986 09d8 BA18     		add	r2, r7, r2
 1987 09da 1360     		str	r3, [r2]
 1988 09dc F86B     		ldr	r0, [r7, #60]
 1989 09de 396C     		ldr	r1, [r7, #64]
 1990 09e0 FFF7FEFF 		bl	__aeabi_fsub
 1991 09e4 031C     		add	r3, r0, #0
 1992 09e6 2360     		str	r3, [r4]
 457:Source\TransformFunctions/arm_cfft_f32.c **** 
ARM GAS  C:\Users\fneves\AppData\Local\Temp\ccc6W3UB.s 			page 44


 458:Source\TransformFunctions/arm_cfft_f32.c ****         // COL 4
 459:Source\TransformFunctions/arm_cfft_f32.c ****         twR = tw4[0];
 1993              		.loc 1 459 0 discriminator 3
 1994 09e8 9423     		mov	r3, #148
 1995 09ea FB18     		add	r3, r7, r3
 1996 09ec 1B68     		ldr	r3, [r3]
 1997 09ee 1B68     		ldr	r3, [r3]
 1998 09f0 3B65     		str	r3, [r7, #80]
 460:Source\TransformFunctions/arm_cfft_f32.c ****         twI = tw4[1];
 1999              		.loc 1 460 0 discriminator 3
 2000 09f2 9423     		mov	r3, #148
 2001 09f4 FB18     		add	r3, r7, r3
 2002 09f6 1B68     		ldr	r3, [r3]
 2003 09f8 5B68     		ldr	r3, [r3, #4]
 2004 09fa FB64     		str	r3, [r7, #76]
 461:Source\TransformFunctions/arm_cfft_f32.c ****         tw4 += twMod4;
 2005              		.loc 1 461 0 discriminator 3
 2006 09fc 7B6E     		ldr	r3, [r7, #100]
 2007 09fe 9B00     		lsl	r3, r3, #2
 2008 0a00 9422     		mov	r2, #148
 2009 0a02 BA18     		add	r2, r7, r2
 2010 0a04 1268     		ldr	r2, [r2]
 2011 0a06 D318     		add	r3, r2, r3
 2012 0a08 9422     		mov	r2, #148
 2013 0a0a BA18     		add	r2, r7, r2
 2014 0a0c 1360     		str	r3, [r2]
 462:Source\TransformFunctions/arm_cfft_f32.c ****         // Top
 463:Source\TransformFunctions/arm_cfft_f32.c ****         m0 = t4[0] * twR;
 2015              		.loc 1 463 0 discriminator 3
 2016 0a0e 0C23     		mov	r3, #12
 2017 0a10 FB18     		add	r3, r7, r3
 2018 0a12 1B68     		ldr	r3, [r3]
 2019 0a14 181C     		add	r0, r3, #0
 2020 0a16 396D     		ldr	r1, [r7, #80]
 2021 0a18 FFF7FEFF 		bl	__aeabi_fmul
 2022 0a1c 031C     		add	r3, r0, #0
 2023 0a1e BB64     		str	r3, [r7, #72]
 464:Source\TransformFunctions/arm_cfft_f32.c ****         m1 = t4[1] * twI;
 2024              		.loc 1 464 0 discriminator 3
 2025 0a20 0C23     		mov	r3, #12
 2026 0a22 FB18     		add	r3, r7, r3
 2027 0a24 5B68     		ldr	r3, [r3, #4]
 2028 0a26 181C     		add	r0, r3, #0
 2029 0a28 F96C     		ldr	r1, [r7, #76]
 2030 0a2a FFF7FEFF 		bl	__aeabi_fmul
 2031 0a2e 031C     		add	r3, r0, #0
 2032 0a30 7B64     		str	r3, [r7, #68]
 465:Source\TransformFunctions/arm_cfft_f32.c ****         m2 = t4[1] * twR;
 2033              		.loc 1 465 0 discriminator 3
 2034 0a32 0C23     		mov	r3, #12
 2035 0a34 FB18     		add	r3, r7, r3
 2036 0a36 5B68     		ldr	r3, [r3, #4]
 2037 0a38 181C     		add	r0, r3, #0
 2038 0a3a 396D     		ldr	r1, [r7, #80]
 2039 0a3c FFF7FEFF 		bl	__aeabi_fmul
 2040 0a40 031C     		add	r3, r0, #0
 2041 0a42 3B64     		str	r3, [r7, #64]
ARM GAS  C:\Users\fneves\AppData\Local\Temp\ccc6W3UB.s 			page 45


 466:Source\TransformFunctions/arm_cfft_f32.c ****         m3 = t4[0] * twI;
 2042              		.loc 1 466 0 discriminator 3
 2043 0a44 0C23     		mov	r3, #12
 2044 0a46 FB18     		add	r3, r7, r3
 2045 0a48 1B68     		ldr	r3, [r3]
 2046 0a4a 181C     		add	r0, r3, #0
 2047 0a4c F96C     		ldr	r1, [r7, #76]
 2048 0a4e FFF7FEFF 		bl	__aeabi_fmul
 2049 0a52 031C     		add	r3, r0, #0
 2050 0a54 FB63     		str	r3, [r7, #60]
 467:Source\TransformFunctions/arm_cfft_f32.c **** 
 468:Source\TransformFunctions/arm_cfft_f32.c ****         *p4++ = m0 + m1;
 2051              		.loc 1 468 0 discriminator 3
 2052 0a56 8823     		mov	r3, #136
 2053 0a58 FB18     		add	r3, r7, r3
 2054 0a5a 1C68     		ldr	r4, [r3]
 2055 0a5c 231D     		add	r3, r4, #4
 2056 0a5e 8822     		mov	r2, #136
 2057 0a60 BA18     		add	r2, r7, r2
 2058 0a62 1360     		str	r3, [r2]
 2059 0a64 B86C     		ldr	r0, [r7, #72]
 2060 0a66 796C     		ldr	r1, [r7, #68]
 2061 0a68 FFF7FEFF 		bl	__aeabi_fadd
 2062 0a6c 031C     		add	r3, r0, #0
 2063 0a6e 2360     		str	r3, [r4]
 469:Source\TransformFunctions/arm_cfft_f32.c ****         *p4++ = m2 - m3;
 2064              		.loc 1 469 0 discriminator 3
 2065 0a70 8823     		mov	r3, #136
 2066 0a72 FB18     		add	r3, r7, r3
 2067 0a74 1C68     		ldr	r4, [r3]
 2068 0a76 231D     		add	r3, r4, #4
 2069 0a78 8822     		mov	r2, #136
 2070 0a7a BA18     		add	r2, r7, r2
 2071 0a7c 1360     		str	r3, [r2]
 2072 0a7e 386C     		ldr	r0, [r7, #64]
 2073 0a80 F96B     		ldr	r1, [r7, #60]
 2074 0a82 FFF7FEFF 		bl	__aeabi_fsub
 2075 0a86 031C     		add	r3, r0, #0
 2076 0a88 2360     		str	r3, [r4]
 470:Source\TransformFunctions/arm_cfft_f32.c ****         // use vertical symmetry col 4
 471:Source\TransformFunctions/arm_cfft_f32.c ****         // 0.9973 - 0.0736i  <==>  -0.0736 + 0.9973i
 472:Source\TransformFunctions/arm_cfft_f32.c ****         // Bottom
 473:Source\TransformFunctions/arm_cfft_f32.c ****         m0 = t4[3] * twI;
 2077              		.loc 1 473 0 discriminator 3
 2078 0a8a 0C23     		mov	r3, #12
 2079 0a8c FB18     		add	r3, r7, r3
 2080 0a8e DB68     		ldr	r3, [r3, #12]
 2081 0a90 181C     		add	r0, r3, #0
 2082 0a92 F96C     		ldr	r1, [r7, #76]
 2083 0a94 FFF7FEFF 		bl	__aeabi_fmul
 2084 0a98 031C     		add	r3, r0, #0
 2085 0a9a BB64     		str	r3, [r7, #72]
 474:Source\TransformFunctions/arm_cfft_f32.c ****         m1 = t4[2] * twR;
 2086              		.loc 1 474 0 discriminator 3
 2087 0a9c 0C23     		mov	r3, #12
 2088 0a9e FB18     		add	r3, r7, r3
 2089 0aa0 9B68     		ldr	r3, [r3, #8]
ARM GAS  C:\Users\fneves\AppData\Local\Temp\ccc6W3UB.s 			page 46


 2090 0aa2 181C     		add	r0, r3, #0
 2091 0aa4 396D     		ldr	r1, [r7, #80]
 2092 0aa6 FFF7FEFF 		bl	__aeabi_fmul
 2093 0aaa 031C     		add	r3, r0, #0
 2094 0aac 7B64     		str	r3, [r7, #68]
 475:Source\TransformFunctions/arm_cfft_f32.c ****         m2 = t4[2] * twI;
 2095              		.loc 1 475 0 discriminator 3
 2096 0aae 0C23     		mov	r3, #12
 2097 0ab0 FB18     		add	r3, r7, r3
 2098 0ab2 9B68     		ldr	r3, [r3, #8]
 2099 0ab4 181C     		add	r0, r3, #0
 2100 0ab6 F96C     		ldr	r1, [r7, #76]
 2101 0ab8 FFF7FEFF 		bl	__aeabi_fmul
 2102 0abc 031C     		add	r3, r0, #0
 2103 0abe 3B64     		str	r3, [r7, #64]
 476:Source\TransformFunctions/arm_cfft_f32.c ****         m3 = t4[3] * twR;
 2104              		.loc 1 476 0 discriminator 3
 2105 0ac0 0C23     		mov	r3, #12
 2106 0ac2 FB18     		add	r3, r7, r3
 2107 0ac4 DB68     		ldr	r3, [r3, #12]
 2108 0ac6 181C     		add	r0, r3, #0
 2109 0ac8 396D     		ldr	r1, [r7, #80]
 2110 0aca FFF7FEFF 		bl	__aeabi_fmul
 2111 0ace 031C     		add	r3, r0, #0
 2112 0ad0 FB63     		str	r3, [r7, #60]
 477:Source\TransformFunctions/arm_cfft_f32.c **** 
 478:Source\TransformFunctions/arm_cfft_f32.c ****         *pEnd4-- = m0 - m1;
 2113              		.loc 1 478 0 discriminator 3
 2114 0ad2 A023     		mov	r3, #160
 2115 0ad4 FB18     		add	r3, r7, r3
 2116 0ad6 1C68     		ldr	r4, [r3]
 2117 0ad8 231F     		sub	r3, r4, #4
 2118 0ada A022     		mov	r2, #160
 2119 0adc BA18     		add	r2, r7, r2
 2120 0ade 1360     		str	r3, [r2]
 2121 0ae0 B86C     		ldr	r0, [r7, #72]
 2122 0ae2 796C     		ldr	r1, [r7, #68]
 2123 0ae4 FFF7FEFF 		bl	__aeabi_fsub
 2124 0ae8 031C     		add	r3, r0, #0
 2125 0aea 2360     		str	r3, [r4]
 479:Source\TransformFunctions/arm_cfft_f32.c ****         *pEnd4-- = m2 + m3;
 2126              		.loc 1 479 0 discriminator 3
 2127 0aec A023     		mov	r3, #160
 2128 0aee FB18     		add	r3, r7, r3
 2129 0af0 1C68     		ldr	r4, [r3]
 2130 0af2 231F     		sub	r3, r4, #4
 2131 0af4 A022     		mov	r2, #160
 2132 0af6 BA18     		add	r2, r7, r2
 2133 0af8 1360     		str	r3, [r2]
 2134 0afa 386C     		ldr	r0, [r7, #64]
 2135 0afc F96B     		ldr	r1, [r7, #60]
 2136 0afe FFF7FEFF 		bl	__aeabi_fadd
 2137 0b02 031C     		add	r3, r0, #0
 2138 0b04 2360     		str	r3, [r4]
 370:Source\TransformFunctions/arm_cfft_f32.c ****     {
 2139              		.loc 1 370 0 discriminator 3
 2140 0b06 8423     		mov	r3, #132
ARM GAS  C:\Users\fneves\AppData\Local\Temp\ccc6W3UB.s 			page 47


 2141 0b08 FB18     		add	r3, r7, r3
 2142 0b0a 1B68     		ldr	r3, [r3]
 2143 0b0c 013B     		sub	r3, r3, #1
 2144 0b0e 8422     		mov	r2, #132
 2145 0b10 BA18     		add	r2, r7, r2
 2146 0b12 1360     		str	r3, [r2]
 2147              	.L5:
 370:Source\TransformFunctions/arm_cfft_f32.c ****     {
 2148              		.loc 1 370 0 is_stmt 0 discriminator 1
 2149 0b14 8423     		mov	r3, #132
 2150 0b16 FB18     		add	r3, r7, r3
 2151 0b18 1B68     		ldr	r3, [r3]
 2152 0b1a 002B     		cmp	r3, #0
 2153 0b1c 00D0     		beq	.LCB1944
 2154 0b1e 40E4     		b	.L6	@long jump
 2155              	.LCB1944:
 480:Source\TransformFunctions/arm_cfft_f32.c ****     }
 481:Source\TransformFunctions/arm_cfft_f32.c **** 
 482:Source\TransformFunctions/arm_cfft_f32.c ****     //MIDDLE
 483:Source\TransformFunctions/arm_cfft_f32.c ****     // Twiddle factors are
 484:Source\TransformFunctions/arm_cfft_f32.c ****     //  1.0000  0.7071-0.7071i  -1.0000i  -0.7071-0.7071i
 485:Source\TransformFunctions/arm_cfft_f32.c ****     p1ap3_0 = p1[0] + p3[0];
 2156              		.loc 1 485 0 is_stmt 1
 2157 0b20 3B68     		ldr	r3, [r7]
 2158 0b22 1A68     		ldr	r2, [r3]
 2159 0b24 8C23     		mov	r3, #140
 2160 0b26 FB18     		add	r3, r7, r3
 2161 0b28 1B68     		ldr	r3, [r3]
 2162 0b2a 1B68     		ldr	r3, [r3]
 2163 0b2c 101C     		add	r0, r2, #0
 2164 0b2e 191C     		add	r1, r3, #0
 2165 0b30 FFF7FEFF 		bl	__aeabi_fadd
 2166 0b34 031C     		add	r3, r0, #0
 2167 0b36 3B66     		str	r3, [r7, #96]
 486:Source\TransformFunctions/arm_cfft_f32.c ****     p1sp3_0 = p1[0] - p3[0];
 2168              		.loc 1 486 0
 2169 0b38 3B68     		ldr	r3, [r7]
 2170 0b3a 1A68     		ldr	r2, [r3]
 2171 0b3c 8C23     		mov	r3, #140
 2172 0b3e FB18     		add	r3, r7, r3
 2173 0b40 1B68     		ldr	r3, [r3]
 2174 0b42 1B68     		ldr	r3, [r3]
 2175 0b44 101C     		add	r0, r2, #0
 2176 0b46 191C     		add	r1, r3, #0
 2177 0b48 FFF7FEFF 		bl	__aeabi_fsub
 2178 0b4c 031C     		add	r3, r0, #0
 2179 0b4e FB65     		str	r3, [r7, #92]
 487:Source\TransformFunctions/arm_cfft_f32.c ****     p1ap3_1 = p1[1] + p3[1];
 2180              		.loc 1 487 0
 2181 0b50 3B68     		ldr	r3, [r7]
 2182 0b52 0433     		add	r3, r3, #4
 2183 0b54 1A68     		ldr	r2, [r3]
 2184 0b56 8C23     		mov	r3, #140
 2185 0b58 FB18     		add	r3, r7, r3
 2186 0b5a 1B68     		ldr	r3, [r3]
 2187 0b5c 0433     		add	r3, r3, #4
 2188 0b5e 1B68     		ldr	r3, [r3]
ARM GAS  C:\Users\fneves\AppData\Local\Temp\ccc6W3UB.s 			page 48


 2189 0b60 101C     		add	r0, r2, #0
 2190 0b62 191C     		add	r1, r3, #0
 2191 0b64 FFF7FEFF 		bl	__aeabi_fadd
 2192 0b68 031C     		add	r3, r0, #0
 2193 0b6a BB65     		str	r3, [r7, #88]
 488:Source\TransformFunctions/arm_cfft_f32.c ****     p1sp3_1 = p1[1] - p3[1];
 2194              		.loc 1 488 0
 2195 0b6c 3B68     		ldr	r3, [r7]
 2196 0b6e 0433     		add	r3, r3, #4
 2197 0b70 1A68     		ldr	r2, [r3]
 2198 0b72 8C23     		mov	r3, #140
 2199 0b74 FB18     		add	r3, r7, r3
 2200 0b76 1B68     		ldr	r3, [r3]
 2201 0b78 0433     		add	r3, r3, #4
 2202 0b7a 1B68     		ldr	r3, [r3]
 2203 0b7c 101C     		add	r0, r2, #0
 2204 0b7e 191C     		add	r1, r3, #0
 2205 0b80 FFF7FEFF 		bl	__aeabi_fsub
 2206 0b84 031C     		add	r3, r0, #0
 2207 0b86 7B65     		str	r3, [r7, #84]
 489:Source\TransformFunctions/arm_cfft_f32.c **** 
 490:Source\TransformFunctions/arm_cfft_f32.c ****     // col 2
 491:Source\TransformFunctions/arm_cfft_f32.c ****     t2[0] = p1sp3_0 + p2[1] - p4[1];
 2208              		.loc 1 491 0
 2209 0b88 9023     		mov	r3, #144
 2210 0b8a FB18     		add	r3, r7, r3
 2211 0b8c 1B68     		ldr	r3, [r3]
 2212 0b8e 0433     		add	r3, r3, #4
 2213 0b90 1B68     		ldr	r3, [r3]
 2214 0b92 181C     		add	r0, r3, #0
 2215 0b94 F96D     		ldr	r1, [r7, #92]
 2216 0b96 FFF7FEFF 		bl	__aeabi_fadd
 2217 0b9a 031C     		add	r3, r0, #0
 2218 0b9c 1A1C     		add	r2, r3, #0
 2219 0b9e 8823     		mov	r3, #136
 2220 0ba0 FB18     		add	r3, r7, r3
 2221 0ba2 1B68     		ldr	r3, [r3]
 2222 0ba4 0433     		add	r3, r3, #4
 2223 0ba6 1B68     		ldr	r3, [r3]
 2224 0ba8 101C     		add	r0, r2, #0
 2225 0baa 191C     		add	r1, r3, #0
 2226 0bac FFF7FEFF 		bl	__aeabi_fsub
 2227 0bb0 031C     		add	r3, r0, #0
 2228 0bb2 1A1C     		add	r2, r3, #0
 2229 0bb4 2C23     		mov	r3, #44
 2230 0bb6 FB18     		add	r3, r7, r3
 2231 0bb8 1A60     		str	r2, [r3]
 492:Source\TransformFunctions/arm_cfft_f32.c ****     t2[1] = p1sp3_1 - p2[0] + p4[0];
 2232              		.loc 1 492 0
 2233 0bba 9023     		mov	r3, #144
 2234 0bbc FB18     		add	r3, r7, r3
 2235 0bbe 1B68     		ldr	r3, [r3]
 2236 0bc0 1B68     		ldr	r3, [r3]
 2237 0bc2 786D     		ldr	r0, [r7, #84]
 2238 0bc4 191C     		add	r1, r3, #0
 2239 0bc6 FFF7FEFF 		bl	__aeabi_fsub
 2240 0bca 031C     		add	r3, r0, #0
ARM GAS  C:\Users\fneves\AppData\Local\Temp\ccc6W3UB.s 			page 49


 2241 0bcc 1A1C     		add	r2, r3, #0
 2242 0bce 8823     		mov	r3, #136
 2243 0bd0 FB18     		add	r3, r7, r3
 2244 0bd2 1B68     		ldr	r3, [r3]
 2245 0bd4 1B68     		ldr	r3, [r3]
 2246 0bd6 101C     		add	r0, r2, #0
 2247 0bd8 191C     		add	r1, r3, #0
 2248 0bda FFF7FEFF 		bl	__aeabi_fadd
 2249 0bde 031C     		add	r3, r0, #0
 2250 0be0 1A1C     		add	r2, r3, #0
 2251 0be2 2C23     		mov	r3, #44
 2252 0be4 FB18     		add	r3, r7, r3
 2253 0be6 5A60     		str	r2, [r3, #4]
 493:Source\TransformFunctions/arm_cfft_f32.c ****     // col 3
 494:Source\TransformFunctions/arm_cfft_f32.c ****     t3[0] = p1ap3_0 - p2[0] - p4[0];
 2254              		.loc 1 494 0
 2255 0be8 9023     		mov	r3, #144
 2256 0bea FB18     		add	r3, r7, r3
 2257 0bec 1B68     		ldr	r3, [r3]
 2258 0bee 1B68     		ldr	r3, [r3]
 2259 0bf0 386E     		ldr	r0, [r7, #96]
 2260 0bf2 191C     		add	r1, r3, #0
 2261 0bf4 FFF7FEFF 		bl	__aeabi_fsub
 2262 0bf8 031C     		add	r3, r0, #0
 2263 0bfa 1A1C     		add	r2, r3, #0
 2264 0bfc 8823     		mov	r3, #136
 2265 0bfe FB18     		add	r3, r7, r3
 2266 0c00 1B68     		ldr	r3, [r3]
 2267 0c02 1B68     		ldr	r3, [r3]
 2268 0c04 101C     		add	r0, r2, #0
 2269 0c06 191C     		add	r1, r3, #0
 2270 0c08 FFF7FEFF 		bl	__aeabi_fsub
 2271 0c0c 031C     		add	r3, r0, #0
 2272 0c0e 1A1C     		add	r2, r3, #0
 2273 0c10 1C23     		mov	r3, #28
 2274 0c12 FB18     		add	r3, r7, r3
 2275 0c14 1A60     		str	r2, [r3]
 495:Source\TransformFunctions/arm_cfft_f32.c ****     t3[1] = p1ap3_1 - p2[1] - p4[1];
 2276              		.loc 1 495 0
 2277 0c16 9023     		mov	r3, #144
 2278 0c18 FB18     		add	r3, r7, r3
 2279 0c1a 1B68     		ldr	r3, [r3]
 2280 0c1c 0433     		add	r3, r3, #4
 2281 0c1e 1B68     		ldr	r3, [r3]
 2282 0c20 B86D     		ldr	r0, [r7, #88]
 2283 0c22 191C     		add	r1, r3, #0
 2284 0c24 FFF7FEFF 		bl	__aeabi_fsub
 2285 0c28 031C     		add	r3, r0, #0
 2286 0c2a 1A1C     		add	r2, r3, #0
 2287 0c2c 8823     		mov	r3, #136
 2288 0c2e FB18     		add	r3, r7, r3
 2289 0c30 1B68     		ldr	r3, [r3]
 2290 0c32 0433     		add	r3, r3, #4
 2291 0c34 1B68     		ldr	r3, [r3]
 2292 0c36 101C     		add	r0, r2, #0
 2293 0c38 191C     		add	r1, r3, #0
 2294 0c3a FFF7FEFF 		bl	__aeabi_fsub
ARM GAS  C:\Users\fneves\AppData\Local\Temp\ccc6W3UB.s 			page 50


 2295 0c3e 031C     		add	r3, r0, #0
 2296 0c40 1A1C     		add	r2, r3, #0
 2297 0c42 1C23     		mov	r3, #28
 2298 0c44 FB18     		add	r3, r7, r3
 2299 0c46 5A60     		str	r2, [r3, #4]
 496:Source\TransformFunctions/arm_cfft_f32.c ****     // col 4
 497:Source\TransformFunctions/arm_cfft_f32.c ****     t4[0] = p1sp3_0 - p2[1] + p4[1];
 2300              		.loc 1 497 0
 2301 0c48 9023     		mov	r3, #144
 2302 0c4a FB18     		add	r3, r7, r3
 2303 0c4c 1B68     		ldr	r3, [r3]
 2304 0c4e 0433     		add	r3, r3, #4
 2305 0c50 1B68     		ldr	r3, [r3]
 2306 0c52 F86D     		ldr	r0, [r7, #92]
 2307 0c54 191C     		add	r1, r3, #0
 2308 0c56 FFF7FEFF 		bl	__aeabi_fsub
 2309 0c5a 031C     		add	r3, r0, #0
 2310 0c5c 1A1C     		add	r2, r3, #0
 2311 0c5e 8823     		mov	r3, #136
 2312 0c60 FB18     		add	r3, r7, r3
 2313 0c62 1B68     		ldr	r3, [r3]
 2314 0c64 0433     		add	r3, r3, #4
 2315 0c66 1B68     		ldr	r3, [r3]
 2316 0c68 101C     		add	r0, r2, #0
 2317 0c6a 191C     		add	r1, r3, #0
 2318 0c6c FFF7FEFF 		bl	__aeabi_fadd
 2319 0c70 031C     		add	r3, r0, #0
 2320 0c72 1A1C     		add	r2, r3, #0
 2321 0c74 0C23     		mov	r3, #12
 2322 0c76 FB18     		add	r3, r7, r3
 2323 0c78 1A60     		str	r2, [r3]
 498:Source\TransformFunctions/arm_cfft_f32.c ****     t4[1] = p1sp3_1 + p2[0] - p4[0];
 2324              		.loc 1 498 0
 2325 0c7a 9023     		mov	r3, #144
 2326 0c7c FB18     		add	r3, r7, r3
 2327 0c7e 1B68     		ldr	r3, [r3]
 2328 0c80 1B68     		ldr	r3, [r3]
 2329 0c82 181C     		add	r0, r3, #0
 2330 0c84 796D     		ldr	r1, [r7, #84]
 2331 0c86 FFF7FEFF 		bl	__aeabi_fadd
 2332 0c8a 031C     		add	r3, r0, #0
 2333 0c8c 1A1C     		add	r2, r3, #0
 2334 0c8e 8823     		mov	r3, #136
 2335 0c90 FB18     		add	r3, r7, r3
 2336 0c92 1B68     		ldr	r3, [r3]
 2337 0c94 1B68     		ldr	r3, [r3]
 2338 0c96 101C     		add	r0, r2, #0
 2339 0c98 191C     		add	r1, r3, #0
 2340 0c9a FFF7FEFF 		bl	__aeabi_fsub
 2341 0c9e 031C     		add	r3, r0, #0
 2342 0ca0 1A1C     		add	r2, r3, #0
 2343 0ca2 0C23     		mov	r3, #12
 2344 0ca4 FB18     		add	r3, r7, r3
 2345 0ca6 5A60     		str	r2, [r3, #4]
 499:Source\TransformFunctions/arm_cfft_f32.c ****     // col 1 - Top
 500:Source\TransformFunctions/arm_cfft_f32.c ****     *p1++ = p1ap3_0 + p2[0] + p4[0];
 2346              		.loc 1 500 0
ARM GAS  C:\Users\fneves\AppData\Local\Temp\ccc6W3UB.s 			page 51


 2347 0ca8 3C68     		ldr	r4, [r7]
 2348 0caa 231D     		add	r3, r4, #4
 2349 0cac 3B60     		str	r3, [r7]
 2350 0cae 9023     		mov	r3, #144
 2351 0cb0 FB18     		add	r3, r7, r3
 2352 0cb2 1B68     		ldr	r3, [r3]
 2353 0cb4 1B68     		ldr	r3, [r3]
 2354 0cb6 181C     		add	r0, r3, #0
 2355 0cb8 396E     		ldr	r1, [r7, #96]
 2356 0cba FFF7FEFF 		bl	__aeabi_fadd
 2357 0cbe 031C     		add	r3, r0, #0
 2358 0cc0 1A1C     		add	r2, r3, #0
 2359 0cc2 8823     		mov	r3, #136
 2360 0cc4 FB18     		add	r3, r7, r3
 2361 0cc6 1B68     		ldr	r3, [r3]
 2362 0cc8 1B68     		ldr	r3, [r3]
 2363 0cca 101C     		add	r0, r2, #0
 2364 0ccc 191C     		add	r1, r3, #0
 2365 0cce FFF7FEFF 		bl	__aeabi_fadd
 2366 0cd2 031C     		add	r3, r0, #0
 2367 0cd4 2360     		str	r3, [r4]
 501:Source\TransformFunctions/arm_cfft_f32.c ****     *p1++ = p1ap3_1 + p2[1] + p4[1];
 2368              		.loc 1 501 0
 2369 0cd6 3C68     		ldr	r4, [r7]
 2370 0cd8 231D     		add	r3, r4, #4
 2371 0cda 3B60     		str	r3, [r7]
 2372 0cdc 9023     		mov	r3, #144
 2373 0cde FB18     		add	r3, r7, r3
 2374 0ce0 1B68     		ldr	r3, [r3]
 2375 0ce2 0433     		add	r3, r3, #4
 2376 0ce4 1B68     		ldr	r3, [r3]
 2377 0ce6 181C     		add	r0, r3, #0
 2378 0ce8 B96D     		ldr	r1, [r7, #88]
 2379 0cea FFF7FEFF 		bl	__aeabi_fadd
 2380 0cee 031C     		add	r3, r0, #0
 2381 0cf0 1A1C     		add	r2, r3, #0
 2382 0cf2 8823     		mov	r3, #136
 2383 0cf4 FB18     		add	r3, r7, r3
 2384 0cf6 1B68     		ldr	r3, [r3]
 2385 0cf8 0433     		add	r3, r3, #4
 2386 0cfa 1B68     		ldr	r3, [r3]
 2387 0cfc 101C     		add	r0, r2, #0
 2388 0cfe 191C     		add	r1, r3, #0
 2389 0d00 FFF7FEFF 		bl	__aeabi_fadd
 2390 0d04 031C     		add	r3, r0, #0
 2391 0d06 2360     		str	r3, [r4]
 502:Source\TransformFunctions/arm_cfft_f32.c **** 
 503:Source\TransformFunctions/arm_cfft_f32.c ****     // COL 2
 504:Source\TransformFunctions/arm_cfft_f32.c ****     twR = tw2[0];
 2392              		.loc 1 504 0
 2393 0d08 9C23     		mov	r3, #156
 2394 0d0a FB18     		add	r3, r7, r3
 2395 0d0c 1B68     		ldr	r3, [r3]
 2396 0d0e 1B68     		ldr	r3, [r3]
 2397 0d10 3B65     		str	r3, [r7, #80]
 505:Source\TransformFunctions/arm_cfft_f32.c ****     twI = tw2[1];
 2398              		.loc 1 505 0
ARM GAS  C:\Users\fneves\AppData\Local\Temp\ccc6W3UB.s 			page 52


 2399 0d12 9C23     		mov	r3, #156
 2400 0d14 FB18     		add	r3, r7, r3
 2401 0d16 1B68     		ldr	r3, [r3]
 2402 0d18 5B68     		ldr	r3, [r3, #4]
 2403 0d1a FB64     		str	r3, [r7, #76]
 506:Source\TransformFunctions/arm_cfft_f32.c **** 
 507:Source\TransformFunctions/arm_cfft_f32.c ****     m0 = t2[0] * twR;
 2404              		.loc 1 507 0
 2405 0d1c 2C23     		mov	r3, #44
 2406 0d1e FB18     		add	r3, r7, r3
 2407 0d20 1B68     		ldr	r3, [r3]
 2408 0d22 181C     		add	r0, r3, #0
 2409 0d24 396D     		ldr	r1, [r7, #80]
 2410 0d26 FFF7FEFF 		bl	__aeabi_fmul
 2411 0d2a 031C     		add	r3, r0, #0
 2412 0d2c BB64     		str	r3, [r7, #72]
 508:Source\TransformFunctions/arm_cfft_f32.c ****     m1 = t2[1] * twI;
 2413              		.loc 1 508 0
 2414 0d2e 2C23     		mov	r3, #44
 2415 0d30 FB18     		add	r3, r7, r3
 2416 0d32 5B68     		ldr	r3, [r3, #4]
 2417 0d34 181C     		add	r0, r3, #0
 2418 0d36 F96C     		ldr	r1, [r7, #76]
 2419 0d38 FFF7FEFF 		bl	__aeabi_fmul
 2420 0d3c 031C     		add	r3, r0, #0
 2421 0d3e 7B64     		str	r3, [r7, #68]
 509:Source\TransformFunctions/arm_cfft_f32.c ****     m2 = t2[1] * twR;
 2422              		.loc 1 509 0
 2423 0d40 2C23     		mov	r3, #44
 2424 0d42 FB18     		add	r3, r7, r3
 2425 0d44 5B68     		ldr	r3, [r3, #4]
 2426 0d46 181C     		add	r0, r3, #0
 2427 0d48 396D     		ldr	r1, [r7, #80]
 2428 0d4a FFF7FEFF 		bl	__aeabi_fmul
 2429 0d4e 031C     		add	r3, r0, #0
 2430 0d50 3B64     		str	r3, [r7, #64]
 510:Source\TransformFunctions/arm_cfft_f32.c ****     m3 = t2[0] * twI;
 2431              		.loc 1 510 0
 2432 0d52 2C23     		mov	r3, #44
 2433 0d54 FB18     		add	r3, r7, r3
 2434 0d56 1B68     		ldr	r3, [r3]
 2435 0d58 181C     		add	r0, r3, #0
 2436 0d5a F96C     		ldr	r1, [r7, #76]
 2437 0d5c FFF7FEFF 		bl	__aeabi_fmul
 2438 0d60 031C     		add	r3, r0, #0
 2439 0d62 FB63     		str	r3, [r7, #60]
 511:Source\TransformFunctions/arm_cfft_f32.c **** 
 512:Source\TransformFunctions/arm_cfft_f32.c ****     *p2++ = m0 + m1;
 2440              		.loc 1 512 0
 2441 0d64 9023     		mov	r3, #144
 2442 0d66 FB18     		add	r3, r7, r3
 2443 0d68 1C68     		ldr	r4, [r3]
 2444 0d6a 231D     		add	r3, r4, #4
 2445 0d6c 9022     		mov	r2, #144
 2446 0d6e BA18     		add	r2, r7, r2
 2447 0d70 1360     		str	r3, [r2]
 2448 0d72 B86C     		ldr	r0, [r7, #72]
ARM GAS  C:\Users\fneves\AppData\Local\Temp\ccc6W3UB.s 			page 53


 2449 0d74 796C     		ldr	r1, [r7, #68]
 2450 0d76 FFF7FEFF 		bl	__aeabi_fadd
 2451 0d7a 031C     		add	r3, r0, #0
 2452 0d7c 2360     		str	r3, [r4]
 513:Source\TransformFunctions/arm_cfft_f32.c ****     *p2++ = m2 - m3;
 2453              		.loc 1 513 0
 2454 0d7e 9023     		mov	r3, #144
 2455 0d80 FB18     		add	r3, r7, r3
 2456 0d82 1C68     		ldr	r4, [r3]
 2457 0d84 231D     		add	r3, r4, #4
 2458 0d86 9022     		mov	r2, #144
 2459 0d88 BA18     		add	r2, r7, r2
 2460 0d8a 1360     		str	r3, [r2]
 2461 0d8c 386C     		ldr	r0, [r7, #64]
 2462 0d8e F96B     		ldr	r1, [r7, #60]
 2463 0d90 FFF7FEFF 		bl	__aeabi_fsub
 2464 0d94 031C     		add	r3, r0, #0
 2465 0d96 2360     		str	r3, [r4]
 514:Source\TransformFunctions/arm_cfft_f32.c ****     // COL 3
 515:Source\TransformFunctions/arm_cfft_f32.c ****     twR = tw3[0];
 2466              		.loc 1 515 0
 2467 0d98 9823     		mov	r3, #152
 2468 0d9a FB18     		add	r3, r7, r3
 2469 0d9c 1B68     		ldr	r3, [r3]
 2470 0d9e 1B68     		ldr	r3, [r3]
 2471 0da0 3B65     		str	r3, [r7, #80]
 516:Source\TransformFunctions/arm_cfft_f32.c ****     twI = tw3[1];
 2472              		.loc 1 516 0
 2473 0da2 9823     		mov	r3, #152
 2474 0da4 FB18     		add	r3, r7, r3
 2475 0da6 1B68     		ldr	r3, [r3]
 2476 0da8 5B68     		ldr	r3, [r3, #4]
 2477 0daa FB64     		str	r3, [r7, #76]
 517:Source\TransformFunctions/arm_cfft_f32.c **** 
 518:Source\TransformFunctions/arm_cfft_f32.c ****     m0 = t3[0] * twR;
 2478              		.loc 1 518 0
 2479 0dac 1C23     		mov	r3, #28
 2480 0dae FB18     		add	r3, r7, r3
 2481 0db0 1B68     		ldr	r3, [r3]
 2482 0db2 181C     		add	r0, r3, #0
 2483 0db4 396D     		ldr	r1, [r7, #80]
 2484 0db6 FFF7FEFF 		bl	__aeabi_fmul
 2485 0dba 031C     		add	r3, r0, #0
 2486 0dbc BB64     		str	r3, [r7, #72]
 519:Source\TransformFunctions/arm_cfft_f32.c ****     m1 = t3[1] * twI;
 2487              		.loc 1 519 0
 2488 0dbe 1C23     		mov	r3, #28
 2489 0dc0 FB18     		add	r3, r7, r3
 2490 0dc2 5B68     		ldr	r3, [r3, #4]
 2491 0dc4 181C     		add	r0, r3, #0
 2492 0dc6 F96C     		ldr	r1, [r7, #76]
 2493 0dc8 FFF7FEFF 		bl	__aeabi_fmul
 2494 0dcc 031C     		add	r3, r0, #0
 2495 0dce 7B64     		str	r3, [r7, #68]
 520:Source\TransformFunctions/arm_cfft_f32.c ****     m2 = t3[1] * twR;
 2496              		.loc 1 520 0
 2497 0dd0 1C23     		mov	r3, #28
ARM GAS  C:\Users\fneves\AppData\Local\Temp\ccc6W3UB.s 			page 54


 2498 0dd2 FB18     		add	r3, r7, r3
 2499 0dd4 5B68     		ldr	r3, [r3, #4]
 2500 0dd6 181C     		add	r0, r3, #0
 2501 0dd8 396D     		ldr	r1, [r7, #80]
 2502 0dda FFF7FEFF 		bl	__aeabi_fmul
 2503 0dde 031C     		add	r3, r0, #0
 2504 0de0 3B64     		str	r3, [r7, #64]
 521:Source\TransformFunctions/arm_cfft_f32.c ****     m3 = t3[0] * twI;
 2505              		.loc 1 521 0
 2506 0de2 1C23     		mov	r3, #28
 2507 0de4 FB18     		add	r3, r7, r3
 2508 0de6 1B68     		ldr	r3, [r3]
 2509 0de8 181C     		add	r0, r3, #0
 2510 0dea F96C     		ldr	r1, [r7, #76]
 2511 0dec FFF7FEFF 		bl	__aeabi_fmul
 2512 0df0 031C     		add	r3, r0, #0
 2513 0df2 FB63     		str	r3, [r7, #60]
 522:Source\TransformFunctions/arm_cfft_f32.c **** 
 523:Source\TransformFunctions/arm_cfft_f32.c ****     *p3++ = m0 + m1;
 2514              		.loc 1 523 0
 2515 0df4 8C23     		mov	r3, #140
 2516 0df6 FB18     		add	r3, r7, r3
 2517 0df8 1C68     		ldr	r4, [r3]
 2518 0dfa 231D     		add	r3, r4, #4
 2519 0dfc 8C22     		mov	r2, #140
 2520 0dfe BA18     		add	r2, r7, r2
 2521 0e00 1360     		str	r3, [r2]
 2522 0e02 B86C     		ldr	r0, [r7, #72]
 2523 0e04 796C     		ldr	r1, [r7, #68]
 2524 0e06 FFF7FEFF 		bl	__aeabi_fadd
 2525 0e0a 031C     		add	r3, r0, #0
 2526 0e0c 2360     		str	r3, [r4]
 524:Source\TransformFunctions/arm_cfft_f32.c ****     *p3++ = m2 - m3;
 2527              		.loc 1 524 0
 2528 0e0e 8C23     		mov	r3, #140
 2529 0e10 FB18     		add	r3, r7, r3
 2530 0e12 1C68     		ldr	r4, [r3]
 2531 0e14 231D     		add	r3, r4, #4
 2532 0e16 8C22     		mov	r2, #140
 2533 0e18 BA18     		add	r2, r7, r2
 2534 0e1a 1360     		str	r3, [r2]
 2535 0e1c 386C     		ldr	r0, [r7, #64]
 2536 0e1e F96B     		ldr	r1, [r7, #60]
 2537 0e20 FFF7FEFF 		bl	__aeabi_fsub
 2538 0e24 031C     		add	r3, r0, #0
 2539 0e26 2360     		str	r3, [r4]
 525:Source\TransformFunctions/arm_cfft_f32.c ****     // COL 4
 526:Source\TransformFunctions/arm_cfft_f32.c ****     twR = tw4[0];
 2540              		.loc 1 526 0
 2541 0e28 9423     		mov	r3, #148
 2542 0e2a FB18     		add	r3, r7, r3
 2543 0e2c 1B68     		ldr	r3, [r3]
 2544 0e2e 1B68     		ldr	r3, [r3]
 2545 0e30 3B65     		str	r3, [r7, #80]
 527:Source\TransformFunctions/arm_cfft_f32.c ****     twI = tw4[1];
 2546              		.loc 1 527 0
 2547 0e32 9423     		mov	r3, #148
ARM GAS  C:\Users\fneves\AppData\Local\Temp\ccc6W3UB.s 			page 55


 2548 0e34 FB18     		add	r3, r7, r3
 2549 0e36 1B68     		ldr	r3, [r3]
 2550 0e38 5B68     		ldr	r3, [r3, #4]
 2551 0e3a FB64     		str	r3, [r7, #76]
 528:Source\TransformFunctions/arm_cfft_f32.c **** 
 529:Source\TransformFunctions/arm_cfft_f32.c ****     m0 = t4[0] * twR;
 2552              		.loc 1 529 0
 2553 0e3c 0C23     		mov	r3, #12
 2554 0e3e FB18     		add	r3, r7, r3
 2555 0e40 1B68     		ldr	r3, [r3]
 2556 0e42 181C     		add	r0, r3, #0
 2557 0e44 396D     		ldr	r1, [r7, #80]
 2558 0e46 FFF7FEFF 		bl	__aeabi_fmul
 2559 0e4a 031C     		add	r3, r0, #0
 2560 0e4c BB64     		str	r3, [r7, #72]
 530:Source\TransformFunctions/arm_cfft_f32.c ****     m1 = t4[1] * twI;
 2561              		.loc 1 530 0
 2562 0e4e 0C23     		mov	r3, #12
 2563 0e50 FB18     		add	r3, r7, r3
 2564 0e52 5B68     		ldr	r3, [r3, #4]
 2565 0e54 181C     		add	r0, r3, #0
 2566 0e56 F96C     		ldr	r1, [r7, #76]
 2567 0e58 FFF7FEFF 		bl	__aeabi_fmul
 2568 0e5c 031C     		add	r3, r0, #0
 2569 0e5e 7B64     		str	r3, [r7, #68]
 531:Source\TransformFunctions/arm_cfft_f32.c ****     m2 = t4[1] * twR;
 2570              		.loc 1 531 0
 2571 0e60 0C23     		mov	r3, #12
 2572 0e62 FB18     		add	r3, r7, r3
 2573 0e64 5B68     		ldr	r3, [r3, #4]
 2574 0e66 181C     		add	r0, r3, #0
 2575 0e68 396D     		ldr	r1, [r7, #80]
 2576 0e6a FFF7FEFF 		bl	__aeabi_fmul
 2577 0e6e 031C     		add	r3, r0, #0
 2578 0e70 3B64     		str	r3, [r7, #64]
 532:Source\TransformFunctions/arm_cfft_f32.c ****     m3 = t4[0] * twI;
 2579              		.loc 1 532 0
 2580 0e72 0C23     		mov	r3, #12
 2581 0e74 FB18     		add	r3, r7, r3
 2582 0e76 1B68     		ldr	r3, [r3]
 2583 0e78 181C     		add	r0, r3, #0
 2584 0e7a F96C     		ldr	r1, [r7, #76]
 2585 0e7c FFF7FEFF 		bl	__aeabi_fmul
 2586 0e80 031C     		add	r3, r0, #0
 2587 0e82 FB63     		str	r3, [r7, #60]
 533:Source\TransformFunctions/arm_cfft_f32.c **** 
 534:Source\TransformFunctions/arm_cfft_f32.c ****     *p4++ = m0 + m1;
 2588              		.loc 1 534 0
 2589 0e84 8823     		mov	r3, #136
 2590 0e86 FB18     		add	r3, r7, r3
 2591 0e88 1C68     		ldr	r4, [r3]
 2592 0e8a 231D     		add	r3, r4, #4
 2593 0e8c 8822     		mov	r2, #136
 2594 0e8e BA18     		add	r2, r7, r2
 2595 0e90 1360     		str	r3, [r2]
 2596 0e92 B86C     		ldr	r0, [r7, #72]
 2597 0e94 796C     		ldr	r1, [r7, #68]
ARM GAS  C:\Users\fneves\AppData\Local\Temp\ccc6W3UB.s 			page 56


 2598 0e96 FFF7FEFF 		bl	__aeabi_fadd
 2599 0e9a 031C     		add	r3, r0, #0
 2600 0e9c 2360     		str	r3, [r4]
 535:Source\TransformFunctions/arm_cfft_f32.c ****     *p4++ = m2 - m3;
 2601              		.loc 1 535 0
 2602 0e9e 8823     		mov	r3, #136
 2603 0ea0 FB18     		add	r3, r7, r3
 2604 0ea2 1C68     		ldr	r4, [r3]
 2605 0ea4 231D     		add	r3, r4, #4
 2606 0ea6 8822     		mov	r2, #136
 2607 0ea8 BA18     		add	r2, r7, r2
 2608 0eaa 1360     		str	r3, [r2]
 2609 0eac 386C     		ldr	r0, [r7, #64]
 2610 0eae F96B     		ldr	r1, [r7, #60]
 2611 0eb0 FFF7FEFF 		bl	__aeabi_fsub
 2612 0eb4 031C     		add	r3, r0, #0
 2613 0eb6 2360     		str	r3, [r4]
 536:Source\TransformFunctions/arm_cfft_f32.c **** 
 537:Source\TransformFunctions/arm_cfft_f32.c ****     // first col
 538:Source\TransformFunctions/arm_cfft_f32.c ****     arm_radix8_butterfly_f32( pCol1, L, (float32_t *) S->pTwiddle, 4u);
 2614              		.loc 1 538 0
 2615 0eb8 8023     		mov	r3, #128
 2616 0eba FB18     		add	r3, r7, r3
 2617 0ebc 1B68     		ldr	r3, [r3]
 2618 0ebe 9AB2     		uxth	r2, r3
 2619 0ec0 7B68     		ldr	r3, [r7, #4]
 2620 0ec2 5B68     		ldr	r3, [r3, #4]
 2621 0ec4 F96F     		ldr	r1, [r7, #124]
 2622 0ec6 081C     		mov	r0, r1
 2623 0ec8 111C     		mov	r1, r2
 2624 0eca 1A1C     		mov	r2, r3
 2625 0ecc 0423     		mov	r3, #4
 2626 0ece FFF7FEFF 		bl	arm_radix8_butterfly_f32
 539:Source\TransformFunctions/arm_cfft_f32.c ****     // second col
 540:Source\TransformFunctions/arm_cfft_f32.c ****     arm_radix8_butterfly_f32( pCol2, L, (float32_t *) S->pTwiddle, 4u);
 2627              		.loc 1 540 0
 2628 0ed2 8023     		mov	r3, #128
 2629 0ed4 FB18     		add	r3, r7, r3
 2630 0ed6 1B68     		ldr	r3, [r3]
 2631 0ed8 9AB2     		uxth	r2, r3
 2632 0eda 7B68     		ldr	r3, [r7, #4]
 2633 0edc 5B68     		ldr	r3, [r3, #4]
 2634 0ede B96F     		ldr	r1, [r7, #120]
 2635 0ee0 081C     		mov	r0, r1
 2636 0ee2 111C     		mov	r1, r2
 2637 0ee4 1A1C     		mov	r2, r3
 2638 0ee6 0423     		mov	r3, #4
 2639 0ee8 FFF7FEFF 		bl	arm_radix8_butterfly_f32
 541:Source\TransformFunctions/arm_cfft_f32.c ****     // third col
 542:Source\TransformFunctions/arm_cfft_f32.c ****     arm_radix8_butterfly_f32( pCol3, L, (float32_t *) S->pTwiddle, 4u);
 2640              		.loc 1 542 0
 2641 0eec 8023     		mov	r3, #128
 2642 0eee FB18     		add	r3, r7, r3
 2643 0ef0 1B68     		ldr	r3, [r3]
 2644 0ef2 9AB2     		uxth	r2, r3
 2645 0ef4 7B68     		ldr	r3, [r7, #4]
 2646 0ef6 5B68     		ldr	r3, [r3, #4]
ARM GAS  C:\Users\fneves\AppData\Local\Temp\ccc6W3UB.s 			page 57


 2647 0ef8 796F     		ldr	r1, [r7, #116]
 2648 0efa 081C     		mov	r0, r1
 2649 0efc 111C     		mov	r1, r2
 2650 0efe 1A1C     		mov	r2, r3
 2651 0f00 0423     		mov	r3, #4
 2652 0f02 FFF7FEFF 		bl	arm_radix8_butterfly_f32
 543:Source\TransformFunctions/arm_cfft_f32.c ****     // fourth col
 544:Source\TransformFunctions/arm_cfft_f32.c ****     arm_radix8_butterfly_f32( pCol4, L, (float32_t *) S->pTwiddle, 4u);
 2653              		.loc 1 544 0
 2654 0f06 8023     		mov	r3, #128
 2655 0f08 FB18     		add	r3, r7, r3
 2656 0f0a 1B68     		ldr	r3, [r3]
 2657 0f0c 9AB2     		uxth	r2, r3
 2658 0f0e 7B68     		ldr	r3, [r7, #4]
 2659 0f10 5B68     		ldr	r3, [r3, #4]
 2660 0f12 396F     		ldr	r1, [r7, #112]
 2661 0f14 081C     		mov	r0, r1
 2662 0f16 111C     		mov	r1, r2
 2663 0f18 1A1C     		mov	r2, r3
 2664 0f1a 0423     		mov	r3, #4
 2665 0f1c FFF7FEFF 		bl	arm_radix8_butterfly_f32
 545:Source\TransformFunctions/arm_cfft_f32.c **** }
 2666              		.loc 1 545 0
 2667 0f20 BD46     		mov	sp, r7
 2668 0f22 2DB0     		add	sp, sp, #180
 2669              		@ sp needed
 2670 0f24 90BD     		pop	{r4, r7, pc}
 2671              		.cfi_endproc
 2672              	.LFE83:
 2673              		.size	arm_cfft_radix8by4_f32, .-arm_cfft_radix8by4_f32
 2674              		.global	__aeabi_ui2f
 2675              		.global	__aeabi_fdiv
 2676 0f26 C046     		.section	.text.arm_cfft_f32,"ax",%progbits
 2677              		.align	2
 2678              		.global	arm_cfft_f32
 2679              		.code	16
 2680              		.thumb_func
 2681              		.type	arm_cfft_f32, %function
 2682              	arm_cfft_f32:
 2683              	.LFB84:
 546:Source\TransformFunctions/arm_cfft_f32.c **** 
 547:Source\TransformFunctions/arm_cfft_f32.c **** /**
 548:Source\TransformFunctions/arm_cfft_f32.c **** * @addtogroup ComplexFFT
 549:Source\TransformFunctions/arm_cfft_f32.c **** * @{
 550:Source\TransformFunctions/arm_cfft_f32.c **** */
 551:Source\TransformFunctions/arm_cfft_f32.c **** 
 552:Source\TransformFunctions/arm_cfft_f32.c **** /**
 553:Source\TransformFunctions/arm_cfft_f32.c **** * @details
 554:Source\TransformFunctions/arm_cfft_f32.c **** * @brief       Processing function for the floating-point complex FFT.
 555:Source\TransformFunctions/arm_cfft_f32.c **** * @param[in]      *S    points to an instance of the floating-point CFFT structure.
 556:Source\TransformFunctions/arm_cfft_f32.c **** * @param[in, out] *p1   points to the complex data buffer of size <code>2*fftLen</code>. Processing
 557:Source\TransformFunctions/arm_cfft_f32.c **** * @param[in]     ifftFlag       flag that selects forward (ifftFlag=0) or inverse (ifftFlag=1) tran
 558:Source\TransformFunctions/arm_cfft_f32.c **** * @param[in]     bitReverseFlag flag that enables (bitReverseFlag=1) or disables (bitReverseFlag=0)
 559:Source\TransformFunctions/arm_cfft_f32.c **** * @return none.
 560:Source\TransformFunctions/arm_cfft_f32.c **** */
 561:Source\TransformFunctions/arm_cfft_f32.c **** 
 562:Source\TransformFunctions/arm_cfft_f32.c **** void arm_cfft_f32(
ARM GAS  C:\Users\fneves\AppData\Local\Temp\ccc6W3UB.s 			page 58


 563:Source\TransformFunctions/arm_cfft_f32.c ****     const arm_cfft_instance_f32 * S,
 564:Source\TransformFunctions/arm_cfft_f32.c ****     float32_t * p1,
 565:Source\TransformFunctions/arm_cfft_f32.c ****     uint8_t ifftFlag,
 566:Source\TransformFunctions/arm_cfft_f32.c ****     uint8_t bitReverseFlag)
 567:Source\TransformFunctions/arm_cfft_f32.c **** {
 2684              		.loc 1 567 0
 2685              		.cfi_startproc
 2686 0000 90B5     		push	{r4, r7, lr}
 2687              		.cfi_def_cfa_offset 12
 2688              		.cfi_offset 4, -12
 2689              		.cfi_offset 7, -8
 2690              		.cfi_offset 14, -4
 2691 0002 89B0     		sub	sp, sp, #36
 2692              		.cfi_def_cfa_offset 48
 2693 0004 00AF     		add	r7, sp, #0
 2694              		.cfi_def_cfa_register 7
 2695 0006 F860     		str	r0, [r7, #12]
 2696 0008 B960     		str	r1, [r7, #8]
 2697 000a 191C     		mov	r1, r3
 2698 000c FB1D     		add	r3, r7, #7
 2699 000e 1A70     		strb	r2, [r3]
 2700 0010 BB1D     		add	r3, r7, #6
 2701 0012 0A1C     		add	r2, r1, #0
 2702 0014 1A70     		strb	r2, [r3]
 568:Source\TransformFunctions/arm_cfft_f32.c ****     uint32_t  L = S->fftLen, l;
 2703              		.loc 1 568 0
 2704 0016 FB68     		ldr	r3, [r7, #12]
 2705 0018 1B88     		ldrh	r3, [r3]
 2706 001a 7B61     		str	r3, [r7, #20]
 569:Source\TransformFunctions/arm_cfft_f32.c ****     float32_t invL, * pSrc;
 570:Source\TransformFunctions/arm_cfft_f32.c **** 
 571:Source\TransformFunctions/arm_cfft_f32.c ****     if (ifftFlag == 1u)
 2707              		.loc 1 571 0
 2708 001c FB1D     		add	r3, r7, #7
 2709 001e 1B78     		ldrb	r3, [r3]
 2710 0020 012B     		cmp	r3, #1
 2711 0022 16D1     		bne	.L8
 572:Source\TransformFunctions/arm_cfft_f32.c ****     {
 573:Source\TransformFunctions/arm_cfft_f32.c ****         /*  Conjugate input data  */
 574:Source\TransformFunctions/arm_cfft_f32.c ****         pSrc = p1 + 1;
 2712              		.loc 1 574 0
 2713 0024 BB68     		ldr	r3, [r7, #8]
 2714 0026 0433     		add	r3, r3, #4
 2715 0028 BB61     		str	r3, [r7, #24]
 575:Source\TransformFunctions/arm_cfft_f32.c ****         for(l=0; l<L; l++)
 2716              		.loc 1 575 0
 2717 002a 0023     		mov	r3, #0
 2718 002c FB61     		str	r3, [r7, #28]
 2719 002e 0CE0     		b	.L9
 2720              	.L10:
 576:Source\TransformFunctions/arm_cfft_f32.c ****         {
 577:Source\TransformFunctions/arm_cfft_f32.c ****             *pSrc = -*pSrc;
 2721              		.loc 1 577 0 discriminator 3
 2722 0030 BB69     		ldr	r3, [r7, #24]
 2723 0032 1B68     		ldr	r3, [r3]
 2724 0034 8022     		mov	r2, #128
 2725 0036 1206     		lsl	r2, r2, #24
ARM GAS  C:\Users\fneves\AppData\Local\Temp\ccc6W3UB.s 			page 59


 2726 0038 5A40     		eor	r2, r3
 2727 003a BB69     		ldr	r3, [r7, #24]
 2728 003c 1A60     		str	r2, [r3]
 578:Source\TransformFunctions/arm_cfft_f32.c ****             pSrc += 2;
 2729              		.loc 1 578 0 discriminator 3
 2730 003e BB69     		ldr	r3, [r7, #24]
 2731 0040 0833     		add	r3, r3, #8
 2732 0042 BB61     		str	r3, [r7, #24]
 575:Source\TransformFunctions/arm_cfft_f32.c ****         for(l=0; l<L; l++)
 2733              		.loc 1 575 0 discriminator 3
 2734 0044 FB69     		ldr	r3, [r7, #28]
 2735 0046 0133     		add	r3, r3, #1
 2736 0048 FB61     		str	r3, [r7, #28]
 2737              	.L9:
 575:Source\TransformFunctions/arm_cfft_f32.c ****         for(l=0; l<L; l++)
 2738              		.loc 1 575 0 is_stmt 0 discriminator 1
 2739 004a FA69     		ldr	r2, [r7, #28]
 2740 004c 7B69     		ldr	r3, [r7, #20]
 2741 004e 9A42     		cmp	r2, r3
 2742 0050 EED3     		bcc	.L10
 2743              	.L8:
 579:Source\TransformFunctions/arm_cfft_f32.c ****         }
 580:Source\TransformFunctions/arm_cfft_f32.c ****     }
 581:Source\TransformFunctions/arm_cfft_f32.c **** 
 582:Source\TransformFunctions/arm_cfft_f32.c ****     switch (L)
 2744              		.loc 1 582 0 is_stmt 1
 2745 0052 7B69     		ldr	r3, [r7, #20]
 2746 0054 8022     		mov	r2, #128
 2747 0056 5200     		lsl	r2, r2, #1
 2748 0058 9342     		cmp	r3, r2
 2749 005a 2BD0     		beq	.L12
 2750 005c 8022     		mov	r2, #128
 2751 005e 5200     		lsl	r2, r2, #1
 2752 0060 9342     		cmp	r3, r2
 2753 0062 0AD8     		bhi	.L13
 2754 0064 202B     		cmp	r3, #32
 2755 0066 25D0     		beq	.L12
 2756 0068 02D8     		bhi	.L14
 2757 006a 102B     		cmp	r3, #16
 2758 006c 1BD0     		beq	.L15
 2759 006e 34E0     		b	.L11
 2760              	.L14:
 2761 0070 402B     		cmp	r3, #64
 2762 0072 26D0     		beq	.L16
 2763 0074 802B     		cmp	r3, #128
 2764 0076 16D0     		beq	.L15
 2765 0078 2FE0     		b	.L11
 2766              	.L13:
 2767 007a 8022     		mov	r2, #128
 2768 007c D200     		lsl	r2, r2, #3
 2769 007e 9342     		cmp	r3, r2
 2770 0080 11D0     		beq	.L15
 2771 0082 8022     		mov	r2, #128
 2772 0084 D200     		lsl	r2, r2, #3
 2773 0086 9342     		cmp	r3, r2
 2774 0088 04D8     		bhi	.L17
 2775 008a 8022     		mov	r2, #128
ARM GAS  C:\Users\fneves\AppData\Local\Temp\ccc6W3UB.s 			page 60


 2776 008c 9200     		lsl	r2, r2, #2
 2777 008e 9342     		cmp	r3, r2
 2778 0090 17D0     		beq	.L16
 2779 0092 22E0     		b	.L11
 2780              	.L17:
 2781 0094 8022     		mov	r2, #128
 2782 0096 1201     		lsl	r2, r2, #4
 2783 0098 9342     		cmp	r3, r2
 2784 009a 0BD0     		beq	.L12
 2785 009c 8022     		mov	r2, #128
 2786 009e 5201     		lsl	r2, r2, #5
 2787 00a0 9342     		cmp	r3, r2
 2788 00a2 0ED0     		beq	.L16
 2789 00a4 19E0     		b	.L11
 2790              	.L15:
 583:Source\TransformFunctions/arm_cfft_f32.c ****     {
 584:Source\TransformFunctions/arm_cfft_f32.c ****     case 16:
 585:Source\TransformFunctions/arm_cfft_f32.c ****     case 128:
 586:Source\TransformFunctions/arm_cfft_f32.c ****     case 1024:
 587:Source\TransformFunctions/arm_cfft_f32.c ****         arm_cfft_radix8by2_f32  ( (arm_cfft_instance_f32 *) S, p1);
 2791              		.loc 1 587 0
 2792 00a6 FA68     		ldr	r2, [r7, #12]
 2793 00a8 BB68     		ldr	r3, [r7, #8]
 2794 00aa 101C     		mov	r0, r2
 2795 00ac 191C     		mov	r1, r3
 2796 00ae FFF7FEFF 		bl	arm_cfft_radix8by2_f32
 588:Source\TransformFunctions/arm_cfft_f32.c ****         break;
 2797              		.loc 1 588 0
 2798 00b2 12E0     		b	.L11
 2799              	.L12:
 589:Source\TransformFunctions/arm_cfft_f32.c ****     case 32:
 590:Source\TransformFunctions/arm_cfft_f32.c ****     case 256:
 591:Source\TransformFunctions/arm_cfft_f32.c ****     case 2048:
 592:Source\TransformFunctions/arm_cfft_f32.c ****         arm_cfft_radix8by4_f32  ( (arm_cfft_instance_f32 *) S, p1);
 2800              		.loc 1 592 0
 2801 00b4 FA68     		ldr	r2, [r7, #12]
 2802 00b6 BB68     		ldr	r3, [r7, #8]
 2803 00b8 101C     		mov	r0, r2
 2804 00ba 191C     		mov	r1, r3
 2805 00bc FFF7FEFF 		bl	arm_cfft_radix8by4_f32
 593:Source\TransformFunctions/arm_cfft_f32.c ****         break;
 2806              		.loc 1 593 0
 2807 00c0 0BE0     		b	.L11
 2808              	.L16:
 594:Source\TransformFunctions/arm_cfft_f32.c ****     case 64:
 595:Source\TransformFunctions/arm_cfft_f32.c ****     case 512:
 596:Source\TransformFunctions/arm_cfft_f32.c ****     case 4096:
 597:Source\TransformFunctions/arm_cfft_f32.c ****         arm_radix8_butterfly_f32( p1, L, (float32_t *) S->pTwiddle, 1);
 2809              		.loc 1 597 0
 2810 00c2 7B69     		ldr	r3, [r7, #20]
 2811 00c4 9AB2     		uxth	r2, r3
 2812 00c6 FB68     		ldr	r3, [r7, #12]
 2813 00c8 5B68     		ldr	r3, [r3, #4]
 2814 00ca B968     		ldr	r1, [r7, #8]
 2815 00cc 081C     		mov	r0, r1
 2816 00ce 111C     		mov	r1, r2
 2817 00d0 1A1C     		mov	r2, r3
ARM GAS  C:\Users\fneves\AppData\Local\Temp\ccc6W3UB.s 			page 61


 2818 00d2 0123     		mov	r3, #1
 2819 00d4 FFF7FEFF 		bl	arm_radix8_butterfly_f32
 598:Source\TransformFunctions/arm_cfft_f32.c ****         break;
 2820              		.loc 1 598 0
 2821 00d8 C046     		mov	r8, r8
 2822              	.L11:
 599:Source\TransformFunctions/arm_cfft_f32.c ****     }
 600:Source\TransformFunctions/arm_cfft_f32.c **** 
 601:Source\TransformFunctions/arm_cfft_f32.c ****     if ( bitReverseFlag )
 2823              		.loc 1 601 0
 2824 00da BB1D     		add	r3, r7, #6
 2825 00dc 1B78     		ldrb	r3, [r3]
 2826 00de 002B     		cmp	r3, #0
 2827 00e0 09D0     		beq	.L18
 602:Source\TransformFunctions/arm_cfft_f32.c ****         arm_bitreversal_32((uint32_t*)p1,S->bitRevLength,S->pBitRevTable);
 2828              		.loc 1 602 0
 2829 00e2 FB68     		ldr	r3, [r7, #12]
 2830 00e4 9A89     		ldrh	r2, [r3, #12]
 2831 00e6 FB68     		ldr	r3, [r7, #12]
 2832 00e8 9B68     		ldr	r3, [r3, #8]
 2833 00ea B968     		ldr	r1, [r7, #8]
 2834 00ec 081C     		mov	r0, r1
 2835 00ee 111C     		mov	r1, r2
 2836 00f0 1A1C     		mov	r2, r3
 2837 00f2 FFF7FEFF 		bl	arm_bitreversal_32
 2838              	.L18:
 603:Source\TransformFunctions/arm_cfft_f32.c **** 
 604:Source\TransformFunctions/arm_cfft_f32.c ****     if (ifftFlag == 1u)
 2839              		.loc 1 604 0
 2840 00f6 FB1D     		add	r3, r7, #7
 2841 00f8 1B78     		ldrb	r3, [r3]
 2842 00fa 012B     		cmp	r3, #1
 2843 00fc 30D1     		bne	.L7
 605:Source\TransformFunctions/arm_cfft_f32.c ****     {
 606:Source\TransformFunctions/arm_cfft_f32.c ****         invL = 1.0f/(float32_t)L;
 2844              		.loc 1 606 0
 2845 00fe 7869     		ldr	r0, [r7, #20]
 2846 0100 FFF7FEFF 		bl	__aeabi_ui2f
 2847 0104 031C     		add	r3, r0, #0
 2848 0106 FE20     		mov	r0, #254
 2849 0108 8005     		lsl	r0, r0, #22
 2850 010a 191C     		add	r1, r3, #0
 2851 010c FFF7FEFF 		bl	__aeabi_fdiv
 2852 0110 031C     		add	r3, r0, #0
 2853 0112 3B61     		str	r3, [r7, #16]
 607:Source\TransformFunctions/arm_cfft_f32.c ****         /*  Conjugate and scale output data */
 608:Source\TransformFunctions/arm_cfft_f32.c ****         pSrc = p1;
 2854              		.loc 1 608 0
 2855 0114 BB68     		ldr	r3, [r7, #8]
 2856 0116 BB61     		str	r3, [r7, #24]
 609:Source\TransformFunctions/arm_cfft_f32.c ****         for(l=0; l<L; l++)
 2857              		.loc 1 609 0
 2858 0118 0023     		mov	r3, #0
 2859 011a FB61     		str	r3, [r7, #28]
 2860 011c 1CE0     		b	.L20
 2861              	.L21:
 610:Source\TransformFunctions/arm_cfft_f32.c ****         {
ARM GAS  C:\Users\fneves\AppData\Local\Temp\ccc6W3UB.s 			page 62


 611:Source\TransformFunctions/arm_cfft_f32.c ****             *pSrc++ *=   invL ;
 2862              		.loc 1 611 0 discriminator 3
 2863 011e BC69     		ldr	r4, [r7, #24]
 2864 0120 231D     		add	r3, r4, #4
 2865 0122 BB61     		str	r3, [r7, #24]
 2866 0124 2368     		ldr	r3, [r4]
 2867 0126 181C     		add	r0, r3, #0
 2868 0128 3969     		ldr	r1, [r7, #16]
 2869 012a FFF7FEFF 		bl	__aeabi_fmul
 2870 012e 031C     		add	r3, r0, #0
 2871 0130 2360     		str	r3, [r4]
 612:Source\TransformFunctions/arm_cfft_f32.c ****             *pSrc  = -(*pSrc) * invL;
 2872              		.loc 1 612 0 discriminator 3
 2873 0132 BB69     		ldr	r3, [r7, #24]
 2874 0134 1B68     		ldr	r3, [r3]
 2875 0136 8022     		mov	r2, #128
 2876 0138 1206     		lsl	r2, r2, #24
 2877 013a 5340     		eor	r3, r2
 2878 013c 181C     		add	r0, r3, #0
 2879 013e 3969     		ldr	r1, [r7, #16]
 2880 0140 FFF7FEFF 		bl	__aeabi_fmul
 2881 0144 031C     		add	r3, r0, #0
 2882 0146 1A1C     		add	r2, r3, #0
 2883 0148 BB69     		ldr	r3, [r7, #24]
 2884 014a 1A60     		str	r2, [r3]
 613:Source\TransformFunctions/arm_cfft_f32.c ****             pSrc++;
 2885              		.loc 1 613 0 discriminator 3
 2886 014c BB69     		ldr	r3, [r7, #24]
 2887 014e 0433     		add	r3, r3, #4
 2888 0150 BB61     		str	r3, [r7, #24]
 609:Source\TransformFunctions/arm_cfft_f32.c ****         {
 2889              		.loc 1 609 0 discriminator 3
 2890 0152 FB69     		ldr	r3, [r7, #28]
 2891 0154 0133     		add	r3, r3, #1
 2892 0156 FB61     		str	r3, [r7, #28]
 2893              	.L20:
 609:Source\TransformFunctions/arm_cfft_f32.c ****         {
 2894              		.loc 1 609 0 is_stmt 0 discriminator 1
 2895 0158 FA69     		ldr	r2, [r7, #28]
 2896 015a 7B69     		ldr	r3, [r7, #20]
 2897 015c 9A42     		cmp	r2, r3
 2898 015e DED3     		bcc	.L21
 2899              	.L7:
 614:Source\TransformFunctions/arm_cfft_f32.c ****         }
 615:Source\TransformFunctions/arm_cfft_f32.c ****     }
 616:Source\TransformFunctions/arm_cfft_f32.c **** }
 2900              		.loc 1 616 0 is_stmt 1
 2901 0160 BD46     		mov	sp, r7
 2902 0162 09B0     		add	sp, sp, #36
 2903              		@ sp needed
 2904 0164 90BD     		pop	{r4, r7, pc}
 2905              		.cfi_endproc
 2906              	.LFE84:
 2907              		.size	arm_cfft_f32, .-arm_cfft_f32
 2908 0166 C046     		.text
 2909              	.Letext0:
 2910              		.file 2 "c:\\program files (x86)\\cypress\\psoc creator\\4.0\\psoc creator\\import\\gnu\\arm\\4.9.
ARM GAS  C:\Users\fneves\AppData\Local\Temp\ccc6W3UB.s 			page 63


 2911              		.file 3 "c:\\program files (x86)\\cypress\\psoc creator\\4.0\\psoc creator\\import\\gnu\\arm\\4.9.
 2912              		.file 4 ".\\Include/arm_math.h"