ARM GAS  C:\Users\fneves\AppData\Local\Temp\cckZWgbh.s 			page 1


   1              		.cpu cortex-m0plus
   2              		.fpu softvfp
   3              		.eabi_attribute 20, 1
   4              		.eabi_attribute 21, 1
   5              		.eabi_attribute 23, 3
   6              		.eabi_attribute 24, 1
   7              		.eabi_attribute 25, 1
   8              		.eabi_attribute 26, 1
   9              		.eabi_attribute 30, 6
  10              		.eabi_attribute 34, 0
  11              		.eabi_attribute 18, 4
  12              		.code	16
  13              		.file	"arm_power_q7.c"
  14              		.text
  15              	.Ltext0:
  16              		.cfi_sections	.debug_frame
  17              		.section	.text.arm_power_q7,"ax",%progbits
  18              		.align	2
  19              		.global	arm_power_q7
  20              		.code	16
  21              		.thumb_func
  22              		.type	arm_power_q7, %function
  23              	arm_power_q7:
  24              	.LFB82:
  25              		.file 1 "Source\\StatisticsFunctions\\arm_power_q7.c"
   1:Source\StatisticsFunctions/arm_power_q7.c **** /* ----------------------------------------------------------------------
   2:Source\StatisticsFunctions/arm_power_q7.c ****  * Project:      CMSIS DSP Library
   3:Source\StatisticsFunctions/arm_power_q7.c ****  * Title:        arm_power_q7.c
   4:Source\StatisticsFunctions/arm_power_q7.c ****  * Description:  Sum of the squares of the elements of a Q7 vector
   5:Source\StatisticsFunctions/arm_power_q7.c ****  *
   6:Source\StatisticsFunctions/arm_power_q7.c ****  * $Date:        27. January 2017
   7:Source\StatisticsFunctions/arm_power_q7.c ****  * $Revision:    V.1.5.1
   8:Source\StatisticsFunctions/arm_power_q7.c ****  *
   9:Source\StatisticsFunctions/arm_power_q7.c ****  * Target Processor: Cortex-M cores
  10:Source\StatisticsFunctions/arm_power_q7.c ****  * -------------------------------------------------------------------- */
  11:Source\StatisticsFunctions/arm_power_q7.c **** /*
  12:Source\StatisticsFunctions/arm_power_q7.c ****  * Copyright (C) 2010-2017 ARM Limited or its affiliates. All rights reserved.
  13:Source\StatisticsFunctions/arm_power_q7.c ****  *
  14:Source\StatisticsFunctions/arm_power_q7.c ****  * SPDX-License-Identifier: Apache-2.0
  15:Source\StatisticsFunctions/arm_power_q7.c ****  *
  16:Source\StatisticsFunctions/arm_power_q7.c ****  * Licensed under the Apache License, Version 2.0 (the License); you may
  17:Source\StatisticsFunctions/arm_power_q7.c ****  * not use this file except in compliance with the License.
  18:Source\StatisticsFunctions/arm_power_q7.c ****  * You may obtain a copy of the License at
  19:Source\StatisticsFunctions/arm_power_q7.c ****  *
  20:Source\StatisticsFunctions/arm_power_q7.c ****  * www.apache.org/licenses/LICENSE-2.0
  21:Source\StatisticsFunctions/arm_power_q7.c ****  *
  22:Source\StatisticsFunctions/arm_power_q7.c ****  * Unless required by applicable law or agreed to in writing, software
  23:Source\StatisticsFunctions/arm_power_q7.c ****  * distributed under the License is distributed on an AS IS BASIS, WITHOUT
  24:Source\StatisticsFunctions/arm_power_q7.c ****  * WARRANTIES OR CONDITIONS OF ANY KIND, either express or implied.
  25:Source\StatisticsFunctions/arm_power_q7.c ****  * See the License for the specific language governing permissions and
  26:Source\StatisticsFunctions/arm_power_q7.c ****  * limitations under the License.
  27:Source\StatisticsFunctions/arm_power_q7.c ****  */
  28:Source\StatisticsFunctions/arm_power_q7.c **** 
  29:Source\StatisticsFunctions/arm_power_q7.c **** #include "arm_math.h"
  30:Source\StatisticsFunctions/arm_power_q7.c **** 
  31:Source\StatisticsFunctions/arm_power_q7.c **** /**
  32:Source\StatisticsFunctions/arm_power_q7.c ****  * @ingroup groupStats
ARM GAS  C:\Users\fneves\AppData\Local\Temp\cckZWgbh.s 			page 2


  33:Source\StatisticsFunctions/arm_power_q7.c ****  */
  34:Source\StatisticsFunctions/arm_power_q7.c **** 
  35:Source\StatisticsFunctions/arm_power_q7.c **** /**
  36:Source\StatisticsFunctions/arm_power_q7.c ****  * @addtogroup power
  37:Source\StatisticsFunctions/arm_power_q7.c ****  * @{
  38:Source\StatisticsFunctions/arm_power_q7.c ****  */
  39:Source\StatisticsFunctions/arm_power_q7.c **** 
  40:Source\StatisticsFunctions/arm_power_q7.c **** /**
  41:Source\StatisticsFunctions/arm_power_q7.c ****  * @brief Sum of the squares of the elements of a Q7 vector.
  42:Source\StatisticsFunctions/arm_power_q7.c ****  * @param[in]       *pSrc points to the input vector
  43:Source\StatisticsFunctions/arm_power_q7.c ****  * @param[in]       blockSize length of the input vector
  44:Source\StatisticsFunctions/arm_power_q7.c ****  * @param[out]      *pResult sum of the squares value returned here
  45:Source\StatisticsFunctions/arm_power_q7.c ****  * @return none.
  46:Source\StatisticsFunctions/arm_power_q7.c ****  *
  47:Source\StatisticsFunctions/arm_power_q7.c ****  * @details
  48:Source\StatisticsFunctions/arm_power_q7.c ****  * <b>Scaling and Overflow Behavior:</b>
  49:Source\StatisticsFunctions/arm_power_q7.c ****  *
  50:Source\StatisticsFunctions/arm_power_q7.c ****  * \par
  51:Source\StatisticsFunctions/arm_power_q7.c ****  * The function is implemented using a 32-bit internal accumulator.
  52:Source\StatisticsFunctions/arm_power_q7.c ****  * The input is represented in 1.7 format.
  53:Source\StatisticsFunctions/arm_power_q7.c ****  * Intermediate multiplication yields a 2.14 format, and this
  54:Source\StatisticsFunctions/arm_power_q7.c ****  * result is added without saturation to an accumulator in 18.14 format.
  55:Source\StatisticsFunctions/arm_power_q7.c ****  * With 17 guard bits in the accumulator, there is no risk of overflow, and the
  56:Source\StatisticsFunctions/arm_power_q7.c ****  * full precision of the intermediate multiplication is preserved.
  57:Source\StatisticsFunctions/arm_power_q7.c ****  * Finally, the return result is in 18.14 format.
  58:Source\StatisticsFunctions/arm_power_q7.c ****  *
  59:Source\StatisticsFunctions/arm_power_q7.c ****  */
  60:Source\StatisticsFunctions/arm_power_q7.c **** 
  61:Source\StatisticsFunctions/arm_power_q7.c **** void arm_power_q7(
  62:Source\StatisticsFunctions/arm_power_q7.c ****   q7_t * pSrc,
  63:Source\StatisticsFunctions/arm_power_q7.c ****   uint32_t blockSize,
  64:Source\StatisticsFunctions/arm_power_q7.c ****   q31_t * pResult)
  65:Source\StatisticsFunctions/arm_power_q7.c **** {
  26              		.loc 1 65 0
  27              		.cfi_startproc
  28 0000 80B5     		push	{r7, lr}
  29              		.cfi_def_cfa_offset 8
  30              		.cfi_offset 7, -8
  31              		.cfi_offset 14, -4
  32 0002 88B0     		sub	sp, sp, #32
  33              		.cfi_def_cfa_offset 40
  34 0004 00AF     		add	r7, sp, #0
  35              		.cfi_def_cfa_register 7
  36 0006 F860     		str	r0, [r7, #12]
  37 0008 B960     		str	r1, [r7, #8]
  38 000a 7A60     		str	r2, [r7, #4]
  66:Source\StatisticsFunctions/arm_power_q7.c ****   q31_t sum = 0;                                 /* Temporary result storage */
  39              		.loc 1 66 0
  40 000c 0023     		mov	r3, #0
  41 000e FB61     		str	r3, [r7, #28]
  67:Source\StatisticsFunctions/arm_power_q7.c ****   q7_t in;                                       /* Temporary variable to store input */
  68:Source\StatisticsFunctions/arm_power_q7.c ****   uint32_t blkCnt;                               /* loop counter */
  69:Source\StatisticsFunctions/arm_power_q7.c **** 
  70:Source\StatisticsFunctions/arm_power_q7.c **** #if defined (ARM_MATH_DSP)
  71:Source\StatisticsFunctions/arm_power_q7.c ****   /* Run the below code for Cortex-M4 and Cortex-M3 */
  72:Source\StatisticsFunctions/arm_power_q7.c **** 
  73:Source\StatisticsFunctions/arm_power_q7.c ****   q31_t input1;                                  /* Temporary variable to store packed input */
ARM GAS  C:\Users\fneves\AppData\Local\Temp\cckZWgbh.s 			page 3


  74:Source\StatisticsFunctions/arm_power_q7.c ****   q31_t in1, in2;                                /* Temporary variables to store input */
  75:Source\StatisticsFunctions/arm_power_q7.c **** 
  76:Source\StatisticsFunctions/arm_power_q7.c ****   /*loop Unrolling */
  77:Source\StatisticsFunctions/arm_power_q7.c ****   blkCnt = blockSize >> 2u;
  78:Source\StatisticsFunctions/arm_power_q7.c **** 
  79:Source\StatisticsFunctions/arm_power_q7.c ****   /* First part of the processing with loop unrolling.  Compute 4 outputs at a time.
  80:Source\StatisticsFunctions/arm_power_q7.c ****    ** a second loop below computes the remaining 1 to 3 samples. */
  81:Source\StatisticsFunctions/arm_power_q7.c ****   while (blkCnt > 0u)
  82:Source\StatisticsFunctions/arm_power_q7.c ****   {
  83:Source\StatisticsFunctions/arm_power_q7.c ****     /* Reading two inputs of pSrc vector and packing */
  84:Source\StatisticsFunctions/arm_power_q7.c ****     input1 = *__SIMD32(pSrc)++;
  85:Source\StatisticsFunctions/arm_power_q7.c **** 
  86:Source\StatisticsFunctions/arm_power_q7.c ****     in1 = __SXTB16(__ROR(input1, 8));
  87:Source\StatisticsFunctions/arm_power_q7.c ****     in2 = __SXTB16(input1);
  88:Source\StatisticsFunctions/arm_power_q7.c **** 
  89:Source\StatisticsFunctions/arm_power_q7.c ****     /* C = A[0] * A[0] + A[1] * A[1] + A[2] * A[2] + ... + A[blockSize-1] * A[blockSize-1] */
  90:Source\StatisticsFunctions/arm_power_q7.c ****     /* calculate power and accumulate to accumulator */
  91:Source\StatisticsFunctions/arm_power_q7.c ****     sum = __SMLAD(in1, in1, sum);
  92:Source\StatisticsFunctions/arm_power_q7.c ****     sum = __SMLAD(in2, in2, sum);
  93:Source\StatisticsFunctions/arm_power_q7.c **** 
  94:Source\StatisticsFunctions/arm_power_q7.c ****     /* Decrement the loop counter */
  95:Source\StatisticsFunctions/arm_power_q7.c ****     blkCnt--;
  96:Source\StatisticsFunctions/arm_power_q7.c ****   }
  97:Source\StatisticsFunctions/arm_power_q7.c **** 
  98:Source\StatisticsFunctions/arm_power_q7.c ****   /* If the blockSize is not a multiple of 4, compute any remaining output samples here.
  99:Source\StatisticsFunctions/arm_power_q7.c ****    ** No loop unrolling is used. */
 100:Source\StatisticsFunctions/arm_power_q7.c ****   blkCnt = blockSize % 0x4u;
 101:Source\StatisticsFunctions/arm_power_q7.c **** 
 102:Source\StatisticsFunctions/arm_power_q7.c **** #else
 103:Source\StatisticsFunctions/arm_power_q7.c ****   /* Run the below code for Cortex-M0 */
 104:Source\StatisticsFunctions/arm_power_q7.c **** 
 105:Source\StatisticsFunctions/arm_power_q7.c ****   /* Loop over blockSize number of values */
 106:Source\StatisticsFunctions/arm_power_q7.c ****   blkCnt = blockSize;
  42              		.loc 1 106 0
  43 0010 BB68     		ldr	r3, [r7, #8]
  44 0012 BB61     		str	r3, [r7, #24]
 107:Source\StatisticsFunctions/arm_power_q7.c **** 
 108:Source\StatisticsFunctions/arm_power_q7.c **** #endif /* #if defined (ARM_MATH_DSP) */
 109:Source\StatisticsFunctions/arm_power_q7.c **** 
 110:Source\StatisticsFunctions/arm_power_q7.c ****   while (blkCnt > 0u)
  45              		.loc 1 110 0
  46 0014 15E0     		b	.L2
  47              	.L3:
 111:Source\StatisticsFunctions/arm_power_q7.c ****   {
 112:Source\StatisticsFunctions/arm_power_q7.c ****     /* C = A[0] * A[0] + A[1] * A[1] + A[2] * A[2] + ... + A[blockSize-1] * A[blockSize-1] */
 113:Source\StatisticsFunctions/arm_power_q7.c ****     /* Compute Power and then store the result in a temporary variable, sum. */
 114:Source\StatisticsFunctions/arm_power_q7.c ****     in = *pSrc++;
  48              		.loc 1 114 0
  49 0016 FB68     		ldr	r3, [r7, #12]
  50 0018 5A1C     		add	r2, r3, #1
  51 001a FA60     		str	r2, [r7, #12]
  52 001c 1722     		mov	r2, #23
  53 001e BA18     		add	r2, r7, r2
  54 0020 1B78     		ldrb	r3, [r3]
  55 0022 1370     		strb	r3, [r2]
 115:Source\StatisticsFunctions/arm_power_q7.c ****     sum += ((q15_t) in * in);
  56              		.loc 1 115 0
ARM GAS  C:\Users\fneves\AppData\Local\Temp\cckZWgbh.s 			page 4


  57 0024 1723     		mov	r3, #23
  58 0026 FB18     		add	r3, r7, r3
  59 0028 1B78     		ldrb	r3, [r3]
  60 002a 5BB2     		sxtb	r3, r3
  61 002c 1722     		mov	r2, #23
  62 002e BA18     		add	r2, r7, r2
  63 0030 1278     		ldrb	r2, [r2]
  64 0032 52B2     		sxtb	r2, r2
  65 0034 5343     		mul	r3, r2
  66 0036 FA69     		ldr	r2, [r7, #28]
  67 0038 D318     		add	r3, r2, r3
  68 003a FB61     		str	r3, [r7, #28]
 116:Source\StatisticsFunctions/arm_power_q7.c **** 
 117:Source\StatisticsFunctions/arm_power_q7.c ****     /* Decrement the loop counter */
 118:Source\StatisticsFunctions/arm_power_q7.c ****     blkCnt--;
  69              		.loc 1 118 0
  70 003c BB69     		ldr	r3, [r7, #24]
  71 003e 013B     		sub	r3, r3, #1
  72 0040 BB61     		str	r3, [r7, #24]
  73              	.L2:
 110:Source\StatisticsFunctions/arm_power_q7.c ****   {
  74              		.loc 1 110 0
  75 0042 BB69     		ldr	r3, [r7, #24]
  76 0044 002B     		cmp	r3, #0
  77 0046 E6D1     		bne	.L3
 119:Source\StatisticsFunctions/arm_power_q7.c ****   }
 120:Source\StatisticsFunctions/arm_power_q7.c **** 
 121:Source\StatisticsFunctions/arm_power_q7.c ****   /* Store the result in 18.14 format  */
 122:Source\StatisticsFunctions/arm_power_q7.c ****   *pResult = sum;
  78              		.loc 1 122 0
  79 0048 7B68     		ldr	r3, [r7, #4]
  80 004a FA69     		ldr	r2, [r7, #28]
  81 004c 1A60     		str	r2, [r3]
 123:Source\StatisticsFunctions/arm_power_q7.c **** }
  82              		.loc 1 123 0
  83 004e BD46     		mov	sp, r7
  84 0050 08B0     		add	sp, sp, #32
  85              		@ sp needed
  86 0052 80BD     		pop	{r7, pc}
  87              		.cfi_endproc
  88              	.LFE82:
  89              		.size	arm_power_q7, .-arm_power_q7
  90              		.text
  91              	.Letext0:
  92              		.file 2 "c:\\program files (x86)\\cypress\\psoc creator\\4.0\\psoc creator\\import\\gnu\\arm\\4.9.
  93              		.file 3 "c:\\program files (x86)\\cypress\\psoc creator\\4.0\\psoc creator\\import\\gnu\\arm\\4.9.
  94              		.file 4 ".\\Include/arm_math.h"