ARM GAS  C:\Users\fneves\AppData\Local\Temp\ccu9Fi1W.s 			page 1


   1              		.cpu cortex-m0plus
   2              		.fpu softvfp
   3              		.eabi_attribute 20, 1
   4              		.eabi_attribute 21, 1
   5              		.eabi_attribute 23, 3
   6              		.eabi_attribute 24, 1
   7              		.eabi_attribute 25, 1
   8              		.eabi_attribute 26, 1
   9              		.eabi_attribute 30, 6
  10              		.eabi_attribute 34, 0
  11              		.eabi_attribute 18, 4
  12              		.code	16
  13              		.file	"arm_cmplx_conj_q31.c"
  14              		.text
  15              	.Ltext0:
  16              		.cfi_sections	.debug_frame
  17              		.section	.text.arm_cmplx_conj_q31,"ax",%progbits
  18              		.align	2
  19              		.global	arm_cmplx_conj_q31
  20              		.code	16
  21              		.thumb_func
  22              		.type	arm_cmplx_conj_q31, %function
  23              	arm_cmplx_conj_q31:
  24              	.LFB82:
  25              		.file 1 "Source\\ComplexMathFunctions\\arm_cmplx_conj_q31.c"
   1:Source\ComplexMathFunctions/arm_cmplx_conj_q31.c **** /* ----------------------------------------------------------------------
   2:Source\ComplexMathFunctions/arm_cmplx_conj_q31.c ****  * Project:      CMSIS DSP Library
   3:Source\ComplexMathFunctions/arm_cmplx_conj_q31.c ****  * Title:        arm_cmplx_conj_q31.c
   4:Source\ComplexMathFunctions/arm_cmplx_conj_q31.c ****  * Description:  Q31 complex conjugate
   5:Source\ComplexMathFunctions/arm_cmplx_conj_q31.c ****  *
   6:Source\ComplexMathFunctions/arm_cmplx_conj_q31.c ****  * $Date:        27. January 2017
   7:Source\ComplexMathFunctions/arm_cmplx_conj_q31.c ****  * $Revision:    V.1.5.1
   8:Source\ComplexMathFunctions/arm_cmplx_conj_q31.c ****  *
   9:Source\ComplexMathFunctions/arm_cmplx_conj_q31.c ****  * Target Processor: Cortex-M cores
  10:Source\ComplexMathFunctions/arm_cmplx_conj_q31.c ****  * -------------------------------------------------------------------- */
  11:Source\ComplexMathFunctions/arm_cmplx_conj_q31.c **** /*
  12:Source\ComplexMathFunctions/arm_cmplx_conj_q31.c ****  * Copyright (C) 2010-2017 ARM Limited or its affiliates. All rights reserved.
  13:Source\ComplexMathFunctions/arm_cmplx_conj_q31.c ****  *
  14:Source\ComplexMathFunctions/arm_cmplx_conj_q31.c ****  * SPDX-License-Identifier: Apache-2.0
  15:Source\ComplexMathFunctions/arm_cmplx_conj_q31.c ****  *
  16:Source\ComplexMathFunctions/arm_cmplx_conj_q31.c ****  * Licensed under the Apache License, Version 2.0 (the License); you may
  17:Source\ComplexMathFunctions/arm_cmplx_conj_q31.c ****  * not use this file except in compliance with the License.
  18:Source\ComplexMathFunctions/arm_cmplx_conj_q31.c ****  * You may obtain a copy of the License at
  19:Source\ComplexMathFunctions/arm_cmplx_conj_q31.c ****  *
  20:Source\ComplexMathFunctions/arm_cmplx_conj_q31.c ****  * www.apache.org/licenses/LICENSE-2.0
  21:Source\ComplexMathFunctions/arm_cmplx_conj_q31.c ****  *
  22:Source\ComplexMathFunctions/arm_cmplx_conj_q31.c ****  * Unless required by applicable law or agreed to in writing, software
  23:Source\ComplexMathFunctions/arm_cmplx_conj_q31.c ****  * distributed under the License is distributed on an AS IS BASIS, WITHOUT
  24:Source\ComplexMathFunctions/arm_cmplx_conj_q31.c ****  * WARRANTIES OR CONDITIONS OF ANY KIND, either express or implied.
  25:Source\ComplexMathFunctions/arm_cmplx_conj_q31.c ****  * See the License for the specific language governing permissions and
  26:Source\ComplexMathFunctions/arm_cmplx_conj_q31.c ****  * limitations under the License.
  27:Source\ComplexMathFunctions/arm_cmplx_conj_q31.c ****  */
  28:Source\ComplexMathFunctions/arm_cmplx_conj_q31.c **** 
  29:Source\ComplexMathFunctions/arm_cmplx_conj_q31.c **** #include "arm_math.h"
  30:Source\ComplexMathFunctions/arm_cmplx_conj_q31.c **** 
  31:Source\ComplexMathFunctions/arm_cmplx_conj_q31.c **** /**
  32:Source\ComplexMathFunctions/arm_cmplx_conj_q31.c ****  * @ingroup groupCmplxMath
ARM GAS  C:\Users\fneves\AppData\Local\Temp\ccu9Fi1W.s 			page 2


  33:Source\ComplexMathFunctions/arm_cmplx_conj_q31.c ****  */
  34:Source\ComplexMathFunctions/arm_cmplx_conj_q31.c **** 
  35:Source\ComplexMathFunctions/arm_cmplx_conj_q31.c **** /**
  36:Source\ComplexMathFunctions/arm_cmplx_conj_q31.c ****  * @addtogroup cmplx_conj
  37:Source\ComplexMathFunctions/arm_cmplx_conj_q31.c ****  * @{
  38:Source\ComplexMathFunctions/arm_cmplx_conj_q31.c ****  */
  39:Source\ComplexMathFunctions/arm_cmplx_conj_q31.c **** 
  40:Source\ComplexMathFunctions/arm_cmplx_conj_q31.c **** /**
  41:Source\ComplexMathFunctions/arm_cmplx_conj_q31.c ****  * @brief  Q31 complex conjugate.
  42:Source\ComplexMathFunctions/arm_cmplx_conj_q31.c ****  * @param  *pSrc points to the input vector
  43:Source\ComplexMathFunctions/arm_cmplx_conj_q31.c ****  * @param  *pDst points to the output vector
  44:Source\ComplexMathFunctions/arm_cmplx_conj_q31.c ****  * @param  numSamples number of complex samples in each vector
  45:Source\ComplexMathFunctions/arm_cmplx_conj_q31.c ****  * @return none.
  46:Source\ComplexMathFunctions/arm_cmplx_conj_q31.c ****  *
  47:Source\ComplexMathFunctions/arm_cmplx_conj_q31.c ****  * <b>Scaling and Overflow Behavior:</b>
  48:Source\ComplexMathFunctions/arm_cmplx_conj_q31.c ****  * \par
  49:Source\ComplexMathFunctions/arm_cmplx_conj_q31.c ****  * The function uses saturating arithmetic.
  50:Source\ComplexMathFunctions/arm_cmplx_conj_q31.c ****  * The Q31 value -1 (0x80000000) will be saturated to the maximum allowable positive value 0x7FFFFF
  51:Source\ComplexMathFunctions/arm_cmplx_conj_q31.c ****  */
  52:Source\ComplexMathFunctions/arm_cmplx_conj_q31.c **** 
  53:Source\ComplexMathFunctions/arm_cmplx_conj_q31.c **** void arm_cmplx_conj_q31(
  54:Source\ComplexMathFunctions/arm_cmplx_conj_q31.c ****   q31_t * pSrc,
  55:Source\ComplexMathFunctions/arm_cmplx_conj_q31.c ****   q31_t * pDst,
  56:Source\ComplexMathFunctions/arm_cmplx_conj_q31.c ****   uint32_t numSamples)
  57:Source\ComplexMathFunctions/arm_cmplx_conj_q31.c **** {
  26              		.loc 1 57 0
  27              		.cfi_startproc
  28 0000 80B5     		push	{r7, lr}
  29              		.cfi_def_cfa_offset 8
  30              		.cfi_offset 7, -8
  31              		.cfi_offset 14, -4
  32 0002 86B0     		sub	sp, sp, #24
  33              		.cfi_def_cfa_offset 32
  34 0004 00AF     		add	r7, sp, #0
  35              		.cfi_def_cfa_register 7
  36 0006 F860     		str	r0, [r7, #12]
  37 0008 B960     		str	r1, [r7, #8]
  38 000a 7A60     		str	r2, [r7, #4]
  58:Source\ComplexMathFunctions/arm_cmplx_conj_q31.c ****   uint32_t blkCnt;                               /* loop counter */
  59:Source\ComplexMathFunctions/arm_cmplx_conj_q31.c ****   q31_t in;                                      /* Input value */
  60:Source\ComplexMathFunctions/arm_cmplx_conj_q31.c **** 
  61:Source\ComplexMathFunctions/arm_cmplx_conj_q31.c **** #if defined (ARM_MATH_DSP)
  62:Source\ComplexMathFunctions/arm_cmplx_conj_q31.c **** 
  63:Source\ComplexMathFunctions/arm_cmplx_conj_q31.c ****   /* Run the below code for Cortex-M4 and Cortex-M3 */
  64:Source\ComplexMathFunctions/arm_cmplx_conj_q31.c ****   q31_t inR1, inR2, inR3, inR4;                  /* Temporary real variables */
  65:Source\ComplexMathFunctions/arm_cmplx_conj_q31.c ****   q31_t inI1, inI2, inI3, inI4;                  /* Temporary imaginary variables */
  66:Source\ComplexMathFunctions/arm_cmplx_conj_q31.c **** 
  67:Source\ComplexMathFunctions/arm_cmplx_conj_q31.c ****   /*loop Unrolling */
  68:Source\ComplexMathFunctions/arm_cmplx_conj_q31.c ****   blkCnt = numSamples >> 2u;
  69:Source\ComplexMathFunctions/arm_cmplx_conj_q31.c **** 
  70:Source\ComplexMathFunctions/arm_cmplx_conj_q31.c ****   /* First part of the processing with loop unrolling.  Compute 4 outputs at a time.
  71:Source\ComplexMathFunctions/arm_cmplx_conj_q31.c ****    ** a second loop below computes the remaining 1 to 3 samples. */
  72:Source\ComplexMathFunctions/arm_cmplx_conj_q31.c ****   while (blkCnt > 0u)
  73:Source\ComplexMathFunctions/arm_cmplx_conj_q31.c ****   {
  74:Source\ComplexMathFunctions/arm_cmplx_conj_q31.c ****     /* C[0]+jC[1] = A[0]+ j (-1) A[1] */
  75:Source\ComplexMathFunctions/arm_cmplx_conj_q31.c ****     /* Calculate Complex Conjugate and then store the results in the destination buffer. */
  76:Source\ComplexMathFunctions/arm_cmplx_conj_q31.c ****     /* Saturated to 0x7fffffff if the input is -1(0x80000000) */
ARM GAS  C:\Users\fneves\AppData\Local\Temp\ccu9Fi1W.s 			page 3


  77:Source\ComplexMathFunctions/arm_cmplx_conj_q31.c ****     /* read real input sample */
  78:Source\ComplexMathFunctions/arm_cmplx_conj_q31.c ****     inR1 = pSrc[0];
  79:Source\ComplexMathFunctions/arm_cmplx_conj_q31.c ****     /* store real input sample */
  80:Source\ComplexMathFunctions/arm_cmplx_conj_q31.c ****     pDst[0] = inR1;
  81:Source\ComplexMathFunctions/arm_cmplx_conj_q31.c **** 
  82:Source\ComplexMathFunctions/arm_cmplx_conj_q31.c ****     /* read imaginary input sample */
  83:Source\ComplexMathFunctions/arm_cmplx_conj_q31.c ****     inI1 = pSrc[1];
  84:Source\ComplexMathFunctions/arm_cmplx_conj_q31.c **** 
  85:Source\ComplexMathFunctions/arm_cmplx_conj_q31.c ****     /* read real input sample */
  86:Source\ComplexMathFunctions/arm_cmplx_conj_q31.c ****     inR2 = pSrc[2];
  87:Source\ComplexMathFunctions/arm_cmplx_conj_q31.c ****     /* store real input sample */
  88:Source\ComplexMathFunctions/arm_cmplx_conj_q31.c ****     pDst[2] = inR2;
  89:Source\ComplexMathFunctions/arm_cmplx_conj_q31.c **** 
  90:Source\ComplexMathFunctions/arm_cmplx_conj_q31.c ****     /* read imaginary input sample */
  91:Source\ComplexMathFunctions/arm_cmplx_conj_q31.c ****     inI2 = pSrc[3];
  92:Source\ComplexMathFunctions/arm_cmplx_conj_q31.c **** 
  93:Source\ComplexMathFunctions/arm_cmplx_conj_q31.c ****     /* negate imaginary input sample */
  94:Source\ComplexMathFunctions/arm_cmplx_conj_q31.c ****     inI1 = __QSUB(0, inI1);
  95:Source\ComplexMathFunctions/arm_cmplx_conj_q31.c **** 
  96:Source\ComplexMathFunctions/arm_cmplx_conj_q31.c ****     /* read real input sample */
  97:Source\ComplexMathFunctions/arm_cmplx_conj_q31.c ****     inR3 = pSrc[4];
  98:Source\ComplexMathFunctions/arm_cmplx_conj_q31.c ****     /* store real input sample */
  99:Source\ComplexMathFunctions/arm_cmplx_conj_q31.c ****     pDst[4] = inR3;
 100:Source\ComplexMathFunctions/arm_cmplx_conj_q31.c **** 
 101:Source\ComplexMathFunctions/arm_cmplx_conj_q31.c ****     /* read imaginary input sample */
 102:Source\ComplexMathFunctions/arm_cmplx_conj_q31.c ****     inI3 = pSrc[5];
 103:Source\ComplexMathFunctions/arm_cmplx_conj_q31.c **** 
 104:Source\ComplexMathFunctions/arm_cmplx_conj_q31.c ****     /* negate imaginary input sample */
 105:Source\ComplexMathFunctions/arm_cmplx_conj_q31.c ****     inI2 = __QSUB(0, inI2);
 106:Source\ComplexMathFunctions/arm_cmplx_conj_q31.c **** 
 107:Source\ComplexMathFunctions/arm_cmplx_conj_q31.c ****     /* read real input sample */
 108:Source\ComplexMathFunctions/arm_cmplx_conj_q31.c ****     inR4 = pSrc[6];
 109:Source\ComplexMathFunctions/arm_cmplx_conj_q31.c ****     /* store real input sample */
 110:Source\ComplexMathFunctions/arm_cmplx_conj_q31.c ****     pDst[6] = inR4;
 111:Source\ComplexMathFunctions/arm_cmplx_conj_q31.c **** 
 112:Source\ComplexMathFunctions/arm_cmplx_conj_q31.c ****     /* negate imaginary input sample */
 113:Source\ComplexMathFunctions/arm_cmplx_conj_q31.c ****     inI3 = __QSUB(0, inI3);
 114:Source\ComplexMathFunctions/arm_cmplx_conj_q31.c **** 
 115:Source\ComplexMathFunctions/arm_cmplx_conj_q31.c ****     /* store imaginary input sample */
 116:Source\ComplexMathFunctions/arm_cmplx_conj_q31.c ****     inI4 = pSrc[7];
 117:Source\ComplexMathFunctions/arm_cmplx_conj_q31.c **** 
 118:Source\ComplexMathFunctions/arm_cmplx_conj_q31.c ****     /* store imaginary input samples */
 119:Source\ComplexMathFunctions/arm_cmplx_conj_q31.c ****     pDst[1] = inI1;
 120:Source\ComplexMathFunctions/arm_cmplx_conj_q31.c **** 
 121:Source\ComplexMathFunctions/arm_cmplx_conj_q31.c ****     /* negate imaginary input sample */
 122:Source\ComplexMathFunctions/arm_cmplx_conj_q31.c ****     inI4 = __QSUB(0, inI4);
 123:Source\ComplexMathFunctions/arm_cmplx_conj_q31.c **** 
 124:Source\ComplexMathFunctions/arm_cmplx_conj_q31.c ****     /* store imaginary input samples */
 125:Source\ComplexMathFunctions/arm_cmplx_conj_q31.c ****     pDst[3] = inI2;
 126:Source\ComplexMathFunctions/arm_cmplx_conj_q31.c **** 
 127:Source\ComplexMathFunctions/arm_cmplx_conj_q31.c ****     /* increment source pointer by 8 to proecess next samples */
 128:Source\ComplexMathFunctions/arm_cmplx_conj_q31.c ****     pSrc += 8u;
 129:Source\ComplexMathFunctions/arm_cmplx_conj_q31.c **** 
 130:Source\ComplexMathFunctions/arm_cmplx_conj_q31.c ****     /* store imaginary input samples */
 131:Source\ComplexMathFunctions/arm_cmplx_conj_q31.c ****     pDst[5] = inI3;
 132:Source\ComplexMathFunctions/arm_cmplx_conj_q31.c ****     pDst[7] = inI4;
 133:Source\ComplexMathFunctions/arm_cmplx_conj_q31.c **** 
ARM GAS  C:\Users\fneves\AppData\Local\Temp\ccu9Fi1W.s 			page 4


 134:Source\ComplexMathFunctions/arm_cmplx_conj_q31.c ****     /* increment destination pointer by 8 to process next samples */
 135:Source\ComplexMathFunctions/arm_cmplx_conj_q31.c ****     pDst += 8u;
 136:Source\ComplexMathFunctions/arm_cmplx_conj_q31.c **** 
 137:Source\ComplexMathFunctions/arm_cmplx_conj_q31.c ****     /* Decrement the loop counter */
 138:Source\ComplexMathFunctions/arm_cmplx_conj_q31.c ****     blkCnt--;
 139:Source\ComplexMathFunctions/arm_cmplx_conj_q31.c ****   }
 140:Source\ComplexMathFunctions/arm_cmplx_conj_q31.c **** 
 141:Source\ComplexMathFunctions/arm_cmplx_conj_q31.c ****   /* If the numSamples is not a multiple of 4, compute any remaining output samples here.
 142:Source\ComplexMathFunctions/arm_cmplx_conj_q31.c ****    ** No loop unrolling is used. */
 143:Source\ComplexMathFunctions/arm_cmplx_conj_q31.c ****   blkCnt = numSamples % 0x4u;
 144:Source\ComplexMathFunctions/arm_cmplx_conj_q31.c **** 
 145:Source\ComplexMathFunctions/arm_cmplx_conj_q31.c **** #else
 146:Source\ComplexMathFunctions/arm_cmplx_conj_q31.c **** 
 147:Source\ComplexMathFunctions/arm_cmplx_conj_q31.c ****   /* Run the below code for Cortex-M0 */
 148:Source\ComplexMathFunctions/arm_cmplx_conj_q31.c ****   blkCnt = numSamples;
  39              		.loc 1 148 0
  40 000c 7B68     		ldr	r3, [r7, #4]
  41 000e 7B61     		str	r3, [r7, #20]
 149:Source\ComplexMathFunctions/arm_cmplx_conj_q31.c **** 
 150:Source\ComplexMathFunctions/arm_cmplx_conj_q31.c **** 
 151:Source\ComplexMathFunctions/arm_cmplx_conj_q31.c **** #endif /* #if defined (ARM_MATH_DSP) */
 152:Source\ComplexMathFunctions/arm_cmplx_conj_q31.c **** 
 153:Source\ComplexMathFunctions/arm_cmplx_conj_q31.c ****   while (blkCnt > 0u)
  42              		.loc 1 153 0
  43 0010 1CE0     		b	.L2
  44              	.L5:
 154:Source\ComplexMathFunctions/arm_cmplx_conj_q31.c ****   {
 155:Source\ComplexMathFunctions/arm_cmplx_conj_q31.c ****     /* C[0]+jC[1] = A[0]+ j (-1) A[1] */
 156:Source\ComplexMathFunctions/arm_cmplx_conj_q31.c ****     /* Calculate Complex Conjugate and then store the results in the destination buffer. */
 157:Source\ComplexMathFunctions/arm_cmplx_conj_q31.c ****     /* Saturated to 0x7fffffff if the input is -1(0x80000000) */
 158:Source\ComplexMathFunctions/arm_cmplx_conj_q31.c ****     *pDst++ = *pSrc++;
  45              		.loc 1 158 0
  46 0012 BB68     		ldr	r3, [r7, #8]
  47 0014 1A1D     		add	r2, r3, #4
  48 0016 BA60     		str	r2, [r7, #8]
  49 0018 FA68     		ldr	r2, [r7, #12]
  50 001a 111D     		add	r1, r2, #4
  51 001c F960     		str	r1, [r7, #12]
  52 001e 1268     		ldr	r2, [r2]
  53 0020 1A60     		str	r2, [r3]
 159:Source\ComplexMathFunctions/arm_cmplx_conj_q31.c ****     in = *pSrc++;
  54              		.loc 1 159 0
  55 0022 FB68     		ldr	r3, [r7, #12]
  56 0024 1A1D     		add	r2, r3, #4
  57 0026 FA60     		str	r2, [r7, #12]
  58 0028 1B68     		ldr	r3, [r3]
  59 002a 3B61     		str	r3, [r7, #16]
 160:Source\ComplexMathFunctions/arm_cmplx_conj_q31.c ****     *pDst++ = (in == INT32_MIN) ? INT32_MAX : -in;
  60              		.loc 1 160 0
  61 002c BB68     		ldr	r3, [r7, #8]
  62 002e 1A1D     		add	r2, r3, #4
  63 0030 BA60     		str	r2, [r7, #8]
  64 0032 3969     		ldr	r1, [r7, #16]
  65 0034 8022     		mov	r2, #128
  66 0036 1206     		lsl	r2, r2, #24
  67 0038 9142     		cmp	r1, r2
  68 003a 02D0     		beq	.L3
ARM GAS  C:\Users\fneves\AppData\Local\Temp\ccu9Fi1W.s 			page 5


  69              		.loc 1 160 0 is_stmt 0 discriminator 1
  70 003c 3A69     		ldr	r2, [r7, #16]
  71 003e 5242     		neg	r2, r2
  72 0040 00E0     		b	.L4
  73              	.L3:
  74              		.loc 1 160 0 discriminator 2
  75 0042 054A     		ldr	r2, .L6
  76              	.L4:
  77              		.loc 1 160 0 discriminator 4
  78 0044 1A60     		str	r2, [r3]
 161:Source\ComplexMathFunctions/arm_cmplx_conj_q31.c **** 
 162:Source\ComplexMathFunctions/arm_cmplx_conj_q31.c ****     /* Decrement the loop counter */
 163:Source\ComplexMathFunctions/arm_cmplx_conj_q31.c ****     blkCnt--;
  79              		.loc 1 163 0 is_stmt 1 discriminator 4
  80 0046 7B69     		ldr	r3, [r7, #20]
  81 0048 013B     		sub	r3, r3, #1
  82 004a 7B61     		str	r3, [r7, #20]
  83              	.L2:
 153:Source\ComplexMathFunctions/arm_cmplx_conj_q31.c ****   {
  84              		.loc 1 153 0
  85 004c 7B69     		ldr	r3, [r7, #20]
  86 004e 002B     		cmp	r3, #0
  87 0050 DFD1     		bne	.L5
 164:Source\ComplexMathFunctions/arm_cmplx_conj_q31.c ****   }
 165:Source\ComplexMathFunctions/arm_cmplx_conj_q31.c **** }
  88              		.loc 1 165 0
  89 0052 BD46     		mov	sp, r7
  90 0054 06B0     		add	sp, sp, #24
  91              		@ sp needed
  92 0056 80BD     		pop	{r7, pc}
  93              	.L7:
  94              		.align	2
  95              	.L6:
  96 0058 FFFFFF7F 		.word	2147483647
  97              		.cfi_endproc
  98              	.LFE82:
  99              		.size	arm_cmplx_conj_q31, .-arm_cmplx_conj_q31
 100              		.text
 101              	.Letext0:
 102              		.file 2 "c:\\program files (x86)\\cypress\\psoc creator\\4.0\\psoc creator\\import\\gnu\\arm\\4.9.
 103              		.file 3 "c:\\program files (x86)\\cypress\\psoc creator\\4.0\\psoc creator\\import\\gnu\\arm\\4.9.
 104              		.file 4 ".\\Include/arm_math.h"