ARM GAS  C:\Users\fneves\AppData\Local\Temp\ccSC9LcG.s 			page 1


   1              		.cpu cortex-m0plus
   2              		.fpu softvfp
   3              		.eabi_attribute 20, 1
   4              		.eabi_attribute 21, 1
   5              		.eabi_attribute 23, 3
   6              		.eabi_attribute 24, 1
   7              		.eabi_attribute 25, 1
   8              		.eabi_attribute 26, 1
   9              		.eabi_attribute 30, 6
  10              		.eabi_attribute 34, 0
  11              		.eabi_attribute 18, 4
  12              		.code	16
  13              		.file	"arm_cmplx_mag_squared_f32.c"
  14              		.text
  15              	.Ltext0:
  16              		.cfi_sections	.debug_frame
  17              		.global	__aeabi_fmul
  18              		.global	__aeabi_fadd
  19              		.section	.text.arm_cmplx_mag_squared_f32,"ax",%progbits
  20              		.align	2
  21              		.global	arm_cmplx_mag_squared_f32
  22              		.code	16
  23              		.thumb_func
  24              		.type	arm_cmplx_mag_squared_f32, %function
  25              	arm_cmplx_mag_squared_f32:
  26              	.LFB82:
  27              		.file 1 "Source\\ComplexMathFunctions\\arm_cmplx_mag_squared_f32.c"
   1:Source\ComplexMathFunctions/arm_cmplx_mag_squared_f32.c **** /* ----------------------------------------------------------------------
   2:Source\ComplexMathFunctions/arm_cmplx_mag_squared_f32.c ****  * Project:      CMSIS DSP Library
   3:Source\ComplexMathFunctions/arm_cmplx_mag_squared_f32.c ****  * Title:        arm_cmplx_mag_squared_f32.c
   4:Source\ComplexMathFunctions/arm_cmplx_mag_squared_f32.c ****  * Description:  Floating-point complex magnitude squared
   5:Source\ComplexMathFunctions/arm_cmplx_mag_squared_f32.c ****  *
   6:Source\ComplexMathFunctions/arm_cmplx_mag_squared_f32.c ****  * $Date:        27. January 2017
   7:Source\ComplexMathFunctions/arm_cmplx_mag_squared_f32.c ****  * $Revision:    V.1.5.1
   8:Source\ComplexMathFunctions/arm_cmplx_mag_squared_f32.c ****  *
   9:Source\ComplexMathFunctions/arm_cmplx_mag_squared_f32.c ****  * Target Processor: Cortex-M cores
  10:Source\ComplexMathFunctions/arm_cmplx_mag_squared_f32.c ****  * -------------------------------------------------------------------- */
  11:Source\ComplexMathFunctions/arm_cmplx_mag_squared_f32.c **** /*
  12:Source\ComplexMathFunctions/arm_cmplx_mag_squared_f32.c ****  * Copyright (C) 2010-2017 ARM Limited or its affiliates. All rights reserved.
  13:Source\ComplexMathFunctions/arm_cmplx_mag_squared_f32.c ****  *
  14:Source\ComplexMathFunctions/arm_cmplx_mag_squared_f32.c ****  * SPDX-License-Identifier: Apache-2.0
  15:Source\ComplexMathFunctions/arm_cmplx_mag_squared_f32.c ****  *
  16:Source\ComplexMathFunctions/arm_cmplx_mag_squared_f32.c ****  * Licensed under the Apache License, Version 2.0 (the License); you may
  17:Source\ComplexMathFunctions/arm_cmplx_mag_squared_f32.c ****  * not use this file except in compliance with the License.
  18:Source\ComplexMathFunctions/arm_cmplx_mag_squared_f32.c ****  * You may obtain a copy of the License at
  19:Source\ComplexMathFunctions/arm_cmplx_mag_squared_f32.c ****  *
  20:Source\ComplexMathFunctions/arm_cmplx_mag_squared_f32.c ****  * www.apache.org/licenses/LICENSE-2.0
  21:Source\ComplexMathFunctions/arm_cmplx_mag_squared_f32.c ****  *
  22:Source\ComplexMathFunctions/arm_cmplx_mag_squared_f32.c ****  * Unless required by applicable law or agreed to in writing, software
  23:Source\ComplexMathFunctions/arm_cmplx_mag_squared_f32.c ****  * distributed under the License is distributed on an AS IS BASIS, WITHOUT
  24:Source\ComplexMathFunctions/arm_cmplx_mag_squared_f32.c ****  * WARRANTIES OR CONDITIONS OF ANY KIND, either express or implied.
  25:Source\ComplexMathFunctions/arm_cmplx_mag_squared_f32.c ****  * See the License for the specific language governing permissions and
  26:Source\ComplexMathFunctions/arm_cmplx_mag_squared_f32.c ****  * limitations under the License.
  27:Source\ComplexMathFunctions/arm_cmplx_mag_squared_f32.c ****  */
  28:Source\ComplexMathFunctions/arm_cmplx_mag_squared_f32.c **** 
  29:Source\ComplexMathFunctions/arm_cmplx_mag_squared_f32.c **** #include "arm_math.h"
  30:Source\ComplexMathFunctions/arm_cmplx_mag_squared_f32.c **** 
ARM GAS  C:\Users\fneves\AppData\Local\Temp\ccSC9LcG.s 			page 2


  31:Source\ComplexMathFunctions/arm_cmplx_mag_squared_f32.c **** /**
  32:Source\ComplexMathFunctions/arm_cmplx_mag_squared_f32.c ****  * @ingroup groupCmplxMath
  33:Source\ComplexMathFunctions/arm_cmplx_mag_squared_f32.c ****  */
  34:Source\ComplexMathFunctions/arm_cmplx_mag_squared_f32.c **** 
  35:Source\ComplexMathFunctions/arm_cmplx_mag_squared_f32.c **** /**
  36:Source\ComplexMathFunctions/arm_cmplx_mag_squared_f32.c ****  * @defgroup cmplx_mag_squared Complex Magnitude Squared
  37:Source\ComplexMathFunctions/arm_cmplx_mag_squared_f32.c ****  *
  38:Source\ComplexMathFunctions/arm_cmplx_mag_squared_f32.c ****  * Computes the magnitude squared of the elements of a complex data vector.
  39:Source\ComplexMathFunctions/arm_cmplx_mag_squared_f32.c ****  *
  40:Source\ComplexMathFunctions/arm_cmplx_mag_squared_f32.c ****  * The <code>pSrc</code> points to the source data and
  41:Source\ComplexMathFunctions/arm_cmplx_mag_squared_f32.c ****  * <code>pDst</code> points to the where the result should be written.
  42:Source\ComplexMathFunctions/arm_cmplx_mag_squared_f32.c ****  * <code>numSamples</code> specifies the number of complex samples
  43:Source\ComplexMathFunctions/arm_cmplx_mag_squared_f32.c ****  * in the input array and the data is stored in an interleaved fashion
  44:Source\ComplexMathFunctions/arm_cmplx_mag_squared_f32.c ****  * (real, imag, real, imag, ...).
  45:Source\ComplexMathFunctions/arm_cmplx_mag_squared_f32.c ****  * The input array has a total of <code>2*numSamples</code> values;
  46:Source\ComplexMathFunctions/arm_cmplx_mag_squared_f32.c ****  * the output array has a total of <code>numSamples</code> values.
  47:Source\ComplexMathFunctions/arm_cmplx_mag_squared_f32.c ****  *
  48:Source\ComplexMathFunctions/arm_cmplx_mag_squared_f32.c ****  * The underlying algorithm is used:
  49:Source\ComplexMathFunctions/arm_cmplx_mag_squared_f32.c ****  *
  50:Source\ComplexMathFunctions/arm_cmplx_mag_squared_f32.c ****  * <pre>
  51:Source\ComplexMathFunctions/arm_cmplx_mag_squared_f32.c ****  * for(n=0; n<numSamples; n++) {
  52:Source\ComplexMathFunctions/arm_cmplx_mag_squared_f32.c ****  *     pDst[n] = pSrc[(2*n)+0]^2 + pSrc[(2*n)+1]^2;
  53:Source\ComplexMathFunctions/arm_cmplx_mag_squared_f32.c ****  * }
  54:Source\ComplexMathFunctions/arm_cmplx_mag_squared_f32.c ****  * </pre>
  55:Source\ComplexMathFunctions/arm_cmplx_mag_squared_f32.c ****  *
  56:Source\ComplexMathFunctions/arm_cmplx_mag_squared_f32.c ****  * There are separate functions for floating-point, Q15, and Q31 data types.
  57:Source\ComplexMathFunctions/arm_cmplx_mag_squared_f32.c ****  */
  58:Source\ComplexMathFunctions/arm_cmplx_mag_squared_f32.c **** 
  59:Source\ComplexMathFunctions/arm_cmplx_mag_squared_f32.c **** /**
  60:Source\ComplexMathFunctions/arm_cmplx_mag_squared_f32.c ****  * @addtogroup cmplx_mag_squared
  61:Source\ComplexMathFunctions/arm_cmplx_mag_squared_f32.c ****  * @{
  62:Source\ComplexMathFunctions/arm_cmplx_mag_squared_f32.c ****  */
  63:Source\ComplexMathFunctions/arm_cmplx_mag_squared_f32.c **** 
  64:Source\ComplexMathFunctions/arm_cmplx_mag_squared_f32.c **** 
  65:Source\ComplexMathFunctions/arm_cmplx_mag_squared_f32.c **** /**
  66:Source\ComplexMathFunctions/arm_cmplx_mag_squared_f32.c ****  * @brief  Floating-point complex magnitude squared
  67:Source\ComplexMathFunctions/arm_cmplx_mag_squared_f32.c ****  * @param[in]  *pSrc points to the complex input vector
  68:Source\ComplexMathFunctions/arm_cmplx_mag_squared_f32.c ****  * @param[out]  *pDst points to the real output vector
  69:Source\ComplexMathFunctions/arm_cmplx_mag_squared_f32.c ****  * @param[in]  numSamples number of complex samples in the input vector
  70:Source\ComplexMathFunctions/arm_cmplx_mag_squared_f32.c ****  * @return none.
  71:Source\ComplexMathFunctions/arm_cmplx_mag_squared_f32.c ****  */
  72:Source\ComplexMathFunctions/arm_cmplx_mag_squared_f32.c **** 
  73:Source\ComplexMathFunctions/arm_cmplx_mag_squared_f32.c **** void arm_cmplx_mag_squared_f32(
  74:Source\ComplexMathFunctions/arm_cmplx_mag_squared_f32.c ****   float32_t * pSrc,
  75:Source\ComplexMathFunctions/arm_cmplx_mag_squared_f32.c ****   float32_t * pDst,
  76:Source\ComplexMathFunctions/arm_cmplx_mag_squared_f32.c ****   uint32_t numSamples)
  77:Source\ComplexMathFunctions/arm_cmplx_mag_squared_f32.c **** {
  28              		.loc 1 77 0
  29              		.cfi_startproc
  30 0000 B0B5     		push	{r4, r5, r7, lr}
  31              		.cfi_def_cfa_offset 16
  32              		.cfi_offset 4, -16
  33              		.cfi_offset 5, -12
  34              		.cfi_offset 7, -8
  35              		.cfi_offset 14, -4
  36 0002 88B0     		sub	sp, sp, #32
  37              		.cfi_def_cfa_offset 48
ARM GAS  C:\Users\fneves\AppData\Local\Temp\ccSC9LcG.s 			page 3


  38 0004 00AF     		add	r7, sp, #0
  39              		.cfi_def_cfa_register 7
  40 0006 F860     		str	r0, [r7, #12]
  41 0008 B960     		str	r1, [r7, #8]
  42 000a 7A60     		str	r2, [r7, #4]
  78:Source\ComplexMathFunctions/arm_cmplx_mag_squared_f32.c ****   float32_t real, imag;                          /* Temporary variables to store real and imaginary
  79:Source\ComplexMathFunctions/arm_cmplx_mag_squared_f32.c ****   uint32_t blkCnt;                               /* loop counter */
  80:Source\ComplexMathFunctions/arm_cmplx_mag_squared_f32.c **** 
  81:Source\ComplexMathFunctions/arm_cmplx_mag_squared_f32.c **** #if defined (ARM_MATH_DSP)
  82:Source\ComplexMathFunctions/arm_cmplx_mag_squared_f32.c ****   float32_t real1, real2, real3, real4;          /* Temporary variables to hold real values */
  83:Source\ComplexMathFunctions/arm_cmplx_mag_squared_f32.c ****   float32_t imag1, imag2, imag3, imag4;          /* Temporary variables to hold imaginary values */
  84:Source\ComplexMathFunctions/arm_cmplx_mag_squared_f32.c ****   float32_t mul1, mul2, mul3, mul4;              /* Temporary variables */
  85:Source\ComplexMathFunctions/arm_cmplx_mag_squared_f32.c ****   float32_t mul5, mul6, mul7, mul8;              /* Temporary variables */
  86:Source\ComplexMathFunctions/arm_cmplx_mag_squared_f32.c ****   float32_t out1, out2, out3, out4;              /* Temporary variables to hold output values */
  87:Source\ComplexMathFunctions/arm_cmplx_mag_squared_f32.c **** 
  88:Source\ComplexMathFunctions/arm_cmplx_mag_squared_f32.c ****   /*loop Unrolling */
  89:Source\ComplexMathFunctions/arm_cmplx_mag_squared_f32.c ****   blkCnt = numSamples >> 2u;
  90:Source\ComplexMathFunctions/arm_cmplx_mag_squared_f32.c **** 
  91:Source\ComplexMathFunctions/arm_cmplx_mag_squared_f32.c ****   /* First part of the processing with loop unrolling.  Compute 4 outputs at a time.
  92:Source\ComplexMathFunctions/arm_cmplx_mag_squared_f32.c ****    ** a second loop below computes the remaining 1 to 3 samples. */
  93:Source\ComplexMathFunctions/arm_cmplx_mag_squared_f32.c ****   while (blkCnt > 0u)
  94:Source\ComplexMathFunctions/arm_cmplx_mag_squared_f32.c ****   {
  95:Source\ComplexMathFunctions/arm_cmplx_mag_squared_f32.c ****     /* C[0] = (A[0] * A[0] + A[1] * A[1]) */
  96:Source\ComplexMathFunctions/arm_cmplx_mag_squared_f32.c ****     /* read real input sample from source buffer */
  97:Source\ComplexMathFunctions/arm_cmplx_mag_squared_f32.c ****     real1 = pSrc[0];
  98:Source\ComplexMathFunctions/arm_cmplx_mag_squared_f32.c ****     /* read imaginary input sample from source buffer */
  99:Source\ComplexMathFunctions/arm_cmplx_mag_squared_f32.c ****     imag1 = pSrc[1];
 100:Source\ComplexMathFunctions/arm_cmplx_mag_squared_f32.c **** 
 101:Source\ComplexMathFunctions/arm_cmplx_mag_squared_f32.c ****     /* calculate power of real value */
 102:Source\ComplexMathFunctions/arm_cmplx_mag_squared_f32.c ****     mul1 = real1 * real1;
 103:Source\ComplexMathFunctions/arm_cmplx_mag_squared_f32.c **** 
 104:Source\ComplexMathFunctions/arm_cmplx_mag_squared_f32.c ****     /* read real input sample from source buffer */
 105:Source\ComplexMathFunctions/arm_cmplx_mag_squared_f32.c ****     real2 = pSrc[2];
 106:Source\ComplexMathFunctions/arm_cmplx_mag_squared_f32.c **** 
 107:Source\ComplexMathFunctions/arm_cmplx_mag_squared_f32.c ****     /* calculate power of imaginary value */
 108:Source\ComplexMathFunctions/arm_cmplx_mag_squared_f32.c ****     mul2 = imag1 * imag1;
 109:Source\ComplexMathFunctions/arm_cmplx_mag_squared_f32.c **** 
 110:Source\ComplexMathFunctions/arm_cmplx_mag_squared_f32.c ****     /* read imaginary input sample from source buffer */
 111:Source\ComplexMathFunctions/arm_cmplx_mag_squared_f32.c ****     imag2 = pSrc[3];
 112:Source\ComplexMathFunctions/arm_cmplx_mag_squared_f32.c **** 
 113:Source\ComplexMathFunctions/arm_cmplx_mag_squared_f32.c ****     /* calculate power of real value */
 114:Source\ComplexMathFunctions/arm_cmplx_mag_squared_f32.c ****     mul3 = real2 * real2;
 115:Source\ComplexMathFunctions/arm_cmplx_mag_squared_f32.c **** 
 116:Source\ComplexMathFunctions/arm_cmplx_mag_squared_f32.c ****     /* read real input sample from source buffer */
 117:Source\ComplexMathFunctions/arm_cmplx_mag_squared_f32.c ****     real3 = pSrc[4];
 118:Source\ComplexMathFunctions/arm_cmplx_mag_squared_f32.c **** 
 119:Source\ComplexMathFunctions/arm_cmplx_mag_squared_f32.c ****     /* calculate power of imaginary value */
 120:Source\ComplexMathFunctions/arm_cmplx_mag_squared_f32.c ****     mul4 = imag2 * imag2;
 121:Source\ComplexMathFunctions/arm_cmplx_mag_squared_f32.c **** 
 122:Source\ComplexMathFunctions/arm_cmplx_mag_squared_f32.c ****     /* read imaginary input sample from source buffer */
 123:Source\ComplexMathFunctions/arm_cmplx_mag_squared_f32.c ****     imag3 = pSrc[5];
 124:Source\ComplexMathFunctions/arm_cmplx_mag_squared_f32.c **** 
 125:Source\ComplexMathFunctions/arm_cmplx_mag_squared_f32.c ****     /* calculate power of real value */
 126:Source\ComplexMathFunctions/arm_cmplx_mag_squared_f32.c ****     mul5 = real3 * real3;
 127:Source\ComplexMathFunctions/arm_cmplx_mag_squared_f32.c ****     /* calculate power of imaginary value */
 128:Source\ComplexMathFunctions/arm_cmplx_mag_squared_f32.c ****     mul6 = imag3 * imag3;
 129:Source\ComplexMathFunctions/arm_cmplx_mag_squared_f32.c **** 
ARM GAS  C:\Users\fneves\AppData\Local\Temp\ccSC9LcG.s 			page 4


 130:Source\ComplexMathFunctions/arm_cmplx_mag_squared_f32.c ****     /* read real input sample from source buffer */
 131:Source\ComplexMathFunctions/arm_cmplx_mag_squared_f32.c ****     real4 = pSrc[6];
 132:Source\ComplexMathFunctions/arm_cmplx_mag_squared_f32.c **** 
 133:Source\ComplexMathFunctions/arm_cmplx_mag_squared_f32.c ****     /* accumulate real and imaginary powers */
 134:Source\ComplexMathFunctions/arm_cmplx_mag_squared_f32.c ****     out1 = mul1 + mul2;
 135:Source\ComplexMathFunctions/arm_cmplx_mag_squared_f32.c **** 
 136:Source\ComplexMathFunctions/arm_cmplx_mag_squared_f32.c ****     /* read imaginary input sample from source buffer */
 137:Source\ComplexMathFunctions/arm_cmplx_mag_squared_f32.c ****     imag4 = pSrc[7];
 138:Source\ComplexMathFunctions/arm_cmplx_mag_squared_f32.c **** 
 139:Source\ComplexMathFunctions/arm_cmplx_mag_squared_f32.c ****     /* accumulate real and imaginary powers */
 140:Source\ComplexMathFunctions/arm_cmplx_mag_squared_f32.c ****     out2 = mul3 + mul4;
 141:Source\ComplexMathFunctions/arm_cmplx_mag_squared_f32.c **** 
 142:Source\ComplexMathFunctions/arm_cmplx_mag_squared_f32.c ****     /* calculate power of real value */
 143:Source\ComplexMathFunctions/arm_cmplx_mag_squared_f32.c ****     mul7 = real4 * real4;
 144:Source\ComplexMathFunctions/arm_cmplx_mag_squared_f32.c ****     /* calculate power of imaginary value */
 145:Source\ComplexMathFunctions/arm_cmplx_mag_squared_f32.c ****     mul8 = imag4 * imag4;
 146:Source\ComplexMathFunctions/arm_cmplx_mag_squared_f32.c **** 
 147:Source\ComplexMathFunctions/arm_cmplx_mag_squared_f32.c ****     /* store output to destination */
 148:Source\ComplexMathFunctions/arm_cmplx_mag_squared_f32.c ****     pDst[0] = out1;
 149:Source\ComplexMathFunctions/arm_cmplx_mag_squared_f32.c **** 
 150:Source\ComplexMathFunctions/arm_cmplx_mag_squared_f32.c ****     /* accumulate real and imaginary powers */
 151:Source\ComplexMathFunctions/arm_cmplx_mag_squared_f32.c ****     out3 = mul5 + mul6;
 152:Source\ComplexMathFunctions/arm_cmplx_mag_squared_f32.c **** 
 153:Source\ComplexMathFunctions/arm_cmplx_mag_squared_f32.c ****     /* store output to destination */
 154:Source\ComplexMathFunctions/arm_cmplx_mag_squared_f32.c ****     pDst[1] = out2;
 155:Source\ComplexMathFunctions/arm_cmplx_mag_squared_f32.c **** 
 156:Source\ComplexMathFunctions/arm_cmplx_mag_squared_f32.c ****     /* accumulate real and imaginary powers */
 157:Source\ComplexMathFunctions/arm_cmplx_mag_squared_f32.c ****     out4 = mul7 + mul8;
 158:Source\ComplexMathFunctions/arm_cmplx_mag_squared_f32.c **** 
 159:Source\ComplexMathFunctions/arm_cmplx_mag_squared_f32.c ****     /* store output to destination */
 160:Source\ComplexMathFunctions/arm_cmplx_mag_squared_f32.c ****     pDst[2] = out3;
 161:Source\ComplexMathFunctions/arm_cmplx_mag_squared_f32.c **** 
 162:Source\ComplexMathFunctions/arm_cmplx_mag_squared_f32.c ****     /* increment destination pointer by 8 to process next samples */
 163:Source\ComplexMathFunctions/arm_cmplx_mag_squared_f32.c ****     pSrc += 8u;
 164:Source\ComplexMathFunctions/arm_cmplx_mag_squared_f32.c **** 
 165:Source\ComplexMathFunctions/arm_cmplx_mag_squared_f32.c ****     /* store output to destination */
 166:Source\ComplexMathFunctions/arm_cmplx_mag_squared_f32.c ****     pDst[3] = out4;
 167:Source\ComplexMathFunctions/arm_cmplx_mag_squared_f32.c **** 
 168:Source\ComplexMathFunctions/arm_cmplx_mag_squared_f32.c ****     /* increment destination pointer by 4 to process next samples */
 169:Source\ComplexMathFunctions/arm_cmplx_mag_squared_f32.c ****     pDst += 4u;
 170:Source\ComplexMathFunctions/arm_cmplx_mag_squared_f32.c **** 
 171:Source\ComplexMathFunctions/arm_cmplx_mag_squared_f32.c ****     /* Decrement the loop counter */
 172:Source\ComplexMathFunctions/arm_cmplx_mag_squared_f32.c ****     blkCnt--;
 173:Source\ComplexMathFunctions/arm_cmplx_mag_squared_f32.c ****   }
 174:Source\ComplexMathFunctions/arm_cmplx_mag_squared_f32.c **** 
 175:Source\ComplexMathFunctions/arm_cmplx_mag_squared_f32.c ****   /* If the numSamples is not a multiple of 4, compute any remaining output samples here.
 176:Source\ComplexMathFunctions/arm_cmplx_mag_squared_f32.c ****    ** No loop unrolling is used. */
 177:Source\ComplexMathFunctions/arm_cmplx_mag_squared_f32.c ****   blkCnt = numSamples % 0x4u;
 178:Source\ComplexMathFunctions/arm_cmplx_mag_squared_f32.c **** 
 179:Source\ComplexMathFunctions/arm_cmplx_mag_squared_f32.c **** #else
 180:Source\ComplexMathFunctions/arm_cmplx_mag_squared_f32.c **** 
 181:Source\ComplexMathFunctions/arm_cmplx_mag_squared_f32.c ****   /* Run the below code for Cortex-M0 */
 182:Source\ComplexMathFunctions/arm_cmplx_mag_squared_f32.c **** 
 183:Source\ComplexMathFunctions/arm_cmplx_mag_squared_f32.c ****   blkCnt = numSamples;
  43              		.loc 1 183 0
  44 000c 7B68     		ldr	r3, [r7, #4]
  45 000e FB61     		str	r3, [r7, #28]
ARM GAS  C:\Users\fneves\AppData\Local\Temp\ccSC9LcG.s 			page 5


 184:Source\ComplexMathFunctions/arm_cmplx_mag_squared_f32.c **** 
 185:Source\ComplexMathFunctions/arm_cmplx_mag_squared_f32.c **** #endif /* #if defined (ARM_MATH_DSP) */
 186:Source\ComplexMathFunctions/arm_cmplx_mag_squared_f32.c **** 
 187:Source\ComplexMathFunctions/arm_cmplx_mag_squared_f32.c ****   while (blkCnt > 0u)
  46              		.loc 1 187 0
  47 0010 20E0     		b	.L2
  48              	.L3:
 188:Source\ComplexMathFunctions/arm_cmplx_mag_squared_f32.c ****   {
 189:Source\ComplexMathFunctions/arm_cmplx_mag_squared_f32.c ****     /* C[0] = (A[0] * A[0] + A[1] * A[1]) */
 190:Source\ComplexMathFunctions/arm_cmplx_mag_squared_f32.c ****     real = *pSrc++;
  49              		.loc 1 190 0
  50 0012 FB68     		ldr	r3, [r7, #12]
  51 0014 1A1D     		add	r2, r3, #4
  52 0016 FA60     		str	r2, [r7, #12]
  53 0018 1B68     		ldr	r3, [r3]
  54 001a BB61     		str	r3, [r7, #24]
 191:Source\ComplexMathFunctions/arm_cmplx_mag_squared_f32.c ****     imag = *pSrc++;
  55              		.loc 1 191 0
  56 001c FB68     		ldr	r3, [r7, #12]
  57 001e 1A1D     		add	r2, r3, #4
  58 0020 FA60     		str	r2, [r7, #12]
  59 0022 1B68     		ldr	r3, [r3]
  60 0024 7B61     		str	r3, [r7, #20]
 192:Source\ComplexMathFunctions/arm_cmplx_mag_squared_f32.c **** 
 193:Source\ComplexMathFunctions/arm_cmplx_mag_squared_f32.c ****     /* out = (real * real) + (imag * imag) */
 194:Source\ComplexMathFunctions/arm_cmplx_mag_squared_f32.c ****     /* store the result in the destination buffer. */
 195:Source\ComplexMathFunctions/arm_cmplx_mag_squared_f32.c ****     *pDst++ = (real * real) + (imag * imag);
  61              		.loc 1 195 0
  62 0026 BC68     		ldr	r4, [r7, #8]
  63 0028 231D     		add	r3, r4, #4
  64 002a BB60     		str	r3, [r7, #8]
  65 002c B869     		ldr	r0, [r7, #24]
  66 002e B969     		ldr	r1, [r7, #24]
  67 0030 FFF7FEFF 		bl	__aeabi_fmul
  68 0034 031C     		add	r3, r0, #0
  69 0036 1D1C     		add	r5, r3, #0
  70 0038 7869     		ldr	r0, [r7, #20]
  71 003a 7969     		ldr	r1, [r7, #20]
  72 003c FFF7FEFF 		bl	__aeabi_fmul
  73 0040 031C     		add	r3, r0, #0
  74 0042 281C     		add	r0, r5, #0
  75 0044 191C     		add	r1, r3, #0
  76 0046 FFF7FEFF 		bl	__aeabi_fadd
  77 004a 031C     		add	r3, r0, #0
  78 004c 2360     		str	r3, [r4]
 196:Source\ComplexMathFunctions/arm_cmplx_mag_squared_f32.c **** 
 197:Source\ComplexMathFunctions/arm_cmplx_mag_squared_f32.c ****     /* Decrement the loop counter */
 198:Source\ComplexMathFunctions/arm_cmplx_mag_squared_f32.c ****     blkCnt--;
  79              		.loc 1 198 0
  80 004e FB69     		ldr	r3, [r7, #28]
  81 0050 013B     		sub	r3, r3, #1
  82 0052 FB61     		str	r3, [r7, #28]
  83              	.L2:
 187:Source\ComplexMathFunctions/arm_cmplx_mag_squared_f32.c ****   {
  84              		.loc 1 187 0
  85 0054 FB69     		ldr	r3, [r7, #28]
  86 0056 002B     		cmp	r3, #0
ARM GAS  C:\Users\fneves\AppData\Local\Temp\ccSC9LcG.s 			page 6


  87 0058 DBD1     		bne	.L3
 199:Source\ComplexMathFunctions/arm_cmplx_mag_squared_f32.c ****   }
 200:Source\ComplexMathFunctions/arm_cmplx_mag_squared_f32.c **** }
  88              		.loc 1 200 0
  89 005a BD46     		mov	sp, r7
  90 005c 08B0     		add	sp, sp, #32
  91              		@ sp needed
  92 005e B0BD     		pop	{r4, r5, r7, pc}
  93              		.cfi_endproc
  94              	.LFE82:
  95              		.size	arm_cmplx_mag_squared_f32, .-arm_cmplx_mag_squared_f32
  96              		.text
  97              	.Letext0:
  98              		.file 2 "c:\\program files (x86)\\cypress\\psoc creator\\4.0\\psoc creator\\import\\gnu\\arm\\4.9.
  99              		.file 3 "c:\\program files (x86)\\cypress\\psoc creator\\4.0\\psoc creator\\import\\gnu\\arm\\4.9.
 100              		.file 4 ".\\Include/arm_math.h"