ARM GAS  C:\Users\fneves\AppData\Local\Temp\cctWle2z.s 			page 1


   1              		.cpu cortex-m0plus
   2              		.fpu softvfp
   3              		.eabi_attribute 20, 1
   4              		.eabi_attribute 21, 1
   5              		.eabi_attribute 23, 3
   6              		.eabi_attribute 24, 1
   7              		.eabi_attribute 25, 1
   8              		.eabi_attribute 26, 1
   9              		.eabi_attribute 30, 6
  10              		.eabi_attribute 34, 0
  11              		.eabi_attribute 18, 4
  12              		.code	16
  13              		.file	"arm_fir_lattice_init_f32.c"
  14              		.text
  15              	.Ltext0:
  16              		.cfi_sections	.debug_frame
  17              		.section	.text.arm_fir_lattice_init_f32,"ax",%progbits
  18              		.align	2
  19              		.global	arm_fir_lattice_init_f32
  20              		.code	16
  21              		.thumb_func
  22              		.type	arm_fir_lattice_init_f32, %function
  23              	arm_fir_lattice_init_f32:
  24              	.LFB82:
  25              		.file 1 "Source\\FilteringFunctions\\arm_fir_lattice_init_f32.c"
   1:Source\FilteringFunctions/arm_fir_lattice_init_f32.c **** /* ----------------------------------------------------------------------
   2:Source\FilteringFunctions/arm_fir_lattice_init_f32.c ****  * Project:      CMSIS DSP Library
   3:Source\FilteringFunctions/arm_fir_lattice_init_f32.c ****  * Title:        arm_fir_lattice_init_f32.c
   4:Source\FilteringFunctions/arm_fir_lattice_init_f32.c ****  * Description:  Floating-point FIR Lattice filter initialization function
   5:Source\FilteringFunctions/arm_fir_lattice_init_f32.c ****  *
   6:Source\FilteringFunctions/arm_fir_lattice_init_f32.c ****  * $Date:        27. January 2017
   7:Source\FilteringFunctions/arm_fir_lattice_init_f32.c ****  * $Revision:    V.1.5.1
   8:Source\FilteringFunctions/arm_fir_lattice_init_f32.c ****  *
   9:Source\FilteringFunctions/arm_fir_lattice_init_f32.c ****  * Target Processor: Cortex-M cores
  10:Source\FilteringFunctions/arm_fir_lattice_init_f32.c ****  * -------------------------------------------------------------------- */
  11:Source\FilteringFunctions/arm_fir_lattice_init_f32.c **** /*
  12:Source\FilteringFunctions/arm_fir_lattice_init_f32.c ****  * Copyright (C) 2010-2017 ARM Limited or its affiliates. All rights reserved.
  13:Source\FilteringFunctions/arm_fir_lattice_init_f32.c ****  *
  14:Source\FilteringFunctions/arm_fir_lattice_init_f32.c ****  * SPDX-License-Identifier: Apache-2.0
  15:Source\FilteringFunctions/arm_fir_lattice_init_f32.c ****  *
  16:Source\FilteringFunctions/arm_fir_lattice_init_f32.c ****  * Licensed under the Apache License, Version 2.0 (the License); you may
  17:Source\FilteringFunctions/arm_fir_lattice_init_f32.c ****  * not use this file except in compliance with the License.
  18:Source\FilteringFunctions/arm_fir_lattice_init_f32.c ****  * You may obtain a copy of the License at
  19:Source\FilteringFunctions/arm_fir_lattice_init_f32.c ****  *
  20:Source\FilteringFunctions/arm_fir_lattice_init_f32.c ****  * www.apache.org/licenses/LICENSE-2.0
  21:Source\FilteringFunctions/arm_fir_lattice_init_f32.c ****  *
  22:Source\FilteringFunctions/arm_fir_lattice_init_f32.c ****  * Unless required by applicable law or agreed to in writing, software
  23:Source\FilteringFunctions/arm_fir_lattice_init_f32.c ****  * distributed under the License is distributed on an AS IS BASIS, WITHOUT
  24:Source\FilteringFunctions/arm_fir_lattice_init_f32.c ****  * WARRANTIES OR CONDITIONS OF ANY KIND, either express or implied.
  25:Source\FilteringFunctions/arm_fir_lattice_init_f32.c ****  * See the License for the specific language governing permissions and
  26:Source\FilteringFunctions/arm_fir_lattice_init_f32.c ****  * limitations under the License.
  27:Source\FilteringFunctions/arm_fir_lattice_init_f32.c ****  */
  28:Source\FilteringFunctions/arm_fir_lattice_init_f32.c **** 
  29:Source\FilteringFunctions/arm_fir_lattice_init_f32.c **** #include "arm_math.h"
  30:Source\FilteringFunctions/arm_fir_lattice_init_f32.c **** 
  31:Source\FilteringFunctions/arm_fir_lattice_init_f32.c **** /**
  32:Source\FilteringFunctions/arm_fir_lattice_init_f32.c ****  * @ingroup groupFilters
ARM GAS  C:\Users\fneves\AppData\Local\Temp\cctWle2z.s 			page 2


  33:Source\FilteringFunctions/arm_fir_lattice_init_f32.c ****  */
  34:Source\FilteringFunctions/arm_fir_lattice_init_f32.c **** 
  35:Source\FilteringFunctions/arm_fir_lattice_init_f32.c **** /**
  36:Source\FilteringFunctions/arm_fir_lattice_init_f32.c ****  * @addtogroup FIR_Lattice
  37:Source\FilteringFunctions/arm_fir_lattice_init_f32.c ****  * @{
  38:Source\FilteringFunctions/arm_fir_lattice_init_f32.c ****  */
  39:Source\FilteringFunctions/arm_fir_lattice_init_f32.c **** 
  40:Source\FilteringFunctions/arm_fir_lattice_init_f32.c **** /**
  41:Source\FilteringFunctions/arm_fir_lattice_init_f32.c ****  * @brief Initialization function for the floating-point FIR lattice filter.
  42:Source\FilteringFunctions/arm_fir_lattice_init_f32.c ****  * @param[in] *S points to an instance of the floating-point FIR lattice structure.
  43:Source\FilteringFunctions/arm_fir_lattice_init_f32.c ****  * @param[in] numStages  number of filter stages.
  44:Source\FilteringFunctions/arm_fir_lattice_init_f32.c ****  * @param[in] *pCoeffs points to the coefficient buffer.  The array is of length numStages.
  45:Source\FilteringFunctions/arm_fir_lattice_init_f32.c ****  * @param[in] *pState points to the state buffer.  The array is of length numStages.
  46:Source\FilteringFunctions/arm_fir_lattice_init_f32.c ****  * @return none.
  47:Source\FilteringFunctions/arm_fir_lattice_init_f32.c ****  */
  48:Source\FilteringFunctions/arm_fir_lattice_init_f32.c **** 
  49:Source\FilteringFunctions/arm_fir_lattice_init_f32.c **** void arm_fir_lattice_init_f32(
  50:Source\FilteringFunctions/arm_fir_lattice_init_f32.c ****   arm_fir_lattice_instance_f32 * S,
  51:Source\FilteringFunctions/arm_fir_lattice_init_f32.c ****   uint16_t numStages,
  52:Source\FilteringFunctions/arm_fir_lattice_init_f32.c ****   float32_t * pCoeffs,
  53:Source\FilteringFunctions/arm_fir_lattice_init_f32.c ****   float32_t * pState)
  54:Source\FilteringFunctions/arm_fir_lattice_init_f32.c **** {
  26              		.loc 1 54 0
  27              		.cfi_startproc
  28 0000 80B5     		push	{r7, lr}
  29              		.cfi_def_cfa_offset 8
  30              		.cfi_offset 7, -8
  31              		.cfi_offset 14, -4
  32 0002 84B0     		sub	sp, sp, #16
  33              		.cfi_def_cfa_offset 24
  34 0004 00AF     		add	r7, sp, #0
  35              		.cfi_def_cfa_register 7
  36 0006 F860     		str	r0, [r7, #12]
  37 0008 7A60     		str	r2, [r7, #4]
  38 000a 3B60     		str	r3, [r7]
  39 000c 0A23     		mov	r3, #10
  40 000e FB18     		add	r3, r7, r3
  41 0010 0A1C     		add	r2, r1, #0
  42 0012 1A80     		strh	r2, [r3]
  55:Source\FilteringFunctions/arm_fir_lattice_init_f32.c ****   /* Assign filter taps */
  56:Source\FilteringFunctions/arm_fir_lattice_init_f32.c ****   S->numStages = numStages;
  43              		.loc 1 56 0
  44 0014 FB68     		ldr	r3, [r7, #12]
  45 0016 0A22     		mov	r2, #10
  46 0018 BA18     		add	r2, r7, r2
  47 001a 1288     		ldrh	r2, [r2]
  48 001c 1A80     		strh	r2, [r3]
  57:Source\FilteringFunctions/arm_fir_lattice_init_f32.c **** 
  58:Source\FilteringFunctions/arm_fir_lattice_init_f32.c ****   /* Assign coefficient pointer */
  59:Source\FilteringFunctions/arm_fir_lattice_init_f32.c ****   S->pCoeffs = pCoeffs;
  49              		.loc 1 59 0
  50 001e FB68     		ldr	r3, [r7, #12]
  51 0020 7A68     		ldr	r2, [r7, #4]
  52 0022 9A60     		str	r2, [r3, #8]
  60:Source\FilteringFunctions/arm_fir_lattice_init_f32.c **** 
  61:Source\FilteringFunctions/arm_fir_lattice_init_f32.c ****   /* Clear state buffer and size is always numStages */
  62:Source\FilteringFunctions/arm_fir_lattice_init_f32.c ****   memset(pState, 0, (numStages) * sizeof(float32_t));
ARM GAS  C:\Users\fneves\AppData\Local\Temp\cctWle2z.s 			page 3


  53              		.loc 1 62 0
  54 0024 0A23     		mov	r3, #10
  55 0026 FB18     		add	r3, r7, r3
  56 0028 1B88     		ldrh	r3, [r3]
  57 002a 9B00     		lsl	r3, r3, #2
  58 002c 3A68     		ldr	r2, [r7]
  59 002e 101C     		mov	r0, r2
  60 0030 0021     		mov	r1, #0
  61 0032 1A1C     		mov	r2, r3
  62 0034 FFF7FEFF 		bl	memset
  63:Source\FilteringFunctions/arm_fir_lattice_init_f32.c **** 
  64:Source\FilteringFunctions/arm_fir_lattice_init_f32.c ****   /* Assign state pointer */
  65:Source\FilteringFunctions/arm_fir_lattice_init_f32.c ****   S->pState = pState;
  63              		.loc 1 65 0
  64 0038 FB68     		ldr	r3, [r7, #12]
  65 003a 3A68     		ldr	r2, [r7]
  66 003c 5A60     		str	r2, [r3, #4]
  66:Source\FilteringFunctions/arm_fir_lattice_init_f32.c **** 
  67:Source\FilteringFunctions/arm_fir_lattice_init_f32.c **** }
  67              		.loc 1 67 0
  68 003e BD46     		mov	sp, r7
  69 0040 04B0     		add	sp, sp, #16
  70              		@ sp needed
  71 0042 80BD     		pop	{r7, pc}
  72              		.cfi_endproc
  73              	.LFE82:
  74              		.size	arm_fir_lattice_init_f32, .-arm_fir_lattice_init_f32
  75              		.text
  76              	.Letext0:
  77              		.file 2 "c:\\program files (x86)\\cypress\\psoc creator\\4.0\\psoc creator\\import\\gnu\\arm\\4.9.
  78              		.file 3 "c:\\program files (x86)\\cypress\\psoc creator\\4.0\\psoc creator\\import\\gnu\\arm\\4.9.
  79              		.file 4 ".\\Include/arm_math.h"