ARM GAS  C:\Users\fneves\AppData\Local\Temp\ccntp9We.s 			page 1


   1              		.cpu cortex-m0plus
   2              		.fpu softvfp
   3              		.eabi_attribute 20, 1
   4              		.eabi_attribute 21, 1
   5              		.eabi_attribute 23, 3
   6              		.eabi_attribute 24, 1
   7              		.eabi_attribute 25, 1
   8              		.eabi_attribute 26, 1
   9              		.eabi_attribute 30, 6
  10              		.eabi_attribute 34, 0
  11              		.eabi_attribute 18, 4
  12              		.code	16
  13              		.file	"arm_shift_q31.c"
  14              		.text
  15              	.Ltext0:
  16              		.cfi_sections	.debug_frame
  17              		.section	.text.arm_shift_q31,"ax",%progbits
  18              		.align	2
  19              		.global	arm_shift_q31
  20              		.code	16
  21              		.thumb_func
  22              		.type	arm_shift_q31, %function
  23              	arm_shift_q31:
  24              	.LFB82:
  25              		.file 1 "Source\\BasicMathFunctions\\arm_shift_q31.c"
   1:Source\BasicMathFunctions/arm_shift_q31.c **** /* ----------------------------------------------------------------------
   2:Source\BasicMathFunctions/arm_shift_q31.c ****  * Project:      CMSIS DSP Library
   3:Source\BasicMathFunctions/arm_shift_q31.c ****  * Title:        arm_shift_q31.c
   4:Source\BasicMathFunctions/arm_shift_q31.c ****  * Description:  Shifts the elements of a Q31 vector by a specified number of bits
   5:Source\BasicMathFunctions/arm_shift_q31.c ****  *
   6:Source\BasicMathFunctions/arm_shift_q31.c ****  * $Date:        27. January 2017
   7:Source\BasicMathFunctions/arm_shift_q31.c ****  * $Revision:    V.1.5.1
   8:Source\BasicMathFunctions/arm_shift_q31.c ****  *
   9:Source\BasicMathFunctions/arm_shift_q31.c ****  * Target Processor: Cortex-M cores
  10:Source\BasicMathFunctions/arm_shift_q31.c ****  * -------------------------------------------------------------------- */
  11:Source\BasicMathFunctions/arm_shift_q31.c **** /*
  12:Source\BasicMathFunctions/arm_shift_q31.c ****  * Copyright (C) 2010-2017 ARM Limited or its affiliates. All rights reserved.
  13:Source\BasicMathFunctions/arm_shift_q31.c ****  *
  14:Source\BasicMathFunctions/arm_shift_q31.c ****  * SPDX-License-Identifier: Apache-2.0
  15:Source\BasicMathFunctions/arm_shift_q31.c ****  *
  16:Source\BasicMathFunctions/arm_shift_q31.c ****  * Licensed under the Apache License, Version 2.0 (the License); you may
  17:Source\BasicMathFunctions/arm_shift_q31.c ****  * not use this file except in compliance with the License.
  18:Source\BasicMathFunctions/arm_shift_q31.c ****  * You may obtain a copy of the License at
  19:Source\BasicMathFunctions/arm_shift_q31.c ****  *
  20:Source\BasicMathFunctions/arm_shift_q31.c ****  * www.apache.org/licenses/LICENSE-2.0
  21:Source\BasicMathFunctions/arm_shift_q31.c ****  *
  22:Source\BasicMathFunctions/arm_shift_q31.c ****  * Unless required by applicable law or agreed to in writing, software
  23:Source\BasicMathFunctions/arm_shift_q31.c ****  * distributed under the License is distributed on an AS IS BASIS, WITHOUT
  24:Source\BasicMathFunctions/arm_shift_q31.c ****  * WARRANTIES OR CONDITIONS OF ANY KIND, either express or implied.
  25:Source\BasicMathFunctions/arm_shift_q31.c ****  * See the License for the specific language governing permissions and
  26:Source\BasicMathFunctions/arm_shift_q31.c ****  * limitations under the License.
  27:Source\BasicMathFunctions/arm_shift_q31.c ****  */
  28:Source\BasicMathFunctions/arm_shift_q31.c **** 
  29:Source\BasicMathFunctions/arm_shift_q31.c **** #include "arm_math.h"
  30:Source\BasicMathFunctions/arm_shift_q31.c **** 
  31:Source\BasicMathFunctions/arm_shift_q31.c **** /**
  32:Source\BasicMathFunctions/arm_shift_q31.c ****  * @ingroup groupMath
ARM GAS  C:\Users\fneves\AppData\Local\Temp\ccntp9We.s 			page 2


  33:Source\BasicMathFunctions/arm_shift_q31.c ****  */
  34:Source\BasicMathFunctions/arm_shift_q31.c **** /**
  35:Source\BasicMathFunctions/arm_shift_q31.c ****  * @defgroup shift Vector Shift
  36:Source\BasicMathFunctions/arm_shift_q31.c ****  *
  37:Source\BasicMathFunctions/arm_shift_q31.c ****  * Shifts the elements of a fixed-point vector by a specified number of bits.
  38:Source\BasicMathFunctions/arm_shift_q31.c ****  * There are separate functions for Q7, Q15, and Q31 data types.
  39:Source\BasicMathFunctions/arm_shift_q31.c ****  * The underlying algorithm used is:
  40:Source\BasicMathFunctions/arm_shift_q31.c ****  *
  41:Source\BasicMathFunctions/arm_shift_q31.c ****  * <pre>
  42:Source\BasicMathFunctions/arm_shift_q31.c ****  *     pDst[n] = pSrc[n] << shift,   0 <= n < blockSize.
  43:Source\BasicMathFunctions/arm_shift_q31.c ****  * </pre>
  44:Source\BasicMathFunctions/arm_shift_q31.c ****  *
  45:Source\BasicMathFunctions/arm_shift_q31.c ****  * If <code>shift</code> is positive then the elements of the vector are shifted to the left.
  46:Source\BasicMathFunctions/arm_shift_q31.c ****  * If <code>shift</code> is negative then the elements of the vector are shifted to the right.
  47:Source\BasicMathFunctions/arm_shift_q31.c ****  *
  48:Source\BasicMathFunctions/arm_shift_q31.c ****  * The functions support in-place computation allowing the source and destination
  49:Source\BasicMathFunctions/arm_shift_q31.c ****  * pointers to reference the same memory buffer.
  50:Source\BasicMathFunctions/arm_shift_q31.c ****  */
  51:Source\BasicMathFunctions/arm_shift_q31.c **** 
  52:Source\BasicMathFunctions/arm_shift_q31.c **** /**
  53:Source\BasicMathFunctions/arm_shift_q31.c ****  * @addtogroup shift
  54:Source\BasicMathFunctions/arm_shift_q31.c ****  * @{
  55:Source\BasicMathFunctions/arm_shift_q31.c ****  */
  56:Source\BasicMathFunctions/arm_shift_q31.c **** 
  57:Source\BasicMathFunctions/arm_shift_q31.c **** /**
  58:Source\BasicMathFunctions/arm_shift_q31.c ****  * @brief  Shifts the elements of a Q31 vector a specified number of bits.
  59:Source\BasicMathFunctions/arm_shift_q31.c ****  * @param[in]  *pSrc points to the input vector
  60:Source\BasicMathFunctions/arm_shift_q31.c ****  * @param[in]  shiftBits number of bits to shift.  A positive value shifts left; a negative value s
  61:Source\BasicMathFunctions/arm_shift_q31.c ****  * @param[out]  *pDst points to the output vector
  62:Source\BasicMathFunctions/arm_shift_q31.c ****  * @param[in]  blockSize number of samples in the vector
  63:Source\BasicMathFunctions/arm_shift_q31.c ****  * @return none.
  64:Source\BasicMathFunctions/arm_shift_q31.c ****  *
  65:Source\BasicMathFunctions/arm_shift_q31.c ****  *
  66:Source\BasicMathFunctions/arm_shift_q31.c ****  * <b>Scaling and Overflow Behavior:</b>
  67:Source\BasicMathFunctions/arm_shift_q31.c ****  * \par
  68:Source\BasicMathFunctions/arm_shift_q31.c ****  * The function uses saturating arithmetic.
  69:Source\BasicMathFunctions/arm_shift_q31.c ****  * Results outside of the allowable Q31 range [0x80000000 0x7FFFFFFF] will be saturated.
  70:Source\BasicMathFunctions/arm_shift_q31.c ****  */
  71:Source\BasicMathFunctions/arm_shift_q31.c **** 
  72:Source\BasicMathFunctions/arm_shift_q31.c **** void arm_shift_q31(
  73:Source\BasicMathFunctions/arm_shift_q31.c ****   q31_t * pSrc,
  74:Source\BasicMathFunctions/arm_shift_q31.c ****   int8_t shiftBits,
  75:Source\BasicMathFunctions/arm_shift_q31.c ****   q31_t * pDst,
  76:Source\BasicMathFunctions/arm_shift_q31.c ****   uint32_t blockSize)
  77:Source\BasicMathFunctions/arm_shift_q31.c **** {
  26              		.loc 1 77 0
  27              		.cfi_startproc
  28 0000 B0B5     		push	{r4, r5, r7, lr}
  29              		.cfi_def_cfa_offset 16
  30              		.cfi_offset 4, -16
  31              		.cfi_offset 5, -12
  32              		.cfi_offset 7, -8
  33              		.cfi_offset 14, -4
  34 0002 8EB0     		sub	sp, sp, #56
  35              		.cfi_def_cfa_offset 72
  36 0004 00AF     		add	r7, sp, #0
  37              		.cfi_def_cfa_register 7
ARM GAS  C:\Users\fneves\AppData\Local\Temp\ccntp9We.s 			page 3


  38 0006 7862     		str	r0, [r7, #36]
  39 0008 FA61     		str	r2, [r7, #28]
  40 000a BB61     		str	r3, [r7, #24]
  41 000c 0B23     		mov	r3, #11
  42 000e 1822     		mov	r2, #24
  43 0010 9446     		mov	ip, r2
  44 0012 BC44     		add	ip, ip, r7
  45 0014 6344     		add	r3, r3, ip
  46 0016 0A1C     		add	r2, r1, #0
  47 0018 1A70     		strb	r2, [r3]
  78:Source\BasicMathFunctions/arm_shift_q31.c ****   uint32_t blkCnt;                               /* loop counter */
  79:Source\BasicMathFunctions/arm_shift_q31.c ****   uint8_t sign = (shiftBits & 0x80);             /* Sign of shiftBits */
  48              		.loc 1 79 0
  49 001a 0B23     		mov	r3, #11
  50 001c 1822     		mov	r2, #24
  51 001e 9446     		mov	ip, r2
  52 0020 BC44     		add	ip, ip, r7
  53 0022 6344     		add	r3, r3, ip
  54 0024 1A78     		ldrb	r2, [r3]
  55 0026 1B23     		mov	r3, #27
  56 0028 1821     		mov	r1, #24
  57 002a 8C46     		mov	ip, r1
  58 002c BC44     		add	ip, ip, r7
  59 002e 6344     		add	r3, r3, ip
  60 0030 7F21     		mov	r1, #127
  61 0032 8A43     		bic	r2, r1
  62 0034 1A70     		strb	r2, [r3]
  80:Source\BasicMathFunctions/arm_shift_q31.c **** 
  81:Source\BasicMathFunctions/arm_shift_q31.c **** #if defined (ARM_MATH_DSP)
  82:Source\BasicMathFunctions/arm_shift_q31.c **** 
  83:Source\BasicMathFunctions/arm_shift_q31.c ****   q31_t in1, in2, in3, in4;                      /* Temporary input variables */
  84:Source\BasicMathFunctions/arm_shift_q31.c ****   q31_t out1, out2, out3, out4;                  /* Temporary output variables */
  85:Source\BasicMathFunctions/arm_shift_q31.c **** 
  86:Source\BasicMathFunctions/arm_shift_q31.c ****   /*loop Unrolling */
  87:Source\BasicMathFunctions/arm_shift_q31.c ****   blkCnt = blockSize >> 2u;
  88:Source\BasicMathFunctions/arm_shift_q31.c **** 
  89:Source\BasicMathFunctions/arm_shift_q31.c **** 
  90:Source\BasicMathFunctions/arm_shift_q31.c ****   if (sign == 0u)
  91:Source\BasicMathFunctions/arm_shift_q31.c ****   {
  92:Source\BasicMathFunctions/arm_shift_q31.c ****     /* First part of the processing with loop unrolling.  Compute 4 outputs at a time.
  93:Source\BasicMathFunctions/arm_shift_q31.c ****      ** a second loop below computes the remaining 1 to 3 samples. */
  94:Source\BasicMathFunctions/arm_shift_q31.c ****     while (blkCnt > 0u)
  95:Source\BasicMathFunctions/arm_shift_q31.c ****     {
  96:Source\BasicMathFunctions/arm_shift_q31.c ****       /* C = A  << shiftBits */
  97:Source\BasicMathFunctions/arm_shift_q31.c ****       /* Shift the input and then store the results in the destination buffer. */
  98:Source\BasicMathFunctions/arm_shift_q31.c ****       in1 = *pSrc;
  99:Source\BasicMathFunctions/arm_shift_q31.c ****       in2 = *(pSrc + 1);
 100:Source\BasicMathFunctions/arm_shift_q31.c ****       out1 = in1 << shiftBits;
 101:Source\BasicMathFunctions/arm_shift_q31.c ****       in3 = *(pSrc + 2);
 102:Source\BasicMathFunctions/arm_shift_q31.c ****       out2 = in2 << shiftBits;
 103:Source\BasicMathFunctions/arm_shift_q31.c ****       in4 = *(pSrc + 3);
 104:Source\BasicMathFunctions/arm_shift_q31.c ****       if (in1 != (out1 >> shiftBits))
 105:Source\BasicMathFunctions/arm_shift_q31.c ****         out1 = 0x7FFFFFFF ^ (in1 >> 31);
 106:Source\BasicMathFunctions/arm_shift_q31.c **** 
 107:Source\BasicMathFunctions/arm_shift_q31.c ****       if (in2 != (out2 >> shiftBits))
 108:Source\BasicMathFunctions/arm_shift_q31.c ****         out2 = 0x7FFFFFFF ^ (in2 >> 31);
 109:Source\BasicMathFunctions/arm_shift_q31.c **** 
ARM GAS  C:\Users\fneves\AppData\Local\Temp\ccntp9We.s 			page 4


 110:Source\BasicMathFunctions/arm_shift_q31.c ****       *pDst = out1;
 111:Source\BasicMathFunctions/arm_shift_q31.c ****       out3 = in3 << shiftBits;
 112:Source\BasicMathFunctions/arm_shift_q31.c ****       *(pDst + 1) = out2;
 113:Source\BasicMathFunctions/arm_shift_q31.c ****       out4 = in4 << shiftBits;
 114:Source\BasicMathFunctions/arm_shift_q31.c **** 
 115:Source\BasicMathFunctions/arm_shift_q31.c ****       if (in3 != (out3 >> shiftBits))
 116:Source\BasicMathFunctions/arm_shift_q31.c ****         out3 = 0x7FFFFFFF ^ (in3 >> 31);
 117:Source\BasicMathFunctions/arm_shift_q31.c **** 
 118:Source\BasicMathFunctions/arm_shift_q31.c ****       if (in4 != (out4 >> shiftBits))
 119:Source\BasicMathFunctions/arm_shift_q31.c ****         out4 = 0x7FFFFFFF ^ (in4 >> 31);
 120:Source\BasicMathFunctions/arm_shift_q31.c **** 
 121:Source\BasicMathFunctions/arm_shift_q31.c ****       *(pDst + 2) = out3;
 122:Source\BasicMathFunctions/arm_shift_q31.c ****       *(pDst + 3) = out4;
 123:Source\BasicMathFunctions/arm_shift_q31.c **** 
 124:Source\BasicMathFunctions/arm_shift_q31.c ****       /* Update destination pointer to process next sampels */
 125:Source\BasicMathFunctions/arm_shift_q31.c ****       pSrc += 4u;
 126:Source\BasicMathFunctions/arm_shift_q31.c ****       pDst += 4u;
 127:Source\BasicMathFunctions/arm_shift_q31.c **** 
 128:Source\BasicMathFunctions/arm_shift_q31.c ****       /* Decrement the loop counter */
 129:Source\BasicMathFunctions/arm_shift_q31.c ****       blkCnt--;
 130:Source\BasicMathFunctions/arm_shift_q31.c ****     }
 131:Source\BasicMathFunctions/arm_shift_q31.c ****   }
 132:Source\BasicMathFunctions/arm_shift_q31.c ****   else
 133:Source\BasicMathFunctions/arm_shift_q31.c ****   {
 134:Source\BasicMathFunctions/arm_shift_q31.c **** 
 135:Source\BasicMathFunctions/arm_shift_q31.c ****     /* First part of the processing with loop unrolling.  Compute 4 outputs at a time.
 136:Source\BasicMathFunctions/arm_shift_q31.c ****      ** a second loop below computes the remaining 1 to 3 samples. */
 137:Source\BasicMathFunctions/arm_shift_q31.c ****     while (blkCnt > 0u)
 138:Source\BasicMathFunctions/arm_shift_q31.c ****     {
 139:Source\BasicMathFunctions/arm_shift_q31.c ****       /* C = A >>  shiftBits */
 140:Source\BasicMathFunctions/arm_shift_q31.c ****       /* Shift the input and then store the results in the destination buffer. */
 141:Source\BasicMathFunctions/arm_shift_q31.c ****       in1 = *pSrc;
 142:Source\BasicMathFunctions/arm_shift_q31.c ****       in2 = *(pSrc + 1);
 143:Source\BasicMathFunctions/arm_shift_q31.c ****       in3 = *(pSrc + 2);
 144:Source\BasicMathFunctions/arm_shift_q31.c ****       in4 = *(pSrc + 3);
 145:Source\BasicMathFunctions/arm_shift_q31.c **** 
 146:Source\BasicMathFunctions/arm_shift_q31.c ****       *pDst = (in1 >> -shiftBits);
 147:Source\BasicMathFunctions/arm_shift_q31.c ****       *(pDst + 1) = (in2 >> -shiftBits);
 148:Source\BasicMathFunctions/arm_shift_q31.c ****       *(pDst + 2) = (in3 >> -shiftBits);
 149:Source\BasicMathFunctions/arm_shift_q31.c ****       *(pDst + 3) = (in4 >> -shiftBits);
 150:Source\BasicMathFunctions/arm_shift_q31.c **** 
 151:Source\BasicMathFunctions/arm_shift_q31.c **** 
 152:Source\BasicMathFunctions/arm_shift_q31.c ****       pSrc += 4u;
 153:Source\BasicMathFunctions/arm_shift_q31.c ****       pDst += 4u;
 154:Source\BasicMathFunctions/arm_shift_q31.c **** 
 155:Source\BasicMathFunctions/arm_shift_q31.c ****       blkCnt--;
 156:Source\BasicMathFunctions/arm_shift_q31.c ****     }
 157:Source\BasicMathFunctions/arm_shift_q31.c **** 
 158:Source\BasicMathFunctions/arm_shift_q31.c ****   }
 159:Source\BasicMathFunctions/arm_shift_q31.c **** 
 160:Source\BasicMathFunctions/arm_shift_q31.c ****   /* If the blockSize is not a multiple of 4, compute any remaining output samples here.
 161:Source\BasicMathFunctions/arm_shift_q31.c ****    ** No loop unrolling is used. */
 162:Source\BasicMathFunctions/arm_shift_q31.c ****   blkCnt = blockSize % 0x4u;
 163:Source\BasicMathFunctions/arm_shift_q31.c **** 
 164:Source\BasicMathFunctions/arm_shift_q31.c **** #else
 165:Source\BasicMathFunctions/arm_shift_q31.c **** 
 166:Source\BasicMathFunctions/arm_shift_q31.c ****   /* Run the below code for Cortex-M0 */
ARM GAS  C:\Users\fneves\AppData\Local\Temp\ccntp9We.s 			page 5


 167:Source\BasicMathFunctions/arm_shift_q31.c **** 
 168:Source\BasicMathFunctions/arm_shift_q31.c **** 
 169:Source\BasicMathFunctions/arm_shift_q31.c ****   /* Initialize blkCnt with number of samples */
 170:Source\BasicMathFunctions/arm_shift_q31.c ****   blkCnt = blockSize;
  63              		.loc 1 170 0
  64 0036 BB69     		ldr	r3, [r7, #24]
  65 0038 7B63     		str	r3, [r7, #52]
 171:Source\BasicMathFunctions/arm_shift_q31.c **** 
 172:Source\BasicMathFunctions/arm_shift_q31.c **** #endif /* #if defined (ARM_MATH_DSP) */
 173:Source\BasicMathFunctions/arm_shift_q31.c **** 
 174:Source\BasicMathFunctions/arm_shift_q31.c **** 
 175:Source\BasicMathFunctions/arm_shift_q31.c ****   while (blkCnt > 0u)
  66              		.loc 1 175 0
  67 003a 57E0     		b	.L2
  68              	.L10:
 176:Source\BasicMathFunctions/arm_shift_q31.c ****   {
 177:Source\BasicMathFunctions/arm_shift_q31.c ****     /* C = A (>> or <<) shiftBits */
 178:Source\BasicMathFunctions/arm_shift_q31.c ****     /* Shift the input and then store the result in the destination buffer. */
 179:Source\BasicMathFunctions/arm_shift_q31.c ****     *pDst++ = (sign == 0u) ? clip_q63_to_q31((q63_t) * pSrc++ << shiftBits) :
  69              		.loc 1 179 0
  70 003c FA69     		ldr	r2, [r7, #28]
  71 003e 131D     		add	r3, r2, #4
  72 0040 FB61     		str	r3, [r7, #28]
  73 0042 1B23     		mov	r3, #27
  74 0044 1821     		mov	r1, #24
  75 0046 8C46     		mov	ip, r1
  76 0048 BC44     		add	ip, ip, r7
  77 004a 6344     		add	r3, r3, ip
  78 004c 1B78     		ldrb	r3, [r3]
  79 004e 002B     		cmp	r3, #0
  80 0050 3AD1     		bne	.L3
  81              		.loc 1 179 0 is_stmt 0 discriminator 1
  82 0052 7B6A     		ldr	r3, [r7, #36]
  83 0054 191D     		add	r1, r3, #4
  84 0056 7962     		str	r1, [r7, #36]
  85 0058 1B68     		ldr	r3, [r3]
  86 005a 3B61     		str	r3, [r7, #16]
  87 005c DB17     		asr	r3, r3, #31
  88 005e 7B61     		str	r3, [r7, #20]
  89 0060 0B23     		mov	r3, #11
  90 0062 1821     		mov	r1, #24
  91 0064 8C46     		mov	ip, r1
  92 0066 BC44     		add	ip, ip, r7
  93 0068 6344     		add	r3, r3, ip
  94 006a 1B78     		ldrb	r3, [r3]
  95 006c 5BB2     		sxtb	r3, r3
  96 006e 191C     		mov	r1, r3
  97 0070 2039     		sub	r1, r1, #32
  98 0072 0029     		cmp	r1, #0
  99 0074 03DB     		blt	.L4
 100 0076 3869     		ldr	r0, [r7, #16]
 101 0078 8840     		lsl	r0, r0, r1
 102 007a 051C     		mov	r5, r0
 103 007c 08E0     		b	.L5
 104              	.L4:
 105 007e 2021     		mov	r1, #32
 106 0080 C91A     		sub	r1, r1, r3
ARM GAS  C:\Users\fneves\AppData\Local\Temp\ccntp9We.s 			page 6


 107 0082 3869     		ldr	r0, [r7, #16]
 108 0084 C840     		lsr	r0, r0, r1
 109 0086 011C     		mov	r1, r0
 110 0088 7869     		ldr	r0, [r7, #20]
 111 008a 9840     		lsl	r0, r0, r3
 112 008c 051C     		mov	r5, r0
 113 008e 0D43     		orr	r5, r1
 114              	.L5:
 115 0090 3969     		ldr	r1, [r7, #16]
 116 0092 9940     		lsl	r1, r1, r3
 117 0094 0C1C     		mov	r4, r1
 118 0096 BC62     		str	r4, [r7, #40]
 119 0098 FD62     		str	r5, [r7, #44]
 120              	.LBB4:
 121              	.LBB5:
 122              		.file 2 ".\\Include/arm_math.h"
   1:.\Include/arm_math.h **** /* ----------------------------------------------------------------------
   2:.\Include/arm_math.h ****  * Project:      CMSIS DSP Library
   3:.\Include/arm_math.h ****  * Title:        arm_math.h
   4:.\Include/arm_math.h ****  * Description:  Public header file for CMSIS DSP Library
   5:.\Include/arm_math.h ****  *
   6:.\Include/arm_math.h ****  * $Date:        27. January 2017
   7:.\Include/arm_math.h ****  * $Revision:    V.1.5.1
   8:.\Include/arm_math.h ****  *
   9:.\Include/arm_math.h ****  * Target Processor: Cortex-M cores
  10:.\Include/arm_math.h ****  * -------------------------------------------------------------------- */
  11:.\Include/arm_math.h **** /*
  12:.\Include/arm_math.h ****  * Copyright (C) 2010-2017 ARM Limited or its affiliates. All rights reserved.
  13:.\Include/arm_math.h ****  *
  14:.\Include/arm_math.h ****  * SPDX-License-Identifier: Apache-2.0
  15:.\Include/arm_math.h ****  *
  16:.\Include/arm_math.h ****  * Licensed under the Apache License, Version 2.0 (the License); you may
  17:.\Include/arm_math.h ****  * not use this file except in compliance with the License.
  18:.\Include/arm_math.h ****  * You may obtain a copy of the License at
  19:.\Include/arm_math.h ****  *
  20:.\Include/arm_math.h ****  * www.apache.org/licenses/LICENSE-2.0
  21:.\Include/arm_math.h ****  *
  22:.\Include/arm_math.h ****  * Unless required by applicable law or agreed to in writing, software
  23:.\Include/arm_math.h ****  * distributed under the License is distributed on an AS IS BASIS, WITHOUT
  24:.\Include/arm_math.h ****  * WARRANTIES OR CONDITIONS OF ANY KIND, either express or implied.
  25:.\Include/arm_math.h ****  * See the License for the specific language governing permissions and
  26:.\Include/arm_math.h ****  * limitations under the License.
  27:.\Include/arm_math.h ****  */
  28:.\Include/arm_math.h **** 
  29:.\Include/arm_math.h **** /**
  30:.\Include/arm_math.h ****    \mainpage CMSIS DSP Software Library
  31:.\Include/arm_math.h ****    *
  32:.\Include/arm_math.h ****    * Introduction
  33:.\Include/arm_math.h ****    * ------------
  34:.\Include/arm_math.h ****    *
  35:.\Include/arm_math.h ****    * This user manual describes the CMSIS DSP software library,
  36:.\Include/arm_math.h ****    * a suite of common signal processing functions for use on Cortex-M processor based devices.
  37:.\Include/arm_math.h ****    *
  38:.\Include/arm_math.h ****    * The library is divided into a number of functions each covering a specific category:
  39:.\Include/arm_math.h ****    * - Basic math functions
  40:.\Include/arm_math.h ****    * - Fast math functions
  41:.\Include/arm_math.h ****    * - Complex math functions
ARM GAS  C:\Users\fneves\AppData\Local\Temp\ccntp9We.s 			page 7


  42:.\Include/arm_math.h ****    * - Filters
  43:.\Include/arm_math.h ****    * - Matrix functions
  44:.\Include/arm_math.h ****    * - Transforms
  45:.\Include/arm_math.h ****    * - Motor control functions
  46:.\Include/arm_math.h ****    * - Statistical functions
  47:.\Include/arm_math.h ****    * - Support functions
  48:.\Include/arm_math.h ****    * - Interpolation functions
  49:.\Include/arm_math.h ****    *
  50:.\Include/arm_math.h ****    * The library has separate functions for operating on 8-bit integers, 16-bit integers,
  51:.\Include/arm_math.h ****    * 32-bit integer and 32-bit floating-point values.
  52:.\Include/arm_math.h ****    *
  53:.\Include/arm_math.h ****    * Using the Library
  54:.\Include/arm_math.h ****    * ------------
  55:.\Include/arm_math.h ****    *
  56:.\Include/arm_math.h ****    * The library installer contains prebuilt versions of the libraries in the <code>Lib</code> fold
  57:.\Include/arm_math.h ****    * - arm_cortexM7lfdp_math.lib (Cortex-M7, Little endian, Double Precision Floating Point Unit)
  58:.\Include/arm_math.h ****    * - arm_cortexM7bfdp_math.lib (Cortex-M7, Big endian, Double Precision Floating Point Unit)
  59:.\Include/arm_math.h ****    * - arm_cortexM7lfsp_math.lib (Cortex-M7, Little endian, Single Precision Floating Point Unit)
  60:.\Include/arm_math.h ****    * - arm_cortexM7bfsp_math.lib (Cortex-M7, Big endian and Single Precision Floating Point Unit on
  61:.\Include/arm_math.h ****    * - arm_cortexM7l_math.lib (Cortex-M7, Little endian)
  62:.\Include/arm_math.h ****    * - arm_cortexM7b_math.lib (Cortex-M7, Big endian)
  63:.\Include/arm_math.h ****    * - arm_cortexM4lf_math.lib (Cortex-M4, Little endian, Floating Point Unit)
  64:.\Include/arm_math.h ****    * - arm_cortexM4bf_math.lib (Cortex-M4, Big endian, Floating Point Unit)
  65:.\Include/arm_math.h ****    * - arm_cortexM4l_math.lib (Cortex-M4, Little endian)
  66:.\Include/arm_math.h ****    * - arm_cortexM4b_math.lib (Cortex-M4, Big endian)
  67:.\Include/arm_math.h ****    * - arm_cortexM3l_math.lib (Cortex-M3, Little endian)
  68:.\Include/arm_math.h ****    * - arm_cortexM3b_math.lib (Cortex-M3, Big endian)
  69:.\Include/arm_math.h ****    * - arm_cortexM0l_math.lib (Cortex-M0 / Cortex-M0+, Little endian)
  70:.\Include/arm_math.h ****    * - arm_cortexM0b_math.lib (Cortex-M0 / Cortex-M0+, Big endian)
  71:.\Include/arm_math.h ****    * - arm_ARMv8MBLl_math.lib (ARMv8M Baseline, Little endian)
  72:.\Include/arm_math.h ****    * - arm_ARMv8MMLl_math.lib (ARMv8M Mainline, Little endian)
  73:.\Include/arm_math.h ****    * - arm_ARMv8MMLlfsp_math.lib (ARMv8M Mainline, Little endian, Single Precision Floating Point U
  74:.\Include/arm_math.h ****    * - arm_ARMv8MMLld_math.lib (ARMv8M Mainline, Little endian, DSP instructions)
  75:.\Include/arm_math.h ****    * - arm_ARMv8MMLldfsp_math.lib (ARMv8M Mainline, Little endian, DSP instructions, Single Precisi
  76:.\Include/arm_math.h ****    *
  77:.\Include/arm_math.h ****    * The library functions are declared in the public file <code>arm_math.h</code> which is placed 
  78:.\Include/arm_math.h ****    * Simply include this file and link the appropriate library in the application and begin calling
  79:.\Include/arm_math.h ****    * public header file <code> arm_math.h</code> for Cortex-M cores with little endian and big endi
  80:.\Include/arm_math.h ****    * Define the appropriate pre processor MACRO ARM_MATH_CM7 or ARM_MATH_CM4 or  ARM_MATH_CM3 or
  81:.\Include/arm_math.h ****    * ARM_MATH_CM0 or ARM_MATH_CM0PLUS depending on the target processor in the application.
  82:.\Include/arm_math.h ****    * For ARMv8M cores define pre processor MACRO ARM_MATH_ARMV8MBL or ARM_MATH_ARMV8MML.
  83:.\Include/arm_math.h ****    * Set Pre processor MACRO __DSP_PRESENT if ARMv8M Mainline core supports DSP instructions.
  84:.\Include/arm_math.h ****    * 
  85:.\Include/arm_math.h ****    *
  86:.\Include/arm_math.h ****    * Examples
  87:.\Include/arm_math.h ****    * --------
  88:.\Include/arm_math.h ****    *
  89:.\Include/arm_math.h ****    * The library ships with a number of examples which demonstrate how to use the library functions
  90:.\Include/arm_math.h ****    *
  91:.\Include/arm_math.h ****    * Toolchain Support
  92:.\Include/arm_math.h ****    * ------------
  93:.\Include/arm_math.h ****    *
  94:.\Include/arm_math.h ****    * The library has been developed and tested with MDK-ARM version 5.14.0.0
  95:.\Include/arm_math.h ****    * The library is being tested in GCC and IAR toolchains and updates on this activity will be mad
  96:.\Include/arm_math.h ****    *
  97:.\Include/arm_math.h ****    * Building the Library
  98:.\Include/arm_math.h ****    * ------------
ARM GAS  C:\Users\fneves\AppData\Local\Temp\ccntp9We.s 			page 8


  99:.\Include/arm_math.h ****    *
 100:.\Include/arm_math.h ****    * The library installer contains a project file to re build libraries on MDK-ARM Tool chain in t
 101:.\Include/arm_math.h ****    * - arm_cortexM_math.uvprojx
 102:.\Include/arm_math.h ****    *
 103:.\Include/arm_math.h ****    *
 104:.\Include/arm_math.h ****    * The libraries can be built by opening the arm_cortexM_math.uvprojx project in MDK-ARM, selecti
 105:.\Include/arm_math.h ****    *
 106:.\Include/arm_math.h ****    * Pre-processor Macros
 107:.\Include/arm_math.h ****    * ------------
 108:.\Include/arm_math.h ****    *
 109:.\Include/arm_math.h ****    * Each library project have differant pre-processor macros.
 110:.\Include/arm_math.h ****    *
 111:.\Include/arm_math.h ****    * - UNALIGNED_SUPPORT_DISABLE:
 112:.\Include/arm_math.h ****    *
 113:.\Include/arm_math.h ****    * Define macro UNALIGNED_SUPPORT_DISABLE, If the silicon does not support unaligned memory acces
 114:.\Include/arm_math.h ****    *
 115:.\Include/arm_math.h ****    * - ARM_MATH_BIG_ENDIAN:
 116:.\Include/arm_math.h ****    *
 117:.\Include/arm_math.h ****    * Define macro ARM_MATH_BIG_ENDIAN to build the library for big endian targets. By default libra
 118:.\Include/arm_math.h ****    *
 119:.\Include/arm_math.h ****    * - ARM_MATH_MATRIX_CHECK:
 120:.\Include/arm_math.h ****    *
 121:.\Include/arm_math.h ****    * Define macro ARM_MATH_MATRIX_CHECK for checking on the input and output sizes of matrices
 122:.\Include/arm_math.h ****    *
 123:.\Include/arm_math.h ****    * - ARM_MATH_ROUNDING:
 124:.\Include/arm_math.h ****    *
 125:.\Include/arm_math.h ****    * Define macro ARM_MATH_ROUNDING for rounding on support functions
 126:.\Include/arm_math.h ****    *
 127:.\Include/arm_math.h ****    * - ARM_MATH_CMx:
 128:.\Include/arm_math.h ****    *
 129:.\Include/arm_math.h ****    * Define macro ARM_MATH_CM4 for building the library on Cortex-M4 target, ARM_MATH_CM3 for build
 130:.\Include/arm_math.h ****    * and ARM_MATH_CM0 for building library on Cortex-M0 target, ARM_MATH_CM0PLUS for building libra
 131:.\Include/arm_math.h ****    * ARM_MATH_CM7 for building the library on cortex-M7.
 132:.\Include/arm_math.h ****    *
 133:.\Include/arm_math.h ****    * - ARM_MATH_ARMV8MxL:
 134:.\Include/arm_math.h ****    *
 135:.\Include/arm_math.h ****    * Define macro ARM_MATH_ARMV8MBL for building the library on ARMv8M Baseline target, ARM_MATH_AR
 136:.\Include/arm_math.h ****    * on ARMv8M Mainline target.
 137:.\Include/arm_math.h ****    *
 138:.\Include/arm_math.h ****    * - __FPU_PRESENT:
 139:.\Include/arm_math.h ****    *
 140:.\Include/arm_math.h ****    * Initialize macro __FPU_PRESENT = 1 when building on FPU supported Targets. Enable this macro f
 141:.\Include/arm_math.h ****    *
 142:.\Include/arm_math.h ****    * - __DSP_PRESENT:
 143:.\Include/arm_math.h ****    *
 144:.\Include/arm_math.h ****    * Initialize macro __DSP_PRESENT = 1 when ARMv8M Mainline core supports DSP instructions.
 145:.\Include/arm_math.h ****    *
 146:.\Include/arm_math.h ****    * <hr>
 147:.\Include/arm_math.h ****    * CMSIS-DSP in ARM::CMSIS Pack
 148:.\Include/arm_math.h ****    * -----------------------------
 149:.\Include/arm_math.h ****    *
 150:.\Include/arm_math.h ****    * The following files relevant to CMSIS-DSP are present in the <b>ARM::CMSIS</b> Pack directorie
 151:.\Include/arm_math.h ****    * |File/Folder                   |Content                                                       
 152:.\Include/arm_math.h ****    * |------------------------------|--------------------------------------------------------------
 153:.\Include/arm_math.h ****    * |\b CMSIS\\Documentation\\DSP  | This documentation                                           
 154:.\Include/arm_math.h ****    * |\b CMSIS\\DSP_Lib             | Software license agreement (license.txt)                     
 155:.\Include/arm_math.h ****    * |\b CMSIS\\DSP_Lib\\Examples   | Example projects demonstrating the usage of the library funct
ARM GAS  C:\Users\fneves\AppData\Local\Temp\ccntp9We.s 			page 9


 156:.\Include/arm_math.h ****    * |\b CMSIS\\DSP_Lib\\Source     | Source files for rebuilding the library                      
 157:.\Include/arm_math.h ****    *
 158:.\Include/arm_math.h ****    * <hr>
 159:.\Include/arm_math.h ****    * Revision History of CMSIS-DSP
 160:.\Include/arm_math.h ****    * ------------
 161:.\Include/arm_math.h ****    * Please refer to \ref ChangeLog_pg.
 162:.\Include/arm_math.h ****    *
 163:.\Include/arm_math.h ****    * Copyright Notice
 164:.\Include/arm_math.h ****    * ------------
 165:.\Include/arm_math.h ****    *
 166:.\Include/arm_math.h ****    * Copyright (C) 2010-2015 ARM Limited. All rights reserved.
 167:.\Include/arm_math.h ****    */
 168:.\Include/arm_math.h **** 
 169:.\Include/arm_math.h **** 
 170:.\Include/arm_math.h **** /**
 171:.\Include/arm_math.h ****  * @defgroup groupMath Basic Math Functions
 172:.\Include/arm_math.h ****  */
 173:.\Include/arm_math.h **** 
 174:.\Include/arm_math.h **** /**
 175:.\Include/arm_math.h ****  * @defgroup groupFastMath Fast Math Functions
 176:.\Include/arm_math.h ****  * This set of functions provides a fast approximation to sine, cosine, and square root.
 177:.\Include/arm_math.h ****  * As compared to most of the other functions in the CMSIS math library, the fast math functions
 178:.\Include/arm_math.h ****  * operate on individual values and not arrays.
 179:.\Include/arm_math.h ****  * There are separate functions for Q15, Q31, and floating-point data.
 180:.\Include/arm_math.h ****  *
 181:.\Include/arm_math.h ****  */
 182:.\Include/arm_math.h **** 
 183:.\Include/arm_math.h **** /**
 184:.\Include/arm_math.h ****  * @defgroup groupCmplxMath Complex Math Functions
 185:.\Include/arm_math.h ****  * This set of functions operates on complex data vectors.
 186:.\Include/arm_math.h ****  * The data in the complex arrays is stored in an interleaved fashion
 187:.\Include/arm_math.h ****  * (real, imag, real, imag, ...).
 188:.\Include/arm_math.h ****  * In the API functions, the number of samples in a complex array refers
 189:.\Include/arm_math.h ****  * to the number of complex values; the array contains twice this number of
 190:.\Include/arm_math.h ****  * real values.
 191:.\Include/arm_math.h ****  */
 192:.\Include/arm_math.h **** 
 193:.\Include/arm_math.h **** /**
 194:.\Include/arm_math.h ****  * @defgroup groupFilters Filtering Functions
 195:.\Include/arm_math.h ****  */
 196:.\Include/arm_math.h **** 
 197:.\Include/arm_math.h **** /**
 198:.\Include/arm_math.h ****  * @defgroup groupMatrix Matrix Functions
 199:.\Include/arm_math.h ****  *
 200:.\Include/arm_math.h ****  * This set of functions provides basic matrix math operations.
 201:.\Include/arm_math.h ****  * The functions operate on matrix data structures.  For example,
 202:.\Include/arm_math.h ****  * the type
 203:.\Include/arm_math.h ****  * definition for the floating-point matrix structure is shown
 204:.\Include/arm_math.h ****  * below:
 205:.\Include/arm_math.h ****  * <pre>
 206:.\Include/arm_math.h ****  *     typedef struct
 207:.\Include/arm_math.h ****  *     {
 208:.\Include/arm_math.h ****  *       uint16_t numRows;     // number of rows of the matrix.
 209:.\Include/arm_math.h ****  *       uint16_t numCols;     // number of columns of the matrix.
 210:.\Include/arm_math.h ****  *       float32_t *pData;     // points to the data of the matrix.
 211:.\Include/arm_math.h ****  *     } arm_matrix_instance_f32;
 212:.\Include/arm_math.h ****  * </pre>
ARM GAS  C:\Users\fneves\AppData\Local\Temp\ccntp9We.s 			page 10


 213:.\Include/arm_math.h ****  * There are similar definitions for Q15 and Q31 data types.
 214:.\Include/arm_math.h ****  *
 215:.\Include/arm_math.h ****  * The structure specifies the size of the matrix and then points to
 216:.\Include/arm_math.h ****  * an array of data.  The array is of size <code>numRows X numCols</code>
 217:.\Include/arm_math.h ****  * and the values are arranged in row order.  That is, the
 218:.\Include/arm_math.h ****  * matrix element (i, j) is stored at:
 219:.\Include/arm_math.h ****  * <pre>
 220:.\Include/arm_math.h ****  *     pData[i*numCols + j]
 221:.\Include/arm_math.h ****  * </pre>
 222:.\Include/arm_math.h ****  *
 223:.\Include/arm_math.h ****  * \par Init Functions
 224:.\Include/arm_math.h ****  * There is an associated initialization function for each type of matrix
 225:.\Include/arm_math.h ****  * data structure.
 226:.\Include/arm_math.h ****  * The initialization function sets the values of the internal structure fields.
 227:.\Include/arm_math.h ****  * Refer to the function <code>arm_mat_init_f32()</code>, <code>arm_mat_init_q31()</code>
 228:.\Include/arm_math.h ****  * and <code>arm_mat_init_q15()</code> for floating-point, Q31 and Q15 types,  respectively.
 229:.\Include/arm_math.h ****  *
 230:.\Include/arm_math.h ****  * \par
 231:.\Include/arm_math.h ****  * Use of the initialization function is optional. However, if initialization function is used
 232:.\Include/arm_math.h ****  * then the instance structure cannot be placed into a const data section.
 233:.\Include/arm_math.h ****  * To place the instance structure in a const data
 234:.\Include/arm_math.h ****  * section, manually initialize the data structure.  For example:
 235:.\Include/arm_math.h ****  * <pre>
 236:.\Include/arm_math.h ****  * <code>arm_matrix_instance_f32 S = {nRows, nColumns, pData};</code>
 237:.\Include/arm_math.h ****  * <code>arm_matrix_instance_q31 S = {nRows, nColumns, pData};</code>
 238:.\Include/arm_math.h ****  * <code>arm_matrix_instance_q15 S = {nRows, nColumns, pData};</code>
 239:.\Include/arm_math.h ****  * </pre>
 240:.\Include/arm_math.h ****  * where <code>nRows</code> specifies the number of rows, <code>nColumns</code>
 241:.\Include/arm_math.h ****  * specifies the number of columns, and <code>pData</code> points to the
 242:.\Include/arm_math.h ****  * data array.
 243:.\Include/arm_math.h ****  *
 244:.\Include/arm_math.h ****  * \par Size Checking
 245:.\Include/arm_math.h ****  * By default all of the matrix functions perform size checking on the input and
 246:.\Include/arm_math.h ****  * output matrices.  For example, the matrix addition function verifies that the
 247:.\Include/arm_math.h ****  * two input matrices and the output matrix all have the same number of rows and
 248:.\Include/arm_math.h ****  * columns.  If the size check fails the functions return:
 249:.\Include/arm_math.h ****  * <pre>
 250:.\Include/arm_math.h ****  *     ARM_MATH_SIZE_MISMATCH
 251:.\Include/arm_math.h ****  * </pre>
 252:.\Include/arm_math.h ****  * Otherwise the functions return
 253:.\Include/arm_math.h ****  * <pre>
 254:.\Include/arm_math.h ****  *     ARM_MATH_SUCCESS
 255:.\Include/arm_math.h ****  * </pre>
 256:.\Include/arm_math.h ****  * There is some overhead associated with this matrix size checking.
 257:.\Include/arm_math.h ****  * The matrix size checking is enabled via the \#define
 258:.\Include/arm_math.h ****  * <pre>
 259:.\Include/arm_math.h ****  *     ARM_MATH_MATRIX_CHECK
 260:.\Include/arm_math.h ****  * </pre>
 261:.\Include/arm_math.h ****  * within the library project settings.  By default this macro is defined
 262:.\Include/arm_math.h ****  * and size checking is enabled.  By changing the project settings and
 263:.\Include/arm_math.h ****  * undefining this macro size checking is eliminated and the functions
 264:.\Include/arm_math.h ****  * run a bit faster.  With size checking disabled the functions always
 265:.\Include/arm_math.h ****  * return <code>ARM_MATH_SUCCESS</code>.
 266:.\Include/arm_math.h ****  */
 267:.\Include/arm_math.h **** 
 268:.\Include/arm_math.h **** /**
 269:.\Include/arm_math.h ****  * @defgroup groupTransforms Transform Functions
ARM GAS  C:\Users\fneves\AppData\Local\Temp\ccntp9We.s 			page 11


 270:.\Include/arm_math.h ****  */
 271:.\Include/arm_math.h **** 
 272:.\Include/arm_math.h **** /**
 273:.\Include/arm_math.h ****  * @defgroup groupController Controller Functions
 274:.\Include/arm_math.h ****  */
 275:.\Include/arm_math.h **** 
 276:.\Include/arm_math.h **** /**
 277:.\Include/arm_math.h ****  * @defgroup groupStats Statistics Functions
 278:.\Include/arm_math.h ****  */
 279:.\Include/arm_math.h **** /**
 280:.\Include/arm_math.h ****  * @defgroup groupSupport Support Functions
 281:.\Include/arm_math.h ****  */
 282:.\Include/arm_math.h **** 
 283:.\Include/arm_math.h **** /**
 284:.\Include/arm_math.h ****  * @defgroup groupInterpolation Interpolation Functions
 285:.\Include/arm_math.h ****  * These functions perform 1- and 2-dimensional interpolation of data.
 286:.\Include/arm_math.h ****  * Linear interpolation is used for 1-dimensional data and
 287:.\Include/arm_math.h ****  * bilinear interpolation is used for 2-dimensional data.
 288:.\Include/arm_math.h ****  */
 289:.\Include/arm_math.h **** 
 290:.\Include/arm_math.h **** /**
 291:.\Include/arm_math.h ****  * @defgroup groupExamples Examples
 292:.\Include/arm_math.h ****  */
 293:.\Include/arm_math.h **** #ifndef _ARM_MATH_H
 294:.\Include/arm_math.h **** #define _ARM_MATH_H
 295:.\Include/arm_math.h **** 
 296:.\Include/arm_math.h **** /* ignore some GCC warnings */
 297:.\Include/arm_math.h **** #if defined ( __GNUC__ )
 298:.\Include/arm_math.h **** #pragma GCC diagnostic push
 299:.\Include/arm_math.h **** #pragma GCC diagnostic ignored "-Wsign-conversion"
 300:.\Include/arm_math.h **** #pragma GCC diagnostic ignored "-Wconversion"
 301:.\Include/arm_math.h **** #pragma GCC diagnostic ignored "-Wunused-parameter"
 302:.\Include/arm_math.h **** #endif
 303:.\Include/arm_math.h **** 
 304:.\Include/arm_math.h **** #define __CMSIS_GENERIC         /* disable NVIC and Systick functions */
 305:.\Include/arm_math.h **** 
 306:.\Include/arm_math.h **** #if defined(ARM_MATH_CM7)
 307:.\Include/arm_math.h ****   #include "core_cm7.h"
 308:.\Include/arm_math.h ****   #define ARM_MATH_DSP
 309:.\Include/arm_math.h **** #elif defined (ARM_MATH_CM4)
 310:.\Include/arm_math.h ****   #include "core_cm4.h"
 311:.\Include/arm_math.h ****   #define ARM_MATH_DSP
 312:.\Include/arm_math.h **** #elif defined (ARM_MATH_CM3)
 313:.\Include/arm_math.h ****   #include "core_cm3.h"
 314:.\Include/arm_math.h **** #elif defined (ARM_MATH_CM0)
 315:.\Include/arm_math.h ****   #include "core_cm0.h"
 316:.\Include/arm_math.h ****   #define ARM_MATH_CM0_FAMILY
 317:.\Include/arm_math.h **** #elif defined (ARM_MATH_CM0PLUS)
 318:.\Include/arm_math.h ****   #include "core_cm0plus.h"
 319:.\Include/arm_math.h ****   #define ARM_MATH_CM0_FAMILY
 320:.\Include/arm_math.h **** #elif defined (ARM_MATH_ARMV8MBL)
 321:.\Include/arm_math.h ****   #include "core_armv8mbl.h"
 322:.\Include/arm_math.h ****   #define ARM_MATH_CM0_FAMILY
 323:.\Include/arm_math.h **** #elif defined (ARM_MATH_ARMV8MML)
 324:.\Include/arm_math.h ****   #include "core_armv8mml.h"
 325:.\Include/arm_math.h ****   #if (defined (__DSP_PRESENT) && (__DSP_PRESENT == 1))
 326:.\Include/arm_math.h ****     #define ARM_MATH_DSP
ARM GAS  C:\Users\fneves\AppData\Local\Temp\ccntp9We.s 			page 12


 327:.\Include/arm_math.h ****   #endif
 328:.\Include/arm_math.h **** #else
 329:.\Include/arm_math.h ****   #error "Define according the used Cortex core ARM_MATH_CM7, ARM_MATH_CM4, ARM_MATH_CM3, ARM_MATH_
 330:.\Include/arm_math.h **** #endif
 331:.\Include/arm_math.h **** 
 332:.\Include/arm_math.h **** #undef  __CMSIS_GENERIC         /* enable NVIC and Systick functions */
 333:.\Include/arm_math.h **** #include "string.h"
 334:.\Include/arm_math.h **** #include "math.h"
 335:.\Include/arm_math.h **** #ifdef   __cplusplus
 336:.\Include/arm_math.h **** extern "C"
 337:.\Include/arm_math.h **** {
 338:.\Include/arm_math.h **** #endif
 339:.\Include/arm_math.h **** 
 340:.\Include/arm_math.h **** 
 341:.\Include/arm_math.h ****   /**
 342:.\Include/arm_math.h ****    * @brief Macros required for reciprocal calculation in Normalized LMS
 343:.\Include/arm_math.h ****    */
 344:.\Include/arm_math.h **** 
 345:.\Include/arm_math.h **** #define DELTA_Q31          (0x100)
 346:.\Include/arm_math.h **** #define DELTA_Q15          0x5
 347:.\Include/arm_math.h **** #define INDEX_MASK         0x0000003F
 348:.\Include/arm_math.h **** #ifndef PI
 349:.\Include/arm_math.h ****   #define PI               3.14159265358979f
 350:.\Include/arm_math.h **** #endif
 351:.\Include/arm_math.h **** 
 352:.\Include/arm_math.h ****   /**
 353:.\Include/arm_math.h ****    * @brief Macros required for SINE and COSINE Fast math approximations
 354:.\Include/arm_math.h ****    */
 355:.\Include/arm_math.h **** 
 356:.\Include/arm_math.h **** #define FAST_MATH_TABLE_SIZE  512
 357:.\Include/arm_math.h **** #define FAST_MATH_Q31_SHIFT   (32 - 10)
 358:.\Include/arm_math.h **** #define FAST_MATH_Q15_SHIFT   (16 - 10)
 359:.\Include/arm_math.h **** #define CONTROLLER_Q31_SHIFT  (32 - 9)
 360:.\Include/arm_math.h **** #define TABLE_SPACING_Q31     0x400000
 361:.\Include/arm_math.h **** #define TABLE_SPACING_Q15     0x80
 362:.\Include/arm_math.h **** 
 363:.\Include/arm_math.h ****   /**
 364:.\Include/arm_math.h ****    * @brief Macros required for SINE and COSINE Controller functions
 365:.\Include/arm_math.h ****    */
 366:.\Include/arm_math.h ****   /* 1.31(q31) Fixed value of 2/360 */
 367:.\Include/arm_math.h ****   /* -1 to +1 is divided into 360 values so total spacing is (2/360) */
 368:.\Include/arm_math.h **** #define INPUT_SPACING         0xB60B61
 369:.\Include/arm_math.h **** 
 370:.\Include/arm_math.h ****   /**
 371:.\Include/arm_math.h ****    * @brief Macro for Unaligned Support
 372:.\Include/arm_math.h ****    */
 373:.\Include/arm_math.h **** #ifndef UNALIGNED_SUPPORT_DISABLE
 374:.\Include/arm_math.h ****     #define ALIGN4
 375:.\Include/arm_math.h **** #else
 376:.\Include/arm_math.h ****   #if defined  (__GNUC__)
 377:.\Include/arm_math.h ****     #define ALIGN4 __attribute__((aligned(4)))
 378:.\Include/arm_math.h ****   #else
 379:.\Include/arm_math.h ****     #define ALIGN4 __align(4)
 380:.\Include/arm_math.h ****   #endif
 381:.\Include/arm_math.h **** #endif   /* #ifndef UNALIGNED_SUPPORT_DISABLE */
 382:.\Include/arm_math.h **** 
 383:.\Include/arm_math.h ****   /**
ARM GAS  C:\Users\fneves\AppData\Local\Temp\ccntp9We.s 			page 13


 384:.\Include/arm_math.h ****    * @brief Error status returned by some functions in the library.
 385:.\Include/arm_math.h ****    */
 386:.\Include/arm_math.h **** 
 387:.\Include/arm_math.h ****   typedef enum
 388:.\Include/arm_math.h ****   {
 389:.\Include/arm_math.h ****     ARM_MATH_SUCCESS = 0,                /**< No error */
 390:.\Include/arm_math.h ****     ARM_MATH_ARGUMENT_ERROR = -1,        /**< One or more arguments are incorrect */
 391:.\Include/arm_math.h ****     ARM_MATH_LENGTH_ERROR = -2,          /**< Length of data buffer is incorrect */
 392:.\Include/arm_math.h ****     ARM_MATH_SIZE_MISMATCH = -3,         /**< Size of matrices is not compatible with the operation
 393:.\Include/arm_math.h ****     ARM_MATH_NANINF = -4,                /**< Not-a-number (NaN) or infinity is generated */
 394:.\Include/arm_math.h ****     ARM_MATH_SINGULAR = -5,              /**< Generated by matrix inversion if the input matrix is 
 395:.\Include/arm_math.h ****     ARM_MATH_TEST_FAILURE = -6           /**< Test Failed  */
 396:.\Include/arm_math.h ****   } arm_status;
 397:.\Include/arm_math.h **** 
 398:.\Include/arm_math.h ****   /**
 399:.\Include/arm_math.h ****    * @brief 8-bit fractional data type in 1.7 format.
 400:.\Include/arm_math.h ****    */
 401:.\Include/arm_math.h ****   typedef int8_t q7_t;
 402:.\Include/arm_math.h **** 
 403:.\Include/arm_math.h ****   /**
 404:.\Include/arm_math.h ****    * @brief 16-bit fractional data type in 1.15 format.
 405:.\Include/arm_math.h ****    */
 406:.\Include/arm_math.h ****   typedef int16_t q15_t;
 407:.\Include/arm_math.h **** 
 408:.\Include/arm_math.h ****   /**
 409:.\Include/arm_math.h ****    * @brief 32-bit fractional data type in 1.31 format.
 410:.\Include/arm_math.h ****    */
 411:.\Include/arm_math.h ****   typedef int32_t q31_t;
 412:.\Include/arm_math.h **** 
 413:.\Include/arm_math.h ****   /**
 414:.\Include/arm_math.h ****    * @brief 64-bit fractional data type in 1.63 format.
 415:.\Include/arm_math.h ****    */
 416:.\Include/arm_math.h ****   typedef int64_t q63_t;
 417:.\Include/arm_math.h **** 
 418:.\Include/arm_math.h ****   /**
 419:.\Include/arm_math.h ****    * @brief 32-bit floating-point type definition.
 420:.\Include/arm_math.h ****    */
 421:.\Include/arm_math.h ****   typedef float float32_t;
 422:.\Include/arm_math.h **** 
 423:.\Include/arm_math.h ****   /**
 424:.\Include/arm_math.h ****    * @brief 64-bit floating-point type definition.
 425:.\Include/arm_math.h ****    */
 426:.\Include/arm_math.h ****   typedef double float64_t;
 427:.\Include/arm_math.h **** 
 428:.\Include/arm_math.h ****   /**
 429:.\Include/arm_math.h ****    * @brief definition to read/write two 16 bit values.
 430:.\Include/arm_math.h ****    */
 431:.\Include/arm_math.h **** #if   defined ( __CC_ARM )
 432:.\Include/arm_math.h ****   #define __SIMD32_TYPE int32_t __packed
 433:.\Include/arm_math.h ****   #define CMSIS_UNUSED __attribute__((unused))
 434:.\Include/arm_math.h ****   #define CMSIS_INLINE __attribute__((always_inline))
 435:.\Include/arm_math.h **** 
 436:.\Include/arm_math.h **** #elif defined ( __ARMCC_VERSION ) && ( __ARMCC_VERSION >= 6010050 )
 437:.\Include/arm_math.h ****   #define __SIMD32_TYPE int32_t
 438:.\Include/arm_math.h ****   #define CMSIS_UNUSED __attribute__((unused))
 439:.\Include/arm_math.h ****   #define CMSIS_INLINE __attribute__((always_inline))
 440:.\Include/arm_math.h **** 
ARM GAS  C:\Users\fneves\AppData\Local\Temp\ccntp9We.s 			page 14


 441:.\Include/arm_math.h **** #elif defined ( __GNUC__ )
 442:.\Include/arm_math.h ****   #define __SIMD32_TYPE int32_t
 443:.\Include/arm_math.h ****   #define CMSIS_UNUSED __attribute__((unused))
 444:.\Include/arm_math.h ****   #define CMSIS_INLINE __attribute__((always_inline))
 445:.\Include/arm_math.h **** 
 446:.\Include/arm_math.h **** #elif defined ( __ICCARM__ )
 447:.\Include/arm_math.h ****   #define __SIMD32_TYPE int32_t __packed
 448:.\Include/arm_math.h ****   #define CMSIS_UNUSED
 449:.\Include/arm_math.h ****   #define CMSIS_INLINE
 450:.\Include/arm_math.h **** 
 451:.\Include/arm_math.h **** #elif defined ( __TI_ARM__ )
 452:.\Include/arm_math.h ****   #define __SIMD32_TYPE int32_t
 453:.\Include/arm_math.h ****   #define CMSIS_UNUSED __attribute__((unused))
 454:.\Include/arm_math.h ****   #define CMSIS_INLINE
 455:.\Include/arm_math.h **** 
 456:.\Include/arm_math.h **** #elif defined ( __CSMC__ )
 457:.\Include/arm_math.h ****   #define __SIMD32_TYPE int32_t
 458:.\Include/arm_math.h ****   #define CMSIS_UNUSED
 459:.\Include/arm_math.h ****   #define CMSIS_INLINE
 460:.\Include/arm_math.h **** 
 461:.\Include/arm_math.h **** #elif defined ( __TASKING__ )
 462:.\Include/arm_math.h ****   #define __SIMD32_TYPE __unaligned int32_t
 463:.\Include/arm_math.h ****   #define CMSIS_UNUSED
 464:.\Include/arm_math.h ****   #define CMSIS_INLINE
 465:.\Include/arm_math.h **** 
 466:.\Include/arm_math.h **** #else
 467:.\Include/arm_math.h ****   #error Unknown compiler
 468:.\Include/arm_math.h **** #endif
 469:.\Include/arm_math.h **** 
 470:.\Include/arm_math.h **** #define __SIMD32(addr)        (*(__SIMD32_TYPE **) & (addr))
 471:.\Include/arm_math.h **** #define __SIMD32_CONST(addr)  ((__SIMD32_TYPE *)(addr))
 472:.\Include/arm_math.h **** #define _SIMD32_OFFSET(addr)  (*(__SIMD32_TYPE *)  (addr))
 473:.\Include/arm_math.h **** #define __SIMD64(addr)        (*(int64_t **) & (addr))
 474:.\Include/arm_math.h **** 
 475:.\Include/arm_math.h **** /* #if defined (ARM_MATH_CM3) || defined (ARM_MATH_CM0_FAMILY) */
 476:.\Include/arm_math.h **** #if !defined (ARM_MATH_DSP)
 477:.\Include/arm_math.h ****   /**
 478:.\Include/arm_math.h ****    * @brief definition to pack two 16 bit values.
 479:.\Include/arm_math.h ****    */
 480:.\Include/arm_math.h **** #define __PKHBT(ARG1, ARG2, ARG3) ( (((int32_t)(ARG1) <<    0) & (int32_t)0x0000FFFF) | \
 481:.\Include/arm_math.h ****                                     (((int32_t)(ARG2) << ARG3) & (int32_t)0xFFFF0000)  )
 482:.\Include/arm_math.h **** #define __PKHTB(ARG1, ARG2, ARG3) ( (((int32_t)(ARG1) <<    0) & (int32_t)0xFFFF0000) | \
 483:.\Include/arm_math.h ****                                     (((int32_t)(ARG2) >> ARG3) & (int32_t)0x0000FFFF)  )
 484:.\Include/arm_math.h **** 
 485:.\Include/arm_math.h **** /* #endif // defined (ARM_MATH_CM3) || defined (ARM_MATH_CM0_FAMILY) */
 486:.\Include/arm_math.h **** #endif /* !defined (ARM_MATH_DSP) */
 487:.\Include/arm_math.h **** 
 488:.\Include/arm_math.h ****    /**
 489:.\Include/arm_math.h ****    * @brief definition to pack four 8 bit values.
 490:.\Include/arm_math.h ****    */
 491:.\Include/arm_math.h **** #ifndef ARM_MATH_BIG_ENDIAN
 492:.\Include/arm_math.h **** 
 493:.\Include/arm_math.h **** #define __PACKq7(v0,v1,v2,v3) ( (((int32_t)(v0) <<  0) & (int32_t)0x000000FF) | \
 494:.\Include/arm_math.h ****                                 (((int32_t)(v1) <<  8) & (int32_t)0x0000FF00) | \
 495:.\Include/arm_math.h ****                                 (((int32_t)(v2) << 16) & (int32_t)0x00FF0000) | \
 496:.\Include/arm_math.h ****                                 (((int32_t)(v3) << 24) & (int32_t)0xFF000000)  )
 497:.\Include/arm_math.h **** #else
ARM GAS  C:\Users\fneves\AppData\Local\Temp\ccntp9We.s 			page 15


 498:.\Include/arm_math.h **** 
 499:.\Include/arm_math.h **** #define __PACKq7(v0,v1,v2,v3) ( (((int32_t)(v3) <<  0) & (int32_t)0x000000FF) | \
 500:.\Include/arm_math.h ****                                 (((int32_t)(v2) <<  8) & (int32_t)0x0000FF00) | \
 501:.\Include/arm_math.h ****                                 (((int32_t)(v1) << 16) & (int32_t)0x00FF0000) | \
 502:.\Include/arm_math.h ****                                 (((int32_t)(v0) << 24) & (int32_t)0xFF000000)  )
 503:.\Include/arm_math.h **** 
 504:.\Include/arm_math.h **** #endif
 505:.\Include/arm_math.h **** 
 506:.\Include/arm_math.h **** 
 507:.\Include/arm_math.h ****   /**
 508:.\Include/arm_math.h ****    * @brief Clips Q63 to Q31 values.
 509:.\Include/arm_math.h ****    */
 510:.\Include/arm_math.h ****   CMSIS_INLINE __STATIC_INLINE q31_t clip_q63_to_q31(
 511:.\Include/arm_math.h ****   q63_t x)
 512:.\Include/arm_math.h ****   {
 513:.\Include/arm_math.h ****     return ((q31_t) (x >> 32) != ((q31_t) x >> 31)) ?
 123              		.loc 2 513 0 is_stmt 1 discriminator 1
 124 009a FB6A     		ldr	r3, [r7, #44]
 125 009c 1B00     		asr	r3, r3, #0
 126 009e BB60     		str	r3, [r7, #8]
 127 00a0 FB6A     		ldr	r3, [r7, #44]
 128 00a2 DB17     		asr	r3, r3, #31
 129 00a4 FB60     		str	r3, [r7, #12]
 130 00a6 B968     		ldr	r1, [r7, #8]
 131 00a8 BB6A     		ldr	r3, [r7, #40]
 132 00aa DB17     		asr	r3, r3, #31
 514:.\Include/arm_math.h ****       ((0x7FFFFFFF ^ ((q31_t) (x >> 63)))) : (q31_t) x;
 133              		.loc 2 514 0 discriminator 1
 134 00ac 9942     		cmp	r1, r3
 135 00ae 09D0     		beq	.L6
 136              		.loc 2 514 0 is_stmt 0
 137 00b0 FB6A     		ldr	r3, [r7, #44]
 138 00b2 DB17     		asr	r3, r3, #31
 139 00b4 3B60     		str	r3, [r7]
 140 00b6 FB6A     		ldr	r3, [r7, #44]
 141 00b8 DB17     		asr	r3, r3, #31
 142 00ba 7B60     		str	r3, [r7, #4]
 143 00bc 3968     		ldr	r1, [r7]
 144 00be 0E4B     		ldr	r3, .L11
 145 00c0 4B40     		eor	r3, r1
 146              	.LBE5:
 147              	.LBE4:
 148 00c2 0FE0     		b	.L9
 149              	.L6:
 150              	.LBB7:
 151              	.LBB6:
 152 00c4 BB6A     		ldr	r3, [r7, #40]
 153 00c6 0DE0     		b	.L9
 154              	.L3:
 155              	.LBE6:
 156              	.LBE7:
 180:Source\BasicMathFunctions/arm_shift_q31.c ****       (*pSrc++ >> -shiftBits);
 157              		.loc 1 180 0 is_stmt 1 discriminator 2
 158 00c8 7B6A     		ldr	r3, [r7, #36]
 159 00ca 191D     		add	r1, r3, #4
 160 00cc 7962     		str	r1, [r7, #36]
 161 00ce 1968     		ldr	r1, [r3]
ARM GAS  C:\Users\fneves\AppData\Local\Temp\ccntp9We.s 			page 16


 162 00d0 0B23     		mov	r3, #11
 163 00d2 1820     		mov	r0, #24
 164 00d4 8446     		mov	ip, r0
 165 00d6 BC44     		add	ip, ip, r7
 166 00d8 6344     		add	r3, r3, ip
 167 00da 1B78     		ldrb	r3, [r3]
 168 00dc 5BB2     		sxtb	r3, r3
 169 00de 5B42     		neg	r3, r3
 179:Source\BasicMathFunctions/arm_shift_q31.c ****       (*pSrc++ >> -shiftBits);
 170              		.loc 1 179 0 discriminator 2
 171 00e0 1941     		asr	r1, r1, r3
 172 00e2 0B1C     		mov	r3, r1
 173              	.L9:
 179:Source\BasicMathFunctions/arm_shift_q31.c ****       (*pSrc++ >> -shiftBits);
 174              		.loc 1 179 0 is_stmt 0 discriminator 4
 175 00e4 1360     		str	r3, [r2]
 181:Source\BasicMathFunctions/arm_shift_q31.c **** 
 182:Source\BasicMathFunctions/arm_shift_q31.c ****     /* Decrement the loop counter */
 183:Source\BasicMathFunctions/arm_shift_q31.c ****     blkCnt--;
 176              		.loc 1 183 0 is_stmt 1 discriminator 4
 177 00e6 7B6B     		ldr	r3, [r7, #52]
 178 00e8 013B     		sub	r3, r3, #1
 179 00ea 7B63     		str	r3, [r7, #52]
 180              	.L2:
 175:Source\BasicMathFunctions/arm_shift_q31.c ****   {
 181              		.loc 1 175 0
 182 00ec 7B6B     		ldr	r3, [r7, #52]
 183 00ee 002B     		cmp	r3, #0
 184 00f0 A4D1     		bne	.L10
 184:Source\BasicMathFunctions/arm_shift_q31.c ****   }
 185:Source\BasicMathFunctions/arm_shift_q31.c **** 
 186:Source\BasicMathFunctions/arm_shift_q31.c **** 
 187:Source\BasicMathFunctions/arm_shift_q31.c **** }
 185              		.loc 1 187 0
 186 00f2 BD46     		mov	sp, r7
 187 00f4 0EB0     		add	sp, sp, #56
 188              		@ sp needed
 189 00f6 B0BD     		pop	{r4, r5, r7, pc}
 190              	.L12:
 191              		.align	2
 192              	.L11:
 193 00f8 FFFFFF7F 		.word	2147483647
 194              		.cfi_endproc
 195              	.LFE82:
 196              		.size	arm_shift_q31, .-arm_shift_q31
 197              		.text
 198              	.Letext0:
 199              		.file 3 "c:\\program files (x86)\\cypress\\psoc creator\\4.0\\psoc creator\\import\\gnu\\arm\\4.9.
 200              		.file 4 "c:\\program files (x86)\\cypress\\psoc creator\\4.0\\psoc creator\\import\\gnu\\arm\\4.9.