ARM GAS  C:\Users\fneves\AppData\Local\Temp\cclZ0dv9.s 			page 1


   1              		.cpu cortex-m0plus
   2              		.fpu softvfp
   3              		.eabi_attribute 20, 1
   4              		.eabi_attribute 21, 1
   5              		.eabi_attribute 23, 3
   6              		.eabi_attribute 24, 1
   7              		.eabi_attribute 25, 1
   8              		.eabi_attribute 26, 1
   9              		.eabi_attribute 30, 6
  10              		.eabi_attribute 34, 0
  11              		.eabi_attribute 18, 4
  12              		.code	16
  13              		.file	"arm_mat_sub_f32.c"
  14              		.text
  15              	.Ltext0:
  16              		.cfi_sections	.debug_frame
  17              		.global	__aeabi_fsub
  18              		.section	.text.arm_mat_sub_f32,"ax",%progbits
  19              		.align	2
  20              		.global	arm_mat_sub_f32
  21              		.code	16
  22              		.thumb_func
  23              		.type	arm_mat_sub_f32, %function
  24              	arm_mat_sub_f32:
  25              	.LFB82:
  26              		.file 1 "Source\\MatrixFunctions\\arm_mat_sub_f32.c"
   1:Source\MatrixFunctions/arm_mat_sub_f32.c **** /* ----------------------------------------------------------------------
   2:Source\MatrixFunctions/arm_mat_sub_f32.c ****  * Project:      CMSIS DSP Library
   3:Source\MatrixFunctions/arm_mat_sub_f32.c ****  * Title:        arm_mat_sub_f32.c
   4:Source\MatrixFunctions/arm_mat_sub_f32.c ****  * Description:  Floating-point matrix subtraction
   5:Source\MatrixFunctions/arm_mat_sub_f32.c ****  *
   6:Source\MatrixFunctions/arm_mat_sub_f32.c ****  * $Date:        27. January 2017
   7:Source\MatrixFunctions/arm_mat_sub_f32.c ****  * $Revision:    V.1.5.1
   8:Source\MatrixFunctions/arm_mat_sub_f32.c ****  *
   9:Source\MatrixFunctions/arm_mat_sub_f32.c ****  * Target Processor: Cortex-M cores
  10:Source\MatrixFunctions/arm_mat_sub_f32.c ****  * -------------------------------------------------------------------- */
  11:Source\MatrixFunctions/arm_mat_sub_f32.c **** /*
  12:Source\MatrixFunctions/arm_mat_sub_f32.c ****  * Copyright (C) 2010-2017 ARM Limited or its affiliates. All rights reserved.
  13:Source\MatrixFunctions/arm_mat_sub_f32.c ****  *
  14:Source\MatrixFunctions/arm_mat_sub_f32.c ****  * SPDX-License-Identifier: Apache-2.0
  15:Source\MatrixFunctions/arm_mat_sub_f32.c ****  *
  16:Source\MatrixFunctions/arm_mat_sub_f32.c ****  * Licensed under the Apache License, Version 2.0 (the License); you may
  17:Source\MatrixFunctions/arm_mat_sub_f32.c ****  * not use this file except in compliance with the License.
  18:Source\MatrixFunctions/arm_mat_sub_f32.c ****  * You may obtain a copy of the License at
  19:Source\MatrixFunctions/arm_mat_sub_f32.c ****  *
  20:Source\MatrixFunctions/arm_mat_sub_f32.c ****  * www.apache.org/licenses/LICENSE-2.0
  21:Source\MatrixFunctions/arm_mat_sub_f32.c ****  *
  22:Source\MatrixFunctions/arm_mat_sub_f32.c ****  * Unless required by applicable law or agreed to in writing, software
  23:Source\MatrixFunctions/arm_mat_sub_f32.c ****  * distributed under the License is distributed on an AS IS BASIS, WITHOUT
  24:Source\MatrixFunctions/arm_mat_sub_f32.c ****  * WARRANTIES OR CONDITIONS OF ANY KIND, either express or implied.
  25:Source\MatrixFunctions/arm_mat_sub_f32.c ****  * See the License for the specific language governing permissions and
  26:Source\MatrixFunctions/arm_mat_sub_f32.c ****  * limitations under the License.
  27:Source\MatrixFunctions/arm_mat_sub_f32.c ****  */
  28:Source\MatrixFunctions/arm_mat_sub_f32.c **** 
  29:Source\MatrixFunctions/arm_mat_sub_f32.c **** #include "arm_math.h"
  30:Source\MatrixFunctions/arm_mat_sub_f32.c **** 
  31:Source\MatrixFunctions/arm_mat_sub_f32.c **** /**
ARM GAS  C:\Users\fneves\AppData\Local\Temp\cclZ0dv9.s 			page 2


  32:Source\MatrixFunctions/arm_mat_sub_f32.c ****  * @ingroup groupMatrix
  33:Source\MatrixFunctions/arm_mat_sub_f32.c ****  */
  34:Source\MatrixFunctions/arm_mat_sub_f32.c **** 
  35:Source\MatrixFunctions/arm_mat_sub_f32.c **** /**
  36:Source\MatrixFunctions/arm_mat_sub_f32.c ****  * @defgroup MatrixSub Matrix Subtraction
  37:Source\MatrixFunctions/arm_mat_sub_f32.c ****  *
  38:Source\MatrixFunctions/arm_mat_sub_f32.c ****  * Subtract two matrices.
  39:Source\MatrixFunctions/arm_mat_sub_f32.c ****  * \image html MatrixSubtraction.gif "Subraction of two 3 x 3 matrices"
  40:Source\MatrixFunctions/arm_mat_sub_f32.c ****  *
  41:Source\MatrixFunctions/arm_mat_sub_f32.c ****  * The functions check to make sure that
  42:Source\MatrixFunctions/arm_mat_sub_f32.c ****  * <code>pSrcA</code>, <code>pSrcB</code>, and <code>pDst</code> have the same
  43:Source\MatrixFunctions/arm_mat_sub_f32.c ****  * number of rows and columns.
  44:Source\MatrixFunctions/arm_mat_sub_f32.c ****  */
  45:Source\MatrixFunctions/arm_mat_sub_f32.c **** 
  46:Source\MatrixFunctions/arm_mat_sub_f32.c **** /**
  47:Source\MatrixFunctions/arm_mat_sub_f32.c ****  * @addtogroup MatrixSub
  48:Source\MatrixFunctions/arm_mat_sub_f32.c ****  * @{
  49:Source\MatrixFunctions/arm_mat_sub_f32.c ****  */
  50:Source\MatrixFunctions/arm_mat_sub_f32.c **** 
  51:Source\MatrixFunctions/arm_mat_sub_f32.c **** /**
  52:Source\MatrixFunctions/arm_mat_sub_f32.c ****  * @brief Floating-point matrix subtraction
  53:Source\MatrixFunctions/arm_mat_sub_f32.c ****  * @param[in]       *pSrcA points to the first input matrix structure
  54:Source\MatrixFunctions/arm_mat_sub_f32.c ****  * @param[in]       *pSrcB points to the second input matrix structure
  55:Source\MatrixFunctions/arm_mat_sub_f32.c ****  * @param[out]      *pDst points to output matrix structure
  56:Source\MatrixFunctions/arm_mat_sub_f32.c ****  * @return     		The function returns either
  57:Source\MatrixFunctions/arm_mat_sub_f32.c ****  * <code>ARM_MATH_SIZE_MISMATCH</code> or <code>ARM_MATH_SUCCESS</code> based on the outcome of siz
  58:Source\MatrixFunctions/arm_mat_sub_f32.c ****  */
  59:Source\MatrixFunctions/arm_mat_sub_f32.c **** 
  60:Source\MatrixFunctions/arm_mat_sub_f32.c **** arm_status arm_mat_sub_f32(
  61:Source\MatrixFunctions/arm_mat_sub_f32.c ****   const arm_matrix_instance_f32 * pSrcA,
  62:Source\MatrixFunctions/arm_mat_sub_f32.c ****   const arm_matrix_instance_f32 * pSrcB,
  63:Source\MatrixFunctions/arm_mat_sub_f32.c ****   arm_matrix_instance_f32 * pDst)
  64:Source\MatrixFunctions/arm_mat_sub_f32.c **** {
  27              		.loc 1 64 0
  28              		.cfi_startproc
  29 0000 90B5     		push	{r4, r7, lr}
  30              		.cfi_def_cfa_offset 12
  31              		.cfi_offset 4, -12
  32              		.cfi_offset 7, -8
  33              		.cfi_offset 14, -4
  34 0002 8BB0     		sub	sp, sp, #44
  35              		.cfi_def_cfa_offset 56
  36 0004 00AF     		add	r7, sp, #0
  37              		.cfi_def_cfa_register 7
  38 0006 F860     		str	r0, [r7, #12]
  39 0008 B960     		str	r1, [r7, #8]
  40 000a 7A60     		str	r2, [r7, #4]
  65:Source\MatrixFunctions/arm_mat_sub_f32.c ****   float32_t *pIn1 = pSrcA->pData;                /* input data matrix pointer A */
  41              		.loc 1 65 0
  42 000c FB68     		ldr	r3, [r7, #12]
  43 000e 5B68     		ldr	r3, [r3, #4]
  44 0010 7B62     		str	r3, [r7, #36]
  66:Source\MatrixFunctions/arm_mat_sub_f32.c ****   float32_t *pIn2 = pSrcB->pData;                /* input data matrix pointer B */
  45              		.loc 1 66 0
  46 0012 BB68     		ldr	r3, [r7, #8]
  47 0014 5B68     		ldr	r3, [r3, #4]
  48 0016 3B62     		str	r3, [r7, #32]
ARM GAS  C:\Users\fneves\AppData\Local\Temp\cclZ0dv9.s 			page 3


  67:Source\MatrixFunctions/arm_mat_sub_f32.c ****   float32_t *pOut = pDst->pData;                 /* output data matrix pointer  */
  49              		.loc 1 67 0
  50 0018 7B68     		ldr	r3, [r7, #4]
  51 001a 5B68     		ldr	r3, [r3, #4]
  52 001c FB61     		str	r3, [r7, #28]
  68:Source\MatrixFunctions/arm_mat_sub_f32.c **** 
  69:Source\MatrixFunctions/arm_mat_sub_f32.c **** #if defined (ARM_MATH_DSP)
  70:Source\MatrixFunctions/arm_mat_sub_f32.c **** 
  71:Source\MatrixFunctions/arm_mat_sub_f32.c ****   float32_t inA1, inA2, inB1, inB2, out1, out2;  /* temporary variables */
  72:Source\MatrixFunctions/arm_mat_sub_f32.c **** 
  73:Source\MatrixFunctions/arm_mat_sub_f32.c **** #endif //      #if defined (ARM_MATH_DSP)
  74:Source\MatrixFunctions/arm_mat_sub_f32.c **** 
  75:Source\MatrixFunctions/arm_mat_sub_f32.c ****   uint32_t numSamples;                           /* total number of elements in the matrix  */
  76:Source\MatrixFunctions/arm_mat_sub_f32.c ****   uint32_t blkCnt;                               /* loop counters */
  77:Source\MatrixFunctions/arm_mat_sub_f32.c ****   arm_status status;                             /* status of matrix subtraction */
  78:Source\MatrixFunctions/arm_mat_sub_f32.c **** 
  79:Source\MatrixFunctions/arm_mat_sub_f32.c **** #ifdef ARM_MATH_MATRIX_CHECK
  80:Source\MatrixFunctions/arm_mat_sub_f32.c ****   /* Check for matrix mismatch condition */
  81:Source\MatrixFunctions/arm_mat_sub_f32.c ****   if ((pSrcA->numRows != pSrcB->numRows) ||
  82:Source\MatrixFunctions/arm_mat_sub_f32.c ****      (pSrcA->numCols != pSrcB->numCols) ||
  83:Source\MatrixFunctions/arm_mat_sub_f32.c ****      (pSrcA->numRows != pDst->numRows) || (pSrcA->numCols != pDst->numCols))
  84:Source\MatrixFunctions/arm_mat_sub_f32.c ****   {
  85:Source\MatrixFunctions/arm_mat_sub_f32.c ****     /* Set status as ARM_MATH_SIZE_MISMATCH */
  86:Source\MatrixFunctions/arm_mat_sub_f32.c ****     status = ARM_MATH_SIZE_MISMATCH;
  87:Source\MatrixFunctions/arm_mat_sub_f32.c ****   }
  88:Source\MatrixFunctions/arm_mat_sub_f32.c ****   else
  89:Source\MatrixFunctions/arm_mat_sub_f32.c **** #endif /*    #ifdef ARM_MATH_MATRIX_CHECK    */
  90:Source\MatrixFunctions/arm_mat_sub_f32.c ****   {
  91:Source\MatrixFunctions/arm_mat_sub_f32.c ****     /* Total number of samples in the input matrix */
  92:Source\MatrixFunctions/arm_mat_sub_f32.c ****     numSamples = (uint32_t) pSrcA->numRows * pSrcA->numCols;
  53              		.loc 1 92 0
  54 001e FB68     		ldr	r3, [r7, #12]
  55 0020 1B88     		ldrh	r3, [r3]
  56 0022 1A1C     		mov	r2, r3
  57 0024 FB68     		ldr	r3, [r7, #12]
  58 0026 5B88     		ldrh	r3, [r3, #2]
  59 0028 5343     		mul	r3, r2
  60 002a 7B61     		str	r3, [r7, #20]
  93:Source\MatrixFunctions/arm_mat_sub_f32.c **** 
  94:Source\MatrixFunctions/arm_mat_sub_f32.c **** #if defined (ARM_MATH_DSP)
  95:Source\MatrixFunctions/arm_mat_sub_f32.c **** 
  96:Source\MatrixFunctions/arm_mat_sub_f32.c ****     /* Run the below code for Cortex-M4 and Cortex-M3 */
  97:Source\MatrixFunctions/arm_mat_sub_f32.c **** 
  98:Source\MatrixFunctions/arm_mat_sub_f32.c ****     /* Loop Unrolling */
  99:Source\MatrixFunctions/arm_mat_sub_f32.c ****     blkCnt = numSamples >> 2u;
 100:Source\MatrixFunctions/arm_mat_sub_f32.c **** 
 101:Source\MatrixFunctions/arm_mat_sub_f32.c ****     /* First part of the processing with loop unrolling.  Compute 4 outputs at a time.
 102:Source\MatrixFunctions/arm_mat_sub_f32.c ****      ** a second loop below computes the remaining 1 to 3 samples. */
 103:Source\MatrixFunctions/arm_mat_sub_f32.c ****     while (blkCnt > 0u)
 104:Source\MatrixFunctions/arm_mat_sub_f32.c ****     {
 105:Source\MatrixFunctions/arm_mat_sub_f32.c ****       /* C(m,n) = A(m,n) - B(m,n) */
 106:Source\MatrixFunctions/arm_mat_sub_f32.c ****       /* Subtract and then store the results in the destination buffer. */
 107:Source\MatrixFunctions/arm_mat_sub_f32.c ****       /* Read values from source A */
 108:Source\MatrixFunctions/arm_mat_sub_f32.c ****       inA1 = pIn1[0];
 109:Source\MatrixFunctions/arm_mat_sub_f32.c **** 
 110:Source\MatrixFunctions/arm_mat_sub_f32.c ****       /* Read values from source B */
 111:Source\MatrixFunctions/arm_mat_sub_f32.c ****       inB1 = pIn2[0];
ARM GAS  C:\Users\fneves\AppData\Local\Temp\cclZ0dv9.s 			page 4


 112:Source\MatrixFunctions/arm_mat_sub_f32.c **** 
 113:Source\MatrixFunctions/arm_mat_sub_f32.c ****       /* Read values from source A */
 114:Source\MatrixFunctions/arm_mat_sub_f32.c ****       inA2 = pIn1[1];
 115:Source\MatrixFunctions/arm_mat_sub_f32.c **** 
 116:Source\MatrixFunctions/arm_mat_sub_f32.c ****       /* out = sourceA - sourceB */
 117:Source\MatrixFunctions/arm_mat_sub_f32.c ****       out1 = inA1 - inB1;
 118:Source\MatrixFunctions/arm_mat_sub_f32.c **** 
 119:Source\MatrixFunctions/arm_mat_sub_f32.c ****       /* Read values from source B */
 120:Source\MatrixFunctions/arm_mat_sub_f32.c ****       inB2 = pIn2[1];
 121:Source\MatrixFunctions/arm_mat_sub_f32.c **** 
 122:Source\MatrixFunctions/arm_mat_sub_f32.c ****       /* Read values from source A */
 123:Source\MatrixFunctions/arm_mat_sub_f32.c ****       inA1 = pIn1[2];
 124:Source\MatrixFunctions/arm_mat_sub_f32.c **** 
 125:Source\MatrixFunctions/arm_mat_sub_f32.c ****       /* out = sourceA - sourceB */
 126:Source\MatrixFunctions/arm_mat_sub_f32.c ****       out2 = inA2 - inB2;
 127:Source\MatrixFunctions/arm_mat_sub_f32.c **** 
 128:Source\MatrixFunctions/arm_mat_sub_f32.c ****       /* Read values from source B */
 129:Source\MatrixFunctions/arm_mat_sub_f32.c ****       inB1 = pIn2[2];
 130:Source\MatrixFunctions/arm_mat_sub_f32.c **** 
 131:Source\MatrixFunctions/arm_mat_sub_f32.c ****       /* Store result in destination */
 132:Source\MatrixFunctions/arm_mat_sub_f32.c ****       pOut[0] = out1;
 133:Source\MatrixFunctions/arm_mat_sub_f32.c ****       pOut[1] = out2;
 134:Source\MatrixFunctions/arm_mat_sub_f32.c **** 
 135:Source\MatrixFunctions/arm_mat_sub_f32.c ****       /* Read values from source A */
 136:Source\MatrixFunctions/arm_mat_sub_f32.c ****       inA2 = pIn1[3];
 137:Source\MatrixFunctions/arm_mat_sub_f32.c **** 
 138:Source\MatrixFunctions/arm_mat_sub_f32.c ****       /* Read values from source B */
 139:Source\MatrixFunctions/arm_mat_sub_f32.c ****       inB2 = pIn2[3];
 140:Source\MatrixFunctions/arm_mat_sub_f32.c **** 
 141:Source\MatrixFunctions/arm_mat_sub_f32.c ****       /* out = sourceA - sourceB */
 142:Source\MatrixFunctions/arm_mat_sub_f32.c ****       out1 = inA1 - inB1;
 143:Source\MatrixFunctions/arm_mat_sub_f32.c **** 
 144:Source\MatrixFunctions/arm_mat_sub_f32.c **** 
 145:Source\MatrixFunctions/arm_mat_sub_f32.c ****       /* out = sourceA - sourceB */
 146:Source\MatrixFunctions/arm_mat_sub_f32.c ****       out2 = inA2 - inB2;
 147:Source\MatrixFunctions/arm_mat_sub_f32.c **** 
 148:Source\MatrixFunctions/arm_mat_sub_f32.c ****       /* Store result in destination */
 149:Source\MatrixFunctions/arm_mat_sub_f32.c ****       pOut[2] = out1;
 150:Source\MatrixFunctions/arm_mat_sub_f32.c **** 
 151:Source\MatrixFunctions/arm_mat_sub_f32.c ****       /* Store result in destination */
 152:Source\MatrixFunctions/arm_mat_sub_f32.c ****       pOut[3] = out2;
 153:Source\MatrixFunctions/arm_mat_sub_f32.c **** 
 154:Source\MatrixFunctions/arm_mat_sub_f32.c **** 
 155:Source\MatrixFunctions/arm_mat_sub_f32.c ****       /* update pointers to process next sampels */
 156:Source\MatrixFunctions/arm_mat_sub_f32.c ****       pIn1 += 4u;
 157:Source\MatrixFunctions/arm_mat_sub_f32.c ****       pIn2 += 4u;
 158:Source\MatrixFunctions/arm_mat_sub_f32.c ****       pOut += 4u;
 159:Source\MatrixFunctions/arm_mat_sub_f32.c **** 
 160:Source\MatrixFunctions/arm_mat_sub_f32.c ****       /* Decrement the loop counter */
 161:Source\MatrixFunctions/arm_mat_sub_f32.c ****       blkCnt--;
 162:Source\MatrixFunctions/arm_mat_sub_f32.c ****     }
 163:Source\MatrixFunctions/arm_mat_sub_f32.c **** 
 164:Source\MatrixFunctions/arm_mat_sub_f32.c ****     /* If the numSamples is not a multiple of 4, compute any remaining output samples here.
 165:Source\MatrixFunctions/arm_mat_sub_f32.c ****      ** No loop unrolling is used. */
 166:Source\MatrixFunctions/arm_mat_sub_f32.c ****     blkCnt = numSamples % 0x4u;
 167:Source\MatrixFunctions/arm_mat_sub_f32.c **** 
 168:Source\MatrixFunctions/arm_mat_sub_f32.c **** #else
ARM GAS  C:\Users\fneves\AppData\Local\Temp\cclZ0dv9.s 			page 5


 169:Source\MatrixFunctions/arm_mat_sub_f32.c **** 
 170:Source\MatrixFunctions/arm_mat_sub_f32.c ****     /* Run the below code for Cortex-M0 */
 171:Source\MatrixFunctions/arm_mat_sub_f32.c **** 
 172:Source\MatrixFunctions/arm_mat_sub_f32.c ****     /* Initialize blkCnt with number of samples */
 173:Source\MatrixFunctions/arm_mat_sub_f32.c ****     blkCnt = numSamples;
  61              		.loc 1 173 0
  62 002c 7B69     		ldr	r3, [r7, #20]
  63 002e BB61     		str	r3, [r7, #24]
 174:Source\MatrixFunctions/arm_mat_sub_f32.c **** 
 175:Source\MatrixFunctions/arm_mat_sub_f32.c **** #endif /* #if defined (ARM_MATH_DSP) */
 176:Source\MatrixFunctions/arm_mat_sub_f32.c **** 
 177:Source\MatrixFunctions/arm_mat_sub_f32.c ****     while (blkCnt > 0u)
  64              		.loc 1 177 0
  65 0030 13E0     		b	.L2
  66              	.L3:
 178:Source\MatrixFunctions/arm_mat_sub_f32.c ****     {
 179:Source\MatrixFunctions/arm_mat_sub_f32.c ****       /* C(m,n) = A(m,n) - B(m,n) */
 180:Source\MatrixFunctions/arm_mat_sub_f32.c ****       /* Subtract and then store the results in the destination buffer. */
 181:Source\MatrixFunctions/arm_mat_sub_f32.c ****       *pOut++ = (*pIn1++) - (*pIn2++);
  67              		.loc 1 181 0
  68 0032 FC69     		ldr	r4, [r7, #28]
  69 0034 231D     		add	r3, r4, #4
  70 0036 FB61     		str	r3, [r7, #28]
  71 0038 7B6A     		ldr	r3, [r7, #36]
  72 003a 1A1D     		add	r2, r3, #4
  73 003c 7A62     		str	r2, [r7, #36]
  74 003e 1968     		ldr	r1, [r3]
  75 0040 3B6A     		ldr	r3, [r7, #32]
  76 0042 1A1D     		add	r2, r3, #4
  77 0044 3A62     		str	r2, [r7, #32]
  78 0046 1B68     		ldr	r3, [r3]
  79 0048 081C     		add	r0, r1, #0
  80 004a 191C     		add	r1, r3, #0
  81 004c FFF7FEFF 		bl	__aeabi_fsub
  82 0050 031C     		add	r3, r0, #0
  83 0052 2360     		str	r3, [r4]
 182:Source\MatrixFunctions/arm_mat_sub_f32.c **** 
 183:Source\MatrixFunctions/arm_mat_sub_f32.c ****       /* Decrement the loop counter */
 184:Source\MatrixFunctions/arm_mat_sub_f32.c ****       blkCnt--;
  84              		.loc 1 184 0
  85 0054 BB69     		ldr	r3, [r7, #24]
  86 0056 013B     		sub	r3, r3, #1
  87 0058 BB61     		str	r3, [r7, #24]
  88              	.L2:
 177:Source\MatrixFunctions/arm_mat_sub_f32.c ****     {
  89              		.loc 1 177 0
  90 005a BB69     		ldr	r3, [r7, #24]
  91 005c 002B     		cmp	r3, #0
  92 005e E8D1     		bne	.L3
 185:Source\MatrixFunctions/arm_mat_sub_f32.c ****     }
 186:Source\MatrixFunctions/arm_mat_sub_f32.c **** 
 187:Source\MatrixFunctions/arm_mat_sub_f32.c ****     /* Set status as ARM_MATH_SUCCESS */
 188:Source\MatrixFunctions/arm_mat_sub_f32.c ****     status = ARM_MATH_SUCCESS;
  93              		.loc 1 188 0
  94 0060 1323     		mov	r3, #19
  95 0062 FB18     		add	r3, r7, r3
  96 0064 0022     		mov	r2, #0
ARM GAS  C:\Users\fneves\AppData\Local\Temp\cclZ0dv9.s 			page 6


  97 0066 1A70     		strb	r2, [r3]
 189:Source\MatrixFunctions/arm_mat_sub_f32.c ****   }
 190:Source\MatrixFunctions/arm_mat_sub_f32.c **** 
 191:Source\MatrixFunctions/arm_mat_sub_f32.c ****   /* Return to application */
 192:Source\MatrixFunctions/arm_mat_sub_f32.c ****   return (status);
  98              		.loc 1 192 0
  99 0068 1323     		mov	r3, #19
 100 006a FB18     		add	r3, r7, r3
 101 006c 1B78     		ldrb	r3, [r3]
 102 006e 5BB2     		sxtb	r3, r3
 193:Source\MatrixFunctions/arm_mat_sub_f32.c **** }
 103              		.loc 1 193 0
 104 0070 181C     		mov	r0, r3
 105 0072 BD46     		mov	sp, r7
 106 0074 0BB0     		add	sp, sp, #44
 107              		@ sp needed
 108 0076 90BD     		pop	{r4, r7, pc}
 109              		.cfi_endproc
 110              	.LFE82:
 111              		.size	arm_mat_sub_f32, .-arm_mat_sub_f32
 112              		.text
 113              	.Letext0:
 114              		.file 2 "c:\\program files (x86)\\cypress\\psoc creator\\4.0\\psoc creator\\import\\gnu\\arm\\4.9.
 115              		.file 3 "c:\\program files (x86)\\cypress\\psoc creator\\4.0\\psoc creator\\import\\gnu\\arm\\4.9.
 116              		.file 4 ".\\Include/arm_math.h"