ARM GAS  C:\Users\fneves\AppData\Local\Temp\ccw5JCrI.s 			page 1


   1              		.cpu cortex-m0plus
   2              		.fpu softvfp
   3              		.eabi_attribute 20, 1
   4              		.eabi_attribute 21, 1
   5              		.eabi_attribute 23, 3
   6              		.eabi_attribute 24, 1
   7              		.eabi_attribute 25, 1
   8              		.eabi_attribute 26, 1
   9              		.eabi_attribute 30, 6
  10              		.eabi_attribute 34, 0
  11              		.eabi_attribute 18, 4
  12              		.code	16
  13              		.file	"arm_lms_norm_f32.c"
  14              		.text
  15              	.Ltext0:
  16              		.cfi_sections	.debug_frame
  17              		.global	__aeabi_fmul
  18              		.global	__aeabi_fsub
  19              		.global	__aeabi_fadd
  20              		.global	__aeabi_fdiv
  21              		.section	.text.arm_lms_norm_f32,"ax",%progbits
  22              		.align	2
  23              		.global	arm_lms_norm_f32
  24              		.code	16
  25              		.thumb_func
  26              		.type	arm_lms_norm_f32, %function
  27              	arm_lms_norm_f32:
  28              	.LFB82:
  29              		.file 1 "Source\\FilteringFunctions\\arm_lms_norm_f32.c"
   1:Source\FilteringFunctions/arm_lms_norm_f32.c **** /* ----------------------------------------------------------------------
   2:Source\FilteringFunctions/arm_lms_norm_f32.c ****  * Project:      CMSIS DSP Library
   3:Source\FilteringFunctions/arm_lms_norm_f32.c ****  * Title:        arm_lms_norm_f32.c
   4:Source\FilteringFunctions/arm_lms_norm_f32.c ****  * Description:  Processing function for the floating-point Normalised LMS
   5:Source\FilteringFunctions/arm_lms_norm_f32.c ****  *
   6:Source\FilteringFunctions/arm_lms_norm_f32.c ****  * $Date:        27. January 2017
   7:Source\FilteringFunctions/arm_lms_norm_f32.c ****  * $Revision:    V.1.5.1
   8:Source\FilteringFunctions/arm_lms_norm_f32.c ****  *
   9:Source\FilteringFunctions/arm_lms_norm_f32.c ****  * Target Processor: Cortex-M cores
  10:Source\FilteringFunctions/arm_lms_norm_f32.c ****  * -------------------------------------------------------------------- */
  11:Source\FilteringFunctions/arm_lms_norm_f32.c **** /*
  12:Source\FilteringFunctions/arm_lms_norm_f32.c ****  * Copyright (C) 2010-2017 ARM Limited or its affiliates. All rights reserved.
  13:Source\FilteringFunctions/arm_lms_norm_f32.c ****  *
  14:Source\FilteringFunctions/arm_lms_norm_f32.c ****  * SPDX-License-Identifier: Apache-2.0
  15:Source\FilteringFunctions/arm_lms_norm_f32.c ****  *
  16:Source\FilteringFunctions/arm_lms_norm_f32.c ****  * Licensed under the Apache License, Version 2.0 (the License); you may
  17:Source\FilteringFunctions/arm_lms_norm_f32.c ****  * not use this file except in compliance with the License.
  18:Source\FilteringFunctions/arm_lms_norm_f32.c ****  * You may obtain a copy of the License at
  19:Source\FilteringFunctions/arm_lms_norm_f32.c ****  *
  20:Source\FilteringFunctions/arm_lms_norm_f32.c ****  * www.apache.org/licenses/LICENSE-2.0
  21:Source\FilteringFunctions/arm_lms_norm_f32.c ****  *
  22:Source\FilteringFunctions/arm_lms_norm_f32.c ****  * Unless required by applicable law or agreed to in writing, software
  23:Source\FilteringFunctions/arm_lms_norm_f32.c ****  * distributed under the License is distributed on an AS IS BASIS, WITHOUT
  24:Source\FilteringFunctions/arm_lms_norm_f32.c ****  * WARRANTIES OR CONDITIONS OF ANY KIND, either express or implied.
  25:Source\FilteringFunctions/arm_lms_norm_f32.c ****  * See the License for the specific language governing permissions and
  26:Source\FilteringFunctions/arm_lms_norm_f32.c ****  * limitations under the License.
  27:Source\FilteringFunctions/arm_lms_norm_f32.c ****  */
  28:Source\FilteringFunctions/arm_lms_norm_f32.c **** 
ARM GAS  C:\Users\fneves\AppData\Local\Temp\ccw5JCrI.s 			page 2


  29:Source\FilteringFunctions/arm_lms_norm_f32.c **** #include "arm_math.h"
  30:Source\FilteringFunctions/arm_lms_norm_f32.c **** 
  31:Source\FilteringFunctions/arm_lms_norm_f32.c **** /**
  32:Source\FilteringFunctions/arm_lms_norm_f32.c ****  * @ingroup groupFilters
  33:Source\FilteringFunctions/arm_lms_norm_f32.c ****  */
  34:Source\FilteringFunctions/arm_lms_norm_f32.c **** 
  35:Source\FilteringFunctions/arm_lms_norm_f32.c **** /**
  36:Source\FilteringFunctions/arm_lms_norm_f32.c ****  * @defgroup LMS_NORM Normalized LMS Filters
  37:Source\FilteringFunctions/arm_lms_norm_f32.c ****  *
  38:Source\FilteringFunctions/arm_lms_norm_f32.c ****  * This set of functions implements a commonly used adaptive filter.
  39:Source\FilteringFunctions/arm_lms_norm_f32.c ****  * It is related to the Least Mean Square (LMS) adaptive filter and includes an additional normaliz
  40:Source\FilteringFunctions/arm_lms_norm_f32.c ****  * factor which increases the adaptation rate of the filter.
  41:Source\FilteringFunctions/arm_lms_norm_f32.c ****  * The CMSIS DSP Library contains normalized LMS filter functions that operate on Q15, Q31, and flo
  42:Source\FilteringFunctions/arm_lms_norm_f32.c ****  *
  43:Source\FilteringFunctions/arm_lms_norm_f32.c ****  * A normalized least mean square (NLMS) filter consists of two components as shown below.
  44:Source\FilteringFunctions/arm_lms_norm_f32.c ****  * The first component is a standard transversal or FIR filter.
  45:Source\FilteringFunctions/arm_lms_norm_f32.c ****  * The second component is a coefficient update mechanism.
  46:Source\FilteringFunctions/arm_lms_norm_f32.c ****  * The NLMS filter has two input signals.
  47:Source\FilteringFunctions/arm_lms_norm_f32.c ****  * The "input" feeds the FIR filter while the "reference input" corresponds to the desired output o
  48:Source\FilteringFunctions/arm_lms_norm_f32.c ****  * That is, the FIR filter coefficients are updated so that the output of the FIR filter matches th
  49:Source\FilteringFunctions/arm_lms_norm_f32.c ****  * The filter coefficient update mechanism is based on the difference between the FIR filter output
  50:Source\FilteringFunctions/arm_lms_norm_f32.c ****  * This "error signal" tends towards zero as the filter adapts.
  51:Source\FilteringFunctions/arm_lms_norm_f32.c ****  * The NLMS processing functions accept the input and reference input signals and generate the filt
  52:Source\FilteringFunctions/arm_lms_norm_f32.c ****  * \image html LMS.gif "Internal structure of the NLMS adaptive filter"
  53:Source\FilteringFunctions/arm_lms_norm_f32.c ****  *
  54:Source\FilteringFunctions/arm_lms_norm_f32.c ****  * The functions operate on blocks of data and each call to the function processes
  55:Source\FilteringFunctions/arm_lms_norm_f32.c ****  * <code>blockSize</code> samples through the filter.
  56:Source\FilteringFunctions/arm_lms_norm_f32.c ****  * <code>pSrc</code> points to input signal, <code>pRef</code> points to reference signal,
  57:Source\FilteringFunctions/arm_lms_norm_f32.c ****  * <code>pOut</code> points to output signal and <code>pErr</code> points to error signal.
  58:Source\FilteringFunctions/arm_lms_norm_f32.c ****  * All arrays contain <code>blockSize</code> values.
  59:Source\FilteringFunctions/arm_lms_norm_f32.c ****  *
  60:Source\FilteringFunctions/arm_lms_norm_f32.c ****  * The functions operate on a block-by-block basis.
  61:Source\FilteringFunctions/arm_lms_norm_f32.c ****  * Internally, the filter coefficients <code>b[n]</code> are updated on a sample-by-sample basis.
  62:Source\FilteringFunctions/arm_lms_norm_f32.c ****  * The convergence of the LMS filter is slower compared to the normalized LMS algorithm.
  63:Source\FilteringFunctions/arm_lms_norm_f32.c ****  *
  64:Source\FilteringFunctions/arm_lms_norm_f32.c ****  * \par Algorithm:
  65:Source\FilteringFunctions/arm_lms_norm_f32.c ****  * The output signal <code>y[n]</code> is computed by a standard FIR filter:
  66:Source\FilteringFunctions/arm_lms_norm_f32.c ****  * <pre>
  67:Source\FilteringFunctions/arm_lms_norm_f32.c ****  *     y[n] = b[0] * x[n] + b[1] * x[n-1] + b[2] * x[n-2] + ...+ b[numTaps-1] * x[n-numTaps+1]
  68:Source\FilteringFunctions/arm_lms_norm_f32.c ****  * </pre>
  69:Source\FilteringFunctions/arm_lms_norm_f32.c ****  *
  70:Source\FilteringFunctions/arm_lms_norm_f32.c ****  * \par
  71:Source\FilteringFunctions/arm_lms_norm_f32.c ****  * The error signal equals the difference between the reference signal <code>d[n]</code> and the fi
  72:Source\FilteringFunctions/arm_lms_norm_f32.c ****  * <pre>
  73:Source\FilteringFunctions/arm_lms_norm_f32.c ****  *     e[n] = d[n] - y[n].
  74:Source\FilteringFunctions/arm_lms_norm_f32.c ****  * </pre>
  75:Source\FilteringFunctions/arm_lms_norm_f32.c ****  *
  76:Source\FilteringFunctions/arm_lms_norm_f32.c ****  * \par
  77:Source\FilteringFunctions/arm_lms_norm_f32.c ****  * After each sample of the error signal is computed the instanteous energy of the filter state var
  78:Source\FilteringFunctions/arm_lms_norm_f32.c ****  * <pre>
  79:Source\FilteringFunctions/arm_lms_norm_f32.c ****  *    E = x[n]^2 + x[n-1]^2 + ... + x[n-numTaps+1]^2.
  80:Source\FilteringFunctions/arm_lms_norm_f32.c ****  * </pre>
  81:Source\FilteringFunctions/arm_lms_norm_f32.c ****  * The filter coefficients <code>b[k]</code> are then updated on a sample-by-sample basis:
  82:Source\FilteringFunctions/arm_lms_norm_f32.c ****  * <pre>
  83:Source\FilteringFunctions/arm_lms_norm_f32.c ****  *     b[k] = b[k] + e[n] * (mu/E) * x[n-k],  for k=0, 1, ..., numTaps-1
  84:Source\FilteringFunctions/arm_lms_norm_f32.c ****  * </pre>
  85:Source\FilteringFunctions/arm_lms_norm_f32.c ****  * where <code>mu</code> is the step size and controls the rate of coefficient convergence.
ARM GAS  C:\Users\fneves\AppData\Local\Temp\ccw5JCrI.s 			page 3


  86:Source\FilteringFunctions/arm_lms_norm_f32.c ****  *\par
  87:Source\FilteringFunctions/arm_lms_norm_f32.c ****  * In the APIs, <code>pCoeffs</code> points to a coefficient array of size <code>numTaps</code>.
  88:Source\FilteringFunctions/arm_lms_norm_f32.c ****  * Coefficients are stored in time reversed order.
  89:Source\FilteringFunctions/arm_lms_norm_f32.c ****  * \par
  90:Source\FilteringFunctions/arm_lms_norm_f32.c ****  * <pre>
  91:Source\FilteringFunctions/arm_lms_norm_f32.c ****  *    {b[numTaps-1], b[numTaps-2], b[N-2], ..., b[1], b[0]}
  92:Source\FilteringFunctions/arm_lms_norm_f32.c ****  * </pre>
  93:Source\FilteringFunctions/arm_lms_norm_f32.c ****  * \par
  94:Source\FilteringFunctions/arm_lms_norm_f32.c ****  * <code>pState</code> points to a state array of size <code>numTaps + blockSize - 1</code>.
  95:Source\FilteringFunctions/arm_lms_norm_f32.c ****  * Samples in the state buffer are stored in the order:
  96:Source\FilteringFunctions/arm_lms_norm_f32.c ****  * \par
  97:Source\FilteringFunctions/arm_lms_norm_f32.c ****  * <pre>
  98:Source\FilteringFunctions/arm_lms_norm_f32.c ****  *    {x[n-numTaps+1], x[n-numTaps], x[n-numTaps-1], x[n-numTaps-2]....x[0], x[1], ..., x[blockSize
  99:Source\FilteringFunctions/arm_lms_norm_f32.c ****  * </pre>
 100:Source\FilteringFunctions/arm_lms_norm_f32.c ****  * \par
 101:Source\FilteringFunctions/arm_lms_norm_f32.c ****  * Note that the length of the state buffer exceeds the length of the coefficient array by <code>bl
 102:Source\FilteringFunctions/arm_lms_norm_f32.c ****  * The increased state buffer length allows circular addressing, which is traditionally used in FIR
 103:Source\FilteringFunctions/arm_lms_norm_f32.c ****  * to be avoided and yields a significant speed improvement.
 104:Source\FilteringFunctions/arm_lms_norm_f32.c ****  * The state variables are updated after each block of data is processed.
 105:Source\FilteringFunctions/arm_lms_norm_f32.c ****  * \par Instance Structure
 106:Source\FilteringFunctions/arm_lms_norm_f32.c ****  * The coefficients and state variables for a filter are stored together in an instance data struct
 107:Source\FilteringFunctions/arm_lms_norm_f32.c ****  * A separate instance structure must be defined for each filter and
 108:Source\FilteringFunctions/arm_lms_norm_f32.c ****  * coefficient and state arrays cannot be shared among instances.
 109:Source\FilteringFunctions/arm_lms_norm_f32.c ****  * There are separate instance structure declarations for each of the 3 supported data types.
 110:Source\FilteringFunctions/arm_lms_norm_f32.c ****  *
 111:Source\FilteringFunctions/arm_lms_norm_f32.c ****  * \par Initialization Functions
 112:Source\FilteringFunctions/arm_lms_norm_f32.c ****  * There is also an associated initialization function for each data type.
 113:Source\FilteringFunctions/arm_lms_norm_f32.c ****  * The initialization function performs the following operations:
 114:Source\FilteringFunctions/arm_lms_norm_f32.c ****  * - Sets the values of the internal structure fields.
 115:Source\FilteringFunctions/arm_lms_norm_f32.c ****  * - Zeros out the values in the state buffer.
 116:Source\FilteringFunctions/arm_lms_norm_f32.c ****  * To do this manually without calling the init function, assign the follow subfields of the instan
 117:Source\FilteringFunctions/arm_lms_norm_f32.c ****  * numTaps, pCoeffs, mu, energy, x0, pState. Also set all of the values in pState to zero.
 118:Source\FilteringFunctions/arm_lms_norm_f32.c ****  * For Q7, Q15, and Q31 the following fields must also be initialized;
 119:Source\FilteringFunctions/arm_lms_norm_f32.c ****  * recipTable, postShift
 120:Source\FilteringFunctions/arm_lms_norm_f32.c ****  *
 121:Source\FilteringFunctions/arm_lms_norm_f32.c ****  * \par
 122:Source\FilteringFunctions/arm_lms_norm_f32.c ****  * Instance structure cannot be placed into a const data section and it is recommended to use the i
 123:Source\FilteringFunctions/arm_lms_norm_f32.c ****  * \par Fixed-Point Behavior:
 124:Source\FilteringFunctions/arm_lms_norm_f32.c ****  * Care must be taken when using the Q15 and Q31 versions of the normalised LMS filter.
 125:Source\FilteringFunctions/arm_lms_norm_f32.c ****  * The following issues must be considered:
 126:Source\FilteringFunctions/arm_lms_norm_f32.c ****  * - Scaling of coefficients
 127:Source\FilteringFunctions/arm_lms_norm_f32.c ****  * - Overflow and saturation
 128:Source\FilteringFunctions/arm_lms_norm_f32.c ****  *
 129:Source\FilteringFunctions/arm_lms_norm_f32.c ****  * \par Scaling of Coefficients:
 130:Source\FilteringFunctions/arm_lms_norm_f32.c ****  * Filter coefficients are represented as fractional values and
 131:Source\FilteringFunctions/arm_lms_norm_f32.c ****  * coefficients are restricted to lie in the range <code>[-1 +1)</code>.
 132:Source\FilteringFunctions/arm_lms_norm_f32.c ****  * The fixed-point functions have an additional scaling parameter <code>postShift</code>.
 133:Source\FilteringFunctions/arm_lms_norm_f32.c ****  * At the output of the filter's accumulator is a shift register which shifts the result by <code>p
 134:Source\FilteringFunctions/arm_lms_norm_f32.c ****  * This essentially scales the filter coefficients by <code>2^postShift</code> and
 135:Source\FilteringFunctions/arm_lms_norm_f32.c ****  * allows the filter coefficients to exceed the range <code>[+1 -1)</code>.
 136:Source\FilteringFunctions/arm_lms_norm_f32.c ****  * The value of <code>postShift</code> is set by the user based on the expected gain through the sy
 137:Source\FilteringFunctions/arm_lms_norm_f32.c ****  *
 138:Source\FilteringFunctions/arm_lms_norm_f32.c ****  * \par Overflow and Saturation:
 139:Source\FilteringFunctions/arm_lms_norm_f32.c ****  * Overflow and saturation behavior of the fixed-point Q15 and Q31 versions are
 140:Source\FilteringFunctions/arm_lms_norm_f32.c ****  * described separately as part of the function specific documentation below.
 141:Source\FilteringFunctions/arm_lms_norm_f32.c ****  */
 142:Source\FilteringFunctions/arm_lms_norm_f32.c **** 
ARM GAS  C:\Users\fneves\AppData\Local\Temp\ccw5JCrI.s 			page 4


 143:Source\FilteringFunctions/arm_lms_norm_f32.c **** 
 144:Source\FilteringFunctions/arm_lms_norm_f32.c **** /**
 145:Source\FilteringFunctions/arm_lms_norm_f32.c ****  * @addtogroup LMS_NORM
 146:Source\FilteringFunctions/arm_lms_norm_f32.c ****  * @{
 147:Source\FilteringFunctions/arm_lms_norm_f32.c ****  */
 148:Source\FilteringFunctions/arm_lms_norm_f32.c **** 
 149:Source\FilteringFunctions/arm_lms_norm_f32.c **** 
 150:Source\FilteringFunctions/arm_lms_norm_f32.c ****   /**
 151:Source\FilteringFunctions/arm_lms_norm_f32.c ****    * @brief Processing function for floating-point normalized LMS filter.
 152:Source\FilteringFunctions/arm_lms_norm_f32.c ****    * @param[in] *S points to an instance of the floating-point normalized LMS filter structure.
 153:Source\FilteringFunctions/arm_lms_norm_f32.c ****    * @param[in] *pSrc points to the block of input data.
 154:Source\FilteringFunctions/arm_lms_norm_f32.c ****    * @param[in] *pRef points to the block of reference data.
 155:Source\FilteringFunctions/arm_lms_norm_f32.c ****    * @param[out] *pOut points to the block of output data.
 156:Source\FilteringFunctions/arm_lms_norm_f32.c ****    * @param[out] *pErr points to the block of error data.
 157:Source\FilteringFunctions/arm_lms_norm_f32.c ****    * @param[in] blockSize number of samples to process.
 158:Source\FilteringFunctions/arm_lms_norm_f32.c ****    * @return none.
 159:Source\FilteringFunctions/arm_lms_norm_f32.c ****    */
 160:Source\FilteringFunctions/arm_lms_norm_f32.c **** 
 161:Source\FilteringFunctions/arm_lms_norm_f32.c **** void arm_lms_norm_f32(
 162:Source\FilteringFunctions/arm_lms_norm_f32.c ****   arm_lms_norm_instance_f32 * S,
 163:Source\FilteringFunctions/arm_lms_norm_f32.c ****   float32_t * pSrc,
 164:Source\FilteringFunctions/arm_lms_norm_f32.c ****   float32_t * pRef,
 165:Source\FilteringFunctions/arm_lms_norm_f32.c ****   float32_t * pOut,
 166:Source\FilteringFunctions/arm_lms_norm_f32.c ****   float32_t * pErr,
 167:Source\FilteringFunctions/arm_lms_norm_f32.c ****   uint32_t blockSize)
 168:Source\FilteringFunctions/arm_lms_norm_f32.c **** {
  30              		.loc 1 168 0
  31              		.cfi_startproc
  32 0000 90B5     		push	{r4, r7, lr}
  33              		.cfi_def_cfa_offset 12
  34              		.cfi_offset 4, -12
  35              		.cfi_offset 7, -8
  36              		.cfi_offset 14, -4
  37 0002 95B0     		sub	sp, sp, #84
  38              		.cfi_def_cfa_offset 96
  39 0004 00AF     		add	r7, sp, #0
  40              		.cfi_def_cfa_register 7
  41 0006 F860     		str	r0, [r7, #12]
  42 0008 B960     		str	r1, [r7, #8]
  43 000a 7A60     		str	r2, [r7, #4]
  44 000c 3B60     		str	r3, [r7]
 169:Source\FilteringFunctions/arm_lms_norm_f32.c ****   float32_t *pState = S->pState;                 /* State pointer */
  45              		.loc 1 169 0
  46 000e FB68     		ldr	r3, [r7, #12]
  47 0010 5B68     		ldr	r3, [r3, #4]
  48 0012 FB64     		str	r3, [r7, #76]
 170:Source\FilteringFunctions/arm_lms_norm_f32.c ****   float32_t *pCoeffs = S->pCoeffs;               /* Coefficient pointer */
  49              		.loc 1 170 0
  50 0014 FB68     		ldr	r3, [r7, #12]
  51 0016 9B68     		ldr	r3, [r3, #8]
  52 0018 BB62     		str	r3, [r7, #40]
 171:Source\FilteringFunctions/arm_lms_norm_f32.c ****   float32_t *pStateCurnt;                        /* Points to the current sample of the state */
 172:Source\FilteringFunctions/arm_lms_norm_f32.c ****   float32_t *px, *pb;                            /* Temporary pointers for state and coefficient bu
 173:Source\FilteringFunctions/arm_lms_norm_f32.c ****   float32_t mu = S->mu;                          /* Adaptive factor */
  53              		.loc 1 173 0
  54 001a FB68     		ldr	r3, [r7, #12]
  55 001c DB68     		ldr	r3, [r3, #12]
ARM GAS  C:\Users\fneves\AppData\Local\Temp\ccw5JCrI.s 			page 5


  56 001e 7B62     		str	r3, [r7, #36]
 174:Source\FilteringFunctions/arm_lms_norm_f32.c ****   uint32_t numTaps = S->numTaps;                 /* Number of filter coefficients in the filter */
  57              		.loc 1 174 0
  58 0020 FB68     		ldr	r3, [r7, #12]
  59 0022 1B88     		ldrh	r3, [r3]
  60 0024 3B62     		str	r3, [r7, #32]
 175:Source\FilteringFunctions/arm_lms_norm_f32.c ****   uint32_t tapCnt, blkCnt;                       /* Loop counters */
 176:Source\FilteringFunctions/arm_lms_norm_f32.c ****   float32_t energy;                              /* Energy of the input */
 177:Source\FilteringFunctions/arm_lms_norm_f32.c ****   float32_t sum, e, d;                           /* accumulator, error, reference data sample */
 178:Source\FilteringFunctions/arm_lms_norm_f32.c ****   float32_t w, x0, in;                           /* weight factor, temporary variable to hold input
 179:Source\FilteringFunctions/arm_lms_norm_f32.c **** 
 180:Source\FilteringFunctions/arm_lms_norm_f32.c ****   /* Initializations of error,  difference, Coefficient update */
 181:Source\FilteringFunctions/arm_lms_norm_f32.c ****   e = 0.0f;
  61              		.loc 1 181 0
  62 0026 0023     		mov	r3, #0
  63 0028 FB61     		str	r3, [r7, #28]
 182:Source\FilteringFunctions/arm_lms_norm_f32.c ****   d = 0.0f;
  64              		.loc 1 182 0
  65 002a 0023     		mov	r3, #0
  66 002c BB61     		str	r3, [r7, #24]
 183:Source\FilteringFunctions/arm_lms_norm_f32.c ****   w = 0.0f;
  67              		.loc 1 183 0
  68 002e 0023     		mov	r3, #0
  69 0030 7B61     		str	r3, [r7, #20]
 184:Source\FilteringFunctions/arm_lms_norm_f32.c **** 
 185:Source\FilteringFunctions/arm_lms_norm_f32.c ****   energy = S->energy;
  70              		.loc 1 185 0
  71 0032 FB68     		ldr	r3, [r7, #12]
  72 0034 1B69     		ldr	r3, [r3, #16]
  73 0036 7B63     		str	r3, [r7, #52]
 186:Source\FilteringFunctions/arm_lms_norm_f32.c ****   x0 = S->x0;
  74              		.loc 1 186 0
  75 0038 FB68     		ldr	r3, [r7, #12]
  76 003a 5B69     		ldr	r3, [r3, #20]
  77 003c FB62     		str	r3, [r7, #44]
 187:Source\FilteringFunctions/arm_lms_norm_f32.c **** 
 188:Source\FilteringFunctions/arm_lms_norm_f32.c ****   /* S->pState points to buffer which contains previous frame (numTaps - 1) samples */
 189:Source\FilteringFunctions/arm_lms_norm_f32.c ****   /* pStateCurnt points to the location where the new input data should be written */
 190:Source\FilteringFunctions/arm_lms_norm_f32.c ****   pStateCurnt = &(S->pState[(numTaps - 1u)]);
  78              		.loc 1 190 0
  79 003e FB68     		ldr	r3, [r7, #12]
  80 0040 5A68     		ldr	r2, [r3, #4]
  81 0042 3B6A     		ldr	r3, [r7, #32]
  82 0044 6049     		ldr	r1, .L10
  83 0046 8C46     		mov	ip, r1
  84 0048 6344     		add	r3, r3, ip
  85 004a 9B00     		lsl	r3, r3, #2
  86 004c D318     		add	r3, r2, r3
  87 004e BB64     		str	r3, [r7, #72]
 191:Source\FilteringFunctions/arm_lms_norm_f32.c **** 
 192:Source\FilteringFunctions/arm_lms_norm_f32.c ****   /* Loop over blockSize number of values */
 193:Source\FilteringFunctions/arm_lms_norm_f32.c ****   blkCnt = blockSize;
  88              		.loc 1 193 0
  89 0050 7B6E     		ldr	r3, [r7, #100]
  90 0052 BB63     		str	r3, [r7, #56]
 194:Source\FilteringFunctions/arm_lms_norm_f32.c **** 
 195:Source\FilteringFunctions/arm_lms_norm_f32.c **** 
ARM GAS  C:\Users\fneves\AppData\Local\Temp\ccw5JCrI.s 			page 6


 196:Source\FilteringFunctions/arm_lms_norm_f32.c **** #if defined (ARM_MATH_DSP)
 197:Source\FilteringFunctions/arm_lms_norm_f32.c **** 
 198:Source\FilteringFunctions/arm_lms_norm_f32.c ****   /* Run the below code for Cortex-M4 and Cortex-M3 */
 199:Source\FilteringFunctions/arm_lms_norm_f32.c **** 
 200:Source\FilteringFunctions/arm_lms_norm_f32.c ****   while (blkCnt > 0u)
 201:Source\FilteringFunctions/arm_lms_norm_f32.c ****   {
 202:Source\FilteringFunctions/arm_lms_norm_f32.c ****     /* Copy the new input sample into the state buffer */
 203:Source\FilteringFunctions/arm_lms_norm_f32.c ****     *pStateCurnt++ = *pSrc;
 204:Source\FilteringFunctions/arm_lms_norm_f32.c **** 
 205:Source\FilteringFunctions/arm_lms_norm_f32.c ****     /* Initialize pState pointer */
 206:Source\FilteringFunctions/arm_lms_norm_f32.c ****     px = pState;
 207:Source\FilteringFunctions/arm_lms_norm_f32.c **** 
 208:Source\FilteringFunctions/arm_lms_norm_f32.c ****     /* Initialize coeff pointer */
 209:Source\FilteringFunctions/arm_lms_norm_f32.c ****     pb = (pCoeffs);
 210:Source\FilteringFunctions/arm_lms_norm_f32.c **** 
 211:Source\FilteringFunctions/arm_lms_norm_f32.c ****     /* Read the sample from input buffer */
 212:Source\FilteringFunctions/arm_lms_norm_f32.c ****     in = *pSrc++;
 213:Source\FilteringFunctions/arm_lms_norm_f32.c **** 
 214:Source\FilteringFunctions/arm_lms_norm_f32.c ****     /* Update the energy calculation */
 215:Source\FilteringFunctions/arm_lms_norm_f32.c ****     energy -= x0 * x0;
 216:Source\FilteringFunctions/arm_lms_norm_f32.c ****     energy += in * in;
 217:Source\FilteringFunctions/arm_lms_norm_f32.c **** 
 218:Source\FilteringFunctions/arm_lms_norm_f32.c ****     /* Set the accumulator to zero */
 219:Source\FilteringFunctions/arm_lms_norm_f32.c ****     sum = 0.0f;
 220:Source\FilteringFunctions/arm_lms_norm_f32.c **** 
 221:Source\FilteringFunctions/arm_lms_norm_f32.c ****     /* Loop unrolling.  Process 4 taps at a time. */
 222:Source\FilteringFunctions/arm_lms_norm_f32.c ****     tapCnt = numTaps >> 2;
 223:Source\FilteringFunctions/arm_lms_norm_f32.c **** 
 224:Source\FilteringFunctions/arm_lms_norm_f32.c ****     while (tapCnt > 0u)
 225:Source\FilteringFunctions/arm_lms_norm_f32.c ****     {
 226:Source\FilteringFunctions/arm_lms_norm_f32.c ****       /* Perform the multiply-accumulate */
 227:Source\FilteringFunctions/arm_lms_norm_f32.c ****       sum += (*px++) * (*pb++);
 228:Source\FilteringFunctions/arm_lms_norm_f32.c ****       sum += (*px++) * (*pb++);
 229:Source\FilteringFunctions/arm_lms_norm_f32.c ****       sum += (*px++) * (*pb++);
 230:Source\FilteringFunctions/arm_lms_norm_f32.c ****       sum += (*px++) * (*pb++);
 231:Source\FilteringFunctions/arm_lms_norm_f32.c **** 
 232:Source\FilteringFunctions/arm_lms_norm_f32.c ****       /* Decrement the loop counter */
 233:Source\FilteringFunctions/arm_lms_norm_f32.c ****       tapCnt--;
 234:Source\FilteringFunctions/arm_lms_norm_f32.c ****     }
 235:Source\FilteringFunctions/arm_lms_norm_f32.c **** 
 236:Source\FilteringFunctions/arm_lms_norm_f32.c ****     /* If the filter length is not a multiple of 4, compute the remaining filter taps */
 237:Source\FilteringFunctions/arm_lms_norm_f32.c ****     tapCnt = numTaps % 0x4u;
 238:Source\FilteringFunctions/arm_lms_norm_f32.c **** 
 239:Source\FilteringFunctions/arm_lms_norm_f32.c ****     while (tapCnt > 0u)
 240:Source\FilteringFunctions/arm_lms_norm_f32.c ****     {
 241:Source\FilteringFunctions/arm_lms_norm_f32.c ****       /* Perform the multiply-accumulate */
 242:Source\FilteringFunctions/arm_lms_norm_f32.c ****       sum += (*px++) * (*pb++);
 243:Source\FilteringFunctions/arm_lms_norm_f32.c **** 
 244:Source\FilteringFunctions/arm_lms_norm_f32.c ****       /* Decrement the loop counter */
 245:Source\FilteringFunctions/arm_lms_norm_f32.c ****       tapCnt--;
 246:Source\FilteringFunctions/arm_lms_norm_f32.c ****     }
 247:Source\FilteringFunctions/arm_lms_norm_f32.c **** 
 248:Source\FilteringFunctions/arm_lms_norm_f32.c ****     /* The result in the accumulator, store in the destination buffer. */
 249:Source\FilteringFunctions/arm_lms_norm_f32.c ****     *pOut++ = sum;
 250:Source\FilteringFunctions/arm_lms_norm_f32.c **** 
 251:Source\FilteringFunctions/arm_lms_norm_f32.c ****     /* Compute and store error */
 252:Source\FilteringFunctions/arm_lms_norm_f32.c ****     d = (float32_t) (*pRef++);
ARM GAS  C:\Users\fneves\AppData\Local\Temp\ccw5JCrI.s 			page 7


 253:Source\FilteringFunctions/arm_lms_norm_f32.c ****     e = d - sum;
 254:Source\FilteringFunctions/arm_lms_norm_f32.c ****     *pErr++ = e;
 255:Source\FilteringFunctions/arm_lms_norm_f32.c **** 
 256:Source\FilteringFunctions/arm_lms_norm_f32.c ****     /* Calculation of Weighting factor for updating filter coefficients */
 257:Source\FilteringFunctions/arm_lms_norm_f32.c ****     /* epsilon value 0.000000119209289f */
 258:Source\FilteringFunctions/arm_lms_norm_f32.c ****     w = (e * mu) / (energy + 0.000000119209289f);
 259:Source\FilteringFunctions/arm_lms_norm_f32.c **** 
 260:Source\FilteringFunctions/arm_lms_norm_f32.c ****     /* Initialize pState pointer */
 261:Source\FilteringFunctions/arm_lms_norm_f32.c ****     px = pState;
 262:Source\FilteringFunctions/arm_lms_norm_f32.c **** 
 263:Source\FilteringFunctions/arm_lms_norm_f32.c ****     /* Initialize coeff pointer */
 264:Source\FilteringFunctions/arm_lms_norm_f32.c ****     pb = (pCoeffs);
 265:Source\FilteringFunctions/arm_lms_norm_f32.c **** 
 266:Source\FilteringFunctions/arm_lms_norm_f32.c ****     /* Loop unrolling.  Process 4 taps at a time. */
 267:Source\FilteringFunctions/arm_lms_norm_f32.c ****     tapCnt = numTaps >> 2;
 268:Source\FilteringFunctions/arm_lms_norm_f32.c **** 
 269:Source\FilteringFunctions/arm_lms_norm_f32.c ****     /* Update filter coefficients */
 270:Source\FilteringFunctions/arm_lms_norm_f32.c ****     while (tapCnt > 0u)
 271:Source\FilteringFunctions/arm_lms_norm_f32.c ****     {
 272:Source\FilteringFunctions/arm_lms_norm_f32.c ****       /* Perform the multiply-accumulate */
 273:Source\FilteringFunctions/arm_lms_norm_f32.c ****       *pb += w * (*px++);
 274:Source\FilteringFunctions/arm_lms_norm_f32.c ****       pb++;
 275:Source\FilteringFunctions/arm_lms_norm_f32.c **** 
 276:Source\FilteringFunctions/arm_lms_norm_f32.c ****       *pb += w * (*px++);
 277:Source\FilteringFunctions/arm_lms_norm_f32.c ****       pb++;
 278:Source\FilteringFunctions/arm_lms_norm_f32.c **** 
 279:Source\FilteringFunctions/arm_lms_norm_f32.c ****       *pb += w * (*px++);
 280:Source\FilteringFunctions/arm_lms_norm_f32.c ****       pb++;
 281:Source\FilteringFunctions/arm_lms_norm_f32.c **** 
 282:Source\FilteringFunctions/arm_lms_norm_f32.c ****       *pb += w * (*px++);
 283:Source\FilteringFunctions/arm_lms_norm_f32.c ****       pb++;
 284:Source\FilteringFunctions/arm_lms_norm_f32.c **** 
 285:Source\FilteringFunctions/arm_lms_norm_f32.c **** 
 286:Source\FilteringFunctions/arm_lms_norm_f32.c ****       /* Decrement the loop counter */
 287:Source\FilteringFunctions/arm_lms_norm_f32.c ****       tapCnt--;
 288:Source\FilteringFunctions/arm_lms_norm_f32.c ****     }
 289:Source\FilteringFunctions/arm_lms_norm_f32.c **** 
 290:Source\FilteringFunctions/arm_lms_norm_f32.c ****     /* If the filter length is not a multiple of 4, compute the remaining filter taps */
 291:Source\FilteringFunctions/arm_lms_norm_f32.c ****     tapCnt = numTaps % 0x4u;
 292:Source\FilteringFunctions/arm_lms_norm_f32.c **** 
 293:Source\FilteringFunctions/arm_lms_norm_f32.c ****     while (tapCnt > 0u)
 294:Source\FilteringFunctions/arm_lms_norm_f32.c ****     {
 295:Source\FilteringFunctions/arm_lms_norm_f32.c ****       /* Perform the multiply-accumulate */
 296:Source\FilteringFunctions/arm_lms_norm_f32.c ****       *pb += w * (*px++);
 297:Source\FilteringFunctions/arm_lms_norm_f32.c ****       pb++;
 298:Source\FilteringFunctions/arm_lms_norm_f32.c **** 
 299:Source\FilteringFunctions/arm_lms_norm_f32.c ****       /* Decrement the loop counter */
 300:Source\FilteringFunctions/arm_lms_norm_f32.c ****       tapCnt--;
 301:Source\FilteringFunctions/arm_lms_norm_f32.c ****     }
 302:Source\FilteringFunctions/arm_lms_norm_f32.c **** 
 303:Source\FilteringFunctions/arm_lms_norm_f32.c ****     x0 = *pState;
 304:Source\FilteringFunctions/arm_lms_norm_f32.c **** 
 305:Source\FilteringFunctions/arm_lms_norm_f32.c ****     /* Advance state pointer by 1 for the next sample */
 306:Source\FilteringFunctions/arm_lms_norm_f32.c ****     pState = pState + 1;
 307:Source\FilteringFunctions/arm_lms_norm_f32.c **** 
 308:Source\FilteringFunctions/arm_lms_norm_f32.c ****     /* Decrement the loop counter */
 309:Source\FilteringFunctions/arm_lms_norm_f32.c ****     blkCnt--;
ARM GAS  C:\Users\fneves\AppData\Local\Temp\ccw5JCrI.s 			page 8


 310:Source\FilteringFunctions/arm_lms_norm_f32.c ****   }
 311:Source\FilteringFunctions/arm_lms_norm_f32.c **** 
 312:Source\FilteringFunctions/arm_lms_norm_f32.c ****   S->energy = energy;
 313:Source\FilteringFunctions/arm_lms_norm_f32.c ****   S->x0 = x0;
 314:Source\FilteringFunctions/arm_lms_norm_f32.c **** 
 315:Source\FilteringFunctions/arm_lms_norm_f32.c ****   /* Processing is complete. Now copy the last numTaps - 1 samples to the
 316:Source\FilteringFunctions/arm_lms_norm_f32.c ****      satrt of the state buffer. This prepares the state buffer for the
 317:Source\FilteringFunctions/arm_lms_norm_f32.c ****      next function call. */
 318:Source\FilteringFunctions/arm_lms_norm_f32.c **** 
 319:Source\FilteringFunctions/arm_lms_norm_f32.c ****   /* Points to the start of the pState buffer */
 320:Source\FilteringFunctions/arm_lms_norm_f32.c ****   pStateCurnt = S->pState;
 321:Source\FilteringFunctions/arm_lms_norm_f32.c **** 
 322:Source\FilteringFunctions/arm_lms_norm_f32.c ****   /* Loop unrolling for (numTaps - 1u)/4 samples copy */
 323:Source\FilteringFunctions/arm_lms_norm_f32.c ****   tapCnt = (numTaps - 1u) >> 2u;
 324:Source\FilteringFunctions/arm_lms_norm_f32.c **** 
 325:Source\FilteringFunctions/arm_lms_norm_f32.c ****   /* copy data */
 326:Source\FilteringFunctions/arm_lms_norm_f32.c ****   while (tapCnt > 0u)
 327:Source\FilteringFunctions/arm_lms_norm_f32.c ****   {
 328:Source\FilteringFunctions/arm_lms_norm_f32.c ****     *pStateCurnt++ = *pState++;
 329:Source\FilteringFunctions/arm_lms_norm_f32.c ****     *pStateCurnt++ = *pState++;
 330:Source\FilteringFunctions/arm_lms_norm_f32.c ****     *pStateCurnt++ = *pState++;
 331:Source\FilteringFunctions/arm_lms_norm_f32.c ****     *pStateCurnt++ = *pState++;
 332:Source\FilteringFunctions/arm_lms_norm_f32.c **** 
 333:Source\FilteringFunctions/arm_lms_norm_f32.c ****     /* Decrement the loop counter */
 334:Source\FilteringFunctions/arm_lms_norm_f32.c ****     tapCnt--;
 335:Source\FilteringFunctions/arm_lms_norm_f32.c ****   }
 336:Source\FilteringFunctions/arm_lms_norm_f32.c **** 
 337:Source\FilteringFunctions/arm_lms_norm_f32.c ****   /* Calculate remaining number of copies */
 338:Source\FilteringFunctions/arm_lms_norm_f32.c ****   tapCnt = (numTaps - 1u) % 0x4u;
 339:Source\FilteringFunctions/arm_lms_norm_f32.c **** 
 340:Source\FilteringFunctions/arm_lms_norm_f32.c ****   /* Copy the remaining q31_t data */
 341:Source\FilteringFunctions/arm_lms_norm_f32.c ****   while (tapCnt > 0u)
 342:Source\FilteringFunctions/arm_lms_norm_f32.c ****   {
 343:Source\FilteringFunctions/arm_lms_norm_f32.c ****     *pStateCurnt++ = *pState++;
 344:Source\FilteringFunctions/arm_lms_norm_f32.c **** 
 345:Source\FilteringFunctions/arm_lms_norm_f32.c ****     /* Decrement the loop counter */
 346:Source\FilteringFunctions/arm_lms_norm_f32.c ****     tapCnt--;
 347:Source\FilteringFunctions/arm_lms_norm_f32.c ****   }
 348:Source\FilteringFunctions/arm_lms_norm_f32.c **** 
 349:Source\FilteringFunctions/arm_lms_norm_f32.c **** #else
 350:Source\FilteringFunctions/arm_lms_norm_f32.c **** 
 351:Source\FilteringFunctions/arm_lms_norm_f32.c ****   /* Run the below code for Cortex-M0 */
 352:Source\FilteringFunctions/arm_lms_norm_f32.c **** 
 353:Source\FilteringFunctions/arm_lms_norm_f32.c ****   while (blkCnt > 0u)
  91              		.loc 1 353 0
  92 0054 96E0     		b	.L2
  93              	.L7:
 354:Source\FilteringFunctions/arm_lms_norm_f32.c ****   {
 355:Source\FilteringFunctions/arm_lms_norm_f32.c ****     /* Copy the new input sample into the state buffer */
 356:Source\FilteringFunctions/arm_lms_norm_f32.c ****     *pStateCurnt++ = *pSrc;
  94              		.loc 1 356 0
  95 0056 BB6C     		ldr	r3, [r7, #72]
  96 0058 1A1D     		add	r2, r3, #4
  97 005a BA64     		str	r2, [r7, #72]
  98 005c BA68     		ldr	r2, [r7, #8]
  99 005e 1268     		ldr	r2, [r2]
 100 0060 1A60     		str	r2, [r3]
ARM GAS  C:\Users\fneves\AppData\Local\Temp\ccw5JCrI.s 			page 9


 357:Source\FilteringFunctions/arm_lms_norm_f32.c **** 
 358:Source\FilteringFunctions/arm_lms_norm_f32.c ****     /* Initialize pState pointer */
 359:Source\FilteringFunctions/arm_lms_norm_f32.c ****     px = pState;
 101              		.loc 1 359 0
 102 0062 FB6C     		ldr	r3, [r7, #76]
 103 0064 7B64     		str	r3, [r7, #68]
 360:Source\FilteringFunctions/arm_lms_norm_f32.c **** 
 361:Source\FilteringFunctions/arm_lms_norm_f32.c ****     /* Initialize pCoeffs pointer */
 362:Source\FilteringFunctions/arm_lms_norm_f32.c ****     pb = pCoeffs;
 104              		.loc 1 362 0
 105 0066 BB6A     		ldr	r3, [r7, #40]
 106 0068 3B64     		str	r3, [r7, #64]
 363:Source\FilteringFunctions/arm_lms_norm_f32.c **** 
 364:Source\FilteringFunctions/arm_lms_norm_f32.c ****     /* Read the sample from input buffer */
 365:Source\FilteringFunctions/arm_lms_norm_f32.c ****     in = *pSrc++;
 107              		.loc 1 365 0
 108 006a BB68     		ldr	r3, [r7, #8]
 109 006c 1A1D     		add	r2, r3, #4
 110 006e BA60     		str	r2, [r7, #8]
 111 0070 1B68     		ldr	r3, [r3]
 112 0072 3B61     		str	r3, [r7, #16]
 366:Source\FilteringFunctions/arm_lms_norm_f32.c **** 
 367:Source\FilteringFunctions/arm_lms_norm_f32.c ****     /* Update the energy calculation */
 368:Source\FilteringFunctions/arm_lms_norm_f32.c ****     energy -= x0 * x0;
 113              		.loc 1 368 0
 114 0074 F86A     		ldr	r0, [r7, #44]
 115 0076 F96A     		ldr	r1, [r7, #44]
 116 0078 FFF7FEFF 		bl	__aeabi_fmul
 117 007c 031C     		add	r3, r0, #0
 118 007e 786B     		ldr	r0, [r7, #52]
 119 0080 191C     		add	r1, r3, #0
 120 0082 FFF7FEFF 		bl	__aeabi_fsub
 121 0086 031C     		add	r3, r0, #0
 122 0088 7B63     		str	r3, [r7, #52]
 369:Source\FilteringFunctions/arm_lms_norm_f32.c ****     energy += in * in;
 123              		.loc 1 369 0
 124 008a 3869     		ldr	r0, [r7, #16]
 125 008c 3969     		ldr	r1, [r7, #16]
 126 008e FFF7FEFF 		bl	__aeabi_fmul
 127 0092 031C     		add	r3, r0, #0
 128 0094 786B     		ldr	r0, [r7, #52]
 129 0096 191C     		add	r1, r3, #0
 130 0098 FFF7FEFF 		bl	__aeabi_fadd
 131 009c 031C     		add	r3, r0, #0
 132 009e 7B63     		str	r3, [r7, #52]
 370:Source\FilteringFunctions/arm_lms_norm_f32.c **** 
 371:Source\FilteringFunctions/arm_lms_norm_f32.c ****     /* Set the accumulator to zero */
 372:Source\FilteringFunctions/arm_lms_norm_f32.c ****     sum = 0.0f;
 133              		.loc 1 372 0
 134 00a0 0023     		mov	r3, #0
 135 00a2 3B63     		str	r3, [r7, #48]
 373:Source\FilteringFunctions/arm_lms_norm_f32.c **** 
 374:Source\FilteringFunctions/arm_lms_norm_f32.c ****     /* Loop over numTaps number of values */
 375:Source\FilteringFunctions/arm_lms_norm_f32.c ****     tapCnt = numTaps;
 136              		.loc 1 375 0
 137 00a4 3B6A     		ldr	r3, [r7, #32]
 138 00a6 FB63     		str	r3, [r7, #60]
ARM GAS  C:\Users\fneves\AppData\Local\Temp\ccw5JCrI.s 			page 10


 376:Source\FilteringFunctions/arm_lms_norm_f32.c **** 
 377:Source\FilteringFunctions/arm_lms_norm_f32.c ****     while (tapCnt > 0u)
 139              		.loc 1 377 0
 140 00a8 15E0     		b	.L3
 141              	.L4:
 378:Source\FilteringFunctions/arm_lms_norm_f32.c ****     {
 379:Source\FilteringFunctions/arm_lms_norm_f32.c ****       /* Perform the multiply-accumulate */
 380:Source\FilteringFunctions/arm_lms_norm_f32.c ****       sum += (*px++) * (*pb++);
 142              		.loc 1 380 0
 143 00aa 7B6C     		ldr	r3, [r7, #68]
 144 00ac 1A1D     		add	r2, r3, #4
 145 00ae 7A64     		str	r2, [r7, #68]
 146 00b0 1968     		ldr	r1, [r3]
 147 00b2 3B6C     		ldr	r3, [r7, #64]
 148 00b4 1A1D     		add	r2, r3, #4
 149 00b6 3A64     		str	r2, [r7, #64]
 150 00b8 1B68     		ldr	r3, [r3]
 151 00ba 081C     		add	r0, r1, #0
 152 00bc 191C     		add	r1, r3, #0
 153 00be FFF7FEFF 		bl	__aeabi_fmul
 154 00c2 031C     		add	r3, r0, #0
 155 00c4 386B     		ldr	r0, [r7, #48]
 156 00c6 191C     		add	r1, r3, #0
 157 00c8 FFF7FEFF 		bl	__aeabi_fadd
 158 00cc 031C     		add	r3, r0, #0
 159 00ce 3B63     		str	r3, [r7, #48]
 381:Source\FilteringFunctions/arm_lms_norm_f32.c **** 
 382:Source\FilteringFunctions/arm_lms_norm_f32.c ****       /* Decrement the loop counter */
 383:Source\FilteringFunctions/arm_lms_norm_f32.c ****       tapCnt--;
 160              		.loc 1 383 0
 161 00d0 FB6B     		ldr	r3, [r7, #60]
 162 00d2 013B     		sub	r3, r3, #1
 163 00d4 FB63     		str	r3, [r7, #60]
 164              	.L3:
 377:Source\FilteringFunctions/arm_lms_norm_f32.c ****     {
 165              		.loc 1 377 0
 166 00d6 FB6B     		ldr	r3, [r7, #60]
 167 00d8 002B     		cmp	r3, #0
 168 00da E6D1     		bne	.L4
 384:Source\FilteringFunctions/arm_lms_norm_f32.c ****     }
 385:Source\FilteringFunctions/arm_lms_norm_f32.c **** 
 386:Source\FilteringFunctions/arm_lms_norm_f32.c ****     /* The result in the accumulator is stored in the destination buffer. */
 387:Source\FilteringFunctions/arm_lms_norm_f32.c ****     *pOut++ = sum;
 169              		.loc 1 387 0
 170 00dc 3B68     		ldr	r3, [r7]
 171 00de 1A1D     		add	r2, r3, #4
 172 00e0 3A60     		str	r2, [r7]
 173 00e2 3A6B     		ldr	r2, [r7, #48]
 174 00e4 1A60     		str	r2, [r3]
 388:Source\FilteringFunctions/arm_lms_norm_f32.c **** 
 389:Source\FilteringFunctions/arm_lms_norm_f32.c ****     /* Compute and store error */
 390:Source\FilteringFunctions/arm_lms_norm_f32.c ****     d = (float32_t) (*pRef++);
 175              		.loc 1 390 0
 176 00e6 7B68     		ldr	r3, [r7, #4]
 177 00e8 1A1D     		add	r2, r3, #4
 178 00ea 7A60     		str	r2, [r7, #4]
 179 00ec 1B68     		ldr	r3, [r3]
ARM GAS  C:\Users\fneves\AppData\Local\Temp\ccw5JCrI.s 			page 11


 180 00ee BB61     		str	r3, [r7, #24]
 391:Source\FilteringFunctions/arm_lms_norm_f32.c ****     e = d - sum;
 181              		.loc 1 391 0
 182 00f0 B869     		ldr	r0, [r7, #24]
 183 00f2 396B     		ldr	r1, [r7, #48]
 184 00f4 FFF7FEFF 		bl	__aeabi_fsub
 185 00f8 031C     		add	r3, r0, #0
 186 00fa FB61     		str	r3, [r7, #28]
 392:Source\FilteringFunctions/arm_lms_norm_f32.c ****     *pErr++ = e;
 187              		.loc 1 392 0
 188 00fc 3B6E     		ldr	r3, [r7, #96]
 189 00fe 1A1D     		add	r2, r3, #4
 190 0100 3A66     		str	r2, [r7, #96]
 191 0102 FA69     		ldr	r2, [r7, #28]
 192 0104 1A60     		str	r2, [r3]
 393:Source\FilteringFunctions/arm_lms_norm_f32.c **** 
 394:Source\FilteringFunctions/arm_lms_norm_f32.c ****     /* Calculation of Weighting factor for updating filter coefficients */
 395:Source\FilteringFunctions/arm_lms_norm_f32.c ****     /* epsilon value 0.000000119209289f */
 396:Source\FilteringFunctions/arm_lms_norm_f32.c ****     w = (e * mu) / (energy + 0.000000119209289f);
 193              		.loc 1 396 0
 194 0106 F869     		ldr	r0, [r7, #28]
 195 0108 796A     		ldr	r1, [r7, #36]
 196 010a FFF7FEFF 		bl	__aeabi_fmul
 197 010e 031C     		add	r3, r0, #0
 198 0110 1C1C     		add	r4, r3, #0
 199 0112 786B     		ldr	r0, [r7, #52]
 200 0114 D021     		mov	r1, #208
 201 0116 8905     		lsl	r1, r1, #22
 202 0118 FFF7FEFF 		bl	__aeabi_fadd
 203 011c 031C     		add	r3, r0, #0
 204 011e 201C     		add	r0, r4, #0
 205 0120 191C     		add	r1, r3, #0
 206 0122 FFF7FEFF 		bl	__aeabi_fdiv
 207 0126 031C     		add	r3, r0, #0
 208 0128 7B61     		str	r3, [r7, #20]
 397:Source\FilteringFunctions/arm_lms_norm_f32.c **** 
 398:Source\FilteringFunctions/arm_lms_norm_f32.c ****     /* Initialize pState pointer */
 399:Source\FilteringFunctions/arm_lms_norm_f32.c ****     px = pState;
 209              		.loc 1 399 0
 210 012a FB6C     		ldr	r3, [r7, #76]
 211 012c 7B64     		str	r3, [r7, #68]
 400:Source\FilteringFunctions/arm_lms_norm_f32.c **** 
 401:Source\FilteringFunctions/arm_lms_norm_f32.c ****     /* Initialize pCcoeffs pointer */
 402:Source\FilteringFunctions/arm_lms_norm_f32.c ****     pb = pCoeffs;
 212              		.loc 1 402 0
 213 012e BB6A     		ldr	r3, [r7, #40]
 214 0130 3B64     		str	r3, [r7, #64]
 403:Source\FilteringFunctions/arm_lms_norm_f32.c **** 
 404:Source\FilteringFunctions/arm_lms_norm_f32.c ****     /* Loop over numTaps number of values */
 405:Source\FilteringFunctions/arm_lms_norm_f32.c ****     tapCnt = numTaps;
 215              		.loc 1 405 0
 216 0132 3B6A     		ldr	r3, [r7, #32]
 217 0134 FB63     		str	r3, [r7, #60]
 406:Source\FilteringFunctions/arm_lms_norm_f32.c **** 
 407:Source\FilteringFunctions/arm_lms_norm_f32.c ****     while (tapCnt > 0u)
 218              		.loc 1 407 0
 219 0136 19E0     		b	.L5
ARM GAS  C:\Users\fneves\AppData\Local\Temp\ccw5JCrI.s 			page 12


 220              	.L6:
 408:Source\FilteringFunctions/arm_lms_norm_f32.c ****     {
 409:Source\FilteringFunctions/arm_lms_norm_f32.c ****       /* Perform the multiply-accumulate */
 410:Source\FilteringFunctions/arm_lms_norm_f32.c ****       *pb += w * (*px++);
 221              		.loc 1 410 0
 222 0138 7B6C     		ldr	r3, [r7, #68]
 223 013a 1A1D     		add	r2, r3, #4
 224 013c 7A64     		str	r2, [r7, #68]
 225 013e 1B68     		ldr	r3, [r3]
 226 0140 181C     		add	r0, r3, #0
 227 0142 7969     		ldr	r1, [r7, #20]
 228 0144 FFF7FEFF 		bl	__aeabi_fmul
 229 0148 031C     		add	r3, r0, #0
 230 014a 1A1C     		add	r2, r3, #0
 231 014c 3B6C     		ldr	r3, [r7, #64]
 232 014e 1B68     		ldr	r3, [r3]
 233 0150 181C     		add	r0, r3, #0
 234 0152 111C     		add	r1, r2, #0
 235 0154 FFF7FEFF 		bl	__aeabi_fadd
 236 0158 031C     		add	r3, r0, #0
 237 015a 1A1C     		add	r2, r3, #0
 238 015c 3B6C     		ldr	r3, [r7, #64]
 239 015e 1A60     		str	r2, [r3]
 411:Source\FilteringFunctions/arm_lms_norm_f32.c ****       pb++;
 240              		.loc 1 411 0
 241 0160 3B6C     		ldr	r3, [r7, #64]
 242 0162 0433     		add	r3, r3, #4
 243 0164 3B64     		str	r3, [r7, #64]
 412:Source\FilteringFunctions/arm_lms_norm_f32.c **** 
 413:Source\FilteringFunctions/arm_lms_norm_f32.c ****       /* Decrement the loop counter */
 414:Source\FilteringFunctions/arm_lms_norm_f32.c ****       tapCnt--;
 244              		.loc 1 414 0
 245 0166 FB6B     		ldr	r3, [r7, #60]
 246 0168 013B     		sub	r3, r3, #1
 247 016a FB63     		str	r3, [r7, #60]
 248              	.L5:
 407:Source\FilteringFunctions/arm_lms_norm_f32.c ****     {
 249              		.loc 1 407 0
 250 016c FB6B     		ldr	r3, [r7, #60]
 251 016e 002B     		cmp	r3, #0
 252 0170 E2D1     		bne	.L6
 415:Source\FilteringFunctions/arm_lms_norm_f32.c ****     }
 416:Source\FilteringFunctions/arm_lms_norm_f32.c **** 
 417:Source\FilteringFunctions/arm_lms_norm_f32.c ****     x0 = *pState;
 253              		.loc 1 417 0
 254 0172 FB6C     		ldr	r3, [r7, #76]
 255 0174 1B68     		ldr	r3, [r3]
 256 0176 FB62     		str	r3, [r7, #44]
 418:Source\FilteringFunctions/arm_lms_norm_f32.c **** 
 419:Source\FilteringFunctions/arm_lms_norm_f32.c ****     /* Advance state pointer by 1 for the next sample */
 420:Source\FilteringFunctions/arm_lms_norm_f32.c ****     pState = pState + 1;
 257              		.loc 1 420 0
 258 0178 FB6C     		ldr	r3, [r7, #76]
 259 017a 0433     		add	r3, r3, #4
 260 017c FB64     		str	r3, [r7, #76]
 421:Source\FilteringFunctions/arm_lms_norm_f32.c **** 
 422:Source\FilteringFunctions/arm_lms_norm_f32.c ****     /* Decrement the loop counter */
ARM GAS  C:\Users\fneves\AppData\Local\Temp\ccw5JCrI.s 			page 13


 423:Source\FilteringFunctions/arm_lms_norm_f32.c ****     blkCnt--;
 261              		.loc 1 423 0
 262 017e BB6B     		ldr	r3, [r7, #56]
 263 0180 013B     		sub	r3, r3, #1
 264 0182 BB63     		str	r3, [r7, #56]
 265              	.L2:
 353:Source\FilteringFunctions/arm_lms_norm_f32.c ****   {
 266              		.loc 1 353 0
 267 0184 BB6B     		ldr	r3, [r7, #56]
 268 0186 002B     		cmp	r3, #0
 269 0188 00D0     		beq	.LCB209
 270 018a 64E7     		b	.L7	@long jump
 271              	.LCB209:
 424:Source\FilteringFunctions/arm_lms_norm_f32.c ****   }
 425:Source\FilteringFunctions/arm_lms_norm_f32.c **** 
 426:Source\FilteringFunctions/arm_lms_norm_f32.c ****   S->energy = energy;
 272              		.loc 1 426 0
 273 018c FB68     		ldr	r3, [r7, #12]
 274 018e 7A6B     		ldr	r2, [r7, #52]
 275 0190 1A61     		str	r2, [r3, #16]
 427:Source\FilteringFunctions/arm_lms_norm_f32.c ****   S->x0 = x0;
 276              		.loc 1 427 0
 277 0192 FB68     		ldr	r3, [r7, #12]
 278 0194 FA6A     		ldr	r2, [r7, #44]
 279 0196 5A61     		str	r2, [r3, #20]
 428:Source\FilteringFunctions/arm_lms_norm_f32.c **** 
 429:Source\FilteringFunctions/arm_lms_norm_f32.c ****   /* Processing is complete. Now copy the last numTaps - 1 samples to the
 430:Source\FilteringFunctions/arm_lms_norm_f32.c ****      satrt of the state buffer. This prepares the state buffer for the
 431:Source\FilteringFunctions/arm_lms_norm_f32.c ****      next function call. */
 432:Source\FilteringFunctions/arm_lms_norm_f32.c **** 
 433:Source\FilteringFunctions/arm_lms_norm_f32.c ****   /* Points to the start of the pState buffer */
 434:Source\FilteringFunctions/arm_lms_norm_f32.c ****   pStateCurnt = S->pState;
 280              		.loc 1 434 0
 281 0198 FB68     		ldr	r3, [r7, #12]
 282 019a 5B68     		ldr	r3, [r3, #4]
 283 019c BB64     		str	r3, [r7, #72]
 435:Source\FilteringFunctions/arm_lms_norm_f32.c **** 
 436:Source\FilteringFunctions/arm_lms_norm_f32.c ****   /* Copy (numTaps - 1u) samples  */
 437:Source\FilteringFunctions/arm_lms_norm_f32.c ****   tapCnt = (numTaps - 1u);
 284              		.loc 1 437 0
 285 019e 3B6A     		ldr	r3, [r7, #32]
 286 01a0 013B     		sub	r3, r3, #1
 287 01a2 FB63     		str	r3, [r7, #60]
 438:Source\FilteringFunctions/arm_lms_norm_f32.c **** 
 439:Source\FilteringFunctions/arm_lms_norm_f32.c ****   /* Copy the remaining q31_t data */
 440:Source\FilteringFunctions/arm_lms_norm_f32.c ****   while (tapCnt > 0u)
 288              		.loc 1 440 0
 289 01a4 0AE0     		b	.L8
 290              	.L9:
 441:Source\FilteringFunctions/arm_lms_norm_f32.c ****   {
 442:Source\FilteringFunctions/arm_lms_norm_f32.c ****     *pStateCurnt++ = *pState++;
 291              		.loc 1 442 0
 292 01a6 BB6C     		ldr	r3, [r7, #72]
 293 01a8 1A1D     		add	r2, r3, #4
 294 01aa BA64     		str	r2, [r7, #72]
 295 01ac FA6C     		ldr	r2, [r7, #76]
 296 01ae 111D     		add	r1, r2, #4
ARM GAS  C:\Users\fneves\AppData\Local\Temp\ccw5JCrI.s 			page 14


 297 01b0 F964     		str	r1, [r7, #76]
 298 01b2 1268     		ldr	r2, [r2]
 299 01b4 1A60     		str	r2, [r3]
 443:Source\FilteringFunctions/arm_lms_norm_f32.c **** 
 444:Source\FilteringFunctions/arm_lms_norm_f32.c ****     /* Decrement the loop counter */
 445:Source\FilteringFunctions/arm_lms_norm_f32.c ****     tapCnt--;
 300              		.loc 1 445 0
 301 01b6 FB6B     		ldr	r3, [r7, #60]
 302 01b8 013B     		sub	r3, r3, #1
 303 01ba FB63     		str	r3, [r7, #60]
 304              	.L8:
 440:Source\FilteringFunctions/arm_lms_norm_f32.c ****   {
 305              		.loc 1 440 0
 306 01bc FB6B     		ldr	r3, [r7, #60]
 307 01be 002B     		cmp	r3, #0
 308 01c0 F1D1     		bne	.L9
 446:Source\FilteringFunctions/arm_lms_norm_f32.c ****   }
 447:Source\FilteringFunctions/arm_lms_norm_f32.c **** 
 448:Source\FilteringFunctions/arm_lms_norm_f32.c **** #endif /*   #if defined (ARM_MATH_DSP) */
 449:Source\FilteringFunctions/arm_lms_norm_f32.c **** 
 450:Source\FilteringFunctions/arm_lms_norm_f32.c **** }
 309              		.loc 1 450 0
 310 01c2 BD46     		mov	sp, r7
 311 01c4 15B0     		add	sp, sp, #84
 312              		@ sp needed
 313 01c6 90BD     		pop	{r4, r7, pc}
 314              	.L11:
 315              		.align	2
 316              	.L10:
 317 01c8 FFFFFF3F 		.word	1073741823
 318              		.cfi_endproc
 319              	.LFE82:
 320              		.size	arm_lms_norm_f32, .-arm_lms_norm_f32
 321              		.text
 322              	.Letext0:
 323              		.file 2 "c:\\program files (x86)\\cypress\\psoc creator\\4.0\\psoc creator\\import\\gnu\\arm\\4.9.
 324              		.file 3 "c:\\program files (x86)\\cypress\\psoc creator\\4.0\\psoc creator\\import\\gnu\\arm\\4.9.
 325              		.file 4 ".\\Include/arm_math.h"