ARM GAS  C:\Users\fneves\AppData\Local\Temp\ccGtAeiW.s 			page 1


   1              		.cpu cortex-m0plus
   2              		.fpu softvfp
   3              		.eabi_attribute 20, 1
   4              		.eabi_attribute 21, 1
   5              		.eabi_attribute 23, 3
   6              		.eabi_attribute 24, 1
   7              		.eabi_attribute 25, 1
   8              		.eabi_attribute 26, 1
   9              		.eabi_attribute 30, 6
  10              		.eabi_attribute 34, 0
  11              		.eabi_attribute 18, 4
  12              		.code	16
  13              		.file	"arm_iir_lattice_init_f32.c"
  14              		.text
  15              	.Ltext0:
  16              		.cfi_sections	.debug_frame
  17              		.section	.text.arm_iir_lattice_init_f32,"ax",%progbits
  18              		.align	2
  19              		.global	arm_iir_lattice_init_f32
  20              		.code	16
  21              		.thumb_func
  22              		.type	arm_iir_lattice_init_f32, %function
  23              	arm_iir_lattice_init_f32:
  24              	.LFB82:
  25              		.file 1 "Source\\FilteringFunctions\\arm_iir_lattice_init_f32.c"
   1:Source\FilteringFunctions/arm_iir_lattice_init_f32.c **** /* ----------------------------------------------------------------------
   2:Source\FilteringFunctions/arm_iir_lattice_init_f32.c ****  * Project:      CMSIS DSP Library
   3:Source\FilteringFunctions/arm_iir_lattice_init_f32.c ****  * Title:        arm_iir_lattice_init_f32.c
   4:Source\FilteringFunctions/arm_iir_lattice_init_f32.c ****  * Description:  Floating-point IIR lattice filter initialization function
   5:Source\FilteringFunctions/arm_iir_lattice_init_f32.c ****  *
   6:Source\FilteringFunctions/arm_iir_lattice_init_f32.c ****  * $Date:        27. January 2017
   7:Source\FilteringFunctions/arm_iir_lattice_init_f32.c ****  * $Revision:    V.1.5.1
   8:Source\FilteringFunctions/arm_iir_lattice_init_f32.c ****  *
   9:Source\FilteringFunctions/arm_iir_lattice_init_f32.c ****  * Target Processor: Cortex-M cores
  10:Source\FilteringFunctions/arm_iir_lattice_init_f32.c ****  * -------------------------------------------------------------------- */
  11:Source\FilteringFunctions/arm_iir_lattice_init_f32.c **** /*
  12:Source\FilteringFunctions/arm_iir_lattice_init_f32.c ****  * Copyright (C) 2010-2017 ARM Limited or its affiliates. All rights reserved.
  13:Source\FilteringFunctions/arm_iir_lattice_init_f32.c ****  *
  14:Source\FilteringFunctions/arm_iir_lattice_init_f32.c ****  * SPDX-License-Identifier: Apache-2.0
  15:Source\FilteringFunctions/arm_iir_lattice_init_f32.c ****  *
  16:Source\FilteringFunctions/arm_iir_lattice_init_f32.c ****  * Licensed under the Apache License, Version 2.0 (the License); you may
  17:Source\FilteringFunctions/arm_iir_lattice_init_f32.c ****  * not use this file except in compliance with the License.
  18:Source\FilteringFunctions/arm_iir_lattice_init_f32.c ****  * You may obtain a copy of the License at
  19:Source\FilteringFunctions/arm_iir_lattice_init_f32.c ****  *
  20:Source\FilteringFunctions/arm_iir_lattice_init_f32.c ****  * www.apache.org/licenses/LICENSE-2.0
  21:Source\FilteringFunctions/arm_iir_lattice_init_f32.c ****  *
  22:Source\FilteringFunctions/arm_iir_lattice_init_f32.c ****  * Unless required by applicable law or agreed to in writing, software
  23:Source\FilteringFunctions/arm_iir_lattice_init_f32.c ****  * distributed under the License is distributed on an AS IS BASIS, WITHOUT
  24:Source\FilteringFunctions/arm_iir_lattice_init_f32.c ****  * WARRANTIES OR CONDITIONS OF ANY KIND, either express or implied.
  25:Source\FilteringFunctions/arm_iir_lattice_init_f32.c ****  * See the License for the specific language governing permissions and
  26:Source\FilteringFunctions/arm_iir_lattice_init_f32.c ****  * limitations under the License.
  27:Source\FilteringFunctions/arm_iir_lattice_init_f32.c ****  */
  28:Source\FilteringFunctions/arm_iir_lattice_init_f32.c **** 
  29:Source\FilteringFunctions/arm_iir_lattice_init_f32.c **** #include "arm_math.h"
  30:Source\FilteringFunctions/arm_iir_lattice_init_f32.c **** 
  31:Source\FilteringFunctions/arm_iir_lattice_init_f32.c **** /**
  32:Source\FilteringFunctions/arm_iir_lattice_init_f32.c ****  * @ingroup groupFilters
ARM GAS  C:\Users\fneves\AppData\Local\Temp\ccGtAeiW.s 			page 2


  33:Source\FilteringFunctions/arm_iir_lattice_init_f32.c ****  */
  34:Source\FilteringFunctions/arm_iir_lattice_init_f32.c **** 
  35:Source\FilteringFunctions/arm_iir_lattice_init_f32.c **** /**
  36:Source\FilteringFunctions/arm_iir_lattice_init_f32.c ****  * @addtogroup IIR_Lattice
  37:Source\FilteringFunctions/arm_iir_lattice_init_f32.c ****  * @{
  38:Source\FilteringFunctions/arm_iir_lattice_init_f32.c ****  */
  39:Source\FilteringFunctions/arm_iir_lattice_init_f32.c **** 
  40:Source\FilteringFunctions/arm_iir_lattice_init_f32.c **** /**
  41:Source\FilteringFunctions/arm_iir_lattice_init_f32.c ****  * @brief Initialization function for the floating-point IIR lattice filter.
  42:Source\FilteringFunctions/arm_iir_lattice_init_f32.c ****  * @param[in] *S points to an instance of the floating-point IIR lattice structure.
  43:Source\FilteringFunctions/arm_iir_lattice_init_f32.c ****  * @param[in] numStages number of stages in the filter.
  44:Source\FilteringFunctions/arm_iir_lattice_init_f32.c ****  * @param[in] *pkCoeffs points to the reflection coefficient buffer.  The array is of length numSta
  45:Source\FilteringFunctions/arm_iir_lattice_init_f32.c ****  * @param[in] *pvCoeffs points to the ladder coefficient buffer.  The array is of length numStages+
  46:Source\FilteringFunctions/arm_iir_lattice_init_f32.c ****  * @param[in] *pState points to the state buffer.  The array is of length numStages+blockSize.
  47:Source\FilteringFunctions/arm_iir_lattice_init_f32.c ****  * @param[in] blockSize number of samples to process.
  48:Source\FilteringFunctions/arm_iir_lattice_init_f32.c ****  * @return none.
  49:Source\FilteringFunctions/arm_iir_lattice_init_f32.c ****  */
  50:Source\FilteringFunctions/arm_iir_lattice_init_f32.c **** 
  51:Source\FilteringFunctions/arm_iir_lattice_init_f32.c **** void arm_iir_lattice_init_f32(
  52:Source\FilteringFunctions/arm_iir_lattice_init_f32.c ****   arm_iir_lattice_instance_f32 * S,
  53:Source\FilteringFunctions/arm_iir_lattice_init_f32.c ****   uint16_t numStages,
  54:Source\FilteringFunctions/arm_iir_lattice_init_f32.c ****   float32_t * pkCoeffs,
  55:Source\FilteringFunctions/arm_iir_lattice_init_f32.c ****   float32_t * pvCoeffs,
  56:Source\FilteringFunctions/arm_iir_lattice_init_f32.c ****   float32_t * pState,
  57:Source\FilteringFunctions/arm_iir_lattice_init_f32.c ****   uint32_t blockSize)
  58:Source\FilteringFunctions/arm_iir_lattice_init_f32.c **** {
  26              		.loc 1 58 0
  27              		.cfi_startproc
  28 0000 80B5     		push	{r7, lr}
  29              		.cfi_def_cfa_offset 8
  30              		.cfi_offset 7, -8
  31              		.cfi_offset 14, -4
  32 0002 84B0     		sub	sp, sp, #16
  33              		.cfi_def_cfa_offset 24
  34 0004 00AF     		add	r7, sp, #0
  35              		.cfi_def_cfa_register 7
  36 0006 F860     		str	r0, [r7, #12]
  37 0008 7A60     		str	r2, [r7, #4]
  38 000a 3B60     		str	r3, [r7]
  39 000c 0A23     		mov	r3, #10
  40 000e FB18     		add	r3, r7, r3
  41 0010 0A1C     		add	r2, r1, #0
  42 0012 1A80     		strh	r2, [r3]
  59:Source\FilteringFunctions/arm_iir_lattice_init_f32.c ****   /* Assign filter taps */
  60:Source\FilteringFunctions/arm_iir_lattice_init_f32.c ****   S->numStages = numStages;
  43              		.loc 1 60 0
  44 0014 FB68     		ldr	r3, [r7, #12]
  45 0016 0A22     		mov	r2, #10
  46 0018 BA18     		add	r2, r7, r2
  47 001a 1288     		ldrh	r2, [r2]
  48 001c 1A80     		strh	r2, [r3]
  61:Source\FilteringFunctions/arm_iir_lattice_init_f32.c **** 
  62:Source\FilteringFunctions/arm_iir_lattice_init_f32.c ****   /* Assign reflection coefficient pointer */
  63:Source\FilteringFunctions/arm_iir_lattice_init_f32.c ****   S->pkCoeffs = pkCoeffs;
  49              		.loc 1 63 0
  50 001e FB68     		ldr	r3, [r7, #12]
  51 0020 7A68     		ldr	r2, [r7, #4]
ARM GAS  C:\Users\fneves\AppData\Local\Temp\ccGtAeiW.s 			page 3


  52 0022 9A60     		str	r2, [r3, #8]
  64:Source\FilteringFunctions/arm_iir_lattice_init_f32.c **** 
  65:Source\FilteringFunctions/arm_iir_lattice_init_f32.c ****   /* Assign ladder coefficient pointer */
  66:Source\FilteringFunctions/arm_iir_lattice_init_f32.c ****   S->pvCoeffs = pvCoeffs;
  53              		.loc 1 66 0
  54 0024 FB68     		ldr	r3, [r7, #12]
  55 0026 3A68     		ldr	r2, [r7]
  56 0028 DA60     		str	r2, [r3, #12]
  67:Source\FilteringFunctions/arm_iir_lattice_init_f32.c **** 
  68:Source\FilteringFunctions/arm_iir_lattice_init_f32.c ****   /* Clear state buffer and size is always blockSize + numStages */
  69:Source\FilteringFunctions/arm_iir_lattice_init_f32.c ****   memset(pState, 0, (numStages + blockSize) * sizeof(float32_t));
  57              		.loc 1 69 0
  58 002a 0A23     		mov	r3, #10
  59 002c FB18     		add	r3, r7, r3
  60 002e 1A88     		ldrh	r2, [r3]
  61 0030 FB69     		ldr	r3, [r7, #28]
  62 0032 D318     		add	r3, r2, r3
  63 0034 9B00     		lsl	r3, r3, #2
  64 0036 BA69     		ldr	r2, [r7, #24]
  65 0038 101C     		mov	r0, r2
  66 003a 0021     		mov	r1, #0
  67 003c 1A1C     		mov	r2, r3
  68 003e FFF7FEFF 		bl	memset
  70:Source\FilteringFunctions/arm_iir_lattice_init_f32.c **** 
  71:Source\FilteringFunctions/arm_iir_lattice_init_f32.c ****   /* Assign state pointer */
  72:Source\FilteringFunctions/arm_iir_lattice_init_f32.c ****   S->pState = pState;
  69              		.loc 1 72 0
  70 0042 FB68     		ldr	r3, [r7, #12]
  71 0044 BA69     		ldr	r2, [r7, #24]
  72 0046 5A60     		str	r2, [r3, #4]
  73:Source\FilteringFunctions/arm_iir_lattice_init_f32.c **** 
  74:Source\FilteringFunctions/arm_iir_lattice_init_f32.c **** 
  75:Source\FilteringFunctions/arm_iir_lattice_init_f32.c **** }
  73              		.loc 1 75 0
  74 0048 BD46     		mov	sp, r7
  75 004a 04B0     		add	sp, sp, #16
  76              		@ sp needed
  77 004c 80BD     		pop	{r7, pc}
  78              		.cfi_endproc
  79              	.LFE82:
  80              		.size	arm_iir_lattice_init_f32, .-arm_iir_lattice_init_f32
  81 004e C046     		.text
  82              	.Letext0:
  83              		.file 2 "c:\\program files (x86)\\cypress\\psoc creator\\4.0\\psoc creator\\import\\gnu\\arm\\4.9.
  84              		.file 3 "c:\\program files (x86)\\cypress\\psoc creator\\4.0\\psoc creator\\import\\gnu\\arm\\4.9.
  85              		.file 4 ".\\Include/arm_math.h"