ARM GAS  C:\Users\fneves\AppData\Local\Temp\cckawOxA.s 			page 1


   1              		.cpu cortex-m0plus
   2              		.fpu softvfp
   3              		.eabi_attribute 20, 1
   4              		.eabi_attribute 21, 1
   5              		.eabi_attribute 23, 3
   6              		.eabi_attribute 24, 1
   7              		.eabi_attribute 25, 1
   8              		.eabi_attribute 26, 1
   9              		.eabi_attribute 30, 6
  10              		.eabi_attribute 34, 0
  11              		.eabi_attribute 18, 4
  12              		.code	16
  13              		.file	"arm_mat_trans_f32.c"
  14              		.text
  15              	.Ltext0:
  16              		.cfi_sections	.debug_frame
  17              		.section	.text.arm_mat_trans_f32,"ax",%progbits
  18              		.align	2
  19              		.global	arm_mat_trans_f32
  20              		.code	16
  21              		.thumb_func
  22              		.type	arm_mat_trans_f32, %function
  23              	arm_mat_trans_f32:
  24              	.LFB82:
  25              		.file 1 "Source\\MatrixFunctions\\arm_mat_trans_f32.c"
   1:Source\MatrixFunctions/arm_mat_trans_f32.c **** /* ----------------------------------------------------------------------
   2:Source\MatrixFunctions/arm_mat_trans_f32.c ****  * Project:      CMSIS DSP Library
   3:Source\MatrixFunctions/arm_mat_trans_f32.c ****  * Title:        arm_mat_trans_f32.c
   4:Source\MatrixFunctions/arm_mat_trans_f32.c ****  * Description:  Floating-point matrix transpose
   5:Source\MatrixFunctions/arm_mat_trans_f32.c ****  *
   6:Source\MatrixFunctions/arm_mat_trans_f32.c ****  * $Date:        27. January 2017
   7:Source\MatrixFunctions/arm_mat_trans_f32.c ****  * $Revision:    V.1.5.1
   8:Source\MatrixFunctions/arm_mat_trans_f32.c ****  *
   9:Source\MatrixFunctions/arm_mat_trans_f32.c ****  * Target Processor: Cortex-M cores
  10:Source\MatrixFunctions/arm_mat_trans_f32.c ****  * -------------------------------------------------------------------- */
  11:Source\MatrixFunctions/arm_mat_trans_f32.c **** /*
  12:Source\MatrixFunctions/arm_mat_trans_f32.c ****  * Copyright (C) 2010-2017 ARM Limited or its affiliates. All rights reserved.
  13:Source\MatrixFunctions/arm_mat_trans_f32.c ****  *
  14:Source\MatrixFunctions/arm_mat_trans_f32.c ****  * SPDX-License-Identifier: Apache-2.0
  15:Source\MatrixFunctions/arm_mat_trans_f32.c ****  *
  16:Source\MatrixFunctions/arm_mat_trans_f32.c ****  * Licensed under the Apache License, Version 2.0 (the License); you may
  17:Source\MatrixFunctions/arm_mat_trans_f32.c ****  * not use this file except in compliance with the License.
  18:Source\MatrixFunctions/arm_mat_trans_f32.c ****  * You may obtain a copy of the License at
  19:Source\MatrixFunctions/arm_mat_trans_f32.c ****  *
  20:Source\MatrixFunctions/arm_mat_trans_f32.c ****  * www.apache.org/licenses/LICENSE-2.0
  21:Source\MatrixFunctions/arm_mat_trans_f32.c ****  *
  22:Source\MatrixFunctions/arm_mat_trans_f32.c ****  * Unless required by applicable law or agreed to in writing, software
  23:Source\MatrixFunctions/arm_mat_trans_f32.c ****  * distributed under the License is distributed on an AS IS BASIS, WITHOUT
  24:Source\MatrixFunctions/arm_mat_trans_f32.c ****  * WARRANTIES OR CONDITIONS OF ANY KIND, either express or implied.
  25:Source\MatrixFunctions/arm_mat_trans_f32.c ****  * See the License for the specific language governing permissions and
  26:Source\MatrixFunctions/arm_mat_trans_f32.c ****  * limitations under the License.
  27:Source\MatrixFunctions/arm_mat_trans_f32.c ****  */
  28:Source\MatrixFunctions/arm_mat_trans_f32.c **** 
  29:Source\MatrixFunctions/arm_mat_trans_f32.c **** /**
  30:Source\MatrixFunctions/arm_mat_trans_f32.c ****  * @defgroup MatrixTrans Matrix Transpose
  31:Source\MatrixFunctions/arm_mat_trans_f32.c ****  *
  32:Source\MatrixFunctions/arm_mat_trans_f32.c ****  * Tranposes a matrix.
ARM GAS  C:\Users\fneves\AppData\Local\Temp\cckawOxA.s 			page 2


  33:Source\MatrixFunctions/arm_mat_trans_f32.c ****  * Transposing an <code>M x N</code> matrix flips it around the center diagonal and results in an <
  34:Source\MatrixFunctions/arm_mat_trans_f32.c ****  * \image html MatrixTranspose.gif "Transpose of a 3 x 3 matrix"
  35:Source\MatrixFunctions/arm_mat_trans_f32.c ****  */
  36:Source\MatrixFunctions/arm_mat_trans_f32.c **** 
  37:Source\MatrixFunctions/arm_mat_trans_f32.c **** #include "arm_math.h"
  38:Source\MatrixFunctions/arm_mat_trans_f32.c **** 
  39:Source\MatrixFunctions/arm_mat_trans_f32.c **** /**
  40:Source\MatrixFunctions/arm_mat_trans_f32.c ****  * @ingroup groupMatrix
  41:Source\MatrixFunctions/arm_mat_trans_f32.c ****  */
  42:Source\MatrixFunctions/arm_mat_trans_f32.c **** 
  43:Source\MatrixFunctions/arm_mat_trans_f32.c **** /**
  44:Source\MatrixFunctions/arm_mat_trans_f32.c ****  * @addtogroup MatrixTrans
  45:Source\MatrixFunctions/arm_mat_trans_f32.c ****  * @{
  46:Source\MatrixFunctions/arm_mat_trans_f32.c ****  */
  47:Source\MatrixFunctions/arm_mat_trans_f32.c **** 
  48:Source\MatrixFunctions/arm_mat_trans_f32.c **** /**
  49:Source\MatrixFunctions/arm_mat_trans_f32.c ****   * @brief Floating-point matrix transpose.
  50:Source\MatrixFunctions/arm_mat_trans_f32.c ****   * @param[in]  *pSrc points to the input matrix
  51:Source\MatrixFunctions/arm_mat_trans_f32.c ****   * @param[out] *pDst points to the output matrix
  52:Source\MatrixFunctions/arm_mat_trans_f32.c ****   * @return 	The function returns either  <code>ARM_MATH_SIZE_MISMATCH</code>
  53:Source\MatrixFunctions/arm_mat_trans_f32.c ****   * or <code>ARM_MATH_SUCCESS</code> based on the outcome of size checking.
  54:Source\MatrixFunctions/arm_mat_trans_f32.c ****   */
  55:Source\MatrixFunctions/arm_mat_trans_f32.c **** 
  56:Source\MatrixFunctions/arm_mat_trans_f32.c **** 
  57:Source\MatrixFunctions/arm_mat_trans_f32.c **** arm_status arm_mat_trans_f32(
  58:Source\MatrixFunctions/arm_mat_trans_f32.c ****   const arm_matrix_instance_f32 * pSrc,
  59:Source\MatrixFunctions/arm_mat_trans_f32.c ****   arm_matrix_instance_f32 * pDst)
  60:Source\MatrixFunctions/arm_mat_trans_f32.c **** {
  26              		.loc 1 60 0
  27              		.cfi_startproc
  28 0000 80B5     		push	{r7, lr}
  29              		.cfi_def_cfa_offset 8
  30              		.cfi_offset 7, -8
  31              		.cfi_offset 14, -4
  32 0002 8AB0     		sub	sp, sp, #40
  33              		.cfi_def_cfa_offset 48
  34 0004 00AF     		add	r7, sp, #0
  35              		.cfi_def_cfa_register 7
  36 0006 7860     		str	r0, [r7, #4]
  37 0008 3960     		str	r1, [r7]
  61:Source\MatrixFunctions/arm_mat_trans_f32.c ****   float32_t *pIn = pSrc->pData;                  /* input data matrix pointer */
  38              		.loc 1 61 0
  39 000a 7B68     		ldr	r3, [r7, #4]
  40 000c 5B68     		ldr	r3, [r3, #4]
  41 000e 7B62     		str	r3, [r7, #36]
  62:Source\MatrixFunctions/arm_mat_trans_f32.c ****   float32_t *pOut = pDst->pData;                 /* output data matrix pointer */
  42              		.loc 1 62 0
  43 0010 3B68     		ldr	r3, [r7]
  44 0012 5B68     		ldr	r3, [r3, #4]
  45 0014 7B61     		str	r3, [r7, #20]
  63:Source\MatrixFunctions/arm_mat_trans_f32.c ****   float32_t *px;                                 /* Temporary output data matrix pointer */
  64:Source\MatrixFunctions/arm_mat_trans_f32.c ****   uint16_t nRows = pSrc->numRows;                /* number of rows */
  46              		.loc 1 64 0
  47 0016 1223     		mov	r3, #18
  48 0018 FB18     		add	r3, r7, r3
  49 001a 7A68     		ldr	r2, [r7, #4]
  50 001c 1288     		ldrh	r2, [r2]
ARM GAS  C:\Users\fneves\AppData\Local\Temp\cckawOxA.s 			page 3


  51 001e 1A80     		strh	r2, [r3]
  65:Source\MatrixFunctions/arm_mat_trans_f32.c ****   uint16_t nColumns = pSrc->numCols;             /* number of columns */
  52              		.loc 1 65 0
  53 0020 1023     		mov	r3, #16
  54 0022 FB18     		add	r3, r7, r3
  55 0024 7A68     		ldr	r2, [r7, #4]
  56 0026 5288     		ldrh	r2, [r2, #2]
  57 0028 1A80     		strh	r2, [r3]
  66:Source\MatrixFunctions/arm_mat_trans_f32.c **** 
  67:Source\MatrixFunctions/arm_mat_trans_f32.c **** #if defined (ARM_MATH_DSP)
  68:Source\MatrixFunctions/arm_mat_trans_f32.c **** 
  69:Source\MatrixFunctions/arm_mat_trans_f32.c ****   /* Run the below code for Cortex-M4 and Cortex-M3 */
  70:Source\MatrixFunctions/arm_mat_trans_f32.c **** 
  71:Source\MatrixFunctions/arm_mat_trans_f32.c ****   uint16_t blkCnt, i = 0u, row = nRows;          /* loop counters */
  72:Source\MatrixFunctions/arm_mat_trans_f32.c ****   arm_status status;                             /* status of matrix transpose  */
  73:Source\MatrixFunctions/arm_mat_trans_f32.c **** 
  74:Source\MatrixFunctions/arm_mat_trans_f32.c **** 
  75:Source\MatrixFunctions/arm_mat_trans_f32.c **** #ifdef ARM_MATH_MATRIX_CHECK
  76:Source\MatrixFunctions/arm_mat_trans_f32.c **** 
  77:Source\MatrixFunctions/arm_mat_trans_f32.c **** 
  78:Source\MatrixFunctions/arm_mat_trans_f32.c ****   /* Check for matrix mismatch condition */
  79:Source\MatrixFunctions/arm_mat_trans_f32.c ****   if ((pSrc->numRows != pDst->numCols) || (pSrc->numCols != pDst->numRows))
  80:Source\MatrixFunctions/arm_mat_trans_f32.c ****   {
  81:Source\MatrixFunctions/arm_mat_trans_f32.c ****     /* Set status as ARM_MATH_SIZE_MISMATCH */
  82:Source\MatrixFunctions/arm_mat_trans_f32.c ****     status = ARM_MATH_SIZE_MISMATCH;
  83:Source\MatrixFunctions/arm_mat_trans_f32.c ****   }
  84:Source\MatrixFunctions/arm_mat_trans_f32.c ****   else
  85:Source\MatrixFunctions/arm_mat_trans_f32.c **** #endif /*    #ifdef ARM_MATH_MATRIX_CHECK    */
  86:Source\MatrixFunctions/arm_mat_trans_f32.c **** 
  87:Source\MatrixFunctions/arm_mat_trans_f32.c ****   {
  88:Source\MatrixFunctions/arm_mat_trans_f32.c ****     /* Matrix transpose by exchanging the rows with columns */
  89:Source\MatrixFunctions/arm_mat_trans_f32.c ****     /* row loop     */
  90:Source\MatrixFunctions/arm_mat_trans_f32.c ****     do
  91:Source\MatrixFunctions/arm_mat_trans_f32.c ****     {
  92:Source\MatrixFunctions/arm_mat_trans_f32.c ****       /* Loop Unrolling */
  93:Source\MatrixFunctions/arm_mat_trans_f32.c ****       blkCnt = nColumns >> 2;
  94:Source\MatrixFunctions/arm_mat_trans_f32.c **** 
  95:Source\MatrixFunctions/arm_mat_trans_f32.c ****       /* The pointer px is set to starting address of the column being processed */
  96:Source\MatrixFunctions/arm_mat_trans_f32.c ****       px = pOut + i;
  97:Source\MatrixFunctions/arm_mat_trans_f32.c **** 
  98:Source\MatrixFunctions/arm_mat_trans_f32.c ****       /* First part of the processing with loop unrolling.  Compute 4 outputs at a time.
  99:Source\MatrixFunctions/arm_mat_trans_f32.c ****        ** a second loop below computes the remaining 1 to 3 samples. */
 100:Source\MatrixFunctions/arm_mat_trans_f32.c ****       while (blkCnt > 0u)        /* column loop */
 101:Source\MatrixFunctions/arm_mat_trans_f32.c ****       {
 102:Source\MatrixFunctions/arm_mat_trans_f32.c ****         /* Read and store the input element in the destination */
 103:Source\MatrixFunctions/arm_mat_trans_f32.c ****         *px = *pIn++;
 104:Source\MatrixFunctions/arm_mat_trans_f32.c **** 
 105:Source\MatrixFunctions/arm_mat_trans_f32.c ****         /* Update the pointer px to point to the next row of the transposed matrix */
 106:Source\MatrixFunctions/arm_mat_trans_f32.c ****         px += nRows;
 107:Source\MatrixFunctions/arm_mat_trans_f32.c **** 
 108:Source\MatrixFunctions/arm_mat_trans_f32.c ****         /* Read and store the input element in the destination */
 109:Source\MatrixFunctions/arm_mat_trans_f32.c ****         *px = *pIn++;
 110:Source\MatrixFunctions/arm_mat_trans_f32.c **** 
 111:Source\MatrixFunctions/arm_mat_trans_f32.c ****         /* Update the pointer px to point to the next row of the transposed matrix */
 112:Source\MatrixFunctions/arm_mat_trans_f32.c ****         px += nRows;
 113:Source\MatrixFunctions/arm_mat_trans_f32.c **** 
 114:Source\MatrixFunctions/arm_mat_trans_f32.c ****         /* Read and store the input element in the destination */
ARM GAS  C:\Users\fneves\AppData\Local\Temp\cckawOxA.s 			page 4


 115:Source\MatrixFunctions/arm_mat_trans_f32.c ****         *px = *pIn++;
 116:Source\MatrixFunctions/arm_mat_trans_f32.c **** 
 117:Source\MatrixFunctions/arm_mat_trans_f32.c ****         /* Update the pointer px to point to the next row of the transposed matrix */
 118:Source\MatrixFunctions/arm_mat_trans_f32.c ****         px += nRows;
 119:Source\MatrixFunctions/arm_mat_trans_f32.c **** 
 120:Source\MatrixFunctions/arm_mat_trans_f32.c ****         /* Read and store the input element in the destination */
 121:Source\MatrixFunctions/arm_mat_trans_f32.c ****         *px = *pIn++;
 122:Source\MatrixFunctions/arm_mat_trans_f32.c **** 
 123:Source\MatrixFunctions/arm_mat_trans_f32.c ****         /* Update the pointer px to point to the next row of the transposed matrix */
 124:Source\MatrixFunctions/arm_mat_trans_f32.c ****         px += nRows;
 125:Source\MatrixFunctions/arm_mat_trans_f32.c **** 
 126:Source\MatrixFunctions/arm_mat_trans_f32.c ****         /* Decrement the column loop counter */
 127:Source\MatrixFunctions/arm_mat_trans_f32.c ****         blkCnt--;
 128:Source\MatrixFunctions/arm_mat_trans_f32.c ****       }
 129:Source\MatrixFunctions/arm_mat_trans_f32.c **** 
 130:Source\MatrixFunctions/arm_mat_trans_f32.c ****       /* Perform matrix transpose for last 3 samples here. */
 131:Source\MatrixFunctions/arm_mat_trans_f32.c ****       blkCnt = nColumns % 0x4u;
 132:Source\MatrixFunctions/arm_mat_trans_f32.c **** 
 133:Source\MatrixFunctions/arm_mat_trans_f32.c ****       while (blkCnt > 0u)
 134:Source\MatrixFunctions/arm_mat_trans_f32.c ****       {
 135:Source\MatrixFunctions/arm_mat_trans_f32.c ****         /* Read and store the input element in the destination */
 136:Source\MatrixFunctions/arm_mat_trans_f32.c ****         *px = *pIn++;
 137:Source\MatrixFunctions/arm_mat_trans_f32.c **** 
 138:Source\MatrixFunctions/arm_mat_trans_f32.c ****         /* Update the pointer px to point to the next row of the transposed matrix */
 139:Source\MatrixFunctions/arm_mat_trans_f32.c ****         px += nRows;
 140:Source\MatrixFunctions/arm_mat_trans_f32.c **** 
 141:Source\MatrixFunctions/arm_mat_trans_f32.c ****         /* Decrement the column loop counter */
 142:Source\MatrixFunctions/arm_mat_trans_f32.c ****         blkCnt--;
 143:Source\MatrixFunctions/arm_mat_trans_f32.c ****       }
 144:Source\MatrixFunctions/arm_mat_trans_f32.c **** 
 145:Source\MatrixFunctions/arm_mat_trans_f32.c **** #else
 146:Source\MatrixFunctions/arm_mat_trans_f32.c **** 
 147:Source\MatrixFunctions/arm_mat_trans_f32.c ****   /* Run the below code for Cortex-M0 */
 148:Source\MatrixFunctions/arm_mat_trans_f32.c **** 
 149:Source\MatrixFunctions/arm_mat_trans_f32.c ****   uint16_t col, i = 0u, row = nRows;             /* loop counters */
  58              		.loc 1 149 0
  59 002a 1C23     		mov	r3, #28
  60 002c FB18     		add	r3, r7, r3
  61 002e 0022     		mov	r2, #0
  62 0030 1A80     		strh	r2, [r3]
  63 0032 1A23     		mov	r3, #26
  64 0034 FB18     		add	r3, r7, r3
  65 0036 1222     		mov	r2, #18
  66 0038 BA18     		add	r2, r7, r2
  67 003a 1288     		ldrh	r2, [r2]
  68 003c 1A80     		strh	r2, [r3]
  69              	.L4:
 150:Source\MatrixFunctions/arm_mat_trans_f32.c ****   arm_status status;                             /* status of matrix transpose  */
 151:Source\MatrixFunctions/arm_mat_trans_f32.c **** 
 152:Source\MatrixFunctions/arm_mat_trans_f32.c **** 
 153:Source\MatrixFunctions/arm_mat_trans_f32.c **** #ifdef ARM_MATH_MATRIX_CHECK
 154:Source\MatrixFunctions/arm_mat_trans_f32.c **** 
 155:Source\MatrixFunctions/arm_mat_trans_f32.c ****   /* Check for matrix mismatch condition */
 156:Source\MatrixFunctions/arm_mat_trans_f32.c ****   if ((pSrc->numRows != pDst->numCols) || (pSrc->numCols != pDst->numRows))
 157:Source\MatrixFunctions/arm_mat_trans_f32.c ****   {
 158:Source\MatrixFunctions/arm_mat_trans_f32.c ****     /* Set status as ARM_MATH_SIZE_MISMATCH */
 159:Source\MatrixFunctions/arm_mat_trans_f32.c ****     status = ARM_MATH_SIZE_MISMATCH;
ARM GAS  C:\Users\fneves\AppData\Local\Temp\cckawOxA.s 			page 5


 160:Source\MatrixFunctions/arm_mat_trans_f32.c ****   }
 161:Source\MatrixFunctions/arm_mat_trans_f32.c ****   else
 162:Source\MatrixFunctions/arm_mat_trans_f32.c **** #endif /*      #ifdef ARM_MATH_MATRIX_CHECK    */
 163:Source\MatrixFunctions/arm_mat_trans_f32.c **** 
 164:Source\MatrixFunctions/arm_mat_trans_f32.c ****   {
 165:Source\MatrixFunctions/arm_mat_trans_f32.c ****     /* Matrix transpose by exchanging the rows with columns */
 166:Source\MatrixFunctions/arm_mat_trans_f32.c ****     /* row loop     */
 167:Source\MatrixFunctions/arm_mat_trans_f32.c ****     do
 168:Source\MatrixFunctions/arm_mat_trans_f32.c ****     {
 169:Source\MatrixFunctions/arm_mat_trans_f32.c ****       /* The pointer px is set to starting address of the column being processed */
 170:Source\MatrixFunctions/arm_mat_trans_f32.c ****       px = pOut + i;
  70              		.loc 1 170 0
  71 003e 1C23     		mov	r3, #28
  72 0040 FB18     		add	r3, r7, r3
  73 0042 1B88     		ldrh	r3, [r3]
  74 0044 9B00     		lsl	r3, r3, #2
  75 0046 7A69     		ldr	r2, [r7, #20]
  76 0048 D318     		add	r3, r2, r3
  77 004a 3B62     		str	r3, [r7, #32]
 171:Source\MatrixFunctions/arm_mat_trans_f32.c **** 
 172:Source\MatrixFunctions/arm_mat_trans_f32.c ****       /* Initialize column loop counter */
 173:Source\MatrixFunctions/arm_mat_trans_f32.c ****       col = nColumns;
  78              		.loc 1 173 0
  79 004c 1E23     		mov	r3, #30
  80 004e FB18     		add	r3, r7, r3
  81 0050 1022     		mov	r2, #16
  82 0052 BA18     		add	r2, r7, r2
  83 0054 1288     		ldrh	r2, [r2]
  84 0056 1A80     		strh	r2, [r3]
 174:Source\MatrixFunctions/arm_mat_trans_f32.c **** 
 175:Source\MatrixFunctions/arm_mat_trans_f32.c ****       while (col > 0u)
  85              		.loc 1 175 0
  86 0058 13E0     		b	.L2
  87              	.L3:
 176:Source\MatrixFunctions/arm_mat_trans_f32.c ****       {
 177:Source\MatrixFunctions/arm_mat_trans_f32.c ****         /* Read and store the input element in the destination */
 178:Source\MatrixFunctions/arm_mat_trans_f32.c ****         *px = *pIn++;
  88              		.loc 1 178 0
  89 005a 7B6A     		ldr	r3, [r7, #36]
  90 005c 1A1D     		add	r2, r3, #4
  91 005e 7A62     		str	r2, [r7, #36]
  92 0060 1A68     		ldr	r2, [r3]
  93 0062 3B6A     		ldr	r3, [r7, #32]
  94 0064 1A60     		str	r2, [r3]
 179:Source\MatrixFunctions/arm_mat_trans_f32.c **** 
 180:Source\MatrixFunctions/arm_mat_trans_f32.c ****         /* Update the pointer px to point to the next row of the transposed matrix */
 181:Source\MatrixFunctions/arm_mat_trans_f32.c ****         px += nRows;
  95              		.loc 1 181 0
  96 0066 1223     		mov	r3, #18
  97 0068 FB18     		add	r3, r7, r3
  98 006a 1B88     		ldrh	r3, [r3]
  99 006c 9B00     		lsl	r3, r3, #2
 100 006e 3A6A     		ldr	r2, [r7, #32]
 101 0070 D318     		add	r3, r2, r3
 102 0072 3B62     		str	r3, [r7, #32]
 182:Source\MatrixFunctions/arm_mat_trans_f32.c **** 
 183:Source\MatrixFunctions/arm_mat_trans_f32.c ****         /* Decrement the column loop counter */
ARM GAS  C:\Users\fneves\AppData\Local\Temp\cckawOxA.s 			page 6


 184:Source\MatrixFunctions/arm_mat_trans_f32.c ****         col--;
 103              		.loc 1 184 0
 104 0074 1E23     		mov	r3, #30
 105 0076 FB18     		add	r3, r7, r3
 106 0078 1A88     		ldrh	r2, [r3]
 107 007a 1E23     		mov	r3, #30
 108 007c FB18     		add	r3, r7, r3
 109 007e 013A     		sub	r2, r2, #1
 110 0080 1A80     		strh	r2, [r3]
 111              	.L2:
 175:Source\MatrixFunctions/arm_mat_trans_f32.c ****       {
 112              		.loc 1 175 0
 113 0082 1E23     		mov	r3, #30
 114 0084 FB18     		add	r3, r7, r3
 115 0086 1B88     		ldrh	r3, [r3]
 116 0088 002B     		cmp	r3, #0
 117 008a E6D1     		bne	.L3
 185:Source\MatrixFunctions/arm_mat_trans_f32.c ****       }
 186:Source\MatrixFunctions/arm_mat_trans_f32.c **** 
 187:Source\MatrixFunctions/arm_mat_trans_f32.c **** #endif /* #if defined (ARM_MATH_DSP) */
 188:Source\MatrixFunctions/arm_mat_trans_f32.c **** 
 189:Source\MatrixFunctions/arm_mat_trans_f32.c ****       i++;
 118              		.loc 1 189 0
 119 008c 1C23     		mov	r3, #28
 120 008e FB18     		add	r3, r7, r3
 121 0090 1A88     		ldrh	r2, [r3]
 122 0092 1C23     		mov	r3, #28
 123 0094 FB18     		add	r3, r7, r3
 124 0096 0132     		add	r2, r2, #1
 125 0098 1A80     		strh	r2, [r3]
 190:Source\MatrixFunctions/arm_mat_trans_f32.c **** 
 191:Source\MatrixFunctions/arm_mat_trans_f32.c ****       /* Decrement the row loop counter */
 192:Source\MatrixFunctions/arm_mat_trans_f32.c ****       row--;
 126              		.loc 1 192 0
 127 009a 1A23     		mov	r3, #26
 128 009c FB18     		add	r3, r7, r3
 129 009e 1A88     		ldrh	r2, [r3]
 130 00a0 1A23     		mov	r3, #26
 131 00a2 FB18     		add	r3, r7, r3
 132 00a4 013A     		sub	r2, r2, #1
 133 00a6 1A80     		strh	r2, [r3]
 193:Source\MatrixFunctions/arm_mat_trans_f32.c **** 
 194:Source\MatrixFunctions/arm_mat_trans_f32.c ****     } while (row > 0u);          /* row loop end  */
 134              		.loc 1 194 0
 135 00a8 1A23     		mov	r3, #26
 136 00aa FB18     		add	r3, r7, r3
 137 00ac 1B88     		ldrh	r3, [r3]
 138 00ae 002B     		cmp	r3, #0
 139 00b0 C5D1     		bne	.L4
 195:Source\MatrixFunctions/arm_mat_trans_f32.c **** 
 196:Source\MatrixFunctions/arm_mat_trans_f32.c ****     /* Set status as ARM_MATH_SUCCESS */
 197:Source\MatrixFunctions/arm_mat_trans_f32.c ****     status = ARM_MATH_SUCCESS;
 140              		.loc 1 197 0
 141 00b2 0F23     		mov	r3, #15
 142 00b4 FB18     		add	r3, r7, r3
 143 00b6 0022     		mov	r2, #0
 144 00b8 1A70     		strb	r2, [r3]
ARM GAS  C:\Users\fneves\AppData\Local\Temp\cckawOxA.s 			page 7


 198:Source\MatrixFunctions/arm_mat_trans_f32.c ****   }
 199:Source\MatrixFunctions/arm_mat_trans_f32.c **** 
 200:Source\MatrixFunctions/arm_mat_trans_f32.c ****   /* Return to application */
 201:Source\MatrixFunctions/arm_mat_trans_f32.c ****   return (status);
 145              		.loc 1 201 0
 146 00ba 0F23     		mov	r3, #15
 147 00bc FB18     		add	r3, r7, r3
 148 00be 1B78     		ldrb	r3, [r3]
 149 00c0 5BB2     		sxtb	r3, r3
 202:Source\MatrixFunctions/arm_mat_trans_f32.c **** }
 150              		.loc 1 202 0
 151 00c2 181C     		mov	r0, r3
 152 00c4 BD46     		mov	sp, r7
 153 00c6 0AB0     		add	sp, sp, #40
 154              		@ sp needed
 155 00c8 80BD     		pop	{r7, pc}
 156              		.cfi_endproc
 157              	.LFE82:
 158              		.size	arm_mat_trans_f32, .-arm_mat_trans_f32
 159 00ca C046     		.text
 160              	.Letext0:
 161              		.file 2 "c:\\program files (x86)\\cypress\\psoc creator\\4.0\\psoc creator\\import\\gnu\\arm\\4.9.
 162              		.file 3 "c:\\program files (x86)\\cypress\\psoc creator\\4.0\\psoc creator\\import\\gnu\\arm\\4.9.
 163              		.file 4 ".\\Include/arm_math.h"