ARM GAS  C:\Users\fneves\AppData\Local\Temp\ccVfSQQU.s 			page 1


   1              		.cpu cortex-m0plus
   2              		.fpu softvfp
   3              		.eabi_attribute 20, 1
   4              		.eabi_attribute 21, 1
   5              		.eabi_attribute 23, 3
   6              		.eabi_attribute 24, 1
   7              		.eabi_attribute 25, 1
   8              		.eabi_attribute 26, 1
   9              		.eabi_attribute 30, 6
  10              		.eabi_attribute 34, 0
  11              		.eabi_attribute 18, 4
  12              		.code	16
  13              		.file	"arm_cmplx_mult_cmplx_q31.c"
  14              		.text
  15              	.Ltext0:
  16              		.cfi_sections	.debug_frame
  17              		.global	__aeabi_lmul
  18              		.section	.text.arm_cmplx_mult_cmplx_q31,"ax",%progbits
  19              		.align	2
  20              		.global	arm_cmplx_mult_cmplx_q31
  21              		.code	16
  22              		.thumb_func
  23              		.type	arm_cmplx_mult_cmplx_q31, %function
  24              	arm_cmplx_mult_cmplx_q31:
  25              	.LFB82:
  26              		.file 1 "Source\\ComplexMathFunctions\\arm_cmplx_mult_cmplx_q31.c"
   1:Source\ComplexMathFunctions/arm_cmplx_mult_cmplx_q31.c **** /* ----------------------------------------------------------------------
   2:Source\ComplexMathFunctions/arm_cmplx_mult_cmplx_q31.c ****  * Project:      CMSIS DSP Library
   3:Source\ComplexMathFunctions/arm_cmplx_mult_cmplx_q31.c ****  * Title:        arm_cmplx_mult_cmplx_q31.c
   4:Source\ComplexMathFunctions/arm_cmplx_mult_cmplx_q31.c ****  * Description:  Q31 complex-by-complex multiplication
   5:Source\ComplexMathFunctions/arm_cmplx_mult_cmplx_q31.c ****  *
   6:Source\ComplexMathFunctions/arm_cmplx_mult_cmplx_q31.c ****  * $Date:        27. January 2017
   7:Source\ComplexMathFunctions/arm_cmplx_mult_cmplx_q31.c ****  * $Revision:    V.1.5.1
   8:Source\ComplexMathFunctions/arm_cmplx_mult_cmplx_q31.c ****  *
   9:Source\ComplexMathFunctions/arm_cmplx_mult_cmplx_q31.c ****  * Target Processor: Cortex-M cores
  10:Source\ComplexMathFunctions/arm_cmplx_mult_cmplx_q31.c ****  * -------------------------------------------------------------------- */
  11:Source\ComplexMathFunctions/arm_cmplx_mult_cmplx_q31.c **** /*
  12:Source\ComplexMathFunctions/arm_cmplx_mult_cmplx_q31.c ****  * Copyright (C) 2010-2017 ARM Limited or its affiliates. All rights reserved.
  13:Source\ComplexMathFunctions/arm_cmplx_mult_cmplx_q31.c ****  *
  14:Source\ComplexMathFunctions/arm_cmplx_mult_cmplx_q31.c ****  * SPDX-License-Identifier: Apache-2.0
  15:Source\ComplexMathFunctions/arm_cmplx_mult_cmplx_q31.c ****  *
  16:Source\ComplexMathFunctions/arm_cmplx_mult_cmplx_q31.c ****  * Licensed under the Apache License, Version 2.0 (the License); you may
  17:Source\ComplexMathFunctions/arm_cmplx_mult_cmplx_q31.c ****  * not use this file except in compliance with the License.
  18:Source\ComplexMathFunctions/arm_cmplx_mult_cmplx_q31.c ****  * You may obtain a copy of the License at
  19:Source\ComplexMathFunctions/arm_cmplx_mult_cmplx_q31.c ****  *
  20:Source\ComplexMathFunctions/arm_cmplx_mult_cmplx_q31.c ****  * www.apache.org/licenses/LICENSE-2.0
  21:Source\ComplexMathFunctions/arm_cmplx_mult_cmplx_q31.c ****  *
  22:Source\ComplexMathFunctions/arm_cmplx_mult_cmplx_q31.c ****  * Unless required by applicable law or agreed to in writing, software
  23:Source\ComplexMathFunctions/arm_cmplx_mult_cmplx_q31.c ****  * distributed under the License is distributed on an AS IS BASIS, WITHOUT
  24:Source\ComplexMathFunctions/arm_cmplx_mult_cmplx_q31.c ****  * WARRANTIES OR CONDITIONS OF ANY KIND, either express or implied.
  25:Source\ComplexMathFunctions/arm_cmplx_mult_cmplx_q31.c ****  * See the License for the specific language governing permissions and
  26:Source\ComplexMathFunctions/arm_cmplx_mult_cmplx_q31.c ****  * limitations under the License.
  27:Source\ComplexMathFunctions/arm_cmplx_mult_cmplx_q31.c ****  */
  28:Source\ComplexMathFunctions/arm_cmplx_mult_cmplx_q31.c **** 
  29:Source\ComplexMathFunctions/arm_cmplx_mult_cmplx_q31.c **** #include "arm_math.h"
  30:Source\ComplexMathFunctions/arm_cmplx_mult_cmplx_q31.c **** 
  31:Source\ComplexMathFunctions/arm_cmplx_mult_cmplx_q31.c **** /**
ARM GAS  C:\Users\fneves\AppData\Local\Temp\ccVfSQQU.s 			page 2


  32:Source\ComplexMathFunctions/arm_cmplx_mult_cmplx_q31.c ****  * @ingroup groupCmplxMath
  33:Source\ComplexMathFunctions/arm_cmplx_mult_cmplx_q31.c ****  */
  34:Source\ComplexMathFunctions/arm_cmplx_mult_cmplx_q31.c **** 
  35:Source\ComplexMathFunctions/arm_cmplx_mult_cmplx_q31.c **** /**
  36:Source\ComplexMathFunctions/arm_cmplx_mult_cmplx_q31.c ****  * @addtogroup CmplxByCmplxMult
  37:Source\ComplexMathFunctions/arm_cmplx_mult_cmplx_q31.c ****  * @{
  38:Source\ComplexMathFunctions/arm_cmplx_mult_cmplx_q31.c ****  */
  39:Source\ComplexMathFunctions/arm_cmplx_mult_cmplx_q31.c **** 
  40:Source\ComplexMathFunctions/arm_cmplx_mult_cmplx_q31.c **** 
  41:Source\ComplexMathFunctions/arm_cmplx_mult_cmplx_q31.c **** /**
  42:Source\ComplexMathFunctions/arm_cmplx_mult_cmplx_q31.c ****  * @brief  Q31 complex-by-complex multiplication
  43:Source\ComplexMathFunctions/arm_cmplx_mult_cmplx_q31.c ****  * @param[in]  *pSrcA points to the first input vector
  44:Source\ComplexMathFunctions/arm_cmplx_mult_cmplx_q31.c ****  * @param[in]  *pSrcB points to the second input vector
  45:Source\ComplexMathFunctions/arm_cmplx_mult_cmplx_q31.c ****  * @param[out]  *pDst  points to the output vector
  46:Source\ComplexMathFunctions/arm_cmplx_mult_cmplx_q31.c ****  * @param[in]  numSamples number of complex samples in each vector
  47:Source\ComplexMathFunctions/arm_cmplx_mult_cmplx_q31.c ****  * @return none.
  48:Source\ComplexMathFunctions/arm_cmplx_mult_cmplx_q31.c ****  *
  49:Source\ComplexMathFunctions/arm_cmplx_mult_cmplx_q31.c ****  * <b>Scaling and Overflow Behavior:</b>
  50:Source\ComplexMathFunctions/arm_cmplx_mult_cmplx_q31.c ****  * \par
  51:Source\ComplexMathFunctions/arm_cmplx_mult_cmplx_q31.c ****  * The function implements 1.31 by 1.31 multiplications and finally output is converted into 3.29 f
  52:Source\ComplexMathFunctions/arm_cmplx_mult_cmplx_q31.c ****  * Input down scaling is not required.
  53:Source\ComplexMathFunctions/arm_cmplx_mult_cmplx_q31.c ****  */
  54:Source\ComplexMathFunctions/arm_cmplx_mult_cmplx_q31.c **** 
  55:Source\ComplexMathFunctions/arm_cmplx_mult_cmplx_q31.c **** void arm_cmplx_mult_cmplx_q31(
  56:Source\ComplexMathFunctions/arm_cmplx_mult_cmplx_q31.c ****   q31_t * pSrcA,
  57:Source\ComplexMathFunctions/arm_cmplx_mult_cmplx_q31.c ****   q31_t * pSrcB,
  58:Source\ComplexMathFunctions/arm_cmplx_mult_cmplx_q31.c ****   q31_t * pDst,
  59:Source\ComplexMathFunctions/arm_cmplx_mult_cmplx_q31.c ****   uint32_t numSamples)
  60:Source\ComplexMathFunctions/arm_cmplx_mult_cmplx_q31.c **** {
  27              		.loc 1 60 0
  28              		.cfi_startproc
  29 0000 F0B5     		push	{r4, r5, r6, r7, lr}
  30              		.cfi_def_cfa_offset 20
  31              		.cfi_offset 4, -20
  32              		.cfi_offset 5, -16
  33              		.cfi_offset 6, -12
  34              		.cfi_offset 7, -8
  35              		.cfi_offset 14, -4
  36 0002 D7B0     		sub	sp, sp, #348
  37              		.cfi_def_cfa_offset 368
  38 0004 00AF     		add	r7, sp, #0
  39              		.cfi_def_cfa_register 7
  40 0006 9224     		mov	r4, #146
  41 0008 6400     		lsl	r4, r4, #1
  42 000a 3C19     		add	r4, r7, r4
  43 000c 2060     		str	r0, [r4]
  44 000e 9020     		mov	r0, #144
  45 0010 4000     		lsl	r0, r0, #1
  46 0012 3818     		add	r0, r7, r0
  47 0014 0160     		str	r1, [r0]
  48 0016 8E21     		mov	r1, #142
  49 0018 4900     		lsl	r1, r1, #1
  50 001a 7918     		add	r1, r7, r1
  51 001c 0A60     		str	r2, [r1]
  52 001e 8C22     		mov	r2, #140
  53 0020 5200     		lsl	r2, r2, #1
  54 0022 BA18     		add	r2, r7, r2
ARM GAS  C:\Users\fneves\AppData\Local\Temp\ccVfSQQU.s 			page 3


  55 0024 1360     		str	r3, [r2]
  61:Source\ComplexMathFunctions/arm_cmplx_mult_cmplx_q31.c ****   q31_t a, b, c, d;                              /* Temporary variables to store real and imaginary
  62:Source\ComplexMathFunctions/arm_cmplx_mult_cmplx_q31.c ****   uint32_t blkCnt;                               /* loop counters */
  63:Source\ComplexMathFunctions/arm_cmplx_mult_cmplx_q31.c ****   q31_t mul1, mul2, mul3, mul4;
  64:Source\ComplexMathFunctions/arm_cmplx_mult_cmplx_q31.c ****   q31_t out1, out2;
  65:Source\ComplexMathFunctions/arm_cmplx_mult_cmplx_q31.c **** 
  66:Source\ComplexMathFunctions/arm_cmplx_mult_cmplx_q31.c **** #if defined (ARM_MATH_DSP)
  67:Source\ComplexMathFunctions/arm_cmplx_mult_cmplx_q31.c **** 
  68:Source\ComplexMathFunctions/arm_cmplx_mult_cmplx_q31.c ****   /* Run the below code for Cortex-M4 and Cortex-M3 */
  69:Source\ComplexMathFunctions/arm_cmplx_mult_cmplx_q31.c **** 
  70:Source\ComplexMathFunctions/arm_cmplx_mult_cmplx_q31.c ****   /* loop Unrolling */
  71:Source\ComplexMathFunctions/arm_cmplx_mult_cmplx_q31.c ****   blkCnt = numSamples >> 2u;
  72:Source\ComplexMathFunctions/arm_cmplx_mult_cmplx_q31.c **** 
  73:Source\ComplexMathFunctions/arm_cmplx_mult_cmplx_q31.c ****   /* First part of the processing with loop unrolling.  Compute 4 outputs at a time.
  74:Source\ComplexMathFunctions/arm_cmplx_mult_cmplx_q31.c ****    ** a second loop below computes the remaining 1 to 3 samples. */
  75:Source\ComplexMathFunctions/arm_cmplx_mult_cmplx_q31.c ****   while (blkCnt > 0u)
  76:Source\ComplexMathFunctions/arm_cmplx_mult_cmplx_q31.c ****   {
  77:Source\ComplexMathFunctions/arm_cmplx_mult_cmplx_q31.c ****     /* C[2 * i] = A[2 * i] * B[2 * i] - A[2 * i + 1] * B[2 * i + 1].  */
  78:Source\ComplexMathFunctions/arm_cmplx_mult_cmplx_q31.c ****     /* C[2 * i + 1] = A[2 * i] * B[2 * i + 1] + A[2 * i + 1] * B[2 * i].  */
  79:Source\ComplexMathFunctions/arm_cmplx_mult_cmplx_q31.c ****     a = *pSrcA++;
  80:Source\ComplexMathFunctions/arm_cmplx_mult_cmplx_q31.c ****     b = *pSrcA++;
  81:Source\ComplexMathFunctions/arm_cmplx_mult_cmplx_q31.c ****     c = *pSrcB++;
  82:Source\ComplexMathFunctions/arm_cmplx_mult_cmplx_q31.c ****     d = *pSrcB++;
  83:Source\ComplexMathFunctions/arm_cmplx_mult_cmplx_q31.c **** 
  84:Source\ComplexMathFunctions/arm_cmplx_mult_cmplx_q31.c ****     mul1 = (q31_t) (((q63_t) a * c) >> 32);
  85:Source\ComplexMathFunctions/arm_cmplx_mult_cmplx_q31.c ****     mul2 = (q31_t) (((q63_t) b * d) >> 32);
  86:Source\ComplexMathFunctions/arm_cmplx_mult_cmplx_q31.c ****     mul3 = (q31_t) (((q63_t) a * d) >> 32);
  87:Source\ComplexMathFunctions/arm_cmplx_mult_cmplx_q31.c ****     mul4 = (q31_t) (((q63_t) b * c) >> 32);
  88:Source\ComplexMathFunctions/arm_cmplx_mult_cmplx_q31.c **** 
  89:Source\ComplexMathFunctions/arm_cmplx_mult_cmplx_q31.c ****     mul1 = (mul1 >> 1);
  90:Source\ComplexMathFunctions/arm_cmplx_mult_cmplx_q31.c ****     mul2 = (mul2 >> 1);
  91:Source\ComplexMathFunctions/arm_cmplx_mult_cmplx_q31.c ****     mul3 = (mul3 >> 1);
  92:Source\ComplexMathFunctions/arm_cmplx_mult_cmplx_q31.c ****     mul4 = (mul4 >> 1);
  93:Source\ComplexMathFunctions/arm_cmplx_mult_cmplx_q31.c **** 
  94:Source\ComplexMathFunctions/arm_cmplx_mult_cmplx_q31.c ****     out1 = mul1 - mul2;
  95:Source\ComplexMathFunctions/arm_cmplx_mult_cmplx_q31.c ****     out2 = mul3 + mul4;
  96:Source\ComplexMathFunctions/arm_cmplx_mult_cmplx_q31.c **** 
  97:Source\ComplexMathFunctions/arm_cmplx_mult_cmplx_q31.c ****     /* store the real result in 3.29 format in the destination buffer. */
  98:Source\ComplexMathFunctions/arm_cmplx_mult_cmplx_q31.c ****     *pDst++ = out1;
  99:Source\ComplexMathFunctions/arm_cmplx_mult_cmplx_q31.c ****     /* store the imag result in 3.29 format in the destination buffer. */
 100:Source\ComplexMathFunctions/arm_cmplx_mult_cmplx_q31.c ****     *pDst++ = out2;
 101:Source\ComplexMathFunctions/arm_cmplx_mult_cmplx_q31.c **** 
 102:Source\ComplexMathFunctions/arm_cmplx_mult_cmplx_q31.c ****     a = *pSrcA++;
 103:Source\ComplexMathFunctions/arm_cmplx_mult_cmplx_q31.c ****     b = *pSrcA++;
 104:Source\ComplexMathFunctions/arm_cmplx_mult_cmplx_q31.c ****     c = *pSrcB++;
 105:Source\ComplexMathFunctions/arm_cmplx_mult_cmplx_q31.c ****     d = *pSrcB++;
 106:Source\ComplexMathFunctions/arm_cmplx_mult_cmplx_q31.c **** 
 107:Source\ComplexMathFunctions/arm_cmplx_mult_cmplx_q31.c ****     mul1 = (q31_t) (((q63_t) a * c) >> 32);
 108:Source\ComplexMathFunctions/arm_cmplx_mult_cmplx_q31.c ****     mul2 = (q31_t) (((q63_t) b * d) >> 32);
 109:Source\ComplexMathFunctions/arm_cmplx_mult_cmplx_q31.c ****     mul3 = (q31_t) (((q63_t) a * d) >> 32);
 110:Source\ComplexMathFunctions/arm_cmplx_mult_cmplx_q31.c ****     mul4 = (q31_t) (((q63_t) b * c) >> 32);
 111:Source\ComplexMathFunctions/arm_cmplx_mult_cmplx_q31.c **** 
 112:Source\ComplexMathFunctions/arm_cmplx_mult_cmplx_q31.c ****     mul1 = (mul1 >> 1);
 113:Source\ComplexMathFunctions/arm_cmplx_mult_cmplx_q31.c ****     mul2 = (mul2 >> 1);
 114:Source\ComplexMathFunctions/arm_cmplx_mult_cmplx_q31.c ****     mul3 = (mul3 >> 1);
 115:Source\ComplexMathFunctions/arm_cmplx_mult_cmplx_q31.c ****     mul4 = (mul4 >> 1);
 116:Source\ComplexMathFunctions/arm_cmplx_mult_cmplx_q31.c **** 
ARM GAS  C:\Users\fneves\AppData\Local\Temp\ccVfSQQU.s 			page 4


 117:Source\ComplexMathFunctions/arm_cmplx_mult_cmplx_q31.c ****     out1 = mul1 - mul2;
 118:Source\ComplexMathFunctions/arm_cmplx_mult_cmplx_q31.c ****     out2 = mul3 + mul4;
 119:Source\ComplexMathFunctions/arm_cmplx_mult_cmplx_q31.c **** 
 120:Source\ComplexMathFunctions/arm_cmplx_mult_cmplx_q31.c ****     /* store the real result in 3.29 format in the destination buffer. */
 121:Source\ComplexMathFunctions/arm_cmplx_mult_cmplx_q31.c ****     *pDst++ = out1;
 122:Source\ComplexMathFunctions/arm_cmplx_mult_cmplx_q31.c ****     /* store the imag result in 3.29 format in the destination buffer. */
 123:Source\ComplexMathFunctions/arm_cmplx_mult_cmplx_q31.c ****     *pDst++ = out2;
 124:Source\ComplexMathFunctions/arm_cmplx_mult_cmplx_q31.c **** 
 125:Source\ComplexMathFunctions/arm_cmplx_mult_cmplx_q31.c ****     a = *pSrcA++;
 126:Source\ComplexMathFunctions/arm_cmplx_mult_cmplx_q31.c ****     b = *pSrcA++;
 127:Source\ComplexMathFunctions/arm_cmplx_mult_cmplx_q31.c ****     c = *pSrcB++;
 128:Source\ComplexMathFunctions/arm_cmplx_mult_cmplx_q31.c ****     d = *pSrcB++;
 129:Source\ComplexMathFunctions/arm_cmplx_mult_cmplx_q31.c **** 
 130:Source\ComplexMathFunctions/arm_cmplx_mult_cmplx_q31.c ****     mul1 = (q31_t) (((q63_t) a * c) >> 32);
 131:Source\ComplexMathFunctions/arm_cmplx_mult_cmplx_q31.c ****     mul2 = (q31_t) (((q63_t) b * d) >> 32);
 132:Source\ComplexMathFunctions/arm_cmplx_mult_cmplx_q31.c ****     mul3 = (q31_t) (((q63_t) a * d) >> 32);
 133:Source\ComplexMathFunctions/arm_cmplx_mult_cmplx_q31.c ****     mul4 = (q31_t) (((q63_t) b * c) >> 32);
 134:Source\ComplexMathFunctions/arm_cmplx_mult_cmplx_q31.c **** 
 135:Source\ComplexMathFunctions/arm_cmplx_mult_cmplx_q31.c ****     mul1 = (mul1 >> 1);
 136:Source\ComplexMathFunctions/arm_cmplx_mult_cmplx_q31.c ****     mul2 = (mul2 >> 1);
 137:Source\ComplexMathFunctions/arm_cmplx_mult_cmplx_q31.c ****     mul3 = (mul3 >> 1);
 138:Source\ComplexMathFunctions/arm_cmplx_mult_cmplx_q31.c ****     mul4 = (mul4 >> 1);
 139:Source\ComplexMathFunctions/arm_cmplx_mult_cmplx_q31.c **** 
 140:Source\ComplexMathFunctions/arm_cmplx_mult_cmplx_q31.c ****     out1 = mul1 - mul2;
 141:Source\ComplexMathFunctions/arm_cmplx_mult_cmplx_q31.c ****     out2 = mul3 + mul4;
 142:Source\ComplexMathFunctions/arm_cmplx_mult_cmplx_q31.c **** 
 143:Source\ComplexMathFunctions/arm_cmplx_mult_cmplx_q31.c ****     /* store the real result in 3.29 format in the destination buffer. */
 144:Source\ComplexMathFunctions/arm_cmplx_mult_cmplx_q31.c ****     *pDst++ = out1;
 145:Source\ComplexMathFunctions/arm_cmplx_mult_cmplx_q31.c ****     /* store the imag result in 3.29 format in the destination buffer. */
 146:Source\ComplexMathFunctions/arm_cmplx_mult_cmplx_q31.c ****     *pDst++ = out2;
 147:Source\ComplexMathFunctions/arm_cmplx_mult_cmplx_q31.c **** 
 148:Source\ComplexMathFunctions/arm_cmplx_mult_cmplx_q31.c ****     a = *pSrcA++;
 149:Source\ComplexMathFunctions/arm_cmplx_mult_cmplx_q31.c ****     b = *pSrcA++;
 150:Source\ComplexMathFunctions/arm_cmplx_mult_cmplx_q31.c ****     c = *pSrcB++;
 151:Source\ComplexMathFunctions/arm_cmplx_mult_cmplx_q31.c ****     d = *pSrcB++;
 152:Source\ComplexMathFunctions/arm_cmplx_mult_cmplx_q31.c **** 
 153:Source\ComplexMathFunctions/arm_cmplx_mult_cmplx_q31.c ****     mul1 = (q31_t) (((q63_t) a * c) >> 32);
 154:Source\ComplexMathFunctions/arm_cmplx_mult_cmplx_q31.c ****     mul2 = (q31_t) (((q63_t) b * d) >> 32);
 155:Source\ComplexMathFunctions/arm_cmplx_mult_cmplx_q31.c ****     mul3 = (q31_t) (((q63_t) a * d) >> 32);
 156:Source\ComplexMathFunctions/arm_cmplx_mult_cmplx_q31.c ****     mul4 = (q31_t) (((q63_t) b * c) >> 32);
 157:Source\ComplexMathFunctions/arm_cmplx_mult_cmplx_q31.c **** 
 158:Source\ComplexMathFunctions/arm_cmplx_mult_cmplx_q31.c ****     mul1 = (mul1 >> 1);
 159:Source\ComplexMathFunctions/arm_cmplx_mult_cmplx_q31.c ****     mul2 = (mul2 >> 1);
 160:Source\ComplexMathFunctions/arm_cmplx_mult_cmplx_q31.c ****     mul3 = (mul3 >> 1);
 161:Source\ComplexMathFunctions/arm_cmplx_mult_cmplx_q31.c ****     mul4 = (mul4 >> 1);
 162:Source\ComplexMathFunctions/arm_cmplx_mult_cmplx_q31.c **** 
 163:Source\ComplexMathFunctions/arm_cmplx_mult_cmplx_q31.c ****     out1 = mul1 - mul2;
 164:Source\ComplexMathFunctions/arm_cmplx_mult_cmplx_q31.c ****     out2 = mul3 + mul4;
 165:Source\ComplexMathFunctions/arm_cmplx_mult_cmplx_q31.c **** 
 166:Source\ComplexMathFunctions/arm_cmplx_mult_cmplx_q31.c ****     /* store the real result in 3.29 format in the destination buffer. */
 167:Source\ComplexMathFunctions/arm_cmplx_mult_cmplx_q31.c ****     *pDst++ = out1;
 168:Source\ComplexMathFunctions/arm_cmplx_mult_cmplx_q31.c ****     /* store the imag result in 3.29 format in the destination buffer. */
 169:Source\ComplexMathFunctions/arm_cmplx_mult_cmplx_q31.c ****     *pDst++ = out2;
 170:Source\ComplexMathFunctions/arm_cmplx_mult_cmplx_q31.c **** 
 171:Source\ComplexMathFunctions/arm_cmplx_mult_cmplx_q31.c ****     /* Decrement the blockSize loop counter */
 172:Source\ComplexMathFunctions/arm_cmplx_mult_cmplx_q31.c ****     blkCnt--;
 173:Source\ComplexMathFunctions/arm_cmplx_mult_cmplx_q31.c ****   }
ARM GAS  C:\Users\fneves\AppData\Local\Temp\ccVfSQQU.s 			page 5


 174:Source\ComplexMathFunctions/arm_cmplx_mult_cmplx_q31.c **** 
 175:Source\ComplexMathFunctions/arm_cmplx_mult_cmplx_q31.c ****   /* If the blockSize is not a multiple of 4, compute any remaining output samples here.
 176:Source\ComplexMathFunctions/arm_cmplx_mult_cmplx_q31.c ****    ** No loop unrolling is used. */
 177:Source\ComplexMathFunctions/arm_cmplx_mult_cmplx_q31.c ****   blkCnt = numSamples % 0x4u;
 178:Source\ComplexMathFunctions/arm_cmplx_mult_cmplx_q31.c **** 
 179:Source\ComplexMathFunctions/arm_cmplx_mult_cmplx_q31.c ****   while (blkCnt > 0u)
 180:Source\ComplexMathFunctions/arm_cmplx_mult_cmplx_q31.c ****   {
 181:Source\ComplexMathFunctions/arm_cmplx_mult_cmplx_q31.c ****     /* C[2 * i] = A[2 * i] * B[2 * i] - A[2 * i + 1] * B[2 * i + 1].  */
 182:Source\ComplexMathFunctions/arm_cmplx_mult_cmplx_q31.c ****     /* C[2 * i + 1] = A[2 * i] * B[2 * i + 1] + A[2 * i + 1] * B[2 * i].  */
 183:Source\ComplexMathFunctions/arm_cmplx_mult_cmplx_q31.c ****     a = *pSrcA++;
 184:Source\ComplexMathFunctions/arm_cmplx_mult_cmplx_q31.c ****     b = *pSrcA++;
 185:Source\ComplexMathFunctions/arm_cmplx_mult_cmplx_q31.c ****     c = *pSrcB++;
 186:Source\ComplexMathFunctions/arm_cmplx_mult_cmplx_q31.c ****     d = *pSrcB++;
 187:Source\ComplexMathFunctions/arm_cmplx_mult_cmplx_q31.c **** 
 188:Source\ComplexMathFunctions/arm_cmplx_mult_cmplx_q31.c ****     mul1 = (q31_t) (((q63_t) a * c) >> 32);
 189:Source\ComplexMathFunctions/arm_cmplx_mult_cmplx_q31.c ****     mul2 = (q31_t) (((q63_t) b * d) >> 32);
 190:Source\ComplexMathFunctions/arm_cmplx_mult_cmplx_q31.c ****     mul3 = (q31_t) (((q63_t) a * d) >> 32);
 191:Source\ComplexMathFunctions/arm_cmplx_mult_cmplx_q31.c ****     mul4 = (q31_t) (((q63_t) b * c) >> 32);
 192:Source\ComplexMathFunctions/arm_cmplx_mult_cmplx_q31.c **** 
 193:Source\ComplexMathFunctions/arm_cmplx_mult_cmplx_q31.c ****     mul1 = (mul1 >> 1);
 194:Source\ComplexMathFunctions/arm_cmplx_mult_cmplx_q31.c ****     mul2 = (mul2 >> 1);
 195:Source\ComplexMathFunctions/arm_cmplx_mult_cmplx_q31.c ****     mul3 = (mul3 >> 1);
 196:Source\ComplexMathFunctions/arm_cmplx_mult_cmplx_q31.c ****     mul4 = (mul4 >> 1);
 197:Source\ComplexMathFunctions/arm_cmplx_mult_cmplx_q31.c **** 
 198:Source\ComplexMathFunctions/arm_cmplx_mult_cmplx_q31.c ****     out1 = mul1 - mul2;
 199:Source\ComplexMathFunctions/arm_cmplx_mult_cmplx_q31.c ****     out2 = mul3 + mul4;
 200:Source\ComplexMathFunctions/arm_cmplx_mult_cmplx_q31.c **** 
 201:Source\ComplexMathFunctions/arm_cmplx_mult_cmplx_q31.c ****     /* store the real result in 3.29 format in the destination buffer. */
 202:Source\ComplexMathFunctions/arm_cmplx_mult_cmplx_q31.c ****     *pDst++ = out1;
 203:Source\ComplexMathFunctions/arm_cmplx_mult_cmplx_q31.c ****     /* store the imag result in 3.29 format in the destination buffer. */
 204:Source\ComplexMathFunctions/arm_cmplx_mult_cmplx_q31.c ****     *pDst++ = out2;
 205:Source\ComplexMathFunctions/arm_cmplx_mult_cmplx_q31.c **** 
 206:Source\ComplexMathFunctions/arm_cmplx_mult_cmplx_q31.c ****     /* Decrement the blockSize loop counter */
 207:Source\ComplexMathFunctions/arm_cmplx_mult_cmplx_q31.c ****     blkCnt--;
 208:Source\ComplexMathFunctions/arm_cmplx_mult_cmplx_q31.c ****   }
 209:Source\ComplexMathFunctions/arm_cmplx_mult_cmplx_q31.c **** 
 210:Source\ComplexMathFunctions/arm_cmplx_mult_cmplx_q31.c **** #else
 211:Source\ComplexMathFunctions/arm_cmplx_mult_cmplx_q31.c **** 
 212:Source\ComplexMathFunctions/arm_cmplx_mult_cmplx_q31.c ****   /* Run the below code for Cortex-M0 */
 213:Source\ComplexMathFunctions/arm_cmplx_mult_cmplx_q31.c **** 
 214:Source\ComplexMathFunctions/arm_cmplx_mult_cmplx_q31.c ****   /* loop Unrolling */
 215:Source\ComplexMathFunctions/arm_cmplx_mult_cmplx_q31.c ****   blkCnt = numSamples >> 1u;
  56              		.loc 1 215 0
  57 0026 8C23     		mov	r3, #140
  58 0028 5B00     		lsl	r3, r3, #1
  59 002a FB18     		add	r3, r7, r3
  60 002c 1B68     		ldr	r3, [r3]
  61 002e 5B08     		lsr	r3, r3, #1
  62 0030 AA22     		mov	r2, #170
  63 0032 5200     		lsl	r2, r2, #1
  64 0034 BA18     		add	r2, r7, r2
  65 0036 1360     		str	r3, [r2]
 216:Source\ComplexMathFunctions/arm_cmplx_mult_cmplx_q31.c **** 
 217:Source\ComplexMathFunctions/arm_cmplx_mult_cmplx_q31.c ****   /* First part of the processing with loop unrolling.  Compute 2 outputs at a time.
 218:Source\ComplexMathFunctions/arm_cmplx_mult_cmplx_q31.c ****    ** a second loop below computes the remaining 1 sample. */
 219:Source\ComplexMathFunctions/arm_cmplx_mult_cmplx_q31.c ****   while (blkCnt > 0u)
  66              		.loc 1 219 0
ARM GAS  C:\Users\fneves\AppData\Local\Temp\ccVfSQQU.s 			page 6


  67 0038 9AE2     		b	.L2
  68              	.L3:
 220:Source\ComplexMathFunctions/arm_cmplx_mult_cmplx_q31.c ****   {
 221:Source\ComplexMathFunctions/arm_cmplx_mult_cmplx_q31.c ****     /* C[2 * i] = A[2 * i] * B[2 * i] - A[2 * i + 1] * B[2 * i + 1].  */
 222:Source\ComplexMathFunctions/arm_cmplx_mult_cmplx_q31.c ****     /* C[2 * i + 1] = A[2 * i] * B[2 * i + 1] + A[2 * i + 1] * B[2 * i].  */
 223:Source\ComplexMathFunctions/arm_cmplx_mult_cmplx_q31.c ****     a = *pSrcA++;
  69              		.loc 1 223 0
  70 003a 9223     		mov	r3, #146
  71 003c 5B00     		lsl	r3, r3, #1
  72 003e FB18     		add	r3, r7, r3
  73 0040 1A68     		ldr	r2, [r3]
  74 0042 131D     		add	r3, r2, #4
  75 0044 9221     		mov	r1, #146
  76 0046 4900     		lsl	r1, r1, #1
  77 0048 7918     		add	r1, r7, r1
  78 004a 0B60     		str	r3, [r1]
  79 004c 1368     		ldr	r3, [r2]
  80 004e A822     		mov	r2, #168
  81 0050 5200     		lsl	r2, r2, #1
  82 0052 BA18     		add	r2, r7, r2
  83 0054 1360     		str	r3, [r2]
 224:Source\ComplexMathFunctions/arm_cmplx_mult_cmplx_q31.c ****     b = *pSrcA++;
  84              		.loc 1 224 0
  85 0056 9223     		mov	r3, #146
  86 0058 5B00     		lsl	r3, r3, #1
  87 005a FB18     		add	r3, r7, r3
  88 005c 1A68     		ldr	r2, [r3]
  89 005e 131D     		add	r3, r2, #4
  90 0060 9221     		mov	r1, #146
  91 0062 4900     		lsl	r1, r1, #1
  92 0064 7918     		add	r1, r7, r1
  93 0066 0B60     		str	r3, [r1]
  94 0068 1368     		ldr	r3, [r2]
  95 006a A622     		mov	r2, #166
  96 006c 5200     		lsl	r2, r2, #1
  97 006e BA18     		add	r2, r7, r2
  98 0070 1360     		str	r3, [r2]
 225:Source\ComplexMathFunctions/arm_cmplx_mult_cmplx_q31.c ****     c = *pSrcB++;
  99              		.loc 1 225 0
 100 0072 9023     		mov	r3, #144
 101 0074 5B00     		lsl	r3, r3, #1
 102 0076 FB18     		add	r3, r7, r3
 103 0078 1A68     		ldr	r2, [r3]
 104 007a 131D     		add	r3, r2, #4
 105 007c 9021     		mov	r1, #144
 106 007e 4900     		lsl	r1, r1, #1
 107 0080 7918     		add	r1, r7, r1
 108 0082 0B60     		str	r3, [r1]
 109 0084 1368     		ldr	r3, [r2]
 110 0086 A422     		mov	r2, #164
 111 0088 5200     		lsl	r2, r2, #1
 112 008a BA18     		add	r2, r7, r2
 113 008c 1360     		str	r3, [r2]
 226:Source\ComplexMathFunctions/arm_cmplx_mult_cmplx_q31.c ****     d = *pSrcB++;
 114              		.loc 1 226 0
 115 008e 9023     		mov	r3, #144
 116 0090 5B00     		lsl	r3, r3, #1
ARM GAS  C:\Users\fneves\AppData\Local\Temp\ccVfSQQU.s 			page 7


 117 0092 FB18     		add	r3, r7, r3
 118 0094 1A68     		ldr	r2, [r3]
 119 0096 131D     		add	r3, r2, #4
 120 0098 9021     		mov	r1, #144
 121 009a 4900     		lsl	r1, r1, #1
 122 009c 7918     		add	r1, r7, r1
 123 009e 0B60     		str	r3, [r1]
 124 00a0 1368     		ldr	r3, [r2]
 125 00a2 A222     		mov	r2, #162
 126 00a4 5200     		lsl	r2, r2, #1
 127 00a6 BA18     		add	r2, r7, r2
 128 00a8 1360     		str	r3, [r2]
 227:Source\ComplexMathFunctions/arm_cmplx_mult_cmplx_q31.c **** 
 228:Source\ComplexMathFunctions/arm_cmplx_mult_cmplx_q31.c ****     mul1 = (q31_t) (((q63_t) a * c) >> 32);
 129              		.loc 1 228 0
 130 00aa A823     		mov	r3, #168
 131 00ac 5B00     		lsl	r3, r3, #1
 132 00ae FB18     		add	r3, r7, r3
 133 00b0 1B68     		ldr	r3, [r3]
 134 00b2 8822     		mov	r2, #136
 135 00b4 5200     		lsl	r2, r2, #1
 136 00b6 BA18     		add	r2, r7, r2
 137 00b8 1360     		str	r3, [r2]
 138 00ba DB17     		asr	r3, r3, #31
 139 00bc 8A22     		mov	r2, #138
 140 00be 5200     		lsl	r2, r2, #1
 141 00c0 BA18     		add	r2, r7, r2
 142 00c2 1360     		str	r3, [r2]
 143 00c4 A423     		mov	r3, #164
 144 00c6 5B00     		lsl	r3, r3, #1
 145 00c8 FB18     		add	r3, r7, r3
 146 00ca 1B68     		ldr	r3, [r3]
 147 00cc 8422     		mov	r2, #132
 148 00ce 5200     		lsl	r2, r2, #1
 149 00d0 BA18     		add	r2, r7, r2
 150 00d2 1360     		str	r3, [r2]
 151 00d4 DB17     		asr	r3, r3, #31
 152 00d6 8622     		mov	r2, #134
 153 00d8 5200     		lsl	r2, r2, #1
 154 00da BA18     		add	r2, r7, r2
 155 00dc 1360     		str	r3, [r2]
 156 00de 8823     		mov	r3, #136
 157 00e0 5B00     		lsl	r3, r3, #1
 158 00e2 FB18     		add	r3, r7, r3
 159 00e4 1868     		ldr	r0, [r3]
 160 00e6 5968     		ldr	r1, [r3, #4]
 161 00e8 8423     		mov	r3, #132
 162 00ea 5B00     		lsl	r3, r3, #1
 163 00ec FB18     		add	r3, r7, r3
 164 00ee 1A68     		ldr	r2, [r3]
 165 00f0 5B68     		ldr	r3, [r3, #4]
 166 00f2 FFF7FEFF 		bl	__aeabi_lmul
 167 00f6 031C     		mov	r3, r0
 168 00f8 0C1C     		mov	r4, r1
 169 00fa 2200     		asr	r2, r4, #0
 170 00fc 791C     		add	r1, r7, #1
 171 00fe FF31     		add	r1, r1, #255
ARM GAS  C:\Users\fneves\AppData\Local\Temp\ccVfSQQU.s 			page 8


 172 0100 0A60     		str	r2, [r1]
 173 0102 E317     		asr	r3, r4, #31
 174 0104 7A1D     		add	r2, r7, #5
 175 0106 FF32     		add	r2, r2, #255
 176 0108 1360     		str	r3, [r2]
 177 010a 7B1C     		add	r3, r7, #1
 178 010c FF33     		add	r3, r3, #255
 179 010e 1B68     		ldr	r3, [r3]
 180 0110 A022     		mov	r2, #160
 181 0112 5200     		lsl	r2, r2, #1
 182 0114 BA18     		add	r2, r7, r2
 183 0116 1360     		str	r3, [r2]
 229:Source\ComplexMathFunctions/arm_cmplx_mult_cmplx_q31.c ****     mul2 = (q31_t) (((q63_t) b * d) >> 32);
 184              		.loc 1 229 0
 185 0118 A623     		mov	r3, #166
 186 011a 5B00     		lsl	r3, r3, #1
 187 011c FB18     		add	r3, r7, r3
 188 011e 1B68     		ldr	r3, [r3]
 189 0120 F822     		mov	r2, #248
 190 0122 BA18     		add	r2, r7, r2
 191 0124 1360     		str	r3, [r2]
 192 0126 DB17     		asr	r3, r3, #31
 193 0128 FC22     		mov	r2, #252
 194 012a BA18     		add	r2, r7, r2
 195 012c 1360     		str	r3, [r2]
 196 012e A223     		mov	r3, #162
 197 0130 5B00     		lsl	r3, r3, #1
 198 0132 FB18     		add	r3, r7, r3
 199 0134 1B68     		ldr	r3, [r3]
 200 0136 F022     		mov	r2, #240
 201 0138 BA18     		add	r2, r7, r2
 202 013a 1360     		str	r3, [r2]
 203 013c DB17     		asr	r3, r3, #31
 204 013e F422     		mov	r2, #244
 205 0140 BA18     		add	r2, r7, r2
 206 0142 1360     		str	r3, [r2]
 207 0144 F823     		mov	r3, #248
 208 0146 FB18     		add	r3, r7, r3
 209 0148 1868     		ldr	r0, [r3]
 210 014a 5968     		ldr	r1, [r3, #4]
 211 014c F023     		mov	r3, #240
 212 014e FB18     		add	r3, r7, r3
 213 0150 1A68     		ldr	r2, [r3]
 214 0152 5B68     		ldr	r3, [r3, #4]
 215 0154 FFF7FEFF 		bl	__aeabi_lmul
 216 0158 031C     		mov	r3, r0
 217 015a 0C1C     		mov	r4, r1
 218 015c 2200     		asr	r2, r4, #0
 219 015e E821     		mov	r1, #232
 220 0160 7918     		add	r1, r7, r1
 221 0162 0A60     		str	r2, [r1]
 222 0164 E317     		asr	r3, r4, #31
 223 0166 EC22     		mov	r2, #236
 224 0168 BA18     		add	r2, r7, r2
 225 016a 1360     		str	r3, [r2]
 226 016c E823     		mov	r3, #232
 227 016e FB18     		add	r3, r7, r3
ARM GAS  C:\Users\fneves\AppData\Local\Temp\ccVfSQQU.s 			page 9


 228 0170 1B68     		ldr	r3, [r3]
 229 0172 9E22     		mov	r2, #158
 230 0174 5200     		lsl	r2, r2, #1
 231 0176 BA18     		add	r2, r7, r2
 232 0178 1360     		str	r3, [r2]
 230:Source\ComplexMathFunctions/arm_cmplx_mult_cmplx_q31.c ****     mul3 = (q31_t) (((q63_t) a * d) >> 32);
 233              		.loc 1 230 0
 234 017a A823     		mov	r3, #168
 235 017c 5B00     		lsl	r3, r3, #1
 236 017e FB18     		add	r3, r7, r3
 237 0180 1B68     		ldr	r3, [r3]
 238 0182 E022     		mov	r2, #224
 239 0184 BA18     		add	r2, r7, r2
 240 0186 1360     		str	r3, [r2]
 241 0188 DB17     		asr	r3, r3, #31
 242 018a E422     		mov	r2, #228
 243 018c BA18     		add	r2, r7, r2
 244 018e 1360     		str	r3, [r2]
 245 0190 A223     		mov	r3, #162
 246 0192 5B00     		lsl	r3, r3, #1
 247 0194 FB18     		add	r3, r7, r3
 248 0196 1B68     		ldr	r3, [r3]
 249 0198 D822     		mov	r2, #216
 250 019a BA18     		add	r2, r7, r2
 251 019c 1360     		str	r3, [r2]
 252 019e DB17     		asr	r3, r3, #31
 253 01a0 DC22     		mov	r2, #220
 254 01a2 BA18     		add	r2, r7, r2
 255 01a4 1360     		str	r3, [r2]
 256 01a6 E023     		mov	r3, #224
 257 01a8 FB18     		add	r3, r7, r3
 258 01aa 1868     		ldr	r0, [r3]
 259 01ac 5968     		ldr	r1, [r3, #4]
 260 01ae D823     		mov	r3, #216
 261 01b0 FB18     		add	r3, r7, r3
 262 01b2 1A68     		ldr	r2, [r3]
 263 01b4 5B68     		ldr	r3, [r3, #4]
 264 01b6 FFF7FEFF 		bl	__aeabi_lmul
 265 01ba 031C     		mov	r3, r0
 266 01bc 0C1C     		mov	r4, r1
 267 01be 2200     		asr	r2, r4, #0
 268 01c0 D021     		mov	r1, #208
 269 01c2 7918     		add	r1, r7, r1
 270 01c4 0A60     		str	r2, [r1]
 271 01c6 E317     		asr	r3, r4, #31
 272 01c8 D422     		mov	r2, #212
 273 01ca BA18     		add	r2, r7, r2
 274 01cc 1360     		str	r3, [r2]
 275 01ce D023     		mov	r3, #208
 276 01d0 FB18     		add	r3, r7, r3
 277 01d2 1B68     		ldr	r3, [r3]
 278 01d4 9C22     		mov	r2, #156
 279 01d6 5200     		lsl	r2, r2, #1
 280 01d8 BA18     		add	r2, r7, r2
 281 01da 1360     		str	r3, [r2]
 231:Source\ComplexMathFunctions/arm_cmplx_mult_cmplx_q31.c ****     mul4 = (q31_t) (((q63_t) b * c) >> 32);
 282              		.loc 1 231 0
ARM GAS  C:\Users\fneves\AppData\Local\Temp\ccVfSQQU.s 			page 10


 283 01dc A623     		mov	r3, #166
 284 01de 5B00     		lsl	r3, r3, #1
 285 01e0 FB18     		add	r3, r7, r3
 286 01e2 1B68     		ldr	r3, [r3]
 287 01e4 C822     		mov	r2, #200
 288 01e6 BA18     		add	r2, r7, r2
 289 01e8 1360     		str	r3, [r2]
 290 01ea DB17     		asr	r3, r3, #31
 291 01ec CC22     		mov	r2, #204
 292 01ee BA18     		add	r2, r7, r2
 293 01f0 1360     		str	r3, [r2]
 294 01f2 A423     		mov	r3, #164
 295 01f4 5B00     		lsl	r3, r3, #1
 296 01f6 FB18     		add	r3, r7, r3
 297 01f8 1B68     		ldr	r3, [r3]
 298 01fa C022     		mov	r2, #192
 299 01fc BA18     		add	r2, r7, r2
 300 01fe 1360     		str	r3, [r2]
 301 0200 DB17     		asr	r3, r3, #31
 302 0202 C422     		mov	r2, #196
 303 0204 BA18     		add	r2, r7, r2
 304 0206 1360     		str	r3, [r2]
 305 0208 C823     		mov	r3, #200
 306 020a FB18     		add	r3, r7, r3
 307 020c 1868     		ldr	r0, [r3]
 308 020e 5968     		ldr	r1, [r3, #4]
 309 0210 C023     		mov	r3, #192
 310 0212 FB18     		add	r3, r7, r3
 311 0214 1A68     		ldr	r2, [r3]
 312 0216 5B68     		ldr	r3, [r3, #4]
 313 0218 FFF7FEFF 		bl	__aeabi_lmul
 314 021c 031C     		mov	r3, r0
 315 021e 0C1C     		mov	r4, r1
 316 0220 2200     		asr	r2, r4, #0
 317 0222 B821     		mov	r1, #184
 318 0224 7918     		add	r1, r7, r1
 319 0226 0A60     		str	r2, [r1]
 320 0228 E317     		asr	r3, r4, #31
 321 022a BC22     		mov	r2, #188
 322 022c BA18     		add	r2, r7, r2
 323 022e 1360     		str	r3, [r2]
 324 0230 B823     		mov	r3, #184
 325 0232 FB18     		add	r3, r7, r3
 326 0234 1B68     		ldr	r3, [r3]
 327 0236 9A22     		mov	r2, #154
 328 0238 5200     		lsl	r2, r2, #1
 329 023a BA18     		add	r2, r7, r2
 330 023c 1360     		str	r3, [r2]
 232:Source\ComplexMathFunctions/arm_cmplx_mult_cmplx_q31.c **** 
 233:Source\ComplexMathFunctions/arm_cmplx_mult_cmplx_q31.c ****     mul1 = (mul1 >> 1);
 331              		.loc 1 233 0
 332 023e A023     		mov	r3, #160
 333 0240 5B00     		lsl	r3, r3, #1
 334 0242 FB18     		add	r3, r7, r3
 335 0244 1B68     		ldr	r3, [r3]
 336 0246 5B10     		asr	r3, r3, #1
 337 0248 A022     		mov	r2, #160
ARM GAS  C:\Users\fneves\AppData\Local\Temp\ccVfSQQU.s 			page 11


 338 024a 5200     		lsl	r2, r2, #1
 339 024c BA18     		add	r2, r7, r2
 340 024e 1360     		str	r3, [r2]
 234:Source\ComplexMathFunctions/arm_cmplx_mult_cmplx_q31.c ****     mul2 = (mul2 >> 1);
 341              		.loc 1 234 0
 342 0250 9E23     		mov	r3, #158
 343 0252 5B00     		lsl	r3, r3, #1
 344 0254 FB18     		add	r3, r7, r3
 345 0256 1B68     		ldr	r3, [r3]
 346 0258 5B10     		asr	r3, r3, #1
 347 025a 9E22     		mov	r2, #158
 348 025c 5200     		lsl	r2, r2, #1
 349 025e BA18     		add	r2, r7, r2
 350 0260 1360     		str	r3, [r2]
 235:Source\ComplexMathFunctions/arm_cmplx_mult_cmplx_q31.c ****     mul3 = (mul3 >> 1);
 351              		.loc 1 235 0
 352 0262 9C23     		mov	r3, #156
 353 0264 5B00     		lsl	r3, r3, #1
 354 0266 FB18     		add	r3, r7, r3
 355 0268 1B68     		ldr	r3, [r3]
 356 026a 5B10     		asr	r3, r3, #1
 357 026c 9C22     		mov	r2, #156
 358 026e 5200     		lsl	r2, r2, #1
 359 0270 BA18     		add	r2, r7, r2
 360 0272 1360     		str	r3, [r2]
 236:Source\ComplexMathFunctions/arm_cmplx_mult_cmplx_q31.c ****     mul4 = (mul4 >> 1);
 361              		.loc 1 236 0
 362 0274 9A23     		mov	r3, #154
 363 0276 5B00     		lsl	r3, r3, #1
 364 0278 FB18     		add	r3, r7, r3
 365 027a 1B68     		ldr	r3, [r3]
 366 027c 5B10     		asr	r3, r3, #1
 367 027e 9A22     		mov	r2, #154
 368 0280 5200     		lsl	r2, r2, #1
 369 0282 BA18     		add	r2, r7, r2
 370 0284 1360     		str	r3, [r2]
 237:Source\ComplexMathFunctions/arm_cmplx_mult_cmplx_q31.c **** 
 238:Source\ComplexMathFunctions/arm_cmplx_mult_cmplx_q31.c ****     out1 = mul1 - mul2;
 371              		.loc 1 238 0
 372 0286 A023     		mov	r3, #160
 373 0288 5B00     		lsl	r3, r3, #1
 374 028a FB18     		add	r3, r7, r3
 375 028c 1A68     		ldr	r2, [r3]
 376 028e 9E23     		mov	r3, #158
 377 0290 5B00     		lsl	r3, r3, #1
 378 0292 FB18     		add	r3, r7, r3
 379 0294 1B68     		ldr	r3, [r3]
 380 0296 D31A     		sub	r3, r2, r3
 381 0298 9822     		mov	r2, #152
 382 029a 5200     		lsl	r2, r2, #1
 383 029c BA18     		add	r2, r7, r2
 384 029e 1360     		str	r3, [r2]
 239:Source\ComplexMathFunctions/arm_cmplx_mult_cmplx_q31.c ****     out2 = mul3 + mul4;
 385              		.loc 1 239 0
 386 02a0 9C23     		mov	r3, #156
 387 02a2 5B00     		lsl	r3, r3, #1
 388 02a4 FB18     		add	r3, r7, r3
ARM GAS  C:\Users\fneves\AppData\Local\Temp\ccVfSQQU.s 			page 12


 389 02a6 1A68     		ldr	r2, [r3]
 390 02a8 9A23     		mov	r3, #154
 391 02aa 5B00     		lsl	r3, r3, #1
 392 02ac FB18     		add	r3, r7, r3
 393 02ae 1B68     		ldr	r3, [r3]
 394 02b0 D318     		add	r3, r2, r3
 395 02b2 9622     		mov	r2, #150
 396 02b4 5200     		lsl	r2, r2, #1
 397 02b6 BA18     		add	r2, r7, r2
 398 02b8 1360     		str	r3, [r2]
 240:Source\ComplexMathFunctions/arm_cmplx_mult_cmplx_q31.c **** 
 241:Source\ComplexMathFunctions/arm_cmplx_mult_cmplx_q31.c ****     /* store the real result in 3.29 format in the destination buffer. */
 242:Source\ComplexMathFunctions/arm_cmplx_mult_cmplx_q31.c ****     *pDst++ = out1;
 399              		.loc 1 242 0
 400 02ba 8E23     		mov	r3, #142
 401 02bc 5B00     		lsl	r3, r3, #1
 402 02be FB18     		add	r3, r7, r3
 403 02c0 1A68     		ldr	r2, [r3]
 404 02c2 131D     		add	r3, r2, #4
 405 02c4 8E21     		mov	r1, #142
 406 02c6 4900     		lsl	r1, r1, #1
 407 02c8 7918     		add	r1, r7, r1
 408 02ca 0B60     		str	r3, [r1]
 409 02cc 9823     		mov	r3, #152
 410 02ce 5B00     		lsl	r3, r3, #1
 411 02d0 FB18     		add	r3, r7, r3
 412 02d2 1B68     		ldr	r3, [r3]
 413 02d4 1360     		str	r3, [r2]
 243:Source\ComplexMathFunctions/arm_cmplx_mult_cmplx_q31.c ****     /* store the imag result in 3.29 format in the destination buffer. */
 244:Source\ComplexMathFunctions/arm_cmplx_mult_cmplx_q31.c ****     *pDst++ = out2;
 414              		.loc 1 244 0
 415 02d6 8E23     		mov	r3, #142
 416 02d8 5B00     		lsl	r3, r3, #1
 417 02da FB18     		add	r3, r7, r3
 418 02dc 1A68     		ldr	r2, [r3]
 419 02de 131D     		add	r3, r2, #4
 420 02e0 8E21     		mov	r1, #142
 421 02e2 4900     		lsl	r1, r1, #1
 422 02e4 7918     		add	r1, r7, r1
 423 02e6 0B60     		str	r3, [r1]
 424 02e8 9623     		mov	r3, #150
 425 02ea 5B00     		lsl	r3, r3, #1
 426 02ec FB18     		add	r3, r7, r3
 427 02ee 1B68     		ldr	r3, [r3]
 428 02f0 1360     		str	r3, [r2]
 245:Source\ComplexMathFunctions/arm_cmplx_mult_cmplx_q31.c **** 
 246:Source\ComplexMathFunctions/arm_cmplx_mult_cmplx_q31.c ****     a = *pSrcA++;
 429              		.loc 1 246 0
 430 02f2 9223     		mov	r3, #146
 431 02f4 5B00     		lsl	r3, r3, #1
 432 02f6 FB18     		add	r3, r7, r3
 433 02f8 1A68     		ldr	r2, [r3]
 434 02fa 131D     		add	r3, r2, #4
 435 02fc 9221     		mov	r1, #146
 436 02fe 4900     		lsl	r1, r1, #1
 437 0300 7918     		add	r1, r7, r1
 438 0302 0B60     		str	r3, [r1]
ARM GAS  C:\Users\fneves\AppData\Local\Temp\ccVfSQQU.s 			page 13


 439 0304 1368     		ldr	r3, [r2]
 440 0306 A822     		mov	r2, #168
 441 0308 5200     		lsl	r2, r2, #1
 442 030a BA18     		add	r2, r7, r2
 443 030c 1360     		str	r3, [r2]
 247:Source\ComplexMathFunctions/arm_cmplx_mult_cmplx_q31.c ****     b = *pSrcA++;
 444              		.loc 1 247 0
 445 030e 9223     		mov	r3, #146
 446 0310 5B00     		lsl	r3, r3, #1
 447 0312 FB18     		add	r3, r7, r3
 448 0314 1A68     		ldr	r2, [r3]
 449 0316 131D     		add	r3, r2, #4
 450 0318 9221     		mov	r1, #146
 451 031a 4900     		lsl	r1, r1, #1
 452 031c 7918     		add	r1, r7, r1
 453 031e 0B60     		str	r3, [r1]
 454 0320 1368     		ldr	r3, [r2]
 455 0322 A622     		mov	r2, #166
 456 0324 5200     		lsl	r2, r2, #1
 457 0326 BA18     		add	r2, r7, r2
 458 0328 1360     		str	r3, [r2]
 248:Source\ComplexMathFunctions/arm_cmplx_mult_cmplx_q31.c ****     c = *pSrcB++;
 459              		.loc 1 248 0
 460 032a 9023     		mov	r3, #144
 461 032c 5B00     		lsl	r3, r3, #1
 462 032e FB18     		add	r3, r7, r3
 463 0330 1A68     		ldr	r2, [r3]
 464 0332 131D     		add	r3, r2, #4
 465 0334 9021     		mov	r1, #144
 466 0336 4900     		lsl	r1, r1, #1
 467 0338 7918     		add	r1, r7, r1
 468 033a 0B60     		str	r3, [r1]
 469 033c 1368     		ldr	r3, [r2]
 470 033e A422     		mov	r2, #164
 471 0340 5200     		lsl	r2, r2, #1
 472 0342 BA18     		add	r2, r7, r2
 473 0344 1360     		str	r3, [r2]
 249:Source\ComplexMathFunctions/arm_cmplx_mult_cmplx_q31.c ****     d = *pSrcB++;
 474              		.loc 1 249 0
 475 0346 9023     		mov	r3, #144
 476 0348 5B00     		lsl	r3, r3, #1
 477 034a FB18     		add	r3, r7, r3
 478 034c 1A68     		ldr	r2, [r3]
 479 034e 131D     		add	r3, r2, #4
 480 0350 9021     		mov	r1, #144
 481 0352 4900     		lsl	r1, r1, #1
 482 0354 7918     		add	r1, r7, r1
 483 0356 0B60     		str	r3, [r1]
 484 0358 1368     		ldr	r3, [r2]
 485 035a A222     		mov	r2, #162
 486 035c 5200     		lsl	r2, r2, #1
 487 035e BA18     		add	r2, r7, r2
 488 0360 1360     		str	r3, [r2]
 250:Source\ComplexMathFunctions/arm_cmplx_mult_cmplx_q31.c **** 
 251:Source\ComplexMathFunctions/arm_cmplx_mult_cmplx_q31.c ****     mul1 = (q31_t) (((q63_t) a * c) >> 32);
 489              		.loc 1 251 0
 490 0362 A823     		mov	r3, #168
ARM GAS  C:\Users\fneves\AppData\Local\Temp\ccVfSQQU.s 			page 14


 491 0364 5B00     		lsl	r3, r3, #1
 492 0366 FB18     		add	r3, r7, r3
 493 0368 1B68     		ldr	r3, [r3]
 494 036a B022     		mov	r2, #176
 495 036c BA18     		add	r2, r7, r2
 496 036e 1360     		str	r3, [r2]
 497 0370 DB17     		asr	r3, r3, #31
 498 0372 B422     		mov	r2, #180
 499 0374 BA18     		add	r2, r7, r2
 500 0376 1360     		str	r3, [r2]
 501 0378 A423     		mov	r3, #164
 502 037a 5B00     		lsl	r3, r3, #1
 503 037c FB18     		add	r3, r7, r3
 504 037e 1B68     		ldr	r3, [r3]
 505 0380 A822     		mov	r2, #168
 506 0382 BA18     		add	r2, r7, r2
 507 0384 1360     		str	r3, [r2]
 508 0386 DB17     		asr	r3, r3, #31
 509 0388 AC22     		mov	r2, #172
 510 038a BA18     		add	r2, r7, r2
 511 038c 1360     		str	r3, [r2]
 512 038e B023     		mov	r3, #176
 513 0390 FB18     		add	r3, r7, r3
 514 0392 1868     		ldr	r0, [r3]
 515 0394 5968     		ldr	r1, [r3, #4]
 516 0396 A823     		mov	r3, #168
 517 0398 FB18     		add	r3, r7, r3
 518 039a 1A68     		ldr	r2, [r3]
 519 039c 5B68     		ldr	r3, [r3, #4]
 520 039e FFF7FEFF 		bl	__aeabi_lmul
 521 03a2 031C     		mov	r3, r0
 522 03a4 0C1C     		mov	r4, r1
 523 03a6 2200     		asr	r2, r4, #0
 524 03a8 A021     		mov	r1, #160
 525 03aa 7918     		add	r1, r7, r1
 526 03ac 0A60     		str	r2, [r1]
 527 03ae E317     		asr	r3, r4, #31
 528 03b0 A422     		mov	r2, #164
 529 03b2 BA18     		add	r2, r7, r2
 530 03b4 1360     		str	r3, [r2]
 531 03b6 A023     		mov	r3, #160
 532 03b8 FB18     		add	r3, r7, r3
 533 03ba 1B68     		ldr	r3, [r3]
 534 03bc A022     		mov	r2, #160
 535 03be 5200     		lsl	r2, r2, #1
 536 03c0 BA18     		add	r2, r7, r2
 537 03c2 1360     		str	r3, [r2]
 252:Source\ComplexMathFunctions/arm_cmplx_mult_cmplx_q31.c ****     mul2 = (q31_t) (((q63_t) b * d) >> 32);
 538              		.loc 1 252 0
 539 03c4 A623     		mov	r3, #166
 540 03c6 5B00     		lsl	r3, r3, #1
 541 03c8 FB18     		add	r3, r7, r3
 542 03ca 1B68     		ldr	r3, [r3]
 543 03cc 9822     		mov	r2, #152
 544 03ce BA18     		add	r2, r7, r2
 545 03d0 1360     		str	r3, [r2]
 546 03d2 DB17     		asr	r3, r3, #31
ARM GAS  C:\Users\fneves\AppData\Local\Temp\ccVfSQQU.s 			page 15


 547 03d4 9C22     		mov	r2, #156
 548 03d6 BA18     		add	r2, r7, r2
 549 03d8 1360     		str	r3, [r2]
 550 03da A223     		mov	r3, #162
 551 03dc 5B00     		lsl	r3, r3, #1
 552 03de FB18     		add	r3, r7, r3
 553 03e0 1B68     		ldr	r3, [r3]
 554 03e2 9022     		mov	r2, #144
 555 03e4 BA18     		add	r2, r7, r2
 556 03e6 1360     		str	r3, [r2]
 557 03e8 DB17     		asr	r3, r3, #31
 558 03ea 9422     		mov	r2, #148
 559 03ec BA18     		add	r2, r7, r2
 560 03ee 1360     		str	r3, [r2]
 561 03f0 9823     		mov	r3, #152
 562 03f2 FB18     		add	r3, r7, r3
 563 03f4 1868     		ldr	r0, [r3]
 564 03f6 5968     		ldr	r1, [r3, #4]
 565 03f8 9023     		mov	r3, #144
 566 03fa FB18     		add	r3, r7, r3
 567 03fc 1A68     		ldr	r2, [r3]
 568 03fe 5B68     		ldr	r3, [r3, #4]
 569 0400 FFF7FEFF 		bl	__aeabi_lmul
 570 0404 031C     		mov	r3, r0
 571 0406 0C1C     		mov	r4, r1
 572 0408 2200     		asr	r2, r4, #0
 573 040a 8821     		mov	r1, #136
 574 040c 7918     		add	r1, r7, r1
 575 040e 0A60     		str	r2, [r1]
 576 0410 E317     		asr	r3, r4, #31
 577 0412 8C22     		mov	r2, #140
 578 0414 BA18     		add	r2, r7, r2
 579 0416 1360     		str	r3, [r2]
 580 0418 8823     		mov	r3, #136
 581 041a FB18     		add	r3, r7, r3
 582 041c 1B68     		ldr	r3, [r3]
 583 041e 9E22     		mov	r2, #158
 584 0420 5200     		lsl	r2, r2, #1
 585 0422 BA18     		add	r2, r7, r2
 586 0424 1360     		str	r3, [r2]
 253:Source\ComplexMathFunctions/arm_cmplx_mult_cmplx_q31.c ****     mul3 = (q31_t) (((q63_t) a * d) >> 32);
 587              		.loc 1 253 0
 588 0426 A823     		mov	r3, #168
 589 0428 5B00     		lsl	r3, r3, #1
 590 042a FB18     		add	r3, r7, r3
 591 042c 1B68     		ldr	r3, [r3]
 592 042e 8022     		mov	r2, #128
 593 0430 BA18     		add	r2, r7, r2
 594 0432 1360     		str	r3, [r2]
 595 0434 DB17     		asr	r3, r3, #31
 596 0436 8422     		mov	r2, #132
 597 0438 BA18     		add	r2, r7, r2
 598 043a 1360     		str	r3, [r2]
 599 043c A223     		mov	r3, #162
 600 043e 5B00     		lsl	r3, r3, #1
 601 0440 FB18     		add	r3, r7, r3
 602 0442 1B68     		ldr	r3, [r3]
ARM GAS  C:\Users\fneves\AppData\Local\Temp\ccVfSQQU.s 			page 16


 603 0444 BB67     		str	r3, [r7, #120]
 604 0446 DB17     		asr	r3, r3, #31
 605 0448 FB67     		str	r3, [r7, #124]
 606 044a 8023     		mov	r3, #128
 607 044c FB18     		add	r3, r7, r3
 608 044e 1868     		ldr	r0, [r3]
 609 0450 5968     		ldr	r1, [r3, #4]
 610 0452 BA6F     		ldr	r2, [r7, #120]
 611 0454 FB6F     		ldr	r3, [r7, #124]
 612 0456 FFF7FEFF 		bl	__aeabi_lmul
 613 045a 031C     		mov	r3, r0
 614 045c 0C1C     		mov	r4, r1
 615 045e 2200     		asr	r2, r4, #0
 616 0460 3A67     		str	r2, [r7, #112]
 617 0462 E317     		asr	r3, r4, #31
 618 0464 7B67     		str	r3, [r7, #116]
 619 0466 3B6F     		ldr	r3, [r7, #112]
 620 0468 9C22     		mov	r2, #156
 621 046a 5200     		lsl	r2, r2, #1
 622 046c BA18     		add	r2, r7, r2
 623 046e 1360     		str	r3, [r2]
 254:Source\ComplexMathFunctions/arm_cmplx_mult_cmplx_q31.c ****     mul4 = (q31_t) (((q63_t) b * c) >> 32);
 624              		.loc 1 254 0
 625 0470 A623     		mov	r3, #166
 626 0472 5B00     		lsl	r3, r3, #1
 627 0474 FB18     		add	r3, r7, r3
 628 0476 1B68     		ldr	r3, [r3]
 629 0478 BB66     		str	r3, [r7, #104]
 630 047a DB17     		asr	r3, r3, #31
 631 047c FB66     		str	r3, [r7, #108]
 632 047e A423     		mov	r3, #164
 633 0480 5B00     		lsl	r3, r3, #1
 634 0482 FB18     		add	r3, r7, r3
 635 0484 1B68     		ldr	r3, [r3]
 636 0486 3B66     		str	r3, [r7, #96]
 637 0488 DB17     		asr	r3, r3, #31
 638 048a 7B66     		str	r3, [r7, #100]
 639 048c B86E     		ldr	r0, [r7, #104]
 640 048e F96E     		ldr	r1, [r7, #108]
 641 0490 3A6E     		ldr	r2, [r7, #96]
 642 0492 7B6E     		ldr	r3, [r7, #100]
 643 0494 FFF7FEFF 		bl	__aeabi_lmul
 644 0498 031C     		mov	r3, r0
 645 049a 0C1C     		mov	r4, r1
 646 049c 2500     		asr	r5, r4, #0
 647 049e E617     		asr	r6, r4, #31
 648 04a0 2B1C     		mov	r3, r5
 649 04a2 9A22     		mov	r2, #154
 650 04a4 5200     		lsl	r2, r2, #1
 651 04a6 BA18     		add	r2, r7, r2
 652 04a8 1360     		str	r3, [r2]
 255:Source\ComplexMathFunctions/arm_cmplx_mult_cmplx_q31.c **** 
 256:Source\ComplexMathFunctions/arm_cmplx_mult_cmplx_q31.c ****     mul1 = (mul1 >> 1);
 653              		.loc 1 256 0
 654 04aa A023     		mov	r3, #160
 655 04ac 5B00     		lsl	r3, r3, #1
 656 04ae FB18     		add	r3, r7, r3
ARM GAS  C:\Users\fneves\AppData\Local\Temp\ccVfSQQU.s 			page 17


 657 04b0 1B68     		ldr	r3, [r3]
 658 04b2 5B10     		asr	r3, r3, #1
 659 04b4 A022     		mov	r2, #160
 660 04b6 5200     		lsl	r2, r2, #1
 661 04b8 BA18     		add	r2, r7, r2
 662 04ba 1360     		str	r3, [r2]
 257:Source\ComplexMathFunctions/arm_cmplx_mult_cmplx_q31.c ****     mul2 = (mul2 >> 1);
 663              		.loc 1 257 0
 664 04bc 9E23     		mov	r3, #158
 665 04be 5B00     		lsl	r3, r3, #1
 666 04c0 FB18     		add	r3, r7, r3
 667 04c2 1B68     		ldr	r3, [r3]
 668 04c4 5B10     		asr	r3, r3, #1
 669 04c6 9E22     		mov	r2, #158
 670 04c8 5200     		lsl	r2, r2, #1
 671 04ca BA18     		add	r2, r7, r2
 672 04cc 1360     		str	r3, [r2]
 258:Source\ComplexMathFunctions/arm_cmplx_mult_cmplx_q31.c ****     mul3 = (mul3 >> 1);
 673              		.loc 1 258 0
 674 04ce 9C23     		mov	r3, #156
 675 04d0 5B00     		lsl	r3, r3, #1
 676 04d2 FB18     		add	r3, r7, r3
 677 04d4 1B68     		ldr	r3, [r3]
 678 04d6 5B10     		asr	r3, r3, #1
 679 04d8 9C22     		mov	r2, #156
 680 04da 5200     		lsl	r2, r2, #1
 681 04dc BA18     		add	r2, r7, r2
 682 04de 1360     		str	r3, [r2]
 259:Source\ComplexMathFunctions/arm_cmplx_mult_cmplx_q31.c ****     mul4 = (mul4 >> 1);
 683              		.loc 1 259 0
 684 04e0 9A23     		mov	r3, #154
 685 04e2 5B00     		lsl	r3, r3, #1
 686 04e4 FB18     		add	r3, r7, r3
 687 04e6 1B68     		ldr	r3, [r3]
 688 04e8 5B10     		asr	r3, r3, #1
 689 04ea 9A22     		mov	r2, #154
 690 04ec 5200     		lsl	r2, r2, #1
 691 04ee BA18     		add	r2, r7, r2
 692 04f0 1360     		str	r3, [r2]
 260:Source\ComplexMathFunctions/arm_cmplx_mult_cmplx_q31.c **** 
 261:Source\ComplexMathFunctions/arm_cmplx_mult_cmplx_q31.c ****     out1 = mul1 - mul2;
 693              		.loc 1 261 0
 694 04f2 A023     		mov	r3, #160
 695 04f4 5B00     		lsl	r3, r3, #1
 696 04f6 FB18     		add	r3, r7, r3
 697 04f8 1A68     		ldr	r2, [r3]
 698 04fa 9E23     		mov	r3, #158
 699 04fc 5B00     		lsl	r3, r3, #1
 700 04fe FB18     		add	r3, r7, r3
 701 0500 1B68     		ldr	r3, [r3]
 702 0502 D31A     		sub	r3, r2, r3
 703 0504 9822     		mov	r2, #152
 704 0506 5200     		lsl	r2, r2, #1
 705 0508 BA18     		add	r2, r7, r2
 706 050a 1360     		str	r3, [r2]
 262:Source\ComplexMathFunctions/arm_cmplx_mult_cmplx_q31.c ****     out2 = mul3 + mul4;
 707              		.loc 1 262 0
ARM GAS  C:\Users\fneves\AppData\Local\Temp\ccVfSQQU.s 			page 18


 708 050c 9C23     		mov	r3, #156
 709 050e 5B00     		lsl	r3, r3, #1
 710 0510 FB18     		add	r3, r7, r3
 711 0512 1A68     		ldr	r2, [r3]
 712 0514 9A23     		mov	r3, #154
 713 0516 5B00     		lsl	r3, r3, #1
 714 0518 FB18     		add	r3, r7, r3
 715 051a 1B68     		ldr	r3, [r3]
 716 051c D318     		add	r3, r2, r3
 717 051e 9622     		mov	r2, #150
 718 0520 5200     		lsl	r2, r2, #1
 719 0522 BA18     		add	r2, r7, r2
 720 0524 1360     		str	r3, [r2]
 263:Source\ComplexMathFunctions/arm_cmplx_mult_cmplx_q31.c **** 
 264:Source\ComplexMathFunctions/arm_cmplx_mult_cmplx_q31.c ****     /* store the real result in 3.29 format in the destination buffer. */
 265:Source\ComplexMathFunctions/arm_cmplx_mult_cmplx_q31.c ****     *pDst++ = out1;
 721              		.loc 1 265 0
 722 0526 8E23     		mov	r3, #142
 723 0528 5B00     		lsl	r3, r3, #1
 724 052a FB18     		add	r3, r7, r3
 725 052c 1A68     		ldr	r2, [r3]
 726 052e 131D     		add	r3, r2, #4
 727 0530 8E21     		mov	r1, #142
 728 0532 4900     		lsl	r1, r1, #1
 729 0534 7918     		add	r1, r7, r1
 730 0536 0B60     		str	r3, [r1]
 731 0538 9823     		mov	r3, #152
 732 053a 5B00     		lsl	r3, r3, #1
 733 053c FB18     		add	r3, r7, r3
 734 053e 1B68     		ldr	r3, [r3]
 735 0540 1360     		str	r3, [r2]
 266:Source\ComplexMathFunctions/arm_cmplx_mult_cmplx_q31.c ****     /* store the imag result in 3.29 format in the destination buffer. */
 267:Source\ComplexMathFunctions/arm_cmplx_mult_cmplx_q31.c ****     *pDst++ = out2;
 736              		.loc 1 267 0
 737 0542 8E23     		mov	r3, #142
 738 0544 5B00     		lsl	r3, r3, #1
 739 0546 FB18     		add	r3, r7, r3
 740 0548 1A68     		ldr	r2, [r3]
 741 054a 131D     		add	r3, r2, #4
 742 054c 8E21     		mov	r1, #142
 743 054e 4900     		lsl	r1, r1, #1
 744 0550 7918     		add	r1, r7, r1
 745 0552 0B60     		str	r3, [r1]
 746 0554 9623     		mov	r3, #150
 747 0556 5B00     		lsl	r3, r3, #1
 748 0558 FB18     		add	r3, r7, r3
 749 055a 1B68     		ldr	r3, [r3]
 750 055c 1360     		str	r3, [r2]
 268:Source\ComplexMathFunctions/arm_cmplx_mult_cmplx_q31.c **** 
 269:Source\ComplexMathFunctions/arm_cmplx_mult_cmplx_q31.c ****     /* Decrement the blockSize loop counter */
 270:Source\ComplexMathFunctions/arm_cmplx_mult_cmplx_q31.c ****     blkCnt--;
 751              		.loc 1 270 0
 752 055e AA23     		mov	r3, #170
 753 0560 5B00     		lsl	r3, r3, #1
 754 0562 FB18     		add	r3, r7, r3
 755 0564 1B68     		ldr	r3, [r3]
 756 0566 013B     		sub	r3, r3, #1
ARM GAS  C:\Users\fneves\AppData\Local\Temp\ccVfSQQU.s 			page 19


 757 0568 AA22     		mov	r2, #170
 758 056a 5200     		lsl	r2, r2, #1
 759 056c BA18     		add	r2, r7, r2
 760 056e 1360     		str	r3, [r2]
 761              	.L2:
 219:Source\ComplexMathFunctions/arm_cmplx_mult_cmplx_q31.c ****   {
 762              		.loc 1 219 0
 763 0570 AA23     		mov	r3, #170
 764 0572 5B00     		lsl	r3, r3, #1
 765 0574 FB18     		add	r3, r7, r3
 766 0576 1B68     		ldr	r3, [r3]
 767 0578 002B     		cmp	r3, #0
 768 057a 00D0     		beq	.LCB694
 769 057c 5DE5     		b	.L3	@long jump
 770              	.LCB694:
 271:Source\ComplexMathFunctions/arm_cmplx_mult_cmplx_q31.c ****   }
 272:Source\ComplexMathFunctions/arm_cmplx_mult_cmplx_q31.c **** 
 273:Source\ComplexMathFunctions/arm_cmplx_mult_cmplx_q31.c ****   /* If the blockSize is not a multiple of 2, compute any remaining output samples here.
 274:Source\ComplexMathFunctions/arm_cmplx_mult_cmplx_q31.c ****    ** No loop unrolling is used. */
 275:Source\ComplexMathFunctions/arm_cmplx_mult_cmplx_q31.c ****   blkCnt = numSamples % 0x2u;
 771              		.loc 1 275 0
 772 057e 8C23     		mov	r3, #140
 773 0580 5B00     		lsl	r3, r3, #1
 774 0582 FB18     		add	r3, r7, r3
 775 0584 1A68     		ldr	r2, [r3]
 776 0586 0123     		mov	r3, #1
 777 0588 1340     		and	r3, r2
 778 058a AA22     		mov	r2, #170
 779 058c 5200     		lsl	r2, r2, #1
 780 058e BA18     		add	r2, r7, r2
 781 0590 1360     		str	r3, [r2]
 276:Source\ComplexMathFunctions/arm_cmplx_mult_cmplx_q31.c **** 
 277:Source\ComplexMathFunctions/arm_cmplx_mult_cmplx_q31.c ****   while (blkCnt > 0u)
 782              		.loc 1 277 0
 783 0592 16E1     		b	.L4
 784              	.L5:
 278:Source\ComplexMathFunctions/arm_cmplx_mult_cmplx_q31.c ****   {
 279:Source\ComplexMathFunctions/arm_cmplx_mult_cmplx_q31.c ****     /* C[2 * i] = A[2 * i] * B[2 * i] - A[2 * i + 1] * B[2 * i + 1].  */
 280:Source\ComplexMathFunctions/arm_cmplx_mult_cmplx_q31.c ****     /* C[2 * i + 1] = A[2 * i] * B[2 * i + 1] + A[2 * i + 1] * B[2 * i].  */
 281:Source\ComplexMathFunctions/arm_cmplx_mult_cmplx_q31.c ****     a = *pSrcA++;
 785              		.loc 1 281 0
 786 0594 9223     		mov	r3, #146
 787 0596 5B00     		lsl	r3, r3, #1
 788 0598 FB18     		add	r3, r7, r3
 789 059a 1A68     		ldr	r2, [r3]
 790 059c 131D     		add	r3, r2, #4
 791 059e 9221     		mov	r1, #146
 792 05a0 4900     		lsl	r1, r1, #1
 793 05a2 7918     		add	r1, r7, r1
 794 05a4 0B60     		str	r3, [r1]
 795 05a6 1368     		ldr	r3, [r2]
 796 05a8 A822     		mov	r2, #168
 797 05aa 5200     		lsl	r2, r2, #1
 798 05ac BA18     		add	r2, r7, r2
 799 05ae 1360     		str	r3, [r2]
 282:Source\ComplexMathFunctions/arm_cmplx_mult_cmplx_q31.c ****     b = *pSrcA++;
 800              		.loc 1 282 0
ARM GAS  C:\Users\fneves\AppData\Local\Temp\ccVfSQQU.s 			page 20


 801 05b0 9223     		mov	r3, #146
 802 05b2 5B00     		lsl	r3, r3, #1
 803 05b4 FB18     		add	r3, r7, r3
 804 05b6 1A68     		ldr	r2, [r3]
 805 05b8 131D     		add	r3, r2, #4
 806 05ba 9221     		mov	r1, #146
 807 05bc 4900     		lsl	r1, r1, #1
 808 05be 7918     		add	r1, r7, r1
 809 05c0 0B60     		str	r3, [r1]
 810 05c2 1368     		ldr	r3, [r2]
 811 05c4 A622     		mov	r2, #166
 812 05c6 5200     		lsl	r2, r2, #1
 813 05c8 BA18     		add	r2, r7, r2
 814 05ca 1360     		str	r3, [r2]
 283:Source\ComplexMathFunctions/arm_cmplx_mult_cmplx_q31.c ****     c = *pSrcB++;
 815              		.loc 1 283 0
 816 05cc 9023     		mov	r3, #144
 817 05ce 5B00     		lsl	r3, r3, #1
 818 05d0 FB18     		add	r3, r7, r3
 819 05d2 1A68     		ldr	r2, [r3]
 820 05d4 131D     		add	r3, r2, #4
 821 05d6 9021     		mov	r1, #144
 822 05d8 4900     		lsl	r1, r1, #1
 823 05da 7918     		add	r1, r7, r1
 824 05dc 0B60     		str	r3, [r1]
 825 05de 1368     		ldr	r3, [r2]
 826 05e0 A422     		mov	r2, #164
 827 05e2 5200     		lsl	r2, r2, #1
 828 05e4 BA18     		add	r2, r7, r2
 829 05e6 1360     		str	r3, [r2]
 284:Source\ComplexMathFunctions/arm_cmplx_mult_cmplx_q31.c ****     d = *pSrcB++;
 830              		.loc 1 284 0
 831 05e8 9023     		mov	r3, #144
 832 05ea 5B00     		lsl	r3, r3, #1
 833 05ec FB18     		add	r3, r7, r3
 834 05ee 1A68     		ldr	r2, [r3]
 835 05f0 131D     		add	r3, r2, #4
 836 05f2 9021     		mov	r1, #144
 837 05f4 4900     		lsl	r1, r1, #1
 838 05f6 7918     		add	r1, r7, r1
 839 05f8 0B60     		str	r3, [r1]
 840 05fa 1368     		ldr	r3, [r2]
 841 05fc A222     		mov	r2, #162
 842 05fe 5200     		lsl	r2, r2, #1
 843 0600 BA18     		add	r2, r7, r2
 844 0602 1360     		str	r3, [r2]
 285:Source\ComplexMathFunctions/arm_cmplx_mult_cmplx_q31.c **** 
 286:Source\ComplexMathFunctions/arm_cmplx_mult_cmplx_q31.c ****     mul1 = (q31_t) (((q63_t) a * c) >> 32);
 845              		.loc 1 286 0
 846 0604 A823     		mov	r3, #168
 847 0606 5B00     		lsl	r3, r3, #1
 848 0608 FB18     		add	r3, r7, r3
 849 060a 1B68     		ldr	r3, [r3]
 850 060c BB65     		str	r3, [r7, #88]
 851 060e DB17     		asr	r3, r3, #31
 852 0610 FB65     		str	r3, [r7, #92]
 853 0612 A423     		mov	r3, #164
ARM GAS  C:\Users\fneves\AppData\Local\Temp\ccVfSQQU.s 			page 21


 854 0614 5B00     		lsl	r3, r3, #1
 855 0616 FB18     		add	r3, r7, r3
 856 0618 1B68     		ldr	r3, [r3]
 857 061a 3B65     		str	r3, [r7, #80]
 858 061c DB17     		asr	r3, r3, #31
 859 061e 7B65     		str	r3, [r7, #84]
 860 0620 B86D     		ldr	r0, [r7, #88]
 861 0622 F96D     		ldr	r1, [r7, #92]
 862 0624 3A6D     		ldr	r2, [r7, #80]
 863 0626 7B6D     		ldr	r3, [r7, #84]
 864 0628 FFF7FEFF 		bl	__aeabi_lmul
 865 062c 031C     		mov	r3, r0
 866 062e 0C1C     		mov	r4, r1
 867 0630 2200     		asr	r2, r4, #0
 868 0632 BA64     		str	r2, [r7, #72]
 869 0634 E317     		asr	r3, r4, #31
 870 0636 FB64     		str	r3, [r7, #76]
 871 0638 BB6C     		ldr	r3, [r7, #72]
 872 063a A022     		mov	r2, #160
 873 063c 5200     		lsl	r2, r2, #1
 874 063e BA18     		add	r2, r7, r2
 875 0640 1360     		str	r3, [r2]
 287:Source\ComplexMathFunctions/arm_cmplx_mult_cmplx_q31.c ****     mul2 = (q31_t) (((q63_t) b * d) >> 32);
 876              		.loc 1 287 0
 877 0642 A623     		mov	r3, #166
 878 0644 5B00     		lsl	r3, r3, #1
 879 0646 FB18     		add	r3, r7, r3
 880 0648 1B68     		ldr	r3, [r3]
 881 064a 3B64     		str	r3, [r7, #64]
 882 064c DB17     		asr	r3, r3, #31
 883 064e 7B64     		str	r3, [r7, #68]
 884 0650 A223     		mov	r3, #162
 885 0652 5B00     		lsl	r3, r3, #1
 886 0654 FB18     		add	r3, r7, r3
 887 0656 1B68     		ldr	r3, [r3]
 888 0658 BB63     		str	r3, [r7, #56]
 889 065a DB17     		asr	r3, r3, #31
 890 065c FB63     		str	r3, [r7, #60]
 891 065e 386C     		ldr	r0, [r7, #64]
 892 0660 796C     		ldr	r1, [r7, #68]
 893 0662 BA6B     		ldr	r2, [r7, #56]
 894 0664 FB6B     		ldr	r3, [r7, #60]
 895 0666 FFF7FEFF 		bl	__aeabi_lmul
 896 066a 031C     		mov	r3, r0
 897 066c 0C1C     		mov	r4, r1
 898 066e 2200     		asr	r2, r4, #0
 899 0670 3A63     		str	r2, [r7, #48]
 900 0672 E317     		asr	r3, r4, #31
 901 0674 7B63     		str	r3, [r7, #52]
 902 0676 3B6B     		ldr	r3, [r7, #48]
 903 0678 9E22     		mov	r2, #158
 904 067a 5200     		lsl	r2, r2, #1
 905 067c BA18     		add	r2, r7, r2
 906 067e 1360     		str	r3, [r2]
 288:Source\ComplexMathFunctions/arm_cmplx_mult_cmplx_q31.c ****     mul3 = (q31_t) (((q63_t) a * d) >> 32);
 907              		.loc 1 288 0
 908 0680 A823     		mov	r3, #168
ARM GAS  C:\Users\fneves\AppData\Local\Temp\ccVfSQQU.s 			page 22


 909 0682 5B00     		lsl	r3, r3, #1
 910 0684 FB18     		add	r3, r7, r3
 911 0686 1B68     		ldr	r3, [r3]
 912 0688 BB62     		str	r3, [r7, #40]
 913 068a DB17     		asr	r3, r3, #31
 914 068c FB62     		str	r3, [r7, #44]
 915 068e A223     		mov	r3, #162
 916 0690 5B00     		lsl	r3, r3, #1
 917 0692 FB18     		add	r3, r7, r3
 918 0694 1B68     		ldr	r3, [r3]
 919 0696 3B62     		str	r3, [r7, #32]
 920 0698 DB17     		asr	r3, r3, #31
 921 069a 7B62     		str	r3, [r7, #36]
 922 069c B86A     		ldr	r0, [r7, #40]
 923 069e F96A     		ldr	r1, [r7, #44]
 924 06a0 3A6A     		ldr	r2, [r7, #32]
 925 06a2 7B6A     		ldr	r3, [r7, #36]
 926 06a4 FFF7FEFF 		bl	__aeabi_lmul
 927 06a8 031C     		mov	r3, r0
 928 06aa 0C1C     		mov	r4, r1
 929 06ac 2200     		asr	r2, r4, #0
 930 06ae BA61     		str	r2, [r7, #24]
 931 06b0 E317     		asr	r3, r4, #31
 932 06b2 FB61     		str	r3, [r7, #28]
 933 06b4 BB69     		ldr	r3, [r7, #24]
 934 06b6 9C22     		mov	r2, #156
 935 06b8 5200     		lsl	r2, r2, #1
 936 06ba BA18     		add	r2, r7, r2
 937 06bc 1360     		str	r3, [r2]
 289:Source\ComplexMathFunctions/arm_cmplx_mult_cmplx_q31.c ****     mul4 = (q31_t) (((q63_t) b * c) >> 32);
 938              		.loc 1 289 0
 939 06be A623     		mov	r3, #166
 940 06c0 5B00     		lsl	r3, r3, #1
 941 06c2 FB18     		add	r3, r7, r3
 942 06c4 1B68     		ldr	r3, [r3]
 943 06c6 3B61     		str	r3, [r7, #16]
 944 06c8 DB17     		asr	r3, r3, #31
 945 06ca 7B61     		str	r3, [r7, #20]
 946 06cc A423     		mov	r3, #164
 947 06ce 5B00     		lsl	r3, r3, #1
 948 06d0 FB18     		add	r3, r7, r3
 949 06d2 1B68     		ldr	r3, [r3]
 950 06d4 BB60     		str	r3, [r7, #8]
 951 06d6 DB17     		asr	r3, r3, #31
 952 06d8 FB60     		str	r3, [r7, #12]
 953 06da 3869     		ldr	r0, [r7, #16]
 954 06dc 7969     		ldr	r1, [r7, #20]
 955 06de BA68     		ldr	r2, [r7, #8]
 956 06e0 FB68     		ldr	r3, [r7, #12]
 957 06e2 FFF7FEFF 		bl	__aeabi_lmul
 958 06e6 031C     		mov	r3, r0
 959 06e8 0C1C     		mov	r4, r1
 960 06ea 2200     		asr	r2, r4, #0
 961 06ec 3A60     		str	r2, [r7]
 962 06ee E317     		asr	r3, r4, #31
 963 06f0 7B60     		str	r3, [r7, #4]
 964 06f2 3B68     		ldr	r3, [r7]
ARM GAS  C:\Users\fneves\AppData\Local\Temp\ccVfSQQU.s 			page 23


 965 06f4 9A22     		mov	r2, #154
 966 06f6 5200     		lsl	r2, r2, #1
 967 06f8 BA18     		add	r2, r7, r2
 968 06fa 1360     		str	r3, [r2]
 290:Source\ComplexMathFunctions/arm_cmplx_mult_cmplx_q31.c **** 
 291:Source\ComplexMathFunctions/arm_cmplx_mult_cmplx_q31.c ****     mul1 = (mul1 >> 1);
 969              		.loc 1 291 0
 970 06fc A023     		mov	r3, #160
 971 06fe 5B00     		lsl	r3, r3, #1
 972 0700 FB18     		add	r3, r7, r3
 973 0702 1B68     		ldr	r3, [r3]
 974 0704 5B10     		asr	r3, r3, #1
 975 0706 A022     		mov	r2, #160
 976 0708 5200     		lsl	r2, r2, #1
 977 070a BA18     		add	r2, r7, r2
 978 070c 1360     		str	r3, [r2]
 292:Source\ComplexMathFunctions/arm_cmplx_mult_cmplx_q31.c ****     mul2 = (mul2 >> 1);
 979              		.loc 1 292 0
 980 070e 9E23     		mov	r3, #158
 981 0710 5B00     		lsl	r3, r3, #1
 982 0712 FB18     		add	r3, r7, r3
 983 0714 1B68     		ldr	r3, [r3]
 984 0716 5B10     		asr	r3, r3, #1
 985 0718 9E22     		mov	r2, #158
 986 071a 5200     		lsl	r2, r2, #1
 987 071c BA18     		add	r2, r7, r2
 988 071e 1360     		str	r3, [r2]
 293:Source\ComplexMathFunctions/arm_cmplx_mult_cmplx_q31.c ****     mul3 = (mul3 >> 1);
 989              		.loc 1 293 0
 990 0720 9C23     		mov	r3, #156
 991 0722 5B00     		lsl	r3, r3, #1
 992 0724 FB18     		add	r3, r7, r3
 993 0726 1B68     		ldr	r3, [r3]
 994 0728 5B10     		asr	r3, r3, #1
 995 072a 9C22     		mov	r2, #156
 996 072c 5200     		lsl	r2, r2, #1
 997 072e BA18     		add	r2, r7, r2
 998 0730 1360     		str	r3, [r2]
 294:Source\ComplexMathFunctions/arm_cmplx_mult_cmplx_q31.c ****     mul4 = (mul4 >> 1);
 999              		.loc 1 294 0
 1000 0732 9A23     		mov	r3, #154
 1001 0734 5B00     		lsl	r3, r3, #1
 1002 0736 FB18     		add	r3, r7, r3
 1003 0738 1B68     		ldr	r3, [r3]
 1004 073a 5B10     		asr	r3, r3, #1
 1005 073c 9A22     		mov	r2, #154
 1006 073e 5200     		lsl	r2, r2, #1
 1007 0740 BA18     		add	r2, r7, r2
 1008 0742 1360     		str	r3, [r2]
 295:Source\ComplexMathFunctions/arm_cmplx_mult_cmplx_q31.c **** 
 296:Source\ComplexMathFunctions/arm_cmplx_mult_cmplx_q31.c ****     out1 = mul1 - mul2;
 1009              		.loc 1 296 0
 1010 0744 A023     		mov	r3, #160
 1011 0746 5B00     		lsl	r3, r3, #1
 1012 0748 FB18     		add	r3, r7, r3
 1013 074a 1A68     		ldr	r2, [r3]
 1014 074c 9E23     		mov	r3, #158
ARM GAS  C:\Users\fneves\AppData\Local\Temp\ccVfSQQU.s 			page 24


 1015 074e 5B00     		lsl	r3, r3, #1
 1016 0750 FB18     		add	r3, r7, r3
 1017 0752 1B68     		ldr	r3, [r3]
 1018 0754 D31A     		sub	r3, r2, r3
 1019 0756 9822     		mov	r2, #152
 1020 0758 5200     		lsl	r2, r2, #1
 1021 075a BA18     		add	r2, r7, r2
 1022 075c 1360     		str	r3, [r2]
 297:Source\ComplexMathFunctions/arm_cmplx_mult_cmplx_q31.c ****     out2 = mul3 + mul4;
 1023              		.loc 1 297 0
 1024 075e 9C23     		mov	r3, #156
 1025 0760 5B00     		lsl	r3, r3, #1
 1026 0762 FB18     		add	r3, r7, r3
 1027 0764 1A68     		ldr	r2, [r3]
 1028 0766 9A23     		mov	r3, #154
 1029 0768 5B00     		lsl	r3, r3, #1
 1030 076a FB18     		add	r3, r7, r3
 1031 076c 1B68     		ldr	r3, [r3]
 1032 076e D318     		add	r3, r2, r3
 1033 0770 9622     		mov	r2, #150
 1034 0772 5200     		lsl	r2, r2, #1
 1035 0774 BA18     		add	r2, r7, r2
 1036 0776 1360     		str	r3, [r2]
 298:Source\ComplexMathFunctions/arm_cmplx_mult_cmplx_q31.c **** 
 299:Source\ComplexMathFunctions/arm_cmplx_mult_cmplx_q31.c ****     /* store the real result in 3.29 format in the destination buffer. */
 300:Source\ComplexMathFunctions/arm_cmplx_mult_cmplx_q31.c ****     *pDst++ = out1;
 1037              		.loc 1 300 0
 1038 0778 8E23     		mov	r3, #142
 1039 077a 5B00     		lsl	r3, r3, #1
 1040 077c FB18     		add	r3, r7, r3
 1041 077e 1A68     		ldr	r2, [r3]
 1042 0780 131D     		add	r3, r2, #4
 1043 0782 8E21     		mov	r1, #142
 1044 0784 4900     		lsl	r1, r1, #1
 1045 0786 7918     		add	r1, r7, r1
 1046 0788 0B60     		str	r3, [r1]
 1047 078a 9823     		mov	r3, #152
 1048 078c 5B00     		lsl	r3, r3, #1
 1049 078e FB18     		add	r3, r7, r3
 1050 0790 1B68     		ldr	r3, [r3]
 1051 0792 1360     		str	r3, [r2]
 301:Source\ComplexMathFunctions/arm_cmplx_mult_cmplx_q31.c ****     /* store the imag result in 3.29 format in the destination buffer. */
 302:Source\ComplexMathFunctions/arm_cmplx_mult_cmplx_q31.c ****     *pDst++ = out2;
 1052              		.loc 1 302 0
 1053 0794 8E23     		mov	r3, #142
 1054 0796 5B00     		lsl	r3, r3, #1
 1055 0798 FB18     		add	r3, r7, r3
 1056 079a 1A68     		ldr	r2, [r3]
 1057 079c 131D     		add	r3, r2, #4
 1058 079e 8E21     		mov	r1, #142
 1059 07a0 4900     		lsl	r1, r1, #1
 1060 07a2 7918     		add	r1, r7, r1
 1061 07a4 0B60     		str	r3, [r1]
 1062 07a6 9623     		mov	r3, #150
 1063 07a8 5B00     		lsl	r3, r3, #1
 1064 07aa FB18     		add	r3, r7, r3
 1065 07ac 1B68     		ldr	r3, [r3]
ARM GAS  C:\Users\fneves\AppData\Local\Temp\ccVfSQQU.s 			page 25


 1066 07ae 1360     		str	r3, [r2]
 303:Source\ComplexMathFunctions/arm_cmplx_mult_cmplx_q31.c **** 
 304:Source\ComplexMathFunctions/arm_cmplx_mult_cmplx_q31.c ****     /* Decrement the blockSize loop counter */
 305:Source\ComplexMathFunctions/arm_cmplx_mult_cmplx_q31.c ****     blkCnt--;
 1067              		.loc 1 305 0
 1068 07b0 AA23     		mov	r3, #170
 1069 07b2 5B00     		lsl	r3, r3, #1
 1070 07b4 FB18     		add	r3, r7, r3
 1071 07b6 1B68     		ldr	r3, [r3]
 1072 07b8 013B     		sub	r3, r3, #1
 1073 07ba AA22     		mov	r2, #170
 1074 07bc 5200     		lsl	r2, r2, #1
 1075 07be BA18     		add	r2, r7, r2
 1076 07c0 1360     		str	r3, [r2]
 1077              	.L4:
 277:Source\ComplexMathFunctions/arm_cmplx_mult_cmplx_q31.c ****   {
 1078              		.loc 1 277 0
 1079 07c2 AA23     		mov	r3, #170
 1080 07c4 5B00     		lsl	r3, r3, #1
 1081 07c6 FB18     		add	r3, r7, r3
 1082 07c8 1B68     		ldr	r3, [r3]
 1083 07ca 002B     		cmp	r3, #0
 1084 07cc 00D0     		beq	.LCB983
 1085 07ce E1E6     		b	.L5	@long jump
 1086              	.LCB983:
 306:Source\ComplexMathFunctions/arm_cmplx_mult_cmplx_q31.c ****   }
 307:Source\ComplexMathFunctions/arm_cmplx_mult_cmplx_q31.c **** 
 308:Source\ComplexMathFunctions/arm_cmplx_mult_cmplx_q31.c **** #endif /* #if defined (ARM_MATH_DSP) */
 309:Source\ComplexMathFunctions/arm_cmplx_mult_cmplx_q31.c **** 
 310:Source\ComplexMathFunctions/arm_cmplx_mult_cmplx_q31.c **** }
 1087              		.loc 1 310 0
 1088 07d0 BD46     		mov	sp, r7
 1089 07d2 57B0     		add	sp, sp, #348
 1090              		@ sp needed
 1091 07d4 F0BD     		pop	{r4, r5, r6, r7, pc}
 1092              		.cfi_endproc
 1093              	.LFE82:
 1094              		.size	arm_cmplx_mult_cmplx_q31, .-arm_cmplx_mult_cmplx_q31
 1095 07d6 C046     		.text
 1096              	.Letext0:
 1097              		.file 2 "c:\\program files (x86)\\cypress\\psoc creator\\4.0\\psoc creator\\import\\gnu\\arm\\4.9.
 1098              		.file 3 "c:\\program files (x86)\\cypress\\psoc creator\\4.0\\psoc creator\\import\\gnu\\arm\\4.9.
 1099              		.file 4 ".\\Include/arm_math.h"