ARM GAS  C:\Users\fneves\AppData\Local\Temp\ccpdOBlb.s 			page 1


   1              		.cpu cortex-m0plus
   2              		.fpu softvfp
   3              		.eabi_attribute 20, 1
   4              		.eabi_attribute 21, 1
   5              		.eabi_attribute 23, 3
   6              		.eabi_attribute 24, 1
   7              		.eabi_attribute 25, 1
   8              		.eabi_attribute 26, 1
   9              		.eabi_attribute 30, 6
  10              		.eabi_attribute 34, 0
  11              		.eabi_attribute 18, 4
  12              		.code	16
  13              		.file	"arm_fir_init_q31.c"
  14              		.text
  15              	.Ltext0:
  16              		.cfi_sections	.debug_frame
  17              		.section	.text.arm_fir_init_q31,"ax",%progbits
  18              		.align	2
  19              		.global	arm_fir_init_q31
  20              		.code	16
  21              		.thumb_func
  22              		.type	arm_fir_init_q31, %function
  23              	arm_fir_init_q31:
  24              	.LFB82:
  25              		.file 1 "Source\\FilteringFunctions\\arm_fir_init_q31.c"
   1:Source\FilteringFunctions/arm_fir_init_q31.c **** /* ----------------------------------------------------------------------
   2:Source\FilteringFunctions/arm_fir_init_q31.c ****  * Project:      CMSIS DSP Library
   3:Source\FilteringFunctions/arm_fir_init_q31.c ****  * Title:        arm_fir_init_q31.c
   4:Source\FilteringFunctions/arm_fir_init_q31.c ****  * Description:  Q31 FIR filter initialization function.
   5:Source\FilteringFunctions/arm_fir_init_q31.c ****  *
   6:Source\FilteringFunctions/arm_fir_init_q31.c ****  * $Date:        27. January 2017
   7:Source\FilteringFunctions/arm_fir_init_q31.c ****  * $Revision:    V.1.5.1
   8:Source\FilteringFunctions/arm_fir_init_q31.c ****  *
   9:Source\FilteringFunctions/arm_fir_init_q31.c ****  * Target Processor: Cortex-M cores
  10:Source\FilteringFunctions/arm_fir_init_q31.c ****  * -------------------------------------------------------------------- */
  11:Source\FilteringFunctions/arm_fir_init_q31.c **** /*
  12:Source\FilteringFunctions/arm_fir_init_q31.c ****  * Copyright (C) 2010-2017 ARM Limited or its affiliates. All rights reserved.
  13:Source\FilteringFunctions/arm_fir_init_q31.c ****  *
  14:Source\FilteringFunctions/arm_fir_init_q31.c ****  * SPDX-License-Identifier: Apache-2.0
  15:Source\FilteringFunctions/arm_fir_init_q31.c ****  *
  16:Source\FilteringFunctions/arm_fir_init_q31.c ****  * Licensed under the Apache License, Version 2.0 (the License); you may
  17:Source\FilteringFunctions/arm_fir_init_q31.c ****  * not use this file except in compliance with the License.
  18:Source\FilteringFunctions/arm_fir_init_q31.c ****  * You may obtain a copy of the License at
  19:Source\FilteringFunctions/arm_fir_init_q31.c ****  *
  20:Source\FilteringFunctions/arm_fir_init_q31.c ****  * www.apache.org/licenses/LICENSE-2.0
  21:Source\FilteringFunctions/arm_fir_init_q31.c ****  *
  22:Source\FilteringFunctions/arm_fir_init_q31.c ****  * Unless required by applicable law or agreed to in writing, software
  23:Source\FilteringFunctions/arm_fir_init_q31.c ****  * distributed under the License is distributed on an AS IS BASIS, WITHOUT
  24:Source\FilteringFunctions/arm_fir_init_q31.c ****  * WARRANTIES OR CONDITIONS OF ANY KIND, either express or implied.
  25:Source\FilteringFunctions/arm_fir_init_q31.c ****  * See the License for the specific language governing permissions and
  26:Source\FilteringFunctions/arm_fir_init_q31.c ****  * limitations under the License.
  27:Source\FilteringFunctions/arm_fir_init_q31.c ****  */
  28:Source\FilteringFunctions/arm_fir_init_q31.c **** 
  29:Source\FilteringFunctions/arm_fir_init_q31.c **** #include "arm_math.h"
  30:Source\FilteringFunctions/arm_fir_init_q31.c **** 
  31:Source\FilteringFunctions/arm_fir_init_q31.c **** /**
  32:Source\FilteringFunctions/arm_fir_init_q31.c ****  * @ingroup groupFilters
ARM GAS  C:\Users\fneves\AppData\Local\Temp\ccpdOBlb.s 			page 2


  33:Source\FilteringFunctions/arm_fir_init_q31.c ****  */
  34:Source\FilteringFunctions/arm_fir_init_q31.c **** 
  35:Source\FilteringFunctions/arm_fir_init_q31.c **** /**
  36:Source\FilteringFunctions/arm_fir_init_q31.c ****  * @addtogroup FIR
  37:Source\FilteringFunctions/arm_fir_init_q31.c ****  * @{
  38:Source\FilteringFunctions/arm_fir_init_q31.c ****  */
  39:Source\FilteringFunctions/arm_fir_init_q31.c **** 
  40:Source\FilteringFunctions/arm_fir_init_q31.c **** /**
  41:Source\FilteringFunctions/arm_fir_init_q31.c ****  * @details
  42:Source\FilteringFunctions/arm_fir_init_q31.c ****  *
  43:Source\FilteringFunctions/arm_fir_init_q31.c ****  * @param[in,out] *S points to an instance of the Q31 FIR filter structure.
  44:Source\FilteringFunctions/arm_fir_init_q31.c ****  * @param[in] 	  numTaps  Number of filter coefficients in the filter.
  45:Source\FilteringFunctions/arm_fir_init_q31.c ****  * @param[in] 	  *pCoeffs points to the filter coefficients buffer.
  46:Source\FilteringFunctions/arm_fir_init_q31.c ****  * @param[in] 	  *pState points to the state buffer.
  47:Source\FilteringFunctions/arm_fir_init_q31.c ****  * @param[in] 	  blockSize number of samples that are processed per call.
  48:Source\FilteringFunctions/arm_fir_init_q31.c ****  * @return        none.
  49:Source\FilteringFunctions/arm_fir_init_q31.c ****  *
  50:Source\FilteringFunctions/arm_fir_init_q31.c ****  * <b>Description:</b>
  51:Source\FilteringFunctions/arm_fir_init_q31.c ****  * \par
  52:Source\FilteringFunctions/arm_fir_init_q31.c ****  * <code>pCoeffs</code> points to the array of filter coefficients stored in time reversed order:
  53:Source\FilteringFunctions/arm_fir_init_q31.c ****  * <pre>
  54:Source\FilteringFunctions/arm_fir_init_q31.c ****  *    {b[numTaps-1], b[numTaps-2], b[N-2], ..., b[1], b[0]}
  55:Source\FilteringFunctions/arm_fir_init_q31.c ****  * </pre>
  56:Source\FilteringFunctions/arm_fir_init_q31.c ****  * \par
  57:Source\FilteringFunctions/arm_fir_init_q31.c ****  * <code>pState</code> points to the array of state variables.
  58:Source\FilteringFunctions/arm_fir_init_q31.c ****  * <code>pState</code> is of length <code>numTaps+blockSize-1</code> samples, where <code>blockSize
  59:Source\FilteringFunctions/arm_fir_init_q31.c ****  */
  60:Source\FilteringFunctions/arm_fir_init_q31.c **** 
  61:Source\FilteringFunctions/arm_fir_init_q31.c **** void arm_fir_init_q31(
  62:Source\FilteringFunctions/arm_fir_init_q31.c ****   arm_fir_instance_q31 * S,
  63:Source\FilteringFunctions/arm_fir_init_q31.c ****   uint16_t numTaps,
  64:Source\FilteringFunctions/arm_fir_init_q31.c ****   q31_t * pCoeffs,
  65:Source\FilteringFunctions/arm_fir_init_q31.c ****   q31_t * pState,
  66:Source\FilteringFunctions/arm_fir_init_q31.c ****   uint32_t blockSize)
  67:Source\FilteringFunctions/arm_fir_init_q31.c **** {
  26              		.loc 1 67 0
  27              		.cfi_startproc
  28 0000 80B5     		push	{r7, lr}
  29              		.cfi_def_cfa_offset 8
  30              		.cfi_offset 7, -8
  31              		.cfi_offset 14, -4
  32 0002 84B0     		sub	sp, sp, #16
  33              		.cfi_def_cfa_offset 24
  34 0004 00AF     		add	r7, sp, #0
  35              		.cfi_def_cfa_register 7
  36 0006 F860     		str	r0, [r7, #12]
  37 0008 7A60     		str	r2, [r7, #4]
  38 000a 3B60     		str	r3, [r7]
  39 000c 0A23     		mov	r3, #10
  40 000e FB18     		add	r3, r7, r3
  41 0010 0A1C     		add	r2, r1, #0
  42 0012 1A80     		strh	r2, [r3]
  68:Source\FilteringFunctions/arm_fir_init_q31.c ****   /* Assign filter taps */
  69:Source\FilteringFunctions/arm_fir_init_q31.c ****   S->numTaps = numTaps;
  43              		.loc 1 69 0
  44 0014 FB68     		ldr	r3, [r7, #12]
  45 0016 0A22     		mov	r2, #10
ARM GAS  C:\Users\fneves\AppData\Local\Temp\ccpdOBlb.s 			page 3


  46 0018 BA18     		add	r2, r7, r2
  47 001a 1288     		ldrh	r2, [r2]
  48 001c 1A80     		strh	r2, [r3]
  70:Source\FilteringFunctions/arm_fir_init_q31.c **** 
  71:Source\FilteringFunctions/arm_fir_init_q31.c ****   /* Assign coefficient pointer */
  72:Source\FilteringFunctions/arm_fir_init_q31.c ****   S->pCoeffs = pCoeffs;
  49              		.loc 1 72 0
  50 001e FB68     		ldr	r3, [r7, #12]
  51 0020 7A68     		ldr	r2, [r7, #4]
  52 0022 9A60     		str	r2, [r3, #8]
  73:Source\FilteringFunctions/arm_fir_init_q31.c **** 
  74:Source\FilteringFunctions/arm_fir_init_q31.c ****   /* Clear state buffer and state array size is (blockSize + numTaps - 1) */
  75:Source\FilteringFunctions/arm_fir_init_q31.c ****   memset(pState, 0, (blockSize + ((uint32_t) numTaps - 1u)) * sizeof(q31_t));
  53              		.loc 1 75 0
  54 0024 0A23     		mov	r3, #10
  55 0026 FB18     		add	r3, r7, r3
  56 0028 1A88     		ldrh	r2, [r3]
  57 002a BB69     		ldr	r3, [r7, #24]
  58 002c D318     		add	r3, r2, r3
  59 002e 084A     		ldr	r2, .L2
  60 0030 9446     		mov	ip, r2
  61 0032 6344     		add	r3, r3, ip
  62 0034 9B00     		lsl	r3, r3, #2
  63 0036 3A68     		ldr	r2, [r7]
  64 0038 101C     		mov	r0, r2
  65 003a 0021     		mov	r1, #0
  66 003c 1A1C     		mov	r2, r3
  67 003e FFF7FEFF 		bl	memset
  76:Source\FilteringFunctions/arm_fir_init_q31.c **** 
  77:Source\FilteringFunctions/arm_fir_init_q31.c ****   /* Assign state pointer */
  78:Source\FilteringFunctions/arm_fir_init_q31.c ****   S->pState = pState;
  68              		.loc 1 78 0
  69 0042 FB68     		ldr	r3, [r7, #12]
  70 0044 3A68     		ldr	r2, [r7]
  71 0046 5A60     		str	r2, [r3, #4]
  79:Source\FilteringFunctions/arm_fir_init_q31.c **** 
  80:Source\FilteringFunctions/arm_fir_init_q31.c **** }
  72              		.loc 1 80 0
  73 0048 BD46     		mov	sp, r7
  74 004a 04B0     		add	sp, sp, #16
  75              		@ sp needed
  76 004c 80BD     		pop	{r7, pc}
  77              	.L3:
  78 004e C046     		.align	2
  79              	.L2:
  80 0050 FFFFFF3F 		.word	1073741823
  81              		.cfi_endproc
  82              	.LFE82:
  83              		.size	arm_fir_init_q31, .-arm_fir_init_q31
  84              		.text
  85              	.Letext0:
  86              		.file 2 "c:\\program files (x86)\\cypress\\psoc creator\\4.0\\psoc creator\\import\\gnu\\arm\\4.9.
  87              		.file 3 "c:\\program files (x86)\\cypress\\psoc creator\\4.0\\psoc creator\\import\\gnu\\arm\\4.9.
  88              		.file 4 ".\\Include/arm_math.h"