ARM GAS  C:\Users\fneves\AppData\Local\Temp\cc0ayw4Y.s 			page 1


   1              		.cpu cortex-m0plus
   2              		.fpu softvfp
   3              		.eabi_attribute 20, 1
   4              		.eabi_attribute 21, 1
   5              		.eabi_attribute 23, 3
   6              		.eabi_attribute 24, 1
   7              		.eabi_attribute 25, 1
   8              		.eabi_attribute 26, 1
   9              		.eabi_attribute 30, 6
  10              		.eabi_attribute 34, 0
  11              		.eabi_attribute 18, 4
  12              		.code	16
  13              		.file	"arm_cfft_radix4_q15.c"
  14              		.text
  15              	.Ltext0:
  16              		.cfi_sections	.debug_frame
  17              		.section	.text.arm_cfft_radix4_q15,"ax",%progbits
  18              		.align	2
  19              		.global	arm_cfft_radix4_q15
  20              		.code	16
  21              		.thumb_func
  22              		.type	arm_cfft_radix4_q15, %function
  23              	arm_cfft_radix4_q15:
  24              	.LFB82:
  25              		.file 1 "Source\\TransformFunctions\\arm_cfft_radix4_q15.c"
   1:Source\TransformFunctions/arm_cfft_radix4_q15.c **** /* ----------------------------------------------------------------------
   2:Source\TransformFunctions/arm_cfft_radix4_q15.c ****  * Project:      CMSIS DSP Library
   3:Source\TransformFunctions/arm_cfft_radix4_q15.c ****  * Title:        arm_cfft_radix4_q15.c
   4:Source\TransformFunctions/arm_cfft_radix4_q15.c ****  * Description:  This file has function definition of Radix-4 FFT & IFFT function and
   5:Source\TransformFunctions/arm_cfft_radix4_q15.c ****  *               In-place bit reversal using bit reversal table
   6:Source\TransformFunctions/arm_cfft_radix4_q15.c ****  *
   7:Source\TransformFunctions/arm_cfft_radix4_q15.c ****  * $Date:        27. January 2017
   8:Source\TransformFunctions/arm_cfft_radix4_q15.c ****  * $Revision:    V.1.5.1
   9:Source\TransformFunctions/arm_cfft_radix4_q15.c ****  *
  10:Source\TransformFunctions/arm_cfft_radix4_q15.c ****  * Target Processor: Cortex-M cores
  11:Source\TransformFunctions/arm_cfft_radix4_q15.c ****  * -------------------------------------------------------------------- */
  12:Source\TransformFunctions/arm_cfft_radix4_q15.c **** /*
  13:Source\TransformFunctions/arm_cfft_radix4_q15.c ****  * Copyright (C) 2010-2017 ARM Limited or its affiliates. All rights reserved.
  14:Source\TransformFunctions/arm_cfft_radix4_q15.c ****  *
  15:Source\TransformFunctions/arm_cfft_radix4_q15.c ****  * SPDX-License-Identifier: Apache-2.0
  16:Source\TransformFunctions/arm_cfft_radix4_q15.c ****  *
  17:Source\TransformFunctions/arm_cfft_radix4_q15.c ****  * Licensed under the Apache License, Version 2.0 (the License); you may
  18:Source\TransformFunctions/arm_cfft_radix4_q15.c ****  * not use this file except in compliance with the License.
  19:Source\TransformFunctions/arm_cfft_radix4_q15.c ****  * You may obtain a copy of the License at
  20:Source\TransformFunctions/arm_cfft_radix4_q15.c ****  *
  21:Source\TransformFunctions/arm_cfft_radix4_q15.c ****  * www.apache.org/licenses/LICENSE-2.0
  22:Source\TransformFunctions/arm_cfft_radix4_q15.c ****  *
  23:Source\TransformFunctions/arm_cfft_radix4_q15.c ****  * Unless required by applicable law or agreed to in writing, software
  24:Source\TransformFunctions/arm_cfft_radix4_q15.c ****  * distributed under the License is distributed on an AS IS BASIS, WITHOUT
  25:Source\TransformFunctions/arm_cfft_radix4_q15.c ****  * WARRANTIES OR CONDITIONS OF ANY KIND, either express or implied.
  26:Source\TransformFunctions/arm_cfft_radix4_q15.c ****  * See the License for the specific language governing permissions and
  27:Source\TransformFunctions/arm_cfft_radix4_q15.c ****  * limitations under the License.
  28:Source\TransformFunctions/arm_cfft_radix4_q15.c ****  */
  29:Source\TransformFunctions/arm_cfft_radix4_q15.c **** 
  30:Source\TransformFunctions/arm_cfft_radix4_q15.c **** #include "arm_math.h"
  31:Source\TransformFunctions/arm_cfft_radix4_q15.c **** 
  32:Source\TransformFunctions/arm_cfft_radix4_q15.c **** 
ARM GAS  C:\Users\fneves\AppData\Local\Temp\cc0ayw4Y.s 			page 2


  33:Source\TransformFunctions/arm_cfft_radix4_q15.c **** void arm_radix4_butterfly_q15(
  34:Source\TransformFunctions/arm_cfft_radix4_q15.c ****   q15_t * pSrc16,
  35:Source\TransformFunctions/arm_cfft_radix4_q15.c ****   uint32_t fftLen,
  36:Source\TransformFunctions/arm_cfft_radix4_q15.c ****   q15_t * pCoef16,
  37:Source\TransformFunctions/arm_cfft_radix4_q15.c ****   uint32_t twidCoefModifier);
  38:Source\TransformFunctions/arm_cfft_radix4_q15.c **** 
  39:Source\TransformFunctions/arm_cfft_radix4_q15.c **** void arm_radix4_butterfly_inverse_q15(
  40:Source\TransformFunctions/arm_cfft_radix4_q15.c ****   q15_t * pSrc16,
  41:Source\TransformFunctions/arm_cfft_radix4_q15.c ****   uint32_t fftLen,
  42:Source\TransformFunctions/arm_cfft_radix4_q15.c ****   q15_t * pCoef16,
  43:Source\TransformFunctions/arm_cfft_radix4_q15.c ****   uint32_t twidCoefModifier);
  44:Source\TransformFunctions/arm_cfft_radix4_q15.c **** 
  45:Source\TransformFunctions/arm_cfft_radix4_q15.c **** void arm_bitreversal_q15(
  46:Source\TransformFunctions/arm_cfft_radix4_q15.c ****   q15_t * pSrc,
  47:Source\TransformFunctions/arm_cfft_radix4_q15.c ****   uint32_t fftLen,
  48:Source\TransformFunctions/arm_cfft_radix4_q15.c ****   uint16_t bitRevFactor,
  49:Source\TransformFunctions/arm_cfft_radix4_q15.c ****   uint16_t * pBitRevTab);
  50:Source\TransformFunctions/arm_cfft_radix4_q15.c **** 
  51:Source\TransformFunctions/arm_cfft_radix4_q15.c **** /**
  52:Source\TransformFunctions/arm_cfft_radix4_q15.c ****  * @ingroup groupTransforms
  53:Source\TransformFunctions/arm_cfft_radix4_q15.c ****  */
  54:Source\TransformFunctions/arm_cfft_radix4_q15.c **** 
  55:Source\TransformFunctions/arm_cfft_radix4_q15.c **** /**
  56:Source\TransformFunctions/arm_cfft_radix4_q15.c ****  * @addtogroup ComplexFFT
  57:Source\TransformFunctions/arm_cfft_radix4_q15.c ****  * @{
  58:Source\TransformFunctions/arm_cfft_radix4_q15.c ****  */
  59:Source\TransformFunctions/arm_cfft_radix4_q15.c **** 
  60:Source\TransformFunctions/arm_cfft_radix4_q15.c **** 
  61:Source\TransformFunctions/arm_cfft_radix4_q15.c **** /**
  62:Source\TransformFunctions/arm_cfft_radix4_q15.c ****  * @details
  63:Source\TransformFunctions/arm_cfft_radix4_q15.c ****  * @brief Processing function for the Q15 CFFT/CIFFT.
  64:Source\TransformFunctions/arm_cfft_radix4_q15.c ****  * @deprecated Do not use this function.  It has been superseded by \ref arm_cfft_q15 and will be r
  65:Source\TransformFunctions/arm_cfft_radix4_q15.c ****  * @param[in]      *S    points to an instance of the Q15 CFFT/CIFFT structure.
  66:Source\TransformFunctions/arm_cfft_radix4_q15.c ****  * @param[in, out] *pSrc points to the complex data buffer. Processing occurs in-place.
  67:Source\TransformFunctions/arm_cfft_radix4_q15.c ****  * @return none.
  68:Source\TransformFunctions/arm_cfft_radix4_q15.c ****  *
  69:Source\TransformFunctions/arm_cfft_radix4_q15.c ****  * \par Input and output formats:
  70:Source\TransformFunctions/arm_cfft_radix4_q15.c ****  * \par
  71:Source\TransformFunctions/arm_cfft_radix4_q15.c ****  * Internally input is downscaled by 2 for every stage to avoid saturations inside CFFT/CIFFT proce
  72:Source\TransformFunctions/arm_cfft_radix4_q15.c ****  * Hence the output format is different for different FFT sizes.
  73:Source\TransformFunctions/arm_cfft_radix4_q15.c ****  * The input and output formats for different FFT sizes and number of bits to upscale are mentioned
  74:Source\TransformFunctions/arm_cfft_radix4_q15.c ****  * \par
  75:Source\TransformFunctions/arm_cfft_radix4_q15.c ****  * \image html CFFTQ15.gif "Input and Output Formats for Q15 CFFT"
  76:Source\TransformFunctions/arm_cfft_radix4_q15.c ****  * \image html CIFFTQ15.gif "Input and Output Formats for Q15 CIFFT"
  77:Source\TransformFunctions/arm_cfft_radix4_q15.c ****  */
  78:Source\TransformFunctions/arm_cfft_radix4_q15.c **** 
  79:Source\TransformFunctions/arm_cfft_radix4_q15.c **** void arm_cfft_radix4_q15(
  80:Source\TransformFunctions/arm_cfft_radix4_q15.c ****   const arm_cfft_radix4_instance_q15 * S,
  81:Source\TransformFunctions/arm_cfft_radix4_q15.c ****   q15_t * pSrc)
  82:Source\TransformFunctions/arm_cfft_radix4_q15.c **** {
  26              		.loc 1 82 0
  27              		.cfi_startproc
  28 0000 90B5     		push	{r4, r7, lr}
  29              		.cfi_def_cfa_offset 12
  30              		.cfi_offset 4, -12
  31              		.cfi_offset 7, -8
  32              		.cfi_offset 14, -4
ARM GAS  C:\Users\fneves\AppData\Local\Temp\cc0ayw4Y.s 			page 3


  33 0002 83B0     		sub	sp, sp, #12
  34              		.cfi_def_cfa_offset 24
  35 0004 00AF     		add	r7, sp, #0
  36              		.cfi_def_cfa_register 7
  37 0006 7860     		str	r0, [r7, #4]
  38 0008 3960     		str	r1, [r7]
  83:Source\TransformFunctions/arm_cfft_radix4_q15.c ****   if (S->ifftFlag == 1u)
  39              		.loc 1 83 0
  40 000a 7B68     		ldr	r3, [r7, #4]
  41 000c 9B78     		ldrb	r3, [r3, #2]
  42 000e 012B     		cmp	r3, #1
  43 0010 0DD1     		bne	.L2
  84:Source\TransformFunctions/arm_cfft_radix4_q15.c ****   {
  85:Source\TransformFunctions/arm_cfft_radix4_q15.c ****     /*  Complex IFFT radix-4  */
  86:Source\TransformFunctions/arm_cfft_radix4_q15.c ****     arm_radix4_butterfly_inverse_q15(pSrc, S->fftLen, S->pTwiddle, S->twidCoefModifier);
  44              		.loc 1 86 0
  45 0012 7B68     		ldr	r3, [r7, #4]
  46 0014 1B88     		ldrh	r3, [r3]
  47 0016 191C     		mov	r1, r3
  48 0018 7B68     		ldr	r3, [r7, #4]
  49 001a 5A68     		ldr	r2, [r3, #4]
  50 001c 7B68     		ldr	r3, [r7, #4]
  51 001e 9B89     		ldrh	r3, [r3, #12]
  52 0020 1C1C     		mov	r4, r3
  53 0022 3B68     		ldr	r3, [r7]
  54 0024 181C     		mov	r0, r3
  55 0026 231C     		mov	r3, r4
  56 0028 FFF7FEFF 		bl	arm_radix4_butterfly_inverse_q15
  57 002c 0CE0     		b	.L3
  58              	.L2:
  87:Source\TransformFunctions/arm_cfft_radix4_q15.c ****   }
  88:Source\TransformFunctions/arm_cfft_radix4_q15.c ****   else
  89:Source\TransformFunctions/arm_cfft_radix4_q15.c ****   {
  90:Source\TransformFunctions/arm_cfft_radix4_q15.c ****     /*  Complex FFT radix-4  */
  91:Source\TransformFunctions/arm_cfft_radix4_q15.c ****     arm_radix4_butterfly_q15(pSrc, S->fftLen, S->pTwiddle, S->twidCoefModifier);
  59              		.loc 1 91 0
  60 002e 7B68     		ldr	r3, [r7, #4]
  61 0030 1B88     		ldrh	r3, [r3]
  62 0032 191C     		mov	r1, r3
  63 0034 7B68     		ldr	r3, [r7, #4]
  64 0036 5A68     		ldr	r2, [r3, #4]
  65 0038 7B68     		ldr	r3, [r7, #4]
  66 003a 9B89     		ldrh	r3, [r3, #12]
  67 003c 1C1C     		mov	r4, r3
  68 003e 3B68     		ldr	r3, [r7]
  69 0040 181C     		mov	r0, r3
  70 0042 231C     		mov	r3, r4
  71 0044 FFF7FEFF 		bl	arm_radix4_butterfly_q15
  72              	.L3:
  92:Source\TransformFunctions/arm_cfft_radix4_q15.c ****   }
  93:Source\TransformFunctions/arm_cfft_radix4_q15.c **** 
  94:Source\TransformFunctions/arm_cfft_radix4_q15.c ****   if (S->bitReverseFlag == 1u)
  73              		.loc 1 94 0
  74 0048 7B68     		ldr	r3, [r7, #4]
  75 004a DB78     		ldrb	r3, [r3, #3]
  76 004c 012B     		cmp	r3, #1
  77 004e 0BD1     		bne	.L1
ARM GAS  C:\Users\fneves\AppData\Local\Temp\cc0ayw4Y.s 			page 4


  95:Source\TransformFunctions/arm_cfft_radix4_q15.c ****   {
  96:Source\TransformFunctions/arm_cfft_radix4_q15.c ****     /*  Bit Reversal */
  97:Source\TransformFunctions/arm_cfft_radix4_q15.c ****     arm_bitreversal_q15(pSrc, S->fftLen, S->bitRevFactor, S->pBitRevTable);
  78              		.loc 1 97 0
  79 0050 7B68     		ldr	r3, [r7, #4]
  80 0052 1B88     		ldrh	r3, [r3]
  81 0054 1C1C     		mov	r4, r3
  82 0056 7B68     		ldr	r3, [r7, #4]
  83 0058 DA89     		ldrh	r2, [r3, #14]
  84 005a 7B68     		ldr	r3, [r7, #4]
  85 005c 9B68     		ldr	r3, [r3, #8]
  86 005e 3968     		ldr	r1, [r7]
  87 0060 081C     		mov	r0, r1
  88 0062 211C     		mov	r1, r4
  89 0064 FFF7FEFF 		bl	arm_bitreversal_q15
  90              	.L1:
  98:Source\TransformFunctions/arm_cfft_radix4_q15.c ****   }
  99:Source\TransformFunctions/arm_cfft_radix4_q15.c **** 
 100:Source\TransformFunctions/arm_cfft_radix4_q15.c **** }
  91              		.loc 1 100 0
  92 0068 BD46     		mov	sp, r7
  93 006a 03B0     		add	sp, sp, #12
  94              		@ sp needed
  95 006c 90BD     		pop	{r4, r7, pc}
  96              		.cfi_endproc
  97              	.LFE82:
  98              		.size	arm_cfft_radix4_q15, .-arm_cfft_radix4_q15
  99 006e C046     		.section	.text.arm_radix4_butterfly_q15,"ax",%progbits
 100              		.align	2
 101              		.global	arm_radix4_butterfly_q15
 102              		.code	16
 103              		.thumb_func
 104              		.type	arm_radix4_butterfly_q15, %function
 105              	arm_radix4_butterfly_q15:
 106              	.LFB83:
 101:Source\TransformFunctions/arm_cfft_radix4_q15.c **** 
 102:Source\TransformFunctions/arm_cfft_radix4_q15.c **** /**
 103:Source\TransformFunctions/arm_cfft_radix4_q15.c ****  * @} end of ComplexFFT group
 104:Source\TransformFunctions/arm_cfft_radix4_q15.c ****  */
 105:Source\TransformFunctions/arm_cfft_radix4_q15.c **** 
 106:Source\TransformFunctions/arm_cfft_radix4_q15.c **** /*
 107:Source\TransformFunctions/arm_cfft_radix4_q15.c **** * Radix-4 FFT algorithm used is :
 108:Source\TransformFunctions/arm_cfft_radix4_q15.c **** *
 109:Source\TransformFunctions/arm_cfft_radix4_q15.c **** * Input real and imaginary data:
 110:Source\TransformFunctions/arm_cfft_radix4_q15.c **** * x(n) = xa + j * ya
 111:Source\TransformFunctions/arm_cfft_radix4_q15.c **** * x(n+N/4 ) = xb + j * yb
 112:Source\TransformFunctions/arm_cfft_radix4_q15.c **** * x(n+N/2 ) = xc + j * yc
 113:Source\TransformFunctions/arm_cfft_radix4_q15.c **** * x(n+3N 4) = xd + j * yd
 114:Source\TransformFunctions/arm_cfft_radix4_q15.c **** *
 115:Source\TransformFunctions/arm_cfft_radix4_q15.c **** *
 116:Source\TransformFunctions/arm_cfft_radix4_q15.c **** * Output real and imaginary data:
 117:Source\TransformFunctions/arm_cfft_radix4_q15.c **** * x(4r) = xa'+ j * ya'
 118:Source\TransformFunctions/arm_cfft_radix4_q15.c **** * x(4r+1) = xb'+ j * yb'
 119:Source\TransformFunctions/arm_cfft_radix4_q15.c **** * x(4r+2) = xc'+ j * yc'
 120:Source\TransformFunctions/arm_cfft_radix4_q15.c **** * x(4r+3) = xd'+ j * yd'
 121:Source\TransformFunctions/arm_cfft_radix4_q15.c **** *
 122:Source\TransformFunctions/arm_cfft_radix4_q15.c **** *
ARM GAS  C:\Users\fneves\AppData\Local\Temp\cc0ayw4Y.s 			page 5


 123:Source\TransformFunctions/arm_cfft_radix4_q15.c **** * Twiddle factors for radix-4 FFT:
 124:Source\TransformFunctions/arm_cfft_radix4_q15.c **** * Wn = co1 + j * (- si1)
 125:Source\TransformFunctions/arm_cfft_radix4_q15.c **** * W2n = co2 + j * (- si2)
 126:Source\TransformFunctions/arm_cfft_radix4_q15.c **** * W3n = co3 + j * (- si3)
 127:Source\TransformFunctions/arm_cfft_radix4_q15.c **** 
 128:Source\TransformFunctions/arm_cfft_radix4_q15.c **** * The real and imaginary output values for the radix-4 butterfly are
 129:Source\TransformFunctions/arm_cfft_radix4_q15.c **** * xa' = xa + xb + xc + xd
 130:Source\TransformFunctions/arm_cfft_radix4_q15.c **** * ya' = ya + yb + yc + yd
 131:Source\TransformFunctions/arm_cfft_radix4_q15.c **** * xb' = (xa+yb-xc-yd)* co1 + (ya-xb-yc+xd)* (si1)
 132:Source\TransformFunctions/arm_cfft_radix4_q15.c **** * yb' = (ya-xb-yc+xd)* co1 - (xa+yb-xc-yd)* (si1)
 133:Source\TransformFunctions/arm_cfft_radix4_q15.c **** * xc' = (xa-xb+xc-xd)* co2 + (ya-yb+yc-yd)* (si2)
 134:Source\TransformFunctions/arm_cfft_radix4_q15.c **** * yc' = (ya-yb+yc-yd)* co2 - (xa-xb+xc-xd)* (si2)
 135:Source\TransformFunctions/arm_cfft_radix4_q15.c **** * xd' = (xa-yb-xc+yd)* co3 + (ya+xb-yc-xd)* (si3)
 136:Source\TransformFunctions/arm_cfft_radix4_q15.c **** * yd' = (ya+xb-yc-xd)* co3 - (xa-yb-xc+yd)* (si3)
 137:Source\TransformFunctions/arm_cfft_radix4_q15.c **** *
 138:Source\TransformFunctions/arm_cfft_radix4_q15.c **** */
 139:Source\TransformFunctions/arm_cfft_radix4_q15.c **** 
 140:Source\TransformFunctions/arm_cfft_radix4_q15.c **** /**
 141:Source\TransformFunctions/arm_cfft_radix4_q15.c ****  * @brief  Core function for the Q15 CFFT butterfly process.
 142:Source\TransformFunctions/arm_cfft_radix4_q15.c ****  * @param[in, out] *pSrc16          points to the in-place buffer of Q15 data type.
 143:Source\TransformFunctions/arm_cfft_radix4_q15.c ****  * @param[in]      fftLen           length of the FFT.
 144:Source\TransformFunctions/arm_cfft_radix4_q15.c ****  * @param[in]      *pCoef16         points to twiddle coefficient buffer.
 145:Source\TransformFunctions/arm_cfft_radix4_q15.c ****  * @param[in]      twidCoefModifier twiddle coefficient modifier that supports different size FFTs 
 146:Source\TransformFunctions/arm_cfft_radix4_q15.c ****  * @return none.
 147:Source\TransformFunctions/arm_cfft_radix4_q15.c ****  */
 148:Source\TransformFunctions/arm_cfft_radix4_q15.c **** 
 149:Source\TransformFunctions/arm_cfft_radix4_q15.c **** void arm_radix4_butterfly_q15(
 150:Source\TransformFunctions/arm_cfft_radix4_q15.c ****   q15_t * pSrc16,
 151:Source\TransformFunctions/arm_cfft_radix4_q15.c ****   uint32_t fftLen,
 152:Source\TransformFunctions/arm_cfft_radix4_q15.c ****   q15_t * pCoef16,
 153:Source\TransformFunctions/arm_cfft_radix4_q15.c ****   uint32_t twidCoefModifier)
 154:Source\TransformFunctions/arm_cfft_radix4_q15.c **** {
 107              		.loc 1 154 0
 108              		.cfi_startproc
 109 0000 80B5     		push	{r7, lr}
 110              		.cfi_def_cfa_offset 8
 111              		.cfi_offset 7, -8
 112              		.cfi_offset 14, -4
 113 0002 D74F     		ldr	r7, .L225
 114 0004 BD44     		add	sp, sp, r7
 115              		.cfi_def_cfa_offset 696
 116 0006 00AF     		add	r7, sp, #0
 117              		.cfi_def_cfa_register 7
 118 0008 F860     		str	r0, [r7, #12]
 119 000a B960     		str	r1, [r7, #8]
 120 000c 7A60     		str	r2, [r7, #4]
 121 000e 3B60     		str	r3, [r7]
 155:Source\TransformFunctions/arm_cfft_radix4_q15.c **** 
 156:Source\TransformFunctions/arm_cfft_radix4_q15.c **** #if defined (ARM_MATH_DSP)
 157:Source\TransformFunctions/arm_cfft_radix4_q15.c **** 
 158:Source\TransformFunctions/arm_cfft_radix4_q15.c ****   /* Run the below code for Cortex-M4 and Cortex-M3 */
 159:Source\TransformFunctions/arm_cfft_radix4_q15.c **** 
 160:Source\TransformFunctions/arm_cfft_radix4_q15.c ****   q31_t R, S, T, U;
 161:Source\TransformFunctions/arm_cfft_radix4_q15.c ****   q31_t C1, C2, C3, out1, out2;
 162:Source\TransformFunctions/arm_cfft_radix4_q15.c ****   uint32_t n1, n2, ic, i0, j, k;
 163:Source\TransformFunctions/arm_cfft_radix4_q15.c **** 
 164:Source\TransformFunctions/arm_cfft_radix4_q15.c ****   q15_t *ptr1;
ARM GAS  C:\Users\fneves\AppData\Local\Temp\cc0ayw4Y.s 			page 6


 165:Source\TransformFunctions/arm_cfft_radix4_q15.c ****   q15_t *pSi0;
 166:Source\TransformFunctions/arm_cfft_radix4_q15.c ****   q15_t *pSi1;
 167:Source\TransformFunctions/arm_cfft_radix4_q15.c ****   q15_t *pSi2;
 168:Source\TransformFunctions/arm_cfft_radix4_q15.c ****   q15_t *pSi3;
 169:Source\TransformFunctions/arm_cfft_radix4_q15.c **** 
 170:Source\TransformFunctions/arm_cfft_radix4_q15.c ****   q31_t xaya, xbyb, xcyc, xdyd;
 171:Source\TransformFunctions/arm_cfft_radix4_q15.c **** 
 172:Source\TransformFunctions/arm_cfft_radix4_q15.c ****   /* Total process is divided into three stages */
 173:Source\TransformFunctions/arm_cfft_radix4_q15.c **** 
 174:Source\TransformFunctions/arm_cfft_radix4_q15.c ****   /* process first stage, middle stages, & last stage */
 175:Source\TransformFunctions/arm_cfft_radix4_q15.c **** 
 176:Source\TransformFunctions/arm_cfft_radix4_q15.c ****   /*  Initializations for the first stage */
 177:Source\TransformFunctions/arm_cfft_radix4_q15.c ****   n2 = fftLen;
 178:Source\TransformFunctions/arm_cfft_radix4_q15.c ****   n1 = n2;
 179:Source\TransformFunctions/arm_cfft_radix4_q15.c **** 
 180:Source\TransformFunctions/arm_cfft_radix4_q15.c ****   /* n2 = fftLen/4 */
 181:Source\TransformFunctions/arm_cfft_radix4_q15.c ****   n2 >>= 2u;
 182:Source\TransformFunctions/arm_cfft_radix4_q15.c **** 
 183:Source\TransformFunctions/arm_cfft_radix4_q15.c ****   /* Index for twiddle coefficient */
 184:Source\TransformFunctions/arm_cfft_radix4_q15.c ****   ic = 0u;
 185:Source\TransformFunctions/arm_cfft_radix4_q15.c **** 
 186:Source\TransformFunctions/arm_cfft_radix4_q15.c ****   /* Index for input read and output write */
 187:Source\TransformFunctions/arm_cfft_radix4_q15.c ****   j = n2;
 188:Source\TransformFunctions/arm_cfft_radix4_q15.c **** 
 189:Source\TransformFunctions/arm_cfft_radix4_q15.c ****   pSi0 = pSrc16;
 190:Source\TransformFunctions/arm_cfft_radix4_q15.c ****   pSi1 = pSi0 + 2 * n2;
 191:Source\TransformFunctions/arm_cfft_radix4_q15.c ****   pSi2 = pSi1 + 2 * n2;
 192:Source\TransformFunctions/arm_cfft_radix4_q15.c ****   pSi3 = pSi2 + 2 * n2;
 193:Source\TransformFunctions/arm_cfft_radix4_q15.c **** 
 194:Source\TransformFunctions/arm_cfft_radix4_q15.c ****   /* Input is in 1.15(q15) format */
 195:Source\TransformFunctions/arm_cfft_radix4_q15.c **** 
 196:Source\TransformFunctions/arm_cfft_radix4_q15.c ****   /*  start of first stage process */
 197:Source\TransformFunctions/arm_cfft_radix4_q15.c ****   do
 198:Source\TransformFunctions/arm_cfft_radix4_q15.c ****   {
 199:Source\TransformFunctions/arm_cfft_radix4_q15.c ****     /*  Butterfly implementation */
 200:Source\TransformFunctions/arm_cfft_radix4_q15.c **** 
 201:Source\TransformFunctions/arm_cfft_radix4_q15.c ****     /*  Reading i0, i0+fftLen/2 inputs */
 202:Source\TransformFunctions/arm_cfft_radix4_q15.c ****     /* Read ya (real), xa(imag) input */
 203:Source\TransformFunctions/arm_cfft_radix4_q15.c ****     T = _SIMD32_OFFSET(pSi0);
 204:Source\TransformFunctions/arm_cfft_radix4_q15.c ****     T = __SHADD16(T, 0); // this is just a SIMD arithmetic shift right by 1
 205:Source\TransformFunctions/arm_cfft_radix4_q15.c ****     T = __SHADD16(T, 0); // it turns out doing this twice is 2 cycles, the alternative takes 3 cycl
 206:Source\TransformFunctions/arm_cfft_radix4_q15.c ****     //in = ((int16_t) (T & 0xFFFF)) >> 2;       // alternative code that takes 3 cycles
 207:Source\TransformFunctions/arm_cfft_radix4_q15.c ****     //T = ((T >> 2) & 0xFFFF0000) | (in & 0xFFFF);
 208:Source\TransformFunctions/arm_cfft_radix4_q15.c **** 
 209:Source\TransformFunctions/arm_cfft_radix4_q15.c ****     /* Read yc (real), xc(imag) input */
 210:Source\TransformFunctions/arm_cfft_radix4_q15.c ****     S = _SIMD32_OFFSET(pSi2);
 211:Source\TransformFunctions/arm_cfft_radix4_q15.c ****     S = __SHADD16(S, 0);
 212:Source\TransformFunctions/arm_cfft_radix4_q15.c ****     S = __SHADD16(S, 0);
 213:Source\TransformFunctions/arm_cfft_radix4_q15.c **** 
 214:Source\TransformFunctions/arm_cfft_radix4_q15.c ****     /* R = packed((ya + yc), (xa + xc) ) */
 215:Source\TransformFunctions/arm_cfft_radix4_q15.c ****     R = __QADD16(T, S);
 216:Source\TransformFunctions/arm_cfft_radix4_q15.c **** 
 217:Source\TransformFunctions/arm_cfft_radix4_q15.c ****     /* S = packed((ya - yc), (xa - xc) ) */
 218:Source\TransformFunctions/arm_cfft_radix4_q15.c ****     S = __QSUB16(T, S);
 219:Source\TransformFunctions/arm_cfft_radix4_q15.c **** 
 220:Source\TransformFunctions/arm_cfft_radix4_q15.c ****     /*  Reading i0+fftLen/4 , i0+3fftLen/4 inputs */
 221:Source\TransformFunctions/arm_cfft_radix4_q15.c ****     /* Read yb (real), xb(imag) input */
ARM GAS  C:\Users\fneves\AppData\Local\Temp\cc0ayw4Y.s 			page 7


 222:Source\TransformFunctions/arm_cfft_radix4_q15.c ****     T = _SIMD32_OFFSET(pSi1);
 223:Source\TransformFunctions/arm_cfft_radix4_q15.c ****     T = __SHADD16(T, 0);
 224:Source\TransformFunctions/arm_cfft_radix4_q15.c ****     T = __SHADD16(T, 0);
 225:Source\TransformFunctions/arm_cfft_radix4_q15.c **** 
 226:Source\TransformFunctions/arm_cfft_radix4_q15.c ****     /* Read yd (real), xd(imag) input */
 227:Source\TransformFunctions/arm_cfft_radix4_q15.c ****     U = _SIMD32_OFFSET(pSi3);
 228:Source\TransformFunctions/arm_cfft_radix4_q15.c ****     U = __SHADD16(U, 0);
 229:Source\TransformFunctions/arm_cfft_radix4_q15.c ****     U = __SHADD16(U, 0);
 230:Source\TransformFunctions/arm_cfft_radix4_q15.c **** 
 231:Source\TransformFunctions/arm_cfft_radix4_q15.c ****     /* T = packed((yb + yd), (xb + xd) ) */
 232:Source\TransformFunctions/arm_cfft_radix4_q15.c ****     T = __QADD16(T, U);
 233:Source\TransformFunctions/arm_cfft_radix4_q15.c **** 
 234:Source\TransformFunctions/arm_cfft_radix4_q15.c ****     /*  writing the butterfly processed i0 sample */
 235:Source\TransformFunctions/arm_cfft_radix4_q15.c ****     /* xa' = xa + xb + xc + xd */
 236:Source\TransformFunctions/arm_cfft_radix4_q15.c ****     /* ya' = ya + yb + yc + yd */
 237:Source\TransformFunctions/arm_cfft_radix4_q15.c ****     _SIMD32_OFFSET(pSi0) = __SHADD16(R, T);
 238:Source\TransformFunctions/arm_cfft_radix4_q15.c ****     pSi0 += 2;
 239:Source\TransformFunctions/arm_cfft_radix4_q15.c **** 
 240:Source\TransformFunctions/arm_cfft_radix4_q15.c ****     /* R = packed((ya + yc) - (yb + yd), (xa + xc)- (xb + xd)) */
 241:Source\TransformFunctions/arm_cfft_radix4_q15.c ****     R = __QSUB16(R, T);
 242:Source\TransformFunctions/arm_cfft_radix4_q15.c **** 
 243:Source\TransformFunctions/arm_cfft_radix4_q15.c ****     /* co2 & si2 are read from SIMD Coefficient pointer */
 244:Source\TransformFunctions/arm_cfft_radix4_q15.c ****     C2 = _SIMD32_OFFSET(pCoef16 + (4u * ic));
 245:Source\TransformFunctions/arm_cfft_radix4_q15.c **** 
 246:Source\TransformFunctions/arm_cfft_radix4_q15.c **** #ifndef ARM_MATH_BIG_ENDIAN
 247:Source\TransformFunctions/arm_cfft_radix4_q15.c **** 
 248:Source\TransformFunctions/arm_cfft_radix4_q15.c ****     /* xc' = (xa-xb+xc-xd)* co2 + (ya-yb+yc-yd)* (si2) */
 249:Source\TransformFunctions/arm_cfft_radix4_q15.c ****     out1 = __SMUAD(C2, R) >> 16u;
 250:Source\TransformFunctions/arm_cfft_radix4_q15.c ****     /* yc' = (ya-yb+yc-yd)* co2 - (xa-xb+xc-xd)* (si2) */
 251:Source\TransformFunctions/arm_cfft_radix4_q15.c ****     out2 = __SMUSDX(C2, R);
 252:Source\TransformFunctions/arm_cfft_radix4_q15.c **** 
 253:Source\TransformFunctions/arm_cfft_radix4_q15.c **** #else
 254:Source\TransformFunctions/arm_cfft_radix4_q15.c **** 
 255:Source\TransformFunctions/arm_cfft_radix4_q15.c ****     /* xc' = (ya-yb+yc-yd)* co2 - (xa-xb+xc-xd)* (si2) */
 256:Source\TransformFunctions/arm_cfft_radix4_q15.c ****     out1 = __SMUSDX(R, C2) >> 16u;
 257:Source\TransformFunctions/arm_cfft_radix4_q15.c ****     /* yc' = (xa-xb+xc-xd)* co2 + (ya-yb+yc-yd)* (si2) */
 258:Source\TransformFunctions/arm_cfft_radix4_q15.c ****     out2 = __SMUAD(C2, R);
 259:Source\TransformFunctions/arm_cfft_radix4_q15.c **** 
 260:Source\TransformFunctions/arm_cfft_radix4_q15.c **** #endif /*      #ifndef ARM_MATH_BIG_ENDIAN     */
 261:Source\TransformFunctions/arm_cfft_radix4_q15.c **** 
 262:Source\TransformFunctions/arm_cfft_radix4_q15.c ****     /*  Reading i0+fftLen/4 */
 263:Source\TransformFunctions/arm_cfft_radix4_q15.c ****     /* T = packed(yb, xb) */
 264:Source\TransformFunctions/arm_cfft_radix4_q15.c ****     T = _SIMD32_OFFSET(pSi1);
 265:Source\TransformFunctions/arm_cfft_radix4_q15.c ****     T = __SHADD16(T, 0);
 266:Source\TransformFunctions/arm_cfft_radix4_q15.c ****     T = __SHADD16(T, 0);
 267:Source\TransformFunctions/arm_cfft_radix4_q15.c **** 
 268:Source\TransformFunctions/arm_cfft_radix4_q15.c ****     /* writing the butterfly processed i0 + fftLen/4 sample */
 269:Source\TransformFunctions/arm_cfft_radix4_q15.c ****     /* writing output(xc', yc') in little endian format */
 270:Source\TransformFunctions/arm_cfft_radix4_q15.c ****     _SIMD32_OFFSET(pSi1) =
 271:Source\TransformFunctions/arm_cfft_radix4_q15.c ****       (q31_t) ((out2) & 0xFFFF0000) | (out1 & 0x0000FFFF);
 272:Source\TransformFunctions/arm_cfft_radix4_q15.c ****     pSi1 += 2;
 273:Source\TransformFunctions/arm_cfft_radix4_q15.c **** 
 274:Source\TransformFunctions/arm_cfft_radix4_q15.c ****     /*  Butterfly calculations */
 275:Source\TransformFunctions/arm_cfft_radix4_q15.c ****     /* U = packed(yd, xd) */
 276:Source\TransformFunctions/arm_cfft_radix4_q15.c ****     U = _SIMD32_OFFSET(pSi3);
 277:Source\TransformFunctions/arm_cfft_radix4_q15.c ****     U = __SHADD16(U, 0);
 278:Source\TransformFunctions/arm_cfft_radix4_q15.c ****     U = __SHADD16(U, 0);
ARM GAS  C:\Users\fneves\AppData\Local\Temp\cc0ayw4Y.s 			page 8


 279:Source\TransformFunctions/arm_cfft_radix4_q15.c **** 
 280:Source\TransformFunctions/arm_cfft_radix4_q15.c ****     /* T = packed(yb-yd, xb-xd) */
 281:Source\TransformFunctions/arm_cfft_radix4_q15.c ****     T = __QSUB16(T, U);
 282:Source\TransformFunctions/arm_cfft_radix4_q15.c **** 
 283:Source\TransformFunctions/arm_cfft_radix4_q15.c **** #ifndef ARM_MATH_BIG_ENDIAN
 284:Source\TransformFunctions/arm_cfft_radix4_q15.c **** 
 285:Source\TransformFunctions/arm_cfft_radix4_q15.c ****     /* R = packed((ya-yc) + (xb- xd) , (xa-xc) - (yb-yd)) */
 286:Source\TransformFunctions/arm_cfft_radix4_q15.c ****     R = __QASX(S, T);
 287:Source\TransformFunctions/arm_cfft_radix4_q15.c ****     /* S = packed((ya-yc) - (xb- xd),  (xa-xc) + (yb-yd)) */
 288:Source\TransformFunctions/arm_cfft_radix4_q15.c ****     S = __QSAX(S, T);
 289:Source\TransformFunctions/arm_cfft_radix4_q15.c **** 
 290:Source\TransformFunctions/arm_cfft_radix4_q15.c **** #else
 291:Source\TransformFunctions/arm_cfft_radix4_q15.c **** 
 292:Source\TransformFunctions/arm_cfft_radix4_q15.c ****     /* R = packed((ya-yc) + (xb- xd) , (xa-xc) - (yb-yd)) */
 293:Source\TransformFunctions/arm_cfft_radix4_q15.c ****     R = __QSAX(S, T);
 294:Source\TransformFunctions/arm_cfft_radix4_q15.c ****     /* S = packed((ya-yc) - (xb- xd),  (xa-xc) + (yb-yd)) */
 295:Source\TransformFunctions/arm_cfft_radix4_q15.c ****     S = __QASX(S, T);
 296:Source\TransformFunctions/arm_cfft_radix4_q15.c **** 
 297:Source\TransformFunctions/arm_cfft_radix4_q15.c **** #endif /*      #ifndef ARM_MATH_BIG_ENDIAN     */
 298:Source\TransformFunctions/arm_cfft_radix4_q15.c **** 
 299:Source\TransformFunctions/arm_cfft_radix4_q15.c ****     /* co1 & si1 are read from SIMD Coefficient pointer */
 300:Source\TransformFunctions/arm_cfft_radix4_q15.c ****     C1 = _SIMD32_OFFSET(pCoef16 + (2u * ic));
 301:Source\TransformFunctions/arm_cfft_radix4_q15.c ****     /*  Butterfly process for the i0+fftLen/2 sample */
 302:Source\TransformFunctions/arm_cfft_radix4_q15.c **** 
 303:Source\TransformFunctions/arm_cfft_radix4_q15.c **** #ifndef ARM_MATH_BIG_ENDIAN
 304:Source\TransformFunctions/arm_cfft_radix4_q15.c **** 
 305:Source\TransformFunctions/arm_cfft_radix4_q15.c ****     /* xb' = (xa+yb-xc-yd)* co1 + (ya-xb-yc+xd)* (si1) */
 306:Source\TransformFunctions/arm_cfft_radix4_q15.c ****     out1 = __SMUAD(C1, S) >> 16u;
 307:Source\TransformFunctions/arm_cfft_radix4_q15.c ****     /* yb' = (ya-xb-yc+xd)* co1 - (xa+yb-xc-yd)* (si1) */
 308:Source\TransformFunctions/arm_cfft_radix4_q15.c ****     out2 = __SMUSDX(C1, S);
 309:Source\TransformFunctions/arm_cfft_radix4_q15.c **** 
 310:Source\TransformFunctions/arm_cfft_radix4_q15.c **** #else
 311:Source\TransformFunctions/arm_cfft_radix4_q15.c **** 
 312:Source\TransformFunctions/arm_cfft_radix4_q15.c ****     /* xb' = (ya-xb-yc+xd)* co1 - (xa+yb-xc-yd)* (si1) */
 313:Source\TransformFunctions/arm_cfft_radix4_q15.c ****     out1 = __SMUSDX(S, C1) >> 16u;
 314:Source\TransformFunctions/arm_cfft_radix4_q15.c ****     /* yb' = (xa+yb-xc-yd)* co1 + (ya-xb-yc+xd)* (si1) */
 315:Source\TransformFunctions/arm_cfft_radix4_q15.c ****     out2 = __SMUAD(C1, S);
 316:Source\TransformFunctions/arm_cfft_radix4_q15.c **** 
 317:Source\TransformFunctions/arm_cfft_radix4_q15.c **** #endif /*      #ifndef ARM_MATH_BIG_ENDIAN     */
 318:Source\TransformFunctions/arm_cfft_radix4_q15.c **** 
 319:Source\TransformFunctions/arm_cfft_radix4_q15.c ****     /* writing output(xb', yb') in little endian format */
 320:Source\TransformFunctions/arm_cfft_radix4_q15.c ****     _SIMD32_OFFSET(pSi2) =
 321:Source\TransformFunctions/arm_cfft_radix4_q15.c ****       ((out2) & 0xFFFF0000) | ((out1) & 0x0000FFFF);
 322:Source\TransformFunctions/arm_cfft_radix4_q15.c ****     pSi2 += 2;
 323:Source\TransformFunctions/arm_cfft_radix4_q15.c **** 
 324:Source\TransformFunctions/arm_cfft_radix4_q15.c **** 
 325:Source\TransformFunctions/arm_cfft_radix4_q15.c ****     /* co3 & si3 are read from SIMD Coefficient pointer */
 326:Source\TransformFunctions/arm_cfft_radix4_q15.c ****     C3 = _SIMD32_OFFSET(pCoef16 + (6u * ic));
 327:Source\TransformFunctions/arm_cfft_radix4_q15.c ****     /*  Butterfly process for the i0+3fftLen/4 sample */
 328:Source\TransformFunctions/arm_cfft_radix4_q15.c **** 
 329:Source\TransformFunctions/arm_cfft_radix4_q15.c **** #ifndef ARM_MATH_BIG_ENDIAN
 330:Source\TransformFunctions/arm_cfft_radix4_q15.c **** 
 331:Source\TransformFunctions/arm_cfft_radix4_q15.c ****     /* xd' = (xa-yb-xc+yd)* co3 + (ya+xb-yc-xd)* (si3) */
 332:Source\TransformFunctions/arm_cfft_radix4_q15.c ****     out1 = __SMUAD(C3, R) >> 16u;
 333:Source\TransformFunctions/arm_cfft_radix4_q15.c ****     /* yd' = (ya+xb-yc-xd)* co3 - (xa-yb-xc+yd)* (si3) */
 334:Source\TransformFunctions/arm_cfft_radix4_q15.c ****     out2 = __SMUSDX(C3, R);
 335:Source\TransformFunctions/arm_cfft_radix4_q15.c **** 
ARM GAS  C:\Users\fneves\AppData\Local\Temp\cc0ayw4Y.s 			page 9


 336:Source\TransformFunctions/arm_cfft_radix4_q15.c **** #else
 337:Source\TransformFunctions/arm_cfft_radix4_q15.c **** 
 338:Source\TransformFunctions/arm_cfft_radix4_q15.c ****     /* xd' = (ya+xb-yc-xd)* co3 - (xa-yb-xc+yd)* (si3) */
 339:Source\TransformFunctions/arm_cfft_radix4_q15.c ****     out1 = __SMUSDX(R, C3) >> 16u;
 340:Source\TransformFunctions/arm_cfft_radix4_q15.c ****     /* yd' = (xa-yb-xc+yd)* co3 + (ya+xb-yc-xd)* (si3) */
 341:Source\TransformFunctions/arm_cfft_radix4_q15.c ****     out2 = __SMUAD(C3, R);
 342:Source\TransformFunctions/arm_cfft_radix4_q15.c **** 
 343:Source\TransformFunctions/arm_cfft_radix4_q15.c **** #endif /*      #ifndef ARM_MATH_BIG_ENDIAN     */
 344:Source\TransformFunctions/arm_cfft_radix4_q15.c **** 
 345:Source\TransformFunctions/arm_cfft_radix4_q15.c ****     /* writing output(xd', yd') in little endian format */
 346:Source\TransformFunctions/arm_cfft_radix4_q15.c ****     _SIMD32_OFFSET(pSi3) =
 347:Source\TransformFunctions/arm_cfft_radix4_q15.c ****       ((out2) & 0xFFFF0000) | (out1 & 0x0000FFFF);
 348:Source\TransformFunctions/arm_cfft_radix4_q15.c ****     pSi3 += 2;
 349:Source\TransformFunctions/arm_cfft_radix4_q15.c **** 
 350:Source\TransformFunctions/arm_cfft_radix4_q15.c ****     /*  Twiddle coefficients index modifier */
 351:Source\TransformFunctions/arm_cfft_radix4_q15.c ****     ic = ic + twidCoefModifier;
 352:Source\TransformFunctions/arm_cfft_radix4_q15.c **** 
 353:Source\TransformFunctions/arm_cfft_radix4_q15.c ****   } while (--j);
 354:Source\TransformFunctions/arm_cfft_radix4_q15.c ****   /* data is in 4.11(q11) format */
 355:Source\TransformFunctions/arm_cfft_radix4_q15.c **** 
 356:Source\TransformFunctions/arm_cfft_radix4_q15.c ****   /* end of first stage process */
 357:Source\TransformFunctions/arm_cfft_radix4_q15.c **** 
 358:Source\TransformFunctions/arm_cfft_radix4_q15.c **** 
 359:Source\TransformFunctions/arm_cfft_radix4_q15.c ****   /* start of middle stage process */
 360:Source\TransformFunctions/arm_cfft_radix4_q15.c **** 
 361:Source\TransformFunctions/arm_cfft_radix4_q15.c ****   /*  Twiddle coefficients index modifier */
 362:Source\TransformFunctions/arm_cfft_radix4_q15.c ****   twidCoefModifier <<= 2u;
 363:Source\TransformFunctions/arm_cfft_radix4_q15.c **** 
 364:Source\TransformFunctions/arm_cfft_radix4_q15.c ****   /*  Calculation of Middle stage */
 365:Source\TransformFunctions/arm_cfft_radix4_q15.c ****   for (k = fftLen / 4u; k > 4u; k >>= 2u)
 366:Source\TransformFunctions/arm_cfft_radix4_q15.c ****   {
 367:Source\TransformFunctions/arm_cfft_radix4_q15.c ****     /*  Initializations for the middle stage */
 368:Source\TransformFunctions/arm_cfft_radix4_q15.c ****     n1 = n2;
 369:Source\TransformFunctions/arm_cfft_radix4_q15.c ****     n2 >>= 2u;
 370:Source\TransformFunctions/arm_cfft_radix4_q15.c ****     ic = 0u;
 371:Source\TransformFunctions/arm_cfft_radix4_q15.c **** 
 372:Source\TransformFunctions/arm_cfft_radix4_q15.c ****     for (j = 0u; j <= (n2 - 1u); j++)
 373:Source\TransformFunctions/arm_cfft_radix4_q15.c ****     {
 374:Source\TransformFunctions/arm_cfft_radix4_q15.c ****       /*  index calculation for the coefficients */
 375:Source\TransformFunctions/arm_cfft_radix4_q15.c ****       C1 = _SIMD32_OFFSET(pCoef16 + (2u * ic));
 376:Source\TransformFunctions/arm_cfft_radix4_q15.c ****       C2 = _SIMD32_OFFSET(pCoef16 + (4u * ic));
 377:Source\TransformFunctions/arm_cfft_radix4_q15.c ****       C3 = _SIMD32_OFFSET(pCoef16 + (6u * ic));
 378:Source\TransformFunctions/arm_cfft_radix4_q15.c **** 
 379:Source\TransformFunctions/arm_cfft_radix4_q15.c ****       /*  Twiddle coefficients index modifier */
 380:Source\TransformFunctions/arm_cfft_radix4_q15.c ****       ic = ic + twidCoefModifier;
 381:Source\TransformFunctions/arm_cfft_radix4_q15.c **** 
 382:Source\TransformFunctions/arm_cfft_radix4_q15.c ****       pSi0 = pSrc16 + 2 * j;
 383:Source\TransformFunctions/arm_cfft_radix4_q15.c ****       pSi1 = pSi0 + 2 * n2;
 384:Source\TransformFunctions/arm_cfft_radix4_q15.c ****       pSi2 = pSi1 + 2 * n2;
 385:Source\TransformFunctions/arm_cfft_radix4_q15.c ****       pSi3 = pSi2 + 2 * n2;
 386:Source\TransformFunctions/arm_cfft_radix4_q15.c **** 
 387:Source\TransformFunctions/arm_cfft_radix4_q15.c ****       /*  Butterfly implementation */
 388:Source\TransformFunctions/arm_cfft_radix4_q15.c ****       for (i0 = j; i0 < fftLen; i0 += n1)
 389:Source\TransformFunctions/arm_cfft_radix4_q15.c ****       {
 390:Source\TransformFunctions/arm_cfft_radix4_q15.c ****         /*  Reading i0, i0+fftLen/2 inputs */
 391:Source\TransformFunctions/arm_cfft_radix4_q15.c ****         /* Read ya (real), xa(imag) input */
 392:Source\TransformFunctions/arm_cfft_radix4_q15.c ****         T = _SIMD32_OFFSET(pSi0);
ARM GAS  C:\Users\fneves\AppData\Local\Temp\cc0ayw4Y.s 			page 10


 393:Source\TransformFunctions/arm_cfft_radix4_q15.c **** 
 394:Source\TransformFunctions/arm_cfft_radix4_q15.c ****         /* Read yc (real), xc(imag) input */
 395:Source\TransformFunctions/arm_cfft_radix4_q15.c ****         S = _SIMD32_OFFSET(pSi2);
 396:Source\TransformFunctions/arm_cfft_radix4_q15.c **** 
 397:Source\TransformFunctions/arm_cfft_radix4_q15.c ****         /* R = packed( (ya + yc), (xa + xc)) */
 398:Source\TransformFunctions/arm_cfft_radix4_q15.c ****         R = __QADD16(T, S);
 399:Source\TransformFunctions/arm_cfft_radix4_q15.c **** 
 400:Source\TransformFunctions/arm_cfft_radix4_q15.c ****         /* S = packed((ya - yc), (xa - xc)) */
 401:Source\TransformFunctions/arm_cfft_radix4_q15.c ****         S = __QSUB16(T, S);
 402:Source\TransformFunctions/arm_cfft_radix4_q15.c **** 
 403:Source\TransformFunctions/arm_cfft_radix4_q15.c ****         /*  Reading i0+fftLen/4 , i0+3fftLen/4 inputs */
 404:Source\TransformFunctions/arm_cfft_radix4_q15.c ****         /* Read yb (real), xb(imag) input */
 405:Source\TransformFunctions/arm_cfft_radix4_q15.c ****         T = _SIMD32_OFFSET(pSi1);
 406:Source\TransformFunctions/arm_cfft_radix4_q15.c **** 
 407:Source\TransformFunctions/arm_cfft_radix4_q15.c ****         /* Read yd (real), xd(imag) input */
 408:Source\TransformFunctions/arm_cfft_radix4_q15.c ****         U = _SIMD32_OFFSET(pSi3);
 409:Source\TransformFunctions/arm_cfft_radix4_q15.c **** 
 410:Source\TransformFunctions/arm_cfft_radix4_q15.c ****         /* T = packed( (yb + yd), (xb + xd)) */
 411:Source\TransformFunctions/arm_cfft_radix4_q15.c ****         T = __QADD16(T, U);
 412:Source\TransformFunctions/arm_cfft_radix4_q15.c **** 
 413:Source\TransformFunctions/arm_cfft_radix4_q15.c ****         /*  writing the butterfly processed i0 sample */
 414:Source\TransformFunctions/arm_cfft_radix4_q15.c **** 
 415:Source\TransformFunctions/arm_cfft_radix4_q15.c ****         /* xa' = xa + xb + xc + xd */
 416:Source\TransformFunctions/arm_cfft_radix4_q15.c ****         /* ya' = ya + yb + yc + yd */
 417:Source\TransformFunctions/arm_cfft_radix4_q15.c ****         out1 = __SHADD16(R, T);
 418:Source\TransformFunctions/arm_cfft_radix4_q15.c ****         out1 = __SHADD16(out1, 0);
 419:Source\TransformFunctions/arm_cfft_radix4_q15.c ****         _SIMD32_OFFSET(pSi0) = out1;
 420:Source\TransformFunctions/arm_cfft_radix4_q15.c ****         pSi0 += 2 * n1;
 421:Source\TransformFunctions/arm_cfft_radix4_q15.c **** 
 422:Source\TransformFunctions/arm_cfft_radix4_q15.c ****         /* R = packed( (ya + yc) - (yb + yd), (xa + xc) - (xb + xd)) */
 423:Source\TransformFunctions/arm_cfft_radix4_q15.c ****         R = __SHSUB16(R, T);
 424:Source\TransformFunctions/arm_cfft_radix4_q15.c **** 
 425:Source\TransformFunctions/arm_cfft_radix4_q15.c **** #ifndef ARM_MATH_BIG_ENDIAN
 426:Source\TransformFunctions/arm_cfft_radix4_q15.c **** 
 427:Source\TransformFunctions/arm_cfft_radix4_q15.c ****         /* (ya-yb+yc-yd)* (si2) + (xa-xb+xc-xd)* co2 */
 428:Source\TransformFunctions/arm_cfft_radix4_q15.c ****         out1 = __SMUAD(C2, R) >> 16u;
 429:Source\TransformFunctions/arm_cfft_radix4_q15.c **** 
 430:Source\TransformFunctions/arm_cfft_radix4_q15.c ****         /* (ya-yb+yc-yd)* co2 - (xa-xb+xc-xd)* (si2) */
 431:Source\TransformFunctions/arm_cfft_radix4_q15.c ****         out2 = __SMUSDX(C2, R);
 432:Source\TransformFunctions/arm_cfft_radix4_q15.c **** 
 433:Source\TransformFunctions/arm_cfft_radix4_q15.c **** #else
 434:Source\TransformFunctions/arm_cfft_radix4_q15.c **** 
 435:Source\TransformFunctions/arm_cfft_radix4_q15.c ****         /* (ya-yb+yc-yd)* co2 - (xa-xb+xc-xd)* (si2) */
 436:Source\TransformFunctions/arm_cfft_radix4_q15.c ****         out1 = __SMUSDX(R, C2) >> 16u;
 437:Source\TransformFunctions/arm_cfft_radix4_q15.c **** 
 438:Source\TransformFunctions/arm_cfft_radix4_q15.c ****         /* (ya-yb+yc-yd)* (si2) + (xa-xb+xc-xd)* co2 */
 439:Source\TransformFunctions/arm_cfft_radix4_q15.c ****         out2 = __SMUAD(C2, R);
 440:Source\TransformFunctions/arm_cfft_radix4_q15.c **** 
 441:Source\TransformFunctions/arm_cfft_radix4_q15.c **** #endif /*      #ifndef ARM_MATH_BIG_ENDIAN     */
 442:Source\TransformFunctions/arm_cfft_radix4_q15.c **** 
 443:Source\TransformFunctions/arm_cfft_radix4_q15.c ****         /*  Reading i0+3fftLen/4 */
 444:Source\TransformFunctions/arm_cfft_radix4_q15.c ****         /* Read yb (real), xb(imag) input */
 445:Source\TransformFunctions/arm_cfft_radix4_q15.c ****         T = _SIMD32_OFFSET(pSi1);
 446:Source\TransformFunctions/arm_cfft_radix4_q15.c **** 
 447:Source\TransformFunctions/arm_cfft_radix4_q15.c ****         /*  writing the butterfly processed i0 + fftLen/4 sample */
 448:Source\TransformFunctions/arm_cfft_radix4_q15.c ****         /* xc' = (xa-xb+xc-xd)* co2 + (ya-yb+yc-yd)* (si2) */
 449:Source\TransformFunctions/arm_cfft_radix4_q15.c ****         /* yc' = (ya-yb+yc-yd)* co2 - (xa-xb+xc-xd)* (si2) */
ARM GAS  C:\Users\fneves\AppData\Local\Temp\cc0ayw4Y.s 			page 11


 450:Source\TransformFunctions/arm_cfft_radix4_q15.c ****         _SIMD32_OFFSET(pSi1) =
 451:Source\TransformFunctions/arm_cfft_radix4_q15.c ****           ((out2) & 0xFFFF0000) | (out1 & 0x0000FFFF);
 452:Source\TransformFunctions/arm_cfft_radix4_q15.c ****         pSi1 += 2 * n1;
 453:Source\TransformFunctions/arm_cfft_radix4_q15.c **** 
 454:Source\TransformFunctions/arm_cfft_radix4_q15.c ****         /*  Butterfly calculations */
 455:Source\TransformFunctions/arm_cfft_radix4_q15.c **** 
 456:Source\TransformFunctions/arm_cfft_radix4_q15.c ****         /* Read yd (real), xd(imag) input */
 457:Source\TransformFunctions/arm_cfft_radix4_q15.c ****         U = _SIMD32_OFFSET(pSi3);
 458:Source\TransformFunctions/arm_cfft_radix4_q15.c **** 
 459:Source\TransformFunctions/arm_cfft_radix4_q15.c ****         /* T = packed(yb-yd, xb-xd) */
 460:Source\TransformFunctions/arm_cfft_radix4_q15.c ****         T = __QSUB16(T, U);
 461:Source\TransformFunctions/arm_cfft_radix4_q15.c **** 
 462:Source\TransformFunctions/arm_cfft_radix4_q15.c **** #ifndef ARM_MATH_BIG_ENDIAN
 463:Source\TransformFunctions/arm_cfft_radix4_q15.c **** 
 464:Source\TransformFunctions/arm_cfft_radix4_q15.c ****         /* R = packed((ya-yc) + (xb- xd) , (xa-xc) - (yb-yd)) */
 465:Source\TransformFunctions/arm_cfft_radix4_q15.c ****         R = __SHASX(S, T);
 466:Source\TransformFunctions/arm_cfft_radix4_q15.c **** 
 467:Source\TransformFunctions/arm_cfft_radix4_q15.c ****         /* S = packed((ya-yc) - (xb- xd),  (xa-xc) + (yb-yd)) */
 468:Source\TransformFunctions/arm_cfft_radix4_q15.c ****         S = __SHSAX(S, T);
 469:Source\TransformFunctions/arm_cfft_radix4_q15.c **** 
 470:Source\TransformFunctions/arm_cfft_radix4_q15.c **** 
 471:Source\TransformFunctions/arm_cfft_radix4_q15.c ****         /*  Butterfly process for the i0+fftLen/2 sample */
 472:Source\TransformFunctions/arm_cfft_radix4_q15.c ****         out1 = __SMUAD(C1, S) >> 16u;
 473:Source\TransformFunctions/arm_cfft_radix4_q15.c ****         out2 = __SMUSDX(C1, S);
 474:Source\TransformFunctions/arm_cfft_radix4_q15.c **** 
 475:Source\TransformFunctions/arm_cfft_radix4_q15.c **** #else
 476:Source\TransformFunctions/arm_cfft_radix4_q15.c **** 
 477:Source\TransformFunctions/arm_cfft_radix4_q15.c ****         /* R = packed((ya-yc) + (xb- xd) , (xa-xc) - (yb-yd)) */
 478:Source\TransformFunctions/arm_cfft_radix4_q15.c ****         R = __SHSAX(S, T);
 479:Source\TransformFunctions/arm_cfft_radix4_q15.c **** 
 480:Source\TransformFunctions/arm_cfft_radix4_q15.c ****         /* S = packed((ya-yc) - (xb- xd),  (xa-xc) + (yb-yd)) */
 481:Source\TransformFunctions/arm_cfft_radix4_q15.c ****         S = __SHASX(S, T);
 482:Source\TransformFunctions/arm_cfft_radix4_q15.c **** 
 483:Source\TransformFunctions/arm_cfft_radix4_q15.c **** 
 484:Source\TransformFunctions/arm_cfft_radix4_q15.c ****         /*  Butterfly process for the i0+fftLen/2 sample */
 485:Source\TransformFunctions/arm_cfft_radix4_q15.c ****         out1 = __SMUSDX(S, C1) >> 16u;
 486:Source\TransformFunctions/arm_cfft_radix4_q15.c ****         out2 = __SMUAD(C1, S);
 487:Source\TransformFunctions/arm_cfft_radix4_q15.c **** 
 488:Source\TransformFunctions/arm_cfft_radix4_q15.c **** #endif /*      #ifndef ARM_MATH_BIG_ENDIAN     */
 489:Source\TransformFunctions/arm_cfft_radix4_q15.c **** 
 490:Source\TransformFunctions/arm_cfft_radix4_q15.c ****         /* xb' = (xa+yb-xc-yd)* co1 + (ya-xb-yc+xd)* (si1) */
 491:Source\TransformFunctions/arm_cfft_radix4_q15.c ****         /* yb' = (ya-xb-yc+xd)* co1 - (xa+yb-xc-yd)* (si1) */
 492:Source\TransformFunctions/arm_cfft_radix4_q15.c ****         _SIMD32_OFFSET(pSi2) =
 493:Source\TransformFunctions/arm_cfft_radix4_q15.c ****           ((out2) & 0xFFFF0000) | (out1 & 0x0000FFFF);
 494:Source\TransformFunctions/arm_cfft_radix4_q15.c ****         pSi2 += 2 * n1;
 495:Source\TransformFunctions/arm_cfft_radix4_q15.c **** 
 496:Source\TransformFunctions/arm_cfft_radix4_q15.c ****         /*  Butterfly process for the i0+3fftLen/4 sample */
 497:Source\TransformFunctions/arm_cfft_radix4_q15.c **** 
 498:Source\TransformFunctions/arm_cfft_radix4_q15.c **** #ifndef ARM_MATH_BIG_ENDIAN
 499:Source\TransformFunctions/arm_cfft_radix4_q15.c **** 
 500:Source\TransformFunctions/arm_cfft_radix4_q15.c ****         out1 = __SMUAD(C3, R) >> 16u;
 501:Source\TransformFunctions/arm_cfft_radix4_q15.c ****         out2 = __SMUSDX(C3, R);
 502:Source\TransformFunctions/arm_cfft_radix4_q15.c **** 
 503:Source\TransformFunctions/arm_cfft_radix4_q15.c **** #else
 504:Source\TransformFunctions/arm_cfft_radix4_q15.c **** 
 505:Source\TransformFunctions/arm_cfft_radix4_q15.c ****         out1 = __SMUSDX(R, C3) >> 16u;
 506:Source\TransformFunctions/arm_cfft_radix4_q15.c ****         out2 = __SMUAD(C3, R);
ARM GAS  C:\Users\fneves\AppData\Local\Temp\cc0ayw4Y.s 			page 12


 507:Source\TransformFunctions/arm_cfft_radix4_q15.c **** 
 508:Source\TransformFunctions/arm_cfft_radix4_q15.c **** #endif /*      #ifndef ARM_MATH_BIG_ENDIAN     */
 509:Source\TransformFunctions/arm_cfft_radix4_q15.c **** 
 510:Source\TransformFunctions/arm_cfft_radix4_q15.c ****         /* xd' = (xa-yb-xc+yd)* co3 + (ya+xb-yc-xd)* (si3) */
 511:Source\TransformFunctions/arm_cfft_radix4_q15.c ****         /* yd' = (ya+xb-yc-xd)* co3 - (xa-yb-xc+yd)* (si3) */
 512:Source\TransformFunctions/arm_cfft_radix4_q15.c ****         _SIMD32_OFFSET(pSi3) =
 513:Source\TransformFunctions/arm_cfft_radix4_q15.c ****           ((out2) & 0xFFFF0000) | (out1 & 0x0000FFFF);
 514:Source\TransformFunctions/arm_cfft_radix4_q15.c ****         pSi3 += 2 * n1;
 515:Source\TransformFunctions/arm_cfft_radix4_q15.c ****       }
 516:Source\TransformFunctions/arm_cfft_radix4_q15.c ****     }
 517:Source\TransformFunctions/arm_cfft_radix4_q15.c ****     /*  Twiddle coefficients index modifier */
 518:Source\TransformFunctions/arm_cfft_radix4_q15.c ****     twidCoefModifier <<= 2u;
 519:Source\TransformFunctions/arm_cfft_radix4_q15.c ****   }
 520:Source\TransformFunctions/arm_cfft_radix4_q15.c ****   /* end of middle stage process */
 521:Source\TransformFunctions/arm_cfft_radix4_q15.c **** 
 522:Source\TransformFunctions/arm_cfft_radix4_q15.c **** 
 523:Source\TransformFunctions/arm_cfft_radix4_q15.c ****   /* data is in 10.6(q6) format for the 1024 point */
 524:Source\TransformFunctions/arm_cfft_radix4_q15.c ****   /* data is in 8.8(q8) format for the 256 point */
 525:Source\TransformFunctions/arm_cfft_radix4_q15.c ****   /* data is in 6.10(q10) format for the 64 point */
 526:Source\TransformFunctions/arm_cfft_radix4_q15.c ****   /* data is in 4.12(q12) format for the 16 point */
 527:Source\TransformFunctions/arm_cfft_radix4_q15.c **** 
 528:Source\TransformFunctions/arm_cfft_radix4_q15.c ****   /*  Initializations for the last stage */
 529:Source\TransformFunctions/arm_cfft_radix4_q15.c ****   j = fftLen >> 2;
 530:Source\TransformFunctions/arm_cfft_radix4_q15.c **** 
 531:Source\TransformFunctions/arm_cfft_radix4_q15.c ****   ptr1 = &pSrc16[0];
 532:Source\TransformFunctions/arm_cfft_radix4_q15.c **** 
 533:Source\TransformFunctions/arm_cfft_radix4_q15.c ****   /* start of last stage process */
 534:Source\TransformFunctions/arm_cfft_radix4_q15.c **** 
 535:Source\TransformFunctions/arm_cfft_radix4_q15.c ****   /*  Butterfly implementation */
 536:Source\TransformFunctions/arm_cfft_radix4_q15.c ****   do
 537:Source\TransformFunctions/arm_cfft_radix4_q15.c ****   {
 538:Source\TransformFunctions/arm_cfft_radix4_q15.c ****     /* Read xa (real), ya(imag) input */
 539:Source\TransformFunctions/arm_cfft_radix4_q15.c ****     xaya = *__SIMD32(ptr1)++;
 540:Source\TransformFunctions/arm_cfft_radix4_q15.c **** 
 541:Source\TransformFunctions/arm_cfft_radix4_q15.c ****     /* Read xb (real), yb(imag) input */
 542:Source\TransformFunctions/arm_cfft_radix4_q15.c ****     xbyb = *__SIMD32(ptr1)++;
 543:Source\TransformFunctions/arm_cfft_radix4_q15.c **** 
 544:Source\TransformFunctions/arm_cfft_radix4_q15.c ****     /* Read xc (real), yc(imag) input */
 545:Source\TransformFunctions/arm_cfft_radix4_q15.c ****     xcyc = *__SIMD32(ptr1)++;
 546:Source\TransformFunctions/arm_cfft_radix4_q15.c **** 
 547:Source\TransformFunctions/arm_cfft_radix4_q15.c ****     /* Read xd (real), yd(imag) input */
 548:Source\TransformFunctions/arm_cfft_radix4_q15.c ****     xdyd = *__SIMD32(ptr1)++;
 549:Source\TransformFunctions/arm_cfft_radix4_q15.c **** 
 550:Source\TransformFunctions/arm_cfft_radix4_q15.c ****     /* R = packed((ya + yc), (xa + xc)) */
 551:Source\TransformFunctions/arm_cfft_radix4_q15.c ****     R = __QADD16(xaya, xcyc);
 552:Source\TransformFunctions/arm_cfft_radix4_q15.c **** 
 553:Source\TransformFunctions/arm_cfft_radix4_q15.c ****     /* T = packed((yb + yd), (xb + xd)) */
 554:Source\TransformFunctions/arm_cfft_radix4_q15.c ****     T = __QADD16(xbyb, xdyd);
 555:Source\TransformFunctions/arm_cfft_radix4_q15.c **** 
 556:Source\TransformFunctions/arm_cfft_radix4_q15.c ****     /* pointer updation for writing */
 557:Source\TransformFunctions/arm_cfft_radix4_q15.c ****     ptr1 = ptr1 - 8u;
 558:Source\TransformFunctions/arm_cfft_radix4_q15.c **** 
 559:Source\TransformFunctions/arm_cfft_radix4_q15.c **** 
 560:Source\TransformFunctions/arm_cfft_radix4_q15.c ****     /* xa' = xa + xb + xc + xd */
 561:Source\TransformFunctions/arm_cfft_radix4_q15.c ****     /* ya' = ya + yb + yc + yd */
 562:Source\TransformFunctions/arm_cfft_radix4_q15.c ****     *__SIMD32(ptr1)++ = __SHADD16(R, T);
 563:Source\TransformFunctions/arm_cfft_radix4_q15.c **** 
ARM GAS  C:\Users\fneves\AppData\Local\Temp\cc0ayw4Y.s 			page 13


 564:Source\TransformFunctions/arm_cfft_radix4_q15.c ****     /* T = packed((yb + yd), (xb + xd)) */
 565:Source\TransformFunctions/arm_cfft_radix4_q15.c ****     T = __QADD16(xbyb, xdyd);
 566:Source\TransformFunctions/arm_cfft_radix4_q15.c **** 
 567:Source\TransformFunctions/arm_cfft_radix4_q15.c ****     /* xc' = (xa-xb+xc-xd) */
 568:Source\TransformFunctions/arm_cfft_radix4_q15.c ****     /* yc' = (ya-yb+yc-yd) */
 569:Source\TransformFunctions/arm_cfft_radix4_q15.c ****     *__SIMD32(ptr1)++ = __SHSUB16(R, T);
 570:Source\TransformFunctions/arm_cfft_radix4_q15.c **** 
 571:Source\TransformFunctions/arm_cfft_radix4_q15.c ****     /* S = packed((ya - yc), (xa - xc)) */
 572:Source\TransformFunctions/arm_cfft_radix4_q15.c ****     S = __QSUB16(xaya, xcyc);
 573:Source\TransformFunctions/arm_cfft_radix4_q15.c **** 
 574:Source\TransformFunctions/arm_cfft_radix4_q15.c ****     /* Read yd (real), xd(imag) input */
 575:Source\TransformFunctions/arm_cfft_radix4_q15.c ****     /* T = packed( (yb - yd), (xb - xd))  */
 576:Source\TransformFunctions/arm_cfft_radix4_q15.c ****     U = __QSUB16(xbyb, xdyd);
 577:Source\TransformFunctions/arm_cfft_radix4_q15.c **** 
 578:Source\TransformFunctions/arm_cfft_radix4_q15.c **** #ifndef ARM_MATH_BIG_ENDIAN
 579:Source\TransformFunctions/arm_cfft_radix4_q15.c **** 
 580:Source\TransformFunctions/arm_cfft_radix4_q15.c ****     /* xb' = (xa+yb-xc-yd) */
 581:Source\TransformFunctions/arm_cfft_radix4_q15.c ****     /* yb' = (ya-xb-yc+xd) */
 582:Source\TransformFunctions/arm_cfft_radix4_q15.c ****     *__SIMD32(ptr1)++ = __SHSAX(S, U);
 583:Source\TransformFunctions/arm_cfft_radix4_q15.c **** 
 584:Source\TransformFunctions/arm_cfft_radix4_q15.c **** 
 585:Source\TransformFunctions/arm_cfft_radix4_q15.c ****     /* xd' = (xa-yb-xc+yd) */
 586:Source\TransformFunctions/arm_cfft_radix4_q15.c ****     /* yd' = (ya+xb-yc-xd) */
 587:Source\TransformFunctions/arm_cfft_radix4_q15.c ****     *__SIMD32(ptr1)++ = __SHASX(S, U);
 588:Source\TransformFunctions/arm_cfft_radix4_q15.c **** 
 589:Source\TransformFunctions/arm_cfft_radix4_q15.c **** #else
 590:Source\TransformFunctions/arm_cfft_radix4_q15.c **** 
 591:Source\TransformFunctions/arm_cfft_radix4_q15.c ****     /* xb' = (xa+yb-xc-yd) */
 592:Source\TransformFunctions/arm_cfft_radix4_q15.c ****     /* yb' = (ya-xb-yc+xd) */
 593:Source\TransformFunctions/arm_cfft_radix4_q15.c ****     *__SIMD32(ptr1)++ = __SHASX(S, U);
 594:Source\TransformFunctions/arm_cfft_radix4_q15.c **** 
 595:Source\TransformFunctions/arm_cfft_radix4_q15.c **** 
 596:Source\TransformFunctions/arm_cfft_radix4_q15.c ****     /* xd' = (xa-yb-xc+yd) */
 597:Source\TransformFunctions/arm_cfft_radix4_q15.c ****     /* yd' = (ya+xb-yc-xd) */
 598:Source\TransformFunctions/arm_cfft_radix4_q15.c ****     *__SIMD32(ptr1)++ = __SHSAX(S, U);
 599:Source\TransformFunctions/arm_cfft_radix4_q15.c **** 
 600:Source\TransformFunctions/arm_cfft_radix4_q15.c **** #endif /*      #ifndef ARM_MATH_BIG_ENDIAN     */
 601:Source\TransformFunctions/arm_cfft_radix4_q15.c **** 
 602:Source\TransformFunctions/arm_cfft_radix4_q15.c ****   } while (--j);
 603:Source\TransformFunctions/arm_cfft_radix4_q15.c **** 
 604:Source\TransformFunctions/arm_cfft_radix4_q15.c ****   /* end of last stage process */
 605:Source\TransformFunctions/arm_cfft_radix4_q15.c **** 
 606:Source\TransformFunctions/arm_cfft_radix4_q15.c ****   /* output is in 11.5(q5) format for the 1024 point */
 607:Source\TransformFunctions/arm_cfft_radix4_q15.c ****   /* output is in 9.7(q7) format for the 256 point   */
 608:Source\TransformFunctions/arm_cfft_radix4_q15.c ****   /* output is in 7.9(q9) format for the 64 point  */
 609:Source\TransformFunctions/arm_cfft_radix4_q15.c ****   /* output is in 5.11(q11) format for the 16 point  */
 610:Source\TransformFunctions/arm_cfft_radix4_q15.c **** 
 611:Source\TransformFunctions/arm_cfft_radix4_q15.c **** 
 612:Source\TransformFunctions/arm_cfft_radix4_q15.c **** #else
 613:Source\TransformFunctions/arm_cfft_radix4_q15.c **** 
 614:Source\TransformFunctions/arm_cfft_radix4_q15.c ****   /* Run the below code for Cortex-M0 */
 615:Source\TransformFunctions/arm_cfft_radix4_q15.c **** 
 616:Source\TransformFunctions/arm_cfft_radix4_q15.c ****   q15_t R0, R1, S0, S1, T0, T1, U0, U1;
 617:Source\TransformFunctions/arm_cfft_radix4_q15.c ****   q15_t Co1, Si1, Co2, Si2, Co3, Si3, out1, out2;
 618:Source\TransformFunctions/arm_cfft_radix4_q15.c ****   uint32_t n1, n2, ic, i0, i1, i2, i3, j, k;
 619:Source\TransformFunctions/arm_cfft_radix4_q15.c **** 
 620:Source\TransformFunctions/arm_cfft_radix4_q15.c ****   /* Total process is divided into three stages */
ARM GAS  C:\Users\fneves\AppData\Local\Temp\cc0ayw4Y.s 			page 14


 621:Source\TransformFunctions/arm_cfft_radix4_q15.c **** 
 622:Source\TransformFunctions/arm_cfft_radix4_q15.c ****   /* process first stage, middle stages, & last stage */
 623:Source\TransformFunctions/arm_cfft_radix4_q15.c **** 
 624:Source\TransformFunctions/arm_cfft_radix4_q15.c ****   /*  Initializations for the first stage */
 625:Source\TransformFunctions/arm_cfft_radix4_q15.c ****   n2 = fftLen;
 122              		.loc 1 625 0
 123 0010 BB68     		ldr	r3, [r7, #8]
 124 0012 AB22     		mov	r2, #171
 125 0014 9200     		lsl	r2, r2, #2
 126 0016 BA18     		add	r2, r7, r2
 127 0018 1360     		str	r3, [r2]
 626:Source\TransformFunctions/arm_cfft_radix4_q15.c ****   n1 = n2;
 128              		.loc 1 626 0
 129 001a AB23     		mov	r3, #171
 130 001c 9B00     		lsl	r3, r3, #2
 131 001e FB18     		add	r3, r7, r3
 132 0020 1B68     		ldr	r3, [r3]
 133 0022 A622     		mov	r2, #166
 134 0024 9200     		lsl	r2, r2, #2
 135 0026 BA18     		add	r2, r7, r2
 136 0028 1360     		str	r3, [r2]
 627:Source\TransformFunctions/arm_cfft_radix4_q15.c **** 
 628:Source\TransformFunctions/arm_cfft_radix4_q15.c ****   /* n2 = fftLen/4 */
 629:Source\TransformFunctions/arm_cfft_radix4_q15.c ****   n2 >>= 2u;
 137              		.loc 1 629 0
 138 002a AB23     		mov	r3, #171
 139 002c 9B00     		lsl	r3, r3, #2
 140 002e FB18     		add	r3, r7, r3
 141 0030 1B68     		ldr	r3, [r3]
 142 0032 9B08     		lsr	r3, r3, #2
 143 0034 AB22     		mov	r2, #171
 144 0036 9200     		lsl	r2, r2, #2
 145 0038 BA18     		add	r2, r7, r2
 146 003a 1360     		str	r3, [r2]
 630:Source\TransformFunctions/arm_cfft_radix4_q15.c **** 
 631:Source\TransformFunctions/arm_cfft_radix4_q15.c ****   /* Index for twiddle coefficient */
 632:Source\TransformFunctions/arm_cfft_radix4_q15.c ****   ic = 0u;
 147              		.loc 1 632 0
 148 003c 0023     		mov	r3, #0
 149 003e AA22     		mov	r2, #170
 150 0040 9200     		lsl	r2, r2, #2
 151 0042 BA18     		add	r2, r7, r2
 152 0044 1360     		str	r3, [r2]
 633:Source\TransformFunctions/arm_cfft_radix4_q15.c **** 
 634:Source\TransformFunctions/arm_cfft_radix4_q15.c ****   /* Index for input read and output write */
 635:Source\TransformFunctions/arm_cfft_radix4_q15.c ****   i0 = 0u;
 153              		.loc 1 635 0
 154 0046 0023     		mov	r3, #0
 155 0048 A922     		mov	r2, #169
 156 004a 9200     		lsl	r2, r2, #2
 157 004c BA18     		add	r2, r7, r2
 158 004e 1360     		str	r3, [r2]
 636:Source\TransformFunctions/arm_cfft_radix4_q15.c ****   j = n2;
 159              		.loc 1 636 0
 160 0050 AB23     		mov	r3, #171
 161 0052 9B00     		lsl	r3, r3, #2
 162 0054 FB18     		add	r3, r7, r3
ARM GAS  C:\Users\fneves\AppData\Local\Temp\cc0ayw4Y.s 			page 15


 163 0056 1B68     		ldr	r3, [r3]
 164 0058 A822     		mov	r2, #168
 165 005a 9200     		lsl	r2, r2, #2
 166 005c BA18     		add	r2, r7, r2
 167 005e 1360     		str	r3, [r2]
 168              	.L90:
 637:Source\TransformFunctions/arm_cfft_radix4_q15.c **** 
 638:Source\TransformFunctions/arm_cfft_radix4_q15.c ****   /* Input is in 1.15(q15) format */
 639:Source\TransformFunctions/arm_cfft_radix4_q15.c **** 
 640:Source\TransformFunctions/arm_cfft_radix4_q15.c ****   /*  start of first stage process */
 641:Source\TransformFunctions/arm_cfft_radix4_q15.c ****   do
 642:Source\TransformFunctions/arm_cfft_radix4_q15.c ****   {
 643:Source\TransformFunctions/arm_cfft_radix4_q15.c ****     /*  Butterfly implementation */
 644:Source\TransformFunctions/arm_cfft_radix4_q15.c **** 
 645:Source\TransformFunctions/arm_cfft_radix4_q15.c ****     /*  index calculation for the input as, */
 646:Source\TransformFunctions/arm_cfft_radix4_q15.c ****     /*  pSrc16[i0 + 0], pSrc16[i0 + fftLen/4], pSrc16[i0 + fftLen/2], pSrc16[i0 + 3fftLen/4] */
 647:Source\TransformFunctions/arm_cfft_radix4_q15.c ****     i1 = i0 + n2;
 169              		.loc 1 647 0 discriminator 1
 170 0060 A923     		mov	r3, #169
 171 0062 9B00     		lsl	r3, r3, #2
 172 0064 FB18     		add	r3, r7, r3
 173 0066 1A68     		ldr	r2, [r3]
 174 0068 AB23     		mov	r3, #171
 175 006a 9B00     		lsl	r3, r3, #2
 176 006c FB18     		add	r3, r7, r3
 177 006e 1B68     		ldr	r3, [r3]
 178 0070 D318     		add	r3, r2, r3
 179 0072 A522     		mov	r2, #165
 180 0074 9200     		lsl	r2, r2, #2
 181 0076 BA18     		add	r2, r7, r2
 182 0078 1360     		str	r3, [r2]
 648:Source\TransformFunctions/arm_cfft_radix4_q15.c ****     i2 = i1 + n2;
 183              		.loc 1 648 0 discriminator 1
 184 007a A523     		mov	r3, #165
 185 007c 9B00     		lsl	r3, r3, #2
 186 007e FB18     		add	r3, r7, r3
 187 0080 1A68     		ldr	r2, [r3]
 188 0082 AB23     		mov	r3, #171
 189 0084 9B00     		lsl	r3, r3, #2
 190 0086 FB18     		add	r3, r7, r3
 191 0088 1B68     		ldr	r3, [r3]
 192 008a D318     		add	r3, r2, r3
 193 008c A422     		mov	r2, #164
 194 008e 9200     		lsl	r2, r2, #2
 195 0090 BA18     		add	r2, r7, r2
 196 0092 1360     		str	r3, [r2]
 649:Source\TransformFunctions/arm_cfft_radix4_q15.c ****     i3 = i2 + n2;
 197              		.loc 1 649 0 discriminator 1
 198 0094 A423     		mov	r3, #164
 199 0096 9B00     		lsl	r3, r3, #2
 200 0098 FB18     		add	r3, r7, r3
 201 009a 1A68     		ldr	r2, [r3]
 202 009c AB23     		mov	r3, #171
 203 009e 9B00     		lsl	r3, r3, #2
 204 00a0 FB18     		add	r3, r7, r3
 205 00a2 1B68     		ldr	r3, [r3]
 206 00a4 D318     		add	r3, r2, r3
ARM GAS  C:\Users\fneves\AppData\Local\Temp\cc0ayw4Y.s 			page 16


 207 00a6 A322     		mov	r2, #163
 208 00a8 9200     		lsl	r2, r2, #2
 209 00aa BA18     		add	r2, r7, r2
 210 00ac 1360     		str	r3, [r2]
 650:Source\TransformFunctions/arm_cfft_radix4_q15.c **** 
 651:Source\TransformFunctions/arm_cfft_radix4_q15.c ****     /*  Reading i0, i0+fftLen/2 inputs */
 652:Source\TransformFunctions/arm_cfft_radix4_q15.c **** 
 653:Source\TransformFunctions/arm_cfft_radix4_q15.c ****     /* input is down scale by 4 to avoid overflow */
 654:Source\TransformFunctions/arm_cfft_radix4_q15.c ****     /* Read ya (real), xa(imag) input */
 655:Source\TransformFunctions/arm_cfft_radix4_q15.c ****     T0 = pSrc16[i0 * 2u] >> 2u;
 211              		.loc 1 655 0 discriminator 1
 212 00ae A923     		mov	r3, #169
 213 00b0 9B00     		lsl	r3, r3, #2
 214 00b2 FB18     		add	r3, r7, r3
 215 00b4 1B68     		ldr	r3, [r3]
 216 00b6 9B00     		lsl	r3, r3, #2
 217 00b8 FA68     		ldr	r2, [r7, #12]
 218 00ba D318     		add	r3, r2, r3
 219 00bc 1A88     		ldrh	r2, [r3]
 220 00be A94B     		ldr	r3, .L225+4
 221 00c0 FB18     		add	r3, r7, r3
 222 00c2 12B2     		sxth	r2, r2
 223 00c4 9210     		asr	r2, r2, #2
 224 00c6 1A80     		strh	r2, [r3]
 656:Source\TransformFunctions/arm_cfft_radix4_q15.c ****     T1 = pSrc16[(i0 * 2u) + 1u] >> 2u;
 225              		.loc 1 656 0 discriminator 1
 226 00c8 A923     		mov	r3, #169
 227 00ca 9B00     		lsl	r3, r3, #2
 228 00cc FB18     		add	r3, r7, r3
 229 00ce 1B68     		ldr	r3, [r3]
 230 00d0 9B00     		lsl	r3, r3, #2
 231 00d2 0233     		add	r3, r3, #2
 232 00d4 FA68     		ldr	r2, [r7, #12]
 233 00d6 D318     		add	r3, r2, r3
 234 00d8 1A88     		ldrh	r2, [r3]
 235 00da A223     		mov	r3, #162
 236 00dc 9B00     		lsl	r3, r3, #2
 237 00de FB18     		add	r3, r7, r3
 238 00e0 12B2     		sxth	r2, r2
 239 00e2 9210     		asr	r2, r2, #2
 240 00e4 1A80     		strh	r2, [r3]
 657:Source\TransformFunctions/arm_cfft_radix4_q15.c **** 
 658:Source\TransformFunctions/arm_cfft_radix4_q15.c ****     /* input is down scale by 4 to avoid overflow */
 659:Source\TransformFunctions/arm_cfft_radix4_q15.c ****     /* Read yc (real), xc(imag) input */
 660:Source\TransformFunctions/arm_cfft_radix4_q15.c ****     S0 = pSrc16[i2 * 2u] >> 2u;
 241              		.loc 1 660 0 discriminator 1
 242 00e6 A423     		mov	r3, #164
 243 00e8 9B00     		lsl	r3, r3, #2
 244 00ea FB18     		add	r3, r7, r3
 245 00ec 1B68     		ldr	r3, [r3]
 246 00ee 9B00     		lsl	r3, r3, #2
 247 00f0 FA68     		ldr	r2, [r7, #12]
 248 00f2 D318     		add	r3, r2, r3
 249 00f4 1A88     		ldrh	r2, [r3]
 250 00f6 9C4B     		ldr	r3, .L225+8
 251 00f8 FB18     		add	r3, r7, r3
 252 00fa 12B2     		sxth	r2, r2
ARM GAS  C:\Users\fneves\AppData\Local\Temp\cc0ayw4Y.s 			page 17


 253 00fc 9210     		asr	r2, r2, #2
 254 00fe 1A80     		strh	r2, [r3]
 661:Source\TransformFunctions/arm_cfft_radix4_q15.c ****     S1 = pSrc16[(i2 * 2u) + 1u] >> 2u;
 255              		.loc 1 661 0 discriminator 1
 256 0100 A423     		mov	r3, #164
 257 0102 9B00     		lsl	r3, r3, #2
 258 0104 FB18     		add	r3, r7, r3
 259 0106 1B68     		ldr	r3, [r3]
 260 0108 9B00     		lsl	r3, r3, #2
 261 010a 0233     		add	r3, r3, #2
 262 010c FA68     		ldr	r2, [r7, #12]
 263 010e D318     		add	r3, r2, r3
 264 0110 1A88     		ldrh	r2, [r3]
 265 0112 A123     		mov	r3, #161
 266 0114 9B00     		lsl	r3, r3, #2
 267 0116 FB18     		add	r3, r7, r3
 268 0118 12B2     		sxth	r2, r2
 269 011a 9210     		asr	r2, r2, #2
 270 011c 1A80     		strh	r2, [r3]
 662:Source\TransformFunctions/arm_cfft_radix4_q15.c **** 
 663:Source\TransformFunctions/arm_cfft_radix4_q15.c ****     /* R0 = (ya + yc) */
 664:Source\TransformFunctions/arm_cfft_radix4_q15.c ****     R0 = __SSAT(T0 + S0, 16u);
 271              		.loc 1 664 0 discriminator 1
 272 011e 914B     		ldr	r3, .L225+4
 273 0120 FB18     		add	r3, r7, r3
 274 0122 0022     		mov	r2, #0
 275 0124 9A5E     		ldrsh	r2, [r3, r2]
 276 0126 904B     		ldr	r3, .L225+8
 277 0128 FB18     		add	r3, r7, r3
 278 012a 0021     		mov	r1, #0
 279 012c 5B5E     		ldrsh	r3, [r3, r1]
 280 012e D318     		add	r3, r2, r3
 281 0130 9A22     		mov	r2, #154
 282 0132 9200     		lsl	r2, r2, #2
 283 0134 BA18     		add	r2, r7, r2
 284 0136 1360     		str	r3, [r2]
 285 0138 1023     		mov	r3, #16
 286 013a 9922     		mov	r2, #153
 287 013c 9200     		lsl	r2, r2, #2
 288 013e BA18     		add	r2, r7, r2
 289 0140 1360     		str	r3, [r2]
 290              	.LBB122:
 291              	.LBB123:
 292              		.file 2 ".\\Include/arm_math.h"
   1:.\Include/arm_math.h **** /* ----------------------------------------------------------------------
   2:.\Include/arm_math.h ****  * Project:      CMSIS DSP Library
   3:.\Include/arm_math.h ****  * Title:        arm_math.h
   4:.\Include/arm_math.h ****  * Description:  Public header file for CMSIS DSP Library
   5:.\Include/arm_math.h ****  *
   6:.\Include/arm_math.h ****  * $Date:        27. January 2017
   7:.\Include/arm_math.h ****  * $Revision:    V.1.5.1
   8:.\Include/arm_math.h ****  *
   9:.\Include/arm_math.h ****  * Target Processor: Cortex-M cores
  10:.\Include/arm_math.h ****  * -------------------------------------------------------------------- */
  11:.\Include/arm_math.h **** /*
  12:.\Include/arm_math.h ****  * Copyright (C) 2010-2017 ARM Limited or its affiliates. All rights reserved.
  13:.\Include/arm_math.h ****  *
ARM GAS  C:\Users\fneves\AppData\Local\Temp\cc0ayw4Y.s 			page 18


  14:.\Include/arm_math.h ****  * SPDX-License-Identifier: Apache-2.0
  15:.\Include/arm_math.h ****  *
  16:.\Include/arm_math.h ****  * Licensed under the Apache License, Version 2.0 (the License); you may
  17:.\Include/arm_math.h ****  * not use this file except in compliance with the License.
  18:.\Include/arm_math.h ****  * You may obtain a copy of the License at
  19:.\Include/arm_math.h ****  *
  20:.\Include/arm_math.h ****  * www.apache.org/licenses/LICENSE-2.0
  21:.\Include/arm_math.h ****  *
  22:.\Include/arm_math.h ****  * Unless required by applicable law or agreed to in writing, software
  23:.\Include/arm_math.h ****  * distributed under the License is distributed on an AS IS BASIS, WITHOUT
  24:.\Include/arm_math.h ****  * WARRANTIES OR CONDITIONS OF ANY KIND, either express or implied.
  25:.\Include/arm_math.h ****  * See the License for the specific language governing permissions and
  26:.\Include/arm_math.h ****  * limitations under the License.
  27:.\Include/arm_math.h ****  */
  28:.\Include/arm_math.h **** 
  29:.\Include/arm_math.h **** /**
  30:.\Include/arm_math.h ****    \mainpage CMSIS DSP Software Library
  31:.\Include/arm_math.h ****    *
  32:.\Include/arm_math.h ****    * Introduction
  33:.\Include/arm_math.h ****    * ------------
  34:.\Include/arm_math.h ****    *
  35:.\Include/arm_math.h ****    * This user manual describes the CMSIS DSP software library,
  36:.\Include/arm_math.h ****    * a suite of common signal processing functions for use on Cortex-M processor based devices.
  37:.\Include/arm_math.h ****    *
  38:.\Include/arm_math.h ****    * The library is divided into a number of functions each covering a specific category:
  39:.\Include/arm_math.h ****    * - Basic math functions
  40:.\Include/arm_math.h ****    * - Fast math functions
  41:.\Include/arm_math.h ****    * - Complex math functions
  42:.\Include/arm_math.h ****    * - Filters
  43:.\Include/arm_math.h ****    * - Matrix functions
  44:.\Include/arm_math.h ****    * - Transforms
  45:.\Include/arm_math.h ****    * - Motor control functions
  46:.\Include/arm_math.h ****    * - Statistical functions
  47:.\Include/arm_math.h ****    * - Support functions
  48:.\Include/arm_math.h ****    * - Interpolation functions
  49:.\Include/arm_math.h ****    *
  50:.\Include/arm_math.h ****    * The library has separate functions for operating on 8-bit integers, 16-bit integers,
  51:.\Include/arm_math.h ****    * 32-bit integer and 32-bit floating-point values.
  52:.\Include/arm_math.h ****    *
  53:.\Include/arm_math.h ****    * Using the Library
  54:.\Include/arm_math.h ****    * ------------
  55:.\Include/arm_math.h ****    *
  56:.\Include/arm_math.h ****    * The library installer contains prebuilt versions of the libraries in the <code>Lib</code> fold
  57:.\Include/arm_math.h ****    * - arm_cortexM7lfdp_math.lib (Cortex-M7, Little endian, Double Precision Floating Point Unit)
  58:.\Include/arm_math.h ****    * - arm_cortexM7bfdp_math.lib (Cortex-M7, Big endian, Double Precision Floating Point Unit)
  59:.\Include/arm_math.h ****    * - arm_cortexM7lfsp_math.lib (Cortex-M7, Little endian, Single Precision Floating Point Unit)
  60:.\Include/arm_math.h ****    * - arm_cortexM7bfsp_math.lib (Cortex-M7, Big endian and Single Precision Floating Point Unit on
  61:.\Include/arm_math.h ****    * - arm_cortexM7l_math.lib (Cortex-M7, Little endian)
  62:.\Include/arm_math.h ****    * - arm_cortexM7b_math.lib (Cortex-M7, Big endian)
  63:.\Include/arm_math.h ****    * - arm_cortexM4lf_math.lib (Cortex-M4, Little endian, Floating Point Unit)
  64:.\Include/arm_math.h ****    * - arm_cortexM4bf_math.lib (Cortex-M4, Big endian, Floating Point Unit)
  65:.\Include/arm_math.h ****    * - arm_cortexM4l_math.lib (Cortex-M4, Little endian)
  66:.\Include/arm_math.h ****    * - arm_cortexM4b_math.lib (Cortex-M4, Big endian)
  67:.\Include/arm_math.h ****    * - arm_cortexM3l_math.lib (Cortex-M3, Little endian)
  68:.\Include/arm_math.h ****    * - arm_cortexM3b_math.lib (Cortex-M3, Big endian)
  69:.\Include/arm_math.h ****    * - arm_cortexM0l_math.lib (Cortex-M0 / Cortex-M0+, Little endian)
  70:.\Include/arm_math.h ****    * - arm_cortexM0b_math.lib (Cortex-M0 / Cortex-M0+, Big endian)
ARM GAS  C:\Users\fneves\AppData\Local\Temp\cc0ayw4Y.s 			page 19


  71:.\Include/arm_math.h ****    * - arm_ARMv8MBLl_math.lib (ARMv8M Baseline, Little endian)
  72:.\Include/arm_math.h ****    * - arm_ARMv8MMLl_math.lib (ARMv8M Mainline, Little endian)
  73:.\Include/arm_math.h ****    * - arm_ARMv8MMLlfsp_math.lib (ARMv8M Mainline, Little endian, Single Precision Floating Point U
  74:.\Include/arm_math.h ****    * - arm_ARMv8MMLld_math.lib (ARMv8M Mainline, Little endian, DSP instructions)
  75:.\Include/arm_math.h ****    * - arm_ARMv8MMLldfsp_math.lib (ARMv8M Mainline, Little endian, DSP instructions, Single Precisi
  76:.\Include/arm_math.h ****    *
  77:.\Include/arm_math.h ****    * The library functions are declared in the public file <code>arm_math.h</code> which is placed 
  78:.\Include/arm_math.h ****    * Simply include this file and link the appropriate library in the application and begin calling
  79:.\Include/arm_math.h ****    * public header file <code> arm_math.h</code> for Cortex-M cores with little endian and big endi
  80:.\Include/arm_math.h ****    * Define the appropriate pre processor MACRO ARM_MATH_CM7 or ARM_MATH_CM4 or  ARM_MATH_CM3 or
  81:.\Include/arm_math.h ****    * ARM_MATH_CM0 or ARM_MATH_CM0PLUS depending on the target processor in the application.
  82:.\Include/arm_math.h ****    * For ARMv8M cores define pre processor MACRO ARM_MATH_ARMV8MBL or ARM_MATH_ARMV8MML.
  83:.\Include/arm_math.h ****    * Set Pre processor MACRO __DSP_PRESENT if ARMv8M Mainline core supports DSP instructions.
  84:.\Include/arm_math.h ****    * 
  85:.\Include/arm_math.h ****    *
  86:.\Include/arm_math.h ****    * Examples
  87:.\Include/arm_math.h ****    * --------
  88:.\Include/arm_math.h ****    *
  89:.\Include/arm_math.h ****    * The library ships with a number of examples which demonstrate how to use the library functions
  90:.\Include/arm_math.h ****    *
  91:.\Include/arm_math.h ****    * Toolchain Support
  92:.\Include/arm_math.h ****    * ------------
  93:.\Include/arm_math.h ****    *
  94:.\Include/arm_math.h ****    * The library has been developed and tested with MDK-ARM version 5.14.0.0
  95:.\Include/arm_math.h ****    * The library is being tested in GCC and IAR toolchains and updates on this activity will be mad
  96:.\Include/arm_math.h ****    *
  97:.\Include/arm_math.h ****    * Building the Library
  98:.\Include/arm_math.h ****    * ------------
  99:.\Include/arm_math.h ****    *
 100:.\Include/arm_math.h ****    * The library installer contains a project file to re build libraries on MDK-ARM Tool chain in t
 101:.\Include/arm_math.h ****    * - arm_cortexM_math.uvprojx
 102:.\Include/arm_math.h ****    *
 103:.\Include/arm_math.h ****    *
 104:.\Include/arm_math.h ****    * The libraries can be built by opening the arm_cortexM_math.uvprojx project in MDK-ARM, selecti
 105:.\Include/arm_math.h ****    *
 106:.\Include/arm_math.h ****    * Pre-processor Macros
 107:.\Include/arm_math.h ****    * ------------
 108:.\Include/arm_math.h ****    *
 109:.\Include/arm_math.h ****    * Each library project have differant pre-processor macros.
 110:.\Include/arm_math.h ****    *
 111:.\Include/arm_math.h ****    * - UNALIGNED_SUPPORT_DISABLE:
 112:.\Include/arm_math.h ****    *
 113:.\Include/arm_math.h ****    * Define macro UNALIGNED_SUPPORT_DISABLE, If the silicon does not support unaligned memory acces
 114:.\Include/arm_math.h ****    *
 115:.\Include/arm_math.h ****    * - ARM_MATH_BIG_ENDIAN:
 116:.\Include/arm_math.h ****    *
 117:.\Include/arm_math.h ****    * Define macro ARM_MATH_BIG_ENDIAN to build the library for big endian targets. By default libra
 118:.\Include/arm_math.h ****    *
 119:.\Include/arm_math.h ****    * - ARM_MATH_MATRIX_CHECK:
 120:.\Include/arm_math.h ****    *
 121:.\Include/arm_math.h ****    * Define macro ARM_MATH_MATRIX_CHECK for checking on the input and output sizes of matrices
 122:.\Include/arm_math.h ****    *
 123:.\Include/arm_math.h ****    * - ARM_MATH_ROUNDING:
 124:.\Include/arm_math.h ****    *
 125:.\Include/arm_math.h ****    * Define macro ARM_MATH_ROUNDING for rounding on support functions
 126:.\Include/arm_math.h ****    *
 127:.\Include/arm_math.h ****    * - ARM_MATH_CMx:
ARM GAS  C:\Users\fneves\AppData\Local\Temp\cc0ayw4Y.s 			page 20


 128:.\Include/arm_math.h ****    *
 129:.\Include/arm_math.h ****    * Define macro ARM_MATH_CM4 for building the library on Cortex-M4 target, ARM_MATH_CM3 for build
 130:.\Include/arm_math.h ****    * and ARM_MATH_CM0 for building library on Cortex-M0 target, ARM_MATH_CM0PLUS for building libra
 131:.\Include/arm_math.h ****    * ARM_MATH_CM7 for building the library on cortex-M7.
 132:.\Include/arm_math.h ****    *
 133:.\Include/arm_math.h ****    * - ARM_MATH_ARMV8MxL:
 134:.\Include/arm_math.h ****    *
 135:.\Include/arm_math.h ****    * Define macro ARM_MATH_ARMV8MBL for building the library on ARMv8M Baseline target, ARM_MATH_AR
 136:.\Include/arm_math.h ****    * on ARMv8M Mainline target.
 137:.\Include/arm_math.h ****    *
 138:.\Include/arm_math.h ****    * - __FPU_PRESENT:
 139:.\Include/arm_math.h ****    *
 140:.\Include/arm_math.h ****    * Initialize macro __FPU_PRESENT = 1 when building on FPU supported Targets. Enable this macro f
 141:.\Include/arm_math.h ****    *
 142:.\Include/arm_math.h ****    * - __DSP_PRESENT:
 143:.\Include/arm_math.h ****    *
 144:.\Include/arm_math.h ****    * Initialize macro __DSP_PRESENT = 1 when ARMv8M Mainline core supports DSP instructions.
 145:.\Include/arm_math.h ****    *
 146:.\Include/arm_math.h ****    * <hr>
 147:.\Include/arm_math.h ****    * CMSIS-DSP in ARM::CMSIS Pack
 148:.\Include/arm_math.h ****    * -----------------------------
 149:.\Include/arm_math.h ****    *
 150:.\Include/arm_math.h ****    * The following files relevant to CMSIS-DSP are present in the <b>ARM::CMSIS</b> Pack directorie
 151:.\Include/arm_math.h ****    * |File/Folder                   |Content                                                       
 152:.\Include/arm_math.h ****    * |------------------------------|--------------------------------------------------------------
 153:.\Include/arm_math.h ****    * |\b CMSIS\\Documentation\\DSP  | This documentation                                           
 154:.\Include/arm_math.h ****    * |\b CMSIS\\DSP_Lib             | Software license agreement (license.txt)                     
 155:.\Include/arm_math.h ****    * |\b CMSIS\\DSP_Lib\\Examples   | Example projects demonstrating the usage of the library funct
 156:.\Include/arm_math.h ****    * |\b CMSIS\\DSP_Lib\\Source     | Source files for rebuilding the library                      
 157:.\Include/arm_math.h ****    *
 158:.\Include/arm_math.h ****    * <hr>
 159:.\Include/arm_math.h ****    * Revision History of CMSIS-DSP
 160:.\Include/arm_math.h ****    * ------------
 161:.\Include/arm_math.h ****    * Please refer to \ref ChangeLog_pg.
 162:.\Include/arm_math.h ****    *
 163:.\Include/arm_math.h ****    * Copyright Notice
 164:.\Include/arm_math.h ****    * ------------
 165:.\Include/arm_math.h ****    *
 166:.\Include/arm_math.h ****    * Copyright (C) 2010-2015 ARM Limited. All rights reserved.
 167:.\Include/arm_math.h ****    */
 168:.\Include/arm_math.h **** 
 169:.\Include/arm_math.h **** 
 170:.\Include/arm_math.h **** /**
 171:.\Include/arm_math.h ****  * @defgroup groupMath Basic Math Functions
 172:.\Include/arm_math.h ****  */
 173:.\Include/arm_math.h **** 
 174:.\Include/arm_math.h **** /**
 175:.\Include/arm_math.h ****  * @defgroup groupFastMath Fast Math Functions
 176:.\Include/arm_math.h ****  * This set of functions provides a fast approximation to sine, cosine, and square root.
 177:.\Include/arm_math.h ****  * As compared to most of the other functions in the CMSIS math library, the fast math functions
 178:.\Include/arm_math.h ****  * operate on individual values and not arrays.
 179:.\Include/arm_math.h ****  * There are separate functions for Q15, Q31, and floating-point data.
 180:.\Include/arm_math.h ****  *
 181:.\Include/arm_math.h ****  */
 182:.\Include/arm_math.h **** 
 183:.\Include/arm_math.h **** /**
 184:.\Include/arm_math.h ****  * @defgroup groupCmplxMath Complex Math Functions
ARM GAS  C:\Users\fneves\AppData\Local\Temp\cc0ayw4Y.s 			page 21


 185:.\Include/arm_math.h ****  * This set of functions operates on complex data vectors.
 186:.\Include/arm_math.h ****  * The data in the complex arrays is stored in an interleaved fashion
 187:.\Include/arm_math.h ****  * (real, imag, real, imag, ...).
 188:.\Include/arm_math.h ****  * In the API functions, the number of samples in a complex array refers
 189:.\Include/arm_math.h ****  * to the number of complex values; the array contains twice this number of
 190:.\Include/arm_math.h ****  * real values.
 191:.\Include/arm_math.h ****  */
 192:.\Include/arm_math.h **** 
 193:.\Include/arm_math.h **** /**
 194:.\Include/arm_math.h ****  * @defgroup groupFilters Filtering Functions
 195:.\Include/arm_math.h ****  */
 196:.\Include/arm_math.h **** 
 197:.\Include/arm_math.h **** /**
 198:.\Include/arm_math.h ****  * @defgroup groupMatrix Matrix Functions
 199:.\Include/arm_math.h ****  *
 200:.\Include/arm_math.h ****  * This set of functions provides basic matrix math operations.
 201:.\Include/arm_math.h ****  * The functions operate on matrix data structures.  For example,
 202:.\Include/arm_math.h ****  * the type
 203:.\Include/arm_math.h ****  * definition for the floating-point matrix structure is shown
 204:.\Include/arm_math.h ****  * below:
 205:.\Include/arm_math.h ****  * <pre>
 206:.\Include/arm_math.h ****  *     typedef struct
 207:.\Include/arm_math.h ****  *     {
 208:.\Include/arm_math.h ****  *       uint16_t numRows;     // number of rows of the matrix.
 209:.\Include/arm_math.h ****  *       uint16_t numCols;     // number of columns of the matrix.
 210:.\Include/arm_math.h ****  *       float32_t *pData;     // points to the data of the matrix.
 211:.\Include/arm_math.h ****  *     } arm_matrix_instance_f32;
 212:.\Include/arm_math.h ****  * </pre>
 213:.\Include/arm_math.h ****  * There are similar definitions for Q15 and Q31 data types.
 214:.\Include/arm_math.h ****  *
 215:.\Include/arm_math.h ****  * The structure specifies the size of the matrix and then points to
 216:.\Include/arm_math.h ****  * an array of data.  The array is of size <code>numRows X numCols</code>
 217:.\Include/arm_math.h ****  * and the values are arranged in row order.  That is, the
 218:.\Include/arm_math.h ****  * matrix element (i, j) is stored at:
 219:.\Include/arm_math.h ****  * <pre>
 220:.\Include/arm_math.h ****  *     pData[i*numCols + j]
 221:.\Include/arm_math.h ****  * </pre>
 222:.\Include/arm_math.h ****  *
 223:.\Include/arm_math.h ****  * \par Init Functions
 224:.\Include/arm_math.h ****  * There is an associated initialization function for each type of matrix
 225:.\Include/arm_math.h ****  * data structure.
 226:.\Include/arm_math.h ****  * The initialization function sets the values of the internal structure fields.
 227:.\Include/arm_math.h ****  * Refer to the function <code>arm_mat_init_f32()</code>, <code>arm_mat_init_q31()</code>
 228:.\Include/arm_math.h ****  * and <code>arm_mat_init_q15()</code> for floating-point, Q31 and Q15 types,  respectively.
 229:.\Include/arm_math.h ****  *
 230:.\Include/arm_math.h ****  * \par
 231:.\Include/arm_math.h ****  * Use of the initialization function is optional. However, if initialization function is used
 232:.\Include/arm_math.h ****  * then the instance structure cannot be placed into a const data section.
 233:.\Include/arm_math.h ****  * To place the instance structure in a const data
 234:.\Include/arm_math.h ****  * section, manually initialize the data structure.  For example:
 235:.\Include/arm_math.h ****  * <pre>
 236:.\Include/arm_math.h ****  * <code>arm_matrix_instance_f32 S = {nRows, nColumns, pData};</code>
 237:.\Include/arm_math.h ****  * <code>arm_matrix_instance_q31 S = {nRows, nColumns, pData};</code>
 238:.\Include/arm_math.h ****  * <code>arm_matrix_instance_q15 S = {nRows, nColumns, pData};</code>
 239:.\Include/arm_math.h ****  * </pre>
 240:.\Include/arm_math.h ****  * where <code>nRows</code> specifies the number of rows, <code>nColumns</code>
 241:.\Include/arm_math.h ****  * specifies the number of columns, and <code>pData</code> points to the
ARM GAS  C:\Users\fneves\AppData\Local\Temp\cc0ayw4Y.s 			page 22


 242:.\Include/arm_math.h ****  * data array.
 243:.\Include/arm_math.h ****  *
 244:.\Include/arm_math.h ****  * \par Size Checking
 245:.\Include/arm_math.h ****  * By default all of the matrix functions perform size checking on the input and
 246:.\Include/arm_math.h ****  * output matrices.  For example, the matrix addition function verifies that the
 247:.\Include/arm_math.h ****  * two input matrices and the output matrix all have the same number of rows and
 248:.\Include/arm_math.h ****  * columns.  If the size check fails the functions return:
 249:.\Include/arm_math.h ****  * <pre>
 250:.\Include/arm_math.h ****  *     ARM_MATH_SIZE_MISMATCH
 251:.\Include/arm_math.h ****  * </pre>
 252:.\Include/arm_math.h ****  * Otherwise the functions return
 253:.\Include/arm_math.h ****  * <pre>
 254:.\Include/arm_math.h ****  *     ARM_MATH_SUCCESS
 255:.\Include/arm_math.h ****  * </pre>
 256:.\Include/arm_math.h ****  * There is some overhead associated with this matrix size checking.
 257:.\Include/arm_math.h ****  * The matrix size checking is enabled via the \#define
 258:.\Include/arm_math.h ****  * <pre>
 259:.\Include/arm_math.h ****  *     ARM_MATH_MATRIX_CHECK
 260:.\Include/arm_math.h ****  * </pre>
 261:.\Include/arm_math.h ****  * within the library project settings.  By default this macro is defined
 262:.\Include/arm_math.h ****  * and size checking is enabled.  By changing the project settings and
 263:.\Include/arm_math.h ****  * undefining this macro size checking is eliminated and the functions
 264:.\Include/arm_math.h ****  * run a bit faster.  With size checking disabled the functions always
 265:.\Include/arm_math.h ****  * return <code>ARM_MATH_SUCCESS</code>.
 266:.\Include/arm_math.h ****  */
 267:.\Include/arm_math.h **** 
 268:.\Include/arm_math.h **** /**
 269:.\Include/arm_math.h ****  * @defgroup groupTransforms Transform Functions
 270:.\Include/arm_math.h ****  */
 271:.\Include/arm_math.h **** 
 272:.\Include/arm_math.h **** /**
 273:.\Include/arm_math.h ****  * @defgroup groupController Controller Functions
 274:.\Include/arm_math.h ****  */
 275:.\Include/arm_math.h **** 
 276:.\Include/arm_math.h **** /**
 277:.\Include/arm_math.h ****  * @defgroup groupStats Statistics Functions
 278:.\Include/arm_math.h ****  */
 279:.\Include/arm_math.h **** /**
 280:.\Include/arm_math.h ****  * @defgroup groupSupport Support Functions
 281:.\Include/arm_math.h ****  */
 282:.\Include/arm_math.h **** 
 283:.\Include/arm_math.h **** /**
 284:.\Include/arm_math.h ****  * @defgroup groupInterpolation Interpolation Functions
 285:.\Include/arm_math.h ****  * These functions perform 1- and 2-dimensional interpolation of data.
 286:.\Include/arm_math.h ****  * Linear interpolation is used for 1-dimensional data and
 287:.\Include/arm_math.h ****  * bilinear interpolation is used for 2-dimensional data.
 288:.\Include/arm_math.h ****  */
 289:.\Include/arm_math.h **** 
 290:.\Include/arm_math.h **** /**
 291:.\Include/arm_math.h ****  * @defgroup groupExamples Examples
 292:.\Include/arm_math.h ****  */
 293:.\Include/arm_math.h **** #ifndef _ARM_MATH_H
 294:.\Include/arm_math.h **** #define _ARM_MATH_H
 295:.\Include/arm_math.h **** 
 296:.\Include/arm_math.h **** /* ignore some GCC warnings */
 297:.\Include/arm_math.h **** #if defined ( __GNUC__ )
 298:.\Include/arm_math.h **** #pragma GCC diagnostic push
ARM GAS  C:\Users\fneves\AppData\Local\Temp\cc0ayw4Y.s 			page 23


 299:.\Include/arm_math.h **** #pragma GCC diagnostic ignored "-Wsign-conversion"
 300:.\Include/arm_math.h **** #pragma GCC diagnostic ignored "-Wconversion"
 301:.\Include/arm_math.h **** #pragma GCC diagnostic ignored "-Wunused-parameter"
 302:.\Include/arm_math.h **** #endif
 303:.\Include/arm_math.h **** 
 304:.\Include/arm_math.h **** #define __CMSIS_GENERIC         /* disable NVIC and Systick functions */
 305:.\Include/arm_math.h **** 
 306:.\Include/arm_math.h **** #if defined(ARM_MATH_CM7)
 307:.\Include/arm_math.h ****   #include "core_cm7.h"
 308:.\Include/arm_math.h ****   #define ARM_MATH_DSP
 309:.\Include/arm_math.h **** #elif defined (ARM_MATH_CM4)
 310:.\Include/arm_math.h ****   #include "core_cm4.h"
 311:.\Include/arm_math.h ****   #define ARM_MATH_DSP
 312:.\Include/arm_math.h **** #elif defined (ARM_MATH_CM3)
 313:.\Include/arm_math.h ****   #include "core_cm3.h"
 314:.\Include/arm_math.h **** #elif defined (ARM_MATH_CM0)
 315:.\Include/arm_math.h ****   #include "core_cm0.h"
 316:.\Include/arm_math.h ****   #define ARM_MATH_CM0_FAMILY
 317:.\Include/arm_math.h **** #elif defined (ARM_MATH_CM0PLUS)
 318:.\Include/arm_math.h ****   #include "core_cm0plus.h"
 319:.\Include/arm_math.h ****   #define ARM_MATH_CM0_FAMILY
 320:.\Include/arm_math.h **** #elif defined (ARM_MATH_ARMV8MBL)
 321:.\Include/arm_math.h ****   #include "core_armv8mbl.h"
 322:.\Include/arm_math.h ****   #define ARM_MATH_CM0_FAMILY
 323:.\Include/arm_math.h **** #elif defined (ARM_MATH_ARMV8MML)
 324:.\Include/arm_math.h ****   #include "core_armv8mml.h"
 325:.\Include/arm_math.h ****   #if (defined (__DSP_PRESENT) && (__DSP_PRESENT == 1))
 326:.\Include/arm_math.h ****     #define ARM_MATH_DSP
 327:.\Include/arm_math.h ****   #endif
 328:.\Include/arm_math.h **** #else
 329:.\Include/arm_math.h ****   #error "Define according the used Cortex core ARM_MATH_CM7, ARM_MATH_CM4, ARM_MATH_CM3, ARM_MATH_
 330:.\Include/arm_math.h **** #endif
 331:.\Include/arm_math.h **** 
 332:.\Include/arm_math.h **** #undef  __CMSIS_GENERIC         /* enable NVIC and Systick functions */
 333:.\Include/arm_math.h **** #include "string.h"
 334:.\Include/arm_math.h **** #include "math.h"
 335:.\Include/arm_math.h **** #ifdef   __cplusplus
 336:.\Include/arm_math.h **** extern "C"
 337:.\Include/arm_math.h **** {
 338:.\Include/arm_math.h **** #endif
 339:.\Include/arm_math.h **** 
 340:.\Include/arm_math.h **** 
 341:.\Include/arm_math.h ****   /**
 342:.\Include/arm_math.h ****    * @brief Macros required for reciprocal calculation in Normalized LMS
 343:.\Include/arm_math.h ****    */
 344:.\Include/arm_math.h **** 
 345:.\Include/arm_math.h **** #define DELTA_Q31          (0x100)
 346:.\Include/arm_math.h **** #define DELTA_Q15          0x5
 347:.\Include/arm_math.h **** #define INDEX_MASK         0x0000003F
 348:.\Include/arm_math.h **** #ifndef PI
 349:.\Include/arm_math.h ****   #define PI               3.14159265358979f
 350:.\Include/arm_math.h **** #endif
 351:.\Include/arm_math.h **** 
 352:.\Include/arm_math.h ****   /**
 353:.\Include/arm_math.h ****    * @brief Macros required for SINE and COSINE Fast math approximations
 354:.\Include/arm_math.h ****    */
 355:.\Include/arm_math.h **** 
ARM GAS  C:\Users\fneves\AppData\Local\Temp\cc0ayw4Y.s 			page 24


 356:.\Include/arm_math.h **** #define FAST_MATH_TABLE_SIZE  512
 357:.\Include/arm_math.h **** #define FAST_MATH_Q31_SHIFT   (32 - 10)
 358:.\Include/arm_math.h **** #define FAST_MATH_Q15_SHIFT   (16 - 10)
 359:.\Include/arm_math.h **** #define CONTROLLER_Q31_SHIFT  (32 - 9)
 360:.\Include/arm_math.h **** #define TABLE_SPACING_Q31     0x400000
 361:.\Include/arm_math.h **** #define TABLE_SPACING_Q15     0x80
 362:.\Include/arm_math.h **** 
 363:.\Include/arm_math.h ****   /**
 364:.\Include/arm_math.h ****    * @brief Macros required for SINE and COSINE Controller functions
 365:.\Include/arm_math.h ****    */
 366:.\Include/arm_math.h ****   /* 1.31(q31) Fixed value of 2/360 */
 367:.\Include/arm_math.h ****   /* -1 to +1 is divided into 360 values so total spacing is (2/360) */
 368:.\Include/arm_math.h **** #define INPUT_SPACING         0xB60B61
 369:.\Include/arm_math.h **** 
 370:.\Include/arm_math.h ****   /**
 371:.\Include/arm_math.h ****    * @brief Macro for Unaligned Support
 372:.\Include/arm_math.h ****    */
 373:.\Include/arm_math.h **** #ifndef UNALIGNED_SUPPORT_DISABLE
 374:.\Include/arm_math.h ****     #define ALIGN4
 375:.\Include/arm_math.h **** #else
 376:.\Include/arm_math.h ****   #if defined  (__GNUC__)
 377:.\Include/arm_math.h ****     #define ALIGN4 __attribute__((aligned(4)))
 378:.\Include/arm_math.h ****   #else
 379:.\Include/arm_math.h ****     #define ALIGN4 __align(4)
 380:.\Include/arm_math.h ****   #endif
 381:.\Include/arm_math.h **** #endif   /* #ifndef UNALIGNED_SUPPORT_DISABLE */
 382:.\Include/arm_math.h **** 
 383:.\Include/arm_math.h ****   /**
 384:.\Include/arm_math.h ****    * @brief Error status returned by some functions in the library.
 385:.\Include/arm_math.h ****    */
 386:.\Include/arm_math.h **** 
 387:.\Include/arm_math.h ****   typedef enum
 388:.\Include/arm_math.h ****   {
 389:.\Include/arm_math.h ****     ARM_MATH_SUCCESS = 0,                /**< No error */
 390:.\Include/arm_math.h ****     ARM_MATH_ARGUMENT_ERROR = -1,        /**< One or more arguments are incorrect */
 391:.\Include/arm_math.h ****     ARM_MATH_LENGTH_ERROR = -2,          /**< Length of data buffer is incorrect */
 392:.\Include/arm_math.h ****     ARM_MATH_SIZE_MISMATCH = -3,         /**< Size of matrices is not compatible with the operation
 393:.\Include/arm_math.h ****     ARM_MATH_NANINF = -4,                /**< Not-a-number (NaN) or infinity is generated */
 394:.\Include/arm_math.h ****     ARM_MATH_SINGULAR = -5,              /**< Generated by matrix inversion if the input matrix is 
 395:.\Include/arm_math.h ****     ARM_MATH_TEST_FAILURE = -6           /**< Test Failed  */
 396:.\Include/arm_math.h ****   } arm_status;
 397:.\Include/arm_math.h **** 
 398:.\Include/arm_math.h ****   /**
 399:.\Include/arm_math.h ****    * @brief 8-bit fractional data type in 1.7 format.
 400:.\Include/arm_math.h ****    */
 401:.\Include/arm_math.h ****   typedef int8_t q7_t;
 402:.\Include/arm_math.h **** 
 403:.\Include/arm_math.h ****   /**
 404:.\Include/arm_math.h ****    * @brief 16-bit fractional data type in 1.15 format.
 405:.\Include/arm_math.h ****    */
 406:.\Include/arm_math.h ****   typedef int16_t q15_t;
 407:.\Include/arm_math.h **** 
 408:.\Include/arm_math.h ****   /**
 409:.\Include/arm_math.h ****    * @brief 32-bit fractional data type in 1.31 format.
 410:.\Include/arm_math.h ****    */
 411:.\Include/arm_math.h ****   typedef int32_t q31_t;
 412:.\Include/arm_math.h **** 
ARM GAS  C:\Users\fneves\AppData\Local\Temp\cc0ayw4Y.s 			page 25


 413:.\Include/arm_math.h ****   /**
 414:.\Include/arm_math.h ****    * @brief 64-bit fractional data type in 1.63 format.
 415:.\Include/arm_math.h ****    */
 416:.\Include/arm_math.h ****   typedef int64_t q63_t;
 417:.\Include/arm_math.h **** 
 418:.\Include/arm_math.h ****   /**
 419:.\Include/arm_math.h ****    * @brief 32-bit floating-point type definition.
 420:.\Include/arm_math.h ****    */
 421:.\Include/arm_math.h ****   typedef float float32_t;
 422:.\Include/arm_math.h **** 
 423:.\Include/arm_math.h ****   /**
 424:.\Include/arm_math.h ****    * @brief 64-bit floating-point type definition.
 425:.\Include/arm_math.h ****    */
 426:.\Include/arm_math.h ****   typedef double float64_t;
 427:.\Include/arm_math.h **** 
 428:.\Include/arm_math.h ****   /**
 429:.\Include/arm_math.h ****    * @brief definition to read/write two 16 bit values.
 430:.\Include/arm_math.h ****    */
 431:.\Include/arm_math.h **** #if   defined ( __CC_ARM )
 432:.\Include/arm_math.h ****   #define __SIMD32_TYPE int32_t __packed
 433:.\Include/arm_math.h ****   #define CMSIS_UNUSED __attribute__((unused))
 434:.\Include/arm_math.h ****   #define CMSIS_INLINE __attribute__((always_inline))
 435:.\Include/arm_math.h **** 
 436:.\Include/arm_math.h **** #elif defined ( __ARMCC_VERSION ) && ( __ARMCC_VERSION >= 6010050 )
 437:.\Include/arm_math.h ****   #define __SIMD32_TYPE int32_t
 438:.\Include/arm_math.h ****   #define CMSIS_UNUSED __attribute__((unused))
 439:.\Include/arm_math.h ****   #define CMSIS_INLINE __attribute__((always_inline))
 440:.\Include/arm_math.h **** 
 441:.\Include/arm_math.h **** #elif defined ( __GNUC__ )
 442:.\Include/arm_math.h ****   #define __SIMD32_TYPE int32_t
 443:.\Include/arm_math.h ****   #define CMSIS_UNUSED __attribute__((unused))
 444:.\Include/arm_math.h ****   #define CMSIS_INLINE __attribute__((always_inline))
 445:.\Include/arm_math.h **** 
 446:.\Include/arm_math.h **** #elif defined ( __ICCARM__ )
 447:.\Include/arm_math.h ****   #define __SIMD32_TYPE int32_t __packed
 448:.\Include/arm_math.h ****   #define CMSIS_UNUSED
 449:.\Include/arm_math.h ****   #define CMSIS_INLINE
 450:.\Include/arm_math.h **** 
 451:.\Include/arm_math.h **** #elif defined ( __TI_ARM__ )
 452:.\Include/arm_math.h ****   #define __SIMD32_TYPE int32_t
 453:.\Include/arm_math.h ****   #define CMSIS_UNUSED __attribute__((unused))
 454:.\Include/arm_math.h ****   #define CMSIS_INLINE
 455:.\Include/arm_math.h **** 
 456:.\Include/arm_math.h **** #elif defined ( __CSMC__ )
 457:.\Include/arm_math.h ****   #define __SIMD32_TYPE int32_t
 458:.\Include/arm_math.h ****   #define CMSIS_UNUSED
 459:.\Include/arm_math.h ****   #define CMSIS_INLINE
 460:.\Include/arm_math.h **** 
 461:.\Include/arm_math.h **** #elif defined ( __TASKING__ )
 462:.\Include/arm_math.h ****   #define __SIMD32_TYPE __unaligned int32_t
 463:.\Include/arm_math.h ****   #define CMSIS_UNUSED
 464:.\Include/arm_math.h ****   #define CMSIS_INLINE
 465:.\Include/arm_math.h **** 
 466:.\Include/arm_math.h **** #else
 467:.\Include/arm_math.h ****   #error Unknown compiler
 468:.\Include/arm_math.h **** #endif
 469:.\Include/arm_math.h **** 
ARM GAS  C:\Users\fneves\AppData\Local\Temp\cc0ayw4Y.s 			page 26


 470:.\Include/arm_math.h **** #define __SIMD32(addr)        (*(__SIMD32_TYPE **) & (addr))
 471:.\Include/arm_math.h **** #define __SIMD32_CONST(addr)  ((__SIMD32_TYPE *)(addr))
 472:.\Include/arm_math.h **** #define _SIMD32_OFFSET(addr)  (*(__SIMD32_TYPE *)  (addr))
 473:.\Include/arm_math.h **** #define __SIMD64(addr)        (*(int64_t **) & (addr))
 474:.\Include/arm_math.h **** 
 475:.\Include/arm_math.h **** /* #if defined (ARM_MATH_CM3) || defined (ARM_MATH_CM0_FAMILY) */
 476:.\Include/arm_math.h **** #if !defined (ARM_MATH_DSP)
 477:.\Include/arm_math.h ****   /**
 478:.\Include/arm_math.h ****    * @brief definition to pack two 16 bit values.
 479:.\Include/arm_math.h ****    */
 480:.\Include/arm_math.h **** #define __PKHBT(ARG1, ARG2, ARG3) ( (((int32_t)(ARG1) <<    0) & (int32_t)0x0000FFFF) | \
 481:.\Include/arm_math.h ****                                     (((int32_t)(ARG2) << ARG3) & (int32_t)0xFFFF0000)  )
 482:.\Include/arm_math.h **** #define __PKHTB(ARG1, ARG2, ARG3) ( (((int32_t)(ARG1) <<    0) & (int32_t)0xFFFF0000) | \
 483:.\Include/arm_math.h ****                                     (((int32_t)(ARG2) >> ARG3) & (int32_t)0x0000FFFF)  )
 484:.\Include/arm_math.h **** 
 485:.\Include/arm_math.h **** /* #endif // defined (ARM_MATH_CM3) || defined (ARM_MATH_CM0_FAMILY) */
 486:.\Include/arm_math.h **** #endif /* !defined (ARM_MATH_DSP) */
 487:.\Include/arm_math.h **** 
 488:.\Include/arm_math.h ****    /**
 489:.\Include/arm_math.h ****    * @brief definition to pack four 8 bit values.
 490:.\Include/arm_math.h ****    */
 491:.\Include/arm_math.h **** #ifndef ARM_MATH_BIG_ENDIAN
 492:.\Include/arm_math.h **** 
 493:.\Include/arm_math.h **** #define __PACKq7(v0,v1,v2,v3) ( (((int32_t)(v0) <<  0) & (int32_t)0x000000FF) | \
 494:.\Include/arm_math.h ****                                 (((int32_t)(v1) <<  8) & (int32_t)0x0000FF00) | \
 495:.\Include/arm_math.h ****                                 (((int32_t)(v2) << 16) & (int32_t)0x00FF0000) | \
 496:.\Include/arm_math.h ****                                 (((int32_t)(v3) << 24) & (int32_t)0xFF000000)  )
 497:.\Include/arm_math.h **** #else
 498:.\Include/arm_math.h **** 
 499:.\Include/arm_math.h **** #define __PACKq7(v0,v1,v2,v3) ( (((int32_t)(v3) <<  0) & (int32_t)0x000000FF) | \
 500:.\Include/arm_math.h ****                                 (((int32_t)(v2) <<  8) & (int32_t)0x0000FF00) | \
 501:.\Include/arm_math.h ****                                 (((int32_t)(v1) << 16) & (int32_t)0x00FF0000) | \
 502:.\Include/arm_math.h ****                                 (((int32_t)(v0) << 24) & (int32_t)0xFF000000)  )
 503:.\Include/arm_math.h **** 
 504:.\Include/arm_math.h **** #endif
 505:.\Include/arm_math.h **** 
 506:.\Include/arm_math.h **** 
 507:.\Include/arm_math.h ****   /**
 508:.\Include/arm_math.h ****    * @brief Clips Q63 to Q31 values.
 509:.\Include/arm_math.h ****    */
 510:.\Include/arm_math.h ****   CMSIS_INLINE __STATIC_INLINE q31_t clip_q63_to_q31(
 511:.\Include/arm_math.h ****   q63_t x)
 512:.\Include/arm_math.h ****   {
 513:.\Include/arm_math.h ****     return ((q31_t) (x >> 32) != ((q31_t) x >> 31)) ?
 514:.\Include/arm_math.h ****       ((0x7FFFFFFF ^ ((q31_t) (x >> 63)))) : (q31_t) x;
 515:.\Include/arm_math.h ****   }
 516:.\Include/arm_math.h **** 
 517:.\Include/arm_math.h ****   /**
 518:.\Include/arm_math.h ****    * @brief Clips Q63 to Q15 values.
 519:.\Include/arm_math.h ****    */
 520:.\Include/arm_math.h ****   CMSIS_INLINE __STATIC_INLINE q15_t clip_q63_to_q15(
 521:.\Include/arm_math.h ****   q63_t x)
 522:.\Include/arm_math.h ****   {
 523:.\Include/arm_math.h ****     return ((q31_t) (x >> 32) != ((q31_t) x >> 31)) ?
 524:.\Include/arm_math.h ****       ((0x7FFF ^ ((q15_t) (x >> 63)))) : (q15_t) (x >> 15);
 525:.\Include/arm_math.h ****   }
 526:.\Include/arm_math.h **** 
ARM GAS  C:\Users\fneves\AppData\Local\Temp\cc0ayw4Y.s 			page 27


 527:.\Include/arm_math.h ****   /**
 528:.\Include/arm_math.h ****    * @brief Clips Q31 to Q7 values.
 529:.\Include/arm_math.h ****    */
 530:.\Include/arm_math.h ****   CMSIS_INLINE __STATIC_INLINE q7_t clip_q31_to_q7(
 531:.\Include/arm_math.h ****   q31_t x)
 532:.\Include/arm_math.h ****   {
 533:.\Include/arm_math.h ****     return ((q31_t) (x >> 24) != ((q31_t) x >> 23)) ?
 534:.\Include/arm_math.h ****       ((0x7F ^ ((q7_t) (x >> 31)))) : (q7_t) x;
 535:.\Include/arm_math.h ****   }
 536:.\Include/arm_math.h **** 
 537:.\Include/arm_math.h ****   /**
 538:.\Include/arm_math.h ****    * @brief Clips Q31 to Q15 values.
 539:.\Include/arm_math.h ****    */
 540:.\Include/arm_math.h ****   CMSIS_INLINE __STATIC_INLINE q15_t clip_q31_to_q15(
 541:.\Include/arm_math.h ****   q31_t x)
 542:.\Include/arm_math.h ****   {
 543:.\Include/arm_math.h ****     return ((q31_t) (x >> 16) != ((q31_t) x >> 15)) ?
 544:.\Include/arm_math.h ****       ((0x7FFF ^ ((q15_t) (x >> 31)))) : (q15_t) x;
 545:.\Include/arm_math.h ****   }
 546:.\Include/arm_math.h **** 
 547:.\Include/arm_math.h ****   /**
 548:.\Include/arm_math.h ****    * @brief Multiplies 32 X 64 and returns 32 bit result in 2.30 format.
 549:.\Include/arm_math.h ****    */
 550:.\Include/arm_math.h **** 
 551:.\Include/arm_math.h ****   CMSIS_INLINE __STATIC_INLINE q63_t mult32x64(
 552:.\Include/arm_math.h ****   q63_t x,
 553:.\Include/arm_math.h ****   q31_t y)
 554:.\Include/arm_math.h ****   {
 555:.\Include/arm_math.h ****     return ((((q63_t) (x & 0x00000000FFFFFFFF) * y) >> 32) +
 556:.\Include/arm_math.h ****             (((q63_t) (x >> 32) * y)));
 557:.\Include/arm_math.h ****   }
 558:.\Include/arm_math.h **** 
 559:.\Include/arm_math.h **** /*
 560:.\Include/arm_math.h ****   #if defined (ARM_MATH_CM0_FAMILY) && defined ( __CC_ARM   )
 561:.\Include/arm_math.h ****   #define __CLZ __clz
 562:.\Include/arm_math.h ****   #endif
 563:.\Include/arm_math.h ****  */
 564:.\Include/arm_math.h **** /* note: function can be removed when all toolchain support __CLZ for Cortex-M0 */
 565:.\Include/arm_math.h **** #if defined (ARM_MATH_CM0_FAMILY) && ((defined (__ICCARM__))  )
 566:.\Include/arm_math.h ****   CMSIS_INLINE __STATIC_INLINE uint32_t __CLZ(
 567:.\Include/arm_math.h ****   q31_t data);
 568:.\Include/arm_math.h **** 
 569:.\Include/arm_math.h ****   CMSIS_INLINE __STATIC_INLINE uint32_t __CLZ(
 570:.\Include/arm_math.h ****   q31_t data)
 571:.\Include/arm_math.h ****   {
 572:.\Include/arm_math.h ****     uint32_t count = 0;
 573:.\Include/arm_math.h ****     uint32_t mask = 0x80000000;
 574:.\Include/arm_math.h **** 
 575:.\Include/arm_math.h ****     while ((data & mask) == 0)
 576:.\Include/arm_math.h ****     {
 577:.\Include/arm_math.h ****       count += 1u;
 578:.\Include/arm_math.h ****       mask = mask >> 1u;
 579:.\Include/arm_math.h ****     }
 580:.\Include/arm_math.h **** 
 581:.\Include/arm_math.h ****     return (count);
 582:.\Include/arm_math.h ****   }
 583:.\Include/arm_math.h **** #endif
ARM GAS  C:\Users\fneves\AppData\Local\Temp\cc0ayw4Y.s 			page 28


 584:.\Include/arm_math.h **** 
 585:.\Include/arm_math.h ****   /**
 586:.\Include/arm_math.h ****    * @brief Function to Calculates 1/in (reciprocal) value of Q31 Data type.
 587:.\Include/arm_math.h ****    */
 588:.\Include/arm_math.h **** 
 589:.\Include/arm_math.h ****   CMSIS_INLINE __STATIC_INLINE uint32_t arm_recip_q31(
 590:.\Include/arm_math.h ****   q31_t in,
 591:.\Include/arm_math.h ****   q31_t * dst,
 592:.\Include/arm_math.h ****   q31_t * pRecipTable)
 593:.\Include/arm_math.h ****   {
 594:.\Include/arm_math.h ****     q31_t out;
 595:.\Include/arm_math.h ****     uint32_t tempVal;
 596:.\Include/arm_math.h ****     uint32_t index, i;
 597:.\Include/arm_math.h ****     uint32_t signBits;
 598:.\Include/arm_math.h **** 
 599:.\Include/arm_math.h ****     if (in > 0)
 600:.\Include/arm_math.h ****     {
 601:.\Include/arm_math.h ****       signBits = ((uint32_t) (__CLZ( in) - 1));
 602:.\Include/arm_math.h ****     }
 603:.\Include/arm_math.h ****     else
 604:.\Include/arm_math.h ****     {
 605:.\Include/arm_math.h ****       signBits = ((uint32_t) (__CLZ(-in) - 1));
 606:.\Include/arm_math.h ****     }
 607:.\Include/arm_math.h **** 
 608:.\Include/arm_math.h ****     /* Convert input sample to 1.31 format */
 609:.\Include/arm_math.h ****     in = (in << signBits);
 610:.\Include/arm_math.h **** 
 611:.\Include/arm_math.h ****     /* calculation of index for initial approximated Val */
 612:.\Include/arm_math.h ****     index = (uint32_t)(in >> 24);
 613:.\Include/arm_math.h ****     index = (index & INDEX_MASK);
 614:.\Include/arm_math.h **** 
 615:.\Include/arm_math.h ****     /* 1.31 with exp 1 */
 616:.\Include/arm_math.h ****     out = pRecipTable[index];
 617:.\Include/arm_math.h **** 
 618:.\Include/arm_math.h ****     /* calculation of reciprocal value */
 619:.\Include/arm_math.h ****     /* running approximation for two iterations */
 620:.\Include/arm_math.h ****     for (i = 0u; i < 2u; i++)
 621:.\Include/arm_math.h ****     {
 622:.\Include/arm_math.h ****       tempVal = (uint32_t) (((q63_t) in * out) >> 31);
 623:.\Include/arm_math.h ****       tempVal = 0x7FFFFFFFu - tempVal;
 624:.\Include/arm_math.h ****       /*      1.31 with exp 1 */
 625:.\Include/arm_math.h ****       /* out = (q31_t) (((q63_t) out * tempVal) >> 30); */
 626:.\Include/arm_math.h ****       out = clip_q63_to_q31(((q63_t) out * tempVal) >> 30);
 627:.\Include/arm_math.h ****     }
 628:.\Include/arm_math.h **** 
 629:.\Include/arm_math.h ****     /* write output */
 630:.\Include/arm_math.h ****     *dst = out;
 631:.\Include/arm_math.h **** 
 632:.\Include/arm_math.h ****     /* return num of signbits of out = 1/in value */
 633:.\Include/arm_math.h ****     return (signBits + 1u);
 634:.\Include/arm_math.h ****   }
 635:.\Include/arm_math.h **** 
 636:.\Include/arm_math.h **** 
 637:.\Include/arm_math.h ****   /**
 638:.\Include/arm_math.h ****    * @brief Function to Calculates 1/in (reciprocal) value of Q15 Data type.
 639:.\Include/arm_math.h ****    */
 640:.\Include/arm_math.h ****   CMSIS_INLINE __STATIC_INLINE uint32_t arm_recip_q15(
ARM GAS  C:\Users\fneves\AppData\Local\Temp\cc0ayw4Y.s 			page 29


 641:.\Include/arm_math.h ****   q15_t in,
 642:.\Include/arm_math.h ****   q15_t * dst,
 643:.\Include/arm_math.h ****   q15_t * pRecipTable)
 644:.\Include/arm_math.h ****   {
 645:.\Include/arm_math.h ****     q15_t out = 0;
 646:.\Include/arm_math.h ****     uint32_t tempVal = 0;
 647:.\Include/arm_math.h ****     uint32_t index = 0, i = 0;
 648:.\Include/arm_math.h ****     uint32_t signBits = 0;
 649:.\Include/arm_math.h **** 
 650:.\Include/arm_math.h ****     if (in > 0)
 651:.\Include/arm_math.h ****     {
 652:.\Include/arm_math.h ****       signBits = ((uint32_t)(__CLZ( in) - 17));
 653:.\Include/arm_math.h ****     }
 654:.\Include/arm_math.h ****     else
 655:.\Include/arm_math.h ****     {
 656:.\Include/arm_math.h ****       signBits = ((uint32_t)(__CLZ(-in) - 17));
 657:.\Include/arm_math.h ****     }
 658:.\Include/arm_math.h **** 
 659:.\Include/arm_math.h ****     /* Convert input sample to 1.15 format */
 660:.\Include/arm_math.h ****     in = (in << signBits);
 661:.\Include/arm_math.h **** 
 662:.\Include/arm_math.h ****     /* calculation of index for initial approximated Val */
 663:.\Include/arm_math.h ****     index = (uint32_t)(in >>  8);
 664:.\Include/arm_math.h ****     index = (index & INDEX_MASK);
 665:.\Include/arm_math.h **** 
 666:.\Include/arm_math.h ****     /*      1.15 with exp 1  */
 667:.\Include/arm_math.h ****     out = pRecipTable[index];
 668:.\Include/arm_math.h **** 
 669:.\Include/arm_math.h ****     /* calculation of reciprocal value */
 670:.\Include/arm_math.h ****     /* running approximation for two iterations */
 671:.\Include/arm_math.h ****     for (i = 0u; i < 2u; i++)
 672:.\Include/arm_math.h ****     {
 673:.\Include/arm_math.h ****       tempVal = (uint32_t) (((q31_t) in * out) >> 15);
 674:.\Include/arm_math.h ****       tempVal = 0x7FFFu - tempVal;
 675:.\Include/arm_math.h ****       /*      1.15 with exp 1 */
 676:.\Include/arm_math.h ****       out = (q15_t) (((q31_t) out * tempVal) >> 14);
 677:.\Include/arm_math.h ****       /* out = clip_q31_to_q15(((q31_t) out * tempVal) >> 14); */
 678:.\Include/arm_math.h ****     }
 679:.\Include/arm_math.h **** 
 680:.\Include/arm_math.h ****     /* write output */
 681:.\Include/arm_math.h ****     *dst = out;
 682:.\Include/arm_math.h **** 
 683:.\Include/arm_math.h ****     /* return num of signbits of out = 1/in value */
 684:.\Include/arm_math.h ****     return (signBits + 1);
 685:.\Include/arm_math.h ****   }
 686:.\Include/arm_math.h **** 
 687:.\Include/arm_math.h **** 
 688:.\Include/arm_math.h ****   /*
 689:.\Include/arm_math.h ****    * @brief C custom defined intrinisic function for only M0 processors
 690:.\Include/arm_math.h ****    */
 691:.\Include/arm_math.h **** #if defined(ARM_MATH_CM0_FAMILY)
 692:.\Include/arm_math.h ****   CMSIS_INLINE __STATIC_INLINE q31_t __SSAT(
 693:.\Include/arm_math.h ****   q31_t x,
 694:.\Include/arm_math.h ****   uint32_t y)
 695:.\Include/arm_math.h ****   {
 696:.\Include/arm_math.h ****     int32_t posMax, negMin;
 697:.\Include/arm_math.h ****     uint32_t i;
ARM GAS  C:\Users\fneves\AppData\Local\Temp\cc0ayw4Y.s 			page 30


 698:.\Include/arm_math.h **** 
 699:.\Include/arm_math.h ****     posMax = 1;
 293              		.loc 2 699 0 discriminator 1
 294 0142 0123     		mov	r3, #1
 295 0144 9822     		mov	r2, #152
 296 0146 9200     		lsl	r2, r2, #2
 297 0148 BA18     		add	r2, r7, r2
 298 014a 1360     		str	r3, [r2]
 700:.\Include/arm_math.h ****     for (i = 0; i < (y - 1); i++)
 299              		.loc 2 700 0 discriminator 1
 300 014c 0023     		mov	r3, #0
 301 014e 9722     		mov	r2, #151
 302 0150 9200     		lsl	r2, r2, #2
 303 0152 BA18     		add	r2, r7, r2
 304 0154 1360     		str	r3, [r2]
 305 0156 11E0     		b	.L6
 306              	.L7:
 701:.\Include/arm_math.h ****     {
 702:.\Include/arm_math.h ****       posMax = posMax * 2;
 307              		.loc 2 702 0
 308 0158 9823     		mov	r3, #152
 309 015a 9B00     		lsl	r3, r3, #2
 310 015c FB18     		add	r3, r7, r3
 311 015e 1B68     		ldr	r3, [r3]
 312 0160 5B00     		lsl	r3, r3, #1
 313 0162 9822     		mov	r2, #152
 314 0164 9200     		lsl	r2, r2, #2
 315 0166 BA18     		add	r2, r7, r2
 316 0168 1360     		str	r3, [r2]
 700:.\Include/arm_math.h ****     for (i = 0; i < (y - 1); i++)
 317              		.loc 2 700 0
 318 016a 9723     		mov	r3, #151
 319 016c 9B00     		lsl	r3, r3, #2
 320 016e FB18     		add	r3, r7, r3
 321 0170 1B68     		ldr	r3, [r3]
 322 0172 0133     		add	r3, r3, #1
 323 0174 9722     		mov	r2, #151
 324 0176 9200     		lsl	r2, r2, #2
 325 0178 BA18     		add	r2, r7, r2
 326 017a 1360     		str	r3, [r2]
 327              	.L6:
 328 017c 9923     		mov	r3, #153
 329 017e 9B00     		lsl	r3, r3, #2
 330 0180 FB18     		add	r3, r7, r3
 331 0182 1B68     		ldr	r3, [r3]
 332 0184 013B     		sub	r3, r3, #1
 333 0186 9722     		mov	r2, #151
 334 0188 9200     		lsl	r2, r2, #2
 335 018a BA18     		add	r2, r7, r2
 336 018c 1268     		ldr	r2, [r2]
 337 018e 9A42     		cmp	r2, r3
 338 0190 E2D3     		bcc	.L7
 703:.\Include/arm_math.h ****     }
 704:.\Include/arm_math.h **** 
 705:.\Include/arm_math.h ****     if (x > 0)
 339              		.loc 2 705 0
 340 0192 9A23     		mov	r3, #154
ARM GAS  C:\Users\fneves\AppData\Local\Temp\cc0ayw4Y.s 			page 31


 341 0194 9B00     		lsl	r3, r3, #2
 342 0196 FB18     		add	r3, r7, r3
 343 0198 1B68     		ldr	r3, [r3]
 344 019a 002B     		cmp	r3, #0
 345 019c 1BDD     		ble	.L8
 706:.\Include/arm_math.h ****     {
 707:.\Include/arm_math.h ****       posMax = (posMax - 1);
 346              		.loc 2 707 0
 347 019e 9823     		mov	r3, #152
 348 01a0 9B00     		lsl	r3, r3, #2
 349 01a2 FB18     		add	r3, r7, r3
 350 01a4 1B68     		ldr	r3, [r3]
 351 01a6 013B     		sub	r3, r3, #1
 352 01a8 9822     		mov	r2, #152
 353 01aa 9200     		lsl	r2, r2, #2
 354 01ac BA18     		add	r2, r7, r2
 355 01ae 1360     		str	r3, [r2]
 708:.\Include/arm_math.h **** 
 709:.\Include/arm_math.h ****       if (x > posMax)
 356              		.loc 2 709 0
 357 01b0 9A23     		mov	r3, #154
 358 01b2 9B00     		lsl	r3, r3, #2
 359 01b4 FB18     		add	r3, r7, r3
 360 01b6 1A68     		ldr	r2, [r3]
 361 01b8 9823     		mov	r3, #152
 362 01ba 9B00     		lsl	r3, r3, #2
 363 01bc FB18     		add	r3, r7, r3
 364 01be 1B68     		ldr	r3, [r3]
 365 01c0 9A42     		cmp	r2, r3
 366 01c2 24DD     		ble	.L195
 710:.\Include/arm_math.h ****       {
 711:.\Include/arm_math.h ****         x = posMax;
 367              		.loc 2 711 0
 368 01c4 9823     		mov	r3, #152
 369 01c6 9B00     		lsl	r3, r3, #2
 370 01c8 FB18     		add	r3, r7, r3
 371 01ca 1B68     		ldr	r3, [r3]
 372 01cc 9A22     		mov	r2, #154
 373 01ce 9200     		lsl	r2, r2, #2
 374 01d0 BA18     		add	r2, r7, r2
 375 01d2 1360     		str	r3, [r2]
 376 01d4 1CE0     		b	.L10
 377              	.L8:
 712:.\Include/arm_math.h ****       }
 713:.\Include/arm_math.h ****     }
 714:.\Include/arm_math.h ****     else
 715:.\Include/arm_math.h ****     {
 716:.\Include/arm_math.h ****       negMin = -posMax;
 378              		.loc 2 716 0
 379 01d6 9823     		mov	r3, #152
 380 01d8 9B00     		lsl	r3, r3, #2
 381 01da FB18     		add	r3, r7, r3
 382 01dc 1B68     		ldr	r3, [r3]
 383 01de 5B42     		neg	r3, r3
 384 01e0 9622     		mov	r2, #150
 385 01e2 9200     		lsl	r2, r2, #2
 386 01e4 BA18     		add	r2, r7, r2
ARM GAS  C:\Users\fneves\AppData\Local\Temp\cc0ayw4Y.s 			page 32


 387 01e6 1360     		str	r3, [r2]
 717:.\Include/arm_math.h **** 
 718:.\Include/arm_math.h ****       if (x < negMin)
 388              		.loc 2 718 0
 389 01e8 9A23     		mov	r3, #154
 390 01ea 9B00     		lsl	r3, r3, #2
 391 01ec FB18     		add	r3, r7, r3
 392 01ee 1A68     		ldr	r2, [r3]
 393 01f0 9623     		mov	r3, #150
 394 01f2 9B00     		lsl	r3, r3, #2
 395 01f4 FB18     		add	r3, r7, r3
 396 01f6 1B68     		ldr	r3, [r3]
 397 01f8 9A42     		cmp	r2, r3
 398 01fa 09DA     		bge	.L10
 719:.\Include/arm_math.h ****       {
 720:.\Include/arm_math.h ****         x = negMin;
 399              		.loc 2 720 0
 400 01fc 9623     		mov	r3, #150
 401 01fe 9B00     		lsl	r3, r3, #2
 402 0200 FB18     		add	r3, r7, r3
 403 0202 1B68     		ldr	r3, [r3]
 404 0204 9A22     		mov	r2, #154
 405 0206 9200     		lsl	r2, r2, #2
 406 0208 BA18     		add	r2, r7, r2
 407 020a 1360     		str	r3, [r2]
 408 020c 00E0     		b	.L10
 409              	.L195:
 711:.\Include/arm_math.h ****       }
 410              		.loc 2 711 0
 411 020e C046     		mov	r8, r8
 412              	.L10:
 721:.\Include/arm_math.h ****       }
 722:.\Include/arm_math.h ****     }
 723:.\Include/arm_math.h ****     return (x);
 413              		.loc 2 723 0
 414 0210 9A23     		mov	r3, #154
 415 0212 9B00     		lsl	r3, r3, #2
 416 0214 FB18     		add	r3, r7, r3
 417 0216 1A68     		ldr	r2, [r3]
 418              	.LBE123:
 419              	.LBE122:
 420              		.loc 1 664 0
 421 0218 544B     		ldr	r3, .L225+12
 422 021a FB18     		add	r3, r7, r3
 423 021c 1A80     		strh	r2, [r3]
 665:Source\TransformFunctions/arm_cfft_radix4_q15.c ****     /* R1 = (xa + xc) */
 666:Source\TransformFunctions/arm_cfft_radix4_q15.c ****     R1 = __SSAT(T1 + S1, 16u);
 424              		.loc 1 666 0
 425 021e A223     		mov	r3, #162
 426 0220 9B00     		lsl	r3, r3, #2
 427 0222 FB18     		add	r3, r7, r3
 428 0224 0022     		mov	r2, #0
 429 0226 9A5E     		ldrsh	r2, [r3, r2]
 430 0228 A123     		mov	r3, #161
 431 022a 9B00     		lsl	r3, r3, #2
 432 022c FB18     		add	r3, r7, r3
 433 022e 0021     		mov	r1, #0
ARM GAS  C:\Users\fneves\AppData\Local\Temp\cc0ayw4Y.s 			page 33


 434 0230 5B5E     		ldrsh	r3, [r3, r1]
 435 0232 D318     		add	r3, r2, r3
 436 0234 9522     		mov	r2, #149
 437 0236 9200     		lsl	r2, r2, #2
 438 0238 BA18     		add	r2, r7, r2
 439 023a 1360     		str	r3, [r2]
 440 023c 1023     		mov	r3, #16
 441 023e 9422     		mov	r2, #148
 442 0240 9200     		lsl	r2, r2, #2
 443 0242 BA18     		add	r2, r7, r2
 444 0244 1360     		str	r3, [r2]
 445              	.LBB124:
 446              	.LBB125:
 699:.\Include/arm_math.h ****     for (i = 0; i < (y - 1); i++)
 447              		.loc 2 699 0
 448 0246 0123     		mov	r3, #1
 449 0248 9322     		mov	r2, #147
 450 024a 9200     		lsl	r2, r2, #2
 451 024c BA18     		add	r2, r7, r2
 452 024e 1360     		str	r3, [r2]
 700:.\Include/arm_math.h ****     {
 453              		.loc 2 700 0
 454 0250 0023     		mov	r3, #0
 455 0252 9222     		mov	r2, #146
 456 0254 9200     		lsl	r2, r2, #2
 457 0256 BA18     		add	r2, r7, r2
 458 0258 1360     		str	r3, [r2]
 459 025a 11E0     		b	.L12
 460              	.L13:
 702:.\Include/arm_math.h ****     }
 461              		.loc 2 702 0
 462 025c 9323     		mov	r3, #147
 463 025e 9B00     		lsl	r3, r3, #2
 464 0260 FB18     		add	r3, r7, r3
 465 0262 1B68     		ldr	r3, [r3]
 466 0264 5B00     		lsl	r3, r3, #1
 467 0266 9322     		mov	r2, #147
 468 0268 9200     		lsl	r2, r2, #2
 469 026a BA18     		add	r2, r7, r2
 470 026c 1360     		str	r3, [r2]
 700:.\Include/arm_math.h ****     {
 471              		.loc 2 700 0
 472 026e 9223     		mov	r3, #146
 473 0270 9B00     		lsl	r3, r3, #2
 474 0272 FB18     		add	r3, r7, r3
 475 0274 1B68     		ldr	r3, [r3]
 476 0276 0133     		add	r3, r3, #1
 477 0278 9222     		mov	r2, #146
 478 027a 9200     		lsl	r2, r2, #2
 479 027c BA18     		add	r2, r7, r2
 480 027e 1360     		str	r3, [r2]
 481              	.L12:
 482 0280 9423     		mov	r3, #148
 483 0282 9B00     		lsl	r3, r3, #2
 484 0284 FB18     		add	r3, r7, r3
 485 0286 1B68     		ldr	r3, [r3]
 486 0288 013B     		sub	r3, r3, #1
ARM GAS  C:\Users\fneves\AppData\Local\Temp\cc0ayw4Y.s 			page 34


 487 028a 9222     		mov	r2, #146
 488 028c 9200     		lsl	r2, r2, #2
 489 028e BA18     		add	r2, r7, r2
 490 0290 1268     		ldr	r2, [r2]
 491 0292 9A42     		cmp	r2, r3
 492 0294 E2D3     		bcc	.L13
 705:.\Include/arm_math.h ****     {
 493              		.loc 2 705 0
 494 0296 9523     		mov	r3, #149
 495 0298 9B00     		lsl	r3, r3, #2
 496 029a FB18     		add	r3, r7, r3
 497 029c 1B68     		ldr	r3, [r3]
 498 029e 002B     		cmp	r3, #0
 499 02a0 1BDD     		ble	.L14
 707:.\Include/arm_math.h **** 
 500              		.loc 2 707 0
 501 02a2 9323     		mov	r3, #147
 502 02a4 9B00     		lsl	r3, r3, #2
 503 02a6 FB18     		add	r3, r7, r3
 504 02a8 1B68     		ldr	r3, [r3]
 505 02aa 013B     		sub	r3, r3, #1
 506 02ac 9322     		mov	r2, #147
 507 02ae 9200     		lsl	r2, r2, #2
 508 02b0 BA18     		add	r2, r7, r2
 509 02b2 1360     		str	r3, [r2]
 709:.\Include/arm_math.h ****       {
 510              		.loc 2 709 0
 511 02b4 9523     		mov	r3, #149
 512 02b6 9B00     		lsl	r3, r3, #2
 513 02b8 FB18     		add	r3, r7, r3
 514 02ba 1A68     		ldr	r2, [r3]
 515 02bc 9323     		mov	r3, #147
 516 02be 9B00     		lsl	r3, r3, #2
 517 02c0 FB18     		add	r3, r7, r3
 518 02c2 1B68     		ldr	r3, [r3]
 519 02c4 9A42     		cmp	r2, r3
 520 02c6 24DD     		ble	.L196
 711:.\Include/arm_math.h ****       }
 521              		.loc 2 711 0
 522 02c8 9323     		mov	r3, #147
 523 02ca 9B00     		lsl	r3, r3, #2
 524 02cc FB18     		add	r3, r7, r3
 525 02ce 1B68     		ldr	r3, [r3]
 526 02d0 9522     		mov	r2, #149
 527 02d2 9200     		lsl	r2, r2, #2
 528 02d4 BA18     		add	r2, r7, r2
 529 02d6 1360     		str	r3, [r2]
 530 02d8 1CE0     		b	.L16
 531              	.L14:
 716:.\Include/arm_math.h **** 
 532              		.loc 2 716 0
 533 02da 9323     		mov	r3, #147
 534 02dc 9B00     		lsl	r3, r3, #2
 535 02de FB18     		add	r3, r7, r3
 536 02e0 1B68     		ldr	r3, [r3]
 537 02e2 5B42     		neg	r3, r3
 538 02e4 9122     		mov	r2, #145
ARM GAS  C:\Users\fneves\AppData\Local\Temp\cc0ayw4Y.s 			page 35


 539 02e6 9200     		lsl	r2, r2, #2
 540 02e8 BA18     		add	r2, r7, r2
 541 02ea 1360     		str	r3, [r2]
 718:.\Include/arm_math.h ****       {
 542              		.loc 2 718 0
 543 02ec 9523     		mov	r3, #149
 544 02ee 9B00     		lsl	r3, r3, #2
 545 02f0 FB18     		add	r3, r7, r3
 546 02f2 1A68     		ldr	r2, [r3]
 547 02f4 9123     		mov	r3, #145
 548 02f6 9B00     		lsl	r3, r3, #2
 549 02f8 FB18     		add	r3, r7, r3
 550 02fa 1B68     		ldr	r3, [r3]
 551 02fc 9A42     		cmp	r2, r3
 552 02fe 09DA     		bge	.L16
 720:.\Include/arm_math.h ****       }
 553              		.loc 2 720 0
 554 0300 9123     		mov	r3, #145
 555 0302 9B00     		lsl	r3, r3, #2
 556 0304 FB18     		add	r3, r7, r3
 557 0306 1B68     		ldr	r3, [r3]
 558 0308 9522     		mov	r2, #149
 559 030a 9200     		lsl	r2, r2, #2
 560 030c BA18     		add	r2, r7, r2
 561 030e 1360     		str	r3, [r2]
 562 0310 00E0     		b	.L16
 563              	.L196:
 711:.\Include/arm_math.h ****       }
 564              		.loc 2 711 0
 565 0312 C046     		mov	r8, r8
 566              	.L16:
 567              		.loc 2 723 0
 568 0314 9523     		mov	r3, #149
 569 0316 9B00     		lsl	r3, r3, #2
 570 0318 FB18     		add	r3, r7, r3
 571 031a 1A68     		ldr	r2, [r3]
 572              	.LBE125:
 573              	.LBE124:
 574              		.loc 1 666 0
 575 031c A023     		mov	r3, #160
 576 031e 9B00     		lsl	r3, r3, #2
 577 0320 FB18     		add	r3, r7, r3
 578 0322 1A80     		strh	r2, [r3]
 667:Source\TransformFunctions/arm_cfft_radix4_q15.c **** 
 668:Source\TransformFunctions/arm_cfft_radix4_q15.c ****     /* S0 = (ya - yc) */
 669:Source\TransformFunctions/arm_cfft_radix4_q15.c ****     S0 = __SSAT(T0 - S0, 16);
 579              		.loc 1 669 0
 580 0324 0F4B     		ldr	r3, .L225+4
 581 0326 FB18     		add	r3, r7, r3
 582 0328 0022     		mov	r2, #0
 583 032a 9A5E     		ldrsh	r2, [r3, r2]
 584 032c 0E4B     		ldr	r3, .L225+8
 585 032e FB18     		add	r3, r7, r3
 586 0330 0021     		mov	r1, #0
 587 0332 5B5E     		ldrsh	r3, [r3, r1]
 588 0334 D31A     		sub	r3, r2, r3
 589 0336 9022     		mov	r2, #144
ARM GAS  C:\Users\fneves\AppData\Local\Temp\cc0ayw4Y.s 			page 36


 590 0338 9200     		lsl	r2, r2, #2
 591 033a BA18     		add	r2, r7, r2
 592 033c 1360     		str	r3, [r2]
 593 033e 1023     		mov	r3, #16
 594 0340 8F22     		mov	r2, #143
 595 0342 9200     		lsl	r2, r2, #2
 596 0344 BA18     		add	r2, r7, r2
 597 0346 1360     		str	r3, [r2]
 598              	.LBB126:
 599              	.LBB127:
 699:.\Include/arm_math.h ****     for (i = 0; i < (y - 1); i++)
 600              		.loc 2 699 0
 601 0348 0123     		mov	r3, #1
 602 034a 8E22     		mov	r2, #142
 603 034c 9200     		lsl	r2, r2, #2
 604 034e BA18     		add	r2, r7, r2
 605 0350 1360     		str	r3, [r2]
 700:.\Include/arm_math.h ****     {
 606              		.loc 2 700 0
 607 0352 0023     		mov	r3, #0
 608 0354 8D22     		mov	r2, #141
 609 0356 9200     		lsl	r2, r2, #2
 610 0358 BA18     		add	r2, r7, r2
 611 035a 1360     		str	r3, [r2]
 612 035c 1AE0     		b	.L18
 613              	.L226:
 614 035e C046     		.align	2
 615              	.L225:
 616 0360 50FDFFFF 		.word	-688
 617 0364 8A020000 		.word	650
 618 0368 86020000 		.word	646
 619 036c 82020000 		.word	642
 620              	.L19:
 702:.\Include/arm_math.h ****     }
 621              		.loc 2 702 0
 622 0370 8E23     		mov	r3, #142
 623 0372 9B00     		lsl	r3, r3, #2
 624 0374 FB18     		add	r3, r7, r3
 625 0376 1B68     		ldr	r3, [r3]
 626 0378 5B00     		lsl	r3, r3, #1
 627 037a 8E22     		mov	r2, #142
 628 037c 9200     		lsl	r2, r2, #2
 629 037e BA18     		add	r2, r7, r2
 630 0380 1360     		str	r3, [r2]
 700:.\Include/arm_math.h ****     {
 631              		.loc 2 700 0
 632 0382 8D23     		mov	r3, #141
 633 0384 9B00     		lsl	r3, r3, #2
 634 0386 FB18     		add	r3, r7, r3
 635 0388 1B68     		ldr	r3, [r3]
 636 038a 0133     		add	r3, r3, #1
 637 038c 8D22     		mov	r2, #141
 638 038e 9200     		lsl	r2, r2, #2
 639 0390 BA18     		add	r2, r7, r2
 640 0392 1360     		str	r3, [r2]
 641              	.L18:
 642 0394 8F23     		mov	r3, #143
ARM GAS  C:\Users\fneves\AppData\Local\Temp\cc0ayw4Y.s 			page 37


 643 0396 9B00     		lsl	r3, r3, #2
 644 0398 FB18     		add	r3, r7, r3
 645 039a 1B68     		ldr	r3, [r3]
 646 039c 013B     		sub	r3, r3, #1
 647 039e 8D22     		mov	r2, #141
 648 03a0 9200     		lsl	r2, r2, #2
 649 03a2 BA18     		add	r2, r7, r2
 650 03a4 1268     		ldr	r2, [r2]
 651 03a6 9A42     		cmp	r2, r3
 652 03a8 E2D3     		bcc	.L19
 705:.\Include/arm_math.h ****     {
 653              		.loc 2 705 0
 654 03aa 9023     		mov	r3, #144
 655 03ac 9B00     		lsl	r3, r3, #2
 656 03ae FB18     		add	r3, r7, r3
 657 03b0 1B68     		ldr	r3, [r3]
 658 03b2 002B     		cmp	r3, #0
 659 03b4 1BDD     		ble	.L20
 707:.\Include/arm_math.h **** 
 660              		.loc 2 707 0
 661 03b6 8E23     		mov	r3, #142
 662 03b8 9B00     		lsl	r3, r3, #2
 663 03ba FB18     		add	r3, r7, r3
 664 03bc 1B68     		ldr	r3, [r3]
 665 03be 013B     		sub	r3, r3, #1
 666 03c0 8E22     		mov	r2, #142
 667 03c2 9200     		lsl	r2, r2, #2
 668 03c4 BA18     		add	r2, r7, r2
 669 03c6 1360     		str	r3, [r2]
 709:.\Include/arm_math.h ****       {
 670              		.loc 2 709 0
 671 03c8 9023     		mov	r3, #144
 672 03ca 9B00     		lsl	r3, r3, #2
 673 03cc FB18     		add	r3, r7, r3
 674 03ce 1A68     		ldr	r2, [r3]
 675 03d0 8E23     		mov	r3, #142
 676 03d2 9B00     		lsl	r3, r3, #2
 677 03d4 FB18     		add	r3, r7, r3
 678 03d6 1B68     		ldr	r3, [r3]
 679 03d8 9A42     		cmp	r2, r3
 680 03da 24DD     		ble	.L197
 711:.\Include/arm_math.h ****       }
 681              		.loc 2 711 0
 682 03dc 8E23     		mov	r3, #142
 683 03de 9B00     		lsl	r3, r3, #2
 684 03e0 FB18     		add	r3, r7, r3
 685 03e2 1B68     		ldr	r3, [r3]
 686 03e4 9022     		mov	r2, #144
 687 03e6 9200     		lsl	r2, r2, #2
 688 03e8 BA18     		add	r2, r7, r2
 689 03ea 1360     		str	r3, [r2]
 690 03ec 1CE0     		b	.L22
 691              	.L20:
 716:.\Include/arm_math.h **** 
 692              		.loc 2 716 0
 693 03ee 8E23     		mov	r3, #142
 694 03f0 9B00     		lsl	r3, r3, #2
ARM GAS  C:\Users\fneves\AppData\Local\Temp\cc0ayw4Y.s 			page 38


 695 03f2 FB18     		add	r3, r7, r3
 696 03f4 1B68     		ldr	r3, [r3]
 697 03f6 5B42     		neg	r3, r3
 698 03f8 8C22     		mov	r2, #140
 699 03fa 9200     		lsl	r2, r2, #2
 700 03fc BA18     		add	r2, r7, r2
 701 03fe 1360     		str	r3, [r2]
 718:.\Include/arm_math.h ****       {
 702              		.loc 2 718 0
 703 0400 9023     		mov	r3, #144
 704 0402 9B00     		lsl	r3, r3, #2
 705 0404 FB18     		add	r3, r7, r3
 706 0406 1A68     		ldr	r2, [r3]
 707 0408 8C23     		mov	r3, #140
 708 040a 9B00     		lsl	r3, r3, #2
 709 040c FB18     		add	r3, r7, r3
 710 040e 1B68     		ldr	r3, [r3]
 711 0410 9A42     		cmp	r2, r3
 712 0412 09DA     		bge	.L22
 720:.\Include/arm_math.h ****       }
 713              		.loc 2 720 0
 714 0414 8C23     		mov	r3, #140
 715 0416 9B00     		lsl	r3, r3, #2
 716 0418 FB18     		add	r3, r7, r3
 717 041a 1B68     		ldr	r3, [r3]
 718 041c 9022     		mov	r2, #144
 719 041e 9200     		lsl	r2, r2, #2
 720 0420 BA18     		add	r2, r7, r2
 721 0422 1360     		str	r3, [r2]
 722 0424 00E0     		b	.L22
 723              	.L197:
 711:.\Include/arm_math.h ****       }
 724              		.loc 2 711 0
 725 0426 C046     		mov	r8, r8
 726              	.L22:
 727              		.loc 2 723 0
 728 0428 9023     		mov	r3, #144
 729 042a 9B00     		lsl	r3, r3, #2
 730 042c FB18     		add	r3, r7, r3
 731 042e 1A68     		ldr	r2, [r3]
 732              	.LBE127:
 733              	.LBE126:
 734              		.loc 1 669 0
 735 0430 DB4B     		ldr	r3, .L227
 736 0432 FB18     		add	r3, r7, r3
 737 0434 1A80     		strh	r2, [r3]
 670:Source\TransformFunctions/arm_cfft_radix4_q15.c ****     /* S1 = (xa - xc) */
 671:Source\TransformFunctions/arm_cfft_radix4_q15.c ****     S1 = __SSAT(T1 - S1, 16);
 738              		.loc 1 671 0
 739 0436 A223     		mov	r3, #162
 740 0438 9B00     		lsl	r3, r3, #2
 741 043a FB18     		add	r3, r7, r3
 742 043c 0022     		mov	r2, #0
 743 043e 9A5E     		ldrsh	r2, [r3, r2]
 744 0440 A123     		mov	r3, #161
 745 0442 9B00     		lsl	r3, r3, #2
 746 0444 FB18     		add	r3, r7, r3
ARM GAS  C:\Users\fneves\AppData\Local\Temp\cc0ayw4Y.s 			page 39


 747 0446 0021     		mov	r1, #0
 748 0448 5B5E     		ldrsh	r3, [r3, r1]
 749 044a D31A     		sub	r3, r2, r3
 750 044c 8B22     		mov	r2, #139
 751 044e 9200     		lsl	r2, r2, #2
 752 0450 BA18     		add	r2, r7, r2
 753 0452 1360     		str	r3, [r2]
 754 0454 1023     		mov	r3, #16
 755 0456 8A22     		mov	r2, #138
 756 0458 9200     		lsl	r2, r2, #2
 757 045a BA18     		add	r2, r7, r2
 758 045c 1360     		str	r3, [r2]
 759              	.LBB128:
 760              	.LBB129:
 699:.\Include/arm_math.h ****     for (i = 0; i < (y - 1); i++)
 761              		.loc 2 699 0
 762 045e 0123     		mov	r3, #1
 763 0460 8922     		mov	r2, #137
 764 0462 9200     		lsl	r2, r2, #2
 765 0464 BA18     		add	r2, r7, r2
 766 0466 1360     		str	r3, [r2]
 700:.\Include/arm_math.h ****     {
 767              		.loc 2 700 0
 768 0468 0023     		mov	r3, #0
 769 046a 8822     		mov	r2, #136
 770 046c 9200     		lsl	r2, r2, #2
 771 046e BA18     		add	r2, r7, r2
 772 0470 1360     		str	r3, [r2]
 773 0472 11E0     		b	.L24
 774              	.L25:
 702:.\Include/arm_math.h ****     }
 775              		.loc 2 702 0
 776 0474 8923     		mov	r3, #137
 777 0476 9B00     		lsl	r3, r3, #2
 778 0478 FB18     		add	r3, r7, r3
 779 047a 1B68     		ldr	r3, [r3]
 780 047c 5B00     		lsl	r3, r3, #1
 781 047e 8922     		mov	r2, #137
 782 0480 9200     		lsl	r2, r2, #2
 783 0482 BA18     		add	r2, r7, r2
 784 0484 1360     		str	r3, [r2]
 700:.\Include/arm_math.h ****     {
 785              		.loc 2 700 0
 786 0486 8823     		mov	r3, #136
 787 0488 9B00     		lsl	r3, r3, #2
 788 048a FB18     		add	r3, r7, r3
 789 048c 1B68     		ldr	r3, [r3]
 790 048e 0133     		add	r3, r3, #1
 791 0490 8822     		mov	r2, #136
 792 0492 9200     		lsl	r2, r2, #2
 793 0494 BA18     		add	r2, r7, r2
 794 0496 1360     		str	r3, [r2]
 795              	.L24:
 796 0498 8A23     		mov	r3, #138
 797 049a 9B00     		lsl	r3, r3, #2
 798 049c FB18     		add	r3, r7, r3
 799 049e 1B68     		ldr	r3, [r3]
ARM GAS  C:\Users\fneves\AppData\Local\Temp\cc0ayw4Y.s 			page 40


 800 04a0 013B     		sub	r3, r3, #1
 801 04a2 8822     		mov	r2, #136
 802 04a4 9200     		lsl	r2, r2, #2
 803 04a6 BA18     		add	r2, r7, r2
 804 04a8 1268     		ldr	r2, [r2]
 805 04aa 9A42     		cmp	r2, r3
 806 04ac E2D3     		bcc	.L25
 705:.\Include/arm_math.h ****     {
 807              		.loc 2 705 0
 808 04ae 8B23     		mov	r3, #139
 809 04b0 9B00     		lsl	r3, r3, #2
 810 04b2 FB18     		add	r3, r7, r3
 811 04b4 1B68     		ldr	r3, [r3]
 812 04b6 002B     		cmp	r3, #0
 813 04b8 1BDD     		ble	.L26
 707:.\Include/arm_math.h **** 
 814              		.loc 2 707 0
 815 04ba 8923     		mov	r3, #137
 816 04bc 9B00     		lsl	r3, r3, #2
 817 04be FB18     		add	r3, r7, r3
 818 04c0 1B68     		ldr	r3, [r3]
 819 04c2 013B     		sub	r3, r3, #1
 820 04c4 8922     		mov	r2, #137
 821 04c6 9200     		lsl	r2, r2, #2
 822 04c8 BA18     		add	r2, r7, r2
 823 04ca 1360     		str	r3, [r2]
 709:.\Include/arm_math.h ****       {
 824              		.loc 2 709 0
 825 04cc 8B23     		mov	r3, #139
 826 04ce 9B00     		lsl	r3, r3, #2
 827 04d0 FB18     		add	r3, r7, r3
 828 04d2 1A68     		ldr	r2, [r3]
 829 04d4 8923     		mov	r3, #137
 830 04d6 9B00     		lsl	r3, r3, #2
 831 04d8 FB18     		add	r3, r7, r3
 832 04da 1B68     		ldr	r3, [r3]
 833 04dc 9A42     		cmp	r2, r3
 834 04de 24DD     		ble	.L198
 711:.\Include/arm_math.h ****       }
 835              		.loc 2 711 0
 836 04e0 8923     		mov	r3, #137
 837 04e2 9B00     		lsl	r3, r3, #2
 838 04e4 FB18     		add	r3, r7, r3
 839 04e6 1B68     		ldr	r3, [r3]
 840 04e8 8B22     		mov	r2, #139
 841 04ea 9200     		lsl	r2, r2, #2
 842 04ec BA18     		add	r2, r7, r2
 843 04ee 1360     		str	r3, [r2]
 844 04f0 1CE0     		b	.L28
 845              	.L26:
 716:.\Include/arm_math.h **** 
 846              		.loc 2 716 0
 847 04f2 8923     		mov	r3, #137
 848 04f4 9B00     		lsl	r3, r3, #2
 849 04f6 FB18     		add	r3, r7, r3
 850 04f8 1B68     		ldr	r3, [r3]
 851 04fa 5B42     		neg	r3, r3
ARM GAS  C:\Users\fneves\AppData\Local\Temp\cc0ayw4Y.s 			page 41


 852 04fc 8722     		mov	r2, #135
 853 04fe 9200     		lsl	r2, r2, #2
 854 0500 BA18     		add	r2, r7, r2
 855 0502 1360     		str	r3, [r2]
 718:.\Include/arm_math.h ****       {
 856              		.loc 2 718 0
 857 0504 8B23     		mov	r3, #139
 858 0506 9B00     		lsl	r3, r3, #2
 859 0508 FB18     		add	r3, r7, r3
 860 050a 1A68     		ldr	r2, [r3]
 861 050c 8723     		mov	r3, #135
 862 050e 9B00     		lsl	r3, r3, #2
 863 0510 FB18     		add	r3, r7, r3
 864 0512 1B68     		ldr	r3, [r3]
 865 0514 9A42     		cmp	r2, r3
 866 0516 09DA     		bge	.L28
 720:.\Include/arm_math.h ****       }
 867              		.loc 2 720 0
 868 0518 8723     		mov	r3, #135
 869 051a 9B00     		lsl	r3, r3, #2
 870 051c FB18     		add	r3, r7, r3
 871 051e 1B68     		ldr	r3, [r3]
 872 0520 8B22     		mov	r2, #139
 873 0522 9200     		lsl	r2, r2, #2
 874 0524 BA18     		add	r2, r7, r2
 875 0526 1360     		str	r3, [r2]
 876 0528 00E0     		b	.L28
 877              	.L198:
 711:.\Include/arm_math.h ****       }
 878              		.loc 2 711 0
 879 052a C046     		mov	r8, r8
 880              	.L28:
 881              		.loc 2 723 0
 882 052c 8B23     		mov	r3, #139
 883 052e 9B00     		lsl	r3, r3, #2
 884 0530 FB18     		add	r3, r7, r3
 885 0532 1A68     		ldr	r2, [r3]
 886              	.LBE129:
 887              	.LBE128:
 888              		.loc 1 671 0
 889 0534 A123     		mov	r3, #161
 890 0536 9B00     		lsl	r3, r3, #2
 891 0538 FB18     		add	r3, r7, r3
 892 053a 1A80     		strh	r2, [r3]
 672:Source\TransformFunctions/arm_cfft_radix4_q15.c **** 
 673:Source\TransformFunctions/arm_cfft_radix4_q15.c ****     /*  Reading i0+fftLen/4 , i0+3fftLen/4 inputs */
 674:Source\TransformFunctions/arm_cfft_radix4_q15.c ****     /* input is down scale by 4 to avoid overflow */
 675:Source\TransformFunctions/arm_cfft_radix4_q15.c ****     /* Read yb (real), xb(imag) input */
 676:Source\TransformFunctions/arm_cfft_radix4_q15.c ****     T0 = pSrc16[i1 * 2u] >> 2u;
 893              		.loc 1 676 0
 894 053c A523     		mov	r3, #165
 895 053e 9B00     		lsl	r3, r3, #2
 896 0540 FB18     		add	r3, r7, r3
 897 0542 1B68     		ldr	r3, [r3]
 898 0544 9B00     		lsl	r3, r3, #2
 899 0546 FA68     		ldr	r2, [r7, #12]
 900 0548 D318     		add	r3, r2, r3
ARM GAS  C:\Users\fneves\AppData\Local\Temp\cc0ayw4Y.s 			page 42


 901 054a 1A88     		ldrh	r2, [r3]
 902 054c 954B     		ldr	r3, .L227+4
 903 054e FB18     		add	r3, r7, r3
 904 0550 12B2     		sxth	r2, r2
 905 0552 9210     		asr	r2, r2, #2
 906 0554 1A80     		strh	r2, [r3]
 677:Source\TransformFunctions/arm_cfft_radix4_q15.c ****     T1 = pSrc16[(i1 * 2u) + 1u] >> 2u;
 907              		.loc 1 677 0
 908 0556 A523     		mov	r3, #165
 909 0558 9B00     		lsl	r3, r3, #2
 910 055a FB18     		add	r3, r7, r3
 911 055c 1B68     		ldr	r3, [r3]
 912 055e 9B00     		lsl	r3, r3, #2
 913 0560 0233     		add	r3, r3, #2
 914 0562 FA68     		ldr	r2, [r7, #12]
 915 0564 D318     		add	r3, r2, r3
 916 0566 1A88     		ldrh	r2, [r3]
 917 0568 A223     		mov	r3, #162
 918 056a 9B00     		lsl	r3, r3, #2
 919 056c FB18     		add	r3, r7, r3
 920 056e 12B2     		sxth	r2, r2
 921 0570 9210     		asr	r2, r2, #2
 922 0572 1A80     		strh	r2, [r3]
 678:Source\TransformFunctions/arm_cfft_radix4_q15.c **** 
 679:Source\TransformFunctions/arm_cfft_radix4_q15.c ****     /* input is down scale by 4 to avoid overflow */
 680:Source\TransformFunctions/arm_cfft_radix4_q15.c ****     /* Read yd (real), xd(imag) input */
 681:Source\TransformFunctions/arm_cfft_radix4_q15.c ****     U0 = pSrc16[i3 * 2u] >> 2u;
 923              		.loc 1 681 0
 924 0574 A323     		mov	r3, #163
 925 0576 9B00     		lsl	r3, r3, #2
 926 0578 FB18     		add	r3, r7, r3
 927 057a 1B68     		ldr	r3, [r3]
 928 057c 9B00     		lsl	r3, r3, #2
 929 057e FA68     		ldr	r2, [r7, #12]
 930 0580 D318     		add	r3, r2, r3
 931 0582 1A88     		ldrh	r2, [r3]
 932 0584 884B     		ldr	r3, .L227+8
 933 0586 FB18     		add	r3, r7, r3
 934 0588 12B2     		sxth	r2, r2
 935 058a 9210     		asr	r2, r2, #2
 936 058c 1A80     		strh	r2, [r3]
 682:Source\TransformFunctions/arm_cfft_radix4_q15.c ****     U1 = pSrc16[(i3 * 2u) + 1] >> 2u;
 937              		.loc 1 682 0
 938 058e A323     		mov	r3, #163
 939 0590 9B00     		lsl	r3, r3, #2
 940 0592 FB18     		add	r3, r7, r3
 941 0594 1B68     		ldr	r3, [r3]
 942 0596 9B00     		lsl	r3, r3, #2
 943 0598 0233     		add	r3, r3, #2
 944 059a FA68     		ldr	r2, [r7, #12]
 945 059c D318     		add	r3, r2, r3
 946 059e 1A88     		ldrh	r2, [r3]
 947 05a0 9F23     		mov	r3, #159
 948 05a2 9B00     		lsl	r3, r3, #2
 949 05a4 FB18     		add	r3, r7, r3
 950 05a6 12B2     		sxth	r2, r2
 951 05a8 9210     		asr	r2, r2, #2
ARM GAS  C:\Users\fneves\AppData\Local\Temp\cc0ayw4Y.s 			page 43


 952 05aa 1A80     		strh	r2, [r3]
 683:Source\TransformFunctions/arm_cfft_radix4_q15.c **** 
 684:Source\TransformFunctions/arm_cfft_radix4_q15.c ****     /* T0 = (yb + yd) */
 685:Source\TransformFunctions/arm_cfft_radix4_q15.c ****     T0 = __SSAT(T0 + U0, 16u);
 953              		.loc 1 685 0
 954 05ac 7D4B     		ldr	r3, .L227+4
 955 05ae FB18     		add	r3, r7, r3
 956 05b0 0022     		mov	r2, #0
 957 05b2 9A5E     		ldrsh	r2, [r3, r2]
 958 05b4 7C4B     		ldr	r3, .L227+8
 959 05b6 FB18     		add	r3, r7, r3
 960 05b8 0021     		mov	r1, #0
 961 05ba 5B5E     		ldrsh	r3, [r3, r1]
 962 05bc D318     		add	r3, r2, r3
 963 05be 8622     		mov	r2, #134
 964 05c0 9200     		lsl	r2, r2, #2
 965 05c2 BA18     		add	r2, r7, r2
 966 05c4 1360     		str	r3, [r2]
 967 05c6 1023     		mov	r3, #16
 968 05c8 8522     		mov	r2, #133
 969 05ca 9200     		lsl	r2, r2, #2
 970 05cc BA18     		add	r2, r7, r2
 971 05ce 1360     		str	r3, [r2]
 972              	.LBB130:
 973              	.LBB131:
 699:.\Include/arm_math.h ****     for (i = 0; i < (y - 1); i++)
 974              		.loc 2 699 0
 975 05d0 0123     		mov	r3, #1
 976 05d2 8422     		mov	r2, #132
 977 05d4 9200     		lsl	r2, r2, #2
 978 05d6 BA18     		add	r2, r7, r2
 979 05d8 1360     		str	r3, [r2]
 700:.\Include/arm_math.h ****     {
 980              		.loc 2 700 0
 981 05da 0023     		mov	r3, #0
 982 05dc 8322     		mov	r2, #131
 983 05de 9200     		lsl	r2, r2, #2
 984 05e0 BA18     		add	r2, r7, r2
 985 05e2 1360     		str	r3, [r2]
 986 05e4 11E0     		b	.L30
 987              	.L31:
 702:.\Include/arm_math.h ****     }
 988              		.loc 2 702 0
 989 05e6 8423     		mov	r3, #132
 990 05e8 9B00     		lsl	r3, r3, #2
 991 05ea FB18     		add	r3, r7, r3
 992 05ec 1B68     		ldr	r3, [r3]
 993 05ee 5B00     		lsl	r3, r3, #1
 994 05f0 8422     		mov	r2, #132
 995 05f2 9200     		lsl	r2, r2, #2
 996 05f4 BA18     		add	r2, r7, r2
 997 05f6 1360     		str	r3, [r2]
 700:.\Include/arm_math.h ****     {
 998              		.loc 2 700 0
 999 05f8 8323     		mov	r3, #131
 1000 05fa 9B00     		lsl	r3, r3, #2
 1001 05fc FB18     		add	r3, r7, r3
ARM GAS  C:\Users\fneves\AppData\Local\Temp\cc0ayw4Y.s 			page 44


 1002 05fe 1B68     		ldr	r3, [r3]
 1003 0600 0133     		add	r3, r3, #1
 1004 0602 8322     		mov	r2, #131
 1005 0604 9200     		lsl	r2, r2, #2
 1006 0606 BA18     		add	r2, r7, r2
 1007 0608 1360     		str	r3, [r2]
 1008              	.L30:
 1009 060a 8523     		mov	r3, #133
 1010 060c 9B00     		lsl	r3, r3, #2
 1011 060e FB18     		add	r3, r7, r3
 1012 0610 1B68     		ldr	r3, [r3]
 1013 0612 013B     		sub	r3, r3, #1
 1014 0614 8322     		mov	r2, #131
 1015 0616 9200     		lsl	r2, r2, #2
 1016 0618 BA18     		add	r2, r7, r2
 1017 061a 1268     		ldr	r2, [r2]
 1018 061c 9A42     		cmp	r2, r3
 1019 061e E2D3     		bcc	.L31
 705:.\Include/arm_math.h ****     {
 1020              		.loc 2 705 0
 1021 0620 8623     		mov	r3, #134
 1022 0622 9B00     		lsl	r3, r3, #2
 1023 0624 FB18     		add	r3, r7, r3
 1024 0626 1B68     		ldr	r3, [r3]
 1025 0628 002B     		cmp	r3, #0
 1026 062a 1BDD     		ble	.L32
 707:.\Include/arm_math.h **** 
 1027              		.loc 2 707 0
 1028 062c 8423     		mov	r3, #132
 1029 062e 9B00     		lsl	r3, r3, #2
 1030 0630 FB18     		add	r3, r7, r3
 1031 0632 1B68     		ldr	r3, [r3]
 1032 0634 013B     		sub	r3, r3, #1
 1033 0636 8422     		mov	r2, #132
 1034 0638 9200     		lsl	r2, r2, #2
 1035 063a BA18     		add	r2, r7, r2
 1036 063c 1360     		str	r3, [r2]
 709:.\Include/arm_math.h ****       {
 1037              		.loc 2 709 0
 1038 063e 8623     		mov	r3, #134
 1039 0640 9B00     		lsl	r3, r3, #2
 1040 0642 FB18     		add	r3, r7, r3
 1041 0644 1A68     		ldr	r2, [r3]
 1042 0646 8423     		mov	r3, #132
 1043 0648 9B00     		lsl	r3, r3, #2
 1044 064a FB18     		add	r3, r7, r3
 1045 064c 1B68     		ldr	r3, [r3]
 1046 064e 9A42     		cmp	r2, r3
 1047 0650 24DD     		ble	.L199
 711:.\Include/arm_math.h ****       }
 1048              		.loc 2 711 0
 1049 0652 8423     		mov	r3, #132
 1050 0654 9B00     		lsl	r3, r3, #2
 1051 0656 FB18     		add	r3, r7, r3
 1052 0658 1B68     		ldr	r3, [r3]
 1053 065a 8622     		mov	r2, #134
 1054 065c 9200     		lsl	r2, r2, #2
ARM GAS  C:\Users\fneves\AppData\Local\Temp\cc0ayw4Y.s 			page 45


 1055 065e BA18     		add	r2, r7, r2
 1056 0660 1360     		str	r3, [r2]
 1057 0662 1CE0     		b	.L34
 1058              	.L32:
 716:.\Include/arm_math.h **** 
 1059              		.loc 2 716 0
 1060 0664 8423     		mov	r3, #132
 1061 0666 9B00     		lsl	r3, r3, #2
 1062 0668 FB18     		add	r3, r7, r3
 1063 066a 1B68     		ldr	r3, [r3]
 1064 066c 5B42     		neg	r3, r3
 1065 066e 8222     		mov	r2, #130
 1066 0670 9200     		lsl	r2, r2, #2
 1067 0672 BA18     		add	r2, r7, r2
 1068 0674 1360     		str	r3, [r2]
 718:.\Include/arm_math.h ****       {
 1069              		.loc 2 718 0
 1070 0676 8623     		mov	r3, #134
 1071 0678 9B00     		lsl	r3, r3, #2
 1072 067a FB18     		add	r3, r7, r3
 1073 067c 1A68     		ldr	r2, [r3]
 1074 067e 8223     		mov	r3, #130
 1075 0680 9B00     		lsl	r3, r3, #2
 1076 0682 FB18     		add	r3, r7, r3
 1077 0684 1B68     		ldr	r3, [r3]
 1078 0686 9A42     		cmp	r2, r3
 1079 0688 09DA     		bge	.L34
 720:.\Include/arm_math.h ****       }
 1080              		.loc 2 720 0
 1081 068a 8223     		mov	r3, #130
 1082 068c 9B00     		lsl	r3, r3, #2
 1083 068e FB18     		add	r3, r7, r3
 1084 0690 1B68     		ldr	r3, [r3]
 1085 0692 8622     		mov	r2, #134
 1086 0694 9200     		lsl	r2, r2, #2
 1087 0696 BA18     		add	r2, r7, r2
 1088 0698 1360     		str	r3, [r2]
 1089 069a 00E0     		b	.L34
 1090              	.L199:
 711:.\Include/arm_math.h ****       }
 1091              		.loc 2 711 0
 1092 069c C046     		mov	r8, r8
 1093              	.L34:
 1094              		.loc 2 723 0
 1095 069e 8623     		mov	r3, #134
 1096 06a0 9B00     		lsl	r3, r3, #2
 1097 06a2 FB18     		add	r3, r7, r3
 1098 06a4 1A68     		ldr	r2, [r3]
 1099              	.LBE131:
 1100              	.LBE130:
 1101              		.loc 1 685 0
 1102 06a6 3F4B     		ldr	r3, .L227+4
 1103 06a8 FB18     		add	r3, r7, r3
 1104 06aa 1A80     		strh	r2, [r3]
 686:Source\TransformFunctions/arm_cfft_radix4_q15.c ****     /* T1 = (xb + xd) */
 687:Source\TransformFunctions/arm_cfft_radix4_q15.c ****     T1 = __SSAT(T1 + U1, 16u);
 1105              		.loc 1 687 0
ARM GAS  C:\Users\fneves\AppData\Local\Temp\cc0ayw4Y.s 			page 46


 1106 06ac A223     		mov	r3, #162
 1107 06ae 9B00     		lsl	r3, r3, #2
 1108 06b0 FB18     		add	r3, r7, r3
 1109 06b2 0022     		mov	r2, #0
 1110 06b4 9A5E     		ldrsh	r2, [r3, r2]
 1111 06b6 9F23     		mov	r3, #159
 1112 06b8 9B00     		lsl	r3, r3, #2
 1113 06ba FB18     		add	r3, r7, r3
 1114 06bc 0021     		mov	r1, #0
 1115 06be 5B5E     		ldrsh	r3, [r3, r1]
 1116 06c0 D318     		add	r3, r2, r3
 1117 06c2 8122     		mov	r2, #129
 1118 06c4 9200     		lsl	r2, r2, #2
 1119 06c6 BA18     		add	r2, r7, r2
 1120 06c8 1360     		str	r3, [r2]
 1121 06ca 1023     		mov	r3, #16
 1122 06cc 8022     		mov	r2, #128
 1123 06ce 9200     		lsl	r2, r2, #2
 1124 06d0 BA18     		add	r2, r7, r2
 1125 06d2 1360     		str	r3, [r2]
 1126              	.LBB132:
 1127              	.LBB133:
 699:.\Include/arm_math.h ****     for (i = 0; i < (y - 1); i++)
 1128              		.loc 2 699 0
 1129 06d4 0123     		mov	r3, #1
 1130 06d6 FE22     		mov	r2, #254
 1131 06d8 5200     		lsl	r2, r2, #1
 1132 06da BA18     		add	r2, r7, r2
 1133 06dc 1360     		str	r3, [r2]
 700:.\Include/arm_math.h ****     {
 1134              		.loc 2 700 0
 1135 06de 0023     		mov	r3, #0
 1136 06e0 FC22     		mov	r2, #252
 1137 06e2 5200     		lsl	r2, r2, #1
 1138 06e4 BA18     		add	r2, r7, r2
 1139 06e6 1360     		str	r3, [r2]
 1140 06e8 11E0     		b	.L36
 1141              	.L37:
 702:.\Include/arm_math.h ****     }
 1142              		.loc 2 702 0
 1143 06ea FE23     		mov	r3, #254
 1144 06ec 5B00     		lsl	r3, r3, #1
 1145 06ee FB18     		add	r3, r7, r3
 1146 06f0 1B68     		ldr	r3, [r3]
 1147 06f2 5B00     		lsl	r3, r3, #1
 1148 06f4 FE22     		mov	r2, #254
 1149 06f6 5200     		lsl	r2, r2, #1
 1150 06f8 BA18     		add	r2, r7, r2
 1151 06fa 1360     		str	r3, [r2]
 700:.\Include/arm_math.h ****     {
 1152              		.loc 2 700 0
 1153 06fc FC23     		mov	r3, #252
 1154 06fe 5B00     		lsl	r3, r3, #1
 1155 0700 FB18     		add	r3, r7, r3
 1156 0702 1B68     		ldr	r3, [r3]
 1157 0704 0133     		add	r3, r3, #1
 1158 0706 FC22     		mov	r2, #252
ARM GAS  C:\Users\fneves\AppData\Local\Temp\cc0ayw4Y.s 			page 47


 1159 0708 5200     		lsl	r2, r2, #1
 1160 070a BA18     		add	r2, r7, r2
 1161 070c 1360     		str	r3, [r2]
 1162              	.L36:
 1163 070e 8023     		mov	r3, #128
 1164 0710 9B00     		lsl	r3, r3, #2
 1165 0712 FB18     		add	r3, r7, r3
 1166 0714 1B68     		ldr	r3, [r3]
 1167 0716 013B     		sub	r3, r3, #1
 1168 0718 FC22     		mov	r2, #252
 1169 071a 5200     		lsl	r2, r2, #1
 1170 071c BA18     		add	r2, r7, r2
 1171 071e 1268     		ldr	r2, [r2]
 1172 0720 9A42     		cmp	r2, r3
 1173 0722 E2D3     		bcc	.L37
 705:.\Include/arm_math.h ****     {
 1174              		.loc 2 705 0
 1175 0724 8123     		mov	r3, #129
 1176 0726 9B00     		lsl	r3, r3, #2
 1177 0728 FB18     		add	r3, r7, r3
 1178 072a 1B68     		ldr	r3, [r3]
 1179 072c 002B     		cmp	r3, #0
 1180 072e 1BDD     		ble	.L38
 707:.\Include/arm_math.h **** 
 1181              		.loc 2 707 0
 1182 0730 FE23     		mov	r3, #254
 1183 0732 5B00     		lsl	r3, r3, #1
 1184 0734 FB18     		add	r3, r7, r3
 1185 0736 1B68     		ldr	r3, [r3]
 1186 0738 013B     		sub	r3, r3, #1
 1187 073a FE22     		mov	r2, #254
 1188 073c 5200     		lsl	r2, r2, #1
 1189 073e BA18     		add	r2, r7, r2
 1190 0740 1360     		str	r3, [r2]
 709:.\Include/arm_math.h ****       {
 1191              		.loc 2 709 0
 1192 0742 8123     		mov	r3, #129
 1193 0744 9B00     		lsl	r3, r3, #2
 1194 0746 FB18     		add	r3, r7, r3
 1195 0748 1A68     		ldr	r2, [r3]
 1196 074a FE23     		mov	r3, #254
 1197 074c 5B00     		lsl	r3, r3, #1
 1198 074e FB18     		add	r3, r7, r3
 1199 0750 1B68     		ldr	r3, [r3]
 1200 0752 9A42     		cmp	r2, r3
 1201 0754 2ADD     		ble	.L200
 711:.\Include/arm_math.h ****       }
 1202              		.loc 2 711 0
 1203 0756 FE23     		mov	r3, #254
 1204 0758 5B00     		lsl	r3, r3, #1
 1205 075a FB18     		add	r3, r7, r3
 1206 075c 1B68     		ldr	r3, [r3]
 1207 075e 8122     		mov	r2, #129
 1208 0760 9200     		lsl	r2, r2, #2
 1209 0762 BA18     		add	r2, r7, r2
 1210 0764 1360     		str	r3, [r2]
 1211 0766 22E0     		b	.L40
ARM GAS  C:\Users\fneves\AppData\Local\Temp\cc0ayw4Y.s 			page 48


 1212              	.L38:
 716:.\Include/arm_math.h **** 
 1213              		.loc 2 716 0
 1214 0768 FE23     		mov	r3, #254
 1215 076a 5B00     		lsl	r3, r3, #1
 1216 076c FB18     		add	r3, r7, r3
 1217 076e 1B68     		ldr	r3, [r3]
 1218 0770 5B42     		neg	r3, r3
 1219 0772 FA22     		mov	r2, #250
 1220 0774 5200     		lsl	r2, r2, #1
 1221 0776 BA18     		add	r2, r7, r2
 1222 0778 1360     		str	r3, [r2]
 718:.\Include/arm_math.h ****       {
 1223              		.loc 2 718 0
 1224 077a 8123     		mov	r3, #129
 1225 077c 9B00     		lsl	r3, r3, #2
 1226 077e FB18     		add	r3, r7, r3
 1227 0780 1A68     		ldr	r2, [r3]
 1228 0782 FA23     		mov	r3, #250
 1229 0784 5B00     		lsl	r3, r3, #1
 1230 0786 FB18     		add	r3, r7, r3
 1231 0788 1B68     		ldr	r3, [r3]
 1232 078a 9A42     		cmp	r2, r3
 1233 078c 0FDA     		bge	.L40
 720:.\Include/arm_math.h ****       }
 1234              		.loc 2 720 0
 1235 078e FA23     		mov	r3, #250
 1236 0790 5B00     		lsl	r3, r3, #1
 1237 0792 FB18     		add	r3, r7, r3
 1238 0794 1B68     		ldr	r3, [r3]
 1239 0796 8122     		mov	r2, #129
 1240 0798 9200     		lsl	r2, r2, #2
 1241 079a BA18     		add	r2, r7, r2
 1242 079c 1360     		str	r3, [r2]
 1243 079e 06E0     		b	.L40
 1244              	.L228:
 1245              		.align	2
 1246              	.L227:
 1247 07a0 86020000 		.word	646
 1248 07a4 8A020000 		.word	650
 1249 07a8 7E020000 		.word	638
 1250              	.L200:
 711:.\Include/arm_math.h ****       }
 1251              		.loc 2 711 0
 1252 07ac C046     		mov	r8, r8
 1253              	.L40:
 1254              		.loc 2 723 0
 1255 07ae 8123     		mov	r3, #129
 1256 07b0 9B00     		lsl	r3, r3, #2
 1257 07b2 FB18     		add	r3, r7, r3
 1258 07b4 1A68     		ldr	r2, [r3]
 1259              	.LBE133:
 1260              	.LBE132:
 1261              		.loc 1 687 0
 1262 07b6 A223     		mov	r3, #162
 1263 07b8 9B00     		lsl	r3, r3, #2
 1264 07ba FB18     		add	r3, r7, r3
ARM GAS  C:\Users\fneves\AppData\Local\Temp\cc0ayw4Y.s 			page 49


 1265 07bc 1A80     		strh	r2, [r3]
 688:Source\TransformFunctions/arm_cfft_radix4_q15.c **** 
 689:Source\TransformFunctions/arm_cfft_radix4_q15.c ****     /*  writing the butterfly processed i0 sample */
 690:Source\TransformFunctions/arm_cfft_radix4_q15.c ****     /* ya' = ya + yb + yc + yd */
 691:Source\TransformFunctions/arm_cfft_radix4_q15.c ****     /* xa' = xa + xb + xc + xd */
 692:Source\TransformFunctions/arm_cfft_radix4_q15.c ****     pSrc16[i0 * 2u] = (R0 >> 1u) + (T0 >> 1u);
 1266              		.loc 1 692 0
 1267 07be A923     		mov	r3, #169
 1268 07c0 9B00     		lsl	r3, r3, #2
 1269 07c2 FB18     		add	r3, r7, r3
 1270 07c4 1B68     		ldr	r3, [r3]
 1271 07c6 9B00     		lsl	r3, r3, #2
 1272 07c8 FA68     		ldr	r2, [r7, #12]
 1273 07ca D318     		add	r3, r2, r3
 1274 07cc 934A     		ldr	r2, .L229
 1275 07ce BA18     		add	r2, r7, r2
 1276 07d0 0021     		mov	r1, #0
 1277 07d2 525E     		ldrsh	r2, [r2, r1]
 1278 07d4 5210     		asr	r2, r2, #1
 1279 07d6 92B2     		uxth	r2, r2
 1280 07d8 91B2     		uxth	r1, r2
 1281 07da 914A     		ldr	r2, .L229+4
 1282 07dc BA18     		add	r2, r7, r2
 1283 07de 0020     		mov	r0, #0
 1284 07e0 125E     		ldrsh	r2, [r2, r0]
 1285 07e2 5210     		asr	r2, r2, #1
 1286 07e4 92B2     		uxth	r2, r2
 1287 07e6 92B2     		uxth	r2, r2
 1288 07e8 8A18     		add	r2, r1, r2
 1289 07ea 92B2     		uxth	r2, r2
 1290 07ec 92B2     		uxth	r2, r2
 1291 07ee 1A80     		strh	r2, [r3]
 693:Source\TransformFunctions/arm_cfft_radix4_q15.c ****     pSrc16[(i0 * 2u) + 1u] = (R1 >> 1u) + (T1 >> 1u);
 1292              		.loc 1 693 0
 1293 07f0 A923     		mov	r3, #169
 1294 07f2 9B00     		lsl	r3, r3, #2
 1295 07f4 FB18     		add	r3, r7, r3
 1296 07f6 1B68     		ldr	r3, [r3]
 1297 07f8 9B00     		lsl	r3, r3, #2
 1298 07fa 0233     		add	r3, r3, #2
 1299 07fc FA68     		ldr	r2, [r7, #12]
 1300 07fe D318     		add	r3, r2, r3
 1301 0800 A022     		mov	r2, #160
 1302 0802 9200     		lsl	r2, r2, #2
 1303 0804 BA18     		add	r2, r7, r2
 1304 0806 0021     		mov	r1, #0
 1305 0808 525E     		ldrsh	r2, [r2, r1]
 1306 080a 5210     		asr	r2, r2, #1
 1307 080c 92B2     		uxth	r2, r2
 1308 080e 91B2     		uxth	r1, r2
 1309 0810 A222     		mov	r2, #162
 1310 0812 9200     		lsl	r2, r2, #2
 1311 0814 BA18     		add	r2, r7, r2
 1312 0816 0020     		mov	r0, #0
 1313 0818 125E     		ldrsh	r2, [r2, r0]
 1314 081a 5210     		asr	r2, r2, #1
 1315 081c 92B2     		uxth	r2, r2
ARM GAS  C:\Users\fneves\AppData\Local\Temp\cc0ayw4Y.s 			page 50


 1316 081e 92B2     		uxth	r2, r2
 1317 0820 8A18     		add	r2, r1, r2
 1318 0822 92B2     		uxth	r2, r2
 1319 0824 92B2     		uxth	r2, r2
 1320 0826 1A80     		strh	r2, [r3]
 694:Source\TransformFunctions/arm_cfft_radix4_q15.c **** 
 695:Source\TransformFunctions/arm_cfft_radix4_q15.c ****     /* R0 = (ya + yc) - (yb + yd) */
 696:Source\TransformFunctions/arm_cfft_radix4_q15.c ****     /* R1 = (xa + xc) - (xb + xd) */
 697:Source\TransformFunctions/arm_cfft_radix4_q15.c ****     R0 = __SSAT(R0 - T0, 16u);
 1321              		.loc 1 697 0
 1322 0828 7C4B     		ldr	r3, .L229
 1323 082a FB18     		add	r3, r7, r3
 1324 082c 0022     		mov	r2, #0
 1325 082e 9A5E     		ldrsh	r2, [r3, r2]
 1326 0830 7B4B     		ldr	r3, .L229+4
 1327 0832 FB18     		add	r3, r7, r3
 1328 0834 0021     		mov	r1, #0
 1329 0836 5B5E     		ldrsh	r3, [r3, r1]
 1330 0838 D31A     		sub	r3, r2, r3
 1331 083a F822     		mov	r2, #248
 1332 083c 5200     		lsl	r2, r2, #1
 1333 083e BA18     		add	r2, r7, r2
 1334 0840 1360     		str	r3, [r2]
 1335 0842 1023     		mov	r3, #16
 1336 0844 F622     		mov	r2, #246
 1337 0846 5200     		lsl	r2, r2, #1
 1338 0848 BA18     		add	r2, r7, r2
 1339 084a 1360     		str	r3, [r2]
 1340              	.LBB134:
 1341              	.LBB135:
 699:.\Include/arm_math.h ****     for (i = 0; i < (y - 1); i++)
 1342              		.loc 2 699 0
 1343 084c 0123     		mov	r3, #1
 1344 084e F422     		mov	r2, #244
 1345 0850 5200     		lsl	r2, r2, #1
 1346 0852 BA18     		add	r2, r7, r2
 1347 0854 1360     		str	r3, [r2]
 700:.\Include/arm_math.h ****     {
 1348              		.loc 2 700 0
 1349 0856 0023     		mov	r3, #0
 1350 0858 F222     		mov	r2, #242
 1351 085a 5200     		lsl	r2, r2, #1
 1352 085c BA18     		add	r2, r7, r2
 1353 085e 1360     		str	r3, [r2]
 1354 0860 11E0     		b	.L42
 1355              	.L43:
 702:.\Include/arm_math.h ****     }
 1356              		.loc 2 702 0
 1357 0862 F423     		mov	r3, #244
 1358 0864 5B00     		lsl	r3, r3, #1
 1359 0866 FB18     		add	r3, r7, r3
 1360 0868 1B68     		ldr	r3, [r3]
 1361 086a 5B00     		lsl	r3, r3, #1
 1362 086c F422     		mov	r2, #244
 1363 086e 5200     		lsl	r2, r2, #1
 1364 0870 BA18     		add	r2, r7, r2
 1365 0872 1360     		str	r3, [r2]
ARM GAS  C:\Users\fneves\AppData\Local\Temp\cc0ayw4Y.s 			page 51


 700:.\Include/arm_math.h ****     {
 1366              		.loc 2 700 0
 1367 0874 F223     		mov	r3, #242
 1368 0876 5B00     		lsl	r3, r3, #1
 1369 0878 FB18     		add	r3, r7, r3
 1370 087a 1B68     		ldr	r3, [r3]
 1371 087c 0133     		add	r3, r3, #1
 1372 087e F222     		mov	r2, #242
 1373 0880 5200     		lsl	r2, r2, #1
 1374 0882 BA18     		add	r2, r7, r2
 1375 0884 1360     		str	r3, [r2]
 1376              	.L42:
 1377 0886 F623     		mov	r3, #246
 1378 0888 5B00     		lsl	r3, r3, #1
 1379 088a FB18     		add	r3, r7, r3
 1380 088c 1B68     		ldr	r3, [r3]
 1381 088e 013B     		sub	r3, r3, #1
 1382 0890 F222     		mov	r2, #242
 1383 0892 5200     		lsl	r2, r2, #1
 1384 0894 BA18     		add	r2, r7, r2
 1385 0896 1268     		ldr	r2, [r2]
 1386 0898 9A42     		cmp	r2, r3
 1387 089a E2D3     		bcc	.L43
 705:.\Include/arm_math.h ****     {
 1388              		.loc 2 705 0
 1389 089c F823     		mov	r3, #248
 1390 089e 5B00     		lsl	r3, r3, #1
 1391 08a0 FB18     		add	r3, r7, r3
 1392 08a2 1B68     		ldr	r3, [r3]
 1393 08a4 002B     		cmp	r3, #0
 1394 08a6 1BDD     		ble	.L44
 707:.\Include/arm_math.h **** 
 1395              		.loc 2 707 0
 1396 08a8 F423     		mov	r3, #244
 1397 08aa 5B00     		lsl	r3, r3, #1
 1398 08ac FB18     		add	r3, r7, r3
 1399 08ae 1B68     		ldr	r3, [r3]
 1400 08b0 013B     		sub	r3, r3, #1
 1401 08b2 F422     		mov	r2, #244
 1402 08b4 5200     		lsl	r2, r2, #1
 1403 08b6 BA18     		add	r2, r7, r2
 1404 08b8 1360     		str	r3, [r2]
 709:.\Include/arm_math.h ****       {
 1405              		.loc 2 709 0
 1406 08ba F823     		mov	r3, #248
 1407 08bc 5B00     		lsl	r3, r3, #1
 1408 08be FB18     		add	r3, r7, r3
 1409 08c0 1A68     		ldr	r2, [r3]
 1410 08c2 F423     		mov	r3, #244
 1411 08c4 5B00     		lsl	r3, r3, #1
 1412 08c6 FB18     		add	r3, r7, r3
 1413 08c8 1B68     		ldr	r3, [r3]
 1414 08ca 9A42     		cmp	r2, r3
 1415 08cc 24DD     		ble	.L201
 711:.\Include/arm_math.h ****       }
 1416              		.loc 2 711 0
 1417 08ce F423     		mov	r3, #244
ARM GAS  C:\Users\fneves\AppData\Local\Temp\cc0ayw4Y.s 			page 52


 1418 08d0 5B00     		lsl	r3, r3, #1
 1419 08d2 FB18     		add	r3, r7, r3
 1420 08d4 1B68     		ldr	r3, [r3]
 1421 08d6 F822     		mov	r2, #248
 1422 08d8 5200     		lsl	r2, r2, #1
 1423 08da BA18     		add	r2, r7, r2
 1424 08dc 1360     		str	r3, [r2]
 1425 08de 1CE0     		b	.L46
 1426              	.L44:
 716:.\Include/arm_math.h **** 
 1427              		.loc 2 716 0
 1428 08e0 F423     		mov	r3, #244
 1429 08e2 5B00     		lsl	r3, r3, #1
 1430 08e4 FB18     		add	r3, r7, r3
 1431 08e6 1B68     		ldr	r3, [r3]
 1432 08e8 5B42     		neg	r3, r3
 1433 08ea F022     		mov	r2, #240
 1434 08ec 5200     		lsl	r2, r2, #1
 1435 08ee BA18     		add	r2, r7, r2
 1436 08f0 1360     		str	r3, [r2]
 718:.\Include/arm_math.h ****       {
 1437              		.loc 2 718 0
 1438 08f2 F823     		mov	r3, #248
 1439 08f4 5B00     		lsl	r3, r3, #1
 1440 08f6 FB18     		add	r3, r7, r3
 1441 08f8 1A68     		ldr	r2, [r3]
 1442 08fa F023     		mov	r3, #240
 1443 08fc 5B00     		lsl	r3, r3, #1
 1444 08fe FB18     		add	r3, r7, r3
 1445 0900 1B68     		ldr	r3, [r3]
 1446 0902 9A42     		cmp	r2, r3
 1447 0904 09DA     		bge	.L46
 720:.\Include/arm_math.h ****       }
 1448              		.loc 2 720 0
 1449 0906 F023     		mov	r3, #240
 1450 0908 5B00     		lsl	r3, r3, #1
 1451 090a FB18     		add	r3, r7, r3
 1452 090c 1B68     		ldr	r3, [r3]
 1453 090e F822     		mov	r2, #248
 1454 0910 5200     		lsl	r2, r2, #1
 1455 0912 BA18     		add	r2, r7, r2
 1456 0914 1360     		str	r3, [r2]
 1457 0916 00E0     		b	.L46
 1458              	.L201:
 711:.\Include/arm_math.h ****       }
 1459              		.loc 2 711 0
 1460 0918 C046     		mov	r8, r8
 1461              	.L46:
 1462              		.loc 2 723 0
 1463 091a F823     		mov	r3, #248
 1464 091c 5B00     		lsl	r3, r3, #1
 1465 091e FB18     		add	r3, r7, r3
 1466 0920 1A68     		ldr	r2, [r3]
 1467              	.LBE135:
 1468              	.LBE134:
 1469              		.loc 1 697 0
 1470 0922 3E4B     		ldr	r3, .L229
ARM GAS  C:\Users\fneves\AppData\Local\Temp\cc0ayw4Y.s 			page 53


 1471 0924 FB18     		add	r3, r7, r3
 1472 0926 1A80     		strh	r2, [r3]
 698:Source\TransformFunctions/arm_cfft_radix4_q15.c ****     R1 = __SSAT(R1 - T1, 16u);
 1473              		.loc 1 698 0
 1474 0928 A023     		mov	r3, #160
 1475 092a 9B00     		lsl	r3, r3, #2
 1476 092c FB18     		add	r3, r7, r3
 1477 092e 0022     		mov	r2, #0
 1478 0930 9A5E     		ldrsh	r2, [r3, r2]
 1479 0932 A223     		mov	r3, #162
 1480 0934 9B00     		lsl	r3, r3, #2
 1481 0936 FB18     		add	r3, r7, r3
 1482 0938 0021     		mov	r1, #0
 1483 093a 5B5E     		ldrsh	r3, [r3, r1]
 1484 093c D31A     		sub	r3, r2, r3
 1485 093e EE22     		mov	r2, #238
 1486 0940 5200     		lsl	r2, r2, #1
 1487 0942 BA18     		add	r2, r7, r2
 1488 0944 1360     		str	r3, [r2]
 1489 0946 1023     		mov	r3, #16
 1490 0948 EC22     		mov	r2, #236
 1491 094a 5200     		lsl	r2, r2, #1
 1492 094c BA18     		add	r2, r7, r2
 1493 094e 1360     		str	r3, [r2]
 1494              	.LBB136:
 1495              	.LBB137:
 699:.\Include/arm_math.h ****     for (i = 0; i < (y - 1); i++)
 1496              		.loc 2 699 0
 1497 0950 0123     		mov	r3, #1
 1498 0952 EA22     		mov	r2, #234
 1499 0954 5200     		lsl	r2, r2, #1
 1500 0956 BA18     		add	r2, r7, r2
 1501 0958 1360     		str	r3, [r2]
 700:.\Include/arm_math.h ****     {
 1502              		.loc 2 700 0
 1503 095a 0023     		mov	r3, #0
 1504 095c E822     		mov	r2, #232
 1505 095e 5200     		lsl	r2, r2, #1
 1506 0960 BA18     		add	r2, r7, r2
 1507 0962 1360     		str	r3, [r2]
 1508 0964 11E0     		b	.L48
 1509              	.L49:
 702:.\Include/arm_math.h ****     }
 1510              		.loc 2 702 0
 1511 0966 EA23     		mov	r3, #234
 1512 0968 5B00     		lsl	r3, r3, #1
 1513 096a FB18     		add	r3, r7, r3
 1514 096c 1B68     		ldr	r3, [r3]
 1515 096e 5B00     		lsl	r3, r3, #1
 1516 0970 EA22     		mov	r2, #234
 1517 0972 5200     		lsl	r2, r2, #1
 1518 0974 BA18     		add	r2, r7, r2
 1519 0976 1360     		str	r3, [r2]
 700:.\Include/arm_math.h ****     {
 1520              		.loc 2 700 0
 1521 0978 E823     		mov	r3, #232
 1522 097a 5B00     		lsl	r3, r3, #1
ARM GAS  C:\Users\fneves\AppData\Local\Temp\cc0ayw4Y.s 			page 54


 1523 097c FB18     		add	r3, r7, r3
 1524 097e 1B68     		ldr	r3, [r3]
 1525 0980 0133     		add	r3, r3, #1
 1526 0982 E822     		mov	r2, #232
 1527 0984 5200     		lsl	r2, r2, #1
 1528 0986 BA18     		add	r2, r7, r2
 1529 0988 1360     		str	r3, [r2]
 1530              	.L48:
 1531 098a EC23     		mov	r3, #236
 1532 098c 5B00     		lsl	r3, r3, #1
 1533 098e FB18     		add	r3, r7, r3
 1534 0990 1B68     		ldr	r3, [r3]
 1535 0992 013B     		sub	r3, r3, #1
 1536 0994 E822     		mov	r2, #232
 1537 0996 5200     		lsl	r2, r2, #1
 1538 0998 BA18     		add	r2, r7, r2
 1539 099a 1268     		ldr	r2, [r2]
 1540 099c 9A42     		cmp	r2, r3
 1541 099e E2D3     		bcc	.L49
 705:.\Include/arm_math.h ****     {
 1542              		.loc 2 705 0
 1543 09a0 EE23     		mov	r3, #238
 1544 09a2 5B00     		lsl	r3, r3, #1
 1545 09a4 FB18     		add	r3, r7, r3
 1546 09a6 1B68     		ldr	r3, [r3]
 1547 09a8 002B     		cmp	r3, #0
 1548 09aa 1BDD     		ble	.L50
 707:.\Include/arm_math.h **** 
 1549              		.loc 2 707 0
 1550 09ac EA23     		mov	r3, #234
 1551 09ae 5B00     		lsl	r3, r3, #1
 1552 09b0 FB18     		add	r3, r7, r3
 1553 09b2 1B68     		ldr	r3, [r3]
 1554 09b4 013B     		sub	r3, r3, #1
 1555 09b6 EA22     		mov	r2, #234
 1556 09b8 5200     		lsl	r2, r2, #1
 1557 09ba BA18     		add	r2, r7, r2
 1558 09bc 1360     		str	r3, [r2]
 709:.\Include/arm_math.h ****       {
 1559              		.loc 2 709 0
 1560 09be EE23     		mov	r3, #238
 1561 09c0 5B00     		lsl	r3, r3, #1
 1562 09c2 FB18     		add	r3, r7, r3
 1563 09c4 1A68     		ldr	r2, [r3]
 1564 09c6 EA23     		mov	r3, #234
 1565 09c8 5B00     		lsl	r3, r3, #1
 1566 09ca FB18     		add	r3, r7, r3
 1567 09cc 1B68     		ldr	r3, [r3]
 1568 09ce 9A42     		cmp	r2, r3
 1569 09d0 28DD     		ble	.L202
 711:.\Include/arm_math.h ****       }
 1570              		.loc 2 711 0
 1571 09d2 EA23     		mov	r3, #234
 1572 09d4 5B00     		lsl	r3, r3, #1
 1573 09d6 FB18     		add	r3, r7, r3
 1574 09d8 1B68     		ldr	r3, [r3]
 1575 09da EE22     		mov	r2, #238
ARM GAS  C:\Users\fneves\AppData\Local\Temp\cc0ayw4Y.s 			page 55


 1576 09dc 5200     		lsl	r2, r2, #1
 1577 09de BA18     		add	r2, r7, r2
 1578 09e0 1360     		str	r3, [r2]
 1579 09e2 20E0     		b	.L52
 1580              	.L50:
 716:.\Include/arm_math.h **** 
 1581              		.loc 2 716 0
 1582 09e4 EA23     		mov	r3, #234
 1583 09e6 5B00     		lsl	r3, r3, #1
 1584 09e8 FB18     		add	r3, r7, r3
 1585 09ea 1B68     		ldr	r3, [r3]
 1586 09ec 5B42     		neg	r3, r3
 1587 09ee E622     		mov	r2, #230
 1588 09f0 5200     		lsl	r2, r2, #1
 1589 09f2 BA18     		add	r2, r7, r2
 1590 09f4 1360     		str	r3, [r2]
 718:.\Include/arm_math.h ****       {
 1591              		.loc 2 718 0
 1592 09f6 EE23     		mov	r3, #238
 1593 09f8 5B00     		lsl	r3, r3, #1
 1594 09fa FB18     		add	r3, r7, r3
 1595 09fc 1A68     		ldr	r2, [r3]
 1596 09fe E623     		mov	r3, #230
 1597 0a00 5B00     		lsl	r3, r3, #1
 1598 0a02 FB18     		add	r3, r7, r3
 1599 0a04 1B68     		ldr	r3, [r3]
 1600 0a06 9A42     		cmp	r2, r3
 1601 0a08 0DDA     		bge	.L52
 720:.\Include/arm_math.h ****       }
 1602              		.loc 2 720 0
 1603 0a0a E623     		mov	r3, #230
 1604 0a0c 5B00     		lsl	r3, r3, #1
 1605 0a0e FB18     		add	r3, r7, r3
 1606 0a10 1B68     		ldr	r3, [r3]
 1607 0a12 EE22     		mov	r2, #238
 1608 0a14 5200     		lsl	r2, r2, #1
 1609 0a16 BA18     		add	r2, r7, r2
 1610 0a18 1360     		str	r3, [r2]
 1611 0a1a 04E0     		b	.L52
 1612              	.L230:
 1613              		.align	2
 1614              	.L229:
 1615 0a1c 82020000 		.word	642
 1616 0a20 8A020000 		.word	650
 1617              	.L202:
 711:.\Include/arm_math.h ****       }
 1618              		.loc 2 711 0
 1619 0a24 C046     		mov	r8, r8
 1620              	.L52:
 1621              		.loc 2 723 0
 1622 0a26 EE23     		mov	r3, #238
 1623 0a28 5B00     		lsl	r3, r3, #1
 1624 0a2a FB18     		add	r3, r7, r3
 1625 0a2c 1A68     		ldr	r2, [r3]
 1626              	.LBE137:
 1627              	.LBE136:
 1628              		.loc 1 698 0
ARM GAS  C:\Users\fneves\AppData\Local\Temp\cc0ayw4Y.s 			page 56


 1629 0a2e A023     		mov	r3, #160
 1630 0a30 9B00     		lsl	r3, r3, #2
 1631 0a32 FB18     		add	r3, r7, r3
 1632 0a34 1A80     		strh	r2, [r3]
 699:Source\TransformFunctions/arm_cfft_radix4_q15.c **** 
 700:Source\TransformFunctions/arm_cfft_radix4_q15.c ****     /* co2 & si2 are read from Coefficient pointer */
 701:Source\TransformFunctions/arm_cfft_radix4_q15.c ****     Co2 = pCoef16[2u * ic * 2u];
 1633              		.loc 1 701 0
 1634 0a36 AA23     		mov	r3, #170
 1635 0a38 9B00     		lsl	r3, r3, #2
 1636 0a3a FB18     		add	r3, r7, r3
 1637 0a3c 1B68     		ldr	r3, [r3]
 1638 0a3e DB00     		lsl	r3, r3, #3
 1639 0a40 7A68     		ldr	r2, [r7, #4]
 1640 0a42 D218     		add	r2, r2, r3
 1641 0a44 DA4B     		ldr	r3, .L231
 1642 0a46 FB18     		add	r3, r7, r3
 1643 0a48 1288     		ldrh	r2, [r2]
 1644 0a4a 1A80     		strh	r2, [r3]
 702:Source\TransformFunctions/arm_cfft_radix4_q15.c ****     Si2 = pCoef16[(2u * ic * 2u) + 1];
 1645              		.loc 1 702 0
 1646 0a4c AA23     		mov	r3, #170
 1647 0a4e 9B00     		lsl	r3, r3, #2
 1648 0a50 FB18     		add	r3, r7, r3
 1649 0a52 1B68     		ldr	r3, [r3]
 1650 0a54 DB00     		lsl	r3, r3, #3
 1651 0a56 0233     		add	r3, r3, #2
 1652 0a58 7A68     		ldr	r2, [r7, #4]
 1653 0a5a D218     		add	r2, r2, r3
 1654 0a5c 9E23     		mov	r3, #158
 1655 0a5e 9B00     		lsl	r3, r3, #2
 1656 0a60 FB18     		add	r3, r7, r3
 1657 0a62 1288     		ldrh	r2, [r2]
 1658 0a64 1A80     		strh	r2, [r3]
 703:Source\TransformFunctions/arm_cfft_radix4_q15.c **** 
 704:Source\TransformFunctions/arm_cfft_radix4_q15.c ****     /* xc' = (xa-xb+xc-xd)* co2 + (ya-yb+yc-yd)* (si2) */
 705:Source\TransformFunctions/arm_cfft_radix4_q15.c ****     out1 = (q15_t) ((Co2 * R0 + Si2 * R1) >> 16u);
 1659              		.loc 1 705 0
 1660 0a66 D24B     		ldr	r3, .L231
 1661 0a68 FB18     		add	r3, r7, r3
 1662 0a6a 0022     		mov	r2, #0
 1663 0a6c 9B5E     		ldrsh	r3, [r3, r2]
 1664 0a6e D14A     		ldr	r2, .L231+4
 1665 0a70 BA18     		add	r2, r7, r2
 1666 0a72 0021     		mov	r1, #0
 1667 0a74 525E     		ldrsh	r2, [r2, r1]
 1668 0a76 5A43     		mul	r2, r3
 1669 0a78 9E23     		mov	r3, #158
 1670 0a7a 9B00     		lsl	r3, r3, #2
 1671 0a7c FB18     		add	r3, r7, r3
 1672 0a7e 0021     		mov	r1, #0
 1673 0a80 5B5E     		ldrsh	r3, [r3, r1]
 1674 0a82 A021     		mov	r1, #160
 1675 0a84 8900     		lsl	r1, r1, #2
 1676 0a86 7918     		add	r1, r7, r1
 1677 0a88 0020     		mov	r0, #0
 1678 0a8a 095E     		ldrsh	r1, [r1, r0]
ARM GAS  C:\Users\fneves\AppData\Local\Temp\cc0ayw4Y.s 			page 57


 1679 0a8c 4B43     		mul	r3, r1
 1680 0a8e D318     		add	r3, r2, r3
 1681 0a90 1A14     		asr	r2, r3, #16
 1682 0a92 C94B     		ldr	r3, .L231+8
 1683 0a94 FB18     		add	r3, r7, r3
 1684 0a96 1A80     		strh	r2, [r3]
 706:Source\TransformFunctions/arm_cfft_radix4_q15.c ****     /* yc' = (ya-yb+yc-yd)* co2 - (xa-xb+xc-xd)* (si2) */
 707:Source\TransformFunctions/arm_cfft_radix4_q15.c ****     out2 = (q15_t) ((-Si2 * R0 + Co2 * R1) >> 16u);
 1685              		.loc 1 707 0
 1686 0a98 9E23     		mov	r3, #158
 1687 0a9a 9B00     		lsl	r3, r3, #2
 1688 0a9c FB18     		add	r3, r7, r3
 1689 0a9e 0022     		mov	r2, #0
 1690 0aa0 9B5E     		ldrsh	r3, [r3, r2]
 1691 0aa2 5B42     		neg	r3, r3
 1692 0aa4 C34A     		ldr	r2, .L231+4
 1693 0aa6 BA18     		add	r2, r7, r2
 1694 0aa8 0021     		mov	r1, #0
 1695 0aaa 525E     		ldrsh	r2, [r2, r1]
 1696 0aac 5A43     		mul	r2, r3
 1697 0aae C04B     		ldr	r3, .L231
 1698 0ab0 FB18     		add	r3, r7, r3
 1699 0ab2 0021     		mov	r1, #0
 1700 0ab4 5B5E     		ldrsh	r3, [r3, r1]
 1701 0ab6 A021     		mov	r1, #160
 1702 0ab8 8900     		lsl	r1, r1, #2
 1703 0aba 7918     		add	r1, r7, r1
 1704 0abc 0020     		mov	r0, #0
 1705 0abe 095E     		ldrsh	r1, [r1, r0]
 1706 0ac0 4B43     		mul	r3, r1
 1707 0ac2 D318     		add	r3, r2, r3
 1708 0ac4 1A14     		asr	r2, r3, #16
 1709 0ac6 9D23     		mov	r3, #157
 1710 0ac8 9B00     		lsl	r3, r3, #2
 1711 0aca FB18     		add	r3, r7, r3
 1712 0acc 1A80     		strh	r2, [r3]
 708:Source\TransformFunctions/arm_cfft_radix4_q15.c **** 
 709:Source\TransformFunctions/arm_cfft_radix4_q15.c ****     /*  Reading i0+fftLen/4 */
 710:Source\TransformFunctions/arm_cfft_radix4_q15.c ****     /* input is down scale by 4 to avoid overflow */
 711:Source\TransformFunctions/arm_cfft_radix4_q15.c ****     /* T0 = yb, T1 =  xb */
 712:Source\TransformFunctions/arm_cfft_radix4_q15.c ****     T0 = pSrc16[i1 * 2u] >> 2;
 1713              		.loc 1 712 0
 1714 0ace A523     		mov	r3, #165
 1715 0ad0 9B00     		lsl	r3, r3, #2
 1716 0ad2 FB18     		add	r3, r7, r3
 1717 0ad4 1B68     		ldr	r3, [r3]
 1718 0ad6 9B00     		lsl	r3, r3, #2
 1719 0ad8 FA68     		ldr	r2, [r7, #12]
 1720 0ada D318     		add	r3, r2, r3
 1721 0adc 1A88     		ldrh	r2, [r3]
 1722 0ade B74B     		ldr	r3, .L231+12
 1723 0ae0 FB18     		add	r3, r7, r3
 1724 0ae2 12B2     		sxth	r2, r2
 1725 0ae4 9210     		asr	r2, r2, #2
 1726 0ae6 1A80     		strh	r2, [r3]
 713:Source\TransformFunctions/arm_cfft_radix4_q15.c ****     T1 = pSrc16[(i1 * 2u) + 1] >> 2;
 1727              		.loc 1 713 0
ARM GAS  C:\Users\fneves\AppData\Local\Temp\cc0ayw4Y.s 			page 58


 1728 0ae8 A523     		mov	r3, #165
 1729 0aea 9B00     		lsl	r3, r3, #2
 1730 0aec FB18     		add	r3, r7, r3
 1731 0aee 1B68     		ldr	r3, [r3]
 1732 0af0 9B00     		lsl	r3, r3, #2
 1733 0af2 0233     		add	r3, r3, #2
 1734 0af4 FA68     		ldr	r2, [r7, #12]
 1735 0af6 D318     		add	r3, r2, r3
 1736 0af8 1A88     		ldrh	r2, [r3]
 1737 0afa A223     		mov	r3, #162
 1738 0afc 9B00     		lsl	r3, r3, #2
 1739 0afe FB18     		add	r3, r7, r3
 1740 0b00 12B2     		sxth	r2, r2
 1741 0b02 9210     		asr	r2, r2, #2
 1742 0b04 1A80     		strh	r2, [r3]
 714:Source\TransformFunctions/arm_cfft_radix4_q15.c **** 
 715:Source\TransformFunctions/arm_cfft_radix4_q15.c ****     /* writing the butterfly processed i0 + fftLen/4 sample */
 716:Source\TransformFunctions/arm_cfft_radix4_q15.c ****     /* writing output(xc', yc') in little endian format */
 717:Source\TransformFunctions/arm_cfft_radix4_q15.c ****     pSrc16[i1 * 2u] = out1;
 1743              		.loc 1 717 0
 1744 0b06 A523     		mov	r3, #165
 1745 0b08 9B00     		lsl	r3, r3, #2
 1746 0b0a FB18     		add	r3, r7, r3
 1747 0b0c 1B68     		ldr	r3, [r3]
 1748 0b0e 9B00     		lsl	r3, r3, #2
 1749 0b10 FA68     		ldr	r2, [r7, #12]
 1750 0b12 D318     		add	r3, r2, r3
 1751 0b14 A84A     		ldr	r2, .L231+8
 1752 0b16 BA18     		add	r2, r7, r2
 1753 0b18 1288     		ldrh	r2, [r2]
 1754 0b1a 1A80     		strh	r2, [r3]
 718:Source\TransformFunctions/arm_cfft_radix4_q15.c ****     pSrc16[(i1 * 2u) + 1] = out2;
 1755              		.loc 1 718 0
 1756 0b1c A523     		mov	r3, #165
 1757 0b1e 9B00     		lsl	r3, r3, #2
 1758 0b20 FB18     		add	r3, r7, r3
 1759 0b22 1B68     		ldr	r3, [r3]
 1760 0b24 9B00     		lsl	r3, r3, #2
 1761 0b26 0233     		add	r3, r3, #2
 1762 0b28 FA68     		ldr	r2, [r7, #12]
 1763 0b2a D318     		add	r3, r2, r3
 1764 0b2c 9D22     		mov	r2, #157
 1765 0b2e 9200     		lsl	r2, r2, #2
 1766 0b30 BA18     		add	r2, r7, r2
 1767 0b32 1288     		ldrh	r2, [r2]
 1768 0b34 1A80     		strh	r2, [r3]
 719:Source\TransformFunctions/arm_cfft_radix4_q15.c **** 
 720:Source\TransformFunctions/arm_cfft_radix4_q15.c ****     /*  Butterfly calculations */
 721:Source\TransformFunctions/arm_cfft_radix4_q15.c ****     /* input is down scale by 4 to avoid overflow */
 722:Source\TransformFunctions/arm_cfft_radix4_q15.c ****     /* U0 = yd, U1 = xd */
 723:Source\TransformFunctions/arm_cfft_radix4_q15.c ****     U0 = pSrc16[i3 * 2u] >> 2;
 1769              		.loc 1 723 0
 1770 0b36 A323     		mov	r3, #163
 1771 0b38 9B00     		lsl	r3, r3, #2
 1772 0b3a FB18     		add	r3, r7, r3
 1773 0b3c 1B68     		ldr	r3, [r3]
 1774 0b3e 9B00     		lsl	r3, r3, #2
ARM GAS  C:\Users\fneves\AppData\Local\Temp\cc0ayw4Y.s 			page 59


 1775 0b40 FA68     		ldr	r2, [r7, #12]
 1776 0b42 D318     		add	r3, r2, r3
 1777 0b44 1A88     		ldrh	r2, [r3]
 1778 0b46 9E4B     		ldr	r3, .L231+16
 1779 0b48 FB18     		add	r3, r7, r3
 1780 0b4a 12B2     		sxth	r2, r2
 1781 0b4c 9210     		asr	r2, r2, #2
 1782 0b4e 1A80     		strh	r2, [r3]
 724:Source\TransformFunctions/arm_cfft_radix4_q15.c ****     U1 = pSrc16[(i3 * 2u) + 1] >> 2;
 1783              		.loc 1 724 0
 1784 0b50 A323     		mov	r3, #163
 1785 0b52 9B00     		lsl	r3, r3, #2
 1786 0b54 FB18     		add	r3, r7, r3
 1787 0b56 1B68     		ldr	r3, [r3]
 1788 0b58 9B00     		lsl	r3, r3, #2
 1789 0b5a 0233     		add	r3, r3, #2
 1790 0b5c FA68     		ldr	r2, [r7, #12]
 1791 0b5e D318     		add	r3, r2, r3
 1792 0b60 1A88     		ldrh	r2, [r3]
 1793 0b62 9F23     		mov	r3, #159
 1794 0b64 9B00     		lsl	r3, r3, #2
 1795 0b66 FB18     		add	r3, r7, r3
 1796 0b68 12B2     		sxth	r2, r2
 1797 0b6a 9210     		asr	r2, r2, #2
 1798 0b6c 1A80     		strh	r2, [r3]
 725:Source\TransformFunctions/arm_cfft_radix4_q15.c ****     /* T0 = yb-yd */
 726:Source\TransformFunctions/arm_cfft_radix4_q15.c ****     T0 = __SSAT(T0 - U0, 16);
 1799              		.loc 1 726 0
 1800 0b6e 934B     		ldr	r3, .L231+12
 1801 0b70 FB18     		add	r3, r7, r3
 1802 0b72 0022     		mov	r2, #0
 1803 0b74 9A5E     		ldrsh	r2, [r3, r2]
 1804 0b76 924B     		ldr	r3, .L231+16
 1805 0b78 FB18     		add	r3, r7, r3
 1806 0b7a 0021     		mov	r1, #0
 1807 0b7c 5B5E     		ldrsh	r3, [r3, r1]
 1808 0b7e D31A     		sub	r3, r2, r3
 1809 0b80 E422     		mov	r2, #228
 1810 0b82 5200     		lsl	r2, r2, #1
 1811 0b84 BA18     		add	r2, r7, r2
 1812 0b86 1360     		str	r3, [r2]
 1813 0b88 1023     		mov	r3, #16
 1814 0b8a E222     		mov	r2, #226
 1815 0b8c 5200     		lsl	r2, r2, #1
 1816 0b8e BA18     		add	r2, r7, r2
 1817 0b90 1360     		str	r3, [r2]
 1818              	.LBB138:
 1819              	.LBB139:
 699:.\Include/arm_math.h ****     for (i = 0; i < (y - 1); i++)
 1820              		.loc 2 699 0
 1821 0b92 0123     		mov	r3, #1
 1822 0b94 E022     		mov	r2, #224
 1823 0b96 5200     		lsl	r2, r2, #1
 1824 0b98 BA18     		add	r2, r7, r2
 1825 0b9a 1360     		str	r3, [r2]
 700:.\Include/arm_math.h ****     {
 1826              		.loc 2 700 0
ARM GAS  C:\Users\fneves\AppData\Local\Temp\cc0ayw4Y.s 			page 60


 1827 0b9c 0023     		mov	r3, #0
 1828 0b9e DE22     		mov	r2, #222
 1829 0ba0 5200     		lsl	r2, r2, #1
 1830 0ba2 BA18     		add	r2, r7, r2
 1831 0ba4 1360     		str	r3, [r2]
 1832 0ba6 11E0     		b	.L54
 1833              	.L55:
 702:.\Include/arm_math.h ****     }
 1834              		.loc 2 702 0
 1835 0ba8 E023     		mov	r3, #224
 1836 0baa 5B00     		lsl	r3, r3, #1
 1837 0bac FB18     		add	r3, r7, r3
 1838 0bae 1B68     		ldr	r3, [r3]
 1839 0bb0 5B00     		lsl	r3, r3, #1
 1840 0bb2 E022     		mov	r2, #224
 1841 0bb4 5200     		lsl	r2, r2, #1
 1842 0bb6 BA18     		add	r2, r7, r2
 1843 0bb8 1360     		str	r3, [r2]
 700:.\Include/arm_math.h ****     {
 1844              		.loc 2 700 0
 1845 0bba DE23     		mov	r3, #222
 1846 0bbc 5B00     		lsl	r3, r3, #1
 1847 0bbe FB18     		add	r3, r7, r3
 1848 0bc0 1B68     		ldr	r3, [r3]
 1849 0bc2 0133     		add	r3, r3, #1
 1850 0bc4 DE22     		mov	r2, #222
 1851 0bc6 5200     		lsl	r2, r2, #1
 1852 0bc8 BA18     		add	r2, r7, r2
 1853 0bca 1360     		str	r3, [r2]
 1854              	.L54:
 1855 0bcc E223     		mov	r3, #226
 1856 0bce 5B00     		lsl	r3, r3, #1
 1857 0bd0 FB18     		add	r3, r7, r3
 1858 0bd2 1B68     		ldr	r3, [r3]
 1859 0bd4 013B     		sub	r3, r3, #1
 1860 0bd6 DE22     		mov	r2, #222
 1861 0bd8 5200     		lsl	r2, r2, #1
 1862 0bda BA18     		add	r2, r7, r2
 1863 0bdc 1268     		ldr	r2, [r2]
 1864 0bde 9A42     		cmp	r2, r3
 1865 0be0 E2D3     		bcc	.L55
 705:.\Include/arm_math.h ****     {
 1866              		.loc 2 705 0
 1867 0be2 E423     		mov	r3, #228
 1868 0be4 5B00     		lsl	r3, r3, #1
 1869 0be6 FB18     		add	r3, r7, r3
 1870 0be8 1B68     		ldr	r3, [r3]
 1871 0bea 002B     		cmp	r3, #0
 1872 0bec 1BDD     		ble	.L56
 707:.\Include/arm_math.h **** 
 1873              		.loc 2 707 0
 1874 0bee E023     		mov	r3, #224
 1875 0bf0 5B00     		lsl	r3, r3, #1
 1876 0bf2 FB18     		add	r3, r7, r3
 1877 0bf4 1B68     		ldr	r3, [r3]
 1878 0bf6 013B     		sub	r3, r3, #1
 1879 0bf8 E022     		mov	r2, #224
ARM GAS  C:\Users\fneves\AppData\Local\Temp\cc0ayw4Y.s 			page 61


 1880 0bfa 5200     		lsl	r2, r2, #1
 1881 0bfc BA18     		add	r2, r7, r2
 1882 0bfe 1360     		str	r3, [r2]
 709:.\Include/arm_math.h ****       {
 1883              		.loc 2 709 0
 1884 0c00 E423     		mov	r3, #228
 1885 0c02 5B00     		lsl	r3, r3, #1
 1886 0c04 FB18     		add	r3, r7, r3
 1887 0c06 1A68     		ldr	r2, [r3]
 1888 0c08 E023     		mov	r3, #224
 1889 0c0a 5B00     		lsl	r3, r3, #1
 1890 0c0c FB18     		add	r3, r7, r3
 1891 0c0e 1B68     		ldr	r3, [r3]
 1892 0c10 9A42     		cmp	r2, r3
 1893 0c12 24DD     		ble	.L203
 711:.\Include/arm_math.h ****       }
 1894              		.loc 2 711 0
 1895 0c14 E023     		mov	r3, #224
 1896 0c16 5B00     		lsl	r3, r3, #1
 1897 0c18 FB18     		add	r3, r7, r3
 1898 0c1a 1B68     		ldr	r3, [r3]
 1899 0c1c E422     		mov	r2, #228
 1900 0c1e 5200     		lsl	r2, r2, #1
 1901 0c20 BA18     		add	r2, r7, r2
 1902 0c22 1360     		str	r3, [r2]
 1903 0c24 1CE0     		b	.L58
 1904              	.L56:
 716:.\Include/arm_math.h **** 
 1905              		.loc 2 716 0
 1906 0c26 E023     		mov	r3, #224
 1907 0c28 5B00     		lsl	r3, r3, #1
 1908 0c2a FB18     		add	r3, r7, r3
 1909 0c2c 1B68     		ldr	r3, [r3]
 1910 0c2e 5B42     		neg	r3, r3
 1911 0c30 DC22     		mov	r2, #220
 1912 0c32 5200     		lsl	r2, r2, #1
 1913 0c34 BA18     		add	r2, r7, r2
 1914 0c36 1360     		str	r3, [r2]
 718:.\Include/arm_math.h ****       {
 1915              		.loc 2 718 0
 1916 0c38 E423     		mov	r3, #228
 1917 0c3a 5B00     		lsl	r3, r3, #1
 1918 0c3c FB18     		add	r3, r7, r3
 1919 0c3e 1A68     		ldr	r2, [r3]
 1920 0c40 DC23     		mov	r3, #220
 1921 0c42 5B00     		lsl	r3, r3, #1
 1922 0c44 FB18     		add	r3, r7, r3
 1923 0c46 1B68     		ldr	r3, [r3]
 1924 0c48 9A42     		cmp	r2, r3
 1925 0c4a 09DA     		bge	.L58
 720:.\Include/arm_math.h ****       }
 1926              		.loc 2 720 0
 1927 0c4c DC23     		mov	r3, #220
 1928 0c4e 5B00     		lsl	r3, r3, #1
 1929 0c50 FB18     		add	r3, r7, r3
 1930 0c52 1B68     		ldr	r3, [r3]
 1931 0c54 E422     		mov	r2, #228
ARM GAS  C:\Users\fneves\AppData\Local\Temp\cc0ayw4Y.s 			page 62


 1932 0c56 5200     		lsl	r2, r2, #1
 1933 0c58 BA18     		add	r2, r7, r2
 1934 0c5a 1360     		str	r3, [r2]
 1935 0c5c 00E0     		b	.L58
 1936              	.L203:
 711:.\Include/arm_math.h ****       }
 1937              		.loc 2 711 0
 1938 0c5e C046     		mov	r8, r8
 1939              	.L58:
 1940              		.loc 2 723 0
 1941 0c60 E423     		mov	r3, #228
 1942 0c62 5B00     		lsl	r3, r3, #1
 1943 0c64 FB18     		add	r3, r7, r3
 1944 0c66 1A68     		ldr	r2, [r3]
 1945              	.LBE139:
 1946              	.LBE138:
 1947              		.loc 1 726 0
 1948 0c68 544B     		ldr	r3, .L231+12
 1949 0c6a FB18     		add	r3, r7, r3
 1950 0c6c 1A80     		strh	r2, [r3]
 727:Source\TransformFunctions/arm_cfft_radix4_q15.c ****     /* T1 = xb-xd */
 728:Source\TransformFunctions/arm_cfft_radix4_q15.c ****     T1 = __SSAT(T1 - U1, 16);
 1951              		.loc 1 728 0
 1952 0c6e A223     		mov	r3, #162
 1953 0c70 9B00     		lsl	r3, r3, #2
 1954 0c72 FB18     		add	r3, r7, r3
 1955 0c74 0022     		mov	r2, #0
 1956 0c76 9A5E     		ldrsh	r2, [r3, r2]
 1957 0c78 9F23     		mov	r3, #159
 1958 0c7a 9B00     		lsl	r3, r3, #2
 1959 0c7c FB18     		add	r3, r7, r3
 1960 0c7e 0021     		mov	r1, #0
 1961 0c80 5B5E     		ldrsh	r3, [r3, r1]
 1962 0c82 D31A     		sub	r3, r2, r3
 1963 0c84 DA22     		mov	r2, #218
 1964 0c86 5200     		lsl	r2, r2, #1
 1965 0c88 BA18     		add	r2, r7, r2
 1966 0c8a 1360     		str	r3, [r2]
 1967 0c8c 1023     		mov	r3, #16
 1968 0c8e D822     		mov	r2, #216
 1969 0c90 5200     		lsl	r2, r2, #1
 1970 0c92 BA18     		add	r2, r7, r2
 1971 0c94 1360     		str	r3, [r2]
 1972              	.LBB140:
 1973              	.LBB141:
 699:.\Include/arm_math.h ****     for (i = 0; i < (y - 1); i++)
 1974              		.loc 2 699 0
 1975 0c96 0123     		mov	r3, #1
 1976 0c98 D622     		mov	r2, #214
 1977 0c9a 5200     		lsl	r2, r2, #1
 1978 0c9c BA18     		add	r2, r7, r2
 1979 0c9e 1360     		str	r3, [r2]
 700:.\Include/arm_math.h ****     {
 1980              		.loc 2 700 0
 1981 0ca0 0023     		mov	r3, #0
 1982 0ca2 D422     		mov	r2, #212
 1983 0ca4 5200     		lsl	r2, r2, #1
ARM GAS  C:\Users\fneves\AppData\Local\Temp\cc0ayw4Y.s 			page 63


 1984 0ca6 BA18     		add	r2, r7, r2
 1985 0ca8 1360     		str	r3, [r2]
 1986 0caa 11E0     		b	.L60
 1987              	.L61:
 702:.\Include/arm_math.h ****     }
 1988              		.loc 2 702 0
 1989 0cac D623     		mov	r3, #214
 1990 0cae 5B00     		lsl	r3, r3, #1
 1991 0cb0 FB18     		add	r3, r7, r3
 1992 0cb2 1B68     		ldr	r3, [r3]
 1993 0cb4 5B00     		lsl	r3, r3, #1
 1994 0cb6 D622     		mov	r2, #214
 1995 0cb8 5200     		lsl	r2, r2, #1
 1996 0cba BA18     		add	r2, r7, r2
 1997 0cbc 1360     		str	r3, [r2]
 700:.\Include/arm_math.h ****     {
 1998              		.loc 2 700 0
 1999 0cbe D423     		mov	r3, #212
 2000 0cc0 5B00     		lsl	r3, r3, #1
 2001 0cc2 FB18     		add	r3, r7, r3
 2002 0cc4 1B68     		ldr	r3, [r3]
 2003 0cc6 0133     		add	r3, r3, #1
 2004 0cc8 D422     		mov	r2, #212
 2005 0cca 5200     		lsl	r2, r2, #1
 2006 0ccc BA18     		add	r2, r7, r2
 2007 0cce 1360     		str	r3, [r2]
 2008              	.L60:
 2009 0cd0 D823     		mov	r3, #216
 2010 0cd2 5B00     		lsl	r3, r3, #1
 2011 0cd4 FB18     		add	r3, r7, r3
 2012 0cd6 1B68     		ldr	r3, [r3]
 2013 0cd8 013B     		sub	r3, r3, #1
 2014 0cda D422     		mov	r2, #212
 2015 0cdc 5200     		lsl	r2, r2, #1
 2016 0cde BA18     		add	r2, r7, r2
 2017 0ce0 1268     		ldr	r2, [r2]
 2018 0ce2 9A42     		cmp	r2, r3
 2019 0ce4 E2D3     		bcc	.L61
 705:.\Include/arm_math.h ****     {
 2020              		.loc 2 705 0
 2021 0ce6 DA23     		mov	r3, #218
 2022 0ce8 5B00     		lsl	r3, r3, #1
 2023 0cea FB18     		add	r3, r7, r3
 2024 0cec 1B68     		ldr	r3, [r3]
 2025 0cee 002B     		cmp	r3, #0
 2026 0cf0 1BDD     		ble	.L62
 707:.\Include/arm_math.h **** 
 2027              		.loc 2 707 0
 2028 0cf2 D623     		mov	r3, #214
 2029 0cf4 5B00     		lsl	r3, r3, #1
 2030 0cf6 FB18     		add	r3, r7, r3
 2031 0cf8 1B68     		ldr	r3, [r3]
 2032 0cfa 013B     		sub	r3, r3, #1
 2033 0cfc D622     		mov	r2, #214
 2034 0cfe 5200     		lsl	r2, r2, #1
 2035 0d00 BA18     		add	r2, r7, r2
 2036 0d02 1360     		str	r3, [r2]
ARM GAS  C:\Users\fneves\AppData\Local\Temp\cc0ayw4Y.s 			page 64


 709:.\Include/arm_math.h ****       {
 2037              		.loc 2 709 0
 2038 0d04 DA23     		mov	r3, #218
 2039 0d06 5B00     		lsl	r3, r3, #1
 2040 0d08 FB18     		add	r3, r7, r3
 2041 0d0a 1A68     		ldr	r2, [r3]
 2042 0d0c D623     		mov	r3, #214
 2043 0d0e 5B00     		lsl	r3, r3, #1
 2044 0d10 FB18     		add	r3, r7, r3
 2045 0d12 1B68     		ldr	r3, [r3]
 2046 0d14 9A42     		cmp	r2, r3
 2047 0d16 24DD     		ble	.L204
 711:.\Include/arm_math.h ****       }
 2048              		.loc 2 711 0
 2049 0d18 D623     		mov	r3, #214
 2050 0d1a 5B00     		lsl	r3, r3, #1
 2051 0d1c FB18     		add	r3, r7, r3
 2052 0d1e 1B68     		ldr	r3, [r3]
 2053 0d20 DA22     		mov	r2, #218
 2054 0d22 5200     		lsl	r2, r2, #1
 2055 0d24 BA18     		add	r2, r7, r2
 2056 0d26 1360     		str	r3, [r2]
 2057 0d28 1CE0     		b	.L64
 2058              	.L62:
 716:.\Include/arm_math.h **** 
 2059              		.loc 2 716 0
 2060 0d2a D623     		mov	r3, #214
 2061 0d2c 5B00     		lsl	r3, r3, #1
 2062 0d2e FB18     		add	r3, r7, r3
 2063 0d30 1B68     		ldr	r3, [r3]
 2064 0d32 5B42     		neg	r3, r3
 2065 0d34 D222     		mov	r2, #210
 2066 0d36 5200     		lsl	r2, r2, #1
 2067 0d38 BA18     		add	r2, r7, r2
 2068 0d3a 1360     		str	r3, [r2]
 718:.\Include/arm_math.h ****       {
 2069              		.loc 2 718 0
 2070 0d3c DA23     		mov	r3, #218
 2071 0d3e 5B00     		lsl	r3, r3, #1
 2072 0d40 FB18     		add	r3, r7, r3
 2073 0d42 1A68     		ldr	r2, [r3]
 2074 0d44 D223     		mov	r3, #210
 2075 0d46 5B00     		lsl	r3, r3, #1
 2076 0d48 FB18     		add	r3, r7, r3
 2077 0d4a 1B68     		ldr	r3, [r3]
 2078 0d4c 9A42     		cmp	r2, r3
 2079 0d4e 09DA     		bge	.L64
 720:.\Include/arm_math.h ****       }
 2080              		.loc 2 720 0
 2081 0d50 D223     		mov	r3, #210
 2082 0d52 5B00     		lsl	r3, r3, #1
 2083 0d54 FB18     		add	r3, r7, r3
 2084 0d56 1B68     		ldr	r3, [r3]
 2085 0d58 DA22     		mov	r2, #218
 2086 0d5a 5200     		lsl	r2, r2, #1
 2087 0d5c BA18     		add	r2, r7, r2
 2088 0d5e 1360     		str	r3, [r2]
ARM GAS  C:\Users\fneves\AppData\Local\Temp\cc0ayw4Y.s 			page 65


 2089 0d60 00E0     		b	.L64
 2090              	.L204:
 711:.\Include/arm_math.h ****       }
 2091              		.loc 2 711 0
 2092 0d62 C046     		mov	r8, r8
 2093              	.L64:
 2094              		.loc 2 723 0
 2095 0d64 DA23     		mov	r3, #218
 2096 0d66 5B00     		lsl	r3, r3, #1
 2097 0d68 FB18     		add	r3, r7, r3
 2098 0d6a 1A68     		ldr	r2, [r3]
 2099              	.LBE141:
 2100              	.LBE140:
 2101              		.loc 1 728 0
 2102 0d6c A223     		mov	r3, #162
 2103 0d6e 9B00     		lsl	r3, r3, #2
 2104 0d70 FB18     		add	r3, r7, r3
 2105 0d72 1A80     		strh	r2, [r3]
 729:Source\TransformFunctions/arm_cfft_radix4_q15.c **** 
 730:Source\TransformFunctions/arm_cfft_radix4_q15.c ****     /* R1 = (ya-yc) + (xb- xd),  R0 = (xa-xc) - (yb-yd)) */
 731:Source\TransformFunctions/arm_cfft_radix4_q15.c ****     R0 = (q15_t) __SSAT((q31_t) (S0 - T1), 16);
 2106              		.loc 1 731 0
 2107 0d74 134B     		ldr	r3, .L231+20
 2108 0d76 FB18     		add	r3, r7, r3
 2109 0d78 0022     		mov	r2, #0
 2110 0d7a 9A5E     		ldrsh	r2, [r3, r2]
 2111 0d7c A223     		mov	r3, #162
 2112 0d7e 9B00     		lsl	r3, r3, #2
 2113 0d80 FB18     		add	r3, r7, r3
 2114 0d82 0021     		mov	r1, #0
 2115 0d84 5B5E     		ldrsh	r3, [r3, r1]
 2116 0d86 D31A     		sub	r3, r2, r3
 2117 0d88 D022     		mov	r2, #208
 2118 0d8a 5200     		lsl	r2, r2, #1
 2119 0d8c BA18     		add	r2, r7, r2
 2120 0d8e 1360     		str	r3, [r2]
 2121 0d90 1023     		mov	r3, #16
 2122 0d92 CE22     		mov	r2, #206
 2123 0d94 5200     		lsl	r2, r2, #1
 2124 0d96 BA18     		add	r2, r7, r2
 2125 0d98 1360     		str	r3, [r2]
 2126              	.LBB142:
 2127              	.LBB143:
 699:.\Include/arm_math.h ****     for (i = 0; i < (y - 1); i++)
 2128              		.loc 2 699 0
 2129 0d9a 0123     		mov	r3, #1
 2130 0d9c CC22     		mov	r2, #204
 2131 0d9e 5200     		lsl	r2, r2, #1
 2132 0da0 BA18     		add	r2, r7, r2
 2133 0da2 1360     		str	r3, [r2]
 700:.\Include/arm_math.h ****     {
 2134              		.loc 2 700 0
 2135 0da4 0023     		mov	r3, #0
 2136 0da6 CA22     		mov	r2, #202
 2137 0da8 5200     		lsl	r2, r2, #1
 2138 0daa BA18     		add	r2, r7, r2
 2139 0dac 1360     		str	r3, [r2]
ARM GAS  C:\Users\fneves\AppData\Local\Temp\cc0ayw4Y.s 			page 66


 2140 0dae 1DE0     		b	.L66
 2141              	.L232:
 2142              		.align	2
 2143              	.L231:
 2144 0db0 7A020000 		.word	634
 2145 0db4 82020000 		.word	642
 2146 0db8 76020000 		.word	630
 2147 0dbc 8A020000 		.word	650
 2148 0dc0 7E020000 		.word	638
 2149 0dc4 86020000 		.word	646
 2150              	.L67:
 702:.\Include/arm_math.h ****     }
 2151              		.loc 2 702 0
 2152 0dc8 CC23     		mov	r3, #204
 2153 0dca 5B00     		lsl	r3, r3, #1
 2154 0dcc FB18     		add	r3, r7, r3
 2155 0dce 1B68     		ldr	r3, [r3]
 2156 0dd0 5B00     		lsl	r3, r3, #1
 2157 0dd2 CC22     		mov	r2, #204
 2158 0dd4 5200     		lsl	r2, r2, #1
 2159 0dd6 BA18     		add	r2, r7, r2
 2160 0dd8 1360     		str	r3, [r2]
 700:.\Include/arm_math.h ****     {
 2161              		.loc 2 700 0
 2162 0dda CA23     		mov	r3, #202
 2163 0ddc 5B00     		lsl	r3, r3, #1
 2164 0dde FB18     		add	r3, r7, r3
 2165 0de0 1B68     		ldr	r3, [r3]
 2166 0de2 0133     		add	r3, r3, #1
 2167 0de4 CA22     		mov	r2, #202
 2168 0de6 5200     		lsl	r2, r2, #1
 2169 0de8 BA18     		add	r2, r7, r2
 2170 0dea 1360     		str	r3, [r2]
 2171              	.L66:
 2172 0dec CE23     		mov	r3, #206
 2173 0dee 5B00     		lsl	r3, r3, #1
 2174 0df0 FB18     		add	r3, r7, r3
 2175 0df2 1B68     		ldr	r3, [r3]
 2176 0df4 013B     		sub	r3, r3, #1
 2177 0df6 CA22     		mov	r2, #202
 2178 0df8 5200     		lsl	r2, r2, #1
 2179 0dfa BA18     		add	r2, r7, r2
 2180 0dfc 1268     		ldr	r2, [r2]
 2181 0dfe 9A42     		cmp	r2, r3
 2182 0e00 E2D3     		bcc	.L67
 705:.\Include/arm_math.h ****     {
 2183              		.loc 2 705 0
 2184 0e02 D023     		mov	r3, #208
 2185 0e04 5B00     		lsl	r3, r3, #1
 2186 0e06 FB18     		add	r3, r7, r3
 2187 0e08 1B68     		ldr	r3, [r3]
 2188 0e0a 002B     		cmp	r3, #0
 2189 0e0c 1BDD     		ble	.L68
 707:.\Include/arm_math.h **** 
 2190              		.loc 2 707 0
 2191 0e0e CC23     		mov	r3, #204
 2192 0e10 5B00     		lsl	r3, r3, #1
ARM GAS  C:\Users\fneves\AppData\Local\Temp\cc0ayw4Y.s 			page 67


 2193 0e12 FB18     		add	r3, r7, r3
 2194 0e14 1B68     		ldr	r3, [r3]
 2195 0e16 013B     		sub	r3, r3, #1
 2196 0e18 CC22     		mov	r2, #204
 2197 0e1a 5200     		lsl	r2, r2, #1
 2198 0e1c BA18     		add	r2, r7, r2
 2199 0e1e 1360     		str	r3, [r2]
 709:.\Include/arm_math.h ****       {
 2200              		.loc 2 709 0
 2201 0e20 D023     		mov	r3, #208
 2202 0e22 5B00     		lsl	r3, r3, #1
 2203 0e24 FB18     		add	r3, r7, r3
 2204 0e26 1A68     		ldr	r2, [r3]
 2205 0e28 CC23     		mov	r3, #204
 2206 0e2a 5B00     		lsl	r3, r3, #1
 2207 0e2c FB18     		add	r3, r7, r3
 2208 0e2e 1B68     		ldr	r3, [r3]
 2209 0e30 9A42     		cmp	r2, r3
 2210 0e32 24DD     		ble	.L205
 711:.\Include/arm_math.h ****       }
 2211              		.loc 2 711 0
 2212 0e34 CC23     		mov	r3, #204
 2213 0e36 5B00     		lsl	r3, r3, #1
 2214 0e38 FB18     		add	r3, r7, r3
 2215 0e3a 1B68     		ldr	r3, [r3]
 2216 0e3c D022     		mov	r2, #208
 2217 0e3e 5200     		lsl	r2, r2, #1
 2218 0e40 BA18     		add	r2, r7, r2
 2219 0e42 1360     		str	r3, [r2]
 2220 0e44 1CE0     		b	.L70
 2221              	.L68:
 716:.\Include/arm_math.h **** 
 2222              		.loc 2 716 0
 2223 0e46 CC23     		mov	r3, #204
 2224 0e48 5B00     		lsl	r3, r3, #1
 2225 0e4a FB18     		add	r3, r7, r3
 2226 0e4c 1B68     		ldr	r3, [r3]
 2227 0e4e 5B42     		neg	r3, r3
 2228 0e50 C822     		mov	r2, #200
 2229 0e52 5200     		lsl	r2, r2, #1
 2230 0e54 BA18     		add	r2, r7, r2
 2231 0e56 1360     		str	r3, [r2]
 718:.\Include/arm_math.h ****       {
 2232              		.loc 2 718 0
 2233 0e58 D023     		mov	r3, #208
 2234 0e5a 5B00     		lsl	r3, r3, #1
 2235 0e5c FB18     		add	r3, r7, r3
 2236 0e5e 1A68     		ldr	r2, [r3]
 2237 0e60 C823     		mov	r3, #200
 2238 0e62 5B00     		lsl	r3, r3, #1
 2239 0e64 FB18     		add	r3, r7, r3
 2240 0e66 1B68     		ldr	r3, [r3]
 2241 0e68 9A42     		cmp	r2, r3
 2242 0e6a 09DA     		bge	.L70
 720:.\Include/arm_math.h ****       }
 2243              		.loc 2 720 0
 2244 0e6c C823     		mov	r3, #200
ARM GAS  C:\Users\fneves\AppData\Local\Temp\cc0ayw4Y.s 			page 68


 2245 0e6e 5B00     		lsl	r3, r3, #1
 2246 0e70 FB18     		add	r3, r7, r3
 2247 0e72 1B68     		ldr	r3, [r3]
 2248 0e74 D022     		mov	r2, #208
 2249 0e76 5200     		lsl	r2, r2, #1
 2250 0e78 BA18     		add	r2, r7, r2
 2251 0e7a 1360     		str	r3, [r2]
 2252 0e7c 00E0     		b	.L70
 2253              	.L205:
 711:.\Include/arm_math.h ****       }
 2254              		.loc 2 711 0
 2255 0e7e C046     		mov	r8, r8
 2256              	.L70:
 2257              		.loc 2 723 0
 2258 0e80 D023     		mov	r3, #208
 2259 0e82 5B00     		lsl	r3, r3, #1
 2260 0e84 FB18     		add	r3, r7, r3
 2261 0e86 1A68     		ldr	r2, [r3]
 2262              	.LBE143:
 2263              	.LBE142:
 2264              		.loc 1 731 0
 2265 0e88 BF4B     		ldr	r3, .L233
 2266 0e8a FB18     		add	r3, r7, r3
 2267 0e8c 1A80     		strh	r2, [r3]
 732:Source\TransformFunctions/arm_cfft_radix4_q15.c ****     R1 = (q15_t) __SSAT((q31_t) (S1 + T0), 16);
 2268              		.loc 1 732 0
 2269 0e8e A123     		mov	r3, #161
 2270 0e90 9B00     		lsl	r3, r3, #2
 2271 0e92 FB18     		add	r3, r7, r3
 2272 0e94 0022     		mov	r2, #0
 2273 0e96 9A5E     		ldrsh	r2, [r3, r2]
 2274 0e98 BC4B     		ldr	r3, .L233+4
 2275 0e9a FB18     		add	r3, r7, r3
 2276 0e9c 0021     		mov	r1, #0
 2277 0e9e 5B5E     		ldrsh	r3, [r3, r1]
 2278 0ea0 D318     		add	r3, r2, r3
 2279 0ea2 C622     		mov	r2, #198
 2280 0ea4 5200     		lsl	r2, r2, #1
 2281 0ea6 BA18     		add	r2, r7, r2
 2282 0ea8 1360     		str	r3, [r2]
 2283 0eaa 1023     		mov	r3, #16
 2284 0eac C422     		mov	r2, #196
 2285 0eae 5200     		lsl	r2, r2, #1
 2286 0eb0 BA18     		add	r2, r7, r2
 2287 0eb2 1360     		str	r3, [r2]
 2288              	.LBB144:
 2289              	.LBB145:
 699:.\Include/arm_math.h ****     for (i = 0; i < (y - 1); i++)
 2290              		.loc 2 699 0
 2291 0eb4 0123     		mov	r3, #1
 2292 0eb6 C222     		mov	r2, #194
 2293 0eb8 5200     		lsl	r2, r2, #1
 2294 0eba BA18     		add	r2, r7, r2
 2295 0ebc 1360     		str	r3, [r2]
 700:.\Include/arm_math.h ****     {
 2296              		.loc 2 700 0
 2297 0ebe 0023     		mov	r3, #0
ARM GAS  C:\Users\fneves\AppData\Local\Temp\cc0ayw4Y.s 			page 69


 2298 0ec0 C022     		mov	r2, #192
 2299 0ec2 5200     		lsl	r2, r2, #1
 2300 0ec4 BA18     		add	r2, r7, r2
 2301 0ec6 1360     		str	r3, [r2]
 2302 0ec8 11E0     		b	.L72
 2303              	.L73:
 702:.\Include/arm_math.h ****     }
 2304              		.loc 2 702 0
 2305 0eca C223     		mov	r3, #194
 2306 0ecc 5B00     		lsl	r3, r3, #1
 2307 0ece FB18     		add	r3, r7, r3
 2308 0ed0 1B68     		ldr	r3, [r3]
 2309 0ed2 5B00     		lsl	r3, r3, #1
 2310 0ed4 C222     		mov	r2, #194
 2311 0ed6 5200     		lsl	r2, r2, #1
 2312 0ed8 BA18     		add	r2, r7, r2
 2313 0eda 1360     		str	r3, [r2]
 700:.\Include/arm_math.h ****     {
 2314              		.loc 2 700 0
 2315 0edc C023     		mov	r3, #192
 2316 0ede 5B00     		lsl	r3, r3, #1
 2317 0ee0 FB18     		add	r3, r7, r3
 2318 0ee2 1B68     		ldr	r3, [r3]
 2319 0ee4 0133     		add	r3, r3, #1
 2320 0ee6 C022     		mov	r2, #192
 2321 0ee8 5200     		lsl	r2, r2, #1
 2322 0eea BA18     		add	r2, r7, r2
 2323 0eec 1360     		str	r3, [r2]
 2324              	.L72:
 2325 0eee C423     		mov	r3, #196
 2326 0ef0 5B00     		lsl	r3, r3, #1
 2327 0ef2 FB18     		add	r3, r7, r3
 2328 0ef4 1B68     		ldr	r3, [r3]
 2329 0ef6 013B     		sub	r3, r3, #1
 2330 0ef8 C022     		mov	r2, #192
 2331 0efa 5200     		lsl	r2, r2, #1
 2332 0efc BA18     		add	r2, r7, r2
 2333 0efe 1268     		ldr	r2, [r2]
 2334 0f00 9A42     		cmp	r2, r3
 2335 0f02 E2D3     		bcc	.L73
 705:.\Include/arm_math.h ****     {
 2336              		.loc 2 705 0
 2337 0f04 C623     		mov	r3, #198
 2338 0f06 5B00     		lsl	r3, r3, #1
 2339 0f08 FB18     		add	r3, r7, r3
 2340 0f0a 1B68     		ldr	r3, [r3]
 2341 0f0c 002B     		cmp	r3, #0
 2342 0f0e 1BDD     		ble	.L74
 707:.\Include/arm_math.h **** 
 2343              		.loc 2 707 0
 2344 0f10 C223     		mov	r3, #194
 2345 0f12 5B00     		lsl	r3, r3, #1
 2346 0f14 FB18     		add	r3, r7, r3
 2347 0f16 1B68     		ldr	r3, [r3]
 2348 0f18 013B     		sub	r3, r3, #1
 2349 0f1a C222     		mov	r2, #194
 2350 0f1c 5200     		lsl	r2, r2, #1
ARM GAS  C:\Users\fneves\AppData\Local\Temp\cc0ayw4Y.s 			page 70


 2351 0f1e BA18     		add	r2, r7, r2
 2352 0f20 1360     		str	r3, [r2]
 709:.\Include/arm_math.h ****       {
 2353              		.loc 2 709 0
 2354 0f22 C623     		mov	r3, #198
 2355 0f24 5B00     		lsl	r3, r3, #1
 2356 0f26 FB18     		add	r3, r7, r3
 2357 0f28 1A68     		ldr	r2, [r3]
 2358 0f2a C223     		mov	r3, #194
 2359 0f2c 5B00     		lsl	r3, r3, #1
 2360 0f2e FB18     		add	r3, r7, r3
 2361 0f30 1B68     		ldr	r3, [r3]
 2362 0f32 9A42     		cmp	r2, r3
 2363 0f34 24DD     		ble	.L206
 711:.\Include/arm_math.h ****       }
 2364              		.loc 2 711 0
 2365 0f36 C223     		mov	r3, #194
 2366 0f38 5B00     		lsl	r3, r3, #1
 2367 0f3a FB18     		add	r3, r7, r3
 2368 0f3c 1B68     		ldr	r3, [r3]
 2369 0f3e C622     		mov	r2, #198
 2370 0f40 5200     		lsl	r2, r2, #1
 2371 0f42 BA18     		add	r2, r7, r2
 2372 0f44 1360     		str	r3, [r2]
 2373 0f46 1CE0     		b	.L76
 2374              	.L74:
 716:.\Include/arm_math.h **** 
 2375              		.loc 2 716 0
 2376 0f48 C223     		mov	r3, #194
 2377 0f4a 5B00     		lsl	r3, r3, #1
 2378 0f4c FB18     		add	r3, r7, r3
 2379 0f4e 1B68     		ldr	r3, [r3]
 2380 0f50 5B42     		neg	r3, r3
 2381 0f52 BE22     		mov	r2, #190
 2382 0f54 5200     		lsl	r2, r2, #1
 2383 0f56 BA18     		add	r2, r7, r2
 2384 0f58 1360     		str	r3, [r2]
 718:.\Include/arm_math.h ****       {
 2385              		.loc 2 718 0
 2386 0f5a C623     		mov	r3, #198
 2387 0f5c 5B00     		lsl	r3, r3, #1
 2388 0f5e FB18     		add	r3, r7, r3
 2389 0f60 1A68     		ldr	r2, [r3]
 2390 0f62 BE23     		mov	r3, #190
 2391 0f64 5B00     		lsl	r3, r3, #1
 2392 0f66 FB18     		add	r3, r7, r3
 2393 0f68 1B68     		ldr	r3, [r3]
 2394 0f6a 9A42     		cmp	r2, r3
 2395 0f6c 09DA     		bge	.L76
 720:.\Include/arm_math.h ****       }
 2396              		.loc 2 720 0
 2397 0f6e BE23     		mov	r3, #190
 2398 0f70 5B00     		lsl	r3, r3, #1
 2399 0f72 FB18     		add	r3, r7, r3
 2400 0f74 1B68     		ldr	r3, [r3]
 2401 0f76 C622     		mov	r2, #198
 2402 0f78 5200     		lsl	r2, r2, #1
ARM GAS  C:\Users\fneves\AppData\Local\Temp\cc0ayw4Y.s 			page 71


 2403 0f7a BA18     		add	r2, r7, r2
 2404 0f7c 1360     		str	r3, [r2]
 2405 0f7e 00E0     		b	.L76
 2406              	.L206:
 711:.\Include/arm_math.h ****       }
 2407              		.loc 2 711 0
 2408 0f80 C046     		mov	r8, r8
 2409              	.L76:
 2410              		.loc 2 723 0
 2411 0f82 C623     		mov	r3, #198
 2412 0f84 5B00     		lsl	r3, r3, #1
 2413 0f86 FB18     		add	r3, r7, r3
 2414 0f88 1A68     		ldr	r2, [r3]
 2415              	.LBE145:
 2416              	.LBE144:
 2417              		.loc 1 732 0
 2418 0f8a A023     		mov	r3, #160
 2419 0f8c 9B00     		lsl	r3, r3, #2
 2420 0f8e FB18     		add	r3, r7, r3
 2421 0f90 1A80     		strh	r2, [r3]
 733:Source\TransformFunctions/arm_cfft_radix4_q15.c **** 
 734:Source\TransformFunctions/arm_cfft_radix4_q15.c ****     /* S1 = (ya-yc) - (xb- xd), S0 = (xa-xc) + (yb-yd)) */
 735:Source\TransformFunctions/arm_cfft_radix4_q15.c ****     S0 = (q15_t) __SSAT(((q31_t) S0 + T1), 16u);
 2422              		.loc 1 735 0
 2423 0f92 7F4B     		ldr	r3, .L233+8
 2424 0f94 FB18     		add	r3, r7, r3
 2425 0f96 0022     		mov	r2, #0
 2426 0f98 9A5E     		ldrsh	r2, [r3, r2]
 2427 0f9a A223     		mov	r3, #162
 2428 0f9c 9B00     		lsl	r3, r3, #2
 2429 0f9e FB18     		add	r3, r7, r3
 2430 0fa0 0021     		mov	r1, #0
 2431 0fa2 5B5E     		ldrsh	r3, [r3, r1]
 2432 0fa4 D318     		add	r3, r2, r3
 2433 0fa6 BC22     		mov	r2, #188
 2434 0fa8 5200     		lsl	r2, r2, #1
 2435 0faa BA18     		add	r2, r7, r2
 2436 0fac 1360     		str	r3, [r2]
 2437 0fae 1023     		mov	r3, #16
 2438 0fb0 BA22     		mov	r2, #186
 2439 0fb2 5200     		lsl	r2, r2, #1
 2440 0fb4 BA18     		add	r2, r7, r2
 2441 0fb6 1360     		str	r3, [r2]
 2442              	.LBB146:
 2443              	.LBB147:
 699:.\Include/arm_math.h ****     for (i = 0; i < (y - 1); i++)
 2444              		.loc 2 699 0
 2445 0fb8 0123     		mov	r3, #1
 2446 0fba B822     		mov	r2, #184
 2447 0fbc 5200     		lsl	r2, r2, #1
 2448 0fbe BA18     		add	r2, r7, r2
 2449 0fc0 1360     		str	r3, [r2]
 700:.\Include/arm_math.h ****     {
 2450              		.loc 2 700 0
 2451 0fc2 0023     		mov	r3, #0
 2452 0fc4 B622     		mov	r2, #182
 2453 0fc6 5200     		lsl	r2, r2, #1
ARM GAS  C:\Users\fneves\AppData\Local\Temp\cc0ayw4Y.s 			page 72


 2454 0fc8 BA18     		add	r2, r7, r2
 2455 0fca 1360     		str	r3, [r2]
 2456 0fcc 11E0     		b	.L78
 2457              	.L79:
 702:.\Include/arm_math.h ****     }
 2458              		.loc 2 702 0
 2459 0fce B823     		mov	r3, #184
 2460 0fd0 5B00     		lsl	r3, r3, #1
 2461 0fd2 FB18     		add	r3, r7, r3
 2462 0fd4 1B68     		ldr	r3, [r3]
 2463 0fd6 5B00     		lsl	r3, r3, #1
 2464 0fd8 B822     		mov	r2, #184
 2465 0fda 5200     		lsl	r2, r2, #1
 2466 0fdc BA18     		add	r2, r7, r2
 2467 0fde 1360     		str	r3, [r2]
 700:.\Include/arm_math.h ****     {
 2468              		.loc 2 700 0
 2469 0fe0 B623     		mov	r3, #182
 2470 0fe2 5B00     		lsl	r3, r3, #1
 2471 0fe4 FB18     		add	r3, r7, r3
 2472 0fe6 1B68     		ldr	r3, [r3]
 2473 0fe8 0133     		add	r3, r3, #1
 2474 0fea B622     		mov	r2, #182
 2475 0fec 5200     		lsl	r2, r2, #1
 2476 0fee BA18     		add	r2, r7, r2
 2477 0ff0 1360     		str	r3, [r2]
 2478              	.L78:
 2479 0ff2 BA23     		mov	r3, #186
 2480 0ff4 5B00     		lsl	r3, r3, #1
 2481 0ff6 FB18     		add	r3, r7, r3
 2482 0ff8 1B68     		ldr	r3, [r3]
 2483 0ffa 013B     		sub	r3, r3, #1
 2484 0ffc B622     		mov	r2, #182
 2485 0ffe 5200     		lsl	r2, r2, #1
 2486 1000 BA18     		add	r2, r7, r2
 2487 1002 1268     		ldr	r2, [r2]
 2488 1004 9A42     		cmp	r2, r3
 2489 1006 E2D3     		bcc	.L79
 705:.\Include/arm_math.h ****     {
 2490              		.loc 2 705 0
 2491 1008 BC23     		mov	r3, #188
 2492 100a 5B00     		lsl	r3, r3, #1
 2493 100c FB18     		add	r3, r7, r3
 2494 100e 1B68     		ldr	r3, [r3]
 2495 1010 002B     		cmp	r3, #0
 2496 1012 1BDD     		ble	.L80
 707:.\Include/arm_math.h **** 
 2497              		.loc 2 707 0
 2498 1014 B823     		mov	r3, #184
 2499 1016 5B00     		lsl	r3, r3, #1
 2500 1018 FB18     		add	r3, r7, r3
 2501 101a 1B68     		ldr	r3, [r3]
 2502 101c 013B     		sub	r3, r3, #1
 2503 101e B822     		mov	r2, #184
 2504 1020 5200     		lsl	r2, r2, #1
 2505 1022 BA18     		add	r2, r7, r2
 2506 1024 1360     		str	r3, [r2]
ARM GAS  C:\Users\fneves\AppData\Local\Temp\cc0ayw4Y.s 			page 73


 709:.\Include/arm_math.h ****       {
 2507              		.loc 2 709 0
 2508 1026 BC23     		mov	r3, #188
 2509 1028 5B00     		lsl	r3, r3, #1
 2510 102a FB18     		add	r3, r7, r3
 2511 102c 1A68     		ldr	r2, [r3]
 2512 102e B823     		mov	r3, #184
 2513 1030 5B00     		lsl	r3, r3, #1
 2514 1032 FB18     		add	r3, r7, r3
 2515 1034 1B68     		ldr	r3, [r3]
 2516 1036 9A42     		cmp	r2, r3
 2517 1038 24DD     		ble	.L207
 711:.\Include/arm_math.h ****       }
 2518              		.loc 2 711 0
 2519 103a B823     		mov	r3, #184
 2520 103c 5B00     		lsl	r3, r3, #1
 2521 103e FB18     		add	r3, r7, r3
 2522 1040 1B68     		ldr	r3, [r3]
 2523 1042 BC22     		mov	r2, #188
 2524 1044 5200     		lsl	r2, r2, #1
 2525 1046 BA18     		add	r2, r7, r2
 2526 1048 1360     		str	r3, [r2]
 2527 104a 1CE0     		b	.L82
 2528              	.L80:
 716:.\Include/arm_math.h **** 
 2529              		.loc 2 716 0
 2530 104c B823     		mov	r3, #184
 2531 104e 5B00     		lsl	r3, r3, #1
 2532 1050 FB18     		add	r3, r7, r3
 2533 1052 1B68     		ldr	r3, [r3]
 2534 1054 5B42     		neg	r3, r3
 2535 1056 B422     		mov	r2, #180
 2536 1058 5200     		lsl	r2, r2, #1
 2537 105a BA18     		add	r2, r7, r2
 2538 105c 1360     		str	r3, [r2]
 718:.\Include/arm_math.h ****       {
 2539              		.loc 2 718 0
 2540 105e BC23     		mov	r3, #188
 2541 1060 5B00     		lsl	r3, r3, #1
 2542 1062 FB18     		add	r3, r7, r3
 2543 1064 1A68     		ldr	r2, [r3]
 2544 1066 B423     		mov	r3, #180
 2545 1068 5B00     		lsl	r3, r3, #1
 2546 106a FB18     		add	r3, r7, r3
 2547 106c 1B68     		ldr	r3, [r3]
 2548 106e 9A42     		cmp	r2, r3
 2549 1070 09DA     		bge	.L82
 720:.\Include/arm_math.h ****       }
 2550              		.loc 2 720 0
 2551 1072 B423     		mov	r3, #180
 2552 1074 5B00     		lsl	r3, r3, #1
 2553 1076 FB18     		add	r3, r7, r3
 2554 1078 1B68     		ldr	r3, [r3]
 2555 107a BC22     		mov	r2, #188
 2556 107c 5200     		lsl	r2, r2, #1
 2557 107e BA18     		add	r2, r7, r2
 2558 1080 1360     		str	r3, [r2]
ARM GAS  C:\Users\fneves\AppData\Local\Temp\cc0ayw4Y.s 			page 74


 2559 1082 00E0     		b	.L82
 2560              	.L207:
 711:.\Include/arm_math.h ****       }
 2561              		.loc 2 711 0
 2562 1084 C046     		mov	r8, r8
 2563              	.L82:
 2564              		.loc 2 723 0
 2565 1086 BC23     		mov	r3, #188
 2566 1088 5B00     		lsl	r3, r3, #1
 2567 108a FB18     		add	r3, r7, r3
 2568 108c 1A68     		ldr	r2, [r3]
 2569              	.LBE147:
 2570              	.LBE146:
 2571              		.loc 1 735 0
 2572 108e 404B     		ldr	r3, .L233+8
 2573 1090 FB18     		add	r3, r7, r3
 2574 1092 1A80     		strh	r2, [r3]
 736:Source\TransformFunctions/arm_cfft_radix4_q15.c ****     S1 = (q15_t) __SSAT(((q31_t) S1 - T0), 16u);
 2575              		.loc 1 736 0
 2576 1094 A123     		mov	r3, #161
 2577 1096 9B00     		lsl	r3, r3, #2
 2578 1098 FB18     		add	r3, r7, r3
 2579 109a 0022     		mov	r2, #0
 2580 109c 9A5E     		ldrsh	r2, [r3, r2]
 2581 109e 3B4B     		ldr	r3, .L233+4
 2582 10a0 FB18     		add	r3, r7, r3
 2583 10a2 0021     		mov	r1, #0
 2584 10a4 5B5E     		ldrsh	r3, [r3, r1]
 2585 10a6 D31A     		sub	r3, r2, r3
 2586 10a8 B222     		mov	r2, #178
 2587 10aa 5200     		lsl	r2, r2, #1
 2588 10ac BA18     		add	r2, r7, r2
 2589 10ae 1360     		str	r3, [r2]
 2590 10b0 1023     		mov	r3, #16
 2591 10b2 B022     		mov	r2, #176
 2592 10b4 5200     		lsl	r2, r2, #1
 2593 10b6 BA18     		add	r2, r7, r2
 2594 10b8 1360     		str	r3, [r2]
 2595              	.LBB148:
 2596              	.LBB149:
 699:.\Include/arm_math.h ****     for (i = 0; i < (y - 1); i++)
 2597              		.loc 2 699 0
 2598 10ba 0123     		mov	r3, #1
 2599 10bc AE22     		mov	r2, #174
 2600 10be 5200     		lsl	r2, r2, #1
 2601 10c0 BA18     		add	r2, r7, r2
 2602 10c2 1360     		str	r3, [r2]
 700:.\Include/arm_math.h ****     {
 2603              		.loc 2 700 0
 2604 10c4 0023     		mov	r3, #0
 2605 10c6 AC22     		mov	r2, #172
 2606 10c8 5200     		lsl	r2, r2, #1
 2607 10ca BA18     		add	r2, r7, r2
 2608 10cc 1360     		str	r3, [r2]
 2609 10ce 11E0     		b	.L84
 2610              	.L85:
 702:.\Include/arm_math.h ****     }
ARM GAS  C:\Users\fneves\AppData\Local\Temp\cc0ayw4Y.s 			page 75


 2611              		.loc 2 702 0
 2612 10d0 AE23     		mov	r3, #174
 2613 10d2 5B00     		lsl	r3, r3, #1
 2614 10d4 FB18     		add	r3, r7, r3
 2615 10d6 1B68     		ldr	r3, [r3]
 2616 10d8 5B00     		lsl	r3, r3, #1
 2617 10da AE22     		mov	r2, #174
 2618 10dc 5200     		lsl	r2, r2, #1
 2619 10de BA18     		add	r2, r7, r2
 2620 10e0 1360     		str	r3, [r2]
 700:.\Include/arm_math.h ****     {
 2621              		.loc 2 700 0
 2622 10e2 AC23     		mov	r3, #172
 2623 10e4 5B00     		lsl	r3, r3, #1
 2624 10e6 FB18     		add	r3, r7, r3
 2625 10e8 1B68     		ldr	r3, [r3]
 2626 10ea 0133     		add	r3, r3, #1
 2627 10ec AC22     		mov	r2, #172
 2628 10ee 5200     		lsl	r2, r2, #1
 2629 10f0 BA18     		add	r2, r7, r2
 2630 10f2 1360     		str	r3, [r2]
 2631              	.L84:
 2632 10f4 B023     		mov	r3, #176
 2633 10f6 5B00     		lsl	r3, r3, #1
 2634 10f8 FB18     		add	r3, r7, r3
 2635 10fa 1B68     		ldr	r3, [r3]
 2636 10fc 013B     		sub	r3, r3, #1
 2637 10fe AC22     		mov	r2, #172
 2638 1100 5200     		lsl	r2, r2, #1
 2639 1102 BA18     		add	r2, r7, r2
 2640 1104 1268     		ldr	r2, [r2]
 2641 1106 9A42     		cmp	r2, r3
 2642 1108 E2D3     		bcc	.L85
 705:.\Include/arm_math.h ****     {
 2643              		.loc 2 705 0
 2644 110a B223     		mov	r3, #178
 2645 110c 5B00     		lsl	r3, r3, #1
 2646 110e FB18     		add	r3, r7, r3
 2647 1110 1B68     		ldr	r3, [r3]
 2648 1112 002B     		cmp	r3, #0
 2649 1114 1BDD     		ble	.L86
 707:.\Include/arm_math.h **** 
 2650              		.loc 2 707 0
 2651 1116 AE23     		mov	r3, #174
 2652 1118 5B00     		lsl	r3, r3, #1
 2653 111a FB18     		add	r3, r7, r3
 2654 111c 1B68     		ldr	r3, [r3]
 2655 111e 013B     		sub	r3, r3, #1
 2656 1120 AE22     		mov	r2, #174
 2657 1122 5200     		lsl	r2, r2, #1
 2658 1124 BA18     		add	r2, r7, r2
 2659 1126 1360     		str	r3, [r2]
 709:.\Include/arm_math.h ****       {
 2660              		.loc 2 709 0
 2661 1128 B223     		mov	r3, #178
 2662 112a 5B00     		lsl	r3, r3, #1
 2663 112c FB18     		add	r3, r7, r3
ARM GAS  C:\Users\fneves\AppData\Local\Temp\cc0ayw4Y.s 			page 76


 2664 112e 1A68     		ldr	r2, [r3]
 2665 1130 AE23     		mov	r3, #174
 2666 1132 5B00     		lsl	r3, r3, #1
 2667 1134 FB18     		add	r3, r7, r3
 2668 1136 1B68     		ldr	r3, [r3]
 2669 1138 9A42     		cmp	r2, r3
 2670 113a 2BDD     		ble	.L208
 711:.\Include/arm_math.h ****       }
 2671              		.loc 2 711 0
 2672 113c AE23     		mov	r3, #174
 2673 113e 5B00     		lsl	r3, r3, #1
 2674 1140 FB18     		add	r3, r7, r3
 2675 1142 1B68     		ldr	r3, [r3]
 2676 1144 B222     		mov	r2, #178
 2677 1146 5200     		lsl	r2, r2, #1
 2678 1148 BA18     		add	r2, r7, r2
 2679 114a 1360     		str	r3, [r2]
 2680 114c 23E0     		b	.L88
 2681              	.L86:
 716:.\Include/arm_math.h **** 
 2682              		.loc 2 716 0
 2683 114e AE23     		mov	r3, #174
 2684 1150 5B00     		lsl	r3, r3, #1
 2685 1152 FB18     		add	r3, r7, r3
 2686 1154 1B68     		ldr	r3, [r3]
 2687 1156 5B42     		neg	r3, r3
 2688 1158 AA22     		mov	r2, #170
 2689 115a 5200     		lsl	r2, r2, #1
 2690 115c BA18     		add	r2, r7, r2
 2691 115e 1360     		str	r3, [r2]
 718:.\Include/arm_math.h ****       {
 2692              		.loc 2 718 0
 2693 1160 B223     		mov	r3, #178
 2694 1162 5B00     		lsl	r3, r3, #1
 2695 1164 FB18     		add	r3, r7, r3
 2696 1166 1A68     		ldr	r2, [r3]
 2697 1168 AA23     		mov	r3, #170
 2698 116a 5B00     		lsl	r3, r3, #1
 2699 116c FB18     		add	r3, r7, r3
 2700 116e 1B68     		ldr	r3, [r3]
 2701 1170 9A42     		cmp	r2, r3
 2702 1172 10DA     		bge	.L88
 720:.\Include/arm_math.h ****       }
 2703              		.loc 2 720 0
 2704 1174 AA23     		mov	r3, #170
 2705 1176 5B00     		lsl	r3, r3, #1
 2706 1178 FB18     		add	r3, r7, r3
 2707 117a 1B68     		ldr	r3, [r3]
 2708 117c B222     		mov	r2, #178
 2709 117e 5200     		lsl	r2, r2, #1
 2710 1180 BA18     		add	r2, r7, r2
 2711 1182 1360     		str	r3, [r2]
 2712 1184 07E0     		b	.L88
 2713              	.L234:
 2714 1186 C046     		.align	2
 2715              	.L233:
 2716 1188 82020000 		.word	642
ARM GAS  C:\Users\fneves\AppData\Local\Temp\cc0ayw4Y.s 			page 77


 2717 118c 8A020000 		.word	650
 2718 1190 86020000 		.word	646
 2719              	.L208:
 711:.\Include/arm_math.h ****       }
 2720              		.loc 2 711 0
 2721 1194 C046     		mov	r8, r8
 2722              	.L88:
 2723              		.loc 2 723 0
 2724 1196 B223     		mov	r3, #178
 2725 1198 5B00     		lsl	r3, r3, #1
 2726 119a FB18     		add	r3, r7, r3
 2727 119c 1A68     		ldr	r2, [r3]
 2728              	.LBE149:
 2729              	.LBE148:
 2730              		.loc 1 736 0
 2731 119e A123     		mov	r3, #161
 2732 11a0 9B00     		lsl	r3, r3, #2
 2733 11a2 FB18     		add	r3, r7, r3
 2734 11a4 1A80     		strh	r2, [r3]
 737:Source\TransformFunctions/arm_cfft_radix4_q15.c **** 
 738:Source\TransformFunctions/arm_cfft_radix4_q15.c ****     /* co1 & si1 are read from Coefficient pointer */
 739:Source\TransformFunctions/arm_cfft_radix4_q15.c ****     Co1 = pCoef16[ic * 2u];
 2735              		.loc 1 739 0
 2736 11a6 AA23     		mov	r3, #170
 2737 11a8 9B00     		lsl	r3, r3, #2
 2738 11aa FB18     		add	r3, r7, r3
 2739 11ac 1B68     		ldr	r3, [r3]
 2740 11ae 9B00     		lsl	r3, r3, #2
 2741 11b0 7A68     		ldr	r2, [r7, #4]
 2742 11b2 D218     		add	r2, r2, r3
 2743 11b4 BB4B     		ldr	r3, .L235
 2744 11b6 FB18     		add	r3, r7, r3
 2745 11b8 1288     		ldrh	r2, [r2]
 2746 11ba 1A80     		strh	r2, [r3]
 740:Source\TransformFunctions/arm_cfft_radix4_q15.c ****     Si1 = pCoef16[(ic * 2u) + 1];
 2747              		.loc 1 740 0
 2748 11bc AA23     		mov	r3, #170
 2749 11be 9B00     		lsl	r3, r3, #2
 2750 11c0 FB18     		add	r3, r7, r3
 2751 11c2 1B68     		ldr	r3, [r3]
 2752 11c4 9B00     		lsl	r3, r3, #2
 2753 11c6 0233     		add	r3, r3, #2
 2754 11c8 7A68     		ldr	r2, [r7, #4]
 2755 11ca D218     		add	r2, r2, r3
 2756 11cc 9C23     		mov	r3, #156
 2757 11ce 9B00     		lsl	r3, r3, #2
 2758 11d0 FB18     		add	r3, r7, r3
 2759 11d2 1288     		ldrh	r2, [r2]
 2760 11d4 1A80     		strh	r2, [r3]
 741:Source\TransformFunctions/arm_cfft_radix4_q15.c ****     /*  Butterfly process for the i0+fftLen/2 sample */
 742:Source\TransformFunctions/arm_cfft_radix4_q15.c ****     /* xb' = (xa+yb-xc-yd)* co1 + (ya-xb-yc+xd)* (si1) */
 743:Source\TransformFunctions/arm_cfft_radix4_q15.c ****     out1 = (q15_t) ((Si1 * S1 + Co1 * S0) >> 16);
 2761              		.loc 1 743 0
 2762 11d6 9C23     		mov	r3, #156
 2763 11d8 9B00     		lsl	r3, r3, #2
 2764 11da FB18     		add	r3, r7, r3
 2765 11dc 0022     		mov	r2, #0
ARM GAS  C:\Users\fneves\AppData\Local\Temp\cc0ayw4Y.s 			page 78


 2766 11de 9B5E     		ldrsh	r3, [r3, r2]
 2767 11e0 A122     		mov	r2, #161
 2768 11e2 9200     		lsl	r2, r2, #2
 2769 11e4 BA18     		add	r2, r7, r2
 2770 11e6 0021     		mov	r1, #0
 2771 11e8 525E     		ldrsh	r2, [r2, r1]
 2772 11ea 5A43     		mul	r2, r3
 2773 11ec AD4B     		ldr	r3, .L235
 2774 11ee FB18     		add	r3, r7, r3
 2775 11f0 0021     		mov	r1, #0
 2776 11f2 5B5E     		ldrsh	r3, [r3, r1]
 2777 11f4 AC49     		ldr	r1, .L235+4
 2778 11f6 7918     		add	r1, r7, r1
 2779 11f8 0020     		mov	r0, #0
 2780 11fa 095E     		ldrsh	r1, [r1, r0]
 2781 11fc 4B43     		mul	r3, r1
 2782 11fe D318     		add	r3, r2, r3
 2783 1200 1A14     		asr	r2, r3, #16
 2784 1202 AA4B     		ldr	r3, .L235+8
 2785 1204 FB18     		add	r3, r7, r3
 2786 1206 1A80     		strh	r2, [r3]
 744:Source\TransformFunctions/arm_cfft_radix4_q15.c ****     /* yb' = (ya-xb-yc+xd)* co1 - (xa+yb-xc-yd)* (si1) */
 745:Source\TransformFunctions/arm_cfft_radix4_q15.c ****     out2 = (q15_t) ((-Si1 * S0 + Co1 * S1) >> 16);
 2787              		.loc 1 745 0
 2788 1208 9C23     		mov	r3, #156
 2789 120a 9B00     		lsl	r3, r3, #2
 2790 120c FB18     		add	r3, r7, r3
 2791 120e 0022     		mov	r2, #0
 2792 1210 9B5E     		ldrsh	r3, [r3, r2]
 2793 1212 5B42     		neg	r3, r3
 2794 1214 A44A     		ldr	r2, .L235+4
 2795 1216 BA18     		add	r2, r7, r2
 2796 1218 0021     		mov	r1, #0
 2797 121a 525E     		ldrsh	r2, [r2, r1]
 2798 121c 5A43     		mul	r2, r3
 2799 121e A14B     		ldr	r3, .L235
 2800 1220 FB18     		add	r3, r7, r3
 2801 1222 0021     		mov	r1, #0
 2802 1224 5B5E     		ldrsh	r3, [r3, r1]
 2803 1226 A121     		mov	r1, #161
 2804 1228 8900     		lsl	r1, r1, #2
 2805 122a 7918     		add	r1, r7, r1
 2806 122c 0020     		mov	r0, #0
 2807 122e 095E     		ldrsh	r1, [r1, r0]
 2808 1230 4B43     		mul	r3, r1
 2809 1232 D318     		add	r3, r2, r3
 2810 1234 1A14     		asr	r2, r3, #16
 2811 1236 9D23     		mov	r3, #157
 2812 1238 9B00     		lsl	r3, r3, #2
 2813 123a FB18     		add	r3, r7, r3
 2814 123c 1A80     		strh	r2, [r3]
 746:Source\TransformFunctions/arm_cfft_radix4_q15.c **** 
 747:Source\TransformFunctions/arm_cfft_radix4_q15.c ****     /* writing output(xb', yb') in little endian format */
 748:Source\TransformFunctions/arm_cfft_radix4_q15.c ****     pSrc16[i2 * 2u] = out1;
 2815              		.loc 1 748 0
 2816 123e A423     		mov	r3, #164
 2817 1240 9B00     		lsl	r3, r3, #2
ARM GAS  C:\Users\fneves\AppData\Local\Temp\cc0ayw4Y.s 			page 79


 2818 1242 FB18     		add	r3, r7, r3
 2819 1244 1B68     		ldr	r3, [r3]
 2820 1246 9B00     		lsl	r3, r3, #2
 2821 1248 FA68     		ldr	r2, [r7, #12]
 2822 124a D318     		add	r3, r2, r3
 2823 124c 974A     		ldr	r2, .L235+8
 2824 124e BA18     		add	r2, r7, r2
 2825 1250 1288     		ldrh	r2, [r2]
 2826 1252 1A80     		strh	r2, [r3]
 749:Source\TransformFunctions/arm_cfft_radix4_q15.c ****     pSrc16[(i2 * 2u) + 1] = out2;
 2827              		.loc 1 749 0
 2828 1254 A423     		mov	r3, #164
 2829 1256 9B00     		lsl	r3, r3, #2
 2830 1258 FB18     		add	r3, r7, r3
 2831 125a 1B68     		ldr	r3, [r3]
 2832 125c 9B00     		lsl	r3, r3, #2
 2833 125e 0233     		add	r3, r3, #2
 2834 1260 FA68     		ldr	r2, [r7, #12]
 2835 1262 D318     		add	r3, r2, r3
 2836 1264 9D22     		mov	r2, #157
 2837 1266 9200     		lsl	r2, r2, #2
 2838 1268 BA18     		add	r2, r7, r2
 2839 126a 1288     		ldrh	r2, [r2]
 2840 126c 1A80     		strh	r2, [r3]
 750:Source\TransformFunctions/arm_cfft_radix4_q15.c **** 
 751:Source\TransformFunctions/arm_cfft_radix4_q15.c ****     /* Co3 & si3 are read from Coefficient pointer */
 752:Source\TransformFunctions/arm_cfft_radix4_q15.c ****     Co3 = pCoef16[3u * (ic * 2u)];
 2841              		.loc 1 752 0
 2842 126e AA23     		mov	r3, #170
 2843 1270 9B00     		lsl	r3, r3, #2
 2844 1272 FB18     		add	r3, r7, r3
 2845 1274 1A68     		ldr	r2, [r3]
 2846 1276 131C     		mov	r3, r2
 2847 1278 5B00     		lsl	r3, r3, #1
 2848 127a 9B18     		add	r3, r3, r2
 2849 127c 9B00     		lsl	r3, r3, #2
 2850 127e 1A1C     		mov	r2, r3
 2851 1280 7B68     		ldr	r3, [r7, #4]
 2852 1282 9A18     		add	r2, r3, r2
 2853 1284 8A4B     		ldr	r3, .L235+12
 2854 1286 FB18     		add	r3, r7, r3
 2855 1288 1288     		ldrh	r2, [r2]
 2856 128a 1A80     		strh	r2, [r3]
 753:Source\TransformFunctions/arm_cfft_radix4_q15.c ****     Si3 = pCoef16[(3u * (ic * 2u)) + 1];
 2857              		.loc 1 753 0
 2858 128c AA23     		mov	r3, #170
 2859 128e 9B00     		lsl	r3, r3, #2
 2860 1290 FB18     		add	r3, r7, r3
 2861 1292 1A68     		ldr	r2, [r3]
 2862 1294 131C     		mov	r3, r2
 2863 1296 5B00     		lsl	r3, r3, #1
 2864 1298 9B18     		add	r3, r3, r2
 2865 129a 9B00     		lsl	r3, r3, #2
 2866 129c 0233     		add	r3, r3, #2
 2867 129e 7A68     		ldr	r2, [r7, #4]
 2868 12a0 D218     		add	r2, r2, r3
 2869 12a2 9B23     		mov	r3, #155
ARM GAS  C:\Users\fneves\AppData\Local\Temp\cc0ayw4Y.s 			page 80


 2870 12a4 9B00     		lsl	r3, r3, #2
 2871 12a6 FB18     		add	r3, r7, r3
 2872 12a8 1288     		ldrh	r2, [r2]
 2873 12aa 1A80     		strh	r2, [r3]
 754:Source\TransformFunctions/arm_cfft_radix4_q15.c ****     /*  Butterfly process for the i0+3fftLen/4 sample */
 755:Source\TransformFunctions/arm_cfft_radix4_q15.c ****     /* xd' = (xa-yb-xc+yd)* Co3 + (ya+xb-yc-xd)* (si3) */
 756:Source\TransformFunctions/arm_cfft_radix4_q15.c ****     out1 = (q15_t) ((Si3 * R1 + Co3 * R0) >> 16u);
 2874              		.loc 1 756 0
 2875 12ac 9B23     		mov	r3, #155
 2876 12ae 9B00     		lsl	r3, r3, #2
 2877 12b0 FB18     		add	r3, r7, r3
 2878 12b2 0022     		mov	r2, #0
 2879 12b4 9B5E     		ldrsh	r3, [r3, r2]
 2880 12b6 A022     		mov	r2, #160
 2881 12b8 9200     		lsl	r2, r2, #2
 2882 12ba BA18     		add	r2, r7, r2
 2883 12bc 0021     		mov	r1, #0
 2884 12be 525E     		ldrsh	r2, [r2, r1]
 2885 12c0 5A43     		mul	r2, r3
 2886 12c2 7B4B     		ldr	r3, .L235+12
 2887 12c4 FB18     		add	r3, r7, r3
 2888 12c6 0021     		mov	r1, #0
 2889 12c8 5B5E     		ldrsh	r3, [r3, r1]
 2890 12ca 7A49     		ldr	r1, .L235+16
 2891 12cc 7918     		add	r1, r7, r1
 2892 12ce 0020     		mov	r0, #0
 2893 12d0 095E     		ldrsh	r1, [r1, r0]
 2894 12d2 4B43     		mul	r3, r1
 2895 12d4 D318     		add	r3, r2, r3
 2896 12d6 1A14     		asr	r2, r3, #16
 2897 12d8 744B     		ldr	r3, .L235+8
 2898 12da FB18     		add	r3, r7, r3
 2899 12dc 1A80     		strh	r2, [r3]
 757:Source\TransformFunctions/arm_cfft_radix4_q15.c ****     /* yd' = (ya+xb-yc-xd)* Co3 - (xa-yb-xc+yd)* (si3) */
 758:Source\TransformFunctions/arm_cfft_radix4_q15.c ****     out2 = (q15_t) ((-Si3 * R0 + Co3 * R1) >> 16u);
 2900              		.loc 1 758 0
 2901 12de 9B23     		mov	r3, #155
 2902 12e0 9B00     		lsl	r3, r3, #2
 2903 12e2 FB18     		add	r3, r7, r3
 2904 12e4 0022     		mov	r2, #0
 2905 12e6 9B5E     		ldrsh	r3, [r3, r2]
 2906 12e8 5B42     		neg	r3, r3
 2907 12ea 724A     		ldr	r2, .L235+16
 2908 12ec BA18     		add	r2, r7, r2
 2909 12ee 0021     		mov	r1, #0
 2910 12f0 525E     		ldrsh	r2, [r2, r1]
 2911 12f2 5A43     		mul	r2, r3
 2912 12f4 6E4B     		ldr	r3, .L235+12
 2913 12f6 FB18     		add	r3, r7, r3
 2914 12f8 0021     		mov	r1, #0
 2915 12fa 5B5E     		ldrsh	r3, [r3, r1]
 2916 12fc A021     		mov	r1, #160
 2917 12fe 8900     		lsl	r1, r1, #2
 2918 1300 7918     		add	r1, r7, r1
 2919 1302 0020     		mov	r0, #0
 2920 1304 095E     		ldrsh	r1, [r1, r0]
 2921 1306 4B43     		mul	r3, r1
ARM GAS  C:\Users\fneves\AppData\Local\Temp\cc0ayw4Y.s 			page 81


 2922 1308 D318     		add	r3, r2, r3
 2923 130a 1A14     		asr	r2, r3, #16
 2924 130c 9D23     		mov	r3, #157
 2925 130e 9B00     		lsl	r3, r3, #2
 2926 1310 FB18     		add	r3, r7, r3
 2927 1312 1A80     		strh	r2, [r3]
 759:Source\TransformFunctions/arm_cfft_radix4_q15.c ****     /* writing output(xd', yd') in little endian format */
 760:Source\TransformFunctions/arm_cfft_radix4_q15.c ****     pSrc16[i3 * 2u] = out1;
 2928              		.loc 1 760 0
 2929 1314 A323     		mov	r3, #163
 2930 1316 9B00     		lsl	r3, r3, #2
 2931 1318 FB18     		add	r3, r7, r3
 2932 131a 1B68     		ldr	r3, [r3]
 2933 131c 9B00     		lsl	r3, r3, #2
 2934 131e FA68     		ldr	r2, [r7, #12]
 2935 1320 D318     		add	r3, r2, r3
 2936 1322 624A     		ldr	r2, .L235+8
 2937 1324 BA18     		add	r2, r7, r2
 2938 1326 1288     		ldrh	r2, [r2]
 2939 1328 1A80     		strh	r2, [r3]
 761:Source\TransformFunctions/arm_cfft_radix4_q15.c ****     pSrc16[(i3 * 2u) + 1] = out2;
 2940              		.loc 1 761 0
 2941 132a A323     		mov	r3, #163
 2942 132c 9B00     		lsl	r3, r3, #2
 2943 132e FB18     		add	r3, r7, r3
 2944 1330 1B68     		ldr	r3, [r3]
 2945 1332 9B00     		lsl	r3, r3, #2
 2946 1334 0233     		add	r3, r3, #2
 2947 1336 FA68     		ldr	r2, [r7, #12]
 2948 1338 D318     		add	r3, r2, r3
 2949 133a 9D22     		mov	r2, #157
 2950 133c 9200     		lsl	r2, r2, #2
 2951 133e BA18     		add	r2, r7, r2
 2952 1340 1288     		ldrh	r2, [r2]
 2953 1342 1A80     		strh	r2, [r3]
 762:Source\TransformFunctions/arm_cfft_radix4_q15.c **** 
 763:Source\TransformFunctions/arm_cfft_radix4_q15.c ****     /*  Twiddle coefficients index modifier */
 764:Source\TransformFunctions/arm_cfft_radix4_q15.c ****     ic = ic + twidCoefModifier;
 2954              		.loc 1 764 0
 2955 1344 AA23     		mov	r3, #170
 2956 1346 9B00     		lsl	r3, r3, #2
 2957 1348 FB18     		add	r3, r7, r3
 2958 134a 1A68     		ldr	r2, [r3]
 2959 134c 3B68     		ldr	r3, [r7]
 2960 134e D318     		add	r3, r2, r3
 2961 1350 AA22     		mov	r2, #170
 2962 1352 9200     		lsl	r2, r2, #2
 2963 1354 BA18     		add	r2, r7, r2
 2964 1356 1360     		str	r3, [r2]
 765:Source\TransformFunctions/arm_cfft_radix4_q15.c **** 
 766:Source\TransformFunctions/arm_cfft_radix4_q15.c ****     /*  Updating input index */
 767:Source\TransformFunctions/arm_cfft_radix4_q15.c ****     i0 = i0 + 1u;
 2965              		.loc 1 767 0
 2966 1358 A923     		mov	r3, #169
 2967 135a 9B00     		lsl	r3, r3, #2
 2968 135c FB18     		add	r3, r7, r3
 2969 135e 1B68     		ldr	r3, [r3]
ARM GAS  C:\Users\fneves\AppData\Local\Temp\cc0ayw4Y.s 			page 82


 2970 1360 0133     		add	r3, r3, #1
 2971 1362 A922     		mov	r2, #169
 2972 1364 9200     		lsl	r2, r2, #2
 2973 1366 BA18     		add	r2, r7, r2
 2974 1368 1360     		str	r3, [r2]
 768:Source\TransformFunctions/arm_cfft_radix4_q15.c **** 
 769:Source\TransformFunctions/arm_cfft_radix4_q15.c ****   } while (--j);
 2975              		.loc 1 769 0
 2976 136a A823     		mov	r3, #168
 2977 136c 9B00     		lsl	r3, r3, #2
 2978 136e FB18     		add	r3, r7, r3
 2979 1370 1B68     		ldr	r3, [r3]
 2980 1372 013B     		sub	r3, r3, #1
 2981 1374 A822     		mov	r2, #168
 2982 1376 9200     		lsl	r2, r2, #2
 2983 1378 BA18     		add	r2, r7, r2
 2984 137a 1360     		str	r3, [r2]
 2985 137c A823     		mov	r3, #168
 2986 137e 9B00     		lsl	r3, r3, #2
 2987 1380 FB18     		add	r3, r7, r3
 2988 1382 1B68     		ldr	r3, [r3]
 2989 1384 002B     		cmp	r3, #0
 2990 1386 01D0     		beq	.LCB2773
 2991 1388 FEF76AFE 		bl	.L90	@far jump
 2992              	.LCB2773:
 770:Source\TransformFunctions/arm_cfft_radix4_q15.c ****   /* data is in 4.11(q11) format */
 771:Source\TransformFunctions/arm_cfft_radix4_q15.c **** 
 772:Source\TransformFunctions/arm_cfft_radix4_q15.c ****   /* end of first stage process */
 773:Source\TransformFunctions/arm_cfft_radix4_q15.c **** 
 774:Source\TransformFunctions/arm_cfft_radix4_q15.c **** 
 775:Source\TransformFunctions/arm_cfft_radix4_q15.c ****   /* start of middle stage process */
 776:Source\TransformFunctions/arm_cfft_radix4_q15.c **** 
 777:Source\TransformFunctions/arm_cfft_radix4_q15.c ****   /*  Twiddle coefficients index modifier */
 778:Source\TransformFunctions/arm_cfft_radix4_q15.c ****   twidCoefModifier <<= 2u;
 2993              		.loc 1 778 0
 2994 138c 3B68     		ldr	r3, [r7]
 2995 138e 9B00     		lsl	r3, r3, #2
 2996 1390 3B60     		str	r3, [r7]
 779:Source\TransformFunctions/arm_cfft_radix4_q15.c **** 
 780:Source\TransformFunctions/arm_cfft_radix4_q15.c ****   /*  Calculation of Middle stage */
 781:Source\TransformFunctions/arm_cfft_radix4_q15.c ****   for (k = fftLen / 4u; k > 4u; k >>= 2u)
 2997              		.loc 1 781 0
 2998 1392 BB68     		ldr	r3, [r7, #8]
 2999 1394 9B08     		lsr	r3, r3, #2
 3000 1396 A722     		mov	r2, #167
 3001 1398 9200     		lsl	r2, r2, #2
 3002 139a BA18     		add	r2, r7, r2
 3003 139c 1360     		str	r3, [r2]
 3004 139e 00F0DBFE 		bl	.L91	@ far jump
 3005              	.L144:
 782:Source\TransformFunctions/arm_cfft_radix4_q15.c ****   {
 783:Source\TransformFunctions/arm_cfft_radix4_q15.c ****     /*  Initializations for the middle stage */
 784:Source\TransformFunctions/arm_cfft_radix4_q15.c ****     n1 = n2;
 3006              		.loc 1 784 0
 3007 13a2 AB23     		mov	r3, #171
 3008 13a4 9B00     		lsl	r3, r3, #2
 3009 13a6 FB18     		add	r3, r7, r3
ARM GAS  C:\Users\fneves\AppData\Local\Temp\cc0ayw4Y.s 			page 83


 3010 13a8 1B68     		ldr	r3, [r3]
 3011 13aa A622     		mov	r2, #166
 3012 13ac 9200     		lsl	r2, r2, #2
 3013 13ae BA18     		add	r2, r7, r2
 3014 13b0 1360     		str	r3, [r2]
 785:Source\TransformFunctions/arm_cfft_radix4_q15.c ****     n2 >>= 2u;
 3015              		.loc 1 785 0
 3016 13b2 AB23     		mov	r3, #171
 3017 13b4 9B00     		lsl	r3, r3, #2
 3018 13b6 FB18     		add	r3, r7, r3
 3019 13b8 1B68     		ldr	r3, [r3]
 3020 13ba 9B08     		lsr	r3, r3, #2
 3021 13bc AB22     		mov	r2, #171
 3022 13be 9200     		lsl	r2, r2, #2
 3023 13c0 BA18     		add	r2, r7, r2
 3024 13c2 1360     		str	r3, [r2]
 786:Source\TransformFunctions/arm_cfft_radix4_q15.c ****     ic = 0u;
 3025              		.loc 1 786 0
 3026 13c4 0023     		mov	r3, #0
 3027 13c6 AA22     		mov	r2, #170
 3028 13c8 9200     		lsl	r2, r2, #2
 3029 13ca BA18     		add	r2, r7, r2
 3030 13cc 1360     		str	r3, [r2]
 787:Source\TransformFunctions/arm_cfft_radix4_q15.c **** 
 788:Source\TransformFunctions/arm_cfft_radix4_q15.c ****     for (j = 0u; j <= (n2 - 1u); j++)
 3031              		.loc 1 788 0
 3032 13ce 0023     		mov	r3, #0
 3033 13d0 A822     		mov	r2, #168
 3034 13d2 9200     		lsl	r2, r2, #2
 3035 13d4 BA18     		add	r2, r7, r2
 3036 13d6 1360     		str	r3, [r2]
 3037 13d8 00F0A5FE 		bl	.L92	@ far jump
 3038              	.L143:
 789:Source\TransformFunctions/arm_cfft_radix4_q15.c ****     {
 790:Source\TransformFunctions/arm_cfft_radix4_q15.c ****       /*  index calculation for the coefficients */
 791:Source\TransformFunctions/arm_cfft_radix4_q15.c ****       Co1 = pCoef16[ic * 2u];
 3039              		.loc 1 791 0
 3040 13dc AA23     		mov	r3, #170
 3041 13de 9B00     		lsl	r3, r3, #2
 3042 13e0 FB18     		add	r3, r7, r3
 3043 13e2 1B68     		ldr	r3, [r3]
 3044 13e4 9B00     		lsl	r3, r3, #2
 3045 13e6 7A68     		ldr	r2, [r7, #4]
 3046 13e8 D218     		add	r2, r2, r3
 3047 13ea 2E4B     		ldr	r3, .L235
 3048 13ec FB18     		add	r3, r7, r3
 3049 13ee 1288     		ldrh	r2, [r2]
 3050 13f0 1A80     		strh	r2, [r3]
 792:Source\TransformFunctions/arm_cfft_radix4_q15.c ****       Si1 = pCoef16[(ic * 2u) + 1u];
 3051              		.loc 1 792 0
 3052 13f2 AA23     		mov	r3, #170
 3053 13f4 9B00     		lsl	r3, r3, #2
 3054 13f6 FB18     		add	r3, r7, r3
 3055 13f8 1B68     		ldr	r3, [r3]
 3056 13fa 9B00     		lsl	r3, r3, #2
 3057 13fc 0233     		add	r3, r3, #2
 3058 13fe 7A68     		ldr	r2, [r7, #4]
ARM GAS  C:\Users\fneves\AppData\Local\Temp\cc0ayw4Y.s 			page 84


 3059 1400 D218     		add	r2, r2, r3
 3060 1402 9C23     		mov	r3, #156
 3061 1404 9B00     		lsl	r3, r3, #2
 3062 1406 FB18     		add	r3, r7, r3
 3063 1408 1288     		ldrh	r2, [r2]
 3064 140a 1A80     		strh	r2, [r3]
 793:Source\TransformFunctions/arm_cfft_radix4_q15.c ****       Co2 = pCoef16[2u * (ic * 2u)];
 3065              		.loc 1 793 0
 3066 140c AA23     		mov	r3, #170
 3067 140e 9B00     		lsl	r3, r3, #2
 3068 1410 FB18     		add	r3, r7, r3
 3069 1412 1B68     		ldr	r3, [r3]
 3070 1414 DB00     		lsl	r3, r3, #3
 3071 1416 7A68     		ldr	r2, [r7, #4]
 3072 1418 D218     		add	r2, r2, r3
 3073 141a 274B     		ldr	r3, .L235+20
 3074 141c FB18     		add	r3, r7, r3
 3075 141e 1288     		ldrh	r2, [r2]
 3076 1420 1A80     		strh	r2, [r3]
 794:Source\TransformFunctions/arm_cfft_radix4_q15.c ****       Si2 = pCoef16[(2u * (ic * 2u)) + 1u];
 3077              		.loc 1 794 0
 3078 1422 AA23     		mov	r3, #170
 3079 1424 9B00     		lsl	r3, r3, #2
 3080 1426 FB18     		add	r3, r7, r3
 3081 1428 1B68     		ldr	r3, [r3]
 3082 142a DB00     		lsl	r3, r3, #3
 3083 142c 0233     		add	r3, r3, #2
 3084 142e 7A68     		ldr	r2, [r7, #4]
 3085 1430 D218     		add	r2, r2, r3
 3086 1432 9E23     		mov	r3, #158
 3087 1434 9B00     		lsl	r3, r3, #2
 3088 1436 FB18     		add	r3, r7, r3
 3089 1438 1288     		ldrh	r2, [r2]
 3090 143a 1A80     		strh	r2, [r3]
 795:Source\TransformFunctions/arm_cfft_radix4_q15.c ****       Co3 = pCoef16[3u * (ic * 2u)];
 3091              		.loc 1 795 0
 3092 143c AA23     		mov	r3, #170
 3093 143e 9B00     		lsl	r3, r3, #2
 3094 1440 FB18     		add	r3, r7, r3
 3095 1442 1A68     		ldr	r2, [r3]
 3096 1444 131C     		mov	r3, r2
 3097 1446 5B00     		lsl	r3, r3, #1
 3098 1448 9B18     		add	r3, r3, r2
 3099 144a 9B00     		lsl	r3, r3, #2
 3100 144c 1A1C     		mov	r2, r3
 3101 144e 7B68     		ldr	r3, [r7, #4]
 3102 1450 9A18     		add	r2, r3, r2
 3103 1452 174B     		ldr	r3, .L235+12
 3104 1454 FB18     		add	r3, r7, r3
 3105 1456 1288     		ldrh	r2, [r2]
 3106 1458 1A80     		strh	r2, [r3]
 796:Source\TransformFunctions/arm_cfft_radix4_q15.c ****       Si3 = pCoef16[(3u * (ic * 2u)) + 1u];
 3107              		.loc 1 796 0
 3108 145a AA23     		mov	r3, #170
 3109 145c 9B00     		lsl	r3, r3, #2
 3110 145e FB18     		add	r3, r7, r3
 3111 1460 1A68     		ldr	r2, [r3]
ARM GAS  C:\Users\fneves\AppData\Local\Temp\cc0ayw4Y.s 			page 85


 3112 1462 131C     		mov	r3, r2
 3113 1464 5B00     		lsl	r3, r3, #1
 3114 1466 9B18     		add	r3, r3, r2
 3115 1468 9B00     		lsl	r3, r3, #2
 3116 146a 0233     		add	r3, r3, #2
 3117 146c 7A68     		ldr	r2, [r7, #4]
 3118 146e D218     		add	r2, r2, r3
 3119 1470 9B23     		mov	r3, #155
 3120 1472 9B00     		lsl	r3, r3, #2
 3121 1474 FB18     		add	r3, r7, r3
 3122 1476 1288     		ldrh	r2, [r2]
 3123 1478 1A80     		strh	r2, [r3]
 797:Source\TransformFunctions/arm_cfft_radix4_q15.c **** 
 798:Source\TransformFunctions/arm_cfft_radix4_q15.c ****       /*  Twiddle coefficients index modifier */
 799:Source\TransformFunctions/arm_cfft_radix4_q15.c ****       ic = ic + twidCoefModifier;
 3124              		.loc 1 799 0
 3125 147a AA23     		mov	r3, #170
 3126 147c 9B00     		lsl	r3, r3, #2
 3127 147e FB18     		add	r3, r7, r3
 3128 1480 1A68     		ldr	r2, [r3]
 3129 1482 3B68     		ldr	r3, [r7]
 3130 1484 D318     		add	r3, r2, r3
 3131 1486 AA22     		mov	r2, #170
 3132 1488 9200     		lsl	r2, r2, #2
 3133 148a BA18     		add	r2, r7, r2
 3134 148c 1360     		str	r3, [r2]
 800:Source\TransformFunctions/arm_cfft_radix4_q15.c **** 
 801:Source\TransformFunctions/arm_cfft_radix4_q15.c ****       /*  Butterfly implementation */
 802:Source\TransformFunctions/arm_cfft_radix4_q15.c ****       for (i0 = j; i0 < fftLen; i0 += n1)
 3135              		.loc 1 802 0
 3136 148e A823     		mov	r3, #168
 3137 1490 9B00     		lsl	r3, r3, #2
 3138 1492 FB18     		add	r3, r7, r3
 3139 1494 1B68     		ldr	r3, [r3]
 3140 1496 A922     		mov	r2, #169
 3141 1498 9200     		lsl	r2, r2, #2
 3142 149a BA18     		add	r2, r7, r2
 3143 149c 1360     		str	r3, [r2]
 3144 149e 00F030FE 		bl	.L93	@ far jump
 3145              	.L236:
 3146 14a2 C046     		.align	2
 3147              	.L235:
 3148 14a4 72020000 		.word	626
 3149 14a8 86020000 		.word	646
 3150 14ac 76020000 		.word	630
 3151 14b0 6E020000 		.word	622
 3152 14b4 82020000 		.word	642
 3153 14b8 7A020000 		.word	634
 3154              	.L142:
 803:Source\TransformFunctions/arm_cfft_radix4_q15.c ****       {
 804:Source\TransformFunctions/arm_cfft_radix4_q15.c ****         /*  index calculation for the input as, */
 805:Source\TransformFunctions/arm_cfft_radix4_q15.c ****         /*  pSrc16[i0 + 0], pSrc16[i0 + fftLen/4], pSrc16[i0 + fftLen/2], pSrc16[i0 + 3fftLen/4] */
 806:Source\TransformFunctions/arm_cfft_radix4_q15.c ****         i1 = i0 + n2;
 3155              		.loc 1 806 0 discriminator 3
 3156 14bc A923     		mov	r3, #169
 3157 14be 9B00     		lsl	r3, r3, #2
 3158 14c0 FB18     		add	r3, r7, r3
ARM GAS  C:\Users\fneves\AppData\Local\Temp\cc0ayw4Y.s 			page 86


 3159 14c2 1A68     		ldr	r2, [r3]
 3160 14c4 AB23     		mov	r3, #171
 3161 14c6 9B00     		lsl	r3, r3, #2
 3162 14c8 FB18     		add	r3, r7, r3
 3163 14ca 1B68     		ldr	r3, [r3]
 3164 14cc D318     		add	r3, r2, r3
 3165 14ce A522     		mov	r2, #165
 3166 14d0 9200     		lsl	r2, r2, #2
 3167 14d2 BA18     		add	r2, r7, r2
 3168 14d4 1360     		str	r3, [r2]
 807:Source\TransformFunctions/arm_cfft_radix4_q15.c ****         i2 = i1 + n2;
 3169              		.loc 1 807 0 discriminator 3
 3170 14d6 A523     		mov	r3, #165
 3171 14d8 9B00     		lsl	r3, r3, #2
 3172 14da FB18     		add	r3, r7, r3
 3173 14dc 1A68     		ldr	r2, [r3]
 3174 14de AB23     		mov	r3, #171
 3175 14e0 9B00     		lsl	r3, r3, #2
 3176 14e2 FB18     		add	r3, r7, r3
 3177 14e4 1B68     		ldr	r3, [r3]
 3178 14e6 D318     		add	r3, r2, r3
 3179 14e8 A422     		mov	r2, #164
 3180 14ea 9200     		lsl	r2, r2, #2
 3181 14ec BA18     		add	r2, r7, r2
 3182 14ee 1360     		str	r3, [r2]
 808:Source\TransformFunctions/arm_cfft_radix4_q15.c ****         i3 = i2 + n2;
 3183              		.loc 1 808 0 discriminator 3
 3184 14f0 A423     		mov	r3, #164
 3185 14f2 9B00     		lsl	r3, r3, #2
 3186 14f4 FB18     		add	r3, r7, r3
 3187 14f6 1A68     		ldr	r2, [r3]
 3188 14f8 AB23     		mov	r3, #171
 3189 14fa 9B00     		lsl	r3, r3, #2
 3190 14fc FB18     		add	r3, r7, r3
 3191 14fe 1B68     		ldr	r3, [r3]
 3192 1500 D318     		add	r3, r2, r3
 3193 1502 A322     		mov	r2, #163
 3194 1504 9200     		lsl	r2, r2, #2
 3195 1506 BA18     		add	r2, r7, r2
 3196 1508 1360     		str	r3, [r2]
 809:Source\TransformFunctions/arm_cfft_radix4_q15.c **** 
 810:Source\TransformFunctions/arm_cfft_radix4_q15.c ****         /*  Reading i0, i0+fftLen/2 inputs */
 811:Source\TransformFunctions/arm_cfft_radix4_q15.c ****         /* Read ya (real), xa(imag) input */
 812:Source\TransformFunctions/arm_cfft_radix4_q15.c ****         T0 = pSrc16[i0 * 2u];
 3197              		.loc 1 812 0 discriminator 3
 3198 150a A923     		mov	r3, #169
 3199 150c 9B00     		lsl	r3, r3, #2
 3200 150e FB18     		add	r3, r7, r3
 3201 1510 1B68     		ldr	r3, [r3]
 3202 1512 9B00     		lsl	r3, r3, #2
 3203 1514 FA68     		ldr	r2, [r7, #12]
 3204 1516 D218     		add	r2, r2, r3
 3205 1518 E54B     		ldr	r3, .L237
 3206 151a FB18     		add	r3, r7, r3
 3207 151c 1288     		ldrh	r2, [r2]
 3208 151e 1A80     		strh	r2, [r3]
 813:Source\TransformFunctions/arm_cfft_radix4_q15.c ****         T1 = pSrc16[(i0 * 2u) + 1u];
ARM GAS  C:\Users\fneves\AppData\Local\Temp\cc0ayw4Y.s 			page 87


 3209              		.loc 1 813 0 discriminator 3
 3210 1520 A923     		mov	r3, #169
 3211 1522 9B00     		lsl	r3, r3, #2
 3212 1524 FB18     		add	r3, r7, r3
 3213 1526 1B68     		ldr	r3, [r3]
 3214 1528 9B00     		lsl	r3, r3, #2
 3215 152a 0233     		add	r3, r3, #2
 3216 152c FA68     		ldr	r2, [r7, #12]
 3217 152e D218     		add	r2, r2, r3
 3218 1530 A223     		mov	r3, #162
 3219 1532 9B00     		lsl	r3, r3, #2
 3220 1534 FB18     		add	r3, r7, r3
 3221 1536 1288     		ldrh	r2, [r2]
 3222 1538 1A80     		strh	r2, [r3]
 814:Source\TransformFunctions/arm_cfft_radix4_q15.c **** 
 815:Source\TransformFunctions/arm_cfft_radix4_q15.c ****         /* Read yc (real), xc(imag) input */
 816:Source\TransformFunctions/arm_cfft_radix4_q15.c ****         S0 = pSrc16[i2 * 2u];
 3223              		.loc 1 816 0 discriminator 3
 3224 153a A423     		mov	r3, #164
 3225 153c 9B00     		lsl	r3, r3, #2
 3226 153e FB18     		add	r3, r7, r3
 3227 1540 1B68     		ldr	r3, [r3]
 3228 1542 9B00     		lsl	r3, r3, #2
 3229 1544 FA68     		ldr	r2, [r7, #12]
 3230 1546 D218     		add	r2, r2, r3
 3231 1548 DA4B     		ldr	r3, .L237+4
 3232 154a FB18     		add	r3, r7, r3
 3233 154c 1288     		ldrh	r2, [r2]
 3234 154e 1A80     		strh	r2, [r3]
 817:Source\TransformFunctions/arm_cfft_radix4_q15.c ****         S1 = pSrc16[(i2 * 2u) + 1u];
 3235              		.loc 1 817 0 discriminator 3
 3236 1550 A423     		mov	r3, #164
 3237 1552 9B00     		lsl	r3, r3, #2
 3238 1554 FB18     		add	r3, r7, r3
 3239 1556 1B68     		ldr	r3, [r3]
 3240 1558 9B00     		lsl	r3, r3, #2
 3241 155a 0233     		add	r3, r3, #2
 3242 155c FA68     		ldr	r2, [r7, #12]
 3243 155e D218     		add	r2, r2, r3
 3244 1560 A123     		mov	r3, #161
 3245 1562 9B00     		lsl	r3, r3, #2
 3246 1564 FB18     		add	r3, r7, r3
 3247 1566 1288     		ldrh	r2, [r2]
 3248 1568 1A80     		strh	r2, [r3]
 818:Source\TransformFunctions/arm_cfft_radix4_q15.c **** 
 819:Source\TransformFunctions/arm_cfft_radix4_q15.c ****         /* R0 = (ya + yc), R1 = (xa + xc) */
 820:Source\TransformFunctions/arm_cfft_radix4_q15.c ****         R0 = __SSAT(T0 + S0, 16);
 3249              		.loc 1 820 0 discriminator 3
 3250 156a D14B     		ldr	r3, .L237
 3251 156c FB18     		add	r3, r7, r3
 3252 156e 0022     		mov	r2, #0
 3253 1570 9A5E     		ldrsh	r2, [r3, r2]
 3254 1572 D04B     		ldr	r3, .L237+4
 3255 1574 FB18     		add	r3, r7, r3
 3256 1576 0021     		mov	r1, #0
 3257 1578 5B5E     		ldrsh	r3, [r3, r1]
 3258 157a D318     		add	r3, r2, r3
ARM GAS  C:\Users\fneves\AppData\Local\Temp\cc0ayw4Y.s 			page 88


 3259 157c A822     		mov	r2, #168
 3260 157e 5200     		lsl	r2, r2, #1
 3261 1580 BA18     		add	r2, r7, r2
 3262 1582 1360     		str	r3, [r2]
 3263 1584 1023     		mov	r3, #16
 3264 1586 A622     		mov	r2, #166
 3265 1588 5200     		lsl	r2, r2, #1
 3266 158a BA18     		add	r2, r7, r2
 3267 158c 1360     		str	r3, [r2]
 3268              	.LBB150:
 3269              	.LBB151:
 699:.\Include/arm_math.h ****     for (i = 0; i < (y - 1); i++)
 3270              		.loc 2 699 0 discriminator 3
 3271 158e 0123     		mov	r3, #1
 3272 1590 A422     		mov	r2, #164
 3273 1592 5200     		lsl	r2, r2, #1
 3274 1594 BA18     		add	r2, r7, r2
 3275 1596 1360     		str	r3, [r2]
 700:.\Include/arm_math.h ****     {
 3276              		.loc 2 700 0 discriminator 3
 3277 1598 0023     		mov	r3, #0
 3278 159a A222     		mov	r2, #162
 3279 159c 5200     		lsl	r2, r2, #1
 3280 159e BA18     		add	r2, r7, r2
 3281 15a0 1360     		str	r3, [r2]
 3282 15a2 11E0     		b	.L94
 3283              	.L95:
 702:.\Include/arm_math.h ****     }
 3284              		.loc 2 702 0
 3285 15a4 A423     		mov	r3, #164
 3286 15a6 5B00     		lsl	r3, r3, #1
 3287 15a8 FB18     		add	r3, r7, r3
 3288 15aa 1B68     		ldr	r3, [r3]
 3289 15ac 5B00     		lsl	r3, r3, #1
 3290 15ae A422     		mov	r2, #164
 3291 15b0 5200     		lsl	r2, r2, #1
 3292 15b2 BA18     		add	r2, r7, r2
 3293 15b4 1360     		str	r3, [r2]
 700:.\Include/arm_math.h ****     {
 3294              		.loc 2 700 0
 3295 15b6 A223     		mov	r3, #162
 3296 15b8 5B00     		lsl	r3, r3, #1
 3297 15ba FB18     		add	r3, r7, r3
 3298 15bc 1B68     		ldr	r3, [r3]
 3299 15be 0133     		add	r3, r3, #1
 3300 15c0 A222     		mov	r2, #162
 3301 15c2 5200     		lsl	r2, r2, #1
 3302 15c4 BA18     		add	r2, r7, r2
 3303 15c6 1360     		str	r3, [r2]
 3304              	.L94:
 3305 15c8 A623     		mov	r3, #166
 3306 15ca 5B00     		lsl	r3, r3, #1
 3307 15cc FB18     		add	r3, r7, r3
 3308 15ce 1B68     		ldr	r3, [r3]
 3309 15d0 013B     		sub	r3, r3, #1
 3310 15d2 A222     		mov	r2, #162
 3311 15d4 5200     		lsl	r2, r2, #1
ARM GAS  C:\Users\fneves\AppData\Local\Temp\cc0ayw4Y.s 			page 89


 3312 15d6 BA18     		add	r2, r7, r2
 3313 15d8 1268     		ldr	r2, [r2]
 3314 15da 9A42     		cmp	r2, r3
 3315 15dc E2D3     		bcc	.L95
 705:.\Include/arm_math.h ****     {
 3316              		.loc 2 705 0
 3317 15de A823     		mov	r3, #168
 3318 15e0 5B00     		lsl	r3, r3, #1
 3319 15e2 FB18     		add	r3, r7, r3
 3320 15e4 1B68     		ldr	r3, [r3]
 3321 15e6 002B     		cmp	r3, #0
 3322 15e8 1BDD     		ble	.L96
 707:.\Include/arm_math.h **** 
 3323              		.loc 2 707 0
 3324 15ea A423     		mov	r3, #164
 3325 15ec 5B00     		lsl	r3, r3, #1
 3326 15ee FB18     		add	r3, r7, r3
 3327 15f0 1B68     		ldr	r3, [r3]
 3328 15f2 013B     		sub	r3, r3, #1
 3329 15f4 A422     		mov	r2, #164
 3330 15f6 5200     		lsl	r2, r2, #1
 3331 15f8 BA18     		add	r2, r7, r2
 3332 15fa 1360     		str	r3, [r2]
 709:.\Include/arm_math.h ****       {
 3333              		.loc 2 709 0
 3334 15fc A823     		mov	r3, #168
 3335 15fe 5B00     		lsl	r3, r3, #1
 3336 1600 FB18     		add	r3, r7, r3
 3337 1602 1A68     		ldr	r2, [r3]
 3338 1604 A423     		mov	r3, #164
 3339 1606 5B00     		lsl	r3, r3, #1
 3340 1608 FB18     		add	r3, r7, r3
 3341 160a 1B68     		ldr	r3, [r3]
 3342 160c 9A42     		cmp	r2, r3
 3343 160e 24DD     		ble	.L209
 711:.\Include/arm_math.h ****       }
 3344              		.loc 2 711 0
 3345 1610 A423     		mov	r3, #164
 3346 1612 5B00     		lsl	r3, r3, #1
 3347 1614 FB18     		add	r3, r7, r3
 3348 1616 1B68     		ldr	r3, [r3]
 3349 1618 A822     		mov	r2, #168
 3350 161a 5200     		lsl	r2, r2, #1
 3351 161c BA18     		add	r2, r7, r2
 3352 161e 1360     		str	r3, [r2]
 3353 1620 1CE0     		b	.L98
 3354              	.L96:
 716:.\Include/arm_math.h **** 
 3355              		.loc 2 716 0
 3356 1622 A423     		mov	r3, #164
 3357 1624 5B00     		lsl	r3, r3, #1
 3358 1626 FB18     		add	r3, r7, r3
 3359 1628 1B68     		ldr	r3, [r3]
 3360 162a 5B42     		neg	r3, r3
 3361 162c A022     		mov	r2, #160
 3362 162e 5200     		lsl	r2, r2, #1
 3363 1630 BA18     		add	r2, r7, r2
ARM GAS  C:\Users\fneves\AppData\Local\Temp\cc0ayw4Y.s 			page 90


 3364 1632 1360     		str	r3, [r2]
 718:.\Include/arm_math.h ****       {
 3365              		.loc 2 718 0
 3366 1634 A823     		mov	r3, #168
 3367 1636 5B00     		lsl	r3, r3, #1
 3368 1638 FB18     		add	r3, r7, r3
 3369 163a 1A68     		ldr	r2, [r3]
 3370 163c A023     		mov	r3, #160
 3371 163e 5B00     		lsl	r3, r3, #1
 3372 1640 FB18     		add	r3, r7, r3
 3373 1642 1B68     		ldr	r3, [r3]
 3374 1644 9A42     		cmp	r2, r3
 3375 1646 09DA     		bge	.L98
 720:.\Include/arm_math.h ****       }
 3376              		.loc 2 720 0
 3377 1648 A023     		mov	r3, #160
 3378 164a 5B00     		lsl	r3, r3, #1
 3379 164c FB18     		add	r3, r7, r3
 3380 164e 1B68     		ldr	r3, [r3]
 3381 1650 A822     		mov	r2, #168
 3382 1652 5200     		lsl	r2, r2, #1
 3383 1654 BA18     		add	r2, r7, r2
 3384 1656 1360     		str	r3, [r2]
 3385 1658 00E0     		b	.L98
 3386              	.L209:
 711:.\Include/arm_math.h ****       }
 3387              		.loc 2 711 0
 3388 165a C046     		mov	r8, r8
 3389              	.L98:
 3390              		.loc 2 723 0
 3391 165c A823     		mov	r3, #168
 3392 165e 5B00     		lsl	r3, r3, #1
 3393 1660 FB18     		add	r3, r7, r3
 3394 1662 1A68     		ldr	r2, [r3]
 3395              	.LBE151:
 3396              	.LBE150:
 3397              		.loc 1 820 0
 3398 1664 944B     		ldr	r3, .L237+8
 3399 1666 FB18     		add	r3, r7, r3
 3400 1668 1A80     		strh	r2, [r3]
 821:Source\TransformFunctions/arm_cfft_radix4_q15.c ****         R1 = __SSAT(T1 + S1, 16);
 3401              		.loc 1 821 0
 3402 166a A223     		mov	r3, #162
 3403 166c 9B00     		lsl	r3, r3, #2
 3404 166e FB18     		add	r3, r7, r3
 3405 1670 0022     		mov	r2, #0
 3406 1672 9A5E     		ldrsh	r2, [r3, r2]
 3407 1674 A123     		mov	r3, #161
 3408 1676 9B00     		lsl	r3, r3, #2
 3409 1678 FB18     		add	r3, r7, r3
 3410 167a 0021     		mov	r1, #0
 3411 167c 5B5E     		ldrsh	r3, [r3, r1]
 3412 167e D318     		add	r3, r2, r3
 3413 1680 9E22     		mov	r2, #158
 3414 1682 5200     		lsl	r2, r2, #1
 3415 1684 BA18     		add	r2, r7, r2
 3416 1686 1360     		str	r3, [r2]
ARM GAS  C:\Users\fneves\AppData\Local\Temp\cc0ayw4Y.s 			page 91


 3417 1688 1023     		mov	r3, #16
 3418 168a 9C22     		mov	r2, #156
 3419 168c 5200     		lsl	r2, r2, #1
 3420 168e BA18     		add	r2, r7, r2
 3421 1690 1360     		str	r3, [r2]
 3422              	.LBB152:
 3423              	.LBB153:
 699:.\Include/arm_math.h ****     for (i = 0; i < (y - 1); i++)
 3424              		.loc 2 699 0
 3425 1692 0123     		mov	r3, #1
 3426 1694 9A22     		mov	r2, #154
 3427 1696 5200     		lsl	r2, r2, #1
 3428 1698 BA18     		add	r2, r7, r2
 3429 169a 1360     		str	r3, [r2]
 700:.\Include/arm_math.h ****     {
 3430              		.loc 2 700 0
 3431 169c 0023     		mov	r3, #0
 3432 169e 9822     		mov	r2, #152
 3433 16a0 5200     		lsl	r2, r2, #1
 3434 16a2 BA18     		add	r2, r7, r2
 3435 16a4 1360     		str	r3, [r2]
 3436 16a6 11E0     		b	.L100
 3437              	.L101:
 702:.\Include/arm_math.h ****     }
 3438              		.loc 2 702 0
 3439 16a8 9A23     		mov	r3, #154
 3440 16aa 5B00     		lsl	r3, r3, #1
 3441 16ac FB18     		add	r3, r7, r3
 3442 16ae 1B68     		ldr	r3, [r3]
 3443 16b0 5B00     		lsl	r3, r3, #1
 3444 16b2 9A22     		mov	r2, #154
 3445 16b4 5200     		lsl	r2, r2, #1
 3446 16b6 BA18     		add	r2, r7, r2
 3447 16b8 1360     		str	r3, [r2]
 700:.\Include/arm_math.h ****     {
 3448              		.loc 2 700 0
 3449 16ba 9823     		mov	r3, #152
 3450 16bc 5B00     		lsl	r3, r3, #1
 3451 16be FB18     		add	r3, r7, r3
 3452 16c0 1B68     		ldr	r3, [r3]
 3453 16c2 0133     		add	r3, r3, #1
 3454 16c4 9822     		mov	r2, #152
 3455 16c6 5200     		lsl	r2, r2, #1
 3456 16c8 BA18     		add	r2, r7, r2
 3457 16ca 1360     		str	r3, [r2]
 3458              	.L100:
 3459 16cc 9C23     		mov	r3, #156
 3460 16ce 5B00     		lsl	r3, r3, #1
 3461 16d0 FB18     		add	r3, r7, r3
 3462 16d2 1B68     		ldr	r3, [r3]
 3463 16d4 013B     		sub	r3, r3, #1
 3464 16d6 9822     		mov	r2, #152
 3465 16d8 5200     		lsl	r2, r2, #1
 3466 16da BA18     		add	r2, r7, r2
 3467 16dc 1268     		ldr	r2, [r2]
 3468 16de 9A42     		cmp	r2, r3
 3469 16e0 E2D3     		bcc	.L101
ARM GAS  C:\Users\fneves\AppData\Local\Temp\cc0ayw4Y.s 			page 92


 705:.\Include/arm_math.h ****     {
 3470              		.loc 2 705 0
 3471 16e2 9E23     		mov	r3, #158
 3472 16e4 5B00     		lsl	r3, r3, #1
 3473 16e6 FB18     		add	r3, r7, r3
 3474 16e8 1B68     		ldr	r3, [r3]
 3475 16ea 002B     		cmp	r3, #0
 3476 16ec 1BDD     		ble	.L102
 707:.\Include/arm_math.h **** 
 3477              		.loc 2 707 0
 3478 16ee 9A23     		mov	r3, #154
 3479 16f0 5B00     		lsl	r3, r3, #1
 3480 16f2 FB18     		add	r3, r7, r3
 3481 16f4 1B68     		ldr	r3, [r3]
 3482 16f6 013B     		sub	r3, r3, #1
 3483 16f8 9A22     		mov	r2, #154
 3484 16fa 5200     		lsl	r2, r2, #1
 3485 16fc BA18     		add	r2, r7, r2
 3486 16fe 1360     		str	r3, [r2]
 709:.\Include/arm_math.h ****       {
 3487              		.loc 2 709 0
 3488 1700 9E23     		mov	r3, #158
 3489 1702 5B00     		lsl	r3, r3, #1
 3490 1704 FB18     		add	r3, r7, r3
 3491 1706 1A68     		ldr	r2, [r3]
 3492 1708 9A23     		mov	r3, #154
 3493 170a 5B00     		lsl	r3, r3, #1
 3494 170c FB18     		add	r3, r7, r3
 3495 170e 1B68     		ldr	r3, [r3]
 3496 1710 9A42     		cmp	r2, r3
 3497 1712 24DD     		ble	.L210
 711:.\Include/arm_math.h ****       }
 3498              		.loc 2 711 0
 3499 1714 9A23     		mov	r3, #154
 3500 1716 5B00     		lsl	r3, r3, #1
 3501 1718 FB18     		add	r3, r7, r3
 3502 171a 1B68     		ldr	r3, [r3]
 3503 171c 9E22     		mov	r2, #158
 3504 171e 5200     		lsl	r2, r2, #1
 3505 1720 BA18     		add	r2, r7, r2
 3506 1722 1360     		str	r3, [r2]
 3507 1724 1CE0     		b	.L104
 3508              	.L102:
 716:.\Include/arm_math.h **** 
 3509              		.loc 2 716 0
 3510 1726 9A23     		mov	r3, #154
 3511 1728 5B00     		lsl	r3, r3, #1
 3512 172a FB18     		add	r3, r7, r3
 3513 172c 1B68     		ldr	r3, [r3]
 3514 172e 5B42     		neg	r3, r3
 3515 1730 9622     		mov	r2, #150
 3516 1732 5200     		lsl	r2, r2, #1
 3517 1734 BA18     		add	r2, r7, r2
 3518 1736 1360     		str	r3, [r2]
 718:.\Include/arm_math.h ****       {
 3519              		.loc 2 718 0
 3520 1738 9E23     		mov	r3, #158
ARM GAS  C:\Users\fneves\AppData\Local\Temp\cc0ayw4Y.s 			page 93


 3521 173a 5B00     		lsl	r3, r3, #1
 3522 173c FB18     		add	r3, r7, r3
 3523 173e 1A68     		ldr	r2, [r3]
 3524 1740 9623     		mov	r3, #150
 3525 1742 5B00     		lsl	r3, r3, #1
 3526 1744 FB18     		add	r3, r7, r3
 3527 1746 1B68     		ldr	r3, [r3]
 3528 1748 9A42     		cmp	r2, r3
 3529 174a 09DA     		bge	.L104
 720:.\Include/arm_math.h ****       }
 3530              		.loc 2 720 0
 3531 174c 9623     		mov	r3, #150
 3532 174e 5B00     		lsl	r3, r3, #1
 3533 1750 FB18     		add	r3, r7, r3
 3534 1752 1B68     		ldr	r3, [r3]
 3535 1754 9E22     		mov	r2, #158
 3536 1756 5200     		lsl	r2, r2, #1
 3537 1758 BA18     		add	r2, r7, r2
 3538 175a 1360     		str	r3, [r2]
 3539 175c 00E0     		b	.L104
 3540              	.L210:
 711:.\Include/arm_math.h ****       }
 3541              		.loc 2 711 0
 3542 175e C046     		mov	r8, r8
 3543              	.L104:
 3544              		.loc 2 723 0
 3545 1760 9E23     		mov	r3, #158
 3546 1762 5B00     		lsl	r3, r3, #1
 3547 1764 FB18     		add	r3, r7, r3
 3548 1766 1A68     		ldr	r2, [r3]
 3549              	.LBE153:
 3550              	.LBE152:
 3551              		.loc 1 821 0
 3552 1768 A023     		mov	r3, #160
 3553 176a 9B00     		lsl	r3, r3, #2
 3554 176c FB18     		add	r3, r7, r3
 3555 176e 1A80     		strh	r2, [r3]
 822:Source\TransformFunctions/arm_cfft_radix4_q15.c **** 
 823:Source\TransformFunctions/arm_cfft_radix4_q15.c ****         /* S0 = (ya - yc), S1 =(xa - xc) */
 824:Source\TransformFunctions/arm_cfft_radix4_q15.c ****         S0 = __SSAT(T0 - S0, 16);
 3556              		.loc 1 824 0
 3557 1770 4F4B     		ldr	r3, .L237
 3558 1772 FB18     		add	r3, r7, r3
 3559 1774 0022     		mov	r2, #0
 3560 1776 9A5E     		ldrsh	r2, [r3, r2]
 3561 1778 4E4B     		ldr	r3, .L237+4
 3562 177a FB18     		add	r3, r7, r3
 3563 177c 0021     		mov	r1, #0
 3564 177e 5B5E     		ldrsh	r3, [r3, r1]
 3565 1780 D31A     		sub	r3, r2, r3
 3566 1782 9422     		mov	r2, #148
 3567 1784 5200     		lsl	r2, r2, #1
 3568 1786 BA18     		add	r2, r7, r2
 3569 1788 1360     		str	r3, [r2]
 3570 178a 1023     		mov	r3, #16
 3571 178c 9222     		mov	r2, #146
 3572 178e 5200     		lsl	r2, r2, #1
ARM GAS  C:\Users\fneves\AppData\Local\Temp\cc0ayw4Y.s 			page 94


 3573 1790 BA18     		add	r2, r7, r2
 3574 1792 1360     		str	r3, [r2]
 3575              	.LBB154:
 3576              	.LBB155:
 699:.\Include/arm_math.h ****     for (i = 0; i < (y - 1); i++)
 3577              		.loc 2 699 0
 3578 1794 0123     		mov	r3, #1
 3579 1796 9022     		mov	r2, #144
 3580 1798 5200     		lsl	r2, r2, #1
 3581 179a BA18     		add	r2, r7, r2
 3582 179c 1360     		str	r3, [r2]
 700:.\Include/arm_math.h ****     {
 3583              		.loc 2 700 0
 3584 179e 0023     		mov	r3, #0
 3585 17a0 8E22     		mov	r2, #142
 3586 17a2 5200     		lsl	r2, r2, #1
 3587 17a4 BA18     		add	r2, r7, r2
 3588 17a6 1360     		str	r3, [r2]
 3589 17a8 11E0     		b	.L106
 3590              	.L107:
 702:.\Include/arm_math.h ****     }
 3591              		.loc 2 702 0
 3592 17aa 9023     		mov	r3, #144
 3593 17ac 5B00     		lsl	r3, r3, #1
 3594 17ae FB18     		add	r3, r7, r3
 3595 17b0 1B68     		ldr	r3, [r3]
 3596 17b2 5B00     		lsl	r3, r3, #1
 3597 17b4 9022     		mov	r2, #144
 3598 17b6 5200     		lsl	r2, r2, #1
 3599 17b8 BA18     		add	r2, r7, r2
 3600 17ba 1360     		str	r3, [r2]
 700:.\Include/arm_math.h ****     {
 3601              		.loc 2 700 0
 3602 17bc 8E23     		mov	r3, #142
 3603 17be 5B00     		lsl	r3, r3, #1
 3604 17c0 FB18     		add	r3, r7, r3
 3605 17c2 1B68     		ldr	r3, [r3]
 3606 17c4 0133     		add	r3, r3, #1
 3607 17c6 8E22     		mov	r2, #142
 3608 17c8 5200     		lsl	r2, r2, #1
 3609 17ca BA18     		add	r2, r7, r2
 3610 17cc 1360     		str	r3, [r2]
 3611              	.L106:
 3612 17ce 9223     		mov	r3, #146
 3613 17d0 5B00     		lsl	r3, r3, #1
 3614 17d2 FB18     		add	r3, r7, r3
 3615 17d4 1B68     		ldr	r3, [r3]
 3616 17d6 013B     		sub	r3, r3, #1
 3617 17d8 8E22     		mov	r2, #142
 3618 17da 5200     		lsl	r2, r2, #1
 3619 17dc BA18     		add	r2, r7, r2
 3620 17de 1268     		ldr	r2, [r2]
 3621 17e0 9A42     		cmp	r2, r3
 3622 17e2 E2D3     		bcc	.L107
 705:.\Include/arm_math.h ****     {
 3623              		.loc 2 705 0
 3624 17e4 9423     		mov	r3, #148
ARM GAS  C:\Users\fneves\AppData\Local\Temp\cc0ayw4Y.s 			page 95


 3625 17e6 5B00     		lsl	r3, r3, #1
 3626 17e8 FB18     		add	r3, r7, r3
 3627 17ea 1B68     		ldr	r3, [r3]
 3628 17ec 002B     		cmp	r3, #0
 3629 17ee 1BDD     		ble	.L108
 707:.\Include/arm_math.h **** 
 3630              		.loc 2 707 0
 3631 17f0 9023     		mov	r3, #144
 3632 17f2 5B00     		lsl	r3, r3, #1
 3633 17f4 FB18     		add	r3, r7, r3
 3634 17f6 1B68     		ldr	r3, [r3]
 3635 17f8 013B     		sub	r3, r3, #1
 3636 17fa 9022     		mov	r2, #144
 3637 17fc 5200     		lsl	r2, r2, #1
 3638 17fe BA18     		add	r2, r7, r2
 3639 1800 1360     		str	r3, [r2]
 709:.\Include/arm_math.h ****       {
 3640              		.loc 2 709 0
 3641 1802 9423     		mov	r3, #148
 3642 1804 5B00     		lsl	r3, r3, #1
 3643 1806 FB18     		add	r3, r7, r3
 3644 1808 1A68     		ldr	r2, [r3]
 3645 180a 9023     		mov	r3, #144
 3646 180c 5B00     		lsl	r3, r3, #1
 3647 180e FB18     		add	r3, r7, r3
 3648 1810 1B68     		ldr	r3, [r3]
 3649 1812 9A42     		cmp	r2, r3
 3650 1814 24DD     		ble	.L211
 711:.\Include/arm_math.h ****       }
 3651              		.loc 2 711 0
 3652 1816 9023     		mov	r3, #144
 3653 1818 5B00     		lsl	r3, r3, #1
 3654 181a FB18     		add	r3, r7, r3
 3655 181c 1B68     		ldr	r3, [r3]
 3656 181e 9422     		mov	r2, #148
 3657 1820 5200     		lsl	r2, r2, #1
 3658 1822 BA18     		add	r2, r7, r2
 3659 1824 1360     		str	r3, [r2]
 3660 1826 1CE0     		b	.L110
 3661              	.L108:
 716:.\Include/arm_math.h **** 
 3662              		.loc 2 716 0
 3663 1828 9023     		mov	r3, #144
 3664 182a 5B00     		lsl	r3, r3, #1
 3665 182c FB18     		add	r3, r7, r3
 3666 182e 1B68     		ldr	r3, [r3]
 3667 1830 5B42     		neg	r3, r3
 3668 1832 8C22     		mov	r2, #140
 3669 1834 5200     		lsl	r2, r2, #1
 3670 1836 BA18     		add	r2, r7, r2
 3671 1838 1360     		str	r3, [r2]
 718:.\Include/arm_math.h ****       {
 3672              		.loc 2 718 0
 3673 183a 9423     		mov	r3, #148
 3674 183c 5B00     		lsl	r3, r3, #1
 3675 183e FB18     		add	r3, r7, r3
 3676 1840 1A68     		ldr	r2, [r3]
ARM GAS  C:\Users\fneves\AppData\Local\Temp\cc0ayw4Y.s 			page 96


 3677 1842 8C23     		mov	r3, #140
 3678 1844 5B00     		lsl	r3, r3, #1
 3679 1846 FB18     		add	r3, r7, r3
 3680 1848 1B68     		ldr	r3, [r3]
 3681 184a 9A42     		cmp	r2, r3
 3682 184c 09DA     		bge	.L110
 720:.\Include/arm_math.h ****       }
 3683              		.loc 2 720 0
 3684 184e 8C23     		mov	r3, #140
 3685 1850 5B00     		lsl	r3, r3, #1
 3686 1852 FB18     		add	r3, r7, r3
 3687 1854 1B68     		ldr	r3, [r3]
 3688 1856 9422     		mov	r2, #148
 3689 1858 5200     		lsl	r2, r2, #1
 3690 185a BA18     		add	r2, r7, r2
 3691 185c 1360     		str	r3, [r2]
 3692 185e 00E0     		b	.L110
 3693              	.L211:
 711:.\Include/arm_math.h ****       }
 3694              		.loc 2 711 0
 3695 1860 C046     		mov	r8, r8
 3696              	.L110:
 3697              		.loc 2 723 0
 3698 1862 9423     		mov	r3, #148
 3699 1864 5B00     		lsl	r3, r3, #1
 3700 1866 FB18     		add	r3, r7, r3
 3701 1868 1A68     		ldr	r2, [r3]
 3702              	.LBE155:
 3703              	.LBE154:
 3704              		.loc 1 824 0
 3705 186a 124B     		ldr	r3, .L237+4
 3706 186c FB18     		add	r3, r7, r3
 3707 186e 1A80     		strh	r2, [r3]
 825:Source\TransformFunctions/arm_cfft_radix4_q15.c ****         S1 = __SSAT(T1 - S1, 16);
 3708              		.loc 1 825 0
 3709 1870 A223     		mov	r3, #162
 3710 1872 9B00     		lsl	r3, r3, #2
 3711 1874 FB18     		add	r3, r7, r3
 3712 1876 0022     		mov	r2, #0
 3713 1878 9A5E     		ldrsh	r2, [r3, r2]
 3714 187a A123     		mov	r3, #161
 3715 187c 9B00     		lsl	r3, r3, #2
 3716 187e FB18     		add	r3, r7, r3
 3717 1880 0021     		mov	r1, #0
 3718 1882 5B5E     		ldrsh	r3, [r3, r1]
 3719 1884 D31A     		sub	r3, r2, r3
 3720 1886 8A22     		mov	r2, #138
 3721 1888 5200     		lsl	r2, r2, #1
 3722 188a BA18     		add	r2, r7, r2
 3723 188c 1360     		str	r3, [r2]
 3724 188e 1023     		mov	r3, #16
 3725 1890 8822     		mov	r2, #136
 3726 1892 5200     		lsl	r2, r2, #1
 3727 1894 BA18     		add	r2, r7, r2
 3728 1896 1360     		str	r3, [r2]
 3729              	.LBB156:
 3730              	.LBB157:
ARM GAS  C:\Users\fneves\AppData\Local\Temp\cc0ayw4Y.s 			page 97


 699:.\Include/arm_math.h ****     for (i = 0; i < (y - 1); i++)
 3731              		.loc 2 699 0
 3732 1898 0123     		mov	r3, #1
 3733 189a 8622     		mov	r2, #134
 3734 189c 5200     		lsl	r2, r2, #1
 3735 189e BA18     		add	r2, r7, r2
 3736 18a0 1360     		str	r3, [r2]
 700:.\Include/arm_math.h ****     {
 3737              		.loc 2 700 0
 3738 18a2 0023     		mov	r3, #0
 3739 18a4 8422     		mov	r2, #132
 3740 18a6 5200     		lsl	r2, r2, #1
 3741 18a8 BA18     		add	r2, r7, r2
 3742 18aa 1360     		str	r3, [r2]
 3743 18ac 18E0     		b	.L112
 3744              	.L238:
 3745 18ae C046     		.align	2
 3746              	.L237:
 3747 18b0 8A020000 		.word	650
 3748 18b4 86020000 		.word	646
 3749 18b8 82020000 		.word	642
 3750              	.L113:
 702:.\Include/arm_math.h ****     }
 3751              		.loc 2 702 0
 3752 18bc 8623     		mov	r3, #134
 3753 18be 5B00     		lsl	r3, r3, #1
 3754 18c0 FB18     		add	r3, r7, r3
 3755 18c2 1B68     		ldr	r3, [r3]
 3756 18c4 5B00     		lsl	r3, r3, #1
 3757 18c6 8622     		mov	r2, #134
 3758 18c8 5200     		lsl	r2, r2, #1
 3759 18ca BA18     		add	r2, r7, r2
 3760 18cc 1360     		str	r3, [r2]
 700:.\Include/arm_math.h ****     {
 3761              		.loc 2 700 0
 3762 18ce 8423     		mov	r3, #132
 3763 18d0 5B00     		lsl	r3, r3, #1
 3764 18d2 FB18     		add	r3, r7, r3
 3765 18d4 1B68     		ldr	r3, [r3]
 3766 18d6 0133     		add	r3, r3, #1
 3767 18d8 8422     		mov	r2, #132
 3768 18da 5200     		lsl	r2, r2, #1
 3769 18dc BA18     		add	r2, r7, r2
 3770 18de 1360     		str	r3, [r2]
 3771              	.L112:
 3772 18e0 8823     		mov	r3, #136
 3773 18e2 5B00     		lsl	r3, r3, #1
 3774 18e4 FB18     		add	r3, r7, r3
 3775 18e6 1B68     		ldr	r3, [r3]
 3776 18e8 013B     		sub	r3, r3, #1
 3777 18ea 8422     		mov	r2, #132
 3778 18ec 5200     		lsl	r2, r2, #1
 3779 18ee BA18     		add	r2, r7, r2
 3780 18f0 1268     		ldr	r2, [r2]
 3781 18f2 9A42     		cmp	r2, r3
 3782 18f4 E2D3     		bcc	.L113
 705:.\Include/arm_math.h ****     {
ARM GAS  C:\Users\fneves\AppData\Local\Temp\cc0ayw4Y.s 			page 98


 3783              		.loc 2 705 0
 3784 18f6 8A23     		mov	r3, #138
 3785 18f8 5B00     		lsl	r3, r3, #1
 3786 18fa FB18     		add	r3, r7, r3
 3787 18fc 1B68     		ldr	r3, [r3]
 3788 18fe 002B     		cmp	r3, #0
 3789 1900 1BDD     		ble	.L114
 707:.\Include/arm_math.h **** 
 3790              		.loc 2 707 0
 3791 1902 8623     		mov	r3, #134
 3792 1904 5B00     		lsl	r3, r3, #1
 3793 1906 FB18     		add	r3, r7, r3
 3794 1908 1B68     		ldr	r3, [r3]
 3795 190a 013B     		sub	r3, r3, #1
 3796 190c 8622     		mov	r2, #134
 3797 190e 5200     		lsl	r2, r2, #1
 3798 1910 BA18     		add	r2, r7, r2
 3799 1912 1360     		str	r3, [r2]
 709:.\Include/arm_math.h ****       {
 3800              		.loc 2 709 0
 3801 1914 8A23     		mov	r3, #138
 3802 1916 5B00     		lsl	r3, r3, #1
 3803 1918 FB18     		add	r3, r7, r3
 3804 191a 1A68     		ldr	r2, [r3]
 3805 191c 8623     		mov	r3, #134
 3806 191e 5B00     		lsl	r3, r3, #1
 3807 1920 FB18     		add	r3, r7, r3
 3808 1922 1B68     		ldr	r3, [r3]
 3809 1924 9A42     		cmp	r2, r3
 3810 1926 21DD     		ble	.L212
 711:.\Include/arm_math.h ****       }
 3811              		.loc 2 711 0
 3812 1928 8623     		mov	r3, #134
 3813 192a 5B00     		lsl	r3, r3, #1
 3814 192c FB18     		add	r3, r7, r3
 3815 192e 1B68     		ldr	r3, [r3]
 3816 1930 8A22     		mov	r2, #138
 3817 1932 5200     		lsl	r2, r2, #1
 3818 1934 BA18     		add	r2, r7, r2
 3819 1936 1360     		str	r3, [r2]
 3820 1938 19E0     		b	.L116
 3821              	.L114:
 716:.\Include/arm_math.h **** 
 3822              		.loc 2 716 0
 3823 193a 8623     		mov	r3, #134
 3824 193c 5B00     		lsl	r3, r3, #1
 3825 193e FB18     		add	r3, r7, r3
 3826 1940 1B68     		ldr	r3, [r3]
 3827 1942 5B42     		neg	r3, r3
 3828 1944 7A1D     		add	r2, r7, #5
 3829 1946 FF32     		add	r2, r2, #255
 3830 1948 1360     		str	r3, [r2]
 718:.\Include/arm_math.h ****       {
 3831              		.loc 2 718 0
 3832 194a 8A23     		mov	r3, #138
 3833 194c 5B00     		lsl	r3, r3, #1
 3834 194e FB18     		add	r3, r7, r3
ARM GAS  C:\Users\fneves\AppData\Local\Temp\cc0ayw4Y.s 			page 99


 3835 1950 1A68     		ldr	r2, [r3]
 3836 1952 7B1D     		add	r3, r7, #5
 3837 1954 FF33     		add	r3, r3, #255
 3838 1956 1B68     		ldr	r3, [r3]
 3839 1958 9A42     		cmp	r2, r3
 3840 195a 08DA     		bge	.L116
 720:.\Include/arm_math.h ****       }
 3841              		.loc 2 720 0
 3842 195c 7B1D     		add	r3, r7, #5
 3843 195e FF33     		add	r3, r3, #255
 3844 1960 1B68     		ldr	r3, [r3]
 3845 1962 8A22     		mov	r2, #138
 3846 1964 5200     		lsl	r2, r2, #1
 3847 1966 BA18     		add	r2, r7, r2
 3848 1968 1360     		str	r3, [r2]
 3849 196a 00E0     		b	.L116
 3850              	.L212:
 711:.\Include/arm_math.h ****       }
 3851              		.loc 2 711 0
 3852 196c C046     		mov	r8, r8
 3853              	.L116:
 3854              		.loc 2 723 0
 3855 196e 8A23     		mov	r3, #138
 3856 1970 5B00     		lsl	r3, r3, #1
 3857 1972 FB18     		add	r3, r7, r3
 3858 1974 1A68     		ldr	r2, [r3]
 3859              	.LBE157:
 3860              	.LBE156:
 3861              		.loc 1 825 0
 3862 1976 A123     		mov	r3, #161
 3863 1978 9B00     		lsl	r3, r3, #2
 3864 197a FB18     		add	r3, r7, r3
 3865 197c 1A80     		strh	r2, [r3]
 826:Source\TransformFunctions/arm_cfft_radix4_q15.c **** 
 827:Source\TransformFunctions/arm_cfft_radix4_q15.c ****         /*  Reading i0+fftLen/4 , i0+3fftLen/4 inputs */
 828:Source\TransformFunctions/arm_cfft_radix4_q15.c ****         /* Read yb (real), xb(imag) input */
 829:Source\TransformFunctions/arm_cfft_radix4_q15.c ****         T0 = pSrc16[i1 * 2u];
 3866              		.loc 1 829 0
 3867 197e A523     		mov	r3, #165
 3868 1980 9B00     		lsl	r3, r3, #2
 3869 1982 FB18     		add	r3, r7, r3
 3870 1984 1B68     		ldr	r3, [r3]
 3871 1986 9B00     		lsl	r3, r3, #2
 3872 1988 FA68     		ldr	r2, [r7, #12]
 3873 198a D218     		add	r2, r2, r3
 3874 198c 794B     		ldr	r3, .L239
 3875 198e FB18     		add	r3, r7, r3
 3876 1990 1288     		ldrh	r2, [r2]
 3877 1992 1A80     		strh	r2, [r3]
 830:Source\TransformFunctions/arm_cfft_radix4_q15.c ****         T1 = pSrc16[(i1 * 2u) + 1u];
 3878              		.loc 1 830 0
 3879 1994 A523     		mov	r3, #165
 3880 1996 9B00     		lsl	r3, r3, #2
 3881 1998 FB18     		add	r3, r7, r3
 3882 199a 1B68     		ldr	r3, [r3]
 3883 199c 9B00     		lsl	r3, r3, #2
 3884 199e 0233     		add	r3, r3, #2
ARM GAS  C:\Users\fneves\AppData\Local\Temp\cc0ayw4Y.s 			page 100


 3885 19a0 FA68     		ldr	r2, [r7, #12]
 3886 19a2 D218     		add	r2, r2, r3
 3887 19a4 A223     		mov	r3, #162
 3888 19a6 9B00     		lsl	r3, r3, #2
 3889 19a8 FB18     		add	r3, r7, r3
 3890 19aa 1288     		ldrh	r2, [r2]
 3891 19ac 1A80     		strh	r2, [r3]
 831:Source\TransformFunctions/arm_cfft_radix4_q15.c **** 
 832:Source\TransformFunctions/arm_cfft_radix4_q15.c ****         /* Read yd (real), xd(imag) input */
 833:Source\TransformFunctions/arm_cfft_radix4_q15.c ****         U0 = pSrc16[i3 * 2u];
 3892              		.loc 1 833 0
 3893 19ae A323     		mov	r3, #163
 3894 19b0 9B00     		lsl	r3, r3, #2
 3895 19b2 FB18     		add	r3, r7, r3
 3896 19b4 1B68     		ldr	r3, [r3]
 3897 19b6 9B00     		lsl	r3, r3, #2
 3898 19b8 FA68     		ldr	r2, [r7, #12]
 3899 19ba D218     		add	r2, r2, r3
 3900 19bc 6E4B     		ldr	r3, .L239+4
 3901 19be FB18     		add	r3, r7, r3
 3902 19c0 1288     		ldrh	r2, [r2]
 3903 19c2 1A80     		strh	r2, [r3]
 834:Source\TransformFunctions/arm_cfft_radix4_q15.c ****         U1 = pSrc16[(i3 * 2u) + 1u];
 3904              		.loc 1 834 0
 3905 19c4 A323     		mov	r3, #163
 3906 19c6 9B00     		lsl	r3, r3, #2
 3907 19c8 FB18     		add	r3, r7, r3
 3908 19ca 1B68     		ldr	r3, [r3]
 3909 19cc 9B00     		lsl	r3, r3, #2
 3910 19ce 0233     		add	r3, r3, #2
 3911 19d0 FA68     		ldr	r2, [r7, #12]
 3912 19d2 D218     		add	r2, r2, r3
 3913 19d4 9F23     		mov	r3, #159
 3914 19d6 9B00     		lsl	r3, r3, #2
 3915 19d8 FB18     		add	r3, r7, r3
 3916 19da 1288     		ldrh	r2, [r2]
 3917 19dc 1A80     		strh	r2, [r3]
 835:Source\TransformFunctions/arm_cfft_radix4_q15.c **** 
 836:Source\TransformFunctions/arm_cfft_radix4_q15.c **** 
 837:Source\TransformFunctions/arm_cfft_radix4_q15.c ****         /* T0 = (yb + yd), T1 = (xb + xd) */
 838:Source\TransformFunctions/arm_cfft_radix4_q15.c ****         T0 = __SSAT(T0 + U0, 16);
 3918              		.loc 1 838 0
 3919 19de 654B     		ldr	r3, .L239
 3920 19e0 FB18     		add	r3, r7, r3
 3921 19e2 0022     		mov	r2, #0
 3922 19e4 9A5E     		ldrsh	r2, [r3, r2]
 3923 19e6 644B     		ldr	r3, .L239+4
 3924 19e8 FB18     		add	r3, r7, r3
 3925 19ea 0021     		mov	r1, #0
 3926 19ec 5B5E     		ldrsh	r3, [r3, r1]
 3927 19ee D318     		add	r3, r2, r3
 3928 19f0 7A1C     		add	r2, r7, #1
 3929 19f2 FF32     		add	r2, r2, #255
 3930 19f4 1360     		str	r3, [r2]
 3931 19f6 1023     		mov	r3, #16
 3932 19f8 FC22     		mov	r2, #252
 3933 19fa BA18     		add	r2, r7, r2
ARM GAS  C:\Users\fneves\AppData\Local\Temp\cc0ayw4Y.s 			page 101


 3934 19fc 1360     		str	r3, [r2]
 3935              	.LBB158:
 3936              	.LBB159:
 699:.\Include/arm_math.h ****     for (i = 0; i < (y - 1); i++)
 3937              		.loc 2 699 0
 3938 19fe 0123     		mov	r3, #1
 3939 1a00 F822     		mov	r2, #248
 3940 1a02 BA18     		add	r2, r7, r2
 3941 1a04 1360     		str	r3, [r2]
 700:.\Include/arm_math.h ****     {
 3942              		.loc 2 700 0
 3943 1a06 0023     		mov	r3, #0
 3944 1a08 F422     		mov	r2, #244
 3945 1a0a BA18     		add	r2, r7, r2
 3946 1a0c 1360     		str	r3, [r2]
 3947 1a0e 0DE0     		b	.L118
 3948              	.L119:
 702:.\Include/arm_math.h ****     }
 3949              		.loc 2 702 0
 3950 1a10 F823     		mov	r3, #248
 3951 1a12 FB18     		add	r3, r7, r3
 3952 1a14 1B68     		ldr	r3, [r3]
 3953 1a16 5B00     		lsl	r3, r3, #1
 3954 1a18 F822     		mov	r2, #248
 3955 1a1a BA18     		add	r2, r7, r2
 3956 1a1c 1360     		str	r3, [r2]
 700:.\Include/arm_math.h ****     {
 3957              		.loc 2 700 0
 3958 1a1e F423     		mov	r3, #244
 3959 1a20 FB18     		add	r3, r7, r3
 3960 1a22 1B68     		ldr	r3, [r3]
 3961 1a24 0133     		add	r3, r3, #1
 3962 1a26 F422     		mov	r2, #244
 3963 1a28 BA18     		add	r2, r7, r2
 3964 1a2a 1360     		str	r3, [r2]
 3965              	.L118:
 3966 1a2c FC23     		mov	r3, #252
 3967 1a2e FB18     		add	r3, r7, r3
 3968 1a30 1B68     		ldr	r3, [r3]
 3969 1a32 013B     		sub	r3, r3, #1
 3970 1a34 F422     		mov	r2, #244
 3971 1a36 BA18     		add	r2, r7, r2
 3972 1a38 1268     		ldr	r2, [r2]
 3973 1a3a 9A42     		cmp	r2, r3
 3974 1a3c E8D3     		bcc	.L119
 705:.\Include/arm_math.h ****     {
 3975              		.loc 2 705 0
 3976 1a3e 7B1C     		add	r3, r7, #1
 3977 1a40 FF33     		add	r3, r3, #255
 3978 1a42 1B68     		ldr	r3, [r3]
 3979 1a44 002B     		cmp	r3, #0
 3980 1a46 15DD     		ble	.L120
 707:.\Include/arm_math.h **** 
 3981              		.loc 2 707 0
 3982 1a48 F823     		mov	r3, #248
 3983 1a4a FB18     		add	r3, r7, r3
 3984 1a4c 1B68     		ldr	r3, [r3]
ARM GAS  C:\Users\fneves\AppData\Local\Temp\cc0ayw4Y.s 			page 102


 3985 1a4e 013B     		sub	r3, r3, #1
 3986 1a50 F822     		mov	r2, #248
 3987 1a52 BA18     		add	r2, r7, r2
 3988 1a54 1360     		str	r3, [r2]
 709:.\Include/arm_math.h ****       {
 3989              		.loc 2 709 0
 3990 1a56 7B1C     		add	r3, r7, #1
 3991 1a58 FF33     		add	r3, r3, #255
 3992 1a5a 1A68     		ldr	r2, [r3]
 3993 1a5c F823     		mov	r3, #248
 3994 1a5e FB18     		add	r3, r7, r3
 3995 1a60 1B68     		ldr	r3, [r3]
 3996 1a62 9A42     		cmp	r2, r3
 3997 1a64 1CDD     		ble	.L213
 711:.\Include/arm_math.h ****       }
 3998              		.loc 2 711 0
 3999 1a66 F823     		mov	r3, #248
 4000 1a68 FB18     		add	r3, r7, r3
 4001 1a6a 1B68     		ldr	r3, [r3]
 4002 1a6c 7A1C     		add	r2, r7, #1
 4003 1a6e FF32     		add	r2, r2, #255
 4004 1a70 1360     		str	r3, [r2]
 4005 1a72 16E0     		b	.L122
 4006              	.L120:
 716:.\Include/arm_math.h **** 
 4007              		.loc 2 716 0
 4008 1a74 F823     		mov	r3, #248
 4009 1a76 FB18     		add	r3, r7, r3
 4010 1a78 1B68     		ldr	r3, [r3]
 4011 1a7a 5B42     		neg	r3, r3
 4012 1a7c F022     		mov	r2, #240
 4013 1a7e BA18     		add	r2, r7, r2
 4014 1a80 1360     		str	r3, [r2]
 718:.\Include/arm_math.h ****       {
 4015              		.loc 2 718 0
 4016 1a82 7B1C     		add	r3, r7, #1
 4017 1a84 FF33     		add	r3, r3, #255
 4018 1a86 1A68     		ldr	r2, [r3]
 4019 1a88 F023     		mov	r3, #240
 4020 1a8a FB18     		add	r3, r7, r3
 4021 1a8c 1B68     		ldr	r3, [r3]
 4022 1a8e 9A42     		cmp	r2, r3
 4023 1a90 07DA     		bge	.L122
 720:.\Include/arm_math.h ****       }
 4024              		.loc 2 720 0
 4025 1a92 F023     		mov	r3, #240
 4026 1a94 FB18     		add	r3, r7, r3
 4027 1a96 1B68     		ldr	r3, [r3]
 4028 1a98 7A1C     		add	r2, r7, #1
 4029 1a9a FF32     		add	r2, r2, #255
 4030 1a9c 1360     		str	r3, [r2]
 4031 1a9e 00E0     		b	.L122
 4032              	.L213:
 711:.\Include/arm_math.h ****       }
 4033              		.loc 2 711 0
 4034 1aa0 C046     		mov	r8, r8
 4035              	.L122:
ARM GAS  C:\Users\fneves\AppData\Local\Temp\cc0ayw4Y.s 			page 103


 4036              		.loc 2 723 0
 4037 1aa2 7B1C     		add	r3, r7, #1
 4038 1aa4 FF33     		add	r3, r3, #255
 4039 1aa6 1A68     		ldr	r2, [r3]
 4040              	.LBE159:
 4041              	.LBE158:
 4042              		.loc 1 838 0
 4043 1aa8 324B     		ldr	r3, .L239
 4044 1aaa FB18     		add	r3, r7, r3
 4045 1aac 1A80     		strh	r2, [r3]
 839:Source\TransformFunctions/arm_cfft_radix4_q15.c ****         T1 = __SSAT(T1 + U1, 16);
 4046              		.loc 1 839 0
 4047 1aae A223     		mov	r3, #162
 4048 1ab0 9B00     		lsl	r3, r3, #2
 4049 1ab2 FB18     		add	r3, r7, r3
 4050 1ab4 0022     		mov	r2, #0
 4051 1ab6 9A5E     		ldrsh	r2, [r3, r2]
 4052 1ab8 9F23     		mov	r3, #159
 4053 1aba 9B00     		lsl	r3, r3, #2
 4054 1abc FB18     		add	r3, r7, r3
 4055 1abe 0021     		mov	r1, #0
 4056 1ac0 5B5E     		ldrsh	r3, [r3, r1]
 4057 1ac2 D318     		add	r3, r2, r3
 4058 1ac4 EC22     		mov	r2, #236
 4059 1ac6 BA18     		add	r2, r7, r2
 4060 1ac8 1360     		str	r3, [r2]
 4061 1aca 1023     		mov	r3, #16
 4062 1acc E822     		mov	r2, #232
 4063 1ace BA18     		add	r2, r7, r2
 4064 1ad0 1360     		str	r3, [r2]
 4065              	.LBB160:
 4066              	.LBB161:
 699:.\Include/arm_math.h ****     for (i = 0; i < (y - 1); i++)
 4067              		.loc 2 699 0
 4068 1ad2 0123     		mov	r3, #1
 4069 1ad4 E422     		mov	r2, #228
 4070 1ad6 BA18     		add	r2, r7, r2
 4071 1ad8 1360     		str	r3, [r2]
 700:.\Include/arm_math.h ****     {
 4072              		.loc 2 700 0
 4073 1ada 0023     		mov	r3, #0
 4074 1adc E022     		mov	r2, #224
 4075 1ade BA18     		add	r2, r7, r2
 4076 1ae0 1360     		str	r3, [r2]
 4077 1ae2 0DE0     		b	.L124
 4078              	.L125:
 702:.\Include/arm_math.h ****     }
 4079              		.loc 2 702 0
 4080 1ae4 E423     		mov	r3, #228
 4081 1ae6 FB18     		add	r3, r7, r3
 4082 1ae8 1B68     		ldr	r3, [r3]
 4083 1aea 5B00     		lsl	r3, r3, #1
 4084 1aec E422     		mov	r2, #228
 4085 1aee BA18     		add	r2, r7, r2
 4086 1af0 1360     		str	r3, [r2]
 700:.\Include/arm_math.h ****     {
 4087              		.loc 2 700 0
ARM GAS  C:\Users\fneves\AppData\Local\Temp\cc0ayw4Y.s 			page 104


 4088 1af2 E023     		mov	r3, #224
 4089 1af4 FB18     		add	r3, r7, r3
 4090 1af6 1B68     		ldr	r3, [r3]
 4091 1af8 0133     		add	r3, r3, #1
 4092 1afa E022     		mov	r2, #224
 4093 1afc BA18     		add	r2, r7, r2
 4094 1afe 1360     		str	r3, [r2]
 4095              	.L124:
 4096 1b00 E823     		mov	r3, #232
 4097 1b02 FB18     		add	r3, r7, r3
 4098 1b04 1B68     		ldr	r3, [r3]
 4099 1b06 013B     		sub	r3, r3, #1
 4100 1b08 E022     		mov	r2, #224
 4101 1b0a BA18     		add	r2, r7, r2
 4102 1b0c 1268     		ldr	r2, [r2]
 4103 1b0e 9A42     		cmp	r2, r3
 4104 1b10 E8D3     		bcc	.L125
 705:.\Include/arm_math.h ****     {
 4105              		.loc 2 705 0
 4106 1b12 EC23     		mov	r3, #236
 4107 1b14 FB18     		add	r3, r7, r3
 4108 1b16 1B68     		ldr	r3, [r3]
 4109 1b18 002B     		cmp	r3, #0
 4110 1b1a 15DD     		ble	.L126
 707:.\Include/arm_math.h **** 
 4111              		.loc 2 707 0
 4112 1b1c E423     		mov	r3, #228
 4113 1b1e FB18     		add	r3, r7, r3
 4114 1b20 1B68     		ldr	r3, [r3]
 4115 1b22 013B     		sub	r3, r3, #1
 4116 1b24 E422     		mov	r2, #228
 4117 1b26 BA18     		add	r2, r7, r2
 4118 1b28 1360     		str	r3, [r2]
 709:.\Include/arm_math.h ****       {
 4119              		.loc 2 709 0
 4120 1b2a EC23     		mov	r3, #236
 4121 1b2c FB18     		add	r3, r7, r3
 4122 1b2e 1A68     		ldr	r2, [r3]
 4123 1b30 E423     		mov	r3, #228
 4124 1b32 FB18     		add	r3, r7, r3
 4125 1b34 1B68     		ldr	r3, [r3]
 4126 1b36 9A42     		cmp	r2, r3
 4127 1b38 20DD     		ble	.L214
 711:.\Include/arm_math.h ****       }
 4128              		.loc 2 711 0
 4129 1b3a E423     		mov	r3, #228
 4130 1b3c FB18     		add	r3, r7, r3
 4131 1b3e 1B68     		ldr	r3, [r3]
 4132 1b40 EC22     		mov	r2, #236
 4133 1b42 BA18     		add	r2, r7, r2
 4134 1b44 1360     		str	r3, [r2]
 4135 1b46 1AE0     		b	.L128
 4136              	.L126:
 716:.\Include/arm_math.h **** 
 4137              		.loc 2 716 0
 4138 1b48 E423     		mov	r3, #228
 4139 1b4a FB18     		add	r3, r7, r3
ARM GAS  C:\Users\fneves\AppData\Local\Temp\cc0ayw4Y.s 			page 105


 4140 1b4c 1B68     		ldr	r3, [r3]
 4141 1b4e 5B42     		neg	r3, r3
 4142 1b50 DC22     		mov	r2, #220
 4143 1b52 BA18     		add	r2, r7, r2
 4144 1b54 1360     		str	r3, [r2]
 718:.\Include/arm_math.h ****       {
 4145              		.loc 2 718 0
 4146 1b56 EC23     		mov	r3, #236
 4147 1b58 FB18     		add	r3, r7, r3
 4148 1b5a 1A68     		ldr	r2, [r3]
 4149 1b5c DC23     		mov	r3, #220
 4150 1b5e FB18     		add	r3, r7, r3
 4151 1b60 1B68     		ldr	r3, [r3]
 4152 1b62 9A42     		cmp	r2, r3
 4153 1b64 0BDA     		bge	.L128
 720:.\Include/arm_math.h ****       }
 4154              		.loc 2 720 0
 4155 1b66 DC23     		mov	r3, #220
 4156 1b68 FB18     		add	r3, r7, r3
 4157 1b6a 1B68     		ldr	r3, [r3]
 4158 1b6c EC22     		mov	r2, #236
 4159 1b6e BA18     		add	r2, r7, r2
 4160 1b70 1360     		str	r3, [r2]
 4161 1b72 04E0     		b	.L128
 4162              	.L240:
 4163              		.align	2
 4164              	.L239:
 4165 1b74 8A020000 		.word	650
 4166 1b78 7E020000 		.word	638
 4167              	.L214:
 711:.\Include/arm_math.h ****       }
 4168              		.loc 2 711 0
 4169 1b7c C046     		mov	r8, r8
 4170              	.L128:
 4171              		.loc 2 723 0
 4172 1b7e EC23     		mov	r3, #236
 4173 1b80 FB18     		add	r3, r7, r3
 4174 1b82 1A68     		ldr	r2, [r3]
 4175              	.LBE161:
 4176              	.LBE160:
 4177              		.loc 1 839 0
 4178 1b84 A223     		mov	r3, #162
 4179 1b86 9B00     		lsl	r3, r3, #2
 4180 1b88 FB18     		add	r3, r7, r3
 4181 1b8a 1A80     		strh	r2, [r3]
 840:Source\TransformFunctions/arm_cfft_radix4_q15.c **** 
 841:Source\TransformFunctions/arm_cfft_radix4_q15.c ****         /*  writing the butterfly processed i0 sample */
 842:Source\TransformFunctions/arm_cfft_radix4_q15.c **** 
 843:Source\TransformFunctions/arm_cfft_radix4_q15.c ****         /* xa' = xa + xb + xc + xd */
 844:Source\TransformFunctions/arm_cfft_radix4_q15.c ****         /* ya' = ya + yb + yc + yd */
 845:Source\TransformFunctions/arm_cfft_radix4_q15.c ****         out1 = ((R0 >> 1u) + (T0 >> 1u)) >> 1u;
 4182              		.loc 1 845 0
 4183 1b8c D84B     		ldr	r3, .L241
 4184 1b8e FB18     		add	r3, r7, r3
 4185 1b90 0022     		mov	r2, #0
 4186 1b92 9B5E     		ldrsh	r3, [r3, r2]
 4187 1b94 5B10     		asr	r3, r3, #1
ARM GAS  C:\Users\fneves\AppData\Local\Temp\cc0ayw4Y.s 			page 106


 4188 1b96 9BB2     		uxth	r3, r3
 4189 1b98 1AB2     		sxth	r2, r3
 4190 1b9a D64B     		ldr	r3, .L241+4
 4191 1b9c FB18     		add	r3, r7, r3
 4192 1b9e 0021     		mov	r1, #0
 4193 1ba0 5B5E     		ldrsh	r3, [r3, r1]
 4194 1ba2 5B10     		asr	r3, r3, #1
 4195 1ba4 9BB2     		uxth	r3, r3
 4196 1ba6 1BB2     		sxth	r3, r3
 4197 1ba8 D318     		add	r3, r2, r3
 4198 1baa 5A10     		asr	r2, r3, #1
 4199 1bac D24B     		ldr	r3, .L241+8
 4200 1bae FB18     		add	r3, r7, r3
 4201 1bb0 1A80     		strh	r2, [r3]
 846:Source\TransformFunctions/arm_cfft_radix4_q15.c ****         out2 = ((R1 >> 1u) + (T1 >> 1u)) >> 1u;
 4202              		.loc 1 846 0
 4203 1bb2 A023     		mov	r3, #160
 4204 1bb4 9B00     		lsl	r3, r3, #2
 4205 1bb6 FB18     		add	r3, r7, r3
 4206 1bb8 0022     		mov	r2, #0
 4207 1bba 9B5E     		ldrsh	r3, [r3, r2]
 4208 1bbc 5B10     		asr	r3, r3, #1
 4209 1bbe 9BB2     		uxth	r3, r3
 4210 1bc0 1AB2     		sxth	r2, r3
 4211 1bc2 A223     		mov	r3, #162
 4212 1bc4 9B00     		lsl	r3, r3, #2
 4213 1bc6 FB18     		add	r3, r7, r3
 4214 1bc8 0021     		mov	r1, #0
 4215 1bca 5B5E     		ldrsh	r3, [r3, r1]
 4216 1bcc 5B10     		asr	r3, r3, #1
 4217 1bce 9BB2     		uxth	r3, r3
 4218 1bd0 1BB2     		sxth	r3, r3
 4219 1bd2 D318     		add	r3, r2, r3
 4220 1bd4 5A10     		asr	r2, r3, #1
 4221 1bd6 9D23     		mov	r3, #157
 4222 1bd8 9B00     		lsl	r3, r3, #2
 4223 1bda FB18     		add	r3, r7, r3
 4224 1bdc 1A80     		strh	r2, [r3]
 847:Source\TransformFunctions/arm_cfft_radix4_q15.c **** 
 848:Source\TransformFunctions/arm_cfft_radix4_q15.c ****         pSrc16[i0 * 2u] = out1;
 4225              		.loc 1 848 0
 4226 1bde A923     		mov	r3, #169
 4227 1be0 9B00     		lsl	r3, r3, #2
 4228 1be2 FB18     		add	r3, r7, r3
 4229 1be4 1B68     		ldr	r3, [r3]
 4230 1be6 9B00     		lsl	r3, r3, #2
 4231 1be8 FA68     		ldr	r2, [r7, #12]
 4232 1bea D318     		add	r3, r2, r3
 4233 1bec C24A     		ldr	r2, .L241+8
 4234 1bee BA18     		add	r2, r7, r2
 4235 1bf0 1288     		ldrh	r2, [r2]
 4236 1bf2 1A80     		strh	r2, [r3]
 849:Source\TransformFunctions/arm_cfft_radix4_q15.c ****         pSrc16[(2u * i0) + 1u] = out2;
 4237              		.loc 1 849 0
 4238 1bf4 A923     		mov	r3, #169
 4239 1bf6 9B00     		lsl	r3, r3, #2
 4240 1bf8 FB18     		add	r3, r7, r3
ARM GAS  C:\Users\fneves\AppData\Local\Temp\cc0ayw4Y.s 			page 107


 4241 1bfa 1B68     		ldr	r3, [r3]
 4242 1bfc 9B00     		lsl	r3, r3, #2
 4243 1bfe 0233     		add	r3, r3, #2
 4244 1c00 FA68     		ldr	r2, [r7, #12]
 4245 1c02 D318     		add	r3, r2, r3
 4246 1c04 9D22     		mov	r2, #157
 4247 1c06 9200     		lsl	r2, r2, #2
 4248 1c08 BA18     		add	r2, r7, r2
 4249 1c0a 1288     		ldrh	r2, [r2]
 4250 1c0c 1A80     		strh	r2, [r3]
 850:Source\TransformFunctions/arm_cfft_radix4_q15.c **** 
 851:Source\TransformFunctions/arm_cfft_radix4_q15.c ****         /* R0 = (ya + yc) - (yb + yd), R1 = (xa + xc) - (xb + xd) */
 852:Source\TransformFunctions/arm_cfft_radix4_q15.c ****         R0 = (R0 >> 1u) - (T0 >> 1u);
 4251              		.loc 1 852 0
 4252 1c0e B84B     		ldr	r3, .L241
 4253 1c10 FB18     		add	r3, r7, r3
 4254 1c12 0022     		mov	r2, #0
 4255 1c14 9B5E     		ldrsh	r3, [r3, r2]
 4256 1c16 5B10     		asr	r3, r3, #1
 4257 1c18 9BB2     		uxth	r3, r3
 4258 1c1a 9AB2     		uxth	r2, r3
 4259 1c1c B54B     		ldr	r3, .L241+4
 4260 1c1e FB18     		add	r3, r7, r3
 4261 1c20 0021     		mov	r1, #0
 4262 1c22 5B5E     		ldrsh	r3, [r3, r1]
 4263 1c24 5B10     		asr	r3, r3, #1
 4264 1c26 9BB2     		uxth	r3, r3
 4265 1c28 9BB2     		uxth	r3, r3
 4266 1c2a D31A     		sub	r3, r2, r3
 4267 1c2c 9AB2     		uxth	r2, r3
 4268 1c2e B04B     		ldr	r3, .L241
 4269 1c30 FB18     		add	r3, r7, r3
 4270 1c32 1A80     		strh	r2, [r3]
 853:Source\TransformFunctions/arm_cfft_radix4_q15.c ****         R1 = (R1 >> 1u) - (T1 >> 1u);
 4271              		.loc 1 853 0
 4272 1c34 A023     		mov	r3, #160
 4273 1c36 9B00     		lsl	r3, r3, #2
 4274 1c38 FB18     		add	r3, r7, r3
 4275 1c3a 0022     		mov	r2, #0
 4276 1c3c 9B5E     		ldrsh	r3, [r3, r2]
 4277 1c3e 5B10     		asr	r3, r3, #1
 4278 1c40 9BB2     		uxth	r3, r3
 4279 1c42 9AB2     		uxth	r2, r3
 4280 1c44 A223     		mov	r3, #162
 4281 1c46 9B00     		lsl	r3, r3, #2
 4282 1c48 FB18     		add	r3, r7, r3
 4283 1c4a 0021     		mov	r1, #0
 4284 1c4c 5B5E     		ldrsh	r3, [r3, r1]
 4285 1c4e 5B10     		asr	r3, r3, #1
 4286 1c50 9BB2     		uxth	r3, r3
 4287 1c52 9BB2     		uxth	r3, r3
 4288 1c54 D31A     		sub	r3, r2, r3
 4289 1c56 9AB2     		uxth	r2, r3
 4290 1c58 A023     		mov	r3, #160
 4291 1c5a 9B00     		lsl	r3, r3, #2
 4292 1c5c FB18     		add	r3, r7, r3
 4293 1c5e 1A80     		strh	r2, [r3]
ARM GAS  C:\Users\fneves\AppData\Local\Temp\cc0ayw4Y.s 			page 108


 854:Source\TransformFunctions/arm_cfft_radix4_q15.c **** 
 855:Source\TransformFunctions/arm_cfft_radix4_q15.c ****         /* (ya-yb+yc-yd)* (si2) + (xa-xb+xc-xd)* co2 */
 856:Source\TransformFunctions/arm_cfft_radix4_q15.c ****         out1 = (q15_t) ((Co2 * R0 + Si2 * R1) >> 16u);
 4294              		.loc 1 856 0
 4295 1c60 A64B     		ldr	r3, .L241+12
 4296 1c62 FB18     		add	r3, r7, r3
 4297 1c64 0022     		mov	r2, #0
 4298 1c66 9B5E     		ldrsh	r3, [r3, r2]
 4299 1c68 A14A     		ldr	r2, .L241
 4300 1c6a BA18     		add	r2, r7, r2
 4301 1c6c 0021     		mov	r1, #0
 4302 1c6e 525E     		ldrsh	r2, [r2, r1]
 4303 1c70 5A43     		mul	r2, r3
 4304 1c72 9E23     		mov	r3, #158
 4305 1c74 9B00     		lsl	r3, r3, #2
 4306 1c76 FB18     		add	r3, r7, r3
 4307 1c78 0021     		mov	r1, #0
 4308 1c7a 5B5E     		ldrsh	r3, [r3, r1]
 4309 1c7c A021     		mov	r1, #160
 4310 1c7e 8900     		lsl	r1, r1, #2
 4311 1c80 7918     		add	r1, r7, r1
 4312 1c82 0020     		mov	r0, #0
 4313 1c84 095E     		ldrsh	r1, [r1, r0]
 4314 1c86 4B43     		mul	r3, r1
 4315 1c88 D318     		add	r3, r2, r3
 4316 1c8a 1A14     		asr	r2, r3, #16
 4317 1c8c 9A4B     		ldr	r3, .L241+8
 4318 1c8e FB18     		add	r3, r7, r3
 4319 1c90 1A80     		strh	r2, [r3]
 857:Source\TransformFunctions/arm_cfft_radix4_q15.c **** 
 858:Source\TransformFunctions/arm_cfft_radix4_q15.c ****         /* (ya-yb+yc-yd)* co2 - (xa-xb+xc-xd)* (si2) */
 859:Source\TransformFunctions/arm_cfft_radix4_q15.c ****         out2 = (q15_t) ((-Si2 * R0 + Co2 * R1) >> 16u);
 4320              		.loc 1 859 0
 4321 1c92 9E23     		mov	r3, #158
 4322 1c94 9B00     		lsl	r3, r3, #2
 4323 1c96 FB18     		add	r3, r7, r3
 4324 1c98 0022     		mov	r2, #0
 4325 1c9a 9B5E     		ldrsh	r3, [r3, r2]
 4326 1c9c 5B42     		neg	r3, r3
 4327 1c9e 944A     		ldr	r2, .L241
 4328 1ca0 BA18     		add	r2, r7, r2
 4329 1ca2 0021     		mov	r1, #0
 4330 1ca4 525E     		ldrsh	r2, [r2, r1]
 4331 1ca6 5A43     		mul	r2, r3
 4332 1ca8 944B     		ldr	r3, .L241+12
 4333 1caa FB18     		add	r3, r7, r3
 4334 1cac 0021     		mov	r1, #0
 4335 1cae 5B5E     		ldrsh	r3, [r3, r1]
 4336 1cb0 A021     		mov	r1, #160
 4337 1cb2 8900     		lsl	r1, r1, #2
 4338 1cb4 7918     		add	r1, r7, r1
 4339 1cb6 0020     		mov	r0, #0
 4340 1cb8 095E     		ldrsh	r1, [r1, r0]
 4341 1cba 4B43     		mul	r3, r1
 4342 1cbc D318     		add	r3, r2, r3
 4343 1cbe 1A14     		asr	r2, r3, #16
 4344 1cc0 9D23     		mov	r3, #157
ARM GAS  C:\Users\fneves\AppData\Local\Temp\cc0ayw4Y.s 			page 109


 4345 1cc2 9B00     		lsl	r3, r3, #2
 4346 1cc4 FB18     		add	r3, r7, r3
 4347 1cc6 1A80     		strh	r2, [r3]
 860:Source\TransformFunctions/arm_cfft_radix4_q15.c **** 
 861:Source\TransformFunctions/arm_cfft_radix4_q15.c ****         /*  Reading i0+3fftLen/4 */
 862:Source\TransformFunctions/arm_cfft_radix4_q15.c ****         /* Read yb (real), xb(imag) input */
 863:Source\TransformFunctions/arm_cfft_radix4_q15.c ****         T0 = pSrc16[i1 * 2u];
 4348              		.loc 1 863 0
 4349 1cc8 A523     		mov	r3, #165
 4350 1cca 9B00     		lsl	r3, r3, #2
 4351 1ccc FB18     		add	r3, r7, r3
 4352 1cce 1B68     		ldr	r3, [r3]
 4353 1cd0 9B00     		lsl	r3, r3, #2
 4354 1cd2 FA68     		ldr	r2, [r7, #12]
 4355 1cd4 D218     		add	r2, r2, r3
 4356 1cd6 874B     		ldr	r3, .L241+4
 4357 1cd8 FB18     		add	r3, r7, r3
 4358 1cda 1288     		ldrh	r2, [r2]
 4359 1cdc 1A80     		strh	r2, [r3]
 864:Source\TransformFunctions/arm_cfft_radix4_q15.c ****         T1 = pSrc16[(i1 * 2u) + 1u];
 4360              		.loc 1 864 0
 4361 1cde A523     		mov	r3, #165
 4362 1ce0 9B00     		lsl	r3, r3, #2
 4363 1ce2 FB18     		add	r3, r7, r3
 4364 1ce4 1B68     		ldr	r3, [r3]
 4365 1ce6 9B00     		lsl	r3, r3, #2
 4366 1ce8 0233     		add	r3, r3, #2
 4367 1cea FA68     		ldr	r2, [r7, #12]
 4368 1cec D218     		add	r2, r2, r3
 4369 1cee A223     		mov	r3, #162
 4370 1cf0 9B00     		lsl	r3, r3, #2
 4371 1cf2 FB18     		add	r3, r7, r3
 4372 1cf4 1288     		ldrh	r2, [r2]
 4373 1cf6 1A80     		strh	r2, [r3]
 865:Source\TransformFunctions/arm_cfft_radix4_q15.c **** 
 866:Source\TransformFunctions/arm_cfft_radix4_q15.c ****         /*  writing the butterfly processed i0 + fftLen/4 sample */
 867:Source\TransformFunctions/arm_cfft_radix4_q15.c ****         /* xc' = (xa-xb+xc-xd)* co2 + (ya-yb+yc-yd)* (si2) */
 868:Source\TransformFunctions/arm_cfft_radix4_q15.c ****         /* yc' = (ya-yb+yc-yd)* co2 - (xa-xb+xc-xd)* (si2) */
 869:Source\TransformFunctions/arm_cfft_radix4_q15.c ****         pSrc16[i1 * 2u] = out1;
 4374              		.loc 1 869 0
 4375 1cf8 A523     		mov	r3, #165
 4376 1cfa 9B00     		lsl	r3, r3, #2
 4377 1cfc FB18     		add	r3, r7, r3
 4378 1cfe 1B68     		ldr	r3, [r3]
 4379 1d00 9B00     		lsl	r3, r3, #2
 4380 1d02 FA68     		ldr	r2, [r7, #12]
 4381 1d04 D318     		add	r3, r2, r3
 4382 1d06 7C4A     		ldr	r2, .L241+8
 4383 1d08 BA18     		add	r2, r7, r2
 4384 1d0a 1288     		ldrh	r2, [r2]
 4385 1d0c 1A80     		strh	r2, [r3]
 870:Source\TransformFunctions/arm_cfft_radix4_q15.c ****         pSrc16[(i1 * 2u) + 1u] = out2;
 4386              		.loc 1 870 0
 4387 1d0e A523     		mov	r3, #165
 4388 1d10 9B00     		lsl	r3, r3, #2
 4389 1d12 FB18     		add	r3, r7, r3
 4390 1d14 1B68     		ldr	r3, [r3]
ARM GAS  C:\Users\fneves\AppData\Local\Temp\cc0ayw4Y.s 			page 110


 4391 1d16 9B00     		lsl	r3, r3, #2
 4392 1d18 0233     		add	r3, r3, #2
 4393 1d1a FA68     		ldr	r2, [r7, #12]
 4394 1d1c D318     		add	r3, r2, r3
 4395 1d1e 9D22     		mov	r2, #157
 4396 1d20 9200     		lsl	r2, r2, #2
 4397 1d22 BA18     		add	r2, r7, r2
 4398 1d24 1288     		ldrh	r2, [r2]
 4399 1d26 1A80     		strh	r2, [r3]
 871:Source\TransformFunctions/arm_cfft_radix4_q15.c **** 
 872:Source\TransformFunctions/arm_cfft_radix4_q15.c ****         /*  Butterfly calculations */
 873:Source\TransformFunctions/arm_cfft_radix4_q15.c **** 
 874:Source\TransformFunctions/arm_cfft_radix4_q15.c ****         /* Read yd (real), xd(imag) input */
 875:Source\TransformFunctions/arm_cfft_radix4_q15.c ****         U0 = pSrc16[i3 * 2u];
 4400              		.loc 1 875 0
 4401 1d28 A323     		mov	r3, #163
 4402 1d2a 9B00     		lsl	r3, r3, #2
 4403 1d2c FB18     		add	r3, r7, r3
 4404 1d2e 1B68     		ldr	r3, [r3]
 4405 1d30 9B00     		lsl	r3, r3, #2
 4406 1d32 FA68     		ldr	r2, [r7, #12]
 4407 1d34 D218     		add	r2, r2, r3
 4408 1d36 724B     		ldr	r3, .L241+16
 4409 1d38 FB18     		add	r3, r7, r3
 4410 1d3a 1288     		ldrh	r2, [r2]
 4411 1d3c 1A80     		strh	r2, [r3]
 876:Source\TransformFunctions/arm_cfft_radix4_q15.c ****         U1 = pSrc16[(i3 * 2u) + 1u];
 4412              		.loc 1 876 0
 4413 1d3e A323     		mov	r3, #163
 4414 1d40 9B00     		lsl	r3, r3, #2
 4415 1d42 FB18     		add	r3, r7, r3
 4416 1d44 1B68     		ldr	r3, [r3]
 4417 1d46 9B00     		lsl	r3, r3, #2
 4418 1d48 0233     		add	r3, r3, #2
 4419 1d4a FA68     		ldr	r2, [r7, #12]
 4420 1d4c D218     		add	r2, r2, r3
 4421 1d4e 9F23     		mov	r3, #159
 4422 1d50 9B00     		lsl	r3, r3, #2
 4423 1d52 FB18     		add	r3, r7, r3
 4424 1d54 1288     		ldrh	r2, [r2]
 4425 1d56 1A80     		strh	r2, [r3]
 877:Source\TransformFunctions/arm_cfft_radix4_q15.c **** 
 878:Source\TransformFunctions/arm_cfft_radix4_q15.c ****         /* T0 = yb-yd, T1 = xb-xd */
 879:Source\TransformFunctions/arm_cfft_radix4_q15.c ****         T0 = __SSAT(T0 - U0, 16);
 4426              		.loc 1 879 0
 4427 1d58 664B     		ldr	r3, .L241+4
 4428 1d5a FB18     		add	r3, r7, r3
 4429 1d5c 0022     		mov	r2, #0
 4430 1d5e 9A5E     		ldrsh	r2, [r3, r2]
 4431 1d60 674B     		ldr	r3, .L241+16
 4432 1d62 FB18     		add	r3, r7, r3
 4433 1d64 0021     		mov	r1, #0
 4434 1d66 5B5E     		ldrsh	r3, [r3, r1]
 4435 1d68 D31A     		sub	r3, r2, r3
 4436 1d6a D822     		mov	r2, #216
 4437 1d6c BA18     		add	r2, r7, r2
 4438 1d6e 1360     		str	r3, [r2]
ARM GAS  C:\Users\fneves\AppData\Local\Temp\cc0ayw4Y.s 			page 111


 4439 1d70 1023     		mov	r3, #16
 4440 1d72 D422     		mov	r2, #212
 4441 1d74 BA18     		add	r2, r7, r2
 4442 1d76 1360     		str	r3, [r2]
 4443              	.LBB162:
 4444              	.LBB163:
 699:.\Include/arm_math.h ****     for (i = 0; i < (y - 1); i++)
 4445              		.loc 2 699 0
 4446 1d78 0123     		mov	r3, #1
 4447 1d7a D022     		mov	r2, #208
 4448 1d7c BA18     		add	r2, r7, r2
 4449 1d7e 1360     		str	r3, [r2]
 700:.\Include/arm_math.h ****     {
 4450              		.loc 2 700 0
 4451 1d80 0023     		mov	r3, #0
 4452 1d82 CC22     		mov	r2, #204
 4453 1d84 BA18     		add	r2, r7, r2
 4454 1d86 1360     		str	r3, [r2]
 4455 1d88 0DE0     		b	.L130
 4456              	.L131:
 702:.\Include/arm_math.h ****     }
 4457              		.loc 2 702 0
 4458 1d8a D023     		mov	r3, #208
 4459 1d8c FB18     		add	r3, r7, r3
 4460 1d8e 1B68     		ldr	r3, [r3]
 4461 1d90 5B00     		lsl	r3, r3, #1
 4462 1d92 D022     		mov	r2, #208
 4463 1d94 BA18     		add	r2, r7, r2
 4464 1d96 1360     		str	r3, [r2]
 700:.\Include/arm_math.h ****     {
 4465              		.loc 2 700 0
 4466 1d98 CC23     		mov	r3, #204
 4467 1d9a FB18     		add	r3, r7, r3
 4468 1d9c 1B68     		ldr	r3, [r3]
 4469 1d9e 0133     		add	r3, r3, #1
 4470 1da0 CC22     		mov	r2, #204
 4471 1da2 BA18     		add	r2, r7, r2
 4472 1da4 1360     		str	r3, [r2]
 4473              	.L130:
 4474 1da6 D423     		mov	r3, #212
 4475 1da8 FB18     		add	r3, r7, r3
 4476 1daa 1B68     		ldr	r3, [r3]
 4477 1dac 013B     		sub	r3, r3, #1
 4478 1dae CC22     		mov	r2, #204
 4479 1db0 BA18     		add	r2, r7, r2
 4480 1db2 1268     		ldr	r2, [r2]
 4481 1db4 9A42     		cmp	r2, r3
 4482 1db6 E8D3     		bcc	.L131
 705:.\Include/arm_math.h ****     {
 4483              		.loc 2 705 0
 4484 1db8 D823     		mov	r3, #216
 4485 1dba FB18     		add	r3, r7, r3
 4486 1dbc 1B68     		ldr	r3, [r3]
 4487 1dbe 002B     		cmp	r3, #0
 4488 1dc0 15DD     		ble	.L132
 707:.\Include/arm_math.h **** 
 4489              		.loc 2 707 0
ARM GAS  C:\Users\fneves\AppData\Local\Temp\cc0ayw4Y.s 			page 112


 4490 1dc2 D023     		mov	r3, #208
 4491 1dc4 FB18     		add	r3, r7, r3
 4492 1dc6 1B68     		ldr	r3, [r3]
 4493 1dc8 013B     		sub	r3, r3, #1
 4494 1dca D022     		mov	r2, #208
 4495 1dcc BA18     		add	r2, r7, r2
 4496 1dce 1360     		str	r3, [r2]
 709:.\Include/arm_math.h ****       {
 4497              		.loc 2 709 0
 4498 1dd0 D823     		mov	r3, #216
 4499 1dd2 FB18     		add	r3, r7, r3
 4500 1dd4 1A68     		ldr	r2, [r3]
 4501 1dd6 D023     		mov	r3, #208
 4502 1dd8 FB18     		add	r3, r7, r3
 4503 1dda 1B68     		ldr	r3, [r3]
 4504 1ddc 9A42     		cmp	r2, r3
 4505 1dde 1CDD     		ble	.L215
 711:.\Include/arm_math.h ****       }
 4506              		.loc 2 711 0
 4507 1de0 D023     		mov	r3, #208
 4508 1de2 FB18     		add	r3, r7, r3
 4509 1de4 1B68     		ldr	r3, [r3]
 4510 1de6 D822     		mov	r2, #216
 4511 1de8 BA18     		add	r2, r7, r2
 4512 1dea 1360     		str	r3, [r2]
 4513 1dec 16E0     		b	.L134
 4514              	.L132:
 716:.\Include/arm_math.h **** 
 4515              		.loc 2 716 0
 4516 1dee D023     		mov	r3, #208
 4517 1df0 FB18     		add	r3, r7, r3
 4518 1df2 1B68     		ldr	r3, [r3]
 4519 1df4 5B42     		neg	r3, r3
 4520 1df6 C822     		mov	r2, #200
 4521 1df8 BA18     		add	r2, r7, r2
 4522 1dfa 1360     		str	r3, [r2]
 718:.\Include/arm_math.h ****       {
 4523              		.loc 2 718 0
 4524 1dfc D823     		mov	r3, #216
 4525 1dfe FB18     		add	r3, r7, r3
 4526 1e00 1A68     		ldr	r2, [r3]
 4527 1e02 C823     		mov	r3, #200
 4528 1e04 FB18     		add	r3, r7, r3
 4529 1e06 1B68     		ldr	r3, [r3]
 4530 1e08 9A42     		cmp	r2, r3
 4531 1e0a 07DA     		bge	.L134
 720:.\Include/arm_math.h ****       }
 4532              		.loc 2 720 0
 4533 1e0c C823     		mov	r3, #200
 4534 1e0e FB18     		add	r3, r7, r3
 4535 1e10 1B68     		ldr	r3, [r3]
 4536 1e12 D822     		mov	r2, #216
 4537 1e14 BA18     		add	r2, r7, r2
 4538 1e16 1360     		str	r3, [r2]
 4539 1e18 00E0     		b	.L134
 4540              	.L215:
 711:.\Include/arm_math.h ****       }
ARM GAS  C:\Users\fneves\AppData\Local\Temp\cc0ayw4Y.s 			page 113


 4541              		.loc 2 711 0
 4542 1e1a C046     		mov	r8, r8
 4543              	.L134:
 4544              		.loc 2 723 0
 4545 1e1c D823     		mov	r3, #216
 4546 1e1e FB18     		add	r3, r7, r3
 4547 1e20 1A68     		ldr	r2, [r3]
 4548              	.LBE163:
 4549              	.LBE162:
 4550              		.loc 1 879 0
 4551 1e22 344B     		ldr	r3, .L241+4
 4552 1e24 FB18     		add	r3, r7, r3
 4553 1e26 1A80     		strh	r2, [r3]
 880:Source\TransformFunctions/arm_cfft_radix4_q15.c ****         T1 = __SSAT(T1 - U1, 16);
 4554              		.loc 1 880 0
 4555 1e28 A223     		mov	r3, #162
 4556 1e2a 9B00     		lsl	r3, r3, #2
 4557 1e2c FB18     		add	r3, r7, r3
 4558 1e2e 0022     		mov	r2, #0
 4559 1e30 9A5E     		ldrsh	r2, [r3, r2]
 4560 1e32 9F23     		mov	r3, #159
 4561 1e34 9B00     		lsl	r3, r3, #2
 4562 1e36 FB18     		add	r3, r7, r3
 4563 1e38 0021     		mov	r1, #0
 4564 1e3a 5B5E     		ldrsh	r3, [r3, r1]
 4565 1e3c D31A     		sub	r3, r2, r3
 4566 1e3e C422     		mov	r2, #196
 4567 1e40 BA18     		add	r2, r7, r2
 4568 1e42 1360     		str	r3, [r2]
 4569 1e44 1023     		mov	r3, #16
 4570 1e46 C022     		mov	r2, #192
 4571 1e48 BA18     		add	r2, r7, r2
 4572 1e4a 1360     		str	r3, [r2]
 4573              	.LBB164:
 4574              	.LBB165:
 699:.\Include/arm_math.h ****     for (i = 0; i < (y - 1); i++)
 4575              		.loc 2 699 0
 4576 1e4c 0123     		mov	r3, #1
 4577 1e4e BC22     		mov	r2, #188
 4578 1e50 BA18     		add	r2, r7, r2
 4579 1e52 1360     		str	r3, [r2]
 700:.\Include/arm_math.h ****     {
 4580              		.loc 2 700 0
 4581 1e54 0023     		mov	r3, #0
 4582 1e56 B822     		mov	r2, #184
 4583 1e58 BA18     		add	r2, r7, r2
 4584 1e5a 1360     		str	r3, [r2]
 4585 1e5c 0DE0     		b	.L136
 4586              	.L137:
 702:.\Include/arm_math.h ****     }
 4587              		.loc 2 702 0
 4588 1e5e BC23     		mov	r3, #188
 4589 1e60 FB18     		add	r3, r7, r3
 4590 1e62 1B68     		ldr	r3, [r3]
 4591 1e64 5B00     		lsl	r3, r3, #1
 4592 1e66 BC22     		mov	r2, #188
 4593 1e68 BA18     		add	r2, r7, r2
ARM GAS  C:\Users\fneves\AppData\Local\Temp\cc0ayw4Y.s 			page 114


 4594 1e6a 1360     		str	r3, [r2]
 700:.\Include/arm_math.h ****     {
 4595              		.loc 2 700 0
 4596 1e6c B823     		mov	r3, #184
 4597 1e6e FB18     		add	r3, r7, r3
 4598 1e70 1B68     		ldr	r3, [r3]
 4599 1e72 0133     		add	r3, r3, #1
 4600 1e74 B822     		mov	r2, #184
 4601 1e76 BA18     		add	r2, r7, r2
 4602 1e78 1360     		str	r3, [r2]
 4603              	.L136:
 4604 1e7a C023     		mov	r3, #192
 4605 1e7c FB18     		add	r3, r7, r3
 4606 1e7e 1B68     		ldr	r3, [r3]
 4607 1e80 013B     		sub	r3, r3, #1
 4608 1e82 B822     		mov	r2, #184
 4609 1e84 BA18     		add	r2, r7, r2
 4610 1e86 1268     		ldr	r2, [r2]
 4611 1e88 9A42     		cmp	r2, r3
 4612 1e8a E8D3     		bcc	.L137
 705:.\Include/arm_math.h ****     {
 4613              		.loc 2 705 0
 4614 1e8c C423     		mov	r3, #196
 4615 1e8e FB18     		add	r3, r7, r3
 4616 1e90 1B68     		ldr	r3, [r3]
 4617 1e92 002B     		cmp	r3, #0
 4618 1e94 15DD     		ble	.L138
 707:.\Include/arm_math.h **** 
 4619              		.loc 2 707 0
 4620 1e96 BC23     		mov	r3, #188
 4621 1e98 FB18     		add	r3, r7, r3
 4622 1e9a 1B68     		ldr	r3, [r3]
 4623 1e9c 013B     		sub	r3, r3, #1
 4624 1e9e BC22     		mov	r2, #188
 4625 1ea0 BA18     		add	r2, r7, r2
 4626 1ea2 1360     		str	r3, [r2]
 709:.\Include/arm_math.h ****       {
 4627              		.loc 2 709 0
 4628 1ea4 C423     		mov	r3, #196
 4629 1ea6 FB18     		add	r3, r7, r3
 4630 1ea8 1A68     		ldr	r2, [r3]
 4631 1eaa BC23     		mov	r3, #188
 4632 1eac FB18     		add	r3, r7, r3
 4633 1eae 1B68     		ldr	r3, [r3]
 4634 1eb0 9A42     		cmp	r2, r3
 4635 1eb2 27DD     		ble	.L216
 711:.\Include/arm_math.h ****       }
 4636              		.loc 2 711 0
 4637 1eb4 BC23     		mov	r3, #188
 4638 1eb6 FB18     		add	r3, r7, r3
 4639 1eb8 1B68     		ldr	r3, [r3]
 4640 1eba C422     		mov	r2, #196
 4641 1ebc BA18     		add	r2, r7, r2
 4642 1ebe 1360     		str	r3, [r2]
 4643 1ec0 21E0     		b	.L140
 4644              	.L138:
 716:.\Include/arm_math.h **** 
ARM GAS  C:\Users\fneves\AppData\Local\Temp\cc0ayw4Y.s 			page 115


 4645              		.loc 2 716 0
 4646 1ec2 BC23     		mov	r3, #188
 4647 1ec4 FB18     		add	r3, r7, r3
 4648 1ec6 1B68     		ldr	r3, [r3]
 4649 1ec8 5B42     		neg	r3, r3
 4650 1eca B422     		mov	r2, #180
 4651 1ecc BA18     		add	r2, r7, r2
 4652 1ece 1360     		str	r3, [r2]
 718:.\Include/arm_math.h ****       {
 4653              		.loc 2 718 0
 4654 1ed0 C423     		mov	r3, #196
 4655 1ed2 FB18     		add	r3, r7, r3
 4656 1ed4 1A68     		ldr	r2, [r3]
 4657 1ed6 B423     		mov	r3, #180
 4658 1ed8 FB18     		add	r3, r7, r3
 4659 1eda 1B68     		ldr	r3, [r3]
 4660 1edc 9A42     		cmp	r2, r3
 4661 1ede 12DA     		bge	.L140
 720:.\Include/arm_math.h ****       }
 4662              		.loc 2 720 0
 4663 1ee0 B423     		mov	r3, #180
 4664 1ee2 FB18     		add	r3, r7, r3
 4665 1ee4 1B68     		ldr	r3, [r3]
 4666 1ee6 C422     		mov	r2, #196
 4667 1ee8 BA18     		add	r2, r7, r2
 4668 1eea 1360     		str	r3, [r2]
 4669 1eec 0BE0     		b	.L140
 4670              	.L242:
 4671 1eee C046     		.align	2
 4672              	.L241:
 4673 1ef0 82020000 		.word	642
 4674 1ef4 8A020000 		.word	650
 4675 1ef8 76020000 		.word	630
 4676 1efc 7A020000 		.word	634
 4677 1f00 7E020000 		.word	638
 4678              	.L216:
 711:.\Include/arm_math.h ****       }
 4679              		.loc 2 711 0
 4680 1f04 C046     		mov	r8, r8
 4681              	.L140:
 4682              		.loc 2 723 0
 4683 1f06 C423     		mov	r3, #196
 4684 1f08 FB18     		add	r3, r7, r3
 4685 1f0a 1A68     		ldr	r2, [r3]
 4686              	.LBE165:
 4687              	.LBE164:
 4688              		.loc 1 880 0
 4689 1f0c A223     		mov	r3, #162
 4690 1f0e 9B00     		lsl	r3, r3, #2
 4691 1f10 FB18     		add	r3, r7, r3
 4692 1f12 1A80     		strh	r2, [r3]
 881:Source\TransformFunctions/arm_cfft_radix4_q15.c **** 
 882:Source\TransformFunctions/arm_cfft_radix4_q15.c ****         /* R0 = (ya-yc) + (xb- xd), R1 = (xa-xc) - (yb-yd)) */
 883:Source\TransformFunctions/arm_cfft_radix4_q15.c ****         R0 = (S0 >> 1u) - (T1 >> 1u);
 4693              		.loc 1 883 0
 4694 1f14 F14B     		ldr	r3, .L243
 4695 1f16 FB18     		add	r3, r7, r3
ARM GAS  C:\Users\fneves\AppData\Local\Temp\cc0ayw4Y.s 			page 116


 4696 1f18 0022     		mov	r2, #0
 4697 1f1a 9B5E     		ldrsh	r3, [r3, r2]
 4698 1f1c 5B10     		asr	r3, r3, #1
 4699 1f1e 9BB2     		uxth	r3, r3
 4700 1f20 9AB2     		uxth	r2, r3
 4701 1f22 A223     		mov	r3, #162
 4702 1f24 9B00     		lsl	r3, r3, #2
 4703 1f26 FB18     		add	r3, r7, r3
 4704 1f28 0021     		mov	r1, #0
 4705 1f2a 5B5E     		ldrsh	r3, [r3, r1]
 4706 1f2c 5B10     		asr	r3, r3, #1
 4707 1f2e 9BB2     		uxth	r3, r3
 4708 1f30 9BB2     		uxth	r3, r3
 4709 1f32 D31A     		sub	r3, r2, r3
 4710 1f34 9AB2     		uxth	r2, r3
 4711 1f36 EA4B     		ldr	r3, .L243+4
 4712 1f38 FB18     		add	r3, r7, r3
 4713 1f3a 1A80     		strh	r2, [r3]
 884:Source\TransformFunctions/arm_cfft_radix4_q15.c ****         R1 = (S1 >> 1u) + (T0 >> 1u);
 4714              		.loc 1 884 0
 4715 1f3c A123     		mov	r3, #161
 4716 1f3e 9B00     		lsl	r3, r3, #2
 4717 1f40 FB18     		add	r3, r7, r3
 4718 1f42 0022     		mov	r2, #0
 4719 1f44 9B5E     		ldrsh	r3, [r3, r2]
 4720 1f46 5B10     		asr	r3, r3, #1
 4721 1f48 9BB2     		uxth	r3, r3
 4722 1f4a 9AB2     		uxth	r2, r3
 4723 1f4c E54B     		ldr	r3, .L243+8
 4724 1f4e FB18     		add	r3, r7, r3
 4725 1f50 0021     		mov	r1, #0
 4726 1f52 5B5E     		ldrsh	r3, [r3, r1]
 4727 1f54 5B10     		asr	r3, r3, #1
 4728 1f56 9BB2     		uxth	r3, r3
 4729 1f58 9BB2     		uxth	r3, r3
 4730 1f5a D318     		add	r3, r2, r3
 4731 1f5c 9AB2     		uxth	r2, r3
 4732 1f5e A023     		mov	r3, #160
 4733 1f60 9B00     		lsl	r3, r3, #2
 4734 1f62 FB18     		add	r3, r7, r3
 4735 1f64 1A80     		strh	r2, [r3]
 885:Source\TransformFunctions/arm_cfft_radix4_q15.c **** 
 886:Source\TransformFunctions/arm_cfft_radix4_q15.c ****         /* S0 = (ya-yc) - (xb- xd), S1 = (xa-xc) + (yb-yd)) */
 887:Source\TransformFunctions/arm_cfft_radix4_q15.c ****         S0 = (S0 >> 1u) + (T1 >> 1u);
 4736              		.loc 1 887 0
 4737 1f66 DD4B     		ldr	r3, .L243
 4738 1f68 FB18     		add	r3, r7, r3
 4739 1f6a 0022     		mov	r2, #0
 4740 1f6c 9B5E     		ldrsh	r3, [r3, r2]
 4741 1f6e 5B10     		asr	r3, r3, #1
 4742 1f70 9BB2     		uxth	r3, r3
 4743 1f72 9AB2     		uxth	r2, r3
 4744 1f74 A223     		mov	r3, #162
 4745 1f76 9B00     		lsl	r3, r3, #2
 4746 1f78 FB18     		add	r3, r7, r3
 4747 1f7a 0021     		mov	r1, #0
 4748 1f7c 5B5E     		ldrsh	r3, [r3, r1]
ARM GAS  C:\Users\fneves\AppData\Local\Temp\cc0ayw4Y.s 			page 117


 4749 1f7e 5B10     		asr	r3, r3, #1
 4750 1f80 9BB2     		uxth	r3, r3
 4751 1f82 9BB2     		uxth	r3, r3
 4752 1f84 D318     		add	r3, r2, r3
 4753 1f86 9AB2     		uxth	r2, r3
 4754 1f88 D44B     		ldr	r3, .L243
 4755 1f8a FB18     		add	r3, r7, r3
 4756 1f8c 1A80     		strh	r2, [r3]
 888:Source\TransformFunctions/arm_cfft_radix4_q15.c ****         S1 = (S1 >> 1u) - (T0 >> 1u);
 4757              		.loc 1 888 0
 4758 1f8e A123     		mov	r3, #161
 4759 1f90 9B00     		lsl	r3, r3, #2
 4760 1f92 FB18     		add	r3, r7, r3
 4761 1f94 0022     		mov	r2, #0
 4762 1f96 9B5E     		ldrsh	r3, [r3, r2]
 4763 1f98 5B10     		asr	r3, r3, #1
 4764 1f9a 9BB2     		uxth	r3, r3
 4765 1f9c 9AB2     		uxth	r2, r3
 4766 1f9e D14B     		ldr	r3, .L243+8
 4767 1fa0 FB18     		add	r3, r7, r3
 4768 1fa2 0021     		mov	r1, #0
 4769 1fa4 5B5E     		ldrsh	r3, [r3, r1]
 4770 1fa6 5B10     		asr	r3, r3, #1
 4771 1fa8 9BB2     		uxth	r3, r3
 4772 1faa 9BB2     		uxth	r3, r3
 4773 1fac D31A     		sub	r3, r2, r3
 4774 1fae 9AB2     		uxth	r2, r3
 4775 1fb0 A123     		mov	r3, #161
 4776 1fb2 9B00     		lsl	r3, r3, #2
 4777 1fb4 FB18     		add	r3, r7, r3
 4778 1fb6 1A80     		strh	r2, [r3]
 889:Source\TransformFunctions/arm_cfft_radix4_q15.c **** 
 890:Source\TransformFunctions/arm_cfft_radix4_q15.c ****         /*  Butterfly process for the i0+fftLen/2 sample */
 891:Source\TransformFunctions/arm_cfft_radix4_q15.c ****         out1 = (q15_t) ((Co1 * S0 + Si1 * S1) >> 16u);
 4779              		.loc 1 891 0
 4780 1fb8 CB4B     		ldr	r3, .L243+12
 4781 1fba FB18     		add	r3, r7, r3
 4782 1fbc 0022     		mov	r2, #0
 4783 1fbe 9B5E     		ldrsh	r3, [r3, r2]
 4784 1fc0 C64A     		ldr	r2, .L243
 4785 1fc2 BA18     		add	r2, r7, r2
 4786 1fc4 0021     		mov	r1, #0
 4787 1fc6 525E     		ldrsh	r2, [r2, r1]
 4788 1fc8 5A43     		mul	r2, r3
 4789 1fca 9C23     		mov	r3, #156
 4790 1fcc 9B00     		lsl	r3, r3, #2
 4791 1fce FB18     		add	r3, r7, r3
 4792 1fd0 0021     		mov	r1, #0
 4793 1fd2 5B5E     		ldrsh	r3, [r3, r1]
 4794 1fd4 A121     		mov	r1, #161
 4795 1fd6 8900     		lsl	r1, r1, #2
 4796 1fd8 7918     		add	r1, r7, r1
 4797 1fda 0020     		mov	r0, #0
 4798 1fdc 095E     		ldrsh	r1, [r1, r0]
 4799 1fde 4B43     		mul	r3, r1
 4800 1fe0 D318     		add	r3, r2, r3
 4801 1fe2 1A14     		asr	r2, r3, #16
ARM GAS  C:\Users\fneves\AppData\Local\Temp\cc0ayw4Y.s 			page 118


 4802 1fe4 C14B     		ldr	r3, .L243+16
 4803 1fe6 FB18     		add	r3, r7, r3
 4804 1fe8 1A80     		strh	r2, [r3]
 892:Source\TransformFunctions/arm_cfft_radix4_q15.c **** 
 893:Source\TransformFunctions/arm_cfft_radix4_q15.c ****         out2 = (q15_t) ((-Si1 * S0 + Co1 * S1) >> 16u);
 4805              		.loc 1 893 0
 4806 1fea 9C23     		mov	r3, #156
 4807 1fec 9B00     		lsl	r3, r3, #2
 4808 1fee FB18     		add	r3, r7, r3
 4809 1ff0 0022     		mov	r2, #0
 4810 1ff2 9B5E     		ldrsh	r3, [r3, r2]
 4811 1ff4 5B42     		neg	r3, r3
 4812 1ff6 B94A     		ldr	r2, .L243
 4813 1ff8 BA18     		add	r2, r7, r2
 4814 1ffa 0021     		mov	r1, #0
 4815 1ffc 525E     		ldrsh	r2, [r2, r1]
 4816 1ffe 5A43     		mul	r2, r3
 4817 2000 B94B     		ldr	r3, .L243+12
 4818 2002 FB18     		add	r3, r7, r3
 4819 2004 0021     		mov	r1, #0
 4820 2006 5B5E     		ldrsh	r3, [r3, r1]
 4821 2008 A121     		mov	r1, #161
 4822 200a 8900     		lsl	r1, r1, #2
 4823 200c 7918     		add	r1, r7, r1
 4824 200e 0020     		mov	r0, #0
 4825 2010 095E     		ldrsh	r1, [r1, r0]
 4826 2012 4B43     		mul	r3, r1
 4827 2014 D318     		add	r3, r2, r3
 4828 2016 1A14     		asr	r2, r3, #16
 4829 2018 9D23     		mov	r3, #157
 4830 201a 9B00     		lsl	r3, r3, #2
 4831 201c FB18     		add	r3, r7, r3
 4832 201e 1A80     		strh	r2, [r3]
 894:Source\TransformFunctions/arm_cfft_radix4_q15.c **** 
 895:Source\TransformFunctions/arm_cfft_radix4_q15.c ****         /* xb' = (xa+yb-xc-yd)* co1 + (ya-xb-yc+xd)* (si1) */
 896:Source\TransformFunctions/arm_cfft_radix4_q15.c ****         /* yb' = (ya-xb-yc+xd)* co1 - (xa+yb-xc-yd)* (si1) */
 897:Source\TransformFunctions/arm_cfft_radix4_q15.c ****         pSrc16[i2 * 2u] = out1;
 4833              		.loc 1 897 0
 4834 2020 A423     		mov	r3, #164
 4835 2022 9B00     		lsl	r3, r3, #2
 4836 2024 FB18     		add	r3, r7, r3
 4837 2026 1B68     		ldr	r3, [r3]
 4838 2028 9B00     		lsl	r3, r3, #2
 4839 202a FA68     		ldr	r2, [r7, #12]
 4840 202c D318     		add	r3, r2, r3
 4841 202e AF4A     		ldr	r2, .L243+16
 4842 2030 BA18     		add	r2, r7, r2
 4843 2032 1288     		ldrh	r2, [r2]
 4844 2034 1A80     		strh	r2, [r3]
 898:Source\TransformFunctions/arm_cfft_radix4_q15.c ****         pSrc16[(i2 * 2u) + 1u] = out2;
 4845              		.loc 1 898 0
 4846 2036 A423     		mov	r3, #164
 4847 2038 9B00     		lsl	r3, r3, #2
 4848 203a FB18     		add	r3, r7, r3
 4849 203c 1B68     		ldr	r3, [r3]
 4850 203e 9B00     		lsl	r3, r3, #2
 4851 2040 0233     		add	r3, r3, #2
ARM GAS  C:\Users\fneves\AppData\Local\Temp\cc0ayw4Y.s 			page 119


 4852 2042 FA68     		ldr	r2, [r7, #12]
 4853 2044 D318     		add	r3, r2, r3
 4854 2046 9D22     		mov	r2, #157
 4855 2048 9200     		lsl	r2, r2, #2
 4856 204a BA18     		add	r2, r7, r2
 4857 204c 1288     		ldrh	r2, [r2]
 4858 204e 1A80     		strh	r2, [r3]
 899:Source\TransformFunctions/arm_cfft_radix4_q15.c **** 
 900:Source\TransformFunctions/arm_cfft_radix4_q15.c ****         /*  Butterfly process for the i0+3fftLen/4 sample */
 901:Source\TransformFunctions/arm_cfft_radix4_q15.c ****         out1 = (q15_t) ((Si3 * R1 + Co3 * R0) >> 16u);
 4859              		.loc 1 901 0
 4860 2050 9B23     		mov	r3, #155
 4861 2052 9B00     		lsl	r3, r3, #2
 4862 2054 FB18     		add	r3, r7, r3
 4863 2056 0022     		mov	r2, #0
 4864 2058 9B5E     		ldrsh	r3, [r3, r2]
 4865 205a A022     		mov	r2, #160
 4866 205c 9200     		lsl	r2, r2, #2
 4867 205e BA18     		add	r2, r7, r2
 4868 2060 0021     		mov	r1, #0
 4869 2062 525E     		ldrsh	r2, [r2, r1]
 4870 2064 5A43     		mul	r2, r3
 4871 2066 A24B     		ldr	r3, .L243+20
 4872 2068 FB18     		add	r3, r7, r3
 4873 206a 0021     		mov	r1, #0
 4874 206c 5B5E     		ldrsh	r3, [r3, r1]
 4875 206e 9C49     		ldr	r1, .L243+4
 4876 2070 7918     		add	r1, r7, r1
 4877 2072 0020     		mov	r0, #0
 4878 2074 095E     		ldrsh	r1, [r1, r0]
 4879 2076 4B43     		mul	r3, r1
 4880 2078 D318     		add	r3, r2, r3
 4881 207a 1A14     		asr	r2, r3, #16
 4882 207c 9B4B     		ldr	r3, .L243+16
 4883 207e FB18     		add	r3, r7, r3
 4884 2080 1A80     		strh	r2, [r3]
 902:Source\TransformFunctions/arm_cfft_radix4_q15.c **** 
 903:Source\TransformFunctions/arm_cfft_radix4_q15.c ****         out2 = (q15_t) ((-Si3 * R0 + Co3 * R1) >> 16u);
 4885              		.loc 1 903 0
 4886 2082 9B23     		mov	r3, #155
 4887 2084 9B00     		lsl	r3, r3, #2
 4888 2086 FB18     		add	r3, r7, r3
 4889 2088 0022     		mov	r2, #0
 4890 208a 9B5E     		ldrsh	r3, [r3, r2]
 4891 208c 5B42     		neg	r3, r3
 4892 208e 944A     		ldr	r2, .L243+4
 4893 2090 BA18     		add	r2, r7, r2
 4894 2092 0021     		mov	r1, #0
 4895 2094 525E     		ldrsh	r2, [r2, r1]
 4896 2096 5A43     		mul	r2, r3
 4897 2098 954B     		ldr	r3, .L243+20
 4898 209a FB18     		add	r3, r7, r3
 4899 209c 0021     		mov	r1, #0
 4900 209e 5B5E     		ldrsh	r3, [r3, r1]
 4901 20a0 A021     		mov	r1, #160
 4902 20a2 8900     		lsl	r1, r1, #2
 4903 20a4 7918     		add	r1, r7, r1
ARM GAS  C:\Users\fneves\AppData\Local\Temp\cc0ayw4Y.s 			page 120


 4904 20a6 0020     		mov	r0, #0
 4905 20a8 095E     		ldrsh	r1, [r1, r0]
 4906 20aa 4B43     		mul	r3, r1
 4907 20ac D318     		add	r3, r2, r3
 4908 20ae 1A14     		asr	r2, r3, #16
 4909 20b0 9D23     		mov	r3, #157
 4910 20b2 9B00     		lsl	r3, r3, #2
 4911 20b4 FB18     		add	r3, r7, r3
 4912 20b6 1A80     		strh	r2, [r3]
 904:Source\TransformFunctions/arm_cfft_radix4_q15.c ****         /* xd' = (xa-yb-xc+yd)* Co3 + (ya+xb-yc-xd)* (si3) */
 905:Source\TransformFunctions/arm_cfft_radix4_q15.c ****         /* yd' = (ya+xb-yc-xd)* Co3 - (xa-yb-xc+yd)* (si3) */
 906:Source\TransformFunctions/arm_cfft_radix4_q15.c ****         pSrc16[i3 * 2u] = out1;
 4913              		.loc 1 906 0
 4914 20b8 A323     		mov	r3, #163
 4915 20ba 9B00     		lsl	r3, r3, #2
 4916 20bc FB18     		add	r3, r7, r3
 4917 20be 1B68     		ldr	r3, [r3]
 4918 20c0 9B00     		lsl	r3, r3, #2
 4919 20c2 FA68     		ldr	r2, [r7, #12]
 4920 20c4 D318     		add	r3, r2, r3
 4921 20c6 894A     		ldr	r2, .L243+16
 4922 20c8 BA18     		add	r2, r7, r2
 4923 20ca 1288     		ldrh	r2, [r2]
 4924 20cc 1A80     		strh	r2, [r3]
 907:Source\TransformFunctions/arm_cfft_radix4_q15.c ****         pSrc16[(i3 * 2u) + 1u] = out2;
 4925              		.loc 1 907 0
 4926 20ce A323     		mov	r3, #163
 4927 20d0 9B00     		lsl	r3, r3, #2
 4928 20d2 FB18     		add	r3, r7, r3
 4929 20d4 1B68     		ldr	r3, [r3]
 4930 20d6 9B00     		lsl	r3, r3, #2
 4931 20d8 0233     		add	r3, r3, #2
 4932 20da FA68     		ldr	r2, [r7, #12]
 4933 20dc D318     		add	r3, r2, r3
 4934 20de 9D22     		mov	r2, #157
 4935 20e0 9200     		lsl	r2, r2, #2
 4936 20e2 BA18     		add	r2, r7, r2
 4937 20e4 1288     		ldrh	r2, [r2]
 4938 20e6 1A80     		strh	r2, [r3]
 802:Source\TransformFunctions/arm_cfft_radix4_q15.c ****       {
 4939              		.loc 1 802 0
 4940 20e8 A923     		mov	r3, #169
 4941 20ea 9B00     		lsl	r3, r3, #2
 4942 20ec FB18     		add	r3, r7, r3
 4943 20ee 1A68     		ldr	r2, [r3]
 4944 20f0 A623     		mov	r3, #166
 4945 20f2 9B00     		lsl	r3, r3, #2
 4946 20f4 FB18     		add	r3, r7, r3
 4947 20f6 1B68     		ldr	r3, [r3]
 4948 20f8 D318     		add	r3, r2, r3
 4949 20fa A922     		mov	r2, #169
 4950 20fc 9200     		lsl	r2, r2, #2
 4951 20fe BA18     		add	r2, r7, r2
 4952 2100 1360     		str	r3, [r2]
 4953              	.L93:
 802:Source\TransformFunctions/arm_cfft_radix4_q15.c ****       {
 4954              		.loc 1 802 0 is_stmt 0 discriminator 1
ARM GAS  C:\Users\fneves\AppData\Local\Temp\cc0ayw4Y.s 			page 121


 4955 2102 A923     		mov	r3, #169
 4956 2104 9B00     		lsl	r3, r3, #2
 4957 2106 FB18     		add	r3, r7, r3
 4958 2108 1A68     		ldr	r2, [r3]
 4959 210a BB68     		ldr	r3, [r7, #8]
 4960 210c 9A42     		cmp	r2, r3
 4961 210e 01D2     		bcs	.LCB4592
 4962 2110 FFF7D4F9 		bl	.L142	@far jump
 4963              	.LCB4592:
 788:Source\TransformFunctions/arm_cfft_radix4_q15.c ****     {
 4964              		.loc 1 788 0 is_stmt 1 discriminator 2
 4965 2114 A823     		mov	r3, #168
 4966 2116 9B00     		lsl	r3, r3, #2
 4967 2118 FB18     		add	r3, r7, r3
 4968 211a 1B68     		ldr	r3, [r3]
 4969 211c 0133     		add	r3, r3, #1
 4970 211e A822     		mov	r2, #168
 4971 2120 9200     		lsl	r2, r2, #2
 4972 2122 BA18     		add	r2, r7, r2
 4973 2124 1360     		str	r3, [r2]
 4974              	.L92:
 788:Source\TransformFunctions/arm_cfft_radix4_q15.c ****     {
 4975              		.loc 1 788 0 is_stmt 0 discriminator 1
 4976 2126 AB23     		mov	r3, #171
 4977 2128 9B00     		lsl	r3, r3, #2
 4978 212a FB18     		add	r3, r7, r3
 4979 212c 1B68     		ldr	r3, [r3]
 4980 212e 5A1E     		sub	r2, r3, #1
 4981 2130 A823     		mov	r3, #168
 4982 2132 9B00     		lsl	r3, r3, #2
 4983 2134 FB18     		add	r3, r7, r3
 4984 2136 1B68     		ldr	r3, [r3]
 4985 2138 9A42     		cmp	r2, r3
 4986 213a 01D3     		bcc	.LCB4614
 4987 213c FFF74EF9 		bl	.L143	@far jump
 4988              	.LCB4614:
 908:Source\TransformFunctions/arm_cfft_radix4_q15.c ****       }
 909:Source\TransformFunctions/arm_cfft_radix4_q15.c ****     }
 910:Source\TransformFunctions/arm_cfft_radix4_q15.c ****     /*  Twiddle coefficients index modifier */
 911:Source\TransformFunctions/arm_cfft_radix4_q15.c ****     twidCoefModifier <<= 2u;
 4989              		.loc 1 911 0 is_stmt 1 discriminator 2
 4990 2140 3B68     		ldr	r3, [r7]
 4991 2142 9B00     		lsl	r3, r3, #2
 4992 2144 3B60     		str	r3, [r7]
 781:Source\TransformFunctions/arm_cfft_radix4_q15.c ****   {
 4993              		.loc 1 781 0 discriminator 2
 4994 2146 A723     		mov	r3, #167
 4995 2148 9B00     		lsl	r3, r3, #2
 4996 214a FB18     		add	r3, r7, r3
 4997 214c 1B68     		ldr	r3, [r3]
 4998 214e 9B08     		lsr	r3, r3, #2
 4999 2150 A722     		mov	r2, #167
 5000 2152 9200     		lsl	r2, r2, #2
 5001 2154 BA18     		add	r2, r7, r2
 5002 2156 1360     		str	r3, [r2]
 5003              	.L91:
 781:Source\TransformFunctions/arm_cfft_radix4_q15.c ****   {
ARM GAS  C:\Users\fneves\AppData\Local\Temp\cc0ayw4Y.s 			page 122


 5004              		.loc 1 781 0 is_stmt 0 discriminator 1
 5005 2158 A723     		mov	r3, #167
 5006 215a 9B00     		lsl	r3, r3, #2
 5007 215c FB18     		add	r3, r7, r3
 5008 215e 1B68     		ldr	r3, [r3]
 5009 2160 042B     		cmp	r3, #4
 5010 2162 01D9     		bls	.LCB4634
 5011 2164 FFF71DF9 		bl	.L144	@far jump
 5012              	.LCB4634:
 912:Source\TransformFunctions/arm_cfft_radix4_q15.c ****   }
 913:Source\TransformFunctions/arm_cfft_radix4_q15.c ****   /* end of middle stage process */
 914:Source\TransformFunctions/arm_cfft_radix4_q15.c **** 
 915:Source\TransformFunctions/arm_cfft_radix4_q15.c **** 
 916:Source\TransformFunctions/arm_cfft_radix4_q15.c ****   /* data is in 10.6(q6) format for the 1024 point */
 917:Source\TransformFunctions/arm_cfft_radix4_q15.c ****   /* data is in 8.8(q8) format for the 256 point */
 918:Source\TransformFunctions/arm_cfft_radix4_q15.c ****   /* data is in 6.10(q10) format for the 64 point */
 919:Source\TransformFunctions/arm_cfft_radix4_q15.c ****   /* data is in 4.12(q12) format for the 16 point */
 920:Source\TransformFunctions/arm_cfft_radix4_q15.c **** 
 921:Source\TransformFunctions/arm_cfft_radix4_q15.c ****   /*  Initializations for the last stage */
 922:Source\TransformFunctions/arm_cfft_radix4_q15.c ****   n1 = n2;
 5013              		.loc 1 922 0 is_stmt 1
 5014 2168 AB23     		mov	r3, #171
 5015 216a 9B00     		lsl	r3, r3, #2
 5016 216c FB18     		add	r3, r7, r3
 5017 216e 1B68     		ldr	r3, [r3]
 5018 2170 A622     		mov	r2, #166
 5019 2172 9200     		lsl	r2, r2, #2
 5020 2174 BA18     		add	r2, r7, r2
 5021 2176 1360     		str	r3, [r2]
 923:Source\TransformFunctions/arm_cfft_radix4_q15.c ****   n2 >>= 2u;
 5022              		.loc 1 923 0
 5023 2178 AB23     		mov	r3, #171
 5024 217a 9B00     		lsl	r3, r3, #2
 5025 217c FB18     		add	r3, r7, r3
 5026 217e 1B68     		ldr	r3, [r3]
 5027 2180 9B08     		lsr	r3, r3, #2
 5028 2182 AB22     		mov	r2, #171
 5029 2184 9200     		lsl	r2, r2, #2
 5030 2186 BA18     		add	r2, r7, r2
 5031 2188 1360     		str	r3, [r2]
 924:Source\TransformFunctions/arm_cfft_radix4_q15.c **** 
 925:Source\TransformFunctions/arm_cfft_radix4_q15.c ****   /* start of last stage process */
 926:Source\TransformFunctions/arm_cfft_radix4_q15.c **** 
 927:Source\TransformFunctions/arm_cfft_radix4_q15.c ****   /*  Butterfly implementation */
 928:Source\TransformFunctions/arm_cfft_radix4_q15.c ****   for (i0 = 0u; i0 <= (fftLen - n1); i0 += n1)
 5032              		.loc 1 928 0
 5033 218a 0023     		mov	r3, #0
 5034 218c A922     		mov	r2, #169
 5035 218e 9200     		lsl	r2, r2, #2
 5036 2190 BA18     		add	r2, r7, r2
 5037 2192 1360     		str	r3, [r2]
 5038 2194 00F006FC 		bl	.L145	@ far jump
 5039              	.L194:
 929:Source\TransformFunctions/arm_cfft_radix4_q15.c ****   {
 930:Source\TransformFunctions/arm_cfft_radix4_q15.c ****     /*  index calculation for the input as, */
 931:Source\TransformFunctions/arm_cfft_radix4_q15.c ****     /*  pSrc16[i0 + 0], pSrc16[i0 + fftLen/4], pSrc16[i0 + fftLen/2], pSrc16[i0 + 3fftLen/4] */
 932:Source\TransformFunctions/arm_cfft_radix4_q15.c ****     i1 = i0 + n2;
ARM GAS  C:\Users\fneves\AppData\Local\Temp\cc0ayw4Y.s 			page 123


 5040              		.loc 1 932 0 discriminator 3
 5041 2198 A923     		mov	r3, #169
 5042 219a 9B00     		lsl	r3, r3, #2
 5043 219c FB18     		add	r3, r7, r3
 5044 219e 1A68     		ldr	r2, [r3]
 5045 21a0 AB23     		mov	r3, #171
 5046 21a2 9B00     		lsl	r3, r3, #2
 5047 21a4 FB18     		add	r3, r7, r3
 5048 21a6 1B68     		ldr	r3, [r3]
 5049 21a8 D318     		add	r3, r2, r3
 5050 21aa A522     		mov	r2, #165
 5051 21ac 9200     		lsl	r2, r2, #2
 5052 21ae BA18     		add	r2, r7, r2
 5053 21b0 1360     		str	r3, [r2]
 933:Source\TransformFunctions/arm_cfft_radix4_q15.c ****     i2 = i1 + n2;
 5054              		.loc 1 933 0 discriminator 3
 5055 21b2 A523     		mov	r3, #165
 5056 21b4 9B00     		lsl	r3, r3, #2
 5057 21b6 FB18     		add	r3, r7, r3
 5058 21b8 1A68     		ldr	r2, [r3]
 5059 21ba AB23     		mov	r3, #171
 5060 21bc 9B00     		lsl	r3, r3, #2
 5061 21be FB18     		add	r3, r7, r3
 5062 21c0 1B68     		ldr	r3, [r3]
 5063 21c2 D318     		add	r3, r2, r3
 5064 21c4 A422     		mov	r2, #164
 5065 21c6 9200     		lsl	r2, r2, #2
 5066 21c8 BA18     		add	r2, r7, r2
 5067 21ca 1360     		str	r3, [r2]
 934:Source\TransformFunctions/arm_cfft_radix4_q15.c ****     i3 = i2 + n2;
 5068              		.loc 1 934 0 discriminator 3
 5069 21cc A423     		mov	r3, #164
 5070 21ce 9B00     		lsl	r3, r3, #2
 5071 21d0 FB18     		add	r3, r7, r3
 5072 21d2 1A68     		ldr	r2, [r3]
 5073 21d4 AB23     		mov	r3, #171
 5074 21d6 9B00     		lsl	r3, r3, #2
 5075 21d8 FB18     		add	r3, r7, r3
 5076 21da 1B68     		ldr	r3, [r3]
 5077 21dc D318     		add	r3, r2, r3
 5078 21de A322     		mov	r2, #163
 5079 21e0 9200     		lsl	r2, r2, #2
 5080 21e2 BA18     		add	r2, r7, r2
 5081 21e4 1360     		str	r3, [r2]
 935:Source\TransformFunctions/arm_cfft_radix4_q15.c **** 
 936:Source\TransformFunctions/arm_cfft_radix4_q15.c ****     /*  Reading i0, i0+fftLen/2 inputs */
 937:Source\TransformFunctions/arm_cfft_radix4_q15.c ****     /* Read ya (real), xa(imag) input */
 938:Source\TransformFunctions/arm_cfft_radix4_q15.c ****     T0 = pSrc16[i0 * 2u];
 5082              		.loc 1 938 0 discriminator 3
 5083 21e6 A923     		mov	r3, #169
 5084 21e8 9B00     		lsl	r3, r3, #2
 5085 21ea FB18     		add	r3, r7, r3
 5086 21ec 1B68     		ldr	r3, [r3]
 5087 21ee 9B00     		lsl	r3, r3, #2
 5088 21f0 FA68     		ldr	r2, [r7, #12]
 5089 21f2 D218     		add	r2, r2, r3
 5090 21f4 3B4B     		ldr	r3, .L243+8
ARM GAS  C:\Users\fneves\AppData\Local\Temp\cc0ayw4Y.s 			page 124


 5091 21f6 FB18     		add	r3, r7, r3
 5092 21f8 1288     		ldrh	r2, [r2]
 5093 21fa 1A80     		strh	r2, [r3]
 939:Source\TransformFunctions/arm_cfft_radix4_q15.c ****     T1 = pSrc16[(i0 * 2u) + 1u];
 5094              		.loc 1 939 0 discriminator 3
 5095 21fc A923     		mov	r3, #169
 5096 21fe 9B00     		lsl	r3, r3, #2
 5097 2200 FB18     		add	r3, r7, r3
 5098 2202 1B68     		ldr	r3, [r3]
 5099 2204 9B00     		lsl	r3, r3, #2
 5100 2206 0233     		add	r3, r3, #2
 5101 2208 FA68     		ldr	r2, [r7, #12]
 5102 220a D218     		add	r2, r2, r3
 5103 220c A223     		mov	r3, #162
 5104 220e 9B00     		lsl	r3, r3, #2
 5105 2210 FB18     		add	r3, r7, r3
 5106 2212 1288     		ldrh	r2, [r2]
 5107 2214 1A80     		strh	r2, [r3]
 940:Source\TransformFunctions/arm_cfft_radix4_q15.c **** 
 941:Source\TransformFunctions/arm_cfft_radix4_q15.c ****     /* Read yc (real), xc(imag) input */
 942:Source\TransformFunctions/arm_cfft_radix4_q15.c ****     S0 = pSrc16[i2 * 2u];
 5108              		.loc 1 942 0 discriminator 3
 5109 2216 A423     		mov	r3, #164
 5110 2218 9B00     		lsl	r3, r3, #2
 5111 221a FB18     		add	r3, r7, r3
 5112 221c 1B68     		ldr	r3, [r3]
 5113 221e 9B00     		lsl	r3, r3, #2
 5114 2220 FA68     		ldr	r2, [r7, #12]
 5115 2222 D218     		add	r2, r2, r3
 5116 2224 2D4B     		ldr	r3, .L243
 5117 2226 FB18     		add	r3, r7, r3
 5118 2228 1288     		ldrh	r2, [r2]
 5119 222a 1A80     		strh	r2, [r3]
 943:Source\TransformFunctions/arm_cfft_radix4_q15.c ****     S1 = pSrc16[(i2 * 2u) + 1u];
 5120              		.loc 1 943 0 discriminator 3
 5121 222c A423     		mov	r3, #164
 5122 222e 9B00     		lsl	r3, r3, #2
 5123 2230 FB18     		add	r3, r7, r3
 5124 2232 1B68     		ldr	r3, [r3]
 5125 2234 9B00     		lsl	r3, r3, #2
 5126 2236 0233     		add	r3, r3, #2
 5127 2238 FA68     		ldr	r2, [r7, #12]
 5128 223a D218     		add	r2, r2, r3
 5129 223c A123     		mov	r3, #161
 5130 223e 9B00     		lsl	r3, r3, #2
 5131 2240 FB18     		add	r3, r7, r3
 5132 2242 1288     		ldrh	r2, [r2]
 5133 2244 1A80     		strh	r2, [r3]
 944:Source\TransformFunctions/arm_cfft_radix4_q15.c **** 
 945:Source\TransformFunctions/arm_cfft_radix4_q15.c ****     /* R0 = (ya + yc), R1 = (xa + xc) */
 946:Source\TransformFunctions/arm_cfft_radix4_q15.c ****     R0 = __SSAT(T0 + S0, 16u);
 5134              		.loc 1 946 0 discriminator 3
 5135 2246 274B     		ldr	r3, .L243+8
 5136 2248 FB18     		add	r3, r7, r3
 5137 224a 0022     		mov	r2, #0
 5138 224c 9A5E     		ldrsh	r2, [r3, r2]
 5139 224e 234B     		ldr	r3, .L243
ARM GAS  C:\Users\fneves\AppData\Local\Temp\cc0ayw4Y.s 			page 125


 5140 2250 FB18     		add	r3, r7, r3
 5141 2252 0021     		mov	r1, #0
 5142 2254 5B5E     		ldrsh	r3, [r3, r1]
 5143 2256 D318     		add	r3, r2, r3
 5144 2258 B022     		mov	r2, #176
 5145 225a BA18     		add	r2, r7, r2
 5146 225c 1360     		str	r3, [r2]
 5147 225e 1023     		mov	r3, #16
 5148 2260 AC22     		mov	r2, #172
 5149 2262 BA18     		add	r2, r7, r2
 5150 2264 1360     		str	r3, [r2]
 5151              	.LBB166:
 5152              	.LBB167:
 699:.\Include/arm_math.h ****     for (i = 0; i < (y - 1); i++)
 5153              		.loc 2 699 0 discriminator 3
 5154 2266 0123     		mov	r3, #1
 5155 2268 A822     		mov	r2, #168
 5156 226a BA18     		add	r2, r7, r2
 5157 226c 1360     		str	r3, [r2]
 700:.\Include/arm_math.h ****     {
 5158              		.loc 2 700 0 discriminator 3
 5159 226e 0023     		mov	r3, #0
 5160 2270 A422     		mov	r2, #164
 5161 2272 BA18     		add	r2, r7, r2
 5162 2274 1360     		str	r3, [r2]
 5163 2276 0DE0     		b	.L146
 5164              	.L147:
 702:.\Include/arm_math.h ****     }
 5165              		.loc 2 702 0
 5166 2278 A823     		mov	r3, #168
 5167 227a FB18     		add	r3, r7, r3
 5168 227c 1B68     		ldr	r3, [r3]
 5169 227e 5B00     		lsl	r3, r3, #1
 5170 2280 A822     		mov	r2, #168
 5171 2282 BA18     		add	r2, r7, r2
 5172 2284 1360     		str	r3, [r2]
 700:.\Include/arm_math.h ****     {
 5173              		.loc 2 700 0
 5174 2286 A423     		mov	r3, #164
 5175 2288 FB18     		add	r3, r7, r3
 5176 228a 1B68     		ldr	r3, [r3]
 5177 228c 0133     		add	r3, r3, #1
 5178 228e A422     		mov	r2, #164
 5179 2290 BA18     		add	r2, r7, r2
 5180 2292 1360     		str	r3, [r2]
 5181              	.L146:
 5182 2294 AC23     		mov	r3, #172
 5183 2296 FB18     		add	r3, r7, r3
 5184 2298 1B68     		ldr	r3, [r3]
 5185 229a 013B     		sub	r3, r3, #1
 5186 229c A422     		mov	r2, #164
 5187 229e BA18     		add	r2, r7, r2
 5188 22a0 1268     		ldr	r2, [r2]
 5189 22a2 9A42     		cmp	r2, r3
 5190 22a4 E8D3     		bcc	.L147
 705:.\Include/arm_math.h ****     {
 5191              		.loc 2 705 0
ARM GAS  C:\Users\fneves\AppData\Local\Temp\cc0ayw4Y.s 			page 126


 5192 22a6 B023     		mov	r3, #176
 5193 22a8 FB18     		add	r3, r7, r3
 5194 22aa 1B68     		ldr	r3, [r3]
 5195 22ac 002B     		cmp	r3, #0
 5196 22ae 21DD     		ble	.L148
 707:.\Include/arm_math.h **** 
 5197              		.loc 2 707 0
 5198 22b0 A823     		mov	r3, #168
 5199 22b2 FB18     		add	r3, r7, r3
 5200 22b4 1B68     		ldr	r3, [r3]
 5201 22b6 013B     		sub	r3, r3, #1
 5202 22b8 A822     		mov	r2, #168
 5203 22ba BA18     		add	r2, r7, r2
 5204 22bc 1360     		str	r3, [r2]
 709:.\Include/arm_math.h ****       {
 5205              		.loc 2 709 0
 5206 22be B023     		mov	r3, #176
 5207 22c0 FB18     		add	r3, r7, r3
 5208 22c2 1A68     		ldr	r2, [r3]
 5209 22c4 A823     		mov	r3, #168
 5210 22c6 FB18     		add	r3, r7, r3
 5211 22c8 1B68     		ldr	r3, [r3]
 5212 22ca 9A42     		cmp	r2, r3
 5213 22cc 28DD     		ble	.L217
 711:.\Include/arm_math.h ****       }
 5214              		.loc 2 711 0
 5215 22ce A823     		mov	r3, #168
 5216 22d0 FB18     		add	r3, r7, r3
 5217 22d2 1B68     		ldr	r3, [r3]
 5218 22d4 B022     		mov	r2, #176
 5219 22d6 BA18     		add	r2, r7, r2
 5220 22d8 1360     		str	r3, [r2]
 5221 22da 22E0     		b	.L150
 5222              	.L244:
 5223              		.align	2
 5224              	.L243:
 5225 22dc 86020000 		.word	646
 5226 22e0 82020000 		.word	642
 5227 22e4 8A020000 		.word	650
 5228 22e8 72020000 		.word	626
 5229 22ec 76020000 		.word	630
 5230 22f0 6E020000 		.word	622
 5231              	.L148:
 716:.\Include/arm_math.h **** 
 5232              		.loc 2 716 0
 5233 22f4 A823     		mov	r3, #168
 5234 22f6 FB18     		add	r3, r7, r3
 5235 22f8 1B68     		ldr	r3, [r3]
 5236 22fa 5B42     		neg	r3, r3
 5237 22fc A022     		mov	r2, #160
 5238 22fe BA18     		add	r2, r7, r2
 5239 2300 1360     		str	r3, [r2]
 718:.\Include/arm_math.h ****       {
 5240              		.loc 2 718 0
 5241 2302 B023     		mov	r3, #176
 5242 2304 FB18     		add	r3, r7, r3
 5243 2306 1A68     		ldr	r2, [r3]
ARM GAS  C:\Users\fneves\AppData\Local\Temp\cc0ayw4Y.s 			page 127


 5244 2308 A023     		mov	r3, #160
 5245 230a FB18     		add	r3, r7, r3
 5246 230c 1B68     		ldr	r3, [r3]
 5247 230e 9A42     		cmp	r2, r3
 5248 2310 07DA     		bge	.L150
 720:.\Include/arm_math.h ****       }
 5249              		.loc 2 720 0
 5250 2312 A023     		mov	r3, #160
 5251 2314 FB18     		add	r3, r7, r3
 5252 2316 1B68     		ldr	r3, [r3]
 5253 2318 B022     		mov	r2, #176
 5254 231a BA18     		add	r2, r7, r2
 5255 231c 1360     		str	r3, [r2]
 5256 231e 00E0     		b	.L150
 5257              	.L217:
 711:.\Include/arm_math.h ****       }
 5258              		.loc 2 711 0
 5259 2320 C046     		mov	r8, r8
 5260              	.L150:
 5261              		.loc 2 723 0
 5262 2322 B023     		mov	r3, #176
 5263 2324 FB18     		add	r3, r7, r3
 5264 2326 1A68     		ldr	r2, [r3]
 5265              	.LBE167:
 5266              	.LBE166:
 5267              		.loc 1 946 0
 5268 2328 CF4B     		ldr	r3, .L245
 5269 232a FB18     		add	r3, r7, r3
 5270 232c 1A80     		strh	r2, [r3]
 947:Source\TransformFunctions/arm_cfft_radix4_q15.c ****     R1 = __SSAT(T1 + S1, 16u);
 5271              		.loc 1 947 0
 5272 232e A223     		mov	r3, #162
 5273 2330 9B00     		lsl	r3, r3, #2
 5274 2332 FB18     		add	r3, r7, r3
 5275 2334 0022     		mov	r2, #0
 5276 2336 9A5E     		ldrsh	r2, [r3, r2]
 5277 2338 A123     		mov	r3, #161
 5278 233a 9B00     		lsl	r3, r3, #2
 5279 233c FB18     		add	r3, r7, r3
 5280 233e 0021     		mov	r1, #0
 5281 2340 5B5E     		ldrsh	r3, [r3, r1]
 5282 2342 D318     		add	r3, r2, r3
 5283 2344 9C22     		mov	r2, #156
 5284 2346 BA18     		add	r2, r7, r2
 5285 2348 1360     		str	r3, [r2]
 5286 234a 1023     		mov	r3, #16
 5287 234c 9822     		mov	r2, #152
 5288 234e BA18     		add	r2, r7, r2
 5289 2350 1360     		str	r3, [r2]
 5290              	.LBB168:
 5291              	.LBB169:
 699:.\Include/arm_math.h ****     for (i = 0; i < (y - 1); i++)
 5292              		.loc 2 699 0
 5293 2352 0123     		mov	r3, #1
 5294 2354 9422     		mov	r2, #148
 5295 2356 BA18     		add	r2, r7, r2
 5296 2358 1360     		str	r3, [r2]
ARM GAS  C:\Users\fneves\AppData\Local\Temp\cc0ayw4Y.s 			page 128


 700:.\Include/arm_math.h ****     {
 5297              		.loc 2 700 0
 5298 235a 0023     		mov	r3, #0
 5299 235c 9022     		mov	r2, #144
 5300 235e BA18     		add	r2, r7, r2
 5301 2360 1360     		str	r3, [r2]
 5302 2362 0DE0     		b	.L152
 5303              	.L153:
 702:.\Include/arm_math.h ****     }
 5304              		.loc 2 702 0
 5305 2364 9423     		mov	r3, #148
 5306 2366 FB18     		add	r3, r7, r3
 5307 2368 1B68     		ldr	r3, [r3]
 5308 236a 5B00     		lsl	r3, r3, #1
 5309 236c 9422     		mov	r2, #148
 5310 236e BA18     		add	r2, r7, r2
 5311 2370 1360     		str	r3, [r2]
 700:.\Include/arm_math.h ****     {
 5312              		.loc 2 700 0
 5313 2372 9023     		mov	r3, #144
 5314 2374 FB18     		add	r3, r7, r3
 5315 2376 1B68     		ldr	r3, [r3]
 5316 2378 0133     		add	r3, r3, #1
 5317 237a 9022     		mov	r2, #144
 5318 237c BA18     		add	r2, r7, r2
 5319 237e 1360     		str	r3, [r2]
 5320              	.L152:
 5321 2380 9823     		mov	r3, #152
 5322 2382 FB18     		add	r3, r7, r3
 5323 2384 1B68     		ldr	r3, [r3]
 5324 2386 013B     		sub	r3, r3, #1
 5325 2388 9022     		mov	r2, #144
 5326 238a BA18     		add	r2, r7, r2
 5327 238c 1268     		ldr	r2, [r2]
 5328 238e 9A42     		cmp	r2, r3
 5329 2390 E8D3     		bcc	.L153
 705:.\Include/arm_math.h ****     {
 5330              		.loc 2 705 0
 5331 2392 9C23     		mov	r3, #156
 5332 2394 FB18     		add	r3, r7, r3
 5333 2396 1B68     		ldr	r3, [r3]
 5334 2398 002B     		cmp	r3, #0
 5335 239a 15DD     		ble	.L154
 707:.\Include/arm_math.h **** 
 5336              		.loc 2 707 0
 5337 239c 9423     		mov	r3, #148
 5338 239e FB18     		add	r3, r7, r3
 5339 23a0 1B68     		ldr	r3, [r3]
 5340 23a2 013B     		sub	r3, r3, #1
 5341 23a4 9422     		mov	r2, #148
 5342 23a6 BA18     		add	r2, r7, r2
 5343 23a8 1360     		str	r3, [r2]
 709:.\Include/arm_math.h ****       {
 5344              		.loc 2 709 0
 5345 23aa 9C23     		mov	r3, #156
 5346 23ac FB18     		add	r3, r7, r3
 5347 23ae 1A68     		ldr	r2, [r3]
ARM GAS  C:\Users\fneves\AppData\Local\Temp\cc0ayw4Y.s 			page 129


 5348 23b0 9423     		mov	r3, #148
 5349 23b2 FB18     		add	r3, r7, r3
 5350 23b4 1B68     		ldr	r3, [r3]
 5351 23b6 9A42     		cmp	r2, r3
 5352 23b8 1CDD     		ble	.L218
 711:.\Include/arm_math.h ****       }
 5353              		.loc 2 711 0
 5354 23ba 9423     		mov	r3, #148
 5355 23bc FB18     		add	r3, r7, r3
 5356 23be 1B68     		ldr	r3, [r3]
 5357 23c0 9C22     		mov	r2, #156
 5358 23c2 BA18     		add	r2, r7, r2
 5359 23c4 1360     		str	r3, [r2]
 5360 23c6 16E0     		b	.L156
 5361              	.L154:
 716:.\Include/arm_math.h **** 
 5362              		.loc 2 716 0
 5363 23c8 9423     		mov	r3, #148
 5364 23ca FB18     		add	r3, r7, r3
 5365 23cc 1B68     		ldr	r3, [r3]
 5366 23ce 5B42     		neg	r3, r3
 5367 23d0 8C22     		mov	r2, #140
 5368 23d2 BA18     		add	r2, r7, r2
 5369 23d4 1360     		str	r3, [r2]
 718:.\Include/arm_math.h ****       {
 5370              		.loc 2 718 0
 5371 23d6 9C23     		mov	r3, #156
 5372 23d8 FB18     		add	r3, r7, r3
 5373 23da 1A68     		ldr	r2, [r3]
 5374 23dc 8C23     		mov	r3, #140
 5375 23de FB18     		add	r3, r7, r3
 5376 23e0 1B68     		ldr	r3, [r3]
 5377 23e2 9A42     		cmp	r2, r3
 5378 23e4 07DA     		bge	.L156
 720:.\Include/arm_math.h ****       }
 5379              		.loc 2 720 0
 5380 23e6 8C23     		mov	r3, #140
 5381 23e8 FB18     		add	r3, r7, r3
 5382 23ea 1B68     		ldr	r3, [r3]
 5383 23ec 9C22     		mov	r2, #156
 5384 23ee BA18     		add	r2, r7, r2
 5385 23f0 1360     		str	r3, [r2]
 5386 23f2 00E0     		b	.L156
 5387              	.L218:
 711:.\Include/arm_math.h ****       }
 5388              		.loc 2 711 0
 5389 23f4 C046     		mov	r8, r8
 5390              	.L156:
 5391              		.loc 2 723 0
 5392 23f6 9C23     		mov	r3, #156
 5393 23f8 FB18     		add	r3, r7, r3
 5394 23fa 1A68     		ldr	r2, [r3]
 5395              	.LBE169:
 5396              	.LBE168:
 5397              		.loc 1 947 0
 5398 23fc A023     		mov	r3, #160
 5399 23fe 9B00     		lsl	r3, r3, #2
ARM GAS  C:\Users\fneves\AppData\Local\Temp\cc0ayw4Y.s 			page 130


 5400 2400 FB18     		add	r3, r7, r3
 5401 2402 1A80     		strh	r2, [r3]
 948:Source\TransformFunctions/arm_cfft_radix4_q15.c **** 
 949:Source\TransformFunctions/arm_cfft_radix4_q15.c ****     /* S0 = (ya - yc), S1 = (xa - xc) */
 950:Source\TransformFunctions/arm_cfft_radix4_q15.c ****     S0 = __SSAT(T0 - S0, 16u);
 5402              		.loc 1 950 0
 5403 2404 994B     		ldr	r3, .L245+4
 5404 2406 FB18     		add	r3, r7, r3
 5405 2408 0022     		mov	r2, #0
 5406 240a 9A5E     		ldrsh	r2, [r3, r2]
 5407 240c 984B     		ldr	r3, .L245+8
 5408 240e FB18     		add	r3, r7, r3
 5409 2410 0021     		mov	r1, #0
 5410 2412 5B5E     		ldrsh	r3, [r3, r1]
 5411 2414 D31A     		sub	r3, r2, r3
 5412 2416 8822     		mov	r2, #136
 5413 2418 BA18     		add	r2, r7, r2
 5414 241a 1360     		str	r3, [r2]
 5415 241c 1023     		mov	r3, #16
 5416 241e 8422     		mov	r2, #132
 5417 2420 BA18     		add	r2, r7, r2
 5418 2422 1360     		str	r3, [r2]
 5419              	.LBB170:
 5420              	.LBB171:
 699:.\Include/arm_math.h ****     for (i = 0; i < (y - 1); i++)
 5421              		.loc 2 699 0
 5422 2424 0123     		mov	r3, #1
 5423 2426 8022     		mov	r2, #128
 5424 2428 BA18     		add	r2, r7, r2
 5425 242a 1360     		str	r3, [r2]
 700:.\Include/arm_math.h ****     {
 5426              		.loc 2 700 0
 5427 242c 0023     		mov	r3, #0
 5428 242e FB67     		str	r3, [r7, #124]
 5429 2430 09E0     		b	.L158
 5430              	.L159:
 702:.\Include/arm_math.h ****     }
 5431              		.loc 2 702 0
 5432 2432 8023     		mov	r3, #128
 5433 2434 FB18     		add	r3, r7, r3
 5434 2436 1B68     		ldr	r3, [r3]
 5435 2438 5B00     		lsl	r3, r3, #1
 5436 243a 8022     		mov	r2, #128
 5437 243c BA18     		add	r2, r7, r2
 5438 243e 1360     		str	r3, [r2]
 700:.\Include/arm_math.h ****     {
 5439              		.loc 2 700 0
 5440 2440 FB6F     		ldr	r3, [r7, #124]
 5441 2442 0133     		add	r3, r3, #1
 5442 2444 FB67     		str	r3, [r7, #124]
 5443              	.L158:
 5444 2446 8423     		mov	r3, #132
 5445 2448 FB18     		add	r3, r7, r3
 5446 244a 1B68     		ldr	r3, [r3]
 5447 244c 013B     		sub	r3, r3, #1
 5448 244e FA6F     		ldr	r2, [r7, #124]
 5449 2450 9A42     		cmp	r2, r3
ARM GAS  C:\Users\fneves\AppData\Local\Temp\cc0ayw4Y.s 			page 131


 5450 2452 EED3     		bcc	.L159
 705:.\Include/arm_math.h ****     {
 5451              		.loc 2 705 0
 5452 2454 8823     		mov	r3, #136
 5453 2456 FB18     		add	r3, r7, r3
 5454 2458 1B68     		ldr	r3, [r3]
 5455 245a 002B     		cmp	r3, #0
 5456 245c 15DD     		ble	.L160
 707:.\Include/arm_math.h **** 
 5457              		.loc 2 707 0
 5458 245e 8023     		mov	r3, #128
 5459 2460 FB18     		add	r3, r7, r3
 5460 2462 1B68     		ldr	r3, [r3]
 5461 2464 013B     		sub	r3, r3, #1
 5462 2466 8022     		mov	r2, #128
 5463 2468 BA18     		add	r2, r7, r2
 5464 246a 1360     		str	r3, [r2]
 709:.\Include/arm_math.h ****       {
 5465              		.loc 2 709 0
 5466 246c 8823     		mov	r3, #136
 5467 246e FB18     		add	r3, r7, r3
 5468 2470 1A68     		ldr	r2, [r3]
 5469 2472 8023     		mov	r3, #128
 5470 2474 FB18     		add	r3, r7, r3
 5471 2476 1B68     		ldr	r3, [r3]
 5472 2478 9A42     		cmp	r2, r3
 5473 247a 16DD     		ble	.L219
 711:.\Include/arm_math.h ****       }
 5474              		.loc 2 711 0
 5475 247c 8023     		mov	r3, #128
 5476 247e FB18     		add	r3, r7, r3
 5477 2480 1B68     		ldr	r3, [r3]
 5478 2482 8822     		mov	r2, #136
 5479 2484 BA18     		add	r2, r7, r2
 5480 2486 1360     		str	r3, [r2]
 5481 2488 10E0     		b	.L162
 5482              	.L160:
 716:.\Include/arm_math.h **** 
 5483              		.loc 2 716 0
 5484 248a 8023     		mov	r3, #128
 5485 248c FB18     		add	r3, r7, r3
 5486 248e 1B68     		ldr	r3, [r3]
 5487 2490 5B42     		neg	r3, r3
 5488 2492 BB67     		str	r3, [r7, #120]
 718:.\Include/arm_math.h ****       {
 5489              		.loc 2 718 0
 5490 2494 8823     		mov	r3, #136
 5491 2496 FB18     		add	r3, r7, r3
 5492 2498 1A68     		ldr	r2, [r3]
 5493 249a BB6F     		ldr	r3, [r7, #120]
 5494 249c 9A42     		cmp	r2, r3
 5495 249e 05DA     		bge	.L162
 720:.\Include/arm_math.h ****       }
 5496              		.loc 2 720 0
 5497 24a0 BB6F     		ldr	r3, [r7, #120]
 5498 24a2 8822     		mov	r2, #136
 5499 24a4 BA18     		add	r2, r7, r2
ARM GAS  C:\Users\fneves\AppData\Local\Temp\cc0ayw4Y.s 			page 132


 5500 24a6 1360     		str	r3, [r2]
 5501 24a8 00E0     		b	.L162
 5502              	.L219:
 711:.\Include/arm_math.h ****       }
 5503              		.loc 2 711 0
 5504 24aa C046     		mov	r8, r8
 5505              	.L162:
 5506              		.loc 2 723 0
 5507 24ac 8823     		mov	r3, #136
 5508 24ae FB18     		add	r3, r7, r3
 5509 24b0 1A68     		ldr	r2, [r3]
 5510              	.LBE171:
 5511              	.LBE170:
 5512              		.loc 1 950 0
 5513 24b2 6F4B     		ldr	r3, .L245+8
 5514 24b4 FB18     		add	r3, r7, r3
 5515 24b6 1A80     		strh	r2, [r3]
 951:Source\TransformFunctions/arm_cfft_radix4_q15.c ****     S1 = __SSAT(T1 - S1, 16u);
 5516              		.loc 1 951 0
 5517 24b8 A223     		mov	r3, #162
 5518 24ba 9B00     		lsl	r3, r3, #2
 5519 24bc FB18     		add	r3, r7, r3
 5520 24be 0022     		mov	r2, #0
 5521 24c0 9A5E     		ldrsh	r2, [r3, r2]
 5522 24c2 A123     		mov	r3, #161
 5523 24c4 9B00     		lsl	r3, r3, #2
 5524 24c6 FB18     		add	r3, r7, r3
 5525 24c8 0021     		mov	r1, #0
 5526 24ca 5B5E     		ldrsh	r3, [r3, r1]
 5527 24cc D31A     		sub	r3, r2, r3
 5528 24ce 7B67     		str	r3, [r7, #116]
 5529 24d0 1023     		mov	r3, #16
 5530 24d2 3B67     		str	r3, [r7, #112]
 5531              	.LBB172:
 5532              	.LBB173:
 699:.\Include/arm_math.h ****     for (i = 0; i < (y - 1); i++)
 5533              		.loc 2 699 0
 5534 24d4 0123     		mov	r3, #1
 5535 24d6 FB66     		str	r3, [r7, #108]
 700:.\Include/arm_math.h ****     {
 5536              		.loc 2 700 0
 5537 24d8 0023     		mov	r3, #0
 5538 24da BB66     		str	r3, [r7, #104]
 5539 24dc 05E0     		b	.L164
 5540              	.L165:
 702:.\Include/arm_math.h ****     }
 5541              		.loc 2 702 0
 5542 24de FB6E     		ldr	r3, [r7, #108]
 5543 24e0 5B00     		lsl	r3, r3, #1
 5544 24e2 FB66     		str	r3, [r7, #108]
 700:.\Include/arm_math.h ****     {
 5545              		.loc 2 700 0
 5546 24e4 BB6E     		ldr	r3, [r7, #104]
 5547 24e6 0133     		add	r3, r3, #1
 5548 24e8 BB66     		str	r3, [r7, #104]
 5549              	.L164:
 5550 24ea 3B6F     		ldr	r3, [r7, #112]
ARM GAS  C:\Users\fneves\AppData\Local\Temp\cc0ayw4Y.s 			page 133


 5551 24ec 013B     		sub	r3, r3, #1
 5552 24ee BA6E     		ldr	r2, [r7, #104]
 5553 24f0 9A42     		cmp	r2, r3
 5554 24f2 F4D3     		bcc	.L165
 705:.\Include/arm_math.h ****     {
 5555              		.loc 2 705 0
 5556 24f4 7B6F     		ldr	r3, [r7, #116]
 5557 24f6 002B     		cmp	r3, #0
 5558 24f8 09DD     		ble	.L166
 707:.\Include/arm_math.h **** 
 5559              		.loc 2 707 0
 5560 24fa FB6E     		ldr	r3, [r7, #108]
 5561 24fc 013B     		sub	r3, r3, #1
 5562 24fe FB66     		str	r3, [r7, #108]
 709:.\Include/arm_math.h ****       {
 5563              		.loc 2 709 0
 5564 2500 7A6F     		ldr	r2, [r7, #116]
 5565 2502 FB6E     		ldr	r3, [r7, #108]
 5566 2504 9A42     		cmp	r2, r3
 5567 2506 0CDD     		ble	.L220
 711:.\Include/arm_math.h ****       }
 5568              		.loc 2 711 0
 5569 2508 FB6E     		ldr	r3, [r7, #108]
 5570 250a 7B67     		str	r3, [r7, #116]
 5571 250c 0AE0     		b	.L168
 5572              	.L166:
 716:.\Include/arm_math.h **** 
 5573              		.loc 2 716 0
 5574 250e FB6E     		ldr	r3, [r7, #108]
 5575 2510 5B42     		neg	r3, r3
 5576 2512 7B66     		str	r3, [r7, #100]
 718:.\Include/arm_math.h ****       {
 5577              		.loc 2 718 0
 5578 2514 7A6F     		ldr	r2, [r7, #116]
 5579 2516 7B6E     		ldr	r3, [r7, #100]
 5580 2518 9A42     		cmp	r2, r3
 5581 251a 03DA     		bge	.L168
 720:.\Include/arm_math.h ****       }
 5582              		.loc 2 720 0
 5583 251c 7B6E     		ldr	r3, [r7, #100]
 5584 251e 7B67     		str	r3, [r7, #116]
 5585 2520 00E0     		b	.L168
 5586              	.L220:
 711:.\Include/arm_math.h ****       }
 5587              		.loc 2 711 0
 5588 2522 C046     		mov	r8, r8
 5589              	.L168:
 5590              		.loc 2 723 0
 5591 2524 7A6F     		ldr	r2, [r7, #116]
 5592              	.LBE173:
 5593              	.LBE172:
 5594              		.loc 1 951 0
 5595 2526 A123     		mov	r3, #161
 5596 2528 9B00     		lsl	r3, r3, #2
 5597 252a FB18     		add	r3, r7, r3
 5598 252c 1A80     		strh	r2, [r3]
 952:Source\TransformFunctions/arm_cfft_radix4_q15.c **** 
ARM GAS  C:\Users\fneves\AppData\Local\Temp\cc0ayw4Y.s 			page 134


 953:Source\TransformFunctions/arm_cfft_radix4_q15.c ****     /*  Reading i0+fftLen/4 , i0+3fftLen/4 inputs */
 954:Source\TransformFunctions/arm_cfft_radix4_q15.c ****     /* Read yb (real), xb(imag) input */
 955:Source\TransformFunctions/arm_cfft_radix4_q15.c ****     T0 = pSrc16[i1 * 2u];
 5599              		.loc 1 955 0
 5600 252e A523     		mov	r3, #165
 5601 2530 9B00     		lsl	r3, r3, #2
 5602 2532 FB18     		add	r3, r7, r3
 5603 2534 1B68     		ldr	r3, [r3]
 5604 2536 9B00     		lsl	r3, r3, #2
 5605 2538 FA68     		ldr	r2, [r7, #12]
 5606 253a D218     		add	r2, r2, r3
 5607 253c 4B4B     		ldr	r3, .L245+4
 5608 253e FB18     		add	r3, r7, r3
 5609 2540 1288     		ldrh	r2, [r2]
 5610 2542 1A80     		strh	r2, [r3]
 956:Source\TransformFunctions/arm_cfft_radix4_q15.c ****     T1 = pSrc16[(i1 * 2u) + 1u];
 5611              		.loc 1 956 0
 5612 2544 A523     		mov	r3, #165
 5613 2546 9B00     		lsl	r3, r3, #2
 5614 2548 FB18     		add	r3, r7, r3
 5615 254a 1B68     		ldr	r3, [r3]
 5616 254c 9B00     		lsl	r3, r3, #2
 5617 254e 0233     		add	r3, r3, #2
 5618 2550 FA68     		ldr	r2, [r7, #12]
 5619 2552 D218     		add	r2, r2, r3
 5620 2554 A223     		mov	r3, #162
 5621 2556 9B00     		lsl	r3, r3, #2
 5622 2558 FB18     		add	r3, r7, r3
 5623 255a 1288     		ldrh	r2, [r2]
 5624 255c 1A80     		strh	r2, [r3]
 957:Source\TransformFunctions/arm_cfft_radix4_q15.c ****     /* Read yd (real), xd(imag) input */
 958:Source\TransformFunctions/arm_cfft_radix4_q15.c ****     U0 = pSrc16[i3 * 2u];
 5625              		.loc 1 958 0
 5626 255e A323     		mov	r3, #163
 5627 2560 9B00     		lsl	r3, r3, #2
 5628 2562 FB18     		add	r3, r7, r3
 5629 2564 1B68     		ldr	r3, [r3]
 5630 2566 9B00     		lsl	r3, r3, #2
 5631 2568 FA68     		ldr	r2, [r7, #12]
 5632 256a D218     		add	r2, r2, r3
 5633 256c 414B     		ldr	r3, .L245+12
 5634 256e FB18     		add	r3, r7, r3
 5635 2570 1288     		ldrh	r2, [r2]
 5636 2572 1A80     		strh	r2, [r3]
 959:Source\TransformFunctions/arm_cfft_radix4_q15.c ****     U1 = pSrc16[(i3 * 2u) + 1u];
 5637              		.loc 1 959 0
 5638 2574 A323     		mov	r3, #163
 5639 2576 9B00     		lsl	r3, r3, #2
 5640 2578 FB18     		add	r3, r7, r3
 5641 257a 1B68     		ldr	r3, [r3]
 5642 257c 9B00     		lsl	r3, r3, #2
 5643 257e 0233     		add	r3, r3, #2
 5644 2580 FA68     		ldr	r2, [r7, #12]
 5645 2582 D218     		add	r2, r2, r3
 5646 2584 9F23     		mov	r3, #159
 5647 2586 9B00     		lsl	r3, r3, #2
 5648 2588 FB18     		add	r3, r7, r3
ARM GAS  C:\Users\fneves\AppData\Local\Temp\cc0ayw4Y.s 			page 135


 5649 258a 1288     		ldrh	r2, [r2]
 5650 258c 1A80     		strh	r2, [r3]
 960:Source\TransformFunctions/arm_cfft_radix4_q15.c **** 
 961:Source\TransformFunctions/arm_cfft_radix4_q15.c ****     /* T0 = (yb + yd), T1 = (xb + xd)) */
 962:Source\TransformFunctions/arm_cfft_radix4_q15.c ****     T0 = __SSAT(T0 + U0, 16u);
 5651              		.loc 1 962 0
 5652 258e 374B     		ldr	r3, .L245+4
 5653 2590 FB18     		add	r3, r7, r3
 5654 2592 0022     		mov	r2, #0
 5655 2594 9A5E     		ldrsh	r2, [r3, r2]
 5656 2596 374B     		ldr	r3, .L245+12
 5657 2598 FB18     		add	r3, r7, r3
 5658 259a 0021     		mov	r1, #0
 5659 259c 5B5E     		ldrsh	r3, [r3, r1]
 5660 259e D318     		add	r3, r2, r3
 5661 25a0 3B66     		str	r3, [r7, #96]
 5662 25a2 1023     		mov	r3, #16
 5663 25a4 FB65     		str	r3, [r7, #92]
 5664              	.LBB174:
 5665              	.LBB175:
 699:.\Include/arm_math.h ****     for (i = 0; i < (y - 1); i++)
 5666              		.loc 2 699 0
 5667 25a6 0123     		mov	r3, #1
 5668 25a8 BB65     		str	r3, [r7, #88]
 700:.\Include/arm_math.h ****     {
 5669              		.loc 2 700 0
 5670 25aa 0023     		mov	r3, #0
 5671 25ac 7B65     		str	r3, [r7, #84]
 5672 25ae 05E0     		b	.L170
 5673              	.L171:
 702:.\Include/arm_math.h ****     }
 5674              		.loc 2 702 0
 5675 25b0 BB6D     		ldr	r3, [r7, #88]
 5676 25b2 5B00     		lsl	r3, r3, #1
 5677 25b4 BB65     		str	r3, [r7, #88]
 700:.\Include/arm_math.h ****     {
 5678              		.loc 2 700 0
 5679 25b6 7B6D     		ldr	r3, [r7, #84]
 5680 25b8 0133     		add	r3, r3, #1
 5681 25ba 7B65     		str	r3, [r7, #84]
 5682              	.L170:
 5683 25bc FB6D     		ldr	r3, [r7, #92]
 5684 25be 013B     		sub	r3, r3, #1
 5685 25c0 7A6D     		ldr	r2, [r7, #84]
 5686 25c2 9A42     		cmp	r2, r3
 5687 25c4 F4D3     		bcc	.L171
 705:.\Include/arm_math.h ****     {
 5688              		.loc 2 705 0
 5689 25c6 3B6E     		ldr	r3, [r7, #96]
 5690 25c8 002B     		cmp	r3, #0
 5691 25ca 09DD     		ble	.L172
 707:.\Include/arm_math.h **** 
 5692              		.loc 2 707 0
 5693 25cc BB6D     		ldr	r3, [r7, #88]
 5694 25ce 013B     		sub	r3, r3, #1
 5695 25d0 BB65     		str	r3, [r7, #88]
 709:.\Include/arm_math.h ****       {
ARM GAS  C:\Users\fneves\AppData\Local\Temp\cc0ayw4Y.s 			page 136


 5696              		.loc 2 709 0
 5697 25d2 3A6E     		ldr	r2, [r7, #96]
 5698 25d4 BB6D     		ldr	r3, [r7, #88]
 5699 25d6 9A42     		cmp	r2, r3
 5700 25d8 0CDD     		ble	.L221
 711:.\Include/arm_math.h ****       }
 5701              		.loc 2 711 0
 5702 25da BB6D     		ldr	r3, [r7, #88]
 5703 25dc 3B66     		str	r3, [r7, #96]
 5704 25de 0AE0     		b	.L174
 5705              	.L172:
 716:.\Include/arm_math.h **** 
 5706              		.loc 2 716 0
 5707 25e0 BB6D     		ldr	r3, [r7, #88]
 5708 25e2 5B42     		neg	r3, r3
 5709 25e4 3B65     		str	r3, [r7, #80]
 718:.\Include/arm_math.h ****       {
 5710              		.loc 2 718 0
 5711 25e6 3A6E     		ldr	r2, [r7, #96]
 5712 25e8 3B6D     		ldr	r3, [r7, #80]
 5713 25ea 9A42     		cmp	r2, r3
 5714 25ec 03DA     		bge	.L174
 720:.\Include/arm_math.h ****       }
 5715              		.loc 2 720 0
 5716 25ee 3B6D     		ldr	r3, [r7, #80]
 5717 25f0 3B66     		str	r3, [r7, #96]
 5718 25f2 00E0     		b	.L174
 5719              	.L221:
 711:.\Include/arm_math.h ****       }
 5720              		.loc 2 711 0
 5721 25f4 C046     		mov	r8, r8
 5722              	.L174:
 5723              		.loc 2 723 0
 5724 25f6 3A6E     		ldr	r2, [r7, #96]
 5725              	.LBE175:
 5726              	.LBE174:
 5727              		.loc 1 962 0
 5728 25f8 1C4B     		ldr	r3, .L245+4
 5729 25fa FB18     		add	r3, r7, r3
 5730 25fc 1A80     		strh	r2, [r3]
 963:Source\TransformFunctions/arm_cfft_radix4_q15.c ****     T1 = __SSAT(T1 + U1, 16u);
 5731              		.loc 1 963 0
 5732 25fe A223     		mov	r3, #162
 5733 2600 9B00     		lsl	r3, r3, #2
 5734 2602 FB18     		add	r3, r7, r3
 5735 2604 0022     		mov	r2, #0
 5736 2606 9A5E     		ldrsh	r2, [r3, r2]
 5737 2608 9F23     		mov	r3, #159
 5738 260a 9B00     		lsl	r3, r3, #2
 5739 260c FB18     		add	r3, r7, r3
 5740 260e 0021     		mov	r1, #0
 5741 2610 5B5E     		ldrsh	r3, [r3, r1]
 5742 2612 D318     		add	r3, r2, r3
 5743 2614 FB64     		str	r3, [r7, #76]
 5744 2616 1023     		mov	r3, #16
 5745 2618 BB64     		str	r3, [r7, #72]
 5746              	.LBB176:
ARM GAS  C:\Users\fneves\AppData\Local\Temp\cc0ayw4Y.s 			page 137


 5747              	.LBB177:
 699:.\Include/arm_math.h ****     for (i = 0; i < (y - 1); i++)
 5748              		.loc 2 699 0
 5749 261a 0123     		mov	r3, #1
 5750 261c 7B64     		str	r3, [r7, #68]
 700:.\Include/arm_math.h ****     {
 5751              		.loc 2 700 0
 5752 261e 0023     		mov	r3, #0
 5753 2620 3B64     		str	r3, [r7, #64]
 5754 2622 05E0     		b	.L176
 5755              	.L177:
 702:.\Include/arm_math.h ****     }
 5756              		.loc 2 702 0
 5757 2624 7B6C     		ldr	r3, [r7, #68]
 5758 2626 5B00     		lsl	r3, r3, #1
 5759 2628 7B64     		str	r3, [r7, #68]
 700:.\Include/arm_math.h ****     {
 5760              		.loc 2 700 0
 5761 262a 3B6C     		ldr	r3, [r7, #64]
 5762 262c 0133     		add	r3, r3, #1
 5763 262e 3B64     		str	r3, [r7, #64]
 5764              	.L176:
 5765 2630 BB6C     		ldr	r3, [r7, #72]
 5766 2632 013B     		sub	r3, r3, #1
 5767 2634 3A6C     		ldr	r2, [r7, #64]
 5768 2636 9A42     		cmp	r2, r3
 5769 2638 F4D3     		bcc	.L177
 705:.\Include/arm_math.h ****     {
 5770              		.loc 2 705 0
 5771 263a FB6C     		ldr	r3, [r7, #76]
 5772 263c 002B     		cmp	r3, #0
 5773 263e 09DD     		ble	.L178
 707:.\Include/arm_math.h **** 
 5774              		.loc 2 707 0
 5775 2640 7B6C     		ldr	r3, [r7, #68]
 5776 2642 013B     		sub	r3, r3, #1
 5777 2644 7B64     		str	r3, [r7, #68]
 709:.\Include/arm_math.h ****       {
 5778              		.loc 2 709 0
 5779 2646 FA6C     		ldr	r2, [r7, #76]
 5780 2648 7B6C     		ldr	r3, [r7, #68]
 5781 264a 9A42     		cmp	r2, r3
 5782 264c 14DD     		ble	.L222
 711:.\Include/arm_math.h ****       }
 5783              		.loc 2 711 0
 5784 264e 7B6C     		ldr	r3, [r7, #68]
 5785 2650 FB64     		str	r3, [r7, #76]
 5786 2652 12E0     		b	.L180
 5787              	.L178:
 716:.\Include/arm_math.h **** 
 5788              		.loc 2 716 0
 5789 2654 7B6C     		ldr	r3, [r7, #68]
 5790 2656 5B42     		neg	r3, r3
 5791 2658 FB63     		str	r3, [r7, #60]
 718:.\Include/arm_math.h ****       {
 5792              		.loc 2 718 0
 5793 265a FA6C     		ldr	r2, [r7, #76]
ARM GAS  C:\Users\fneves\AppData\Local\Temp\cc0ayw4Y.s 			page 138


 5794 265c FB6B     		ldr	r3, [r7, #60]
 5795 265e 9A42     		cmp	r2, r3
 5796 2660 0BDA     		bge	.L180
 720:.\Include/arm_math.h ****       }
 5797              		.loc 2 720 0
 5798 2662 FB6B     		ldr	r3, [r7, #60]
 5799 2664 FB64     		str	r3, [r7, #76]
 5800 2666 08E0     		b	.L180
 5801              	.L246:
 5802              		.align	2
 5803              	.L245:
 5804 2668 82020000 		.word	642
 5805 266c 8A020000 		.word	650
 5806 2670 86020000 		.word	646
 5807 2674 7E020000 		.word	638
 5808              	.L222:
 711:.\Include/arm_math.h ****       }
 5809              		.loc 2 711 0
 5810 2678 C046     		mov	r8, r8
 5811              	.L180:
 5812              		.loc 2 723 0
 5813 267a FA6C     		ldr	r2, [r7, #76]
 5814              	.LBE177:
 5815              	.LBE176:
 5816              		.loc 1 963 0
 5817 267c A223     		mov	r3, #162
 5818 267e 9B00     		lsl	r3, r3, #2
 5819 2680 FB18     		add	r3, r7, r3
 5820 2682 1A80     		strh	r2, [r3]
 964:Source\TransformFunctions/arm_cfft_radix4_q15.c **** 
 965:Source\TransformFunctions/arm_cfft_radix4_q15.c ****     /*  writing the butterfly processed i0 sample */
 966:Source\TransformFunctions/arm_cfft_radix4_q15.c ****     /* xa' = xa + xb + xc + xd */
 967:Source\TransformFunctions/arm_cfft_radix4_q15.c ****     /* ya' = ya + yb + yc + yd */
 968:Source\TransformFunctions/arm_cfft_radix4_q15.c ****     pSrc16[i0 * 2u] = (R0 >> 1u) + (T0 >> 1u);
 5821              		.loc 1 968 0
 5822 2684 A923     		mov	r3, #169
 5823 2686 9B00     		lsl	r3, r3, #2
 5824 2688 FB18     		add	r3, r7, r3
 5825 268a 1B68     		ldr	r3, [r3]
 5826 268c 9B00     		lsl	r3, r3, #2
 5827 268e FA68     		ldr	r2, [r7, #12]
 5828 2690 D318     		add	r3, r2, r3
 5829 2692 CE4A     		ldr	r2, .L247
 5830 2694 BA18     		add	r2, r7, r2
 5831 2696 0021     		mov	r1, #0
 5832 2698 525E     		ldrsh	r2, [r2, r1]
 5833 269a 5210     		asr	r2, r2, #1
 5834 269c 92B2     		uxth	r2, r2
 5835 269e 91B2     		uxth	r1, r2
 5836 26a0 CB4A     		ldr	r2, .L247+4
 5837 26a2 BA18     		add	r2, r7, r2
 5838 26a4 0020     		mov	r0, #0
 5839 26a6 125E     		ldrsh	r2, [r2, r0]
 5840 26a8 5210     		asr	r2, r2, #1
 5841 26aa 92B2     		uxth	r2, r2
 5842 26ac 92B2     		uxth	r2, r2
 5843 26ae 8A18     		add	r2, r1, r2
ARM GAS  C:\Users\fneves\AppData\Local\Temp\cc0ayw4Y.s 			page 139


 5844 26b0 92B2     		uxth	r2, r2
 5845 26b2 92B2     		uxth	r2, r2
 5846 26b4 1A80     		strh	r2, [r3]
 969:Source\TransformFunctions/arm_cfft_radix4_q15.c ****     pSrc16[(i0 * 2u) + 1u] = (R1 >> 1u) + (T1 >> 1u);
 5847              		.loc 1 969 0
 5848 26b6 A923     		mov	r3, #169
 5849 26b8 9B00     		lsl	r3, r3, #2
 5850 26ba FB18     		add	r3, r7, r3
 5851 26bc 1B68     		ldr	r3, [r3]
 5852 26be 9B00     		lsl	r3, r3, #2
 5853 26c0 0233     		add	r3, r3, #2
 5854 26c2 FA68     		ldr	r2, [r7, #12]
 5855 26c4 D318     		add	r3, r2, r3
 5856 26c6 A022     		mov	r2, #160
 5857 26c8 9200     		lsl	r2, r2, #2
 5858 26ca BA18     		add	r2, r7, r2
 5859 26cc 0021     		mov	r1, #0
 5860 26ce 525E     		ldrsh	r2, [r2, r1]
 5861 26d0 5210     		asr	r2, r2, #1
 5862 26d2 92B2     		uxth	r2, r2
 5863 26d4 91B2     		uxth	r1, r2
 5864 26d6 A222     		mov	r2, #162
 5865 26d8 9200     		lsl	r2, r2, #2
 5866 26da BA18     		add	r2, r7, r2
 5867 26dc 0020     		mov	r0, #0
 5868 26de 125E     		ldrsh	r2, [r2, r0]
 5869 26e0 5210     		asr	r2, r2, #1
 5870 26e2 92B2     		uxth	r2, r2
 5871 26e4 92B2     		uxth	r2, r2
 5872 26e6 8A18     		add	r2, r1, r2
 5873 26e8 92B2     		uxth	r2, r2
 5874 26ea 92B2     		uxth	r2, r2
 5875 26ec 1A80     		strh	r2, [r3]
 970:Source\TransformFunctions/arm_cfft_radix4_q15.c **** 
 971:Source\TransformFunctions/arm_cfft_radix4_q15.c ****     /* R0 = (ya + yc) - (yb + yd), R1 = (xa + xc) - (xb + xd) */
 972:Source\TransformFunctions/arm_cfft_radix4_q15.c ****     R0 = (R0 >> 1u) - (T0 >> 1u);
 5876              		.loc 1 972 0
 5877 26ee B74B     		ldr	r3, .L247
 5878 26f0 FB18     		add	r3, r7, r3
 5879 26f2 0022     		mov	r2, #0
 5880 26f4 9B5E     		ldrsh	r3, [r3, r2]
 5881 26f6 5B10     		asr	r3, r3, #1
 5882 26f8 9BB2     		uxth	r3, r3
 5883 26fa 9AB2     		uxth	r2, r3
 5884 26fc B44B     		ldr	r3, .L247+4
 5885 26fe FB18     		add	r3, r7, r3
 5886 2700 0021     		mov	r1, #0
 5887 2702 5B5E     		ldrsh	r3, [r3, r1]
 5888 2704 5B10     		asr	r3, r3, #1
 5889 2706 9BB2     		uxth	r3, r3
 5890 2708 9BB2     		uxth	r3, r3
 5891 270a D31A     		sub	r3, r2, r3
 5892 270c 9AB2     		uxth	r2, r3
 5893 270e AF4B     		ldr	r3, .L247
 5894 2710 FB18     		add	r3, r7, r3
 5895 2712 1A80     		strh	r2, [r3]
 973:Source\TransformFunctions/arm_cfft_radix4_q15.c ****     R1 = (R1 >> 1u) - (T1 >> 1u);
ARM GAS  C:\Users\fneves\AppData\Local\Temp\cc0ayw4Y.s 			page 140


 5896              		.loc 1 973 0
 5897 2714 A023     		mov	r3, #160
 5898 2716 9B00     		lsl	r3, r3, #2
 5899 2718 FB18     		add	r3, r7, r3
 5900 271a 0022     		mov	r2, #0
 5901 271c 9B5E     		ldrsh	r3, [r3, r2]
 5902 271e 5B10     		asr	r3, r3, #1
 5903 2720 9BB2     		uxth	r3, r3
 5904 2722 9AB2     		uxth	r2, r3
 5905 2724 A223     		mov	r3, #162
 5906 2726 9B00     		lsl	r3, r3, #2
 5907 2728 FB18     		add	r3, r7, r3
 5908 272a 0021     		mov	r1, #0
 5909 272c 5B5E     		ldrsh	r3, [r3, r1]
 5910 272e 5B10     		asr	r3, r3, #1
 5911 2730 9BB2     		uxth	r3, r3
 5912 2732 9BB2     		uxth	r3, r3
 5913 2734 D31A     		sub	r3, r2, r3
 5914 2736 9AB2     		uxth	r2, r3
 5915 2738 A023     		mov	r3, #160
 5916 273a 9B00     		lsl	r3, r3, #2
 5917 273c FB18     		add	r3, r7, r3
 5918 273e 1A80     		strh	r2, [r3]
 974:Source\TransformFunctions/arm_cfft_radix4_q15.c ****     /* Read yb (real), xb(imag) input */
 975:Source\TransformFunctions/arm_cfft_radix4_q15.c ****     T0 = pSrc16[i1 * 2u];
 5919              		.loc 1 975 0
 5920 2740 A523     		mov	r3, #165
 5921 2742 9B00     		lsl	r3, r3, #2
 5922 2744 FB18     		add	r3, r7, r3
 5923 2746 1B68     		ldr	r3, [r3]
 5924 2748 9B00     		lsl	r3, r3, #2
 5925 274a FA68     		ldr	r2, [r7, #12]
 5926 274c D218     		add	r2, r2, r3
 5927 274e A04B     		ldr	r3, .L247+4
 5928 2750 FB18     		add	r3, r7, r3
 5929 2752 1288     		ldrh	r2, [r2]
 5930 2754 1A80     		strh	r2, [r3]
 976:Source\TransformFunctions/arm_cfft_radix4_q15.c ****     T1 = pSrc16[(i1 * 2u) + 1u];
 5931              		.loc 1 976 0
 5932 2756 A523     		mov	r3, #165
 5933 2758 9B00     		lsl	r3, r3, #2
 5934 275a FB18     		add	r3, r7, r3
 5935 275c 1B68     		ldr	r3, [r3]
 5936 275e 9B00     		lsl	r3, r3, #2
 5937 2760 0233     		add	r3, r3, #2
 5938 2762 FA68     		ldr	r2, [r7, #12]
 5939 2764 D218     		add	r2, r2, r3
 5940 2766 A223     		mov	r3, #162
 5941 2768 9B00     		lsl	r3, r3, #2
 5942 276a FB18     		add	r3, r7, r3
 5943 276c 1288     		ldrh	r2, [r2]
 5944 276e 1A80     		strh	r2, [r3]
 977:Source\TransformFunctions/arm_cfft_radix4_q15.c **** 
 978:Source\TransformFunctions/arm_cfft_radix4_q15.c ****     /*  writing the butterfly processed i0 + fftLen/4 sample */
 979:Source\TransformFunctions/arm_cfft_radix4_q15.c ****     /* xc' = (xa-xb+xc-xd) */
 980:Source\TransformFunctions/arm_cfft_radix4_q15.c ****     /* yc' = (ya-yb+yc-yd) */
 981:Source\TransformFunctions/arm_cfft_radix4_q15.c ****     pSrc16[i1 * 2u] = R0;
ARM GAS  C:\Users\fneves\AppData\Local\Temp\cc0ayw4Y.s 			page 141


 5945              		.loc 1 981 0
 5946 2770 A523     		mov	r3, #165
 5947 2772 9B00     		lsl	r3, r3, #2
 5948 2774 FB18     		add	r3, r7, r3
 5949 2776 1B68     		ldr	r3, [r3]
 5950 2778 9B00     		lsl	r3, r3, #2
 5951 277a FA68     		ldr	r2, [r7, #12]
 5952 277c D318     		add	r3, r2, r3
 5953 277e 934A     		ldr	r2, .L247
 5954 2780 BA18     		add	r2, r7, r2
 5955 2782 1288     		ldrh	r2, [r2]
 5956 2784 1A80     		strh	r2, [r3]
 982:Source\TransformFunctions/arm_cfft_radix4_q15.c ****     pSrc16[(i1 * 2u) + 1u] = R1;
 5957              		.loc 1 982 0
 5958 2786 A523     		mov	r3, #165
 5959 2788 9B00     		lsl	r3, r3, #2
 5960 278a FB18     		add	r3, r7, r3
 5961 278c 1B68     		ldr	r3, [r3]
 5962 278e 9B00     		lsl	r3, r3, #2
 5963 2790 0233     		add	r3, r3, #2
 5964 2792 FA68     		ldr	r2, [r7, #12]
 5965 2794 D318     		add	r3, r2, r3
 5966 2796 A022     		mov	r2, #160
 5967 2798 9200     		lsl	r2, r2, #2
 5968 279a BA18     		add	r2, r7, r2
 5969 279c 1288     		ldrh	r2, [r2]
 5970 279e 1A80     		strh	r2, [r3]
 983:Source\TransformFunctions/arm_cfft_radix4_q15.c **** 
 984:Source\TransformFunctions/arm_cfft_radix4_q15.c ****     /* Read yd (real), xd(imag) input */
 985:Source\TransformFunctions/arm_cfft_radix4_q15.c ****     U0 = pSrc16[i3 * 2u];
 5971              		.loc 1 985 0
 5972 27a0 A323     		mov	r3, #163
 5973 27a2 9B00     		lsl	r3, r3, #2
 5974 27a4 FB18     		add	r3, r7, r3
 5975 27a6 1B68     		ldr	r3, [r3]
 5976 27a8 9B00     		lsl	r3, r3, #2
 5977 27aa FA68     		ldr	r2, [r7, #12]
 5978 27ac D218     		add	r2, r2, r3
 5979 27ae 894B     		ldr	r3, .L247+8
 5980 27b0 FB18     		add	r3, r7, r3
 5981 27b2 1288     		ldrh	r2, [r2]
 5982 27b4 1A80     		strh	r2, [r3]
 986:Source\TransformFunctions/arm_cfft_radix4_q15.c ****     U1 = pSrc16[(i3 * 2u) + 1u];
 5983              		.loc 1 986 0
 5984 27b6 A323     		mov	r3, #163
 5985 27b8 9B00     		lsl	r3, r3, #2
 5986 27ba FB18     		add	r3, r7, r3
 5987 27bc 1B68     		ldr	r3, [r3]
 5988 27be 9B00     		lsl	r3, r3, #2
 5989 27c0 0233     		add	r3, r3, #2
 5990 27c2 FA68     		ldr	r2, [r7, #12]
 5991 27c4 D218     		add	r2, r2, r3
 5992 27c6 9F23     		mov	r3, #159
 5993 27c8 9B00     		lsl	r3, r3, #2
 5994 27ca FB18     		add	r3, r7, r3
 5995 27cc 1288     		ldrh	r2, [r2]
 5996 27ce 1A80     		strh	r2, [r3]
ARM GAS  C:\Users\fneves\AppData\Local\Temp\cc0ayw4Y.s 			page 142


 987:Source\TransformFunctions/arm_cfft_radix4_q15.c ****     /* T0 = (yb - yd), T1 = (xb - xd)  */
 988:Source\TransformFunctions/arm_cfft_radix4_q15.c ****     T0 = __SSAT(T0 - U0, 16u);
 5997              		.loc 1 988 0
 5998 27d0 7F4B     		ldr	r3, .L247+4
 5999 27d2 FB18     		add	r3, r7, r3
 6000 27d4 0022     		mov	r2, #0
 6001 27d6 9A5E     		ldrsh	r2, [r3, r2]
 6002 27d8 7E4B     		ldr	r3, .L247+8
 6003 27da FB18     		add	r3, r7, r3
 6004 27dc 0021     		mov	r1, #0
 6005 27de 5B5E     		ldrsh	r3, [r3, r1]
 6006 27e0 D31A     		sub	r3, r2, r3
 6007 27e2 BB63     		str	r3, [r7, #56]
 6008 27e4 1023     		mov	r3, #16
 6009 27e6 7B63     		str	r3, [r7, #52]
 6010              	.LBB178:
 6011              	.LBB179:
 699:.\Include/arm_math.h ****     for (i = 0; i < (y - 1); i++)
 6012              		.loc 2 699 0
 6013 27e8 0123     		mov	r3, #1
 6014 27ea 3B63     		str	r3, [r7, #48]
 700:.\Include/arm_math.h ****     {
 6015              		.loc 2 700 0
 6016 27ec 0023     		mov	r3, #0
 6017 27ee FB62     		str	r3, [r7, #44]
 6018 27f0 05E0     		b	.L182
 6019              	.L183:
 702:.\Include/arm_math.h ****     }
 6020              		.loc 2 702 0
 6021 27f2 3B6B     		ldr	r3, [r7, #48]
 6022 27f4 5B00     		lsl	r3, r3, #1
 6023 27f6 3B63     		str	r3, [r7, #48]
 700:.\Include/arm_math.h ****     {
 6024              		.loc 2 700 0
 6025 27f8 FB6A     		ldr	r3, [r7, #44]
 6026 27fa 0133     		add	r3, r3, #1
 6027 27fc FB62     		str	r3, [r7, #44]
 6028              	.L182:
 6029 27fe 7B6B     		ldr	r3, [r7, #52]
 6030 2800 013B     		sub	r3, r3, #1
 6031 2802 FA6A     		ldr	r2, [r7, #44]
 6032 2804 9A42     		cmp	r2, r3
 6033 2806 F4D3     		bcc	.L183
 705:.\Include/arm_math.h ****     {
 6034              		.loc 2 705 0
 6035 2808 BB6B     		ldr	r3, [r7, #56]
 6036 280a 002B     		cmp	r3, #0
 6037 280c 09DD     		ble	.L184
 707:.\Include/arm_math.h **** 
 6038              		.loc 2 707 0
 6039 280e 3B6B     		ldr	r3, [r7, #48]
 6040 2810 013B     		sub	r3, r3, #1
 6041 2812 3B63     		str	r3, [r7, #48]
 709:.\Include/arm_math.h ****       {
 6042              		.loc 2 709 0
 6043 2814 BA6B     		ldr	r2, [r7, #56]
 6044 2816 3B6B     		ldr	r3, [r7, #48]
ARM GAS  C:\Users\fneves\AppData\Local\Temp\cc0ayw4Y.s 			page 143


 6045 2818 9A42     		cmp	r2, r3
 6046 281a 0CDD     		ble	.L223
 711:.\Include/arm_math.h ****       }
 6047              		.loc 2 711 0
 6048 281c 3B6B     		ldr	r3, [r7, #48]
 6049 281e BB63     		str	r3, [r7, #56]
 6050 2820 0AE0     		b	.L186
 6051              	.L184:
 716:.\Include/arm_math.h **** 
 6052              		.loc 2 716 0
 6053 2822 3B6B     		ldr	r3, [r7, #48]
 6054 2824 5B42     		neg	r3, r3
 6055 2826 BB62     		str	r3, [r7, #40]
 718:.\Include/arm_math.h ****       {
 6056              		.loc 2 718 0
 6057 2828 BA6B     		ldr	r2, [r7, #56]
 6058 282a BB6A     		ldr	r3, [r7, #40]
 6059 282c 9A42     		cmp	r2, r3
 6060 282e 03DA     		bge	.L186
 720:.\Include/arm_math.h ****       }
 6061              		.loc 2 720 0
 6062 2830 BB6A     		ldr	r3, [r7, #40]
 6063 2832 BB63     		str	r3, [r7, #56]
 6064 2834 00E0     		b	.L186
 6065              	.L223:
 711:.\Include/arm_math.h ****       }
 6066              		.loc 2 711 0
 6067 2836 C046     		mov	r8, r8
 6068              	.L186:
 6069              		.loc 2 723 0
 6070 2838 BA6B     		ldr	r2, [r7, #56]
 6071              	.LBE179:
 6072              	.LBE178:
 6073              		.loc 1 988 0
 6074 283a 654B     		ldr	r3, .L247+4
 6075 283c FB18     		add	r3, r7, r3
 6076 283e 1A80     		strh	r2, [r3]
 989:Source\TransformFunctions/arm_cfft_radix4_q15.c ****     T1 = __SSAT(T1 - U1, 16u);
 6077              		.loc 1 989 0
 6078 2840 A223     		mov	r3, #162
 6079 2842 9B00     		lsl	r3, r3, #2
 6080 2844 FB18     		add	r3, r7, r3
 6081 2846 0022     		mov	r2, #0
 6082 2848 9A5E     		ldrsh	r2, [r3, r2]
 6083 284a 9F23     		mov	r3, #159
 6084 284c 9B00     		lsl	r3, r3, #2
 6085 284e FB18     		add	r3, r7, r3
 6086 2850 0021     		mov	r1, #0
 6087 2852 5B5E     		ldrsh	r3, [r3, r1]
 6088 2854 D31A     		sub	r3, r2, r3
 6089 2856 7B62     		str	r3, [r7, #36]
 6090 2858 1023     		mov	r3, #16
 6091 285a 3B62     		str	r3, [r7, #32]
 6092              	.LBB180:
 6093              	.LBB181:
 699:.\Include/arm_math.h ****     for (i = 0; i < (y - 1); i++)
 6094              		.loc 2 699 0
ARM GAS  C:\Users\fneves\AppData\Local\Temp\cc0ayw4Y.s 			page 144


 6095 285c 0123     		mov	r3, #1
 6096 285e FB61     		str	r3, [r7, #28]
 700:.\Include/arm_math.h ****     {
 6097              		.loc 2 700 0
 6098 2860 0023     		mov	r3, #0
 6099 2862 BB61     		str	r3, [r7, #24]
 6100 2864 05E0     		b	.L188
 6101              	.L189:
 702:.\Include/arm_math.h ****     }
 6102              		.loc 2 702 0
 6103 2866 FB69     		ldr	r3, [r7, #28]
 6104 2868 5B00     		lsl	r3, r3, #1
 6105 286a FB61     		str	r3, [r7, #28]
 700:.\Include/arm_math.h ****     {
 6106              		.loc 2 700 0
 6107 286c BB69     		ldr	r3, [r7, #24]
 6108 286e 0133     		add	r3, r3, #1
 6109 2870 BB61     		str	r3, [r7, #24]
 6110              	.L188:
 6111 2872 3B6A     		ldr	r3, [r7, #32]
 6112 2874 013B     		sub	r3, r3, #1
 6113 2876 BA69     		ldr	r2, [r7, #24]
 6114 2878 9A42     		cmp	r2, r3
 6115 287a F4D3     		bcc	.L189
 705:.\Include/arm_math.h ****     {
 6116              		.loc 2 705 0
 6117 287c 7B6A     		ldr	r3, [r7, #36]
 6118 287e 002B     		cmp	r3, #0
 6119 2880 09DD     		ble	.L190
 707:.\Include/arm_math.h **** 
 6120              		.loc 2 707 0
 6121 2882 FB69     		ldr	r3, [r7, #28]
 6122 2884 013B     		sub	r3, r3, #1
 6123 2886 FB61     		str	r3, [r7, #28]
 709:.\Include/arm_math.h ****       {
 6124              		.loc 2 709 0
 6125 2888 7A6A     		ldr	r2, [r7, #36]
 6126 288a FB69     		ldr	r3, [r7, #28]
 6127 288c 9A42     		cmp	r2, r3
 6128 288e 0CDD     		ble	.L224
 711:.\Include/arm_math.h ****       }
 6129              		.loc 2 711 0
 6130 2890 FB69     		ldr	r3, [r7, #28]
 6131 2892 7B62     		str	r3, [r7, #36]
 6132 2894 0AE0     		b	.L192
 6133              	.L190:
 716:.\Include/arm_math.h **** 
 6134              		.loc 2 716 0
 6135 2896 FB69     		ldr	r3, [r7, #28]
 6136 2898 5B42     		neg	r3, r3
 6137 289a 7B61     		str	r3, [r7, #20]
 718:.\Include/arm_math.h ****       {
 6138              		.loc 2 718 0
 6139 289c 7A6A     		ldr	r2, [r7, #36]
 6140 289e 7B69     		ldr	r3, [r7, #20]
 6141 28a0 9A42     		cmp	r2, r3
 6142 28a2 03DA     		bge	.L192
ARM GAS  C:\Users\fneves\AppData\Local\Temp\cc0ayw4Y.s 			page 145


 720:.\Include/arm_math.h ****       }
 6143              		.loc 2 720 0
 6144 28a4 7B69     		ldr	r3, [r7, #20]
 6145 28a6 7B62     		str	r3, [r7, #36]
 6146 28a8 00E0     		b	.L192
 6147              	.L224:
 711:.\Include/arm_math.h ****       }
 6148              		.loc 2 711 0
 6149 28aa C046     		mov	r8, r8
 6150              	.L192:
 6151              		.loc 2 723 0
 6152 28ac 7A6A     		ldr	r2, [r7, #36]
 6153              	.LBE181:
 6154              	.LBE180:
 6155              		.loc 1 989 0
 6156 28ae A223     		mov	r3, #162
 6157 28b0 9B00     		lsl	r3, r3, #2
 6158 28b2 FB18     		add	r3, r7, r3
 6159 28b4 1A80     		strh	r2, [r3]
 990:Source\TransformFunctions/arm_cfft_radix4_q15.c **** 
 991:Source\TransformFunctions/arm_cfft_radix4_q15.c ****     /*  writing the butterfly processed i0 + fftLen/2 sample */
 992:Source\TransformFunctions/arm_cfft_radix4_q15.c ****     /* xb' = (xa+yb-xc-yd) */
 993:Source\TransformFunctions/arm_cfft_radix4_q15.c ****     /* yb' = (ya-xb-yc+xd) */
 994:Source\TransformFunctions/arm_cfft_radix4_q15.c ****     pSrc16[i2 * 2u] = (S0 >> 1u) + (T1 >> 1u);
 6160              		.loc 1 994 0
 6161 28b6 A423     		mov	r3, #164
 6162 28b8 9B00     		lsl	r3, r3, #2
 6163 28ba FB18     		add	r3, r7, r3
 6164 28bc 1B68     		ldr	r3, [r3]
 6165 28be 9B00     		lsl	r3, r3, #2
 6166 28c0 FA68     		ldr	r2, [r7, #12]
 6167 28c2 D318     		add	r3, r2, r3
 6168 28c4 444A     		ldr	r2, .L247+12
 6169 28c6 BA18     		add	r2, r7, r2
 6170 28c8 0021     		mov	r1, #0
 6171 28ca 525E     		ldrsh	r2, [r2, r1]
 6172 28cc 5210     		asr	r2, r2, #1
 6173 28ce 92B2     		uxth	r2, r2
 6174 28d0 91B2     		uxth	r1, r2
 6175 28d2 A222     		mov	r2, #162
 6176 28d4 9200     		lsl	r2, r2, #2
 6177 28d6 BA18     		add	r2, r7, r2
 6178 28d8 0020     		mov	r0, #0
 6179 28da 125E     		ldrsh	r2, [r2, r0]
 6180 28dc 5210     		asr	r2, r2, #1
 6181 28de 92B2     		uxth	r2, r2
 6182 28e0 92B2     		uxth	r2, r2
 6183 28e2 8A18     		add	r2, r1, r2
 6184 28e4 92B2     		uxth	r2, r2
 6185 28e6 92B2     		uxth	r2, r2
 6186 28e8 1A80     		strh	r2, [r3]
 995:Source\TransformFunctions/arm_cfft_radix4_q15.c ****     pSrc16[(i2 * 2u) + 1u] = (S1 >> 1u) - (T0 >> 1u);
 6187              		.loc 1 995 0
 6188 28ea A423     		mov	r3, #164
 6189 28ec 9B00     		lsl	r3, r3, #2
 6190 28ee FB18     		add	r3, r7, r3
 6191 28f0 1B68     		ldr	r3, [r3]
ARM GAS  C:\Users\fneves\AppData\Local\Temp\cc0ayw4Y.s 			page 146


 6192 28f2 9B00     		lsl	r3, r3, #2
 6193 28f4 0233     		add	r3, r3, #2
 6194 28f6 FA68     		ldr	r2, [r7, #12]
 6195 28f8 D318     		add	r3, r2, r3
 6196 28fa A122     		mov	r2, #161
 6197 28fc 9200     		lsl	r2, r2, #2
 6198 28fe BA18     		add	r2, r7, r2
 6199 2900 0021     		mov	r1, #0
 6200 2902 525E     		ldrsh	r2, [r2, r1]
 6201 2904 5210     		asr	r2, r2, #1
 6202 2906 92B2     		uxth	r2, r2
 6203 2908 91B2     		uxth	r1, r2
 6204 290a 314A     		ldr	r2, .L247+4
 6205 290c BA18     		add	r2, r7, r2
 6206 290e 0020     		mov	r0, #0
 6207 2910 125E     		ldrsh	r2, [r2, r0]
 6208 2912 5210     		asr	r2, r2, #1
 6209 2914 92B2     		uxth	r2, r2
 6210 2916 92B2     		uxth	r2, r2
 6211 2918 8A1A     		sub	r2, r1, r2
 6212 291a 92B2     		uxth	r2, r2
 6213 291c 92B2     		uxth	r2, r2
 6214 291e 1A80     		strh	r2, [r3]
 996:Source\TransformFunctions/arm_cfft_radix4_q15.c **** 
 997:Source\TransformFunctions/arm_cfft_radix4_q15.c ****     /*  writing the butterfly processed i0 + 3fftLen/4 sample */
 998:Source\TransformFunctions/arm_cfft_radix4_q15.c ****     /* xd' = (xa-yb-xc+yd) */
 999:Source\TransformFunctions/arm_cfft_radix4_q15.c ****     /* yd' = (ya+xb-yc-xd) */
1000:Source\TransformFunctions/arm_cfft_radix4_q15.c ****     pSrc16[i3 * 2u] = (S0 >> 1u) - (T1 >> 1u);
 6215              		.loc 1 1000 0
 6216 2920 A323     		mov	r3, #163
 6217 2922 9B00     		lsl	r3, r3, #2
 6218 2924 FB18     		add	r3, r7, r3
 6219 2926 1B68     		ldr	r3, [r3]
 6220 2928 9B00     		lsl	r3, r3, #2
 6221 292a FA68     		ldr	r2, [r7, #12]
 6222 292c D318     		add	r3, r2, r3
 6223 292e 2A4A     		ldr	r2, .L247+12
 6224 2930 BA18     		add	r2, r7, r2
 6225 2932 0021     		mov	r1, #0
 6226 2934 525E     		ldrsh	r2, [r2, r1]
 6227 2936 5210     		asr	r2, r2, #1
 6228 2938 92B2     		uxth	r2, r2
 6229 293a 91B2     		uxth	r1, r2
 6230 293c A222     		mov	r2, #162
 6231 293e 9200     		lsl	r2, r2, #2
 6232 2940 BA18     		add	r2, r7, r2
 6233 2942 0020     		mov	r0, #0
 6234 2944 125E     		ldrsh	r2, [r2, r0]
 6235 2946 5210     		asr	r2, r2, #1
 6236 2948 92B2     		uxth	r2, r2
 6237 294a 92B2     		uxth	r2, r2
 6238 294c 8A1A     		sub	r2, r1, r2
 6239 294e 92B2     		uxth	r2, r2
 6240 2950 92B2     		uxth	r2, r2
 6241 2952 1A80     		strh	r2, [r3]
1001:Source\TransformFunctions/arm_cfft_radix4_q15.c ****     pSrc16[(i3 * 2u) + 1u] = (S1 >> 1u) + (T0 >> 1u);
 6242              		.loc 1 1001 0
ARM GAS  C:\Users\fneves\AppData\Local\Temp\cc0ayw4Y.s 			page 147


 6243 2954 A323     		mov	r3, #163
 6244 2956 9B00     		lsl	r3, r3, #2
 6245 2958 FB18     		add	r3, r7, r3
 6246 295a 1B68     		ldr	r3, [r3]
 6247 295c 9B00     		lsl	r3, r3, #2
 6248 295e 0233     		add	r3, r3, #2
 6249 2960 FA68     		ldr	r2, [r7, #12]
 6250 2962 D318     		add	r3, r2, r3
 6251 2964 A122     		mov	r2, #161
 6252 2966 9200     		lsl	r2, r2, #2
 6253 2968 BA18     		add	r2, r7, r2
 6254 296a 0021     		mov	r1, #0
 6255 296c 525E     		ldrsh	r2, [r2, r1]
 6256 296e 5210     		asr	r2, r2, #1
 6257 2970 92B2     		uxth	r2, r2
 6258 2972 91B2     		uxth	r1, r2
 6259 2974 164A     		ldr	r2, .L247+4
 6260 2976 BA18     		add	r2, r7, r2
 6261 2978 0020     		mov	r0, #0
 6262 297a 125E     		ldrsh	r2, [r2, r0]
 6263 297c 5210     		asr	r2, r2, #1
 6264 297e 92B2     		uxth	r2, r2
 6265 2980 92B2     		uxth	r2, r2
 6266 2982 8A18     		add	r2, r1, r2
 6267 2984 92B2     		uxth	r2, r2
 6268 2986 92B2     		uxth	r2, r2
 6269 2988 1A80     		strh	r2, [r3]
 928:Source\TransformFunctions/arm_cfft_radix4_q15.c ****   {
 6270              		.loc 1 928 0
 6271 298a A923     		mov	r3, #169
 6272 298c 9B00     		lsl	r3, r3, #2
 6273 298e FB18     		add	r3, r7, r3
 6274 2990 1A68     		ldr	r2, [r3]
 6275 2992 A623     		mov	r3, #166
 6276 2994 9B00     		lsl	r3, r3, #2
 6277 2996 FB18     		add	r3, r7, r3
 6278 2998 1B68     		ldr	r3, [r3]
 6279 299a D318     		add	r3, r2, r3
 6280 299c A922     		mov	r2, #169
 6281 299e 9200     		lsl	r2, r2, #2
 6282 29a0 BA18     		add	r2, r7, r2
 6283 29a2 1360     		str	r3, [r2]
 6284              	.L145:
 928:Source\TransformFunctions/arm_cfft_radix4_q15.c ****   {
 6285              		.loc 1 928 0 is_stmt 0 discriminator 1
 6286 29a4 BA68     		ldr	r2, [r7, #8]
 6287 29a6 A623     		mov	r3, #166
 6288 29a8 9B00     		lsl	r3, r3, #2
 6289 29aa FB18     		add	r3, r7, r3
 6290 29ac 1B68     		ldr	r3, [r3]
 6291 29ae D21A     		sub	r2, r2, r3
 6292 29b0 A923     		mov	r3, #169
 6293 29b2 9B00     		lsl	r3, r3, #2
 6294 29b4 FB18     		add	r3, r7, r3
 6295 29b6 1B68     		ldr	r3, [r3]
 6296 29b8 9A42     		cmp	r2, r3
 6297 29ba 01D3     		bcc	.LCB5808
ARM GAS  C:\Users\fneves\AppData\Local\Temp\cc0ayw4Y.s 			page 148


 6298 29bc FFF7ECFB 		bl	.L194	@far jump
 6299              	.LCB5808:
1002:Source\TransformFunctions/arm_cfft_radix4_q15.c **** 
1003:Source\TransformFunctions/arm_cfft_radix4_q15.c ****   }
1004:Source\TransformFunctions/arm_cfft_radix4_q15.c **** 
1005:Source\TransformFunctions/arm_cfft_radix4_q15.c ****   /* end of last stage process */
1006:Source\TransformFunctions/arm_cfft_radix4_q15.c **** 
1007:Source\TransformFunctions/arm_cfft_radix4_q15.c ****   /* output is in 11.5(q5) format for the 1024 point */
1008:Source\TransformFunctions/arm_cfft_radix4_q15.c ****   /* output is in 9.7(q7) format for the 256 point   */
1009:Source\TransformFunctions/arm_cfft_radix4_q15.c ****   /* output is in 7.9(q9) format for the 64 point  */
1010:Source\TransformFunctions/arm_cfft_radix4_q15.c ****   /* output is in 5.11(q11) format for the 16 point  */
1011:Source\TransformFunctions/arm_cfft_radix4_q15.c **** 
1012:Source\TransformFunctions/arm_cfft_radix4_q15.c **** #endif /* #if defined (ARM_MATH_DSP) */
1013:Source\TransformFunctions/arm_cfft_radix4_q15.c **** 
1014:Source\TransformFunctions/arm_cfft_radix4_q15.c **** }
 6300              		.loc 1 1014 0 is_stmt 1
 6301 29c0 BD46     		mov	sp, r7
 6302 29c2 AC23     		mov	r3, #172
 6303 29c4 9B00     		lsl	r3, r3, #2
 6304 29c6 9D44     		add	sp, sp, r3
 6305              		@ sp needed
 6306 29c8 80BD     		pop	{r7, pc}
 6307              	.L248:
 6308 29ca C046     		.align	2
 6309              	.L247:
 6310 29cc 82020000 		.word	642
 6311 29d0 8A020000 		.word	650
 6312 29d4 7E020000 		.word	638
 6313 29d8 86020000 		.word	646
 6314              		.cfi_endproc
 6315              	.LFE83:
 6316              		.size	arm_radix4_butterfly_q15, .-arm_radix4_butterfly_q15
 6317              		.section	.text.arm_radix4_butterfly_inverse_q15,"ax",%progbits
 6318              		.align	2
 6319              		.global	arm_radix4_butterfly_inverse_q15
 6320              		.code	16
 6321              		.thumb_func
 6322              		.type	arm_radix4_butterfly_inverse_q15, %function
 6323              	arm_radix4_butterfly_inverse_q15:
 6324              	.LFB84:
1015:Source\TransformFunctions/arm_cfft_radix4_q15.c **** 
1016:Source\TransformFunctions/arm_cfft_radix4_q15.c **** 
1017:Source\TransformFunctions/arm_cfft_radix4_q15.c **** /**
1018:Source\TransformFunctions/arm_cfft_radix4_q15.c ****  * @brief  Core function for the Q15 CIFFT butterfly process.
1019:Source\TransformFunctions/arm_cfft_radix4_q15.c ****  * @param[in, out] *pSrc16          points to the in-place buffer of Q15 data type.
1020:Source\TransformFunctions/arm_cfft_radix4_q15.c ****  * @param[in]      fftLen           length of the FFT.
1021:Source\TransformFunctions/arm_cfft_radix4_q15.c ****  * @param[in]      *pCoef16         points to twiddle coefficient buffer.
1022:Source\TransformFunctions/arm_cfft_radix4_q15.c ****  * @param[in]      twidCoefModifier twiddle coefficient modifier that supports different size FFTs 
1023:Source\TransformFunctions/arm_cfft_radix4_q15.c ****  * @return none.
1024:Source\TransformFunctions/arm_cfft_radix4_q15.c ****  */
1025:Source\TransformFunctions/arm_cfft_radix4_q15.c **** 
1026:Source\TransformFunctions/arm_cfft_radix4_q15.c **** /*
1027:Source\TransformFunctions/arm_cfft_radix4_q15.c **** * Radix-4 IFFT algorithm used is :
1028:Source\TransformFunctions/arm_cfft_radix4_q15.c **** *
1029:Source\TransformFunctions/arm_cfft_radix4_q15.c **** * CIFFT uses same twiddle coefficients as CFFT function
1030:Source\TransformFunctions/arm_cfft_radix4_q15.c **** *  x[k] = x[n] + (j)k * x[n + fftLen/4] + (-1)k * x[n+fftLen/2] + (-j)k * x[n+3*fftLen/4]
1031:Source\TransformFunctions/arm_cfft_radix4_q15.c **** *
ARM GAS  C:\Users\fneves\AppData\Local\Temp\cc0ayw4Y.s 			page 149


1032:Source\TransformFunctions/arm_cfft_radix4_q15.c **** *
1033:Source\TransformFunctions/arm_cfft_radix4_q15.c **** * IFFT is implemented with following changes in equations from FFT
1034:Source\TransformFunctions/arm_cfft_radix4_q15.c **** *
1035:Source\TransformFunctions/arm_cfft_radix4_q15.c **** * Input real and imaginary data:
1036:Source\TransformFunctions/arm_cfft_radix4_q15.c **** * x(n) = xa + j * ya
1037:Source\TransformFunctions/arm_cfft_radix4_q15.c **** * x(n+N/4 ) = xb + j * yb
1038:Source\TransformFunctions/arm_cfft_radix4_q15.c **** * x(n+N/2 ) = xc + j * yc
1039:Source\TransformFunctions/arm_cfft_radix4_q15.c **** * x(n+3N 4) = xd + j * yd
1040:Source\TransformFunctions/arm_cfft_radix4_q15.c **** *
1041:Source\TransformFunctions/arm_cfft_radix4_q15.c **** *
1042:Source\TransformFunctions/arm_cfft_radix4_q15.c **** * Output real and imaginary data:
1043:Source\TransformFunctions/arm_cfft_radix4_q15.c **** * x(4r) = xa'+ j * ya'
1044:Source\TransformFunctions/arm_cfft_radix4_q15.c **** * x(4r+1) = xb'+ j * yb'
1045:Source\TransformFunctions/arm_cfft_radix4_q15.c **** * x(4r+2) = xc'+ j * yc'
1046:Source\TransformFunctions/arm_cfft_radix4_q15.c **** * x(4r+3) = xd'+ j * yd'
1047:Source\TransformFunctions/arm_cfft_radix4_q15.c **** *
1048:Source\TransformFunctions/arm_cfft_radix4_q15.c **** *
1049:Source\TransformFunctions/arm_cfft_radix4_q15.c **** * Twiddle factors for radix-4 IFFT:
1050:Source\TransformFunctions/arm_cfft_radix4_q15.c **** * Wn = co1 + j * (si1)
1051:Source\TransformFunctions/arm_cfft_radix4_q15.c **** * W2n = co2 + j * (si2)
1052:Source\TransformFunctions/arm_cfft_radix4_q15.c **** * W3n = co3 + j * (si3)
1053:Source\TransformFunctions/arm_cfft_radix4_q15.c **** 
1054:Source\TransformFunctions/arm_cfft_radix4_q15.c **** * The real and imaginary output values for the radix-4 butterfly are
1055:Source\TransformFunctions/arm_cfft_radix4_q15.c **** * xa' = xa + xb + xc + xd
1056:Source\TransformFunctions/arm_cfft_radix4_q15.c **** * ya' = ya + yb + yc + yd
1057:Source\TransformFunctions/arm_cfft_radix4_q15.c **** * xb' = (xa-yb-xc+yd)* co1 - (ya+xb-yc-xd)* (si1)
1058:Source\TransformFunctions/arm_cfft_radix4_q15.c **** * yb' = (ya+xb-yc-xd)* co1 + (xa-yb-xc+yd)* (si1)
1059:Source\TransformFunctions/arm_cfft_radix4_q15.c **** * xc' = (xa-xb+xc-xd)* co2 - (ya-yb+yc-yd)* (si2)
1060:Source\TransformFunctions/arm_cfft_radix4_q15.c **** * yc' = (ya-yb+yc-yd)* co2 + (xa-xb+xc-xd)* (si2)
1061:Source\TransformFunctions/arm_cfft_radix4_q15.c **** * xd' = (xa+yb-xc-yd)* co3 - (ya-xb-yc+xd)* (si3)
1062:Source\TransformFunctions/arm_cfft_radix4_q15.c **** * yd' = (ya-xb-yc+xd)* co3 + (xa+yb-xc-yd)* (si3)
1063:Source\TransformFunctions/arm_cfft_radix4_q15.c **** *
1064:Source\TransformFunctions/arm_cfft_radix4_q15.c **** */
1065:Source\TransformFunctions/arm_cfft_radix4_q15.c **** 
1066:Source\TransformFunctions/arm_cfft_radix4_q15.c **** void arm_radix4_butterfly_inverse_q15(
1067:Source\TransformFunctions/arm_cfft_radix4_q15.c ****   q15_t * pSrc16,
1068:Source\TransformFunctions/arm_cfft_radix4_q15.c ****   uint32_t fftLen,
1069:Source\TransformFunctions/arm_cfft_radix4_q15.c ****   q15_t * pCoef16,
1070:Source\TransformFunctions/arm_cfft_radix4_q15.c ****   uint32_t twidCoefModifier)
1071:Source\TransformFunctions/arm_cfft_radix4_q15.c **** {
 6325              		.loc 1 1071 0
 6326              		.cfi_startproc
 6327 0000 80B5     		push	{r7, lr}
 6328              		.cfi_def_cfa_offset 8
 6329              		.cfi_offset 7, -8
 6330              		.cfi_offset 14, -4
 6331 0002 D74F     		ldr	r7, .L469
 6332 0004 BD44     		add	sp, sp, r7
 6333              		.cfi_def_cfa_offset 696
 6334 0006 00AF     		add	r7, sp, #0
 6335              		.cfi_def_cfa_register 7
 6336 0008 F860     		str	r0, [r7, #12]
 6337 000a B960     		str	r1, [r7, #8]
 6338 000c 7A60     		str	r2, [r7, #4]
 6339 000e 3B60     		str	r3, [r7]
1072:Source\TransformFunctions/arm_cfft_radix4_q15.c **** 
1073:Source\TransformFunctions/arm_cfft_radix4_q15.c **** #if defined (ARM_MATH_DSP)
ARM GAS  C:\Users\fneves\AppData\Local\Temp\cc0ayw4Y.s 			page 150


1074:Source\TransformFunctions/arm_cfft_radix4_q15.c **** 
1075:Source\TransformFunctions/arm_cfft_radix4_q15.c ****   /* Run the below code for Cortex-M4 and Cortex-M3 */
1076:Source\TransformFunctions/arm_cfft_radix4_q15.c **** 
1077:Source\TransformFunctions/arm_cfft_radix4_q15.c ****   q31_t R, S, T, U;
1078:Source\TransformFunctions/arm_cfft_radix4_q15.c ****   q31_t C1, C2, C3, out1, out2;
1079:Source\TransformFunctions/arm_cfft_radix4_q15.c ****   uint32_t n1, n2, ic, i0, j, k;
1080:Source\TransformFunctions/arm_cfft_radix4_q15.c **** 
1081:Source\TransformFunctions/arm_cfft_radix4_q15.c ****   q15_t *ptr1;
1082:Source\TransformFunctions/arm_cfft_radix4_q15.c ****   q15_t *pSi0;
1083:Source\TransformFunctions/arm_cfft_radix4_q15.c ****   q15_t *pSi1;
1084:Source\TransformFunctions/arm_cfft_radix4_q15.c ****   q15_t *pSi2;
1085:Source\TransformFunctions/arm_cfft_radix4_q15.c ****   q15_t *pSi3;
1086:Source\TransformFunctions/arm_cfft_radix4_q15.c **** 
1087:Source\TransformFunctions/arm_cfft_radix4_q15.c ****   q31_t xaya, xbyb, xcyc, xdyd;
1088:Source\TransformFunctions/arm_cfft_radix4_q15.c **** 
1089:Source\TransformFunctions/arm_cfft_radix4_q15.c ****   /* Total process is divided into three stages */
1090:Source\TransformFunctions/arm_cfft_radix4_q15.c **** 
1091:Source\TransformFunctions/arm_cfft_radix4_q15.c ****   /* process first stage, middle stages, & last stage */
1092:Source\TransformFunctions/arm_cfft_radix4_q15.c **** 
1093:Source\TransformFunctions/arm_cfft_radix4_q15.c ****   /*  Initializations for the first stage */
1094:Source\TransformFunctions/arm_cfft_radix4_q15.c ****   n2 = fftLen;
1095:Source\TransformFunctions/arm_cfft_radix4_q15.c ****   n1 = n2;
1096:Source\TransformFunctions/arm_cfft_radix4_q15.c **** 
1097:Source\TransformFunctions/arm_cfft_radix4_q15.c ****   /* n2 = fftLen/4 */
1098:Source\TransformFunctions/arm_cfft_radix4_q15.c ****   n2 >>= 2u;
1099:Source\TransformFunctions/arm_cfft_radix4_q15.c **** 
1100:Source\TransformFunctions/arm_cfft_radix4_q15.c ****   /* Index for twiddle coefficient */
1101:Source\TransformFunctions/arm_cfft_radix4_q15.c ****   ic = 0u;
1102:Source\TransformFunctions/arm_cfft_radix4_q15.c **** 
1103:Source\TransformFunctions/arm_cfft_radix4_q15.c ****   /* Index for input read and output write */
1104:Source\TransformFunctions/arm_cfft_radix4_q15.c ****   j = n2;
1105:Source\TransformFunctions/arm_cfft_radix4_q15.c **** 
1106:Source\TransformFunctions/arm_cfft_radix4_q15.c ****   pSi0 = pSrc16;
1107:Source\TransformFunctions/arm_cfft_radix4_q15.c ****   pSi1 = pSi0 + 2 * n2;
1108:Source\TransformFunctions/arm_cfft_radix4_q15.c ****   pSi2 = pSi1 + 2 * n2;
1109:Source\TransformFunctions/arm_cfft_radix4_q15.c ****   pSi3 = pSi2 + 2 * n2;
1110:Source\TransformFunctions/arm_cfft_radix4_q15.c **** 
1111:Source\TransformFunctions/arm_cfft_radix4_q15.c ****   /* Input is in 1.15(q15) format */
1112:Source\TransformFunctions/arm_cfft_radix4_q15.c **** 
1113:Source\TransformFunctions/arm_cfft_radix4_q15.c ****   /*  start of first stage process */
1114:Source\TransformFunctions/arm_cfft_radix4_q15.c ****   do
1115:Source\TransformFunctions/arm_cfft_radix4_q15.c ****   {
1116:Source\TransformFunctions/arm_cfft_radix4_q15.c ****     /*  Butterfly implementation */
1117:Source\TransformFunctions/arm_cfft_radix4_q15.c **** 
1118:Source\TransformFunctions/arm_cfft_radix4_q15.c ****     /*  Reading i0, i0+fftLen/2 inputs */
1119:Source\TransformFunctions/arm_cfft_radix4_q15.c ****     /* Read ya (real), xa(imag) input */
1120:Source\TransformFunctions/arm_cfft_radix4_q15.c ****     T = _SIMD32_OFFSET(pSi0);
1121:Source\TransformFunctions/arm_cfft_radix4_q15.c ****     T = __SHADD16(T, 0);
1122:Source\TransformFunctions/arm_cfft_radix4_q15.c ****     T = __SHADD16(T, 0);
1123:Source\TransformFunctions/arm_cfft_radix4_q15.c **** 
1124:Source\TransformFunctions/arm_cfft_radix4_q15.c ****     /* Read yc (real), xc(imag) input */
1125:Source\TransformFunctions/arm_cfft_radix4_q15.c ****     S = _SIMD32_OFFSET(pSi2);
1126:Source\TransformFunctions/arm_cfft_radix4_q15.c ****     S = __SHADD16(S, 0);
1127:Source\TransformFunctions/arm_cfft_radix4_q15.c ****     S = __SHADD16(S, 0);
1128:Source\TransformFunctions/arm_cfft_radix4_q15.c **** 
1129:Source\TransformFunctions/arm_cfft_radix4_q15.c ****     /* R = packed((ya + yc), (xa + xc) ) */
1130:Source\TransformFunctions/arm_cfft_radix4_q15.c ****     R = __QADD16(T, S);
ARM GAS  C:\Users\fneves\AppData\Local\Temp\cc0ayw4Y.s 			page 151


1131:Source\TransformFunctions/arm_cfft_radix4_q15.c **** 
1132:Source\TransformFunctions/arm_cfft_radix4_q15.c ****     /* S = packed((ya - yc), (xa - xc) ) */
1133:Source\TransformFunctions/arm_cfft_radix4_q15.c ****     S = __QSUB16(T, S);
1134:Source\TransformFunctions/arm_cfft_radix4_q15.c **** 
1135:Source\TransformFunctions/arm_cfft_radix4_q15.c ****     /*  Reading i0+fftLen/4 , i0+3fftLen/4 inputs */
1136:Source\TransformFunctions/arm_cfft_radix4_q15.c ****     /* Read yb (real), xb(imag) input */
1137:Source\TransformFunctions/arm_cfft_radix4_q15.c ****     T = _SIMD32_OFFSET(pSi1);
1138:Source\TransformFunctions/arm_cfft_radix4_q15.c ****     T = __SHADD16(T, 0);
1139:Source\TransformFunctions/arm_cfft_radix4_q15.c ****     T = __SHADD16(T, 0);
1140:Source\TransformFunctions/arm_cfft_radix4_q15.c **** 
1141:Source\TransformFunctions/arm_cfft_radix4_q15.c ****     /* Read yd (real), xd(imag) input */
1142:Source\TransformFunctions/arm_cfft_radix4_q15.c ****     U = _SIMD32_OFFSET(pSi3);
1143:Source\TransformFunctions/arm_cfft_radix4_q15.c ****     U = __SHADD16(U, 0);
1144:Source\TransformFunctions/arm_cfft_radix4_q15.c ****     U = __SHADD16(U, 0);
1145:Source\TransformFunctions/arm_cfft_radix4_q15.c **** 
1146:Source\TransformFunctions/arm_cfft_radix4_q15.c ****     /* T = packed((yb + yd), (xb + xd) ) */
1147:Source\TransformFunctions/arm_cfft_radix4_q15.c ****     T = __QADD16(T, U);
1148:Source\TransformFunctions/arm_cfft_radix4_q15.c **** 
1149:Source\TransformFunctions/arm_cfft_radix4_q15.c ****     /*  writing the butterfly processed i0 sample */
1150:Source\TransformFunctions/arm_cfft_radix4_q15.c ****     /* xa' = xa + xb + xc + xd */
1151:Source\TransformFunctions/arm_cfft_radix4_q15.c ****     /* ya' = ya + yb + yc + yd */
1152:Source\TransformFunctions/arm_cfft_radix4_q15.c ****     _SIMD32_OFFSET(pSi0) = __SHADD16(R, T);
1153:Source\TransformFunctions/arm_cfft_radix4_q15.c ****     pSi0 += 2;
1154:Source\TransformFunctions/arm_cfft_radix4_q15.c **** 
1155:Source\TransformFunctions/arm_cfft_radix4_q15.c ****     /* R = packed((ya + yc) - (yb + yd), (xa + xc)- (xb + xd)) */
1156:Source\TransformFunctions/arm_cfft_radix4_q15.c ****     R = __QSUB16(R, T);
1157:Source\TransformFunctions/arm_cfft_radix4_q15.c **** 
1158:Source\TransformFunctions/arm_cfft_radix4_q15.c ****     /* co2 & si2 are read from SIMD Coefficient pointer */
1159:Source\TransformFunctions/arm_cfft_radix4_q15.c ****     C2 = _SIMD32_OFFSET(pCoef16 + (4u * ic));
1160:Source\TransformFunctions/arm_cfft_radix4_q15.c **** 
1161:Source\TransformFunctions/arm_cfft_radix4_q15.c **** #ifndef ARM_MATH_BIG_ENDIAN
1162:Source\TransformFunctions/arm_cfft_radix4_q15.c **** 
1163:Source\TransformFunctions/arm_cfft_radix4_q15.c ****     /* xc' = (xa-xb+xc-xd)* co2 + (ya-yb+yc-yd)* (si2) */
1164:Source\TransformFunctions/arm_cfft_radix4_q15.c ****     out1 = __SMUSD(C2, R) >> 16u;
1165:Source\TransformFunctions/arm_cfft_radix4_q15.c ****     /* yc' = (ya-yb+yc-yd)* co2 - (xa-xb+xc-xd)* (si2) */
1166:Source\TransformFunctions/arm_cfft_radix4_q15.c ****     out2 = __SMUADX(C2, R);
1167:Source\TransformFunctions/arm_cfft_radix4_q15.c **** 
1168:Source\TransformFunctions/arm_cfft_radix4_q15.c **** #else
1169:Source\TransformFunctions/arm_cfft_radix4_q15.c **** 
1170:Source\TransformFunctions/arm_cfft_radix4_q15.c ****     /* xc' = (ya-yb+yc-yd)* co2 - (xa-xb+xc-xd)* (si2) */
1171:Source\TransformFunctions/arm_cfft_radix4_q15.c ****     out1 = __SMUADX(C2, R) >> 16u;
1172:Source\TransformFunctions/arm_cfft_radix4_q15.c ****     /* yc' = (xa-xb+xc-xd)* co2 + (ya-yb+yc-yd)* (si2) */
1173:Source\TransformFunctions/arm_cfft_radix4_q15.c ****     out2 = __SMUSD(__QSUB16(0, C2), R);
1174:Source\TransformFunctions/arm_cfft_radix4_q15.c **** 
1175:Source\TransformFunctions/arm_cfft_radix4_q15.c **** #endif /*      #ifndef ARM_MATH_BIG_ENDIAN     */
1176:Source\TransformFunctions/arm_cfft_radix4_q15.c **** 
1177:Source\TransformFunctions/arm_cfft_radix4_q15.c ****     /*  Reading i0+fftLen/4 */
1178:Source\TransformFunctions/arm_cfft_radix4_q15.c ****     /* T = packed(yb, xb) */
1179:Source\TransformFunctions/arm_cfft_radix4_q15.c ****     T = _SIMD32_OFFSET(pSi1);
1180:Source\TransformFunctions/arm_cfft_radix4_q15.c ****     T = __SHADD16(T, 0);
1181:Source\TransformFunctions/arm_cfft_radix4_q15.c ****     T = __SHADD16(T, 0);
1182:Source\TransformFunctions/arm_cfft_radix4_q15.c **** 
1183:Source\TransformFunctions/arm_cfft_radix4_q15.c ****     /* writing the butterfly processed i0 + fftLen/4 sample */
1184:Source\TransformFunctions/arm_cfft_radix4_q15.c ****     /* writing output(xc', yc') in little endian format */
1185:Source\TransformFunctions/arm_cfft_radix4_q15.c ****     _SIMD32_OFFSET(pSi1) =
1186:Source\TransformFunctions/arm_cfft_radix4_q15.c ****       (q31_t) ((out2) & 0xFFFF0000) | (out1 & 0x0000FFFF);
1187:Source\TransformFunctions/arm_cfft_radix4_q15.c ****     pSi1 += 2;
ARM GAS  C:\Users\fneves\AppData\Local\Temp\cc0ayw4Y.s 			page 152


1188:Source\TransformFunctions/arm_cfft_radix4_q15.c **** 
1189:Source\TransformFunctions/arm_cfft_radix4_q15.c ****     /*  Butterfly calculations */
1190:Source\TransformFunctions/arm_cfft_radix4_q15.c ****     /* U = packed(yd, xd) */
1191:Source\TransformFunctions/arm_cfft_radix4_q15.c ****     U = _SIMD32_OFFSET(pSi3);
1192:Source\TransformFunctions/arm_cfft_radix4_q15.c ****     U = __SHADD16(U, 0);
1193:Source\TransformFunctions/arm_cfft_radix4_q15.c ****     U = __SHADD16(U, 0);
1194:Source\TransformFunctions/arm_cfft_radix4_q15.c **** 
1195:Source\TransformFunctions/arm_cfft_radix4_q15.c ****     /* T = packed(yb-yd, xb-xd) */
1196:Source\TransformFunctions/arm_cfft_radix4_q15.c ****     T = __QSUB16(T, U);
1197:Source\TransformFunctions/arm_cfft_radix4_q15.c **** 
1198:Source\TransformFunctions/arm_cfft_radix4_q15.c **** #ifndef ARM_MATH_BIG_ENDIAN
1199:Source\TransformFunctions/arm_cfft_radix4_q15.c **** 
1200:Source\TransformFunctions/arm_cfft_radix4_q15.c ****     /* R = packed((ya-yc) + (xb- xd) , (xa-xc) - (yb-yd)) */
1201:Source\TransformFunctions/arm_cfft_radix4_q15.c ****     R = __QSAX(S, T);
1202:Source\TransformFunctions/arm_cfft_radix4_q15.c ****     /* S = packed((ya-yc) + (xb- xd),  (xa-xc) - (yb-yd)) */
1203:Source\TransformFunctions/arm_cfft_radix4_q15.c ****     S = __QASX(S, T);
1204:Source\TransformFunctions/arm_cfft_radix4_q15.c **** 
1205:Source\TransformFunctions/arm_cfft_radix4_q15.c **** #else
1206:Source\TransformFunctions/arm_cfft_radix4_q15.c **** 
1207:Source\TransformFunctions/arm_cfft_radix4_q15.c ****     /* R = packed((ya-yc) + (xb- xd) , (xa-xc) - (yb-yd)) */
1208:Source\TransformFunctions/arm_cfft_radix4_q15.c ****     R = __QASX(S, T);
1209:Source\TransformFunctions/arm_cfft_radix4_q15.c ****     /* S = packed((ya-yc) - (xb- xd),  (xa-xc) + (yb-yd)) */
1210:Source\TransformFunctions/arm_cfft_radix4_q15.c ****     S = __QSAX(S, T);
1211:Source\TransformFunctions/arm_cfft_radix4_q15.c **** 
1212:Source\TransformFunctions/arm_cfft_radix4_q15.c **** #endif /*      #ifndef ARM_MATH_BIG_ENDIAN     */
1213:Source\TransformFunctions/arm_cfft_radix4_q15.c **** 
1214:Source\TransformFunctions/arm_cfft_radix4_q15.c ****     /* co1 & si1 are read from SIMD Coefficient pointer */
1215:Source\TransformFunctions/arm_cfft_radix4_q15.c ****     C1 = _SIMD32_OFFSET(pCoef16 + (2u * ic));
1216:Source\TransformFunctions/arm_cfft_radix4_q15.c ****     /*  Butterfly process for the i0+fftLen/2 sample */
1217:Source\TransformFunctions/arm_cfft_radix4_q15.c **** 
1218:Source\TransformFunctions/arm_cfft_radix4_q15.c **** #ifndef ARM_MATH_BIG_ENDIAN
1219:Source\TransformFunctions/arm_cfft_radix4_q15.c **** 
1220:Source\TransformFunctions/arm_cfft_radix4_q15.c ****     /* xb' = (xa+yb-xc-yd)* co1 + (ya-xb-yc+xd)* (si1) */
1221:Source\TransformFunctions/arm_cfft_radix4_q15.c ****     out1 = __SMUSD(C1, S) >> 16u;
1222:Source\TransformFunctions/arm_cfft_radix4_q15.c ****     /* yb' = (ya-xb-yc+xd)* co1 - (xa+yb-xc-yd)* (si1) */
1223:Source\TransformFunctions/arm_cfft_radix4_q15.c ****     out2 = __SMUADX(C1, S);
1224:Source\TransformFunctions/arm_cfft_radix4_q15.c **** 
1225:Source\TransformFunctions/arm_cfft_radix4_q15.c **** #else
1226:Source\TransformFunctions/arm_cfft_radix4_q15.c **** 
1227:Source\TransformFunctions/arm_cfft_radix4_q15.c ****     /* xb' = (ya-xb-yc+xd)* co1 - (xa+yb-xc-yd)* (si1) */
1228:Source\TransformFunctions/arm_cfft_radix4_q15.c ****     out1 = __SMUADX(C1, S) >> 16u;
1229:Source\TransformFunctions/arm_cfft_radix4_q15.c ****     /* yb' = (xa+yb-xc-yd)* co1 + (ya-xb-yc+xd)* (si1) */
1230:Source\TransformFunctions/arm_cfft_radix4_q15.c ****     out2 = __SMUSD(__QSUB16(0, C1), S);
1231:Source\TransformFunctions/arm_cfft_radix4_q15.c **** 
1232:Source\TransformFunctions/arm_cfft_radix4_q15.c **** #endif /*      #ifndef ARM_MATH_BIG_ENDIAN     */
1233:Source\TransformFunctions/arm_cfft_radix4_q15.c **** 
1234:Source\TransformFunctions/arm_cfft_radix4_q15.c ****     /* writing output(xb', yb') in little endian format */
1235:Source\TransformFunctions/arm_cfft_radix4_q15.c ****     _SIMD32_OFFSET(pSi2) =
1236:Source\TransformFunctions/arm_cfft_radix4_q15.c ****       ((out2) & 0xFFFF0000) | ((out1) & 0x0000FFFF);
1237:Source\TransformFunctions/arm_cfft_radix4_q15.c ****     pSi2 += 2;
1238:Source\TransformFunctions/arm_cfft_radix4_q15.c **** 
1239:Source\TransformFunctions/arm_cfft_radix4_q15.c **** 
1240:Source\TransformFunctions/arm_cfft_radix4_q15.c ****     /* co3 & si3 are read from SIMD Coefficient pointer */
1241:Source\TransformFunctions/arm_cfft_radix4_q15.c ****     C3 = _SIMD32_OFFSET(pCoef16 + (6u * ic));
1242:Source\TransformFunctions/arm_cfft_radix4_q15.c ****     /*  Butterfly process for the i0+3fftLen/4 sample */
1243:Source\TransformFunctions/arm_cfft_radix4_q15.c **** 
1244:Source\TransformFunctions/arm_cfft_radix4_q15.c **** #ifndef ARM_MATH_BIG_ENDIAN
ARM GAS  C:\Users\fneves\AppData\Local\Temp\cc0ayw4Y.s 			page 153


1245:Source\TransformFunctions/arm_cfft_radix4_q15.c **** 
1246:Source\TransformFunctions/arm_cfft_radix4_q15.c ****     /* xd' = (xa-yb-xc+yd)* co3 + (ya+xb-yc-xd)* (si3) */
1247:Source\TransformFunctions/arm_cfft_radix4_q15.c ****     out1 = __SMUSD(C3, R) >> 16u;
1248:Source\TransformFunctions/arm_cfft_radix4_q15.c ****     /* yd' = (ya+xb-yc-xd)* co3 - (xa-yb-xc+yd)* (si3) */
1249:Source\TransformFunctions/arm_cfft_radix4_q15.c ****     out2 = __SMUADX(C3, R);
1250:Source\TransformFunctions/arm_cfft_radix4_q15.c **** 
1251:Source\TransformFunctions/arm_cfft_radix4_q15.c **** #else
1252:Source\TransformFunctions/arm_cfft_radix4_q15.c **** 
1253:Source\TransformFunctions/arm_cfft_radix4_q15.c ****     /* xd' = (ya+xb-yc-xd)* co3 - (xa-yb-xc+yd)* (si3) */
1254:Source\TransformFunctions/arm_cfft_radix4_q15.c ****     out1 = __SMUADX(C3, R) >> 16u;
1255:Source\TransformFunctions/arm_cfft_radix4_q15.c ****     /* yd' = (xa-yb-xc+yd)* co3 + (ya+xb-yc-xd)* (si3) */
1256:Source\TransformFunctions/arm_cfft_radix4_q15.c ****     out2 = __SMUSD(__QSUB16(0, C3), R);
1257:Source\TransformFunctions/arm_cfft_radix4_q15.c **** 
1258:Source\TransformFunctions/arm_cfft_radix4_q15.c **** #endif /*      #ifndef ARM_MATH_BIG_ENDIAN     */
1259:Source\TransformFunctions/arm_cfft_radix4_q15.c **** 
1260:Source\TransformFunctions/arm_cfft_radix4_q15.c ****     /* writing output(xd', yd') in little endian format */
1261:Source\TransformFunctions/arm_cfft_radix4_q15.c ****     _SIMD32_OFFSET(pSi3) =
1262:Source\TransformFunctions/arm_cfft_radix4_q15.c ****       ((out2) & 0xFFFF0000) | (out1 & 0x0000FFFF);
1263:Source\TransformFunctions/arm_cfft_radix4_q15.c ****     pSi3 += 2;
1264:Source\TransformFunctions/arm_cfft_radix4_q15.c **** 
1265:Source\TransformFunctions/arm_cfft_radix4_q15.c ****     /*  Twiddle coefficients index modifier */
1266:Source\TransformFunctions/arm_cfft_radix4_q15.c ****     ic = ic + twidCoefModifier;
1267:Source\TransformFunctions/arm_cfft_radix4_q15.c **** 
1268:Source\TransformFunctions/arm_cfft_radix4_q15.c ****   } while (--j);
1269:Source\TransformFunctions/arm_cfft_radix4_q15.c ****   /* data is in 4.11(q11) format */
1270:Source\TransformFunctions/arm_cfft_radix4_q15.c **** 
1271:Source\TransformFunctions/arm_cfft_radix4_q15.c ****   /* end of first stage process */
1272:Source\TransformFunctions/arm_cfft_radix4_q15.c **** 
1273:Source\TransformFunctions/arm_cfft_radix4_q15.c **** 
1274:Source\TransformFunctions/arm_cfft_radix4_q15.c ****   /* start of middle stage process */
1275:Source\TransformFunctions/arm_cfft_radix4_q15.c **** 
1276:Source\TransformFunctions/arm_cfft_radix4_q15.c ****   /*  Twiddle coefficients index modifier */
1277:Source\TransformFunctions/arm_cfft_radix4_q15.c ****   twidCoefModifier <<= 2u;
1278:Source\TransformFunctions/arm_cfft_radix4_q15.c **** 
1279:Source\TransformFunctions/arm_cfft_radix4_q15.c ****   /*  Calculation of Middle stage */
1280:Source\TransformFunctions/arm_cfft_radix4_q15.c ****   for (k = fftLen / 4u; k > 4u; k >>= 2u)
1281:Source\TransformFunctions/arm_cfft_radix4_q15.c ****   {
1282:Source\TransformFunctions/arm_cfft_radix4_q15.c ****     /*  Initializations for the middle stage */
1283:Source\TransformFunctions/arm_cfft_radix4_q15.c ****     n1 = n2;
1284:Source\TransformFunctions/arm_cfft_radix4_q15.c ****     n2 >>= 2u;
1285:Source\TransformFunctions/arm_cfft_radix4_q15.c ****     ic = 0u;
1286:Source\TransformFunctions/arm_cfft_radix4_q15.c **** 
1287:Source\TransformFunctions/arm_cfft_radix4_q15.c ****     for (j = 0u; j <= (n2 - 1u); j++)
1288:Source\TransformFunctions/arm_cfft_radix4_q15.c ****     {
1289:Source\TransformFunctions/arm_cfft_radix4_q15.c ****       /*  index calculation for the coefficients */
1290:Source\TransformFunctions/arm_cfft_radix4_q15.c ****       C1 = _SIMD32_OFFSET(pCoef16 + (2u * ic));
1291:Source\TransformFunctions/arm_cfft_radix4_q15.c ****       C2 = _SIMD32_OFFSET(pCoef16 + (4u * ic));
1292:Source\TransformFunctions/arm_cfft_radix4_q15.c ****       C3 = _SIMD32_OFFSET(pCoef16 + (6u * ic));
1293:Source\TransformFunctions/arm_cfft_radix4_q15.c **** 
1294:Source\TransformFunctions/arm_cfft_radix4_q15.c ****       /*  Twiddle coefficients index modifier */
1295:Source\TransformFunctions/arm_cfft_radix4_q15.c ****       ic = ic + twidCoefModifier;
1296:Source\TransformFunctions/arm_cfft_radix4_q15.c **** 
1297:Source\TransformFunctions/arm_cfft_radix4_q15.c ****       pSi0 = pSrc16 + 2 * j;
1298:Source\TransformFunctions/arm_cfft_radix4_q15.c ****       pSi1 = pSi0 + 2 * n2;
1299:Source\TransformFunctions/arm_cfft_radix4_q15.c ****       pSi2 = pSi1 + 2 * n2;
1300:Source\TransformFunctions/arm_cfft_radix4_q15.c ****       pSi3 = pSi2 + 2 * n2;
1301:Source\TransformFunctions/arm_cfft_radix4_q15.c **** 
ARM GAS  C:\Users\fneves\AppData\Local\Temp\cc0ayw4Y.s 			page 154


1302:Source\TransformFunctions/arm_cfft_radix4_q15.c ****       /*  Butterfly implementation */
1303:Source\TransformFunctions/arm_cfft_radix4_q15.c ****       for (i0 = j; i0 < fftLen; i0 += n1)
1304:Source\TransformFunctions/arm_cfft_radix4_q15.c ****       {
1305:Source\TransformFunctions/arm_cfft_radix4_q15.c ****         /*  Reading i0, i0+fftLen/2 inputs */
1306:Source\TransformFunctions/arm_cfft_radix4_q15.c ****         /* Read ya (real), xa(imag) input */
1307:Source\TransformFunctions/arm_cfft_radix4_q15.c ****         T = _SIMD32_OFFSET(pSi0);
1308:Source\TransformFunctions/arm_cfft_radix4_q15.c **** 
1309:Source\TransformFunctions/arm_cfft_radix4_q15.c ****         /* Read yc (real), xc(imag) input */
1310:Source\TransformFunctions/arm_cfft_radix4_q15.c ****         S = _SIMD32_OFFSET(pSi2);
1311:Source\TransformFunctions/arm_cfft_radix4_q15.c **** 
1312:Source\TransformFunctions/arm_cfft_radix4_q15.c ****         /* R = packed( (ya + yc), (xa + xc)) */
1313:Source\TransformFunctions/arm_cfft_radix4_q15.c ****         R = __QADD16(T, S);
1314:Source\TransformFunctions/arm_cfft_radix4_q15.c **** 
1315:Source\TransformFunctions/arm_cfft_radix4_q15.c ****         /* S = packed((ya - yc), (xa - xc)) */
1316:Source\TransformFunctions/arm_cfft_radix4_q15.c ****         S = __QSUB16(T, S);
1317:Source\TransformFunctions/arm_cfft_radix4_q15.c **** 
1318:Source\TransformFunctions/arm_cfft_radix4_q15.c ****         /*  Reading i0+fftLen/4 , i0+3fftLen/4 inputs */
1319:Source\TransformFunctions/arm_cfft_radix4_q15.c ****         /* Read yb (real), xb(imag) input */
1320:Source\TransformFunctions/arm_cfft_radix4_q15.c ****         T = _SIMD32_OFFSET(pSi1);
1321:Source\TransformFunctions/arm_cfft_radix4_q15.c **** 
1322:Source\TransformFunctions/arm_cfft_radix4_q15.c ****         /* Read yd (real), xd(imag) input */
1323:Source\TransformFunctions/arm_cfft_radix4_q15.c ****         U = _SIMD32_OFFSET(pSi3);
1324:Source\TransformFunctions/arm_cfft_radix4_q15.c **** 
1325:Source\TransformFunctions/arm_cfft_radix4_q15.c ****         /* T = packed( (yb + yd), (xb + xd)) */
1326:Source\TransformFunctions/arm_cfft_radix4_q15.c ****         T = __QADD16(T, U);
1327:Source\TransformFunctions/arm_cfft_radix4_q15.c **** 
1328:Source\TransformFunctions/arm_cfft_radix4_q15.c ****         /*  writing the butterfly processed i0 sample */
1329:Source\TransformFunctions/arm_cfft_radix4_q15.c **** 
1330:Source\TransformFunctions/arm_cfft_radix4_q15.c ****         /* xa' = xa + xb + xc + xd */
1331:Source\TransformFunctions/arm_cfft_radix4_q15.c ****         /* ya' = ya + yb + yc + yd */
1332:Source\TransformFunctions/arm_cfft_radix4_q15.c ****         out1 = __SHADD16(R, T);
1333:Source\TransformFunctions/arm_cfft_radix4_q15.c ****         out1 = __SHADD16(out1, 0);
1334:Source\TransformFunctions/arm_cfft_radix4_q15.c ****         _SIMD32_OFFSET(pSi0) = out1;
1335:Source\TransformFunctions/arm_cfft_radix4_q15.c ****         pSi0 += 2 * n1;
1336:Source\TransformFunctions/arm_cfft_radix4_q15.c **** 
1337:Source\TransformFunctions/arm_cfft_radix4_q15.c ****         /* R = packed( (ya + yc) - (yb + yd), (xa + xc) - (xb + xd)) */
1338:Source\TransformFunctions/arm_cfft_radix4_q15.c ****         R = __SHSUB16(R, T);
1339:Source\TransformFunctions/arm_cfft_radix4_q15.c **** 
1340:Source\TransformFunctions/arm_cfft_radix4_q15.c **** #ifndef ARM_MATH_BIG_ENDIAN
1341:Source\TransformFunctions/arm_cfft_radix4_q15.c **** 
1342:Source\TransformFunctions/arm_cfft_radix4_q15.c ****         /* (ya-yb+yc-yd)* (si2) + (xa-xb+xc-xd)* co2 */
1343:Source\TransformFunctions/arm_cfft_radix4_q15.c ****         out1 = __SMUSD(C2, R) >> 16u;
1344:Source\TransformFunctions/arm_cfft_radix4_q15.c **** 
1345:Source\TransformFunctions/arm_cfft_radix4_q15.c ****         /* (ya-yb+yc-yd)* co2 - (xa-xb+xc-xd)* (si2) */
1346:Source\TransformFunctions/arm_cfft_radix4_q15.c ****         out2 = __SMUADX(C2, R);
1347:Source\TransformFunctions/arm_cfft_radix4_q15.c **** 
1348:Source\TransformFunctions/arm_cfft_radix4_q15.c **** #else
1349:Source\TransformFunctions/arm_cfft_radix4_q15.c **** 
1350:Source\TransformFunctions/arm_cfft_radix4_q15.c ****         /* (ya-yb+yc-yd)* co2 - (xa-xb+xc-xd)* (si2) */
1351:Source\TransformFunctions/arm_cfft_radix4_q15.c ****         out1 = __SMUADX(R, C2) >> 16u;
1352:Source\TransformFunctions/arm_cfft_radix4_q15.c **** 
1353:Source\TransformFunctions/arm_cfft_radix4_q15.c ****         /* (ya-yb+yc-yd)* (si2) + (xa-xb+xc-xd)* co2 */
1354:Source\TransformFunctions/arm_cfft_radix4_q15.c ****         out2 = __SMUSD(__QSUB16(0, C2), R);
1355:Source\TransformFunctions/arm_cfft_radix4_q15.c **** 
1356:Source\TransformFunctions/arm_cfft_radix4_q15.c **** #endif /*      #ifndef ARM_MATH_BIG_ENDIAN     */
1357:Source\TransformFunctions/arm_cfft_radix4_q15.c **** 
1358:Source\TransformFunctions/arm_cfft_radix4_q15.c ****         /*  Reading i0+3fftLen/4 */
ARM GAS  C:\Users\fneves\AppData\Local\Temp\cc0ayw4Y.s 			page 155


1359:Source\TransformFunctions/arm_cfft_radix4_q15.c ****         /* Read yb (real), xb(imag) input */
1360:Source\TransformFunctions/arm_cfft_radix4_q15.c ****         T = _SIMD32_OFFSET(pSi1);
1361:Source\TransformFunctions/arm_cfft_radix4_q15.c **** 
1362:Source\TransformFunctions/arm_cfft_radix4_q15.c ****         /*  writing the butterfly processed i0 + fftLen/4 sample */
1363:Source\TransformFunctions/arm_cfft_radix4_q15.c ****         /* xc' = (xa-xb+xc-xd)* co2 + (ya-yb+yc-yd)* (si2) */
1364:Source\TransformFunctions/arm_cfft_radix4_q15.c ****         /* yc' = (ya-yb+yc-yd)* co2 - (xa-xb+xc-xd)* (si2) */
1365:Source\TransformFunctions/arm_cfft_radix4_q15.c ****         _SIMD32_OFFSET(pSi1) =
1366:Source\TransformFunctions/arm_cfft_radix4_q15.c ****           ((out2) & 0xFFFF0000) | (out1 & 0x0000FFFF);
1367:Source\TransformFunctions/arm_cfft_radix4_q15.c ****         pSi1 += 2 * n1;
1368:Source\TransformFunctions/arm_cfft_radix4_q15.c **** 
1369:Source\TransformFunctions/arm_cfft_radix4_q15.c ****         /*  Butterfly calculations */
1370:Source\TransformFunctions/arm_cfft_radix4_q15.c **** 
1371:Source\TransformFunctions/arm_cfft_radix4_q15.c ****         /* Read yd (real), xd(imag) input */
1372:Source\TransformFunctions/arm_cfft_radix4_q15.c ****         U = _SIMD32_OFFSET(pSi3);
1373:Source\TransformFunctions/arm_cfft_radix4_q15.c **** 
1374:Source\TransformFunctions/arm_cfft_radix4_q15.c ****         /* T = packed(yb-yd, xb-xd) */
1375:Source\TransformFunctions/arm_cfft_radix4_q15.c ****         T = __QSUB16(T, U);
1376:Source\TransformFunctions/arm_cfft_radix4_q15.c **** 
1377:Source\TransformFunctions/arm_cfft_radix4_q15.c **** #ifndef ARM_MATH_BIG_ENDIAN
1378:Source\TransformFunctions/arm_cfft_radix4_q15.c **** 
1379:Source\TransformFunctions/arm_cfft_radix4_q15.c ****         /* R = packed((ya-yc) + (xb- xd) , (xa-xc) - (yb-yd)) */
1380:Source\TransformFunctions/arm_cfft_radix4_q15.c ****         R = __SHSAX(S, T);
1381:Source\TransformFunctions/arm_cfft_radix4_q15.c **** 
1382:Source\TransformFunctions/arm_cfft_radix4_q15.c ****         /* S = packed((ya-yc) - (xb- xd),  (xa-xc) + (yb-yd)) */
1383:Source\TransformFunctions/arm_cfft_radix4_q15.c ****         S = __SHASX(S, T);
1384:Source\TransformFunctions/arm_cfft_radix4_q15.c **** 
1385:Source\TransformFunctions/arm_cfft_radix4_q15.c **** 
1386:Source\TransformFunctions/arm_cfft_radix4_q15.c ****         /*  Butterfly process for the i0+fftLen/2 sample */
1387:Source\TransformFunctions/arm_cfft_radix4_q15.c ****         out1 = __SMUSD(C1, S) >> 16u;
1388:Source\TransformFunctions/arm_cfft_radix4_q15.c ****         out2 = __SMUADX(C1, S);
1389:Source\TransformFunctions/arm_cfft_radix4_q15.c **** 
1390:Source\TransformFunctions/arm_cfft_radix4_q15.c **** #else
1391:Source\TransformFunctions/arm_cfft_radix4_q15.c **** 
1392:Source\TransformFunctions/arm_cfft_radix4_q15.c ****         /* R = packed((ya-yc) + (xb- xd) , (xa-xc) - (yb-yd)) */
1393:Source\TransformFunctions/arm_cfft_radix4_q15.c ****         R = __SHASX(S, T);
1394:Source\TransformFunctions/arm_cfft_radix4_q15.c **** 
1395:Source\TransformFunctions/arm_cfft_radix4_q15.c ****         /* S = packed((ya-yc) - (xb- xd),  (xa-xc) + (yb-yd)) */
1396:Source\TransformFunctions/arm_cfft_radix4_q15.c ****         S = __SHSAX(S, T);
1397:Source\TransformFunctions/arm_cfft_radix4_q15.c **** 
1398:Source\TransformFunctions/arm_cfft_radix4_q15.c **** 
1399:Source\TransformFunctions/arm_cfft_radix4_q15.c ****         /*  Butterfly process for the i0+fftLen/2 sample */
1400:Source\TransformFunctions/arm_cfft_radix4_q15.c ****         out1 = __SMUADX(S, C1) >> 16u;
1401:Source\TransformFunctions/arm_cfft_radix4_q15.c ****         out2 = __SMUSD(__QSUB16(0, C1), S);
1402:Source\TransformFunctions/arm_cfft_radix4_q15.c **** 
1403:Source\TransformFunctions/arm_cfft_radix4_q15.c **** #endif /*      #ifndef ARM_MATH_BIG_ENDIAN     */
1404:Source\TransformFunctions/arm_cfft_radix4_q15.c **** 
1405:Source\TransformFunctions/arm_cfft_radix4_q15.c ****         /* xb' = (xa+yb-xc-yd)* co1 + (ya-xb-yc+xd)* (si1) */
1406:Source\TransformFunctions/arm_cfft_radix4_q15.c ****         /* yb' = (ya-xb-yc+xd)* co1 - (xa+yb-xc-yd)* (si1) */
1407:Source\TransformFunctions/arm_cfft_radix4_q15.c ****         _SIMD32_OFFSET(pSi2) =
1408:Source\TransformFunctions/arm_cfft_radix4_q15.c ****           ((out2) & 0xFFFF0000) | (out1 & 0x0000FFFF);
1409:Source\TransformFunctions/arm_cfft_radix4_q15.c ****         pSi2 += 2 * n1;
1410:Source\TransformFunctions/arm_cfft_radix4_q15.c **** 
1411:Source\TransformFunctions/arm_cfft_radix4_q15.c ****         /*  Butterfly process for the i0+3fftLen/4 sample */
1412:Source\TransformFunctions/arm_cfft_radix4_q15.c **** 
1413:Source\TransformFunctions/arm_cfft_radix4_q15.c **** #ifndef ARM_MATH_BIG_ENDIAN
1414:Source\TransformFunctions/arm_cfft_radix4_q15.c **** 
1415:Source\TransformFunctions/arm_cfft_radix4_q15.c ****         out1 = __SMUSD(C3, R) >> 16u;
ARM GAS  C:\Users\fneves\AppData\Local\Temp\cc0ayw4Y.s 			page 156


1416:Source\TransformFunctions/arm_cfft_radix4_q15.c ****         out2 = __SMUADX(C3, R);
1417:Source\TransformFunctions/arm_cfft_radix4_q15.c **** 
1418:Source\TransformFunctions/arm_cfft_radix4_q15.c **** #else
1419:Source\TransformFunctions/arm_cfft_radix4_q15.c **** 
1420:Source\TransformFunctions/arm_cfft_radix4_q15.c ****         out1 = __SMUADX(C3, R) >> 16u;
1421:Source\TransformFunctions/arm_cfft_radix4_q15.c ****         out2 = __SMUSD(__QSUB16(0, C3), R);
1422:Source\TransformFunctions/arm_cfft_radix4_q15.c **** 
1423:Source\TransformFunctions/arm_cfft_radix4_q15.c **** #endif /*      #ifndef ARM_MATH_BIG_ENDIAN     */
1424:Source\TransformFunctions/arm_cfft_radix4_q15.c **** 
1425:Source\TransformFunctions/arm_cfft_radix4_q15.c ****         /* xd' = (xa-yb-xc+yd)* co3 + (ya+xb-yc-xd)* (si3) */
1426:Source\TransformFunctions/arm_cfft_radix4_q15.c ****         /* yd' = (ya+xb-yc-xd)* co3 - (xa-yb-xc+yd)* (si3) */
1427:Source\TransformFunctions/arm_cfft_radix4_q15.c ****         _SIMD32_OFFSET(pSi3) =
1428:Source\TransformFunctions/arm_cfft_radix4_q15.c ****           ((out2) & 0xFFFF0000) | (out1 & 0x0000FFFF);
1429:Source\TransformFunctions/arm_cfft_radix4_q15.c ****         pSi3 += 2 * n1;
1430:Source\TransformFunctions/arm_cfft_radix4_q15.c ****       }
1431:Source\TransformFunctions/arm_cfft_radix4_q15.c ****     }
1432:Source\TransformFunctions/arm_cfft_radix4_q15.c ****     /*  Twiddle coefficients index modifier */
1433:Source\TransformFunctions/arm_cfft_radix4_q15.c ****     twidCoefModifier <<= 2u;
1434:Source\TransformFunctions/arm_cfft_radix4_q15.c ****   }
1435:Source\TransformFunctions/arm_cfft_radix4_q15.c ****   /* end of middle stage process */
1436:Source\TransformFunctions/arm_cfft_radix4_q15.c **** 
1437:Source\TransformFunctions/arm_cfft_radix4_q15.c ****   /* data is in 10.6(q6) format for the 1024 point */
1438:Source\TransformFunctions/arm_cfft_radix4_q15.c ****   /* data is in 8.8(q8) format for the 256 point */
1439:Source\TransformFunctions/arm_cfft_radix4_q15.c ****   /* data is in 6.10(q10) format for the 64 point */
1440:Source\TransformFunctions/arm_cfft_radix4_q15.c ****   /* data is in 4.12(q12) format for the 16 point */
1441:Source\TransformFunctions/arm_cfft_radix4_q15.c **** 
1442:Source\TransformFunctions/arm_cfft_radix4_q15.c ****   /*  Initializations for the last stage */
1443:Source\TransformFunctions/arm_cfft_radix4_q15.c ****   j = fftLen >> 2;
1444:Source\TransformFunctions/arm_cfft_radix4_q15.c **** 
1445:Source\TransformFunctions/arm_cfft_radix4_q15.c ****   ptr1 = &pSrc16[0];
1446:Source\TransformFunctions/arm_cfft_radix4_q15.c **** 
1447:Source\TransformFunctions/arm_cfft_radix4_q15.c ****   /* start of last stage process */
1448:Source\TransformFunctions/arm_cfft_radix4_q15.c **** 
1449:Source\TransformFunctions/arm_cfft_radix4_q15.c ****   /*  Butterfly implementation */
1450:Source\TransformFunctions/arm_cfft_radix4_q15.c ****   do
1451:Source\TransformFunctions/arm_cfft_radix4_q15.c ****   {
1452:Source\TransformFunctions/arm_cfft_radix4_q15.c ****     /* Read xa (real), ya(imag) input */
1453:Source\TransformFunctions/arm_cfft_radix4_q15.c ****     xaya = *__SIMD32(ptr1)++;
1454:Source\TransformFunctions/arm_cfft_radix4_q15.c **** 
1455:Source\TransformFunctions/arm_cfft_radix4_q15.c ****     /* Read xb (real), yb(imag) input */
1456:Source\TransformFunctions/arm_cfft_radix4_q15.c ****     xbyb = *__SIMD32(ptr1)++;
1457:Source\TransformFunctions/arm_cfft_radix4_q15.c **** 
1458:Source\TransformFunctions/arm_cfft_radix4_q15.c ****     /* Read xc (real), yc(imag) input */
1459:Source\TransformFunctions/arm_cfft_radix4_q15.c ****     xcyc = *__SIMD32(ptr1)++;
1460:Source\TransformFunctions/arm_cfft_radix4_q15.c **** 
1461:Source\TransformFunctions/arm_cfft_radix4_q15.c ****     /* Read xd (real), yd(imag) input */
1462:Source\TransformFunctions/arm_cfft_radix4_q15.c ****     xdyd = *__SIMD32(ptr1)++;
1463:Source\TransformFunctions/arm_cfft_radix4_q15.c **** 
1464:Source\TransformFunctions/arm_cfft_radix4_q15.c ****     /* R = packed((ya + yc), (xa + xc)) */
1465:Source\TransformFunctions/arm_cfft_radix4_q15.c ****     R = __QADD16(xaya, xcyc);
1466:Source\TransformFunctions/arm_cfft_radix4_q15.c **** 
1467:Source\TransformFunctions/arm_cfft_radix4_q15.c ****     /* T = packed((yb + yd), (xb + xd)) */
1468:Source\TransformFunctions/arm_cfft_radix4_q15.c ****     T = __QADD16(xbyb, xdyd);
1469:Source\TransformFunctions/arm_cfft_radix4_q15.c **** 
1470:Source\TransformFunctions/arm_cfft_radix4_q15.c ****     /* pointer updation for writing */
1471:Source\TransformFunctions/arm_cfft_radix4_q15.c ****     ptr1 = ptr1 - 8u;
1472:Source\TransformFunctions/arm_cfft_radix4_q15.c **** 
ARM GAS  C:\Users\fneves\AppData\Local\Temp\cc0ayw4Y.s 			page 157


1473:Source\TransformFunctions/arm_cfft_radix4_q15.c **** 
1474:Source\TransformFunctions/arm_cfft_radix4_q15.c ****     /* xa' = xa + xb + xc + xd */
1475:Source\TransformFunctions/arm_cfft_radix4_q15.c ****     /* ya' = ya + yb + yc + yd */
1476:Source\TransformFunctions/arm_cfft_radix4_q15.c ****     *__SIMD32(ptr1)++ = __SHADD16(R, T);
1477:Source\TransformFunctions/arm_cfft_radix4_q15.c **** 
1478:Source\TransformFunctions/arm_cfft_radix4_q15.c ****     /* T = packed((yb + yd), (xb + xd)) */
1479:Source\TransformFunctions/arm_cfft_radix4_q15.c ****     T = __QADD16(xbyb, xdyd);
1480:Source\TransformFunctions/arm_cfft_radix4_q15.c **** 
1481:Source\TransformFunctions/arm_cfft_radix4_q15.c ****     /* xc' = (xa-xb+xc-xd) */
1482:Source\TransformFunctions/arm_cfft_radix4_q15.c ****     /* yc' = (ya-yb+yc-yd) */
1483:Source\TransformFunctions/arm_cfft_radix4_q15.c ****     *__SIMD32(ptr1)++ = __SHSUB16(R, T);
1484:Source\TransformFunctions/arm_cfft_radix4_q15.c **** 
1485:Source\TransformFunctions/arm_cfft_radix4_q15.c ****     /* S = packed((ya - yc), (xa - xc)) */
1486:Source\TransformFunctions/arm_cfft_radix4_q15.c ****     S = __QSUB16(xaya, xcyc);
1487:Source\TransformFunctions/arm_cfft_radix4_q15.c **** 
1488:Source\TransformFunctions/arm_cfft_radix4_q15.c ****     /* Read yd (real), xd(imag) input */
1489:Source\TransformFunctions/arm_cfft_radix4_q15.c ****     /* T = packed( (yb - yd), (xb - xd))  */
1490:Source\TransformFunctions/arm_cfft_radix4_q15.c ****     U = __QSUB16(xbyb, xdyd);
1491:Source\TransformFunctions/arm_cfft_radix4_q15.c **** 
1492:Source\TransformFunctions/arm_cfft_radix4_q15.c **** #ifndef ARM_MATH_BIG_ENDIAN
1493:Source\TransformFunctions/arm_cfft_radix4_q15.c **** 
1494:Source\TransformFunctions/arm_cfft_radix4_q15.c ****     /* xb' = (xa+yb-xc-yd) */
1495:Source\TransformFunctions/arm_cfft_radix4_q15.c ****     /* yb' = (ya-xb-yc+xd) */
1496:Source\TransformFunctions/arm_cfft_radix4_q15.c ****     *__SIMD32(ptr1)++ = __SHASX(S, U);
1497:Source\TransformFunctions/arm_cfft_radix4_q15.c **** 
1498:Source\TransformFunctions/arm_cfft_radix4_q15.c **** 
1499:Source\TransformFunctions/arm_cfft_radix4_q15.c ****     /* xd' = (xa-yb-xc+yd) */
1500:Source\TransformFunctions/arm_cfft_radix4_q15.c ****     /* yd' = (ya+xb-yc-xd) */
1501:Source\TransformFunctions/arm_cfft_radix4_q15.c ****     *__SIMD32(ptr1)++ = __SHSAX(S, U);
1502:Source\TransformFunctions/arm_cfft_radix4_q15.c **** 
1503:Source\TransformFunctions/arm_cfft_radix4_q15.c **** #else
1504:Source\TransformFunctions/arm_cfft_radix4_q15.c **** 
1505:Source\TransformFunctions/arm_cfft_radix4_q15.c ****     /* xb' = (xa+yb-xc-yd) */
1506:Source\TransformFunctions/arm_cfft_radix4_q15.c ****     /* yb' = (ya-xb-yc+xd) */
1507:Source\TransformFunctions/arm_cfft_radix4_q15.c ****     *__SIMD32(ptr1)++ = __SHSAX(S, U);
1508:Source\TransformFunctions/arm_cfft_radix4_q15.c **** 
1509:Source\TransformFunctions/arm_cfft_radix4_q15.c **** 
1510:Source\TransformFunctions/arm_cfft_radix4_q15.c ****     /* xd' = (xa-yb-xc+yd) */
1511:Source\TransformFunctions/arm_cfft_radix4_q15.c ****     /* yd' = (ya+xb-yc-xd) */
1512:Source\TransformFunctions/arm_cfft_radix4_q15.c ****     *__SIMD32(ptr1)++ = __SHASX(S, U);
1513:Source\TransformFunctions/arm_cfft_radix4_q15.c **** 
1514:Source\TransformFunctions/arm_cfft_radix4_q15.c **** 
1515:Source\TransformFunctions/arm_cfft_radix4_q15.c **** #endif /*      #ifndef ARM_MATH_BIG_ENDIAN     */
1516:Source\TransformFunctions/arm_cfft_radix4_q15.c **** 
1517:Source\TransformFunctions/arm_cfft_radix4_q15.c ****   } while (--j);
1518:Source\TransformFunctions/arm_cfft_radix4_q15.c **** 
1519:Source\TransformFunctions/arm_cfft_radix4_q15.c ****   /* end of last stage  process */
1520:Source\TransformFunctions/arm_cfft_radix4_q15.c **** 
1521:Source\TransformFunctions/arm_cfft_radix4_q15.c ****   /* output is in 11.5(q5) format for the 1024 point */
1522:Source\TransformFunctions/arm_cfft_radix4_q15.c ****   /* output is in 9.7(q7) format for the 256 point   */
1523:Source\TransformFunctions/arm_cfft_radix4_q15.c ****   /* output is in 7.9(q9) format for the 64 point  */
1524:Source\TransformFunctions/arm_cfft_radix4_q15.c ****   /* output is in 5.11(q11) format for the 16 point  */
1525:Source\TransformFunctions/arm_cfft_radix4_q15.c **** 
1526:Source\TransformFunctions/arm_cfft_radix4_q15.c **** 
1527:Source\TransformFunctions/arm_cfft_radix4_q15.c **** #else
1528:Source\TransformFunctions/arm_cfft_radix4_q15.c **** 
1529:Source\TransformFunctions/arm_cfft_radix4_q15.c ****   /* Run the below code for Cortex-M0 */
ARM GAS  C:\Users\fneves\AppData\Local\Temp\cc0ayw4Y.s 			page 158


1530:Source\TransformFunctions/arm_cfft_radix4_q15.c **** 
1531:Source\TransformFunctions/arm_cfft_radix4_q15.c ****   q15_t R0, R1, S0, S1, T0, T1, U0, U1;
1532:Source\TransformFunctions/arm_cfft_radix4_q15.c ****   q15_t Co1, Si1, Co2, Si2, Co3, Si3, out1, out2;
1533:Source\TransformFunctions/arm_cfft_radix4_q15.c ****   uint32_t n1, n2, ic, i0, i1, i2, i3, j, k;
1534:Source\TransformFunctions/arm_cfft_radix4_q15.c **** 
1535:Source\TransformFunctions/arm_cfft_radix4_q15.c ****   /* Total process is divided into three stages */
1536:Source\TransformFunctions/arm_cfft_radix4_q15.c **** 
1537:Source\TransformFunctions/arm_cfft_radix4_q15.c ****   /* process first stage, middle stages, & last stage */
1538:Source\TransformFunctions/arm_cfft_radix4_q15.c **** 
1539:Source\TransformFunctions/arm_cfft_radix4_q15.c ****   /*  Initializations for the first stage */
1540:Source\TransformFunctions/arm_cfft_radix4_q15.c ****   n2 = fftLen;
 6340              		.loc 1 1540 0
 6341 0010 BB68     		ldr	r3, [r7, #8]
 6342 0012 AB22     		mov	r2, #171
 6343 0014 9200     		lsl	r2, r2, #2
 6344 0016 BA18     		add	r2, r7, r2
 6345 0018 1360     		str	r3, [r2]
1541:Source\TransformFunctions/arm_cfft_radix4_q15.c ****   n1 = n2;
 6346              		.loc 1 1541 0
 6347 001a AB23     		mov	r3, #171
 6348 001c 9B00     		lsl	r3, r3, #2
 6349 001e FB18     		add	r3, r7, r3
 6350 0020 1B68     		ldr	r3, [r3]
 6351 0022 A622     		mov	r2, #166
 6352 0024 9200     		lsl	r2, r2, #2
 6353 0026 BA18     		add	r2, r7, r2
 6354 0028 1360     		str	r3, [r2]
1542:Source\TransformFunctions/arm_cfft_radix4_q15.c **** 
1543:Source\TransformFunctions/arm_cfft_radix4_q15.c ****   /* n2 = fftLen/4 */
1544:Source\TransformFunctions/arm_cfft_radix4_q15.c ****   n2 >>= 2u;
 6355              		.loc 1 1544 0
 6356 002a AB23     		mov	r3, #171
 6357 002c 9B00     		lsl	r3, r3, #2
 6358 002e FB18     		add	r3, r7, r3
 6359 0030 1B68     		ldr	r3, [r3]
 6360 0032 9B08     		lsr	r3, r3, #2
 6361 0034 AB22     		mov	r2, #171
 6362 0036 9200     		lsl	r2, r2, #2
 6363 0038 BA18     		add	r2, r7, r2
 6364 003a 1360     		str	r3, [r2]
1545:Source\TransformFunctions/arm_cfft_radix4_q15.c **** 
1546:Source\TransformFunctions/arm_cfft_radix4_q15.c ****   /* Index for twiddle coefficient */
1547:Source\TransformFunctions/arm_cfft_radix4_q15.c ****   ic = 0u;
 6365              		.loc 1 1547 0
 6366 003c 0023     		mov	r3, #0
 6367 003e AA22     		mov	r2, #170
 6368 0040 9200     		lsl	r2, r2, #2
 6369 0042 BA18     		add	r2, r7, r2
 6370 0044 1360     		str	r3, [r2]
1548:Source\TransformFunctions/arm_cfft_radix4_q15.c **** 
1549:Source\TransformFunctions/arm_cfft_radix4_q15.c ****   /* Index for input read and output write */
1550:Source\TransformFunctions/arm_cfft_radix4_q15.c ****   i0 = 0u;
 6371              		.loc 1 1550 0
 6372 0046 0023     		mov	r3, #0
 6373 0048 A922     		mov	r2, #169
 6374 004a 9200     		lsl	r2, r2, #2
 6375 004c BA18     		add	r2, r7, r2
ARM GAS  C:\Users\fneves\AppData\Local\Temp\cc0ayw4Y.s 			page 159


 6376 004e 1360     		str	r3, [r2]
1551:Source\TransformFunctions/arm_cfft_radix4_q15.c **** 
1552:Source\TransformFunctions/arm_cfft_radix4_q15.c ****   j = n2;
 6377              		.loc 1 1552 0
 6378 0050 AB23     		mov	r3, #171
 6379 0052 9B00     		lsl	r3, r3, #2
 6380 0054 FB18     		add	r3, r7, r3
 6381 0056 1B68     		ldr	r3, [r3]
 6382 0058 A822     		mov	r2, #168
 6383 005a 9200     		lsl	r2, r2, #2
 6384 005c BA18     		add	r2, r7, r2
 6385 005e 1360     		str	r3, [r2]
 6386              	.L334:
1553:Source\TransformFunctions/arm_cfft_radix4_q15.c **** 
1554:Source\TransformFunctions/arm_cfft_radix4_q15.c ****   /* Input is in 1.15(q15) format */
1555:Source\TransformFunctions/arm_cfft_radix4_q15.c **** 
1556:Source\TransformFunctions/arm_cfft_radix4_q15.c ****   /*  Start of first stage process */
1557:Source\TransformFunctions/arm_cfft_radix4_q15.c ****   do
1558:Source\TransformFunctions/arm_cfft_radix4_q15.c ****   {
1559:Source\TransformFunctions/arm_cfft_radix4_q15.c ****     /*  Butterfly implementation */
1560:Source\TransformFunctions/arm_cfft_radix4_q15.c **** 
1561:Source\TransformFunctions/arm_cfft_radix4_q15.c ****     /*  index calculation for the input as, */
1562:Source\TransformFunctions/arm_cfft_radix4_q15.c ****     /*  pSrc16[i0 + 0], pSrc16[i0 + fftLen/4], pSrc16[i0 + fftLen/2], pSrc16[i0 + 3fftLen/4] */
1563:Source\TransformFunctions/arm_cfft_radix4_q15.c ****     i1 = i0 + n2;
 6387              		.loc 1 1563 0 discriminator 1
 6388 0060 A923     		mov	r3, #169
 6389 0062 9B00     		lsl	r3, r3, #2
 6390 0064 FB18     		add	r3, r7, r3
 6391 0066 1A68     		ldr	r2, [r3]
 6392 0068 AB23     		mov	r3, #171
 6393 006a 9B00     		lsl	r3, r3, #2
 6394 006c FB18     		add	r3, r7, r3
 6395 006e 1B68     		ldr	r3, [r3]
 6396 0070 D318     		add	r3, r2, r3
 6397 0072 A522     		mov	r2, #165
 6398 0074 9200     		lsl	r2, r2, #2
 6399 0076 BA18     		add	r2, r7, r2
 6400 0078 1360     		str	r3, [r2]
1564:Source\TransformFunctions/arm_cfft_radix4_q15.c ****     i2 = i1 + n2;
 6401              		.loc 1 1564 0 discriminator 1
 6402 007a A523     		mov	r3, #165
 6403 007c 9B00     		lsl	r3, r3, #2
 6404 007e FB18     		add	r3, r7, r3
 6405 0080 1A68     		ldr	r2, [r3]
 6406 0082 AB23     		mov	r3, #171
 6407 0084 9B00     		lsl	r3, r3, #2
 6408 0086 FB18     		add	r3, r7, r3
 6409 0088 1B68     		ldr	r3, [r3]
 6410 008a D318     		add	r3, r2, r3
 6411 008c A422     		mov	r2, #164
 6412 008e 9200     		lsl	r2, r2, #2
 6413 0090 BA18     		add	r2, r7, r2
 6414 0092 1360     		str	r3, [r2]
1565:Source\TransformFunctions/arm_cfft_radix4_q15.c ****     i3 = i2 + n2;
 6415              		.loc 1 1565 0 discriminator 1
 6416 0094 A423     		mov	r3, #164
 6417 0096 9B00     		lsl	r3, r3, #2
ARM GAS  C:\Users\fneves\AppData\Local\Temp\cc0ayw4Y.s 			page 160


 6418 0098 FB18     		add	r3, r7, r3
 6419 009a 1A68     		ldr	r2, [r3]
 6420 009c AB23     		mov	r3, #171
 6421 009e 9B00     		lsl	r3, r3, #2
 6422 00a0 FB18     		add	r3, r7, r3
 6423 00a2 1B68     		ldr	r3, [r3]
 6424 00a4 D318     		add	r3, r2, r3
 6425 00a6 A322     		mov	r2, #163
 6426 00a8 9200     		lsl	r2, r2, #2
 6427 00aa BA18     		add	r2, r7, r2
 6428 00ac 1360     		str	r3, [r2]
1566:Source\TransformFunctions/arm_cfft_radix4_q15.c **** 
1567:Source\TransformFunctions/arm_cfft_radix4_q15.c ****     /*  Reading i0, i0+fftLen/2 inputs */
1568:Source\TransformFunctions/arm_cfft_radix4_q15.c ****     /* input is down scale by 4 to avoid overflow */
1569:Source\TransformFunctions/arm_cfft_radix4_q15.c ****     /* Read ya (real), xa(imag) input */
1570:Source\TransformFunctions/arm_cfft_radix4_q15.c ****     T0 = pSrc16[i0 * 2u] >> 2u;
 6429              		.loc 1 1570 0 discriminator 1
 6430 00ae A923     		mov	r3, #169
 6431 00b0 9B00     		lsl	r3, r3, #2
 6432 00b2 FB18     		add	r3, r7, r3
 6433 00b4 1B68     		ldr	r3, [r3]
 6434 00b6 9B00     		lsl	r3, r3, #2
 6435 00b8 FA68     		ldr	r2, [r7, #12]
 6436 00ba D318     		add	r3, r2, r3
 6437 00bc 1A88     		ldrh	r2, [r3]
 6438 00be A94B     		ldr	r3, .L469+4
 6439 00c0 FB18     		add	r3, r7, r3
 6440 00c2 12B2     		sxth	r2, r2
 6441 00c4 9210     		asr	r2, r2, #2
 6442 00c6 1A80     		strh	r2, [r3]
1571:Source\TransformFunctions/arm_cfft_radix4_q15.c ****     T1 = pSrc16[(i0 * 2u) + 1u] >> 2u;
 6443              		.loc 1 1571 0 discriminator 1
 6444 00c8 A923     		mov	r3, #169
 6445 00ca 9B00     		lsl	r3, r3, #2
 6446 00cc FB18     		add	r3, r7, r3
 6447 00ce 1B68     		ldr	r3, [r3]
 6448 00d0 9B00     		lsl	r3, r3, #2
 6449 00d2 0233     		add	r3, r3, #2
 6450 00d4 FA68     		ldr	r2, [r7, #12]
 6451 00d6 D318     		add	r3, r2, r3
 6452 00d8 1A88     		ldrh	r2, [r3]
 6453 00da A223     		mov	r3, #162
 6454 00dc 9B00     		lsl	r3, r3, #2
 6455 00de FB18     		add	r3, r7, r3
 6456 00e0 12B2     		sxth	r2, r2
 6457 00e2 9210     		asr	r2, r2, #2
 6458 00e4 1A80     		strh	r2, [r3]
1572:Source\TransformFunctions/arm_cfft_radix4_q15.c ****     /* input is down scale by 4 to avoid overflow */
1573:Source\TransformFunctions/arm_cfft_radix4_q15.c ****     /* Read yc (real), xc(imag) input */
1574:Source\TransformFunctions/arm_cfft_radix4_q15.c ****     S0 = pSrc16[i2 * 2u] >> 2u;
 6459              		.loc 1 1574 0 discriminator 1
 6460 00e6 A423     		mov	r3, #164
 6461 00e8 9B00     		lsl	r3, r3, #2
 6462 00ea FB18     		add	r3, r7, r3
 6463 00ec 1B68     		ldr	r3, [r3]
 6464 00ee 9B00     		lsl	r3, r3, #2
 6465 00f0 FA68     		ldr	r2, [r7, #12]
ARM GAS  C:\Users\fneves\AppData\Local\Temp\cc0ayw4Y.s 			page 161


 6466 00f2 D318     		add	r3, r2, r3
 6467 00f4 1A88     		ldrh	r2, [r3]
 6468 00f6 9C4B     		ldr	r3, .L469+8
 6469 00f8 FB18     		add	r3, r7, r3
 6470 00fa 12B2     		sxth	r2, r2
 6471 00fc 9210     		asr	r2, r2, #2
 6472 00fe 1A80     		strh	r2, [r3]
1575:Source\TransformFunctions/arm_cfft_radix4_q15.c ****     S1 = pSrc16[(i2 * 2u) + 1u] >> 2u;
 6473              		.loc 1 1575 0 discriminator 1
 6474 0100 A423     		mov	r3, #164
 6475 0102 9B00     		lsl	r3, r3, #2
 6476 0104 FB18     		add	r3, r7, r3
 6477 0106 1B68     		ldr	r3, [r3]
 6478 0108 9B00     		lsl	r3, r3, #2
 6479 010a 0233     		add	r3, r3, #2
 6480 010c FA68     		ldr	r2, [r7, #12]
 6481 010e D318     		add	r3, r2, r3
 6482 0110 1A88     		ldrh	r2, [r3]
 6483 0112 A123     		mov	r3, #161
 6484 0114 9B00     		lsl	r3, r3, #2
 6485 0116 FB18     		add	r3, r7, r3
 6486 0118 12B2     		sxth	r2, r2
 6487 011a 9210     		asr	r2, r2, #2
 6488 011c 1A80     		strh	r2, [r3]
1576:Source\TransformFunctions/arm_cfft_radix4_q15.c **** 
1577:Source\TransformFunctions/arm_cfft_radix4_q15.c ****     /* R0 = (ya + yc), R1 = (xa + xc) */
1578:Source\TransformFunctions/arm_cfft_radix4_q15.c ****     R0 = __SSAT(T0 + S0, 16u);
 6489              		.loc 1 1578 0 discriminator 1
 6490 011e 914B     		ldr	r3, .L469+4
 6491 0120 FB18     		add	r3, r7, r3
 6492 0122 0022     		mov	r2, #0
 6493 0124 9A5E     		ldrsh	r2, [r3, r2]
 6494 0126 904B     		ldr	r3, .L469+8
 6495 0128 FB18     		add	r3, r7, r3
 6496 012a 0021     		mov	r1, #0
 6497 012c 5B5E     		ldrsh	r3, [r3, r1]
 6498 012e D318     		add	r3, r2, r3
 6499 0130 9A22     		mov	r2, #154
 6500 0132 9200     		lsl	r2, r2, #2
 6501 0134 BA18     		add	r2, r7, r2
 6502 0136 1360     		str	r3, [r2]
 6503 0138 1023     		mov	r3, #16
 6504 013a 9922     		mov	r2, #153
 6505 013c 9200     		lsl	r2, r2, #2
 6506 013e BA18     		add	r2, r7, r2
 6507 0140 1360     		str	r3, [r2]
 6508              	.LBB182:
 6509              	.LBB183:
 699:.\Include/arm_math.h ****     for (i = 0; i < (y - 1); i++)
 6510              		.loc 2 699 0 discriminator 1
 6511 0142 0123     		mov	r3, #1
 6512 0144 9822     		mov	r2, #152
 6513 0146 9200     		lsl	r2, r2, #2
 6514 0148 BA18     		add	r2, r7, r2
 6515 014a 1360     		str	r3, [r2]
 700:.\Include/arm_math.h ****     {
 6516              		.loc 2 700 0 discriminator 1
ARM GAS  C:\Users\fneves\AppData\Local\Temp\cc0ayw4Y.s 			page 162


 6517 014c 0023     		mov	r3, #0
 6518 014e 9722     		mov	r2, #151
 6519 0150 9200     		lsl	r2, r2, #2
 6520 0152 BA18     		add	r2, r7, r2
 6521 0154 1360     		str	r3, [r2]
 6522 0156 11E0     		b	.L250
 6523              	.L251:
 702:.\Include/arm_math.h ****     }
 6524              		.loc 2 702 0
 6525 0158 9823     		mov	r3, #152
 6526 015a 9B00     		lsl	r3, r3, #2
 6527 015c FB18     		add	r3, r7, r3
 6528 015e 1B68     		ldr	r3, [r3]
 6529 0160 5B00     		lsl	r3, r3, #1
 6530 0162 9822     		mov	r2, #152
 6531 0164 9200     		lsl	r2, r2, #2
 6532 0166 BA18     		add	r2, r7, r2
 6533 0168 1360     		str	r3, [r2]
 700:.\Include/arm_math.h ****     {
 6534              		.loc 2 700 0
 6535 016a 9723     		mov	r3, #151
 6536 016c 9B00     		lsl	r3, r3, #2
 6537 016e FB18     		add	r3, r7, r3
 6538 0170 1B68     		ldr	r3, [r3]
 6539 0172 0133     		add	r3, r3, #1
 6540 0174 9722     		mov	r2, #151
 6541 0176 9200     		lsl	r2, r2, #2
 6542 0178 BA18     		add	r2, r7, r2
 6543 017a 1360     		str	r3, [r2]
 6544              	.L250:
 6545 017c 9923     		mov	r3, #153
 6546 017e 9B00     		lsl	r3, r3, #2
 6547 0180 FB18     		add	r3, r7, r3
 6548 0182 1B68     		ldr	r3, [r3]
 6549 0184 013B     		sub	r3, r3, #1
 6550 0186 9722     		mov	r2, #151
 6551 0188 9200     		lsl	r2, r2, #2
 6552 018a BA18     		add	r2, r7, r2
 6553 018c 1268     		ldr	r2, [r2]
 6554 018e 9A42     		cmp	r2, r3
 6555 0190 E2D3     		bcc	.L251
 705:.\Include/arm_math.h ****     {
 6556              		.loc 2 705 0
 6557 0192 9A23     		mov	r3, #154
 6558 0194 9B00     		lsl	r3, r3, #2
 6559 0196 FB18     		add	r3, r7, r3
 6560 0198 1B68     		ldr	r3, [r3]
 6561 019a 002B     		cmp	r3, #0
 6562 019c 1BDD     		ble	.L252
 707:.\Include/arm_math.h **** 
 6563              		.loc 2 707 0
 6564 019e 9823     		mov	r3, #152
 6565 01a0 9B00     		lsl	r3, r3, #2
 6566 01a2 FB18     		add	r3, r7, r3
 6567 01a4 1B68     		ldr	r3, [r3]
 6568 01a6 013B     		sub	r3, r3, #1
 6569 01a8 9822     		mov	r2, #152
ARM GAS  C:\Users\fneves\AppData\Local\Temp\cc0ayw4Y.s 			page 163


 6570 01aa 9200     		lsl	r2, r2, #2
 6571 01ac BA18     		add	r2, r7, r2
 6572 01ae 1360     		str	r3, [r2]
 709:.\Include/arm_math.h ****       {
 6573              		.loc 2 709 0
 6574 01b0 9A23     		mov	r3, #154
 6575 01b2 9B00     		lsl	r3, r3, #2
 6576 01b4 FB18     		add	r3, r7, r3
 6577 01b6 1A68     		ldr	r2, [r3]
 6578 01b8 9823     		mov	r3, #152
 6579 01ba 9B00     		lsl	r3, r3, #2
 6580 01bc FB18     		add	r3, r7, r3
 6581 01be 1B68     		ldr	r3, [r3]
 6582 01c0 9A42     		cmp	r2, r3
 6583 01c2 24DD     		ble	.L439
 711:.\Include/arm_math.h ****       }
 6584              		.loc 2 711 0
 6585 01c4 9823     		mov	r3, #152
 6586 01c6 9B00     		lsl	r3, r3, #2
 6587 01c8 FB18     		add	r3, r7, r3
 6588 01ca 1B68     		ldr	r3, [r3]
 6589 01cc 9A22     		mov	r2, #154
 6590 01ce 9200     		lsl	r2, r2, #2
 6591 01d0 BA18     		add	r2, r7, r2
 6592 01d2 1360     		str	r3, [r2]
 6593 01d4 1CE0     		b	.L254
 6594              	.L252:
 716:.\Include/arm_math.h **** 
 6595              		.loc 2 716 0
 6596 01d6 9823     		mov	r3, #152
 6597 01d8 9B00     		lsl	r3, r3, #2
 6598 01da FB18     		add	r3, r7, r3
 6599 01dc 1B68     		ldr	r3, [r3]
 6600 01de 5B42     		neg	r3, r3
 6601 01e0 9622     		mov	r2, #150
 6602 01e2 9200     		lsl	r2, r2, #2
 6603 01e4 BA18     		add	r2, r7, r2
 6604 01e6 1360     		str	r3, [r2]
 718:.\Include/arm_math.h ****       {
 6605              		.loc 2 718 0
 6606 01e8 9A23     		mov	r3, #154
 6607 01ea 9B00     		lsl	r3, r3, #2
 6608 01ec FB18     		add	r3, r7, r3
 6609 01ee 1A68     		ldr	r2, [r3]
 6610 01f0 9623     		mov	r3, #150
 6611 01f2 9B00     		lsl	r3, r3, #2
 6612 01f4 FB18     		add	r3, r7, r3
 6613 01f6 1B68     		ldr	r3, [r3]
 6614 01f8 9A42     		cmp	r2, r3
 6615 01fa 09DA     		bge	.L254
 720:.\Include/arm_math.h ****       }
 6616              		.loc 2 720 0
 6617 01fc 9623     		mov	r3, #150
 6618 01fe 9B00     		lsl	r3, r3, #2
 6619 0200 FB18     		add	r3, r7, r3
 6620 0202 1B68     		ldr	r3, [r3]
 6621 0204 9A22     		mov	r2, #154
ARM GAS  C:\Users\fneves\AppData\Local\Temp\cc0ayw4Y.s 			page 164


 6622 0206 9200     		lsl	r2, r2, #2
 6623 0208 BA18     		add	r2, r7, r2
 6624 020a 1360     		str	r3, [r2]
 6625 020c 00E0     		b	.L254
 6626              	.L439:
 711:.\Include/arm_math.h ****       }
 6627              		.loc 2 711 0
 6628 020e C046     		mov	r8, r8
 6629              	.L254:
 6630              		.loc 2 723 0
 6631 0210 9A23     		mov	r3, #154
 6632 0212 9B00     		lsl	r3, r3, #2
 6633 0214 FB18     		add	r3, r7, r3
 6634 0216 1A68     		ldr	r2, [r3]
 6635              	.LBE183:
 6636              	.LBE182:
 6637              		.loc 1 1578 0
 6638 0218 544B     		ldr	r3, .L469+12
 6639 021a FB18     		add	r3, r7, r3
 6640 021c 1A80     		strh	r2, [r3]
1579:Source\TransformFunctions/arm_cfft_radix4_q15.c ****     R1 = __SSAT(T1 + S1, 16u);
 6641              		.loc 1 1579 0
 6642 021e A223     		mov	r3, #162
 6643 0220 9B00     		lsl	r3, r3, #2
 6644 0222 FB18     		add	r3, r7, r3
 6645 0224 0022     		mov	r2, #0
 6646 0226 9A5E     		ldrsh	r2, [r3, r2]
 6647 0228 A123     		mov	r3, #161
 6648 022a 9B00     		lsl	r3, r3, #2
 6649 022c FB18     		add	r3, r7, r3
 6650 022e 0021     		mov	r1, #0
 6651 0230 5B5E     		ldrsh	r3, [r3, r1]
 6652 0232 D318     		add	r3, r2, r3
 6653 0234 9522     		mov	r2, #149
 6654 0236 9200     		lsl	r2, r2, #2
 6655 0238 BA18     		add	r2, r7, r2
 6656 023a 1360     		str	r3, [r2]
 6657 023c 1023     		mov	r3, #16
 6658 023e 9422     		mov	r2, #148
 6659 0240 9200     		lsl	r2, r2, #2
 6660 0242 BA18     		add	r2, r7, r2
 6661 0244 1360     		str	r3, [r2]
 6662              	.LBB184:
 6663              	.LBB185:
 699:.\Include/arm_math.h ****     for (i = 0; i < (y - 1); i++)
 6664              		.loc 2 699 0
 6665 0246 0123     		mov	r3, #1
 6666 0248 9322     		mov	r2, #147
 6667 024a 9200     		lsl	r2, r2, #2
 6668 024c BA18     		add	r2, r7, r2
 6669 024e 1360     		str	r3, [r2]
 700:.\Include/arm_math.h ****     {
 6670              		.loc 2 700 0
 6671 0250 0023     		mov	r3, #0
 6672 0252 9222     		mov	r2, #146
 6673 0254 9200     		lsl	r2, r2, #2
 6674 0256 BA18     		add	r2, r7, r2
ARM GAS  C:\Users\fneves\AppData\Local\Temp\cc0ayw4Y.s 			page 165


 6675 0258 1360     		str	r3, [r2]
 6676 025a 11E0     		b	.L256
 6677              	.L257:
 702:.\Include/arm_math.h ****     }
 6678              		.loc 2 702 0
 6679 025c 9323     		mov	r3, #147
 6680 025e 9B00     		lsl	r3, r3, #2
 6681 0260 FB18     		add	r3, r7, r3
 6682 0262 1B68     		ldr	r3, [r3]
 6683 0264 5B00     		lsl	r3, r3, #1
 6684 0266 9322     		mov	r2, #147
 6685 0268 9200     		lsl	r2, r2, #2
 6686 026a BA18     		add	r2, r7, r2
 6687 026c 1360     		str	r3, [r2]
 700:.\Include/arm_math.h ****     {
 6688              		.loc 2 700 0
 6689 026e 9223     		mov	r3, #146
 6690 0270 9B00     		lsl	r3, r3, #2
 6691 0272 FB18     		add	r3, r7, r3
 6692 0274 1B68     		ldr	r3, [r3]
 6693 0276 0133     		add	r3, r3, #1
 6694 0278 9222     		mov	r2, #146
 6695 027a 9200     		lsl	r2, r2, #2
 6696 027c BA18     		add	r2, r7, r2
 6697 027e 1360     		str	r3, [r2]
 6698              	.L256:
 6699 0280 9423     		mov	r3, #148
 6700 0282 9B00     		lsl	r3, r3, #2
 6701 0284 FB18     		add	r3, r7, r3
 6702 0286 1B68     		ldr	r3, [r3]
 6703 0288 013B     		sub	r3, r3, #1
 6704 028a 9222     		mov	r2, #146
 6705 028c 9200     		lsl	r2, r2, #2
 6706 028e BA18     		add	r2, r7, r2
 6707 0290 1268     		ldr	r2, [r2]
 6708 0292 9A42     		cmp	r2, r3
 6709 0294 E2D3     		bcc	.L257
 705:.\Include/arm_math.h ****     {
 6710              		.loc 2 705 0
 6711 0296 9523     		mov	r3, #149
 6712 0298 9B00     		lsl	r3, r3, #2
 6713 029a FB18     		add	r3, r7, r3
 6714 029c 1B68     		ldr	r3, [r3]
 6715 029e 002B     		cmp	r3, #0
 6716 02a0 1BDD     		ble	.L258
 707:.\Include/arm_math.h **** 
 6717              		.loc 2 707 0
 6718 02a2 9323     		mov	r3, #147
 6719 02a4 9B00     		lsl	r3, r3, #2
 6720 02a6 FB18     		add	r3, r7, r3
 6721 02a8 1B68     		ldr	r3, [r3]
 6722 02aa 013B     		sub	r3, r3, #1
 6723 02ac 9322     		mov	r2, #147
 6724 02ae 9200     		lsl	r2, r2, #2
 6725 02b0 BA18     		add	r2, r7, r2
 6726 02b2 1360     		str	r3, [r2]
 709:.\Include/arm_math.h ****       {
ARM GAS  C:\Users\fneves\AppData\Local\Temp\cc0ayw4Y.s 			page 166


 6727              		.loc 2 709 0
 6728 02b4 9523     		mov	r3, #149
 6729 02b6 9B00     		lsl	r3, r3, #2
 6730 02b8 FB18     		add	r3, r7, r3
 6731 02ba 1A68     		ldr	r2, [r3]
 6732 02bc 9323     		mov	r3, #147
 6733 02be 9B00     		lsl	r3, r3, #2
 6734 02c0 FB18     		add	r3, r7, r3
 6735 02c2 1B68     		ldr	r3, [r3]
 6736 02c4 9A42     		cmp	r2, r3
 6737 02c6 24DD     		ble	.L440
 711:.\Include/arm_math.h ****       }
 6738              		.loc 2 711 0
 6739 02c8 9323     		mov	r3, #147
 6740 02ca 9B00     		lsl	r3, r3, #2
 6741 02cc FB18     		add	r3, r7, r3
 6742 02ce 1B68     		ldr	r3, [r3]
 6743 02d0 9522     		mov	r2, #149
 6744 02d2 9200     		lsl	r2, r2, #2
 6745 02d4 BA18     		add	r2, r7, r2
 6746 02d6 1360     		str	r3, [r2]
 6747 02d8 1CE0     		b	.L260
 6748              	.L258:
 716:.\Include/arm_math.h **** 
 6749              		.loc 2 716 0
 6750 02da 9323     		mov	r3, #147
 6751 02dc 9B00     		lsl	r3, r3, #2
 6752 02de FB18     		add	r3, r7, r3
 6753 02e0 1B68     		ldr	r3, [r3]
 6754 02e2 5B42     		neg	r3, r3
 6755 02e4 9122     		mov	r2, #145
 6756 02e6 9200     		lsl	r2, r2, #2
 6757 02e8 BA18     		add	r2, r7, r2
 6758 02ea 1360     		str	r3, [r2]
 718:.\Include/arm_math.h ****       {
 6759              		.loc 2 718 0
 6760 02ec 9523     		mov	r3, #149
 6761 02ee 9B00     		lsl	r3, r3, #2
 6762 02f0 FB18     		add	r3, r7, r3
 6763 02f2 1A68     		ldr	r2, [r3]
 6764 02f4 9123     		mov	r3, #145
 6765 02f6 9B00     		lsl	r3, r3, #2
 6766 02f8 FB18     		add	r3, r7, r3
 6767 02fa 1B68     		ldr	r3, [r3]
 6768 02fc 9A42     		cmp	r2, r3
 6769 02fe 09DA     		bge	.L260
 720:.\Include/arm_math.h ****       }
 6770              		.loc 2 720 0
 6771 0300 9123     		mov	r3, #145
 6772 0302 9B00     		lsl	r3, r3, #2
 6773 0304 FB18     		add	r3, r7, r3
 6774 0306 1B68     		ldr	r3, [r3]
 6775 0308 9522     		mov	r2, #149
 6776 030a 9200     		lsl	r2, r2, #2
 6777 030c BA18     		add	r2, r7, r2
 6778 030e 1360     		str	r3, [r2]
 6779 0310 00E0     		b	.L260
ARM GAS  C:\Users\fneves\AppData\Local\Temp\cc0ayw4Y.s 			page 167


 6780              	.L440:
 711:.\Include/arm_math.h ****       }
 6781              		.loc 2 711 0
 6782 0312 C046     		mov	r8, r8
 6783              	.L260:
 6784              		.loc 2 723 0
 6785 0314 9523     		mov	r3, #149
 6786 0316 9B00     		lsl	r3, r3, #2
 6787 0318 FB18     		add	r3, r7, r3
 6788 031a 1A68     		ldr	r2, [r3]
 6789              	.LBE185:
 6790              	.LBE184:
 6791              		.loc 1 1579 0
 6792 031c A023     		mov	r3, #160
 6793 031e 9B00     		lsl	r3, r3, #2
 6794 0320 FB18     		add	r3, r7, r3
 6795 0322 1A80     		strh	r2, [r3]
1580:Source\TransformFunctions/arm_cfft_radix4_q15.c ****     /* S0 = (ya - yc), S1 = (xa - xc) */
1581:Source\TransformFunctions/arm_cfft_radix4_q15.c ****     S0 = __SSAT(T0 - S0, 16u);
 6796              		.loc 1 1581 0
 6797 0324 0F4B     		ldr	r3, .L469+4
 6798 0326 FB18     		add	r3, r7, r3
 6799 0328 0022     		mov	r2, #0
 6800 032a 9A5E     		ldrsh	r2, [r3, r2]
 6801 032c 0E4B     		ldr	r3, .L469+8
 6802 032e FB18     		add	r3, r7, r3
 6803 0330 0021     		mov	r1, #0
 6804 0332 5B5E     		ldrsh	r3, [r3, r1]
 6805 0334 D31A     		sub	r3, r2, r3
 6806 0336 9022     		mov	r2, #144
 6807 0338 9200     		lsl	r2, r2, #2
 6808 033a BA18     		add	r2, r7, r2
 6809 033c 1360     		str	r3, [r2]
 6810 033e 1023     		mov	r3, #16
 6811 0340 8F22     		mov	r2, #143
 6812 0342 9200     		lsl	r2, r2, #2
 6813 0344 BA18     		add	r2, r7, r2
 6814 0346 1360     		str	r3, [r2]
 6815              	.LBB186:
 6816              	.LBB187:
 699:.\Include/arm_math.h ****     for (i = 0; i < (y - 1); i++)
 6817              		.loc 2 699 0
 6818 0348 0123     		mov	r3, #1
 6819 034a 8E22     		mov	r2, #142
 6820 034c 9200     		lsl	r2, r2, #2
 6821 034e BA18     		add	r2, r7, r2
 6822 0350 1360     		str	r3, [r2]
 700:.\Include/arm_math.h ****     {
 6823              		.loc 2 700 0
 6824 0352 0023     		mov	r3, #0
 6825 0354 8D22     		mov	r2, #141
 6826 0356 9200     		lsl	r2, r2, #2
 6827 0358 BA18     		add	r2, r7, r2
 6828 035a 1360     		str	r3, [r2]
 6829 035c 1AE0     		b	.L262
 6830              	.L470:
 6831 035e C046     		.align	2
ARM GAS  C:\Users\fneves\AppData\Local\Temp\cc0ayw4Y.s 			page 168


 6832              	.L469:
 6833 0360 50FDFFFF 		.word	-688
 6834 0364 8A020000 		.word	650
 6835 0368 86020000 		.word	646
 6836 036c 82020000 		.word	642
 6837              	.L263:
 702:.\Include/arm_math.h ****     }
 6838              		.loc 2 702 0
 6839 0370 8E23     		mov	r3, #142
 6840 0372 9B00     		lsl	r3, r3, #2
 6841 0374 FB18     		add	r3, r7, r3
 6842 0376 1B68     		ldr	r3, [r3]
 6843 0378 5B00     		lsl	r3, r3, #1
 6844 037a 8E22     		mov	r2, #142
 6845 037c 9200     		lsl	r2, r2, #2
 6846 037e BA18     		add	r2, r7, r2
 6847 0380 1360     		str	r3, [r2]
 700:.\Include/arm_math.h ****     {
 6848              		.loc 2 700 0
 6849 0382 8D23     		mov	r3, #141
 6850 0384 9B00     		lsl	r3, r3, #2
 6851 0386 FB18     		add	r3, r7, r3
 6852 0388 1B68     		ldr	r3, [r3]
 6853 038a 0133     		add	r3, r3, #1
 6854 038c 8D22     		mov	r2, #141
 6855 038e 9200     		lsl	r2, r2, #2
 6856 0390 BA18     		add	r2, r7, r2
 6857 0392 1360     		str	r3, [r2]
 6858              	.L262:
 6859 0394 8F23     		mov	r3, #143
 6860 0396 9B00     		lsl	r3, r3, #2
 6861 0398 FB18     		add	r3, r7, r3
 6862 039a 1B68     		ldr	r3, [r3]
 6863 039c 013B     		sub	r3, r3, #1
 6864 039e 8D22     		mov	r2, #141
 6865 03a0 9200     		lsl	r2, r2, #2
 6866 03a2 BA18     		add	r2, r7, r2
 6867 03a4 1268     		ldr	r2, [r2]
 6868 03a6 9A42     		cmp	r2, r3
 6869 03a8 E2D3     		bcc	.L263
 705:.\Include/arm_math.h ****     {
 6870              		.loc 2 705 0
 6871 03aa 9023     		mov	r3, #144
 6872 03ac 9B00     		lsl	r3, r3, #2
 6873 03ae FB18     		add	r3, r7, r3
 6874 03b0 1B68     		ldr	r3, [r3]
 6875 03b2 002B     		cmp	r3, #0
 6876 03b4 1BDD     		ble	.L264
 707:.\Include/arm_math.h **** 
 6877              		.loc 2 707 0
 6878 03b6 8E23     		mov	r3, #142
 6879 03b8 9B00     		lsl	r3, r3, #2
 6880 03ba FB18     		add	r3, r7, r3
 6881 03bc 1B68     		ldr	r3, [r3]
 6882 03be 013B     		sub	r3, r3, #1
 6883 03c0 8E22     		mov	r2, #142
 6884 03c2 9200     		lsl	r2, r2, #2
ARM GAS  C:\Users\fneves\AppData\Local\Temp\cc0ayw4Y.s 			page 169


 6885 03c4 BA18     		add	r2, r7, r2
 6886 03c6 1360     		str	r3, [r2]
 709:.\Include/arm_math.h ****       {
 6887              		.loc 2 709 0
 6888 03c8 9023     		mov	r3, #144
 6889 03ca 9B00     		lsl	r3, r3, #2
 6890 03cc FB18     		add	r3, r7, r3
 6891 03ce 1A68     		ldr	r2, [r3]
 6892 03d0 8E23     		mov	r3, #142
 6893 03d2 9B00     		lsl	r3, r3, #2
 6894 03d4 FB18     		add	r3, r7, r3
 6895 03d6 1B68     		ldr	r3, [r3]
 6896 03d8 9A42     		cmp	r2, r3
 6897 03da 24DD     		ble	.L441
 711:.\Include/arm_math.h ****       }
 6898              		.loc 2 711 0
 6899 03dc 8E23     		mov	r3, #142
 6900 03de 9B00     		lsl	r3, r3, #2
 6901 03e0 FB18     		add	r3, r7, r3
 6902 03e2 1B68     		ldr	r3, [r3]
 6903 03e4 9022     		mov	r2, #144
 6904 03e6 9200     		lsl	r2, r2, #2
 6905 03e8 BA18     		add	r2, r7, r2
 6906 03ea 1360     		str	r3, [r2]
 6907 03ec 1CE0     		b	.L266
 6908              	.L264:
 716:.\Include/arm_math.h **** 
 6909              		.loc 2 716 0
 6910 03ee 8E23     		mov	r3, #142
 6911 03f0 9B00     		lsl	r3, r3, #2
 6912 03f2 FB18     		add	r3, r7, r3
 6913 03f4 1B68     		ldr	r3, [r3]
 6914 03f6 5B42     		neg	r3, r3
 6915 03f8 8C22     		mov	r2, #140
 6916 03fa 9200     		lsl	r2, r2, #2
 6917 03fc BA18     		add	r2, r7, r2
 6918 03fe 1360     		str	r3, [r2]
 718:.\Include/arm_math.h ****       {
 6919              		.loc 2 718 0
 6920 0400 9023     		mov	r3, #144
 6921 0402 9B00     		lsl	r3, r3, #2
 6922 0404 FB18     		add	r3, r7, r3
 6923 0406 1A68     		ldr	r2, [r3]
 6924 0408 8C23     		mov	r3, #140
 6925 040a 9B00     		lsl	r3, r3, #2
 6926 040c FB18     		add	r3, r7, r3
 6927 040e 1B68     		ldr	r3, [r3]
 6928 0410 9A42     		cmp	r2, r3
 6929 0412 09DA     		bge	.L266
 720:.\Include/arm_math.h ****       }
 6930              		.loc 2 720 0
 6931 0414 8C23     		mov	r3, #140
 6932 0416 9B00     		lsl	r3, r3, #2
 6933 0418 FB18     		add	r3, r7, r3
 6934 041a 1B68     		ldr	r3, [r3]
 6935 041c 9022     		mov	r2, #144
 6936 041e 9200     		lsl	r2, r2, #2
ARM GAS  C:\Users\fneves\AppData\Local\Temp\cc0ayw4Y.s 			page 170


 6937 0420 BA18     		add	r2, r7, r2
 6938 0422 1360     		str	r3, [r2]
 6939 0424 00E0     		b	.L266
 6940              	.L441:
 711:.\Include/arm_math.h ****       }
 6941              		.loc 2 711 0
 6942 0426 C046     		mov	r8, r8
 6943              	.L266:
 6944              		.loc 2 723 0
 6945 0428 9023     		mov	r3, #144
 6946 042a 9B00     		lsl	r3, r3, #2
 6947 042c FB18     		add	r3, r7, r3
 6948 042e 1A68     		ldr	r2, [r3]
 6949              	.LBE187:
 6950              	.LBE186:
 6951              		.loc 1 1581 0
 6952 0430 DB4B     		ldr	r3, .L471
 6953 0432 FB18     		add	r3, r7, r3
 6954 0434 1A80     		strh	r2, [r3]
1582:Source\TransformFunctions/arm_cfft_radix4_q15.c ****     S1 = __SSAT(T1 - S1, 16u);
 6955              		.loc 1 1582 0
 6956 0436 A223     		mov	r3, #162
 6957 0438 9B00     		lsl	r3, r3, #2
 6958 043a FB18     		add	r3, r7, r3
 6959 043c 0022     		mov	r2, #0
 6960 043e 9A5E     		ldrsh	r2, [r3, r2]
 6961 0440 A123     		mov	r3, #161
 6962 0442 9B00     		lsl	r3, r3, #2
 6963 0444 FB18     		add	r3, r7, r3
 6964 0446 0021     		mov	r1, #0
 6965 0448 5B5E     		ldrsh	r3, [r3, r1]
 6966 044a D31A     		sub	r3, r2, r3
 6967 044c 8B22     		mov	r2, #139
 6968 044e 9200     		lsl	r2, r2, #2
 6969 0450 BA18     		add	r2, r7, r2
 6970 0452 1360     		str	r3, [r2]
 6971 0454 1023     		mov	r3, #16
 6972 0456 8A22     		mov	r2, #138
 6973 0458 9200     		lsl	r2, r2, #2
 6974 045a BA18     		add	r2, r7, r2
 6975 045c 1360     		str	r3, [r2]
 6976              	.LBB188:
 6977              	.LBB189:
 699:.\Include/arm_math.h ****     for (i = 0; i < (y - 1); i++)
 6978              		.loc 2 699 0
 6979 045e 0123     		mov	r3, #1
 6980 0460 8922     		mov	r2, #137
 6981 0462 9200     		lsl	r2, r2, #2
 6982 0464 BA18     		add	r2, r7, r2
 6983 0466 1360     		str	r3, [r2]
 700:.\Include/arm_math.h ****     {
 6984              		.loc 2 700 0
 6985 0468 0023     		mov	r3, #0
 6986 046a 8822     		mov	r2, #136
 6987 046c 9200     		lsl	r2, r2, #2
 6988 046e BA18     		add	r2, r7, r2
 6989 0470 1360     		str	r3, [r2]
ARM GAS  C:\Users\fneves\AppData\Local\Temp\cc0ayw4Y.s 			page 171


 6990 0472 11E0     		b	.L268
 6991              	.L269:
 702:.\Include/arm_math.h ****     }
 6992              		.loc 2 702 0
 6993 0474 8923     		mov	r3, #137
 6994 0476 9B00     		lsl	r3, r3, #2
 6995 0478 FB18     		add	r3, r7, r3
 6996 047a 1B68     		ldr	r3, [r3]
 6997 047c 5B00     		lsl	r3, r3, #1
 6998 047e 8922     		mov	r2, #137
 6999 0480 9200     		lsl	r2, r2, #2
 7000 0482 BA18     		add	r2, r7, r2
 7001 0484 1360     		str	r3, [r2]
 700:.\Include/arm_math.h ****     {
 7002              		.loc 2 700 0
 7003 0486 8823     		mov	r3, #136
 7004 0488 9B00     		lsl	r3, r3, #2
 7005 048a FB18     		add	r3, r7, r3
 7006 048c 1B68     		ldr	r3, [r3]
 7007 048e 0133     		add	r3, r3, #1
 7008 0490 8822     		mov	r2, #136
 7009 0492 9200     		lsl	r2, r2, #2
 7010 0494 BA18     		add	r2, r7, r2
 7011 0496 1360     		str	r3, [r2]
 7012              	.L268:
 7013 0498 8A23     		mov	r3, #138
 7014 049a 9B00     		lsl	r3, r3, #2
 7015 049c FB18     		add	r3, r7, r3
 7016 049e 1B68     		ldr	r3, [r3]
 7017 04a0 013B     		sub	r3, r3, #1
 7018 04a2 8822     		mov	r2, #136
 7019 04a4 9200     		lsl	r2, r2, #2
 7020 04a6 BA18     		add	r2, r7, r2
 7021 04a8 1268     		ldr	r2, [r2]
 7022 04aa 9A42     		cmp	r2, r3
 7023 04ac E2D3     		bcc	.L269
 705:.\Include/arm_math.h ****     {
 7024              		.loc 2 705 0
 7025 04ae 8B23     		mov	r3, #139
 7026 04b0 9B00     		lsl	r3, r3, #2
 7027 04b2 FB18     		add	r3, r7, r3
 7028 04b4 1B68     		ldr	r3, [r3]
 7029 04b6 002B     		cmp	r3, #0
 7030 04b8 1BDD     		ble	.L270
 707:.\Include/arm_math.h **** 
 7031              		.loc 2 707 0
 7032 04ba 8923     		mov	r3, #137
 7033 04bc 9B00     		lsl	r3, r3, #2
 7034 04be FB18     		add	r3, r7, r3
 7035 04c0 1B68     		ldr	r3, [r3]
 7036 04c2 013B     		sub	r3, r3, #1
 7037 04c4 8922     		mov	r2, #137
 7038 04c6 9200     		lsl	r2, r2, #2
 7039 04c8 BA18     		add	r2, r7, r2
 7040 04ca 1360     		str	r3, [r2]
 709:.\Include/arm_math.h ****       {
 7041              		.loc 2 709 0
ARM GAS  C:\Users\fneves\AppData\Local\Temp\cc0ayw4Y.s 			page 172


 7042 04cc 8B23     		mov	r3, #139
 7043 04ce 9B00     		lsl	r3, r3, #2
 7044 04d0 FB18     		add	r3, r7, r3
 7045 04d2 1A68     		ldr	r2, [r3]
 7046 04d4 8923     		mov	r3, #137
 7047 04d6 9B00     		lsl	r3, r3, #2
 7048 04d8 FB18     		add	r3, r7, r3
 7049 04da 1B68     		ldr	r3, [r3]
 7050 04dc 9A42     		cmp	r2, r3
 7051 04de 24DD     		ble	.L442
 711:.\Include/arm_math.h ****       }
 7052              		.loc 2 711 0
 7053 04e0 8923     		mov	r3, #137
 7054 04e2 9B00     		lsl	r3, r3, #2
 7055 04e4 FB18     		add	r3, r7, r3
 7056 04e6 1B68     		ldr	r3, [r3]
 7057 04e8 8B22     		mov	r2, #139
 7058 04ea 9200     		lsl	r2, r2, #2
 7059 04ec BA18     		add	r2, r7, r2
 7060 04ee 1360     		str	r3, [r2]
 7061 04f0 1CE0     		b	.L272
 7062              	.L270:
 716:.\Include/arm_math.h **** 
 7063              		.loc 2 716 0
 7064 04f2 8923     		mov	r3, #137
 7065 04f4 9B00     		lsl	r3, r3, #2
 7066 04f6 FB18     		add	r3, r7, r3
 7067 04f8 1B68     		ldr	r3, [r3]
 7068 04fa 5B42     		neg	r3, r3
 7069 04fc 8722     		mov	r2, #135
 7070 04fe 9200     		lsl	r2, r2, #2
 7071 0500 BA18     		add	r2, r7, r2
 7072 0502 1360     		str	r3, [r2]
 718:.\Include/arm_math.h ****       {
 7073              		.loc 2 718 0
 7074 0504 8B23     		mov	r3, #139
 7075 0506 9B00     		lsl	r3, r3, #2
 7076 0508 FB18     		add	r3, r7, r3
 7077 050a 1A68     		ldr	r2, [r3]
 7078 050c 8723     		mov	r3, #135
 7079 050e 9B00     		lsl	r3, r3, #2
 7080 0510 FB18     		add	r3, r7, r3
 7081 0512 1B68     		ldr	r3, [r3]
 7082 0514 9A42     		cmp	r2, r3
 7083 0516 09DA     		bge	.L272
 720:.\Include/arm_math.h ****       }
 7084              		.loc 2 720 0
 7085 0518 8723     		mov	r3, #135
 7086 051a 9B00     		lsl	r3, r3, #2
 7087 051c FB18     		add	r3, r7, r3
 7088 051e 1B68     		ldr	r3, [r3]
 7089 0520 8B22     		mov	r2, #139
 7090 0522 9200     		lsl	r2, r2, #2
 7091 0524 BA18     		add	r2, r7, r2
 7092 0526 1360     		str	r3, [r2]
 7093 0528 00E0     		b	.L272
 7094              	.L442:
ARM GAS  C:\Users\fneves\AppData\Local\Temp\cc0ayw4Y.s 			page 173


 711:.\Include/arm_math.h ****       }
 7095              		.loc 2 711 0
 7096 052a C046     		mov	r8, r8
 7097              	.L272:
 7098              		.loc 2 723 0
 7099 052c 8B23     		mov	r3, #139
 7100 052e 9B00     		lsl	r3, r3, #2
 7101 0530 FB18     		add	r3, r7, r3
 7102 0532 1A68     		ldr	r2, [r3]
 7103              	.LBE189:
 7104              	.LBE188:
 7105              		.loc 1 1582 0
 7106 0534 A123     		mov	r3, #161
 7107 0536 9B00     		lsl	r3, r3, #2
 7108 0538 FB18     		add	r3, r7, r3
 7109 053a 1A80     		strh	r2, [r3]
1583:Source\TransformFunctions/arm_cfft_radix4_q15.c **** 
1584:Source\TransformFunctions/arm_cfft_radix4_q15.c ****     /*  Reading i0+fftLen/4 , i0+3fftLen/4 inputs */
1585:Source\TransformFunctions/arm_cfft_radix4_q15.c ****     /* input is down scale by 4 to avoid overflow */
1586:Source\TransformFunctions/arm_cfft_radix4_q15.c ****     /* Read yb (real), xb(imag) input */
1587:Source\TransformFunctions/arm_cfft_radix4_q15.c ****     T0 = pSrc16[i1 * 2u] >> 2u;
 7110              		.loc 1 1587 0
 7111 053c A523     		mov	r3, #165
 7112 053e 9B00     		lsl	r3, r3, #2
 7113 0540 FB18     		add	r3, r7, r3
 7114 0542 1B68     		ldr	r3, [r3]
 7115 0544 9B00     		lsl	r3, r3, #2
 7116 0546 FA68     		ldr	r2, [r7, #12]
 7117 0548 D318     		add	r3, r2, r3
 7118 054a 1A88     		ldrh	r2, [r3]
 7119 054c 954B     		ldr	r3, .L471+4
 7120 054e FB18     		add	r3, r7, r3
 7121 0550 12B2     		sxth	r2, r2
 7122 0552 9210     		asr	r2, r2, #2
 7123 0554 1A80     		strh	r2, [r3]
1588:Source\TransformFunctions/arm_cfft_radix4_q15.c ****     T1 = pSrc16[(i1 * 2u) + 1u] >> 2u;
 7124              		.loc 1 1588 0
 7125 0556 A523     		mov	r3, #165
 7126 0558 9B00     		lsl	r3, r3, #2
 7127 055a FB18     		add	r3, r7, r3
 7128 055c 1B68     		ldr	r3, [r3]
 7129 055e 9B00     		lsl	r3, r3, #2
 7130 0560 0233     		add	r3, r3, #2
 7131 0562 FA68     		ldr	r2, [r7, #12]
 7132 0564 D318     		add	r3, r2, r3
 7133 0566 1A88     		ldrh	r2, [r3]
 7134 0568 A223     		mov	r3, #162
 7135 056a 9B00     		lsl	r3, r3, #2
 7136 056c FB18     		add	r3, r7, r3
 7137 056e 12B2     		sxth	r2, r2
 7138 0570 9210     		asr	r2, r2, #2
 7139 0572 1A80     		strh	r2, [r3]
1589:Source\TransformFunctions/arm_cfft_radix4_q15.c ****     /* Read yd (real), xd(imag) input */
1590:Source\TransformFunctions/arm_cfft_radix4_q15.c ****     /* input is down scale by 4 to avoid overflow */
1591:Source\TransformFunctions/arm_cfft_radix4_q15.c ****     U0 = pSrc16[i3 * 2u] >> 2u;
 7140              		.loc 1 1591 0
 7141 0574 A323     		mov	r3, #163
ARM GAS  C:\Users\fneves\AppData\Local\Temp\cc0ayw4Y.s 			page 174


 7142 0576 9B00     		lsl	r3, r3, #2
 7143 0578 FB18     		add	r3, r7, r3
 7144 057a 1B68     		ldr	r3, [r3]
 7145 057c 9B00     		lsl	r3, r3, #2
 7146 057e FA68     		ldr	r2, [r7, #12]
 7147 0580 D318     		add	r3, r2, r3
 7148 0582 1A88     		ldrh	r2, [r3]
 7149 0584 884B     		ldr	r3, .L471+8
 7150 0586 FB18     		add	r3, r7, r3
 7151 0588 12B2     		sxth	r2, r2
 7152 058a 9210     		asr	r2, r2, #2
 7153 058c 1A80     		strh	r2, [r3]
1592:Source\TransformFunctions/arm_cfft_radix4_q15.c ****     U1 = pSrc16[(i3 * 2u) + 1u] >> 2u;
 7154              		.loc 1 1592 0
 7155 058e A323     		mov	r3, #163
 7156 0590 9B00     		lsl	r3, r3, #2
 7157 0592 FB18     		add	r3, r7, r3
 7158 0594 1B68     		ldr	r3, [r3]
 7159 0596 9B00     		lsl	r3, r3, #2
 7160 0598 0233     		add	r3, r3, #2
 7161 059a FA68     		ldr	r2, [r7, #12]
 7162 059c D318     		add	r3, r2, r3
 7163 059e 1A88     		ldrh	r2, [r3]
 7164 05a0 9F23     		mov	r3, #159
 7165 05a2 9B00     		lsl	r3, r3, #2
 7166 05a4 FB18     		add	r3, r7, r3
 7167 05a6 12B2     		sxth	r2, r2
 7168 05a8 9210     		asr	r2, r2, #2
 7169 05aa 1A80     		strh	r2, [r3]
1593:Source\TransformFunctions/arm_cfft_radix4_q15.c **** 
1594:Source\TransformFunctions/arm_cfft_radix4_q15.c ****     /* T0 = (yb + yd), T1 = (xb + xd) */
1595:Source\TransformFunctions/arm_cfft_radix4_q15.c ****     T0 = __SSAT(T0 + U0, 16u);
 7170              		.loc 1 1595 0
 7171 05ac 7D4B     		ldr	r3, .L471+4
 7172 05ae FB18     		add	r3, r7, r3
 7173 05b0 0022     		mov	r2, #0
 7174 05b2 9A5E     		ldrsh	r2, [r3, r2]
 7175 05b4 7C4B     		ldr	r3, .L471+8
 7176 05b6 FB18     		add	r3, r7, r3
 7177 05b8 0021     		mov	r1, #0
 7178 05ba 5B5E     		ldrsh	r3, [r3, r1]
 7179 05bc D318     		add	r3, r2, r3
 7180 05be 8622     		mov	r2, #134
 7181 05c0 9200     		lsl	r2, r2, #2
 7182 05c2 BA18     		add	r2, r7, r2
 7183 05c4 1360     		str	r3, [r2]
 7184 05c6 1023     		mov	r3, #16
 7185 05c8 8522     		mov	r2, #133
 7186 05ca 9200     		lsl	r2, r2, #2
 7187 05cc BA18     		add	r2, r7, r2
 7188 05ce 1360     		str	r3, [r2]
 7189              	.LBB190:
 7190              	.LBB191:
 699:.\Include/arm_math.h ****     for (i = 0; i < (y - 1); i++)
 7191              		.loc 2 699 0
 7192 05d0 0123     		mov	r3, #1
 7193 05d2 8422     		mov	r2, #132
ARM GAS  C:\Users\fneves\AppData\Local\Temp\cc0ayw4Y.s 			page 175


 7194 05d4 9200     		lsl	r2, r2, #2
 7195 05d6 BA18     		add	r2, r7, r2
 7196 05d8 1360     		str	r3, [r2]
 700:.\Include/arm_math.h ****     {
 7197              		.loc 2 700 0
 7198 05da 0023     		mov	r3, #0
 7199 05dc 8322     		mov	r2, #131
 7200 05de 9200     		lsl	r2, r2, #2
 7201 05e0 BA18     		add	r2, r7, r2
 7202 05e2 1360     		str	r3, [r2]
 7203 05e4 11E0     		b	.L274
 7204              	.L275:
 702:.\Include/arm_math.h ****     }
 7205              		.loc 2 702 0
 7206 05e6 8423     		mov	r3, #132
 7207 05e8 9B00     		lsl	r3, r3, #2
 7208 05ea FB18     		add	r3, r7, r3
 7209 05ec 1B68     		ldr	r3, [r3]
 7210 05ee 5B00     		lsl	r3, r3, #1
 7211 05f0 8422     		mov	r2, #132
 7212 05f2 9200     		lsl	r2, r2, #2
 7213 05f4 BA18     		add	r2, r7, r2
 7214 05f6 1360     		str	r3, [r2]
 700:.\Include/arm_math.h ****     {
 7215              		.loc 2 700 0
 7216 05f8 8323     		mov	r3, #131
 7217 05fa 9B00     		lsl	r3, r3, #2
 7218 05fc FB18     		add	r3, r7, r3
 7219 05fe 1B68     		ldr	r3, [r3]
 7220 0600 0133     		add	r3, r3, #1
 7221 0602 8322     		mov	r2, #131
 7222 0604 9200     		lsl	r2, r2, #2
 7223 0606 BA18     		add	r2, r7, r2
 7224 0608 1360     		str	r3, [r2]
 7225              	.L274:
 7226 060a 8523     		mov	r3, #133
 7227 060c 9B00     		lsl	r3, r3, #2
 7228 060e FB18     		add	r3, r7, r3
 7229 0610 1B68     		ldr	r3, [r3]
 7230 0612 013B     		sub	r3, r3, #1
 7231 0614 8322     		mov	r2, #131
 7232 0616 9200     		lsl	r2, r2, #2
 7233 0618 BA18     		add	r2, r7, r2
 7234 061a 1268     		ldr	r2, [r2]
 7235 061c 9A42     		cmp	r2, r3
 7236 061e E2D3     		bcc	.L275
 705:.\Include/arm_math.h ****     {
 7237              		.loc 2 705 0
 7238 0620 8623     		mov	r3, #134
 7239 0622 9B00     		lsl	r3, r3, #2
 7240 0624 FB18     		add	r3, r7, r3
 7241 0626 1B68     		ldr	r3, [r3]
 7242 0628 002B     		cmp	r3, #0
 7243 062a 1BDD     		ble	.L276
 707:.\Include/arm_math.h **** 
 7244              		.loc 2 707 0
 7245 062c 8423     		mov	r3, #132
ARM GAS  C:\Users\fneves\AppData\Local\Temp\cc0ayw4Y.s 			page 176


 7246 062e 9B00     		lsl	r3, r3, #2
 7247 0630 FB18     		add	r3, r7, r3
 7248 0632 1B68     		ldr	r3, [r3]
 7249 0634 013B     		sub	r3, r3, #1
 7250 0636 8422     		mov	r2, #132
 7251 0638 9200     		lsl	r2, r2, #2
 7252 063a BA18     		add	r2, r7, r2
 7253 063c 1360     		str	r3, [r2]
 709:.\Include/arm_math.h ****       {
 7254              		.loc 2 709 0
 7255 063e 8623     		mov	r3, #134
 7256 0640 9B00     		lsl	r3, r3, #2
 7257 0642 FB18     		add	r3, r7, r3
 7258 0644 1A68     		ldr	r2, [r3]
 7259 0646 8423     		mov	r3, #132
 7260 0648 9B00     		lsl	r3, r3, #2
 7261 064a FB18     		add	r3, r7, r3
 7262 064c 1B68     		ldr	r3, [r3]
 7263 064e 9A42     		cmp	r2, r3
 7264 0650 24DD     		ble	.L443
 711:.\Include/arm_math.h ****       }
 7265              		.loc 2 711 0
 7266 0652 8423     		mov	r3, #132
 7267 0654 9B00     		lsl	r3, r3, #2
 7268 0656 FB18     		add	r3, r7, r3
 7269 0658 1B68     		ldr	r3, [r3]
 7270 065a 8622     		mov	r2, #134
 7271 065c 9200     		lsl	r2, r2, #2
 7272 065e BA18     		add	r2, r7, r2
 7273 0660 1360     		str	r3, [r2]
 7274 0662 1CE0     		b	.L278
 7275              	.L276:
 716:.\Include/arm_math.h **** 
 7276              		.loc 2 716 0
 7277 0664 8423     		mov	r3, #132
 7278 0666 9B00     		lsl	r3, r3, #2
 7279 0668 FB18     		add	r3, r7, r3
 7280 066a 1B68     		ldr	r3, [r3]
 7281 066c 5B42     		neg	r3, r3
 7282 066e 8222     		mov	r2, #130
 7283 0670 9200     		lsl	r2, r2, #2
 7284 0672 BA18     		add	r2, r7, r2
 7285 0674 1360     		str	r3, [r2]
 718:.\Include/arm_math.h ****       {
 7286              		.loc 2 718 0
 7287 0676 8623     		mov	r3, #134
 7288 0678 9B00     		lsl	r3, r3, #2
 7289 067a FB18     		add	r3, r7, r3
 7290 067c 1A68     		ldr	r2, [r3]
 7291 067e 8223     		mov	r3, #130
 7292 0680 9B00     		lsl	r3, r3, #2
 7293 0682 FB18     		add	r3, r7, r3
 7294 0684 1B68     		ldr	r3, [r3]
 7295 0686 9A42     		cmp	r2, r3
 7296 0688 09DA     		bge	.L278
 720:.\Include/arm_math.h ****       }
 7297              		.loc 2 720 0
ARM GAS  C:\Users\fneves\AppData\Local\Temp\cc0ayw4Y.s 			page 177


 7298 068a 8223     		mov	r3, #130
 7299 068c 9B00     		lsl	r3, r3, #2
 7300 068e FB18     		add	r3, r7, r3
 7301 0690 1B68     		ldr	r3, [r3]
 7302 0692 8622     		mov	r2, #134
 7303 0694 9200     		lsl	r2, r2, #2
 7304 0696 BA18     		add	r2, r7, r2
 7305 0698 1360     		str	r3, [r2]
 7306 069a 00E0     		b	.L278
 7307              	.L443:
 711:.\Include/arm_math.h ****       }
 7308              		.loc 2 711 0
 7309 069c C046     		mov	r8, r8
 7310              	.L278:
 7311              		.loc 2 723 0
 7312 069e 8623     		mov	r3, #134
 7313 06a0 9B00     		lsl	r3, r3, #2
 7314 06a2 FB18     		add	r3, r7, r3
 7315 06a4 1A68     		ldr	r2, [r3]
 7316              	.LBE191:
 7317              	.LBE190:
 7318              		.loc 1 1595 0
 7319 06a6 3F4B     		ldr	r3, .L471+4
 7320 06a8 FB18     		add	r3, r7, r3
 7321 06aa 1A80     		strh	r2, [r3]
1596:Source\TransformFunctions/arm_cfft_radix4_q15.c ****     T1 = __SSAT(T1 + U1, 16u);
 7322              		.loc 1 1596 0
 7323 06ac A223     		mov	r3, #162
 7324 06ae 9B00     		lsl	r3, r3, #2
 7325 06b0 FB18     		add	r3, r7, r3
 7326 06b2 0022     		mov	r2, #0
 7327 06b4 9A5E     		ldrsh	r2, [r3, r2]
 7328 06b6 9F23     		mov	r3, #159
 7329 06b8 9B00     		lsl	r3, r3, #2
 7330 06ba FB18     		add	r3, r7, r3
 7331 06bc 0021     		mov	r1, #0
 7332 06be 5B5E     		ldrsh	r3, [r3, r1]
 7333 06c0 D318     		add	r3, r2, r3
 7334 06c2 8122     		mov	r2, #129
 7335 06c4 9200     		lsl	r2, r2, #2
 7336 06c6 BA18     		add	r2, r7, r2
 7337 06c8 1360     		str	r3, [r2]
 7338 06ca 1023     		mov	r3, #16
 7339 06cc 8022     		mov	r2, #128
 7340 06ce 9200     		lsl	r2, r2, #2
 7341 06d0 BA18     		add	r2, r7, r2
 7342 06d2 1360     		str	r3, [r2]
 7343              	.LBB192:
 7344              	.LBB193:
 699:.\Include/arm_math.h ****     for (i = 0; i < (y - 1); i++)
 7345              		.loc 2 699 0
 7346 06d4 0123     		mov	r3, #1
 7347 06d6 FE22     		mov	r2, #254
 7348 06d8 5200     		lsl	r2, r2, #1
 7349 06da BA18     		add	r2, r7, r2
 7350 06dc 1360     		str	r3, [r2]
 700:.\Include/arm_math.h ****     {
ARM GAS  C:\Users\fneves\AppData\Local\Temp\cc0ayw4Y.s 			page 178


 7351              		.loc 2 700 0
 7352 06de 0023     		mov	r3, #0
 7353 06e0 FC22     		mov	r2, #252
 7354 06e2 5200     		lsl	r2, r2, #1
 7355 06e4 BA18     		add	r2, r7, r2
 7356 06e6 1360     		str	r3, [r2]
 7357 06e8 11E0     		b	.L280
 7358              	.L281:
 702:.\Include/arm_math.h ****     }
 7359              		.loc 2 702 0
 7360 06ea FE23     		mov	r3, #254
 7361 06ec 5B00     		lsl	r3, r3, #1
 7362 06ee FB18     		add	r3, r7, r3
 7363 06f0 1B68     		ldr	r3, [r3]
 7364 06f2 5B00     		lsl	r3, r3, #1
 7365 06f4 FE22     		mov	r2, #254
 7366 06f6 5200     		lsl	r2, r2, #1
 7367 06f8 BA18     		add	r2, r7, r2
 7368 06fa 1360     		str	r3, [r2]
 700:.\Include/arm_math.h ****     {
 7369              		.loc 2 700 0
 7370 06fc FC23     		mov	r3, #252
 7371 06fe 5B00     		lsl	r3, r3, #1
 7372 0700 FB18     		add	r3, r7, r3
 7373 0702 1B68     		ldr	r3, [r3]
 7374 0704 0133     		add	r3, r3, #1
 7375 0706 FC22     		mov	r2, #252
 7376 0708 5200     		lsl	r2, r2, #1
 7377 070a BA18     		add	r2, r7, r2
 7378 070c 1360     		str	r3, [r2]
 7379              	.L280:
 7380 070e 8023     		mov	r3, #128
 7381 0710 9B00     		lsl	r3, r3, #2
 7382 0712 FB18     		add	r3, r7, r3
 7383 0714 1B68     		ldr	r3, [r3]
 7384 0716 013B     		sub	r3, r3, #1
 7385 0718 FC22     		mov	r2, #252
 7386 071a 5200     		lsl	r2, r2, #1
 7387 071c BA18     		add	r2, r7, r2
 7388 071e 1268     		ldr	r2, [r2]
 7389 0720 9A42     		cmp	r2, r3
 7390 0722 E2D3     		bcc	.L281
 705:.\Include/arm_math.h ****     {
 7391              		.loc 2 705 0
 7392 0724 8123     		mov	r3, #129
 7393 0726 9B00     		lsl	r3, r3, #2
 7394 0728 FB18     		add	r3, r7, r3
 7395 072a 1B68     		ldr	r3, [r3]
 7396 072c 002B     		cmp	r3, #0
 7397 072e 1BDD     		ble	.L282
 707:.\Include/arm_math.h **** 
 7398              		.loc 2 707 0
 7399 0730 FE23     		mov	r3, #254
 7400 0732 5B00     		lsl	r3, r3, #1
 7401 0734 FB18     		add	r3, r7, r3
 7402 0736 1B68     		ldr	r3, [r3]
 7403 0738 013B     		sub	r3, r3, #1
ARM GAS  C:\Users\fneves\AppData\Local\Temp\cc0ayw4Y.s 			page 179


 7404 073a FE22     		mov	r2, #254
 7405 073c 5200     		lsl	r2, r2, #1
 7406 073e BA18     		add	r2, r7, r2
 7407 0740 1360     		str	r3, [r2]
 709:.\Include/arm_math.h ****       {
 7408              		.loc 2 709 0
 7409 0742 8123     		mov	r3, #129
 7410 0744 9B00     		lsl	r3, r3, #2
 7411 0746 FB18     		add	r3, r7, r3
 7412 0748 1A68     		ldr	r2, [r3]
 7413 074a FE23     		mov	r3, #254
 7414 074c 5B00     		lsl	r3, r3, #1
 7415 074e FB18     		add	r3, r7, r3
 7416 0750 1B68     		ldr	r3, [r3]
 7417 0752 9A42     		cmp	r2, r3
 7418 0754 2ADD     		ble	.L444
 711:.\Include/arm_math.h ****       }
 7419              		.loc 2 711 0
 7420 0756 FE23     		mov	r3, #254
 7421 0758 5B00     		lsl	r3, r3, #1
 7422 075a FB18     		add	r3, r7, r3
 7423 075c 1B68     		ldr	r3, [r3]
 7424 075e 8122     		mov	r2, #129
 7425 0760 9200     		lsl	r2, r2, #2
 7426 0762 BA18     		add	r2, r7, r2
 7427 0764 1360     		str	r3, [r2]
 7428 0766 22E0     		b	.L284
 7429              	.L282:
 716:.\Include/arm_math.h **** 
 7430              		.loc 2 716 0
 7431 0768 FE23     		mov	r3, #254
 7432 076a 5B00     		lsl	r3, r3, #1
 7433 076c FB18     		add	r3, r7, r3
 7434 076e 1B68     		ldr	r3, [r3]
 7435 0770 5B42     		neg	r3, r3
 7436 0772 FA22     		mov	r2, #250
 7437 0774 5200     		lsl	r2, r2, #1
 7438 0776 BA18     		add	r2, r7, r2
 7439 0778 1360     		str	r3, [r2]
 718:.\Include/arm_math.h ****       {
 7440              		.loc 2 718 0
 7441 077a 8123     		mov	r3, #129
 7442 077c 9B00     		lsl	r3, r3, #2
 7443 077e FB18     		add	r3, r7, r3
 7444 0780 1A68     		ldr	r2, [r3]
 7445 0782 FA23     		mov	r3, #250
 7446 0784 5B00     		lsl	r3, r3, #1
 7447 0786 FB18     		add	r3, r7, r3
 7448 0788 1B68     		ldr	r3, [r3]
 7449 078a 9A42     		cmp	r2, r3
 7450 078c 0FDA     		bge	.L284
 720:.\Include/arm_math.h ****       }
 7451              		.loc 2 720 0
 7452 078e FA23     		mov	r3, #250
 7453 0790 5B00     		lsl	r3, r3, #1
 7454 0792 FB18     		add	r3, r7, r3
 7455 0794 1B68     		ldr	r3, [r3]
ARM GAS  C:\Users\fneves\AppData\Local\Temp\cc0ayw4Y.s 			page 180


 7456 0796 8122     		mov	r2, #129
 7457 0798 9200     		lsl	r2, r2, #2
 7458 079a BA18     		add	r2, r7, r2
 7459 079c 1360     		str	r3, [r2]
 7460 079e 06E0     		b	.L284
 7461              	.L472:
 7462              		.align	2
 7463              	.L471:
 7464 07a0 86020000 		.word	646
 7465 07a4 8A020000 		.word	650
 7466 07a8 7E020000 		.word	638
 7467              	.L444:
 711:.\Include/arm_math.h ****       }
 7468              		.loc 2 711 0
 7469 07ac C046     		mov	r8, r8
 7470              	.L284:
 7471              		.loc 2 723 0
 7472 07ae 8123     		mov	r3, #129
 7473 07b0 9B00     		lsl	r3, r3, #2
 7474 07b2 FB18     		add	r3, r7, r3
 7475 07b4 1A68     		ldr	r2, [r3]
 7476              	.LBE193:
 7477              	.LBE192:
 7478              		.loc 1 1596 0
 7479 07b6 A223     		mov	r3, #162
 7480 07b8 9B00     		lsl	r3, r3, #2
 7481 07ba FB18     		add	r3, r7, r3
 7482 07bc 1A80     		strh	r2, [r3]
1597:Source\TransformFunctions/arm_cfft_radix4_q15.c **** 
1598:Source\TransformFunctions/arm_cfft_radix4_q15.c ****     /*  writing the butterfly processed i0 sample */
1599:Source\TransformFunctions/arm_cfft_radix4_q15.c ****     /* xa' = xa + xb + xc + xd */
1600:Source\TransformFunctions/arm_cfft_radix4_q15.c ****     /* ya' = ya + yb + yc + yd */
1601:Source\TransformFunctions/arm_cfft_radix4_q15.c ****     pSrc16[i0 * 2u] = (R0 >> 1u) + (T0 >> 1u);
 7483              		.loc 1 1601 0
 7484 07be A923     		mov	r3, #169
 7485 07c0 9B00     		lsl	r3, r3, #2
 7486 07c2 FB18     		add	r3, r7, r3
 7487 07c4 1B68     		ldr	r3, [r3]
 7488 07c6 9B00     		lsl	r3, r3, #2
 7489 07c8 FA68     		ldr	r2, [r7, #12]
 7490 07ca D318     		add	r3, r2, r3
 7491 07cc 934A     		ldr	r2, .L473
 7492 07ce BA18     		add	r2, r7, r2
 7493 07d0 0021     		mov	r1, #0
 7494 07d2 525E     		ldrsh	r2, [r2, r1]
 7495 07d4 5210     		asr	r2, r2, #1
 7496 07d6 92B2     		uxth	r2, r2
 7497 07d8 91B2     		uxth	r1, r2
 7498 07da 914A     		ldr	r2, .L473+4
 7499 07dc BA18     		add	r2, r7, r2
 7500 07de 0020     		mov	r0, #0
 7501 07e0 125E     		ldrsh	r2, [r2, r0]
 7502 07e2 5210     		asr	r2, r2, #1
 7503 07e4 92B2     		uxth	r2, r2
 7504 07e6 92B2     		uxth	r2, r2
 7505 07e8 8A18     		add	r2, r1, r2
 7506 07ea 92B2     		uxth	r2, r2
ARM GAS  C:\Users\fneves\AppData\Local\Temp\cc0ayw4Y.s 			page 181


 7507 07ec 92B2     		uxth	r2, r2
 7508 07ee 1A80     		strh	r2, [r3]
1602:Source\TransformFunctions/arm_cfft_radix4_q15.c ****     pSrc16[(i0 * 2u) + 1u] = (R1 >> 1u) + (T1 >> 1u);
 7509              		.loc 1 1602 0
 7510 07f0 A923     		mov	r3, #169
 7511 07f2 9B00     		lsl	r3, r3, #2
 7512 07f4 FB18     		add	r3, r7, r3
 7513 07f6 1B68     		ldr	r3, [r3]
 7514 07f8 9B00     		lsl	r3, r3, #2
 7515 07fa 0233     		add	r3, r3, #2
 7516 07fc FA68     		ldr	r2, [r7, #12]
 7517 07fe D318     		add	r3, r2, r3
 7518 0800 A022     		mov	r2, #160
 7519 0802 9200     		lsl	r2, r2, #2
 7520 0804 BA18     		add	r2, r7, r2
 7521 0806 0021     		mov	r1, #0
 7522 0808 525E     		ldrsh	r2, [r2, r1]
 7523 080a 5210     		asr	r2, r2, #1
 7524 080c 92B2     		uxth	r2, r2
 7525 080e 91B2     		uxth	r1, r2
 7526 0810 A222     		mov	r2, #162
 7527 0812 9200     		lsl	r2, r2, #2
 7528 0814 BA18     		add	r2, r7, r2
 7529 0816 0020     		mov	r0, #0
 7530 0818 125E     		ldrsh	r2, [r2, r0]
 7531 081a 5210     		asr	r2, r2, #1
 7532 081c 92B2     		uxth	r2, r2
 7533 081e 92B2     		uxth	r2, r2
 7534 0820 8A18     		add	r2, r1, r2
 7535 0822 92B2     		uxth	r2, r2
 7536 0824 92B2     		uxth	r2, r2
 7537 0826 1A80     		strh	r2, [r3]
1603:Source\TransformFunctions/arm_cfft_radix4_q15.c **** 
1604:Source\TransformFunctions/arm_cfft_radix4_q15.c ****     /* R0 = (ya + yc) - (yb + yd), R1 = (xa + xc)- (xb + xd) */
1605:Source\TransformFunctions/arm_cfft_radix4_q15.c ****     R0 = __SSAT(R0 - T0, 16u);
 7538              		.loc 1 1605 0
 7539 0828 7C4B     		ldr	r3, .L473
 7540 082a FB18     		add	r3, r7, r3
 7541 082c 0022     		mov	r2, #0
 7542 082e 9A5E     		ldrsh	r2, [r3, r2]
 7543 0830 7B4B     		ldr	r3, .L473+4
 7544 0832 FB18     		add	r3, r7, r3
 7545 0834 0021     		mov	r1, #0
 7546 0836 5B5E     		ldrsh	r3, [r3, r1]
 7547 0838 D31A     		sub	r3, r2, r3
 7548 083a F822     		mov	r2, #248
 7549 083c 5200     		lsl	r2, r2, #1
 7550 083e BA18     		add	r2, r7, r2
 7551 0840 1360     		str	r3, [r2]
 7552 0842 1023     		mov	r3, #16
 7553 0844 F622     		mov	r2, #246
 7554 0846 5200     		lsl	r2, r2, #1
 7555 0848 BA18     		add	r2, r7, r2
 7556 084a 1360     		str	r3, [r2]
 7557              	.LBB194:
 7558              	.LBB195:
 699:.\Include/arm_math.h ****     for (i = 0; i < (y - 1); i++)
ARM GAS  C:\Users\fneves\AppData\Local\Temp\cc0ayw4Y.s 			page 182


 7559              		.loc 2 699 0
 7560 084c 0123     		mov	r3, #1
 7561 084e F422     		mov	r2, #244
 7562 0850 5200     		lsl	r2, r2, #1
 7563 0852 BA18     		add	r2, r7, r2
 7564 0854 1360     		str	r3, [r2]
 700:.\Include/arm_math.h ****     {
 7565              		.loc 2 700 0
 7566 0856 0023     		mov	r3, #0
 7567 0858 F222     		mov	r2, #242
 7568 085a 5200     		lsl	r2, r2, #1
 7569 085c BA18     		add	r2, r7, r2
 7570 085e 1360     		str	r3, [r2]
 7571 0860 11E0     		b	.L286
 7572              	.L287:
 702:.\Include/arm_math.h ****     }
 7573              		.loc 2 702 0
 7574 0862 F423     		mov	r3, #244
 7575 0864 5B00     		lsl	r3, r3, #1
 7576 0866 FB18     		add	r3, r7, r3
 7577 0868 1B68     		ldr	r3, [r3]
 7578 086a 5B00     		lsl	r3, r3, #1
 7579 086c F422     		mov	r2, #244
 7580 086e 5200     		lsl	r2, r2, #1
 7581 0870 BA18     		add	r2, r7, r2
 7582 0872 1360     		str	r3, [r2]
 700:.\Include/arm_math.h ****     {
 7583              		.loc 2 700 0
 7584 0874 F223     		mov	r3, #242
 7585 0876 5B00     		lsl	r3, r3, #1
 7586 0878 FB18     		add	r3, r7, r3
 7587 087a 1B68     		ldr	r3, [r3]
 7588 087c 0133     		add	r3, r3, #1
 7589 087e F222     		mov	r2, #242
 7590 0880 5200     		lsl	r2, r2, #1
 7591 0882 BA18     		add	r2, r7, r2
 7592 0884 1360     		str	r3, [r2]
 7593              	.L286:
 7594 0886 F623     		mov	r3, #246
 7595 0888 5B00     		lsl	r3, r3, #1
 7596 088a FB18     		add	r3, r7, r3
 7597 088c 1B68     		ldr	r3, [r3]
 7598 088e 013B     		sub	r3, r3, #1
 7599 0890 F222     		mov	r2, #242
 7600 0892 5200     		lsl	r2, r2, #1
 7601 0894 BA18     		add	r2, r7, r2
 7602 0896 1268     		ldr	r2, [r2]
 7603 0898 9A42     		cmp	r2, r3
 7604 089a E2D3     		bcc	.L287
 705:.\Include/arm_math.h ****     {
 7605              		.loc 2 705 0
 7606 089c F823     		mov	r3, #248
 7607 089e 5B00     		lsl	r3, r3, #1
 7608 08a0 FB18     		add	r3, r7, r3
 7609 08a2 1B68     		ldr	r3, [r3]
 7610 08a4 002B     		cmp	r3, #0
 7611 08a6 1BDD     		ble	.L288
ARM GAS  C:\Users\fneves\AppData\Local\Temp\cc0ayw4Y.s 			page 183


 707:.\Include/arm_math.h **** 
 7612              		.loc 2 707 0
 7613 08a8 F423     		mov	r3, #244
 7614 08aa 5B00     		lsl	r3, r3, #1
 7615 08ac FB18     		add	r3, r7, r3
 7616 08ae 1B68     		ldr	r3, [r3]
 7617 08b0 013B     		sub	r3, r3, #1
 7618 08b2 F422     		mov	r2, #244
 7619 08b4 5200     		lsl	r2, r2, #1
 7620 08b6 BA18     		add	r2, r7, r2
 7621 08b8 1360     		str	r3, [r2]
 709:.\Include/arm_math.h ****       {
 7622              		.loc 2 709 0
 7623 08ba F823     		mov	r3, #248
 7624 08bc 5B00     		lsl	r3, r3, #1
 7625 08be FB18     		add	r3, r7, r3
 7626 08c0 1A68     		ldr	r2, [r3]
 7627 08c2 F423     		mov	r3, #244
 7628 08c4 5B00     		lsl	r3, r3, #1
 7629 08c6 FB18     		add	r3, r7, r3
 7630 08c8 1B68     		ldr	r3, [r3]
 7631 08ca 9A42     		cmp	r2, r3
 7632 08cc 24DD     		ble	.L445
 711:.\Include/arm_math.h ****       }
 7633              		.loc 2 711 0
 7634 08ce F423     		mov	r3, #244
 7635 08d0 5B00     		lsl	r3, r3, #1
 7636 08d2 FB18     		add	r3, r7, r3
 7637 08d4 1B68     		ldr	r3, [r3]
 7638 08d6 F822     		mov	r2, #248
 7639 08d8 5200     		lsl	r2, r2, #1
 7640 08da BA18     		add	r2, r7, r2
 7641 08dc 1360     		str	r3, [r2]
 7642 08de 1CE0     		b	.L290
 7643              	.L288:
 716:.\Include/arm_math.h **** 
 7644              		.loc 2 716 0
 7645 08e0 F423     		mov	r3, #244
 7646 08e2 5B00     		lsl	r3, r3, #1
 7647 08e4 FB18     		add	r3, r7, r3
 7648 08e6 1B68     		ldr	r3, [r3]
 7649 08e8 5B42     		neg	r3, r3
 7650 08ea F022     		mov	r2, #240
 7651 08ec 5200     		lsl	r2, r2, #1
 7652 08ee BA18     		add	r2, r7, r2
 7653 08f0 1360     		str	r3, [r2]
 718:.\Include/arm_math.h ****       {
 7654              		.loc 2 718 0
 7655 08f2 F823     		mov	r3, #248
 7656 08f4 5B00     		lsl	r3, r3, #1
 7657 08f6 FB18     		add	r3, r7, r3
 7658 08f8 1A68     		ldr	r2, [r3]
 7659 08fa F023     		mov	r3, #240
 7660 08fc 5B00     		lsl	r3, r3, #1
 7661 08fe FB18     		add	r3, r7, r3
 7662 0900 1B68     		ldr	r3, [r3]
 7663 0902 9A42     		cmp	r2, r3
ARM GAS  C:\Users\fneves\AppData\Local\Temp\cc0ayw4Y.s 			page 184


 7664 0904 09DA     		bge	.L290
 720:.\Include/arm_math.h ****       }
 7665              		.loc 2 720 0
 7666 0906 F023     		mov	r3, #240
 7667 0908 5B00     		lsl	r3, r3, #1
 7668 090a FB18     		add	r3, r7, r3
 7669 090c 1B68     		ldr	r3, [r3]
 7670 090e F822     		mov	r2, #248
 7671 0910 5200     		lsl	r2, r2, #1
 7672 0912 BA18     		add	r2, r7, r2
 7673 0914 1360     		str	r3, [r2]
 7674 0916 00E0     		b	.L290
 7675              	.L445:
 711:.\Include/arm_math.h ****       }
 7676              		.loc 2 711 0
 7677 0918 C046     		mov	r8, r8
 7678              	.L290:
 7679              		.loc 2 723 0
 7680 091a F823     		mov	r3, #248
 7681 091c 5B00     		lsl	r3, r3, #1
 7682 091e FB18     		add	r3, r7, r3
 7683 0920 1A68     		ldr	r2, [r3]
 7684              	.LBE195:
 7685              	.LBE194:
 7686              		.loc 1 1605 0
 7687 0922 3E4B     		ldr	r3, .L473
 7688 0924 FB18     		add	r3, r7, r3
 7689 0926 1A80     		strh	r2, [r3]
1606:Source\TransformFunctions/arm_cfft_radix4_q15.c ****     R1 = __SSAT(R1 - T1, 16u);
 7690              		.loc 1 1606 0
 7691 0928 A023     		mov	r3, #160
 7692 092a 9B00     		lsl	r3, r3, #2
 7693 092c FB18     		add	r3, r7, r3
 7694 092e 0022     		mov	r2, #0
 7695 0930 9A5E     		ldrsh	r2, [r3, r2]
 7696 0932 A223     		mov	r3, #162
 7697 0934 9B00     		lsl	r3, r3, #2
 7698 0936 FB18     		add	r3, r7, r3
 7699 0938 0021     		mov	r1, #0
 7700 093a 5B5E     		ldrsh	r3, [r3, r1]
 7701 093c D31A     		sub	r3, r2, r3
 7702 093e EE22     		mov	r2, #238
 7703 0940 5200     		lsl	r2, r2, #1
 7704 0942 BA18     		add	r2, r7, r2
 7705 0944 1360     		str	r3, [r2]
 7706 0946 1023     		mov	r3, #16
 7707 0948 EC22     		mov	r2, #236
 7708 094a 5200     		lsl	r2, r2, #1
 7709 094c BA18     		add	r2, r7, r2
 7710 094e 1360     		str	r3, [r2]
 7711              	.LBB196:
 7712              	.LBB197:
 699:.\Include/arm_math.h ****     for (i = 0; i < (y - 1); i++)
 7713              		.loc 2 699 0
 7714 0950 0123     		mov	r3, #1
 7715 0952 EA22     		mov	r2, #234
 7716 0954 5200     		lsl	r2, r2, #1
ARM GAS  C:\Users\fneves\AppData\Local\Temp\cc0ayw4Y.s 			page 185


 7717 0956 BA18     		add	r2, r7, r2
 7718 0958 1360     		str	r3, [r2]
 700:.\Include/arm_math.h ****     {
 7719              		.loc 2 700 0
 7720 095a 0023     		mov	r3, #0
 7721 095c E822     		mov	r2, #232
 7722 095e 5200     		lsl	r2, r2, #1
 7723 0960 BA18     		add	r2, r7, r2
 7724 0962 1360     		str	r3, [r2]
 7725 0964 11E0     		b	.L292
 7726              	.L293:
 702:.\Include/arm_math.h ****     }
 7727              		.loc 2 702 0
 7728 0966 EA23     		mov	r3, #234
 7729 0968 5B00     		lsl	r3, r3, #1
 7730 096a FB18     		add	r3, r7, r3
 7731 096c 1B68     		ldr	r3, [r3]
 7732 096e 5B00     		lsl	r3, r3, #1
 7733 0970 EA22     		mov	r2, #234
 7734 0972 5200     		lsl	r2, r2, #1
 7735 0974 BA18     		add	r2, r7, r2
 7736 0976 1360     		str	r3, [r2]
 700:.\Include/arm_math.h ****     {
 7737              		.loc 2 700 0
 7738 0978 E823     		mov	r3, #232
 7739 097a 5B00     		lsl	r3, r3, #1
 7740 097c FB18     		add	r3, r7, r3
 7741 097e 1B68     		ldr	r3, [r3]
 7742 0980 0133     		add	r3, r3, #1
 7743 0982 E822     		mov	r2, #232
 7744 0984 5200     		lsl	r2, r2, #1
 7745 0986 BA18     		add	r2, r7, r2
 7746 0988 1360     		str	r3, [r2]
 7747              	.L292:
 7748 098a EC23     		mov	r3, #236
 7749 098c 5B00     		lsl	r3, r3, #1
 7750 098e FB18     		add	r3, r7, r3
 7751 0990 1B68     		ldr	r3, [r3]
 7752 0992 013B     		sub	r3, r3, #1
 7753 0994 E822     		mov	r2, #232
 7754 0996 5200     		lsl	r2, r2, #1
 7755 0998 BA18     		add	r2, r7, r2
 7756 099a 1268     		ldr	r2, [r2]
 7757 099c 9A42     		cmp	r2, r3
 7758 099e E2D3     		bcc	.L293
 705:.\Include/arm_math.h ****     {
 7759              		.loc 2 705 0
 7760 09a0 EE23     		mov	r3, #238
 7761 09a2 5B00     		lsl	r3, r3, #1
 7762 09a4 FB18     		add	r3, r7, r3
 7763 09a6 1B68     		ldr	r3, [r3]
 7764 09a8 002B     		cmp	r3, #0
 7765 09aa 1BDD     		ble	.L294
 707:.\Include/arm_math.h **** 
 7766              		.loc 2 707 0
 7767 09ac EA23     		mov	r3, #234
 7768 09ae 5B00     		lsl	r3, r3, #1
ARM GAS  C:\Users\fneves\AppData\Local\Temp\cc0ayw4Y.s 			page 186


 7769 09b0 FB18     		add	r3, r7, r3
 7770 09b2 1B68     		ldr	r3, [r3]
 7771 09b4 013B     		sub	r3, r3, #1
 7772 09b6 EA22     		mov	r2, #234
 7773 09b8 5200     		lsl	r2, r2, #1
 7774 09ba BA18     		add	r2, r7, r2
 7775 09bc 1360     		str	r3, [r2]
 709:.\Include/arm_math.h ****       {
 7776              		.loc 2 709 0
 7777 09be EE23     		mov	r3, #238
 7778 09c0 5B00     		lsl	r3, r3, #1
 7779 09c2 FB18     		add	r3, r7, r3
 7780 09c4 1A68     		ldr	r2, [r3]
 7781 09c6 EA23     		mov	r3, #234
 7782 09c8 5B00     		lsl	r3, r3, #1
 7783 09ca FB18     		add	r3, r7, r3
 7784 09cc 1B68     		ldr	r3, [r3]
 7785 09ce 9A42     		cmp	r2, r3
 7786 09d0 28DD     		ble	.L446
 711:.\Include/arm_math.h ****       }
 7787              		.loc 2 711 0
 7788 09d2 EA23     		mov	r3, #234
 7789 09d4 5B00     		lsl	r3, r3, #1
 7790 09d6 FB18     		add	r3, r7, r3
 7791 09d8 1B68     		ldr	r3, [r3]
 7792 09da EE22     		mov	r2, #238
 7793 09dc 5200     		lsl	r2, r2, #1
 7794 09de BA18     		add	r2, r7, r2
 7795 09e0 1360     		str	r3, [r2]
 7796 09e2 20E0     		b	.L296
 7797              	.L294:
 716:.\Include/arm_math.h **** 
 7798              		.loc 2 716 0
 7799 09e4 EA23     		mov	r3, #234
 7800 09e6 5B00     		lsl	r3, r3, #1
 7801 09e8 FB18     		add	r3, r7, r3
 7802 09ea 1B68     		ldr	r3, [r3]
 7803 09ec 5B42     		neg	r3, r3
 7804 09ee E622     		mov	r2, #230
 7805 09f0 5200     		lsl	r2, r2, #1
 7806 09f2 BA18     		add	r2, r7, r2
 7807 09f4 1360     		str	r3, [r2]
 718:.\Include/arm_math.h ****       {
 7808              		.loc 2 718 0
 7809 09f6 EE23     		mov	r3, #238
 7810 09f8 5B00     		lsl	r3, r3, #1
 7811 09fa FB18     		add	r3, r7, r3
 7812 09fc 1A68     		ldr	r2, [r3]
 7813 09fe E623     		mov	r3, #230
 7814 0a00 5B00     		lsl	r3, r3, #1
 7815 0a02 FB18     		add	r3, r7, r3
 7816 0a04 1B68     		ldr	r3, [r3]
 7817 0a06 9A42     		cmp	r2, r3
 7818 0a08 0DDA     		bge	.L296
 720:.\Include/arm_math.h ****       }
 7819              		.loc 2 720 0
 7820 0a0a E623     		mov	r3, #230
ARM GAS  C:\Users\fneves\AppData\Local\Temp\cc0ayw4Y.s 			page 187


 7821 0a0c 5B00     		lsl	r3, r3, #1
 7822 0a0e FB18     		add	r3, r7, r3
 7823 0a10 1B68     		ldr	r3, [r3]
 7824 0a12 EE22     		mov	r2, #238
 7825 0a14 5200     		lsl	r2, r2, #1
 7826 0a16 BA18     		add	r2, r7, r2
 7827 0a18 1360     		str	r3, [r2]
 7828 0a1a 04E0     		b	.L296
 7829              	.L474:
 7830              		.align	2
 7831              	.L473:
 7832 0a1c 82020000 		.word	642
 7833 0a20 8A020000 		.word	650
 7834              	.L446:
 711:.\Include/arm_math.h ****       }
 7835              		.loc 2 711 0
 7836 0a24 C046     		mov	r8, r8
 7837              	.L296:
 7838              		.loc 2 723 0
 7839 0a26 EE23     		mov	r3, #238
 7840 0a28 5B00     		lsl	r3, r3, #1
 7841 0a2a FB18     		add	r3, r7, r3
 7842 0a2c 1A68     		ldr	r2, [r3]
 7843              	.LBE197:
 7844              	.LBE196:
 7845              		.loc 1 1606 0
 7846 0a2e A023     		mov	r3, #160
 7847 0a30 9B00     		lsl	r3, r3, #2
 7848 0a32 FB18     		add	r3, r7, r3
 7849 0a34 1A80     		strh	r2, [r3]
1607:Source\TransformFunctions/arm_cfft_radix4_q15.c ****     /* co2 & si2 are read from Coefficient pointer */
1608:Source\TransformFunctions/arm_cfft_radix4_q15.c ****     Co2 = pCoef16[2u * ic * 2u];
 7850              		.loc 1 1608 0
 7851 0a36 AA23     		mov	r3, #170
 7852 0a38 9B00     		lsl	r3, r3, #2
 7853 0a3a FB18     		add	r3, r7, r3
 7854 0a3c 1B68     		ldr	r3, [r3]
 7855 0a3e DB00     		lsl	r3, r3, #3
 7856 0a40 7A68     		ldr	r2, [r7, #4]
 7857 0a42 D218     		add	r2, r2, r3
 7858 0a44 DA4B     		ldr	r3, .L475
 7859 0a46 FB18     		add	r3, r7, r3
 7860 0a48 1288     		ldrh	r2, [r2]
 7861 0a4a 1A80     		strh	r2, [r3]
1609:Source\TransformFunctions/arm_cfft_radix4_q15.c ****     Si2 = pCoef16[(2u * ic * 2u) + 1u];
 7862              		.loc 1 1609 0
 7863 0a4c AA23     		mov	r3, #170
 7864 0a4e 9B00     		lsl	r3, r3, #2
 7865 0a50 FB18     		add	r3, r7, r3
 7866 0a52 1B68     		ldr	r3, [r3]
 7867 0a54 DB00     		lsl	r3, r3, #3
 7868 0a56 0233     		add	r3, r3, #2
 7869 0a58 7A68     		ldr	r2, [r7, #4]
 7870 0a5a D218     		add	r2, r2, r3
 7871 0a5c 9E23     		mov	r3, #158
 7872 0a5e 9B00     		lsl	r3, r3, #2
 7873 0a60 FB18     		add	r3, r7, r3
ARM GAS  C:\Users\fneves\AppData\Local\Temp\cc0ayw4Y.s 			page 188


 7874 0a62 1288     		ldrh	r2, [r2]
 7875 0a64 1A80     		strh	r2, [r3]
1610:Source\TransformFunctions/arm_cfft_radix4_q15.c ****     /* xc' = (xa-xb+xc-xd)* co2 - (ya-yb+yc-yd)* (si2) */
1611:Source\TransformFunctions/arm_cfft_radix4_q15.c ****     out1 = (q15_t) ((Co2 * R0 - Si2 * R1) >> 16u);
 7876              		.loc 1 1611 0
 7877 0a66 D24B     		ldr	r3, .L475
 7878 0a68 FB18     		add	r3, r7, r3
 7879 0a6a 0022     		mov	r2, #0
 7880 0a6c 9B5E     		ldrsh	r3, [r3, r2]
 7881 0a6e D14A     		ldr	r2, .L475+4
 7882 0a70 BA18     		add	r2, r7, r2
 7883 0a72 0021     		mov	r1, #0
 7884 0a74 525E     		ldrsh	r2, [r2, r1]
 7885 0a76 5A43     		mul	r2, r3
 7886 0a78 9E23     		mov	r3, #158
 7887 0a7a 9B00     		lsl	r3, r3, #2
 7888 0a7c FB18     		add	r3, r7, r3
 7889 0a7e 0021     		mov	r1, #0
 7890 0a80 5B5E     		ldrsh	r3, [r3, r1]
 7891 0a82 A021     		mov	r1, #160
 7892 0a84 8900     		lsl	r1, r1, #2
 7893 0a86 7918     		add	r1, r7, r1
 7894 0a88 0020     		mov	r0, #0
 7895 0a8a 095E     		ldrsh	r1, [r1, r0]
 7896 0a8c 4B43     		mul	r3, r1
 7897 0a8e D31A     		sub	r3, r2, r3
 7898 0a90 1A14     		asr	r2, r3, #16
 7899 0a92 C94B     		ldr	r3, .L475+8
 7900 0a94 FB18     		add	r3, r7, r3
 7901 0a96 1A80     		strh	r2, [r3]
1612:Source\TransformFunctions/arm_cfft_radix4_q15.c ****     /* yc' = (ya-yb+yc-yd)* co2 + (xa-xb+xc-xd)* (si2) */
1613:Source\TransformFunctions/arm_cfft_radix4_q15.c ****     out2 = (q15_t) ((Si2 * R0 + Co2 * R1) >> 16u);
 7902              		.loc 1 1613 0
 7903 0a98 9E23     		mov	r3, #158
 7904 0a9a 9B00     		lsl	r3, r3, #2
 7905 0a9c FB18     		add	r3, r7, r3
 7906 0a9e 0022     		mov	r2, #0
 7907 0aa0 9B5E     		ldrsh	r3, [r3, r2]
 7908 0aa2 C44A     		ldr	r2, .L475+4
 7909 0aa4 BA18     		add	r2, r7, r2
 7910 0aa6 0021     		mov	r1, #0
 7911 0aa8 525E     		ldrsh	r2, [r2, r1]
 7912 0aaa 5A43     		mul	r2, r3
 7913 0aac C04B     		ldr	r3, .L475
 7914 0aae FB18     		add	r3, r7, r3
 7915 0ab0 0021     		mov	r1, #0
 7916 0ab2 5B5E     		ldrsh	r3, [r3, r1]
 7917 0ab4 A021     		mov	r1, #160
 7918 0ab6 8900     		lsl	r1, r1, #2
 7919 0ab8 7918     		add	r1, r7, r1
 7920 0aba 0020     		mov	r0, #0
 7921 0abc 095E     		ldrsh	r1, [r1, r0]
 7922 0abe 4B43     		mul	r3, r1
 7923 0ac0 D318     		add	r3, r2, r3
 7924 0ac2 1A14     		asr	r2, r3, #16
 7925 0ac4 9D23     		mov	r3, #157
 7926 0ac6 9B00     		lsl	r3, r3, #2
ARM GAS  C:\Users\fneves\AppData\Local\Temp\cc0ayw4Y.s 			page 189


 7927 0ac8 FB18     		add	r3, r7, r3
 7928 0aca 1A80     		strh	r2, [r3]
1614:Source\TransformFunctions/arm_cfft_radix4_q15.c **** 
1615:Source\TransformFunctions/arm_cfft_radix4_q15.c ****     /*  Reading i0+fftLen/4 */
1616:Source\TransformFunctions/arm_cfft_radix4_q15.c ****     /* input is down scale by 4 to avoid overflow */
1617:Source\TransformFunctions/arm_cfft_radix4_q15.c ****     /* T0 = yb, T1 = xb */
1618:Source\TransformFunctions/arm_cfft_radix4_q15.c ****     T0 = pSrc16[i1 * 2u] >> 2u;
 7929              		.loc 1 1618 0
 7930 0acc A523     		mov	r3, #165
 7931 0ace 9B00     		lsl	r3, r3, #2
 7932 0ad0 FB18     		add	r3, r7, r3
 7933 0ad2 1B68     		ldr	r3, [r3]
 7934 0ad4 9B00     		lsl	r3, r3, #2
 7935 0ad6 FA68     		ldr	r2, [r7, #12]
 7936 0ad8 D318     		add	r3, r2, r3
 7937 0ada 1A88     		ldrh	r2, [r3]
 7938 0adc B74B     		ldr	r3, .L475+12
 7939 0ade FB18     		add	r3, r7, r3
 7940 0ae0 12B2     		sxth	r2, r2
 7941 0ae2 9210     		asr	r2, r2, #2
 7942 0ae4 1A80     		strh	r2, [r3]
1619:Source\TransformFunctions/arm_cfft_radix4_q15.c ****     T1 = pSrc16[(i1 * 2u) + 1u] >> 2u;
 7943              		.loc 1 1619 0
 7944 0ae6 A523     		mov	r3, #165
 7945 0ae8 9B00     		lsl	r3, r3, #2
 7946 0aea FB18     		add	r3, r7, r3
 7947 0aec 1B68     		ldr	r3, [r3]
 7948 0aee 9B00     		lsl	r3, r3, #2
 7949 0af0 0233     		add	r3, r3, #2
 7950 0af2 FA68     		ldr	r2, [r7, #12]
 7951 0af4 D318     		add	r3, r2, r3
 7952 0af6 1A88     		ldrh	r2, [r3]
 7953 0af8 A223     		mov	r3, #162
 7954 0afa 9B00     		lsl	r3, r3, #2
 7955 0afc FB18     		add	r3, r7, r3
 7956 0afe 12B2     		sxth	r2, r2
 7957 0b00 9210     		asr	r2, r2, #2
 7958 0b02 1A80     		strh	r2, [r3]
1620:Source\TransformFunctions/arm_cfft_radix4_q15.c **** 
1621:Source\TransformFunctions/arm_cfft_radix4_q15.c ****     /* writing the butterfly processed i0 + fftLen/4 sample */
1622:Source\TransformFunctions/arm_cfft_radix4_q15.c ****     /* writing output(xc', yc') in little endian format */
1623:Source\TransformFunctions/arm_cfft_radix4_q15.c ****     pSrc16[i1 * 2u] = out1;
 7959              		.loc 1 1623 0
 7960 0b04 A523     		mov	r3, #165
 7961 0b06 9B00     		lsl	r3, r3, #2
 7962 0b08 FB18     		add	r3, r7, r3
 7963 0b0a 1B68     		ldr	r3, [r3]
 7964 0b0c 9B00     		lsl	r3, r3, #2
 7965 0b0e FA68     		ldr	r2, [r7, #12]
 7966 0b10 D318     		add	r3, r2, r3
 7967 0b12 A94A     		ldr	r2, .L475+8
 7968 0b14 BA18     		add	r2, r7, r2
 7969 0b16 1288     		ldrh	r2, [r2]
 7970 0b18 1A80     		strh	r2, [r3]
1624:Source\TransformFunctions/arm_cfft_radix4_q15.c ****     pSrc16[(i1 * 2u) + 1u] = out2;
 7971              		.loc 1 1624 0
 7972 0b1a A523     		mov	r3, #165
ARM GAS  C:\Users\fneves\AppData\Local\Temp\cc0ayw4Y.s 			page 190


 7973 0b1c 9B00     		lsl	r3, r3, #2
 7974 0b1e FB18     		add	r3, r7, r3
 7975 0b20 1B68     		ldr	r3, [r3]
 7976 0b22 9B00     		lsl	r3, r3, #2
 7977 0b24 0233     		add	r3, r3, #2
 7978 0b26 FA68     		ldr	r2, [r7, #12]
 7979 0b28 D318     		add	r3, r2, r3
 7980 0b2a 9D22     		mov	r2, #157
 7981 0b2c 9200     		lsl	r2, r2, #2
 7982 0b2e BA18     		add	r2, r7, r2
 7983 0b30 1288     		ldrh	r2, [r2]
 7984 0b32 1A80     		strh	r2, [r3]
1625:Source\TransformFunctions/arm_cfft_radix4_q15.c **** 
1626:Source\TransformFunctions/arm_cfft_radix4_q15.c ****     /*  Butterfly calculations */
1627:Source\TransformFunctions/arm_cfft_radix4_q15.c ****     /* input is down scale by 4 to avoid overflow */
1628:Source\TransformFunctions/arm_cfft_radix4_q15.c ****     /* U0 = yd, U1 = xd) */
1629:Source\TransformFunctions/arm_cfft_radix4_q15.c ****     U0 = pSrc16[i3 * 2u] >> 2u;
 7985              		.loc 1 1629 0
 7986 0b34 A323     		mov	r3, #163
 7987 0b36 9B00     		lsl	r3, r3, #2
 7988 0b38 FB18     		add	r3, r7, r3
 7989 0b3a 1B68     		ldr	r3, [r3]
 7990 0b3c 9B00     		lsl	r3, r3, #2
 7991 0b3e FA68     		ldr	r2, [r7, #12]
 7992 0b40 D318     		add	r3, r2, r3
 7993 0b42 1A88     		ldrh	r2, [r3]
 7994 0b44 9E4B     		ldr	r3, .L475+16
 7995 0b46 FB18     		add	r3, r7, r3
 7996 0b48 12B2     		sxth	r2, r2
 7997 0b4a 9210     		asr	r2, r2, #2
 7998 0b4c 1A80     		strh	r2, [r3]
1630:Source\TransformFunctions/arm_cfft_radix4_q15.c ****     U1 = pSrc16[(i3 * 2u) + 1u] >> 2u;
 7999              		.loc 1 1630 0
 8000 0b4e A323     		mov	r3, #163
 8001 0b50 9B00     		lsl	r3, r3, #2
 8002 0b52 FB18     		add	r3, r7, r3
 8003 0b54 1B68     		ldr	r3, [r3]
 8004 0b56 9B00     		lsl	r3, r3, #2
 8005 0b58 0233     		add	r3, r3, #2
 8006 0b5a FA68     		ldr	r2, [r7, #12]
 8007 0b5c D318     		add	r3, r2, r3
 8008 0b5e 1A88     		ldrh	r2, [r3]
 8009 0b60 9F23     		mov	r3, #159
 8010 0b62 9B00     		lsl	r3, r3, #2
 8011 0b64 FB18     		add	r3, r7, r3
 8012 0b66 12B2     		sxth	r2, r2
 8013 0b68 9210     		asr	r2, r2, #2
 8014 0b6a 1A80     		strh	r2, [r3]
1631:Source\TransformFunctions/arm_cfft_radix4_q15.c **** 
1632:Source\TransformFunctions/arm_cfft_radix4_q15.c ****     /* T0 = yb-yd, T1 = xb-xd) */
1633:Source\TransformFunctions/arm_cfft_radix4_q15.c ****     T0 = __SSAT(T0 - U0, 16u);
 8015              		.loc 1 1633 0
 8016 0b6c 934B     		ldr	r3, .L475+12
 8017 0b6e FB18     		add	r3, r7, r3
 8018 0b70 0022     		mov	r2, #0
 8019 0b72 9A5E     		ldrsh	r2, [r3, r2]
 8020 0b74 924B     		ldr	r3, .L475+16
ARM GAS  C:\Users\fneves\AppData\Local\Temp\cc0ayw4Y.s 			page 191


 8021 0b76 FB18     		add	r3, r7, r3
 8022 0b78 0021     		mov	r1, #0
 8023 0b7a 5B5E     		ldrsh	r3, [r3, r1]
 8024 0b7c D31A     		sub	r3, r2, r3
 8025 0b7e E422     		mov	r2, #228
 8026 0b80 5200     		lsl	r2, r2, #1
 8027 0b82 BA18     		add	r2, r7, r2
 8028 0b84 1360     		str	r3, [r2]
 8029 0b86 1023     		mov	r3, #16
 8030 0b88 E222     		mov	r2, #226
 8031 0b8a 5200     		lsl	r2, r2, #1
 8032 0b8c BA18     		add	r2, r7, r2
 8033 0b8e 1360     		str	r3, [r2]
 8034              	.LBB198:
 8035              	.LBB199:
 699:.\Include/arm_math.h ****     for (i = 0; i < (y - 1); i++)
 8036              		.loc 2 699 0
 8037 0b90 0123     		mov	r3, #1
 8038 0b92 E022     		mov	r2, #224
 8039 0b94 5200     		lsl	r2, r2, #1
 8040 0b96 BA18     		add	r2, r7, r2
 8041 0b98 1360     		str	r3, [r2]
 700:.\Include/arm_math.h ****     {
 8042              		.loc 2 700 0
 8043 0b9a 0023     		mov	r3, #0
 8044 0b9c DE22     		mov	r2, #222
 8045 0b9e 5200     		lsl	r2, r2, #1
 8046 0ba0 BA18     		add	r2, r7, r2
 8047 0ba2 1360     		str	r3, [r2]
 8048 0ba4 11E0     		b	.L298
 8049              	.L299:
 702:.\Include/arm_math.h ****     }
 8050              		.loc 2 702 0
 8051 0ba6 E023     		mov	r3, #224
 8052 0ba8 5B00     		lsl	r3, r3, #1
 8053 0baa FB18     		add	r3, r7, r3
 8054 0bac 1B68     		ldr	r3, [r3]
 8055 0bae 5B00     		lsl	r3, r3, #1
 8056 0bb0 E022     		mov	r2, #224
 8057 0bb2 5200     		lsl	r2, r2, #1
 8058 0bb4 BA18     		add	r2, r7, r2
 8059 0bb6 1360     		str	r3, [r2]
 700:.\Include/arm_math.h ****     {
 8060              		.loc 2 700 0
 8061 0bb8 DE23     		mov	r3, #222
 8062 0bba 5B00     		lsl	r3, r3, #1
 8063 0bbc FB18     		add	r3, r7, r3
 8064 0bbe 1B68     		ldr	r3, [r3]
 8065 0bc0 0133     		add	r3, r3, #1
 8066 0bc2 DE22     		mov	r2, #222
 8067 0bc4 5200     		lsl	r2, r2, #1
 8068 0bc6 BA18     		add	r2, r7, r2
 8069 0bc8 1360     		str	r3, [r2]
 8070              	.L298:
 8071 0bca E223     		mov	r3, #226
 8072 0bcc 5B00     		lsl	r3, r3, #1
 8073 0bce FB18     		add	r3, r7, r3
ARM GAS  C:\Users\fneves\AppData\Local\Temp\cc0ayw4Y.s 			page 192


 8074 0bd0 1B68     		ldr	r3, [r3]
 8075 0bd2 013B     		sub	r3, r3, #1
 8076 0bd4 DE22     		mov	r2, #222
 8077 0bd6 5200     		lsl	r2, r2, #1
 8078 0bd8 BA18     		add	r2, r7, r2
 8079 0bda 1268     		ldr	r2, [r2]
 8080 0bdc 9A42     		cmp	r2, r3
 8081 0bde E2D3     		bcc	.L299
 705:.\Include/arm_math.h ****     {
 8082              		.loc 2 705 0
 8083 0be0 E423     		mov	r3, #228
 8084 0be2 5B00     		lsl	r3, r3, #1
 8085 0be4 FB18     		add	r3, r7, r3
 8086 0be6 1B68     		ldr	r3, [r3]
 8087 0be8 002B     		cmp	r3, #0
 8088 0bea 1BDD     		ble	.L300
 707:.\Include/arm_math.h **** 
 8089              		.loc 2 707 0
 8090 0bec E023     		mov	r3, #224
 8091 0bee 5B00     		lsl	r3, r3, #1
 8092 0bf0 FB18     		add	r3, r7, r3
 8093 0bf2 1B68     		ldr	r3, [r3]
 8094 0bf4 013B     		sub	r3, r3, #1
 8095 0bf6 E022     		mov	r2, #224
 8096 0bf8 5200     		lsl	r2, r2, #1
 8097 0bfa BA18     		add	r2, r7, r2
 8098 0bfc 1360     		str	r3, [r2]
 709:.\Include/arm_math.h ****       {
 8099              		.loc 2 709 0
 8100 0bfe E423     		mov	r3, #228
 8101 0c00 5B00     		lsl	r3, r3, #1
 8102 0c02 FB18     		add	r3, r7, r3
 8103 0c04 1A68     		ldr	r2, [r3]
 8104 0c06 E023     		mov	r3, #224
 8105 0c08 5B00     		lsl	r3, r3, #1
 8106 0c0a FB18     		add	r3, r7, r3
 8107 0c0c 1B68     		ldr	r3, [r3]
 8108 0c0e 9A42     		cmp	r2, r3
 8109 0c10 24DD     		ble	.L447
 711:.\Include/arm_math.h ****       }
 8110              		.loc 2 711 0
 8111 0c12 E023     		mov	r3, #224
 8112 0c14 5B00     		lsl	r3, r3, #1
 8113 0c16 FB18     		add	r3, r7, r3
 8114 0c18 1B68     		ldr	r3, [r3]
 8115 0c1a E422     		mov	r2, #228
 8116 0c1c 5200     		lsl	r2, r2, #1
 8117 0c1e BA18     		add	r2, r7, r2
 8118 0c20 1360     		str	r3, [r2]
 8119 0c22 1CE0     		b	.L302
 8120              	.L300:
 716:.\Include/arm_math.h **** 
 8121              		.loc 2 716 0
 8122 0c24 E023     		mov	r3, #224
 8123 0c26 5B00     		lsl	r3, r3, #1
 8124 0c28 FB18     		add	r3, r7, r3
 8125 0c2a 1B68     		ldr	r3, [r3]
ARM GAS  C:\Users\fneves\AppData\Local\Temp\cc0ayw4Y.s 			page 193


 8126 0c2c 5B42     		neg	r3, r3
 8127 0c2e DC22     		mov	r2, #220
 8128 0c30 5200     		lsl	r2, r2, #1
 8129 0c32 BA18     		add	r2, r7, r2
 8130 0c34 1360     		str	r3, [r2]
 718:.\Include/arm_math.h ****       {
 8131              		.loc 2 718 0
 8132 0c36 E423     		mov	r3, #228
 8133 0c38 5B00     		lsl	r3, r3, #1
 8134 0c3a FB18     		add	r3, r7, r3
 8135 0c3c 1A68     		ldr	r2, [r3]
 8136 0c3e DC23     		mov	r3, #220
 8137 0c40 5B00     		lsl	r3, r3, #1
 8138 0c42 FB18     		add	r3, r7, r3
 8139 0c44 1B68     		ldr	r3, [r3]
 8140 0c46 9A42     		cmp	r2, r3
 8141 0c48 09DA     		bge	.L302
 720:.\Include/arm_math.h ****       }
 8142              		.loc 2 720 0
 8143 0c4a DC23     		mov	r3, #220
 8144 0c4c 5B00     		lsl	r3, r3, #1
 8145 0c4e FB18     		add	r3, r7, r3
 8146 0c50 1B68     		ldr	r3, [r3]
 8147 0c52 E422     		mov	r2, #228
 8148 0c54 5200     		lsl	r2, r2, #1
 8149 0c56 BA18     		add	r2, r7, r2
 8150 0c58 1360     		str	r3, [r2]
 8151 0c5a 00E0     		b	.L302
 8152              	.L447:
 711:.\Include/arm_math.h ****       }
 8153              		.loc 2 711 0
 8154 0c5c C046     		mov	r8, r8
 8155              	.L302:
 8156              		.loc 2 723 0
 8157 0c5e E423     		mov	r3, #228
 8158 0c60 5B00     		lsl	r3, r3, #1
 8159 0c62 FB18     		add	r3, r7, r3
 8160 0c64 1A68     		ldr	r2, [r3]
 8161              	.LBE199:
 8162              	.LBE198:
 8163              		.loc 1 1633 0
 8164 0c66 554B     		ldr	r3, .L475+12
 8165 0c68 FB18     		add	r3, r7, r3
 8166 0c6a 1A80     		strh	r2, [r3]
1634:Source\TransformFunctions/arm_cfft_radix4_q15.c ****     T1 = __SSAT(T1 - U1, 16u);
 8167              		.loc 1 1634 0
 8168 0c6c A223     		mov	r3, #162
 8169 0c6e 9B00     		lsl	r3, r3, #2
 8170 0c70 FB18     		add	r3, r7, r3
 8171 0c72 0022     		mov	r2, #0
 8172 0c74 9A5E     		ldrsh	r2, [r3, r2]
 8173 0c76 9F23     		mov	r3, #159
 8174 0c78 9B00     		lsl	r3, r3, #2
 8175 0c7a FB18     		add	r3, r7, r3
 8176 0c7c 0021     		mov	r1, #0
 8177 0c7e 5B5E     		ldrsh	r3, [r3, r1]
 8178 0c80 D31A     		sub	r3, r2, r3
ARM GAS  C:\Users\fneves\AppData\Local\Temp\cc0ayw4Y.s 			page 194


 8179 0c82 DA22     		mov	r2, #218
 8180 0c84 5200     		lsl	r2, r2, #1
 8181 0c86 BA18     		add	r2, r7, r2
 8182 0c88 1360     		str	r3, [r2]
 8183 0c8a 1023     		mov	r3, #16
 8184 0c8c D822     		mov	r2, #216
 8185 0c8e 5200     		lsl	r2, r2, #1
 8186 0c90 BA18     		add	r2, r7, r2
 8187 0c92 1360     		str	r3, [r2]
 8188              	.LBB200:
 8189              	.LBB201:
 699:.\Include/arm_math.h ****     for (i = 0; i < (y - 1); i++)
 8190              		.loc 2 699 0
 8191 0c94 0123     		mov	r3, #1
 8192 0c96 D622     		mov	r2, #214
 8193 0c98 5200     		lsl	r2, r2, #1
 8194 0c9a BA18     		add	r2, r7, r2
 8195 0c9c 1360     		str	r3, [r2]
 700:.\Include/arm_math.h ****     {
 8196              		.loc 2 700 0
 8197 0c9e 0023     		mov	r3, #0
 8198 0ca0 D422     		mov	r2, #212
 8199 0ca2 5200     		lsl	r2, r2, #1
 8200 0ca4 BA18     		add	r2, r7, r2
 8201 0ca6 1360     		str	r3, [r2]
 8202 0ca8 11E0     		b	.L304
 8203              	.L305:
 702:.\Include/arm_math.h ****     }
 8204              		.loc 2 702 0
 8205 0caa D623     		mov	r3, #214
 8206 0cac 5B00     		lsl	r3, r3, #1
 8207 0cae FB18     		add	r3, r7, r3
 8208 0cb0 1B68     		ldr	r3, [r3]
 8209 0cb2 5B00     		lsl	r3, r3, #1
 8210 0cb4 D622     		mov	r2, #214
 8211 0cb6 5200     		lsl	r2, r2, #1
 8212 0cb8 BA18     		add	r2, r7, r2
 8213 0cba 1360     		str	r3, [r2]
 700:.\Include/arm_math.h ****     {
 8214              		.loc 2 700 0
 8215 0cbc D423     		mov	r3, #212
 8216 0cbe 5B00     		lsl	r3, r3, #1
 8217 0cc0 FB18     		add	r3, r7, r3
 8218 0cc2 1B68     		ldr	r3, [r3]
 8219 0cc4 0133     		add	r3, r3, #1
 8220 0cc6 D422     		mov	r2, #212
 8221 0cc8 5200     		lsl	r2, r2, #1
 8222 0cca BA18     		add	r2, r7, r2
 8223 0ccc 1360     		str	r3, [r2]
 8224              	.L304:
 8225 0cce D823     		mov	r3, #216
 8226 0cd0 5B00     		lsl	r3, r3, #1
 8227 0cd2 FB18     		add	r3, r7, r3
 8228 0cd4 1B68     		ldr	r3, [r3]
 8229 0cd6 013B     		sub	r3, r3, #1
 8230 0cd8 D422     		mov	r2, #212
 8231 0cda 5200     		lsl	r2, r2, #1
ARM GAS  C:\Users\fneves\AppData\Local\Temp\cc0ayw4Y.s 			page 195


 8232 0cdc BA18     		add	r2, r7, r2
 8233 0cde 1268     		ldr	r2, [r2]
 8234 0ce0 9A42     		cmp	r2, r3
 8235 0ce2 E2D3     		bcc	.L305
 705:.\Include/arm_math.h ****     {
 8236              		.loc 2 705 0
 8237 0ce4 DA23     		mov	r3, #218
 8238 0ce6 5B00     		lsl	r3, r3, #1
 8239 0ce8 FB18     		add	r3, r7, r3
 8240 0cea 1B68     		ldr	r3, [r3]
 8241 0cec 002B     		cmp	r3, #0
 8242 0cee 1BDD     		ble	.L306
 707:.\Include/arm_math.h **** 
 8243              		.loc 2 707 0
 8244 0cf0 D623     		mov	r3, #214
 8245 0cf2 5B00     		lsl	r3, r3, #1
 8246 0cf4 FB18     		add	r3, r7, r3
 8247 0cf6 1B68     		ldr	r3, [r3]
 8248 0cf8 013B     		sub	r3, r3, #1
 8249 0cfa D622     		mov	r2, #214
 8250 0cfc 5200     		lsl	r2, r2, #1
 8251 0cfe BA18     		add	r2, r7, r2
 8252 0d00 1360     		str	r3, [r2]
 709:.\Include/arm_math.h ****       {
 8253              		.loc 2 709 0
 8254 0d02 DA23     		mov	r3, #218
 8255 0d04 5B00     		lsl	r3, r3, #1
 8256 0d06 FB18     		add	r3, r7, r3
 8257 0d08 1A68     		ldr	r2, [r3]
 8258 0d0a D623     		mov	r3, #214
 8259 0d0c 5B00     		lsl	r3, r3, #1
 8260 0d0e FB18     		add	r3, r7, r3
 8261 0d10 1B68     		ldr	r3, [r3]
 8262 0d12 9A42     		cmp	r2, r3
 8263 0d14 24DD     		ble	.L448
 711:.\Include/arm_math.h ****       }
 8264              		.loc 2 711 0
 8265 0d16 D623     		mov	r3, #214
 8266 0d18 5B00     		lsl	r3, r3, #1
 8267 0d1a FB18     		add	r3, r7, r3
 8268 0d1c 1B68     		ldr	r3, [r3]
 8269 0d1e DA22     		mov	r2, #218
 8270 0d20 5200     		lsl	r2, r2, #1
 8271 0d22 BA18     		add	r2, r7, r2
 8272 0d24 1360     		str	r3, [r2]
 8273 0d26 1CE0     		b	.L308
 8274              	.L306:
 716:.\Include/arm_math.h **** 
 8275              		.loc 2 716 0
 8276 0d28 D623     		mov	r3, #214
 8277 0d2a 5B00     		lsl	r3, r3, #1
 8278 0d2c FB18     		add	r3, r7, r3
 8279 0d2e 1B68     		ldr	r3, [r3]
 8280 0d30 5B42     		neg	r3, r3
 8281 0d32 D222     		mov	r2, #210
 8282 0d34 5200     		lsl	r2, r2, #1
 8283 0d36 BA18     		add	r2, r7, r2
ARM GAS  C:\Users\fneves\AppData\Local\Temp\cc0ayw4Y.s 			page 196


 8284 0d38 1360     		str	r3, [r2]
 718:.\Include/arm_math.h ****       {
 8285              		.loc 2 718 0
 8286 0d3a DA23     		mov	r3, #218
 8287 0d3c 5B00     		lsl	r3, r3, #1
 8288 0d3e FB18     		add	r3, r7, r3
 8289 0d40 1A68     		ldr	r2, [r3]
 8290 0d42 D223     		mov	r3, #210
 8291 0d44 5B00     		lsl	r3, r3, #1
 8292 0d46 FB18     		add	r3, r7, r3
 8293 0d48 1B68     		ldr	r3, [r3]
 8294 0d4a 9A42     		cmp	r2, r3
 8295 0d4c 09DA     		bge	.L308
 720:.\Include/arm_math.h ****       }
 8296              		.loc 2 720 0
 8297 0d4e D223     		mov	r3, #210
 8298 0d50 5B00     		lsl	r3, r3, #1
 8299 0d52 FB18     		add	r3, r7, r3
 8300 0d54 1B68     		ldr	r3, [r3]
 8301 0d56 DA22     		mov	r2, #218
 8302 0d58 5200     		lsl	r2, r2, #1
 8303 0d5a BA18     		add	r2, r7, r2
 8304 0d5c 1360     		str	r3, [r2]
 8305 0d5e 00E0     		b	.L308
 8306              	.L448:
 711:.\Include/arm_math.h ****       }
 8307              		.loc 2 711 0
 8308 0d60 C046     		mov	r8, r8
 8309              	.L308:
 8310              		.loc 2 723 0
 8311 0d62 DA23     		mov	r3, #218
 8312 0d64 5B00     		lsl	r3, r3, #1
 8313 0d66 FB18     		add	r3, r7, r3
 8314 0d68 1A68     		ldr	r2, [r3]
 8315              	.LBE201:
 8316              	.LBE200:
 8317              		.loc 1 1634 0
 8318 0d6a A223     		mov	r3, #162
 8319 0d6c 9B00     		lsl	r3, r3, #2
 8320 0d6e FB18     		add	r3, r7, r3
 8321 0d70 1A80     		strh	r2, [r3]
1635:Source\TransformFunctions/arm_cfft_radix4_q15.c ****     /* R0 = (ya-yc) - (xb- xd) , R1 = (xa-xc) + (yb-yd) */
1636:Source\TransformFunctions/arm_cfft_radix4_q15.c ****     R0 = (q15_t) __SSAT((q31_t) (S0 + T1), 16);
 8322              		.loc 1 1636 0
 8323 0d72 144B     		ldr	r3, .L475+20
 8324 0d74 FB18     		add	r3, r7, r3
 8325 0d76 0022     		mov	r2, #0
 8326 0d78 9A5E     		ldrsh	r2, [r3, r2]
 8327 0d7a A223     		mov	r3, #162
 8328 0d7c 9B00     		lsl	r3, r3, #2
 8329 0d7e FB18     		add	r3, r7, r3
 8330 0d80 0021     		mov	r1, #0
 8331 0d82 5B5E     		ldrsh	r3, [r3, r1]
 8332 0d84 D318     		add	r3, r2, r3
 8333 0d86 D022     		mov	r2, #208
 8334 0d88 5200     		lsl	r2, r2, #1
 8335 0d8a BA18     		add	r2, r7, r2
ARM GAS  C:\Users\fneves\AppData\Local\Temp\cc0ayw4Y.s 			page 197


 8336 0d8c 1360     		str	r3, [r2]
 8337 0d8e 1023     		mov	r3, #16
 8338 0d90 CE22     		mov	r2, #206
 8339 0d92 5200     		lsl	r2, r2, #1
 8340 0d94 BA18     		add	r2, r7, r2
 8341 0d96 1360     		str	r3, [r2]
 8342              	.LBB202:
 8343              	.LBB203:
 699:.\Include/arm_math.h ****     for (i = 0; i < (y - 1); i++)
 8344              		.loc 2 699 0
 8345 0d98 0123     		mov	r3, #1
 8346 0d9a CC22     		mov	r2, #204
 8347 0d9c 5200     		lsl	r2, r2, #1
 8348 0d9e BA18     		add	r2, r7, r2
 8349 0da0 1360     		str	r3, [r2]
 700:.\Include/arm_math.h ****     {
 8350              		.loc 2 700 0
 8351 0da2 0023     		mov	r3, #0
 8352 0da4 CA22     		mov	r2, #202
 8353 0da6 5200     		lsl	r2, r2, #1
 8354 0da8 BA18     		add	r2, r7, r2
 8355 0daa 1360     		str	r3, [r2]
 8356 0dac 1EE0     		b	.L310
 8357              	.L476:
 8358 0dae C046     		.align	2
 8359              	.L475:
 8360 0db0 7A020000 		.word	634
 8361 0db4 82020000 		.word	642
 8362 0db8 76020000 		.word	630
 8363 0dbc 8A020000 		.word	650
 8364 0dc0 7E020000 		.word	638
 8365 0dc4 86020000 		.word	646
 8366              	.L311:
 702:.\Include/arm_math.h ****     }
 8367              		.loc 2 702 0
 8368 0dc8 CC23     		mov	r3, #204
 8369 0dca 5B00     		lsl	r3, r3, #1
 8370 0dcc FB18     		add	r3, r7, r3
 8371 0dce 1B68     		ldr	r3, [r3]
 8372 0dd0 5B00     		lsl	r3, r3, #1
 8373 0dd2 CC22     		mov	r2, #204
 8374 0dd4 5200     		lsl	r2, r2, #1
 8375 0dd6 BA18     		add	r2, r7, r2
 8376 0dd8 1360     		str	r3, [r2]
 700:.\Include/arm_math.h ****     {
 8377              		.loc 2 700 0
 8378 0dda CA23     		mov	r3, #202
 8379 0ddc 5B00     		lsl	r3, r3, #1
 8380 0dde FB18     		add	r3, r7, r3
 8381 0de0 1B68     		ldr	r3, [r3]
 8382 0de2 0133     		add	r3, r3, #1
 8383 0de4 CA22     		mov	r2, #202
 8384 0de6 5200     		lsl	r2, r2, #1
 8385 0de8 BA18     		add	r2, r7, r2
 8386 0dea 1360     		str	r3, [r2]
 8387              	.L310:
 8388 0dec CE23     		mov	r3, #206
ARM GAS  C:\Users\fneves\AppData\Local\Temp\cc0ayw4Y.s 			page 198


 8389 0dee 5B00     		lsl	r3, r3, #1
 8390 0df0 FB18     		add	r3, r7, r3
 8391 0df2 1B68     		ldr	r3, [r3]
 8392 0df4 013B     		sub	r3, r3, #1
 8393 0df6 CA22     		mov	r2, #202
 8394 0df8 5200     		lsl	r2, r2, #1
 8395 0dfa BA18     		add	r2, r7, r2
 8396 0dfc 1268     		ldr	r2, [r2]
 8397 0dfe 9A42     		cmp	r2, r3
 8398 0e00 E2D3     		bcc	.L311
 705:.\Include/arm_math.h ****     {
 8399              		.loc 2 705 0
 8400 0e02 D023     		mov	r3, #208
 8401 0e04 5B00     		lsl	r3, r3, #1
 8402 0e06 FB18     		add	r3, r7, r3
 8403 0e08 1B68     		ldr	r3, [r3]
 8404 0e0a 002B     		cmp	r3, #0
 8405 0e0c 1BDD     		ble	.L312
 707:.\Include/arm_math.h **** 
 8406              		.loc 2 707 0
 8407 0e0e CC23     		mov	r3, #204
 8408 0e10 5B00     		lsl	r3, r3, #1
 8409 0e12 FB18     		add	r3, r7, r3
 8410 0e14 1B68     		ldr	r3, [r3]
 8411 0e16 013B     		sub	r3, r3, #1
 8412 0e18 CC22     		mov	r2, #204
 8413 0e1a 5200     		lsl	r2, r2, #1
 8414 0e1c BA18     		add	r2, r7, r2
 8415 0e1e 1360     		str	r3, [r2]
 709:.\Include/arm_math.h ****       {
 8416              		.loc 2 709 0
 8417 0e20 D023     		mov	r3, #208
 8418 0e22 5B00     		lsl	r3, r3, #1
 8419 0e24 FB18     		add	r3, r7, r3
 8420 0e26 1A68     		ldr	r2, [r3]
 8421 0e28 CC23     		mov	r3, #204
 8422 0e2a 5B00     		lsl	r3, r3, #1
 8423 0e2c FB18     		add	r3, r7, r3
 8424 0e2e 1B68     		ldr	r3, [r3]
 8425 0e30 9A42     		cmp	r2, r3
 8426 0e32 24DD     		ble	.L449
 711:.\Include/arm_math.h ****       }
 8427              		.loc 2 711 0
 8428 0e34 CC23     		mov	r3, #204
 8429 0e36 5B00     		lsl	r3, r3, #1
 8430 0e38 FB18     		add	r3, r7, r3
 8431 0e3a 1B68     		ldr	r3, [r3]
 8432 0e3c D022     		mov	r2, #208
 8433 0e3e 5200     		lsl	r2, r2, #1
 8434 0e40 BA18     		add	r2, r7, r2
 8435 0e42 1360     		str	r3, [r2]
 8436 0e44 1CE0     		b	.L314
 8437              	.L312:
 716:.\Include/arm_math.h **** 
 8438              		.loc 2 716 0
 8439 0e46 CC23     		mov	r3, #204
 8440 0e48 5B00     		lsl	r3, r3, #1
ARM GAS  C:\Users\fneves\AppData\Local\Temp\cc0ayw4Y.s 			page 199


 8441 0e4a FB18     		add	r3, r7, r3
 8442 0e4c 1B68     		ldr	r3, [r3]
 8443 0e4e 5B42     		neg	r3, r3
 8444 0e50 C822     		mov	r2, #200
 8445 0e52 5200     		lsl	r2, r2, #1
 8446 0e54 BA18     		add	r2, r7, r2
 8447 0e56 1360     		str	r3, [r2]
 718:.\Include/arm_math.h ****       {
 8448              		.loc 2 718 0
 8449 0e58 D023     		mov	r3, #208
 8450 0e5a 5B00     		lsl	r3, r3, #1
 8451 0e5c FB18     		add	r3, r7, r3
 8452 0e5e 1A68     		ldr	r2, [r3]
 8453 0e60 C823     		mov	r3, #200
 8454 0e62 5B00     		lsl	r3, r3, #1
 8455 0e64 FB18     		add	r3, r7, r3
 8456 0e66 1B68     		ldr	r3, [r3]
 8457 0e68 9A42     		cmp	r2, r3
 8458 0e6a 09DA     		bge	.L314
 720:.\Include/arm_math.h ****       }
 8459              		.loc 2 720 0
 8460 0e6c C823     		mov	r3, #200
 8461 0e6e 5B00     		lsl	r3, r3, #1
 8462 0e70 FB18     		add	r3, r7, r3
 8463 0e72 1B68     		ldr	r3, [r3]
 8464 0e74 D022     		mov	r2, #208
 8465 0e76 5200     		lsl	r2, r2, #1
 8466 0e78 BA18     		add	r2, r7, r2
 8467 0e7a 1360     		str	r3, [r2]
 8468 0e7c 00E0     		b	.L314
 8469              	.L449:
 711:.\Include/arm_math.h ****       }
 8470              		.loc 2 711 0
 8471 0e7e C046     		mov	r8, r8
 8472              	.L314:
 8473              		.loc 2 723 0
 8474 0e80 D023     		mov	r3, #208
 8475 0e82 5B00     		lsl	r3, r3, #1
 8476 0e84 FB18     		add	r3, r7, r3
 8477 0e86 1A68     		ldr	r2, [r3]
 8478              	.LBE203:
 8479              	.LBE202:
 8480              		.loc 1 1636 0
 8481 0e88 BF4B     		ldr	r3, .L477
 8482 0e8a FB18     		add	r3, r7, r3
 8483 0e8c 1A80     		strh	r2, [r3]
1637:Source\TransformFunctions/arm_cfft_radix4_q15.c ****     R1 = (q15_t) __SSAT((q31_t) (S1 - T0), 16);
 8484              		.loc 1 1637 0
 8485 0e8e A123     		mov	r3, #161
 8486 0e90 9B00     		lsl	r3, r3, #2
 8487 0e92 FB18     		add	r3, r7, r3
 8488 0e94 0022     		mov	r2, #0
 8489 0e96 9A5E     		ldrsh	r2, [r3, r2]
 8490 0e98 BC4B     		ldr	r3, .L477+4
 8491 0e9a FB18     		add	r3, r7, r3
 8492 0e9c 0021     		mov	r1, #0
 8493 0e9e 5B5E     		ldrsh	r3, [r3, r1]
ARM GAS  C:\Users\fneves\AppData\Local\Temp\cc0ayw4Y.s 			page 200


 8494 0ea0 D31A     		sub	r3, r2, r3
 8495 0ea2 C622     		mov	r2, #198
 8496 0ea4 5200     		lsl	r2, r2, #1
 8497 0ea6 BA18     		add	r2, r7, r2
 8498 0ea8 1360     		str	r3, [r2]
 8499 0eaa 1023     		mov	r3, #16
 8500 0eac C422     		mov	r2, #196
 8501 0eae 5200     		lsl	r2, r2, #1
 8502 0eb0 BA18     		add	r2, r7, r2
 8503 0eb2 1360     		str	r3, [r2]
 8504              	.LBB204:
 8505              	.LBB205:
 699:.\Include/arm_math.h ****     for (i = 0; i < (y - 1); i++)
 8506              		.loc 2 699 0
 8507 0eb4 0123     		mov	r3, #1
 8508 0eb6 C222     		mov	r2, #194
 8509 0eb8 5200     		lsl	r2, r2, #1
 8510 0eba BA18     		add	r2, r7, r2
 8511 0ebc 1360     		str	r3, [r2]
 700:.\Include/arm_math.h ****     {
 8512              		.loc 2 700 0
 8513 0ebe 0023     		mov	r3, #0
 8514 0ec0 C022     		mov	r2, #192
 8515 0ec2 5200     		lsl	r2, r2, #1
 8516 0ec4 BA18     		add	r2, r7, r2
 8517 0ec6 1360     		str	r3, [r2]
 8518 0ec8 11E0     		b	.L316
 8519              	.L317:
 702:.\Include/arm_math.h ****     }
 8520              		.loc 2 702 0
 8521 0eca C223     		mov	r3, #194
 8522 0ecc 5B00     		lsl	r3, r3, #1
 8523 0ece FB18     		add	r3, r7, r3
 8524 0ed0 1B68     		ldr	r3, [r3]
 8525 0ed2 5B00     		lsl	r3, r3, #1
 8526 0ed4 C222     		mov	r2, #194
 8527 0ed6 5200     		lsl	r2, r2, #1
 8528 0ed8 BA18     		add	r2, r7, r2
 8529 0eda 1360     		str	r3, [r2]
 700:.\Include/arm_math.h ****     {
 8530              		.loc 2 700 0
 8531 0edc C023     		mov	r3, #192
 8532 0ede 5B00     		lsl	r3, r3, #1
 8533 0ee0 FB18     		add	r3, r7, r3
 8534 0ee2 1B68     		ldr	r3, [r3]
 8535 0ee4 0133     		add	r3, r3, #1
 8536 0ee6 C022     		mov	r2, #192
 8537 0ee8 5200     		lsl	r2, r2, #1
 8538 0eea BA18     		add	r2, r7, r2
 8539 0eec 1360     		str	r3, [r2]
 8540              	.L316:
 8541 0eee C423     		mov	r3, #196
 8542 0ef0 5B00     		lsl	r3, r3, #1
 8543 0ef2 FB18     		add	r3, r7, r3
 8544 0ef4 1B68     		ldr	r3, [r3]
 8545 0ef6 013B     		sub	r3, r3, #1
 8546 0ef8 C022     		mov	r2, #192
ARM GAS  C:\Users\fneves\AppData\Local\Temp\cc0ayw4Y.s 			page 201


 8547 0efa 5200     		lsl	r2, r2, #1
 8548 0efc BA18     		add	r2, r7, r2
 8549 0efe 1268     		ldr	r2, [r2]
 8550 0f00 9A42     		cmp	r2, r3
 8551 0f02 E2D3     		bcc	.L317
 705:.\Include/arm_math.h ****     {
 8552              		.loc 2 705 0
 8553 0f04 C623     		mov	r3, #198
 8554 0f06 5B00     		lsl	r3, r3, #1
 8555 0f08 FB18     		add	r3, r7, r3
 8556 0f0a 1B68     		ldr	r3, [r3]
 8557 0f0c 002B     		cmp	r3, #0
 8558 0f0e 1BDD     		ble	.L318
 707:.\Include/arm_math.h **** 
 8559              		.loc 2 707 0
 8560 0f10 C223     		mov	r3, #194
 8561 0f12 5B00     		lsl	r3, r3, #1
 8562 0f14 FB18     		add	r3, r7, r3
 8563 0f16 1B68     		ldr	r3, [r3]
 8564 0f18 013B     		sub	r3, r3, #1
 8565 0f1a C222     		mov	r2, #194
 8566 0f1c 5200     		lsl	r2, r2, #1
 8567 0f1e BA18     		add	r2, r7, r2
 8568 0f20 1360     		str	r3, [r2]
 709:.\Include/arm_math.h ****       {
 8569              		.loc 2 709 0
 8570 0f22 C623     		mov	r3, #198
 8571 0f24 5B00     		lsl	r3, r3, #1
 8572 0f26 FB18     		add	r3, r7, r3
 8573 0f28 1A68     		ldr	r2, [r3]
 8574 0f2a C223     		mov	r3, #194
 8575 0f2c 5B00     		lsl	r3, r3, #1
 8576 0f2e FB18     		add	r3, r7, r3
 8577 0f30 1B68     		ldr	r3, [r3]
 8578 0f32 9A42     		cmp	r2, r3
 8579 0f34 24DD     		ble	.L450
 711:.\Include/arm_math.h ****       }
 8580              		.loc 2 711 0
 8581 0f36 C223     		mov	r3, #194
 8582 0f38 5B00     		lsl	r3, r3, #1
 8583 0f3a FB18     		add	r3, r7, r3
 8584 0f3c 1B68     		ldr	r3, [r3]
 8585 0f3e C622     		mov	r2, #198
 8586 0f40 5200     		lsl	r2, r2, #1
 8587 0f42 BA18     		add	r2, r7, r2
 8588 0f44 1360     		str	r3, [r2]
 8589 0f46 1CE0     		b	.L320
 8590              	.L318:
 716:.\Include/arm_math.h **** 
 8591              		.loc 2 716 0
 8592 0f48 C223     		mov	r3, #194
 8593 0f4a 5B00     		lsl	r3, r3, #1
 8594 0f4c FB18     		add	r3, r7, r3
 8595 0f4e 1B68     		ldr	r3, [r3]
 8596 0f50 5B42     		neg	r3, r3
 8597 0f52 BE22     		mov	r2, #190
 8598 0f54 5200     		lsl	r2, r2, #1
ARM GAS  C:\Users\fneves\AppData\Local\Temp\cc0ayw4Y.s 			page 202


 8599 0f56 BA18     		add	r2, r7, r2
 8600 0f58 1360     		str	r3, [r2]
 718:.\Include/arm_math.h ****       {
 8601              		.loc 2 718 0
 8602 0f5a C623     		mov	r3, #198
 8603 0f5c 5B00     		lsl	r3, r3, #1
 8604 0f5e FB18     		add	r3, r7, r3
 8605 0f60 1A68     		ldr	r2, [r3]
 8606 0f62 BE23     		mov	r3, #190
 8607 0f64 5B00     		lsl	r3, r3, #1
 8608 0f66 FB18     		add	r3, r7, r3
 8609 0f68 1B68     		ldr	r3, [r3]
 8610 0f6a 9A42     		cmp	r2, r3
 8611 0f6c 09DA     		bge	.L320
 720:.\Include/arm_math.h ****       }
 8612              		.loc 2 720 0
 8613 0f6e BE23     		mov	r3, #190
 8614 0f70 5B00     		lsl	r3, r3, #1
 8615 0f72 FB18     		add	r3, r7, r3
 8616 0f74 1B68     		ldr	r3, [r3]
 8617 0f76 C622     		mov	r2, #198
 8618 0f78 5200     		lsl	r2, r2, #1
 8619 0f7a BA18     		add	r2, r7, r2
 8620 0f7c 1360     		str	r3, [r2]
 8621 0f7e 00E0     		b	.L320
 8622              	.L450:
 711:.\Include/arm_math.h ****       }
 8623              		.loc 2 711 0
 8624 0f80 C046     		mov	r8, r8
 8625              	.L320:
 8626              		.loc 2 723 0
 8627 0f82 C623     		mov	r3, #198
 8628 0f84 5B00     		lsl	r3, r3, #1
 8629 0f86 FB18     		add	r3, r7, r3
 8630 0f88 1A68     		ldr	r2, [r3]
 8631              	.LBE205:
 8632              	.LBE204:
 8633              		.loc 1 1637 0
 8634 0f8a A023     		mov	r3, #160
 8635 0f8c 9B00     		lsl	r3, r3, #2
 8636 0f8e FB18     		add	r3, r7, r3
 8637 0f90 1A80     		strh	r2, [r3]
1638:Source\TransformFunctions/arm_cfft_radix4_q15.c ****     /* S = (ya-yc) + (xb- xd), S1 = (xa-xc) - (yb-yd) */
1639:Source\TransformFunctions/arm_cfft_radix4_q15.c ****     S0 = (q15_t) __SSAT((q31_t) (S0 - T1), 16);
 8638              		.loc 1 1639 0
 8639 0f92 7F4B     		ldr	r3, .L477+8
 8640 0f94 FB18     		add	r3, r7, r3
 8641 0f96 0022     		mov	r2, #0
 8642 0f98 9A5E     		ldrsh	r2, [r3, r2]
 8643 0f9a A223     		mov	r3, #162
 8644 0f9c 9B00     		lsl	r3, r3, #2
 8645 0f9e FB18     		add	r3, r7, r3
 8646 0fa0 0021     		mov	r1, #0
 8647 0fa2 5B5E     		ldrsh	r3, [r3, r1]
 8648 0fa4 D31A     		sub	r3, r2, r3
 8649 0fa6 BC22     		mov	r2, #188
 8650 0fa8 5200     		lsl	r2, r2, #1
ARM GAS  C:\Users\fneves\AppData\Local\Temp\cc0ayw4Y.s 			page 203


 8651 0faa BA18     		add	r2, r7, r2
 8652 0fac 1360     		str	r3, [r2]
 8653 0fae 1023     		mov	r3, #16
 8654 0fb0 BA22     		mov	r2, #186
 8655 0fb2 5200     		lsl	r2, r2, #1
 8656 0fb4 BA18     		add	r2, r7, r2
 8657 0fb6 1360     		str	r3, [r2]
 8658              	.LBB206:
 8659              	.LBB207:
 699:.\Include/arm_math.h ****     for (i = 0; i < (y - 1); i++)
 8660              		.loc 2 699 0
 8661 0fb8 0123     		mov	r3, #1
 8662 0fba B822     		mov	r2, #184
 8663 0fbc 5200     		lsl	r2, r2, #1
 8664 0fbe BA18     		add	r2, r7, r2
 8665 0fc0 1360     		str	r3, [r2]
 700:.\Include/arm_math.h ****     {
 8666              		.loc 2 700 0
 8667 0fc2 0023     		mov	r3, #0
 8668 0fc4 B622     		mov	r2, #182
 8669 0fc6 5200     		lsl	r2, r2, #1
 8670 0fc8 BA18     		add	r2, r7, r2
 8671 0fca 1360     		str	r3, [r2]
 8672 0fcc 11E0     		b	.L322
 8673              	.L323:
 702:.\Include/arm_math.h ****     }
 8674              		.loc 2 702 0
 8675 0fce B823     		mov	r3, #184
 8676 0fd0 5B00     		lsl	r3, r3, #1
 8677 0fd2 FB18     		add	r3, r7, r3
 8678 0fd4 1B68     		ldr	r3, [r3]
 8679 0fd6 5B00     		lsl	r3, r3, #1
 8680 0fd8 B822     		mov	r2, #184
 8681 0fda 5200     		lsl	r2, r2, #1
 8682 0fdc BA18     		add	r2, r7, r2
 8683 0fde 1360     		str	r3, [r2]
 700:.\Include/arm_math.h ****     {
 8684              		.loc 2 700 0
 8685 0fe0 B623     		mov	r3, #182
 8686 0fe2 5B00     		lsl	r3, r3, #1
 8687 0fe4 FB18     		add	r3, r7, r3
 8688 0fe6 1B68     		ldr	r3, [r3]
 8689 0fe8 0133     		add	r3, r3, #1
 8690 0fea B622     		mov	r2, #182
 8691 0fec 5200     		lsl	r2, r2, #1
 8692 0fee BA18     		add	r2, r7, r2
 8693 0ff0 1360     		str	r3, [r2]
 8694              	.L322:
 8695 0ff2 BA23     		mov	r3, #186
 8696 0ff4 5B00     		lsl	r3, r3, #1
 8697 0ff6 FB18     		add	r3, r7, r3
 8698 0ff8 1B68     		ldr	r3, [r3]
 8699 0ffa 013B     		sub	r3, r3, #1
 8700 0ffc B622     		mov	r2, #182
 8701 0ffe 5200     		lsl	r2, r2, #1
 8702 1000 BA18     		add	r2, r7, r2
 8703 1002 1268     		ldr	r2, [r2]
ARM GAS  C:\Users\fneves\AppData\Local\Temp\cc0ayw4Y.s 			page 204


 8704 1004 9A42     		cmp	r2, r3
 8705 1006 E2D3     		bcc	.L323
 705:.\Include/arm_math.h ****     {
 8706              		.loc 2 705 0
 8707 1008 BC23     		mov	r3, #188
 8708 100a 5B00     		lsl	r3, r3, #1
 8709 100c FB18     		add	r3, r7, r3
 8710 100e 1B68     		ldr	r3, [r3]
 8711 1010 002B     		cmp	r3, #0
 8712 1012 1BDD     		ble	.L324
 707:.\Include/arm_math.h **** 
 8713              		.loc 2 707 0
 8714 1014 B823     		mov	r3, #184
 8715 1016 5B00     		lsl	r3, r3, #1
 8716 1018 FB18     		add	r3, r7, r3
 8717 101a 1B68     		ldr	r3, [r3]
 8718 101c 013B     		sub	r3, r3, #1
 8719 101e B822     		mov	r2, #184
 8720 1020 5200     		lsl	r2, r2, #1
 8721 1022 BA18     		add	r2, r7, r2
 8722 1024 1360     		str	r3, [r2]
 709:.\Include/arm_math.h ****       {
 8723              		.loc 2 709 0
 8724 1026 BC23     		mov	r3, #188
 8725 1028 5B00     		lsl	r3, r3, #1
 8726 102a FB18     		add	r3, r7, r3
 8727 102c 1A68     		ldr	r2, [r3]
 8728 102e B823     		mov	r3, #184
 8729 1030 5B00     		lsl	r3, r3, #1
 8730 1032 FB18     		add	r3, r7, r3
 8731 1034 1B68     		ldr	r3, [r3]
 8732 1036 9A42     		cmp	r2, r3
 8733 1038 24DD     		ble	.L451
 711:.\Include/arm_math.h ****       }
 8734              		.loc 2 711 0
 8735 103a B823     		mov	r3, #184
 8736 103c 5B00     		lsl	r3, r3, #1
 8737 103e FB18     		add	r3, r7, r3
 8738 1040 1B68     		ldr	r3, [r3]
 8739 1042 BC22     		mov	r2, #188
 8740 1044 5200     		lsl	r2, r2, #1
 8741 1046 BA18     		add	r2, r7, r2
 8742 1048 1360     		str	r3, [r2]
 8743 104a 1CE0     		b	.L326
 8744              	.L324:
 716:.\Include/arm_math.h **** 
 8745              		.loc 2 716 0
 8746 104c B823     		mov	r3, #184
 8747 104e 5B00     		lsl	r3, r3, #1
 8748 1050 FB18     		add	r3, r7, r3
 8749 1052 1B68     		ldr	r3, [r3]
 8750 1054 5B42     		neg	r3, r3
 8751 1056 B422     		mov	r2, #180
 8752 1058 5200     		lsl	r2, r2, #1
 8753 105a BA18     		add	r2, r7, r2
 8754 105c 1360     		str	r3, [r2]
 718:.\Include/arm_math.h ****       {
ARM GAS  C:\Users\fneves\AppData\Local\Temp\cc0ayw4Y.s 			page 205


 8755              		.loc 2 718 0
 8756 105e BC23     		mov	r3, #188
 8757 1060 5B00     		lsl	r3, r3, #1
 8758 1062 FB18     		add	r3, r7, r3
 8759 1064 1A68     		ldr	r2, [r3]
 8760 1066 B423     		mov	r3, #180
 8761 1068 5B00     		lsl	r3, r3, #1
 8762 106a FB18     		add	r3, r7, r3
 8763 106c 1B68     		ldr	r3, [r3]
 8764 106e 9A42     		cmp	r2, r3
 8765 1070 09DA     		bge	.L326
 720:.\Include/arm_math.h ****       }
 8766              		.loc 2 720 0
 8767 1072 B423     		mov	r3, #180
 8768 1074 5B00     		lsl	r3, r3, #1
 8769 1076 FB18     		add	r3, r7, r3
 8770 1078 1B68     		ldr	r3, [r3]
 8771 107a BC22     		mov	r2, #188
 8772 107c 5200     		lsl	r2, r2, #1
 8773 107e BA18     		add	r2, r7, r2
 8774 1080 1360     		str	r3, [r2]
 8775 1082 00E0     		b	.L326
 8776              	.L451:
 711:.\Include/arm_math.h ****       }
 8777              		.loc 2 711 0
 8778 1084 C046     		mov	r8, r8
 8779              	.L326:
 8780              		.loc 2 723 0
 8781 1086 BC23     		mov	r3, #188
 8782 1088 5B00     		lsl	r3, r3, #1
 8783 108a FB18     		add	r3, r7, r3
 8784 108c 1A68     		ldr	r2, [r3]
 8785              	.LBE207:
 8786              	.LBE206:
 8787              		.loc 1 1639 0
 8788 108e 404B     		ldr	r3, .L477+8
 8789 1090 FB18     		add	r3, r7, r3
 8790 1092 1A80     		strh	r2, [r3]
1640:Source\TransformFunctions/arm_cfft_radix4_q15.c ****     S1 = (q15_t) __SSAT((q31_t) (S1 + T0), 16);
 8791              		.loc 1 1640 0
 8792 1094 A123     		mov	r3, #161
 8793 1096 9B00     		lsl	r3, r3, #2
 8794 1098 FB18     		add	r3, r7, r3
 8795 109a 0022     		mov	r2, #0
 8796 109c 9A5E     		ldrsh	r2, [r3, r2]
 8797 109e 3B4B     		ldr	r3, .L477+4
 8798 10a0 FB18     		add	r3, r7, r3
 8799 10a2 0021     		mov	r1, #0
 8800 10a4 5B5E     		ldrsh	r3, [r3, r1]
 8801 10a6 D318     		add	r3, r2, r3
 8802 10a8 B222     		mov	r2, #178
 8803 10aa 5200     		lsl	r2, r2, #1
 8804 10ac BA18     		add	r2, r7, r2
 8805 10ae 1360     		str	r3, [r2]
 8806 10b0 1023     		mov	r3, #16
 8807 10b2 B022     		mov	r2, #176
 8808 10b4 5200     		lsl	r2, r2, #1
ARM GAS  C:\Users\fneves\AppData\Local\Temp\cc0ayw4Y.s 			page 206


 8809 10b6 BA18     		add	r2, r7, r2
 8810 10b8 1360     		str	r3, [r2]
 8811              	.LBB208:
 8812              	.LBB209:
 699:.\Include/arm_math.h ****     for (i = 0; i < (y - 1); i++)
 8813              		.loc 2 699 0
 8814 10ba 0123     		mov	r3, #1
 8815 10bc AE22     		mov	r2, #174
 8816 10be 5200     		lsl	r2, r2, #1
 8817 10c0 BA18     		add	r2, r7, r2
 8818 10c2 1360     		str	r3, [r2]
 700:.\Include/arm_math.h ****     {
 8819              		.loc 2 700 0
 8820 10c4 0023     		mov	r3, #0
 8821 10c6 AC22     		mov	r2, #172
 8822 10c8 5200     		lsl	r2, r2, #1
 8823 10ca BA18     		add	r2, r7, r2
 8824 10cc 1360     		str	r3, [r2]
 8825 10ce 11E0     		b	.L328
 8826              	.L329:
 702:.\Include/arm_math.h ****     }
 8827              		.loc 2 702 0
 8828 10d0 AE23     		mov	r3, #174
 8829 10d2 5B00     		lsl	r3, r3, #1
 8830 10d4 FB18     		add	r3, r7, r3
 8831 10d6 1B68     		ldr	r3, [r3]
 8832 10d8 5B00     		lsl	r3, r3, #1
 8833 10da AE22     		mov	r2, #174
 8834 10dc 5200     		lsl	r2, r2, #1
 8835 10de BA18     		add	r2, r7, r2
 8836 10e0 1360     		str	r3, [r2]
 700:.\Include/arm_math.h ****     {
 8837              		.loc 2 700 0
 8838 10e2 AC23     		mov	r3, #172
 8839 10e4 5B00     		lsl	r3, r3, #1
 8840 10e6 FB18     		add	r3, r7, r3
 8841 10e8 1B68     		ldr	r3, [r3]
 8842 10ea 0133     		add	r3, r3, #1
 8843 10ec AC22     		mov	r2, #172
 8844 10ee 5200     		lsl	r2, r2, #1
 8845 10f0 BA18     		add	r2, r7, r2
 8846 10f2 1360     		str	r3, [r2]
 8847              	.L328:
 8848 10f4 B023     		mov	r3, #176
 8849 10f6 5B00     		lsl	r3, r3, #1
 8850 10f8 FB18     		add	r3, r7, r3
 8851 10fa 1B68     		ldr	r3, [r3]
 8852 10fc 013B     		sub	r3, r3, #1
 8853 10fe AC22     		mov	r2, #172
 8854 1100 5200     		lsl	r2, r2, #1
 8855 1102 BA18     		add	r2, r7, r2
 8856 1104 1268     		ldr	r2, [r2]
 8857 1106 9A42     		cmp	r2, r3
 8858 1108 E2D3     		bcc	.L329
 705:.\Include/arm_math.h ****     {
 8859              		.loc 2 705 0
 8860 110a B223     		mov	r3, #178
ARM GAS  C:\Users\fneves\AppData\Local\Temp\cc0ayw4Y.s 			page 207


 8861 110c 5B00     		lsl	r3, r3, #1
 8862 110e FB18     		add	r3, r7, r3
 8863 1110 1B68     		ldr	r3, [r3]
 8864 1112 002B     		cmp	r3, #0
 8865 1114 1BDD     		ble	.L330
 707:.\Include/arm_math.h **** 
 8866              		.loc 2 707 0
 8867 1116 AE23     		mov	r3, #174
 8868 1118 5B00     		lsl	r3, r3, #1
 8869 111a FB18     		add	r3, r7, r3
 8870 111c 1B68     		ldr	r3, [r3]
 8871 111e 013B     		sub	r3, r3, #1
 8872 1120 AE22     		mov	r2, #174
 8873 1122 5200     		lsl	r2, r2, #1
 8874 1124 BA18     		add	r2, r7, r2
 8875 1126 1360     		str	r3, [r2]
 709:.\Include/arm_math.h ****       {
 8876              		.loc 2 709 0
 8877 1128 B223     		mov	r3, #178
 8878 112a 5B00     		lsl	r3, r3, #1
 8879 112c FB18     		add	r3, r7, r3
 8880 112e 1A68     		ldr	r2, [r3]
 8881 1130 AE23     		mov	r3, #174
 8882 1132 5B00     		lsl	r3, r3, #1
 8883 1134 FB18     		add	r3, r7, r3
 8884 1136 1B68     		ldr	r3, [r3]
 8885 1138 9A42     		cmp	r2, r3
 8886 113a 2BDD     		ble	.L452
 711:.\Include/arm_math.h ****       }
 8887              		.loc 2 711 0
 8888 113c AE23     		mov	r3, #174
 8889 113e 5B00     		lsl	r3, r3, #1
 8890 1140 FB18     		add	r3, r7, r3
 8891 1142 1B68     		ldr	r3, [r3]
 8892 1144 B222     		mov	r2, #178
 8893 1146 5200     		lsl	r2, r2, #1
 8894 1148 BA18     		add	r2, r7, r2
 8895 114a 1360     		str	r3, [r2]
 8896 114c 23E0     		b	.L332
 8897              	.L330:
 716:.\Include/arm_math.h **** 
 8898              		.loc 2 716 0
 8899 114e AE23     		mov	r3, #174
 8900 1150 5B00     		lsl	r3, r3, #1
 8901 1152 FB18     		add	r3, r7, r3
 8902 1154 1B68     		ldr	r3, [r3]
 8903 1156 5B42     		neg	r3, r3
 8904 1158 AA22     		mov	r2, #170
 8905 115a 5200     		lsl	r2, r2, #1
 8906 115c BA18     		add	r2, r7, r2
 8907 115e 1360     		str	r3, [r2]
 718:.\Include/arm_math.h ****       {
 8908              		.loc 2 718 0
 8909 1160 B223     		mov	r3, #178
 8910 1162 5B00     		lsl	r3, r3, #1
 8911 1164 FB18     		add	r3, r7, r3
 8912 1166 1A68     		ldr	r2, [r3]
ARM GAS  C:\Users\fneves\AppData\Local\Temp\cc0ayw4Y.s 			page 208


 8913 1168 AA23     		mov	r3, #170
 8914 116a 5B00     		lsl	r3, r3, #1
 8915 116c FB18     		add	r3, r7, r3
 8916 116e 1B68     		ldr	r3, [r3]
 8917 1170 9A42     		cmp	r2, r3
 8918 1172 10DA     		bge	.L332
 720:.\Include/arm_math.h ****       }
 8919              		.loc 2 720 0
 8920 1174 AA23     		mov	r3, #170
 8921 1176 5B00     		lsl	r3, r3, #1
 8922 1178 FB18     		add	r3, r7, r3
 8923 117a 1B68     		ldr	r3, [r3]
 8924 117c B222     		mov	r2, #178
 8925 117e 5200     		lsl	r2, r2, #1
 8926 1180 BA18     		add	r2, r7, r2
 8927 1182 1360     		str	r3, [r2]
 8928 1184 07E0     		b	.L332
 8929              	.L478:
 8930 1186 C046     		.align	2
 8931              	.L477:
 8932 1188 82020000 		.word	642
 8933 118c 8A020000 		.word	650
 8934 1190 86020000 		.word	646
 8935              	.L452:
 711:.\Include/arm_math.h ****       }
 8936              		.loc 2 711 0
 8937 1194 C046     		mov	r8, r8
 8938              	.L332:
 8939              		.loc 2 723 0
 8940 1196 B223     		mov	r3, #178
 8941 1198 5B00     		lsl	r3, r3, #1
 8942 119a FB18     		add	r3, r7, r3
 8943 119c 1A68     		ldr	r2, [r3]
 8944              	.LBE209:
 8945              	.LBE208:
 8946              		.loc 1 1640 0
 8947 119e A123     		mov	r3, #161
 8948 11a0 9B00     		lsl	r3, r3, #2
 8949 11a2 FB18     		add	r3, r7, r3
 8950 11a4 1A80     		strh	r2, [r3]
1641:Source\TransformFunctions/arm_cfft_radix4_q15.c **** 
1642:Source\TransformFunctions/arm_cfft_radix4_q15.c ****     /* co1 & si1 are read from Coefficient pointer */
1643:Source\TransformFunctions/arm_cfft_radix4_q15.c ****     Co1 = pCoef16[ic * 2u];
 8951              		.loc 1 1643 0
 8952 11a6 AA23     		mov	r3, #170
 8953 11a8 9B00     		lsl	r3, r3, #2
 8954 11aa FB18     		add	r3, r7, r3
 8955 11ac 1B68     		ldr	r3, [r3]
 8956 11ae 9B00     		lsl	r3, r3, #2
 8957 11b0 7A68     		ldr	r2, [r7, #4]
 8958 11b2 D218     		add	r2, r2, r3
 8959 11b4 F44B     		ldr	r3, .L479
 8960 11b6 FB18     		add	r3, r7, r3
 8961 11b8 1288     		ldrh	r2, [r2]
 8962 11ba 1A80     		strh	r2, [r3]
1644:Source\TransformFunctions/arm_cfft_radix4_q15.c ****     Si1 = pCoef16[(ic * 2u) + 1u];
 8963              		.loc 1 1644 0
ARM GAS  C:\Users\fneves\AppData\Local\Temp\cc0ayw4Y.s 			page 209


 8964 11bc AA23     		mov	r3, #170
 8965 11be 9B00     		lsl	r3, r3, #2
 8966 11c0 FB18     		add	r3, r7, r3
 8967 11c2 1B68     		ldr	r3, [r3]
 8968 11c4 9B00     		lsl	r3, r3, #2
 8969 11c6 0233     		add	r3, r3, #2
 8970 11c8 7A68     		ldr	r2, [r7, #4]
 8971 11ca D218     		add	r2, r2, r3
 8972 11cc 9C23     		mov	r3, #156
 8973 11ce 9B00     		lsl	r3, r3, #2
 8974 11d0 FB18     		add	r3, r7, r3
 8975 11d2 1288     		ldrh	r2, [r2]
 8976 11d4 1A80     		strh	r2, [r3]
1645:Source\TransformFunctions/arm_cfft_radix4_q15.c ****     /*  Butterfly process for the i0+fftLen/2 sample */
1646:Source\TransformFunctions/arm_cfft_radix4_q15.c ****     /* xb' = (xa-yb-xc+yd)* co1 - (ya+xb-yc-xd)* (si1) */
1647:Source\TransformFunctions/arm_cfft_radix4_q15.c ****     out1 = (q15_t) ((Co1 * S0 - Si1 * S1) >> 16u);
 8977              		.loc 1 1647 0
 8978 11d6 EC4B     		ldr	r3, .L479
 8979 11d8 FB18     		add	r3, r7, r3
 8980 11da 0022     		mov	r2, #0
 8981 11dc 9B5E     		ldrsh	r3, [r3, r2]
 8982 11de EB4A     		ldr	r2, .L479+4
 8983 11e0 BA18     		add	r2, r7, r2
 8984 11e2 0021     		mov	r1, #0
 8985 11e4 525E     		ldrsh	r2, [r2, r1]
 8986 11e6 5A43     		mul	r2, r3
 8987 11e8 9C23     		mov	r3, #156
 8988 11ea 9B00     		lsl	r3, r3, #2
 8989 11ec FB18     		add	r3, r7, r3
 8990 11ee 0021     		mov	r1, #0
 8991 11f0 5B5E     		ldrsh	r3, [r3, r1]
 8992 11f2 A121     		mov	r1, #161
 8993 11f4 8900     		lsl	r1, r1, #2
 8994 11f6 7918     		add	r1, r7, r1
 8995 11f8 0020     		mov	r0, #0
 8996 11fa 095E     		ldrsh	r1, [r1, r0]
 8997 11fc 4B43     		mul	r3, r1
 8998 11fe D31A     		sub	r3, r2, r3
 8999 1200 1A14     		asr	r2, r3, #16
 9000 1202 E34B     		ldr	r3, .L479+8
 9001 1204 FB18     		add	r3, r7, r3
 9002 1206 1A80     		strh	r2, [r3]
1648:Source\TransformFunctions/arm_cfft_radix4_q15.c ****     /* yb' = (ya+xb-yc-xd)* co1 + (xa-yb-xc+yd)* (si1) */
1649:Source\TransformFunctions/arm_cfft_radix4_q15.c ****     out2 = (q15_t) ((Si1 * S0 + Co1 * S1) >> 16u);
 9003              		.loc 1 1649 0
 9004 1208 9C23     		mov	r3, #156
 9005 120a 9B00     		lsl	r3, r3, #2
 9006 120c FB18     		add	r3, r7, r3
 9007 120e 0022     		mov	r2, #0
 9008 1210 9B5E     		ldrsh	r3, [r3, r2]
 9009 1212 DE4A     		ldr	r2, .L479+4
 9010 1214 BA18     		add	r2, r7, r2
 9011 1216 0021     		mov	r1, #0
 9012 1218 525E     		ldrsh	r2, [r2, r1]
 9013 121a 5A43     		mul	r2, r3
 9014 121c DA4B     		ldr	r3, .L479
 9015 121e FB18     		add	r3, r7, r3
ARM GAS  C:\Users\fneves\AppData\Local\Temp\cc0ayw4Y.s 			page 210


 9016 1220 0021     		mov	r1, #0
 9017 1222 5B5E     		ldrsh	r3, [r3, r1]
 9018 1224 A121     		mov	r1, #161
 9019 1226 8900     		lsl	r1, r1, #2
 9020 1228 7918     		add	r1, r7, r1
 9021 122a 0020     		mov	r0, #0
 9022 122c 095E     		ldrsh	r1, [r1, r0]
 9023 122e 4B43     		mul	r3, r1
 9024 1230 D318     		add	r3, r2, r3
 9025 1232 1A14     		asr	r2, r3, #16
 9026 1234 9D23     		mov	r3, #157
 9027 1236 9B00     		lsl	r3, r3, #2
 9028 1238 FB18     		add	r3, r7, r3
 9029 123a 1A80     		strh	r2, [r3]
1650:Source\TransformFunctions/arm_cfft_radix4_q15.c ****     /* writing output(xb', yb') in little endian format */
1651:Source\TransformFunctions/arm_cfft_radix4_q15.c ****     pSrc16[i2 * 2u] = out1;
 9030              		.loc 1 1651 0
 9031 123c A423     		mov	r3, #164
 9032 123e 9B00     		lsl	r3, r3, #2
 9033 1240 FB18     		add	r3, r7, r3
 9034 1242 1B68     		ldr	r3, [r3]
 9035 1244 9B00     		lsl	r3, r3, #2
 9036 1246 FA68     		ldr	r2, [r7, #12]
 9037 1248 D318     		add	r3, r2, r3
 9038 124a D14A     		ldr	r2, .L479+8
 9039 124c BA18     		add	r2, r7, r2
 9040 124e 1288     		ldrh	r2, [r2]
 9041 1250 1A80     		strh	r2, [r3]
1652:Source\TransformFunctions/arm_cfft_radix4_q15.c ****     pSrc16[(i2 * 2u) + 1u] = out2;
 9042              		.loc 1 1652 0
 9043 1252 A423     		mov	r3, #164
 9044 1254 9B00     		lsl	r3, r3, #2
 9045 1256 FB18     		add	r3, r7, r3
 9046 1258 1B68     		ldr	r3, [r3]
 9047 125a 9B00     		lsl	r3, r3, #2
 9048 125c 0233     		add	r3, r3, #2
 9049 125e FA68     		ldr	r2, [r7, #12]
 9050 1260 D318     		add	r3, r2, r3
 9051 1262 9D22     		mov	r2, #157
 9052 1264 9200     		lsl	r2, r2, #2
 9053 1266 BA18     		add	r2, r7, r2
 9054 1268 1288     		ldrh	r2, [r2]
 9055 126a 1A80     		strh	r2, [r3]
1653:Source\TransformFunctions/arm_cfft_radix4_q15.c **** 
1654:Source\TransformFunctions/arm_cfft_radix4_q15.c ****     /* Co3 & si3 are read from Coefficient pointer */
1655:Source\TransformFunctions/arm_cfft_radix4_q15.c ****     Co3 = pCoef16[3u * ic * 2u];
 9056              		.loc 1 1655 0
 9057 126c AA23     		mov	r3, #170
 9058 126e 9B00     		lsl	r3, r3, #2
 9059 1270 FB18     		add	r3, r7, r3
 9060 1272 1A68     		ldr	r2, [r3]
 9061 1274 131C     		mov	r3, r2
 9062 1276 5B00     		lsl	r3, r3, #1
 9063 1278 9B18     		add	r3, r3, r2
 9064 127a 9B00     		lsl	r3, r3, #2
 9065 127c 1A1C     		mov	r2, r3
 9066 127e 7B68     		ldr	r3, [r7, #4]
ARM GAS  C:\Users\fneves\AppData\Local\Temp\cc0ayw4Y.s 			page 211


 9067 1280 9A18     		add	r2, r3, r2
 9068 1282 C44B     		ldr	r3, .L479+12
 9069 1284 FB18     		add	r3, r7, r3
 9070 1286 1288     		ldrh	r2, [r2]
 9071 1288 1A80     		strh	r2, [r3]
1656:Source\TransformFunctions/arm_cfft_radix4_q15.c ****     Si3 = pCoef16[(3u * ic * 2u) + 1u];
 9072              		.loc 1 1656 0
 9073 128a AA23     		mov	r3, #170
 9074 128c 9B00     		lsl	r3, r3, #2
 9075 128e FB18     		add	r3, r7, r3
 9076 1290 1A68     		ldr	r2, [r3]
 9077 1292 131C     		mov	r3, r2
 9078 1294 5B00     		lsl	r3, r3, #1
 9079 1296 9B18     		add	r3, r3, r2
 9080 1298 9B00     		lsl	r3, r3, #2
 9081 129a 0233     		add	r3, r3, #2
 9082 129c 7A68     		ldr	r2, [r7, #4]
 9083 129e D218     		add	r2, r2, r3
 9084 12a0 9B23     		mov	r3, #155
 9085 12a2 9B00     		lsl	r3, r3, #2
 9086 12a4 FB18     		add	r3, r7, r3
 9087 12a6 1288     		ldrh	r2, [r2]
 9088 12a8 1A80     		strh	r2, [r3]
1657:Source\TransformFunctions/arm_cfft_radix4_q15.c ****     /*  Butterfly process for the i0+3fftLen/4 sample */
1658:Source\TransformFunctions/arm_cfft_radix4_q15.c ****     /* xd' = (xa+yb-xc-yd)* Co3 - (ya-xb-yc+xd)* (si3) */
1659:Source\TransformFunctions/arm_cfft_radix4_q15.c ****     out1 = (q15_t) ((Co3 * R0 - Si3 * R1) >> 16u);
 9089              		.loc 1 1659 0
 9090 12aa BA4B     		ldr	r3, .L479+12
 9091 12ac FB18     		add	r3, r7, r3
 9092 12ae 0022     		mov	r2, #0
 9093 12b0 9B5E     		ldrsh	r3, [r3, r2]
 9094 12b2 B94A     		ldr	r2, .L479+16
 9095 12b4 BA18     		add	r2, r7, r2
 9096 12b6 0021     		mov	r1, #0
 9097 12b8 525E     		ldrsh	r2, [r2, r1]
 9098 12ba 5A43     		mul	r2, r3
 9099 12bc 9B23     		mov	r3, #155
 9100 12be 9B00     		lsl	r3, r3, #2
 9101 12c0 FB18     		add	r3, r7, r3
 9102 12c2 0021     		mov	r1, #0
 9103 12c4 5B5E     		ldrsh	r3, [r3, r1]
 9104 12c6 A021     		mov	r1, #160
 9105 12c8 8900     		lsl	r1, r1, #2
 9106 12ca 7918     		add	r1, r7, r1
 9107 12cc 0020     		mov	r0, #0
 9108 12ce 095E     		ldrsh	r1, [r1, r0]
 9109 12d0 4B43     		mul	r3, r1
 9110 12d2 D31A     		sub	r3, r2, r3
 9111 12d4 1A14     		asr	r2, r3, #16
 9112 12d6 AE4B     		ldr	r3, .L479+8
 9113 12d8 FB18     		add	r3, r7, r3
 9114 12da 1A80     		strh	r2, [r3]
1660:Source\TransformFunctions/arm_cfft_radix4_q15.c ****     /* yd' = (ya-xb-yc+xd)* Co3 + (xa+yb-xc-yd)* (si3) */
1661:Source\TransformFunctions/arm_cfft_radix4_q15.c ****     out2 = (q15_t) ((Si3 * R0 + Co3 * R1) >> 16u);
 9115              		.loc 1 1661 0
 9116 12dc 9B23     		mov	r3, #155
 9117 12de 9B00     		lsl	r3, r3, #2
ARM GAS  C:\Users\fneves\AppData\Local\Temp\cc0ayw4Y.s 			page 212


 9118 12e0 FB18     		add	r3, r7, r3
 9119 12e2 0022     		mov	r2, #0
 9120 12e4 9B5E     		ldrsh	r3, [r3, r2]
 9121 12e6 AC4A     		ldr	r2, .L479+16
 9122 12e8 BA18     		add	r2, r7, r2
 9123 12ea 0021     		mov	r1, #0
 9124 12ec 525E     		ldrsh	r2, [r2, r1]
 9125 12ee 5A43     		mul	r2, r3
 9126 12f0 A84B     		ldr	r3, .L479+12
 9127 12f2 FB18     		add	r3, r7, r3
 9128 12f4 0021     		mov	r1, #0
 9129 12f6 5B5E     		ldrsh	r3, [r3, r1]
 9130 12f8 A021     		mov	r1, #160
 9131 12fa 8900     		lsl	r1, r1, #2
 9132 12fc 7918     		add	r1, r7, r1
 9133 12fe 0020     		mov	r0, #0
 9134 1300 095E     		ldrsh	r1, [r1, r0]
 9135 1302 4B43     		mul	r3, r1
 9136 1304 D318     		add	r3, r2, r3
 9137 1306 1A14     		asr	r2, r3, #16
 9138 1308 9D23     		mov	r3, #157
 9139 130a 9B00     		lsl	r3, r3, #2
 9140 130c FB18     		add	r3, r7, r3
 9141 130e 1A80     		strh	r2, [r3]
1662:Source\TransformFunctions/arm_cfft_radix4_q15.c ****     /* writing output(xd', yd') in little endian format */
1663:Source\TransformFunctions/arm_cfft_radix4_q15.c ****     pSrc16[i3 * 2u] = out1;
 9142              		.loc 1 1663 0
 9143 1310 A323     		mov	r3, #163
 9144 1312 9B00     		lsl	r3, r3, #2
 9145 1314 FB18     		add	r3, r7, r3
 9146 1316 1B68     		ldr	r3, [r3]
 9147 1318 9B00     		lsl	r3, r3, #2
 9148 131a FA68     		ldr	r2, [r7, #12]
 9149 131c D318     		add	r3, r2, r3
 9150 131e 9C4A     		ldr	r2, .L479+8
 9151 1320 BA18     		add	r2, r7, r2
 9152 1322 1288     		ldrh	r2, [r2]
 9153 1324 1A80     		strh	r2, [r3]
1664:Source\TransformFunctions/arm_cfft_radix4_q15.c ****     pSrc16[(i3 * 2u) + 1u] = out2;
 9154              		.loc 1 1664 0
 9155 1326 A323     		mov	r3, #163
 9156 1328 9B00     		lsl	r3, r3, #2
 9157 132a FB18     		add	r3, r7, r3
 9158 132c 1B68     		ldr	r3, [r3]
 9159 132e 9B00     		lsl	r3, r3, #2
 9160 1330 0233     		add	r3, r3, #2
 9161 1332 FA68     		ldr	r2, [r7, #12]
 9162 1334 D318     		add	r3, r2, r3
 9163 1336 9D22     		mov	r2, #157
 9164 1338 9200     		lsl	r2, r2, #2
 9165 133a BA18     		add	r2, r7, r2
 9166 133c 1288     		ldrh	r2, [r2]
 9167 133e 1A80     		strh	r2, [r3]
1665:Source\TransformFunctions/arm_cfft_radix4_q15.c **** 
1666:Source\TransformFunctions/arm_cfft_radix4_q15.c ****     /*  Twiddle coefficients index modifier */
1667:Source\TransformFunctions/arm_cfft_radix4_q15.c ****     ic = ic + twidCoefModifier;
 9168              		.loc 1 1667 0
ARM GAS  C:\Users\fneves\AppData\Local\Temp\cc0ayw4Y.s 			page 213


 9169 1340 AA23     		mov	r3, #170
 9170 1342 9B00     		lsl	r3, r3, #2
 9171 1344 FB18     		add	r3, r7, r3
 9172 1346 1A68     		ldr	r2, [r3]
 9173 1348 3B68     		ldr	r3, [r7]
 9174 134a D318     		add	r3, r2, r3
 9175 134c AA22     		mov	r2, #170
 9176 134e 9200     		lsl	r2, r2, #2
 9177 1350 BA18     		add	r2, r7, r2
 9178 1352 1360     		str	r3, [r2]
1668:Source\TransformFunctions/arm_cfft_radix4_q15.c **** 
1669:Source\TransformFunctions/arm_cfft_radix4_q15.c ****     /*  Updating input index */
1670:Source\TransformFunctions/arm_cfft_radix4_q15.c ****     i0 = i0 + 1u;
 9179              		.loc 1 1670 0
 9180 1354 A923     		mov	r3, #169
 9181 1356 9B00     		lsl	r3, r3, #2
 9182 1358 FB18     		add	r3, r7, r3
 9183 135a 1B68     		ldr	r3, [r3]
 9184 135c 0133     		add	r3, r3, #1
 9185 135e A922     		mov	r2, #169
 9186 1360 9200     		lsl	r2, r2, #2
 9187 1362 BA18     		add	r2, r7, r2
 9188 1364 1360     		str	r3, [r2]
1671:Source\TransformFunctions/arm_cfft_radix4_q15.c **** 
1672:Source\TransformFunctions/arm_cfft_radix4_q15.c ****   } while (--j);
 9189              		.loc 1 1672 0
 9190 1366 A823     		mov	r3, #168
 9191 1368 9B00     		lsl	r3, r3, #2
 9192 136a FB18     		add	r3, r7, r3
 9193 136c 1B68     		ldr	r3, [r3]
 9194 136e 013B     		sub	r3, r3, #1
 9195 1370 A822     		mov	r2, #168
 9196 1372 9200     		lsl	r2, r2, #2
 9197 1374 BA18     		add	r2, r7, r2
 9198 1376 1360     		str	r3, [r2]
 9199 1378 A823     		mov	r3, #168
 9200 137a 9B00     		lsl	r3, r3, #2
 9201 137c FB18     		add	r3, r7, r3
 9202 137e 1B68     		ldr	r3, [r3]
 9203 1380 002B     		cmp	r3, #0
 9204 1382 01D0     		beq	.LCB8524
 9205 1384 FEF76CFE 		bl	.L334	@far jump
 9206              	.LCB8524:
1673:Source\TransformFunctions/arm_cfft_radix4_q15.c **** 
1674:Source\TransformFunctions/arm_cfft_radix4_q15.c ****   /*  End of first stage process */
1675:Source\TransformFunctions/arm_cfft_radix4_q15.c **** 
1676:Source\TransformFunctions/arm_cfft_radix4_q15.c ****   /* data is in 4.11(q11) format */
1677:Source\TransformFunctions/arm_cfft_radix4_q15.c **** 
1678:Source\TransformFunctions/arm_cfft_radix4_q15.c **** 
1679:Source\TransformFunctions/arm_cfft_radix4_q15.c ****   /*  Start of Middle stage process */
1680:Source\TransformFunctions/arm_cfft_radix4_q15.c **** 
1681:Source\TransformFunctions/arm_cfft_radix4_q15.c ****   /*  Twiddle coefficients index modifier */
1682:Source\TransformFunctions/arm_cfft_radix4_q15.c ****   twidCoefModifier <<= 2u;
 9207              		.loc 1 1682 0
 9208 1388 3B68     		ldr	r3, [r7]
 9209 138a 9B00     		lsl	r3, r3, #2
 9210 138c 3B60     		str	r3, [r7]
ARM GAS  C:\Users\fneves\AppData\Local\Temp\cc0ayw4Y.s 			page 214


1683:Source\TransformFunctions/arm_cfft_radix4_q15.c **** 
1684:Source\TransformFunctions/arm_cfft_radix4_q15.c ****   /*  Calculation of Middle stage */
1685:Source\TransformFunctions/arm_cfft_radix4_q15.c ****   for (k = fftLen / 4u; k > 4u; k >>= 2u)
 9211              		.loc 1 1685 0
 9212 138e BB68     		ldr	r3, [r7, #8]
 9213 1390 9B08     		lsr	r3, r3, #2
 9214 1392 A722     		mov	r2, #167
 9215 1394 9200     		lsl	r2, r2, #2
 9216 1396 BA18     		add	r2, r7, r2
 9217 1398 1360     		str	r3, [r2]
 9218 139a 00F0CBFE 		bl	.L335	@ far jump
 9219              	.L388:
1686:Source\TransformFunctions/arm_cfft_radix4_q15.c ****   {
1687:Source\TransformFunctions/arm_cfft_radix4_q15.c ****     /*  Initializations for the middle stage */
1688:Source\TransformFunctions/arm_cfft_radix4_q15.c ****     n1 = n2;
 9220              		.loc 1 1688 0
 9221 139e AB23     		mov	r3, #171
 9222 13a0 9B00     		lsl	r3, r3, #2
 9223 13a2 FB18     		add	r3, r7, r3
 9224 13a4 1B68     		ldr	r3, [r3]
 9225 13a6 A622     		mov	r2, #166
 9226 13a8 9200     		lsl	r2, r2, #2
 9227 13aa BA18     		add	r2, r7, r2
 9228 13ac 1360     		str	r3, [r2]
1689:Source\TransformFunctions/arm_cfft_radix4_q15.c ****     n2 >>= 2u;
 9229              		.loc 1 1689 0
 9230 13ae AB23     		mov	r3, #171
 9231 13b0 9B00     		lsl	r3, r3, #2
 9232 13b2 FB18     		add	r3, r7, r3
 9233 13b4 1B68     		ldr	r3, [r3]
 9234 13b6 9B08     		lsr	r3, r3, #2
 9235 13b8 AB22     		mov	r2, #171
 9236 13ba 9200     		lsl	r2, r2, #2
 9237 13bc BA18     		add	r2, r7, r2
 9238 13be 1360     		str	r3, [r2]
1690:Source\TransformFunctions/arm_cfft_radix4_q15.c ****     ic = 0u;
 9239              		.loc 1 1690 0
 9240 13c0 0023     		mov	r3, #0
 9241 13c2 AA22     		mov	r2, #170
 9242 13c4 9200     		lsl	r2, r2, #2
 9243 13c6 BA18     		add	r2, r7, r2
 9244 13c8 1360     		str	r3, [r2]
1691:Source\TransformFunctions/arm_cfft_radix4_q15.c **** 
1692:Source\TransformFunctions/arm_cfft_radix4_q15.c ****     for (j = 0u; j <= (n2 - 1u); j++)
 9245              		.loc 1 1692 0
 9246 13ca 0023     		mov	r3, #0
 9247 13cc A822     		mov	r2, #168
 9248 13ce 9200     		lsl	r2, r2, #2
 9249 13d0 BA18     		add	r2, r7, r2
 9250 13d2 1360     		str	r3, [r2]
 9251 13d4 00F095FE 		bl	.L336	@ far jump
 9252              	.L387:
1693:Source\TransformFunctions/arm_cfft_radix4_q15.c ****     {
1694:Source\TransformFunctions/arm_cfft_radix4_q15.c ****       /*  index calculation for the coefficients */
1695:Source\TransformFunctions/arm_cfft_radix4_q15.c ****       Co1 = pCoef16[ic * 2u];
 9253              		.loc 1 1695 0
 9254 13d8 AA23     		mov	r3, #170
ARM GAS  C:\Users\fneves\AppData\Local\Temp\cc0ayw4Y.s 			page 215


 9255 13da 9B00     		lsl	r3, r3, #2
 9256 13dc FB18     		add	r3, r7, r3
 9257 13de 1B68     		ldr	r3, [r3]
 9258 13e0 9B00     		lsl	r3, r3, #2
 9259 13e2 7A68     		ldr	r2, [r7, #4]
 9260 13e4 D218     		add	r2, r2, r3
 9261 13e6 684B     		ldr	r3, .L479
 9262 13e8 FB18     		add	r3, r7, r3
 9263 13ea 1288     		ldrh	r2, [r2]
 9264 13ec 1A80     		strh	r2, [r3]
1696:Source\TransformFunctions/arm_cfft_radix4_q15.c ****       Si1 = pCoef16[(ic * 2u) + 1u];
 9265              		.loc 1 1696 0
 9266 13ee AA23     		mov	r3, #170
 9267 13f0 9B00     		lsl	r3, r3, #2
 9268 13f2 FB18     		add	r3, r7, r3
 9269 13f4 1B68     		ldr	r3, [r3]
 9270 13f6 9B00     		lsl	r3, r3, #2
 9271 13f8 0233     		add	r3, r3, #2
 9272 13fa 7A68     		ldr	r2, [r7, #4]
 9273 13fc D218     		add	r2, r2, r3
 9274 13fe 9C23     		mov	r3, #156
 9275 1400 9B00     		lsl	r3, r3, #2
 9276 1402 FB18     		add	r3, r7, r3
 9277 1404 1288     		ldrh	r2, [r2]
 9278 1406 1A80     		strh	r2, [r3]
1697:Source\TransformFunctions/arm_cfft_radix4_q15.c ****       Co2 = pCoef16[2u * ic * 2u];
 9279              		.loc 1 1697 0
 9280 1408 AA23     		mov	r3, #170
 9281 140a 9B00     		lsl	r3, r3, #2
 9282 140c FB18     		add	r3, r7, r3
 9283 140e 1B68     		ldr	r3, [r3]
 9284 1410 DB00     		lsl	r3, r3, #3
 9285 1412 7A68     		ldr	r2, [r7, #4]
 9286 1414 D218     		add	r2, r2, r3
 9287 1416 614B     		ldr	r3, .L479+20
 9288 1418 FB18     		add	r3, r7, r3
 9289 141a 1288     		ldrh	r2, [r2]
 9290 141c 1A80     		strh	r2, [r3]
1698:Source\TransformFunctions/arm_cfft_radix4_q15.c ****       Si2 = pCoef16[2u * ic * 2u + 1u];
 9291              		.loc 1 1698 0
 9292 141e AA23     		mov	r3, #170
 9293 1420 9B00     		lsl	r3, r3, #2
 9294 1422 FB18     		add	r3, r7, r3
 9295 1424 1B68     		ldr	r3, [r3]
 9296 1426 DB00     		lsl	r3, r3, #3
 9297 1428 0233     		add	r3, r3, #2
 9298 142a 7A68     		ldr	r2, [r7, #4]
 9299 142c D218     		add	r2, r2, r3
 9300 142e 9E23     		mov	r3, #158
 9301 1430 9B00     		lsl	r3, r3, #2
 9302 1432 FB18     		add	r3, r7, r3
 9303 1434 1288     		ldrh	r2, [r2]
 9304 1436 1A80     		strh	r2, [r3]
1699:Source\TransformFunctions/arm_cfft_radix4_q15.c ****       Co3 = pCoef16[3u * ic * 2u];
 9305              		.loc 1 1699 0
 9306 1438 AA23     		mov	r3, #170
 9307 143a 9B00     		lsl	r3, r3, #2
ARM GAS  C:\Users\fneves\AppData\Local\Temp\cc0ayw4Y.s 			page 216


 9308 143c FB18     		add	r3, r7, r3
 9309 143e 1A68     		ldr	r2, [r3]
 9310 1440 131C     		mov	r3, r2
 9311 1442 5B00     		lsl	r3, r3, #1
 9312 1444 9B18     		add	r3, r3, r2
 9313 1446 9B00     		lsl	r3, r3, #2
 9314 1448 1A1C     		mov	r2, r3
 9315 144a 7B68     		ldr	r3, [r7, #4]
 9316 144c 9A18     		add	r2, r3, r2
 9317 144e 514B     		ldr	r3, .L479+12
 9318 1450 FB18     		add	r3, r7, r3
 9319 1452 1288     		ldrh	r2, [r2]
 9320 1454 1A80     		strh	r2, [r3]
1700:Source\TransformFunctions/arm_cfft_radix4_q15.c ****       Si3 = pCoef16[(3u * ic * 2u) + 1u];
 9321              		.loc 1 1700 0
 9322 1456 AA23     		mov	r3, #170
 9323 1458 9B00     		lsl	r3, r3, #2
 9324 145a FB18     		add	r3, r7, r3
 9325 145c 1A68     		ldr	r2, [r3]
 9326 145e 131C     		mov	r3, r2
 9327 1460 5B00     		lsl	r3, r3, #1
 9328 1462 9B18     		add	r3, r3, r2
 9329 1464 9B00     		lsl	r3, r3, #2
 9330 1466 0233     		add	r3, r3, #2
 9331 1468 7A68     		ldr	r2, [r7, #4]
 9332 146a D218     		add	r2, r2, r3
 9333 146c 9B23     		mov	r3, #155
 9334 146e 9B00     		lsl	r3, r3, #2
 9335 1470 FB18     		add	r3, r7, r3
 9336 1472 1288     		ldrh	r2, [r2]
 9337 1474 1A80     		strh	r2, [r3]
1701:Source\TransformFunctions/arm_cfft_radix4_q15.c **** 
1702:Source\TransformFunctions/arm_cfft_radix4_q15.c ****       /*  Twiddle coefficients index modifier */
1703:Source\TransformFunctions/arm_cfft_radix4_q15.c ****       ic = ic + twidCoefModifier;
 9338              		.loc 1 1703 0
 9339 1476 AA23     		mov	r3, #170
 9340 1478 9B00     		lsl	r3, r3, #2
 9341 147a FB18     		add	r3, r7, r3
 9342 147c 1A68     		ldr	r2, [r3]
 9343 147e 3B68     		ldr	r3, [r7]
 9344 1480 D318     		add	r3, r2, r3
 9345 1482 AA22     		mov	r2, #170
 9346 1484 9200     		lsl	r2, r2, #2
 9347 1486 BA18     		add	r2, r7, r2
 9348 1488 1360     		str	r3, [r2]
1704:Source\TransformFunctions/arm_cfft_radix4_q15.c **** 
1705:Source\TransformFunctions/arm_cfft_radix4_q15.c ****       /*  Butterfly implementation */
1706:Source\TransformFunctions/arm_cfft_radix4_q15.c ****       for (i0 = j; i0 < fftLen; i0 += n1)
 9349              		.loc 1 1706 0
 9350 148a A823     		mov	r3, #168
 9351 148c 9B00     		lsl	r3, r3, #2
 9352 148e FB18     		add	r3, r7, r3
 9353 1490 1B68     		ldr	r3, [r3]
 9354 1492 A922     		mov	r2, #169
 9355 1494 9200     		lsl	r2, r2, #2
 9356 1496 BA18     		add	r2, r7, r2
 9357 1498 1360     		str	r3, [r2]
ARM GAS  C:\Users\fneves\AppData\Local\Temp\cc0ayw4Y.s 			page 217


 9358 149a 00F020FE 		bl	.L337	@ far jump
 9359              	.L386:
1707:Source\TransformFunctions/arm_cfft_radix4_q15.c ****       {
1708:Source\TransformFunctions/arm_cfft_radix4_q15.c ****         /*  index calculation for the input as, */
1709:Source\TransformFunctions/arm_cfft_radix4_q15.c ****         /*  pSrc16[i0 + 0], pSrc16[i0 + fftLen/4], pSrc16[i0 + fftLen/2], pSrc16[i0 + 3fftLen/4] */
1710:Source\TransformFunctions/arm_cfft_radix4_q15.c ****         i1 = i0 + n2;
 9360              		.loc 1 1710 0 discriminator 3
 9361 149e A923     		mov	r3, #169
 9362 14a0 9B00     		lsl	r3, r3, #2
 9363 14a2 FB18     		add	r3, r7, r3
 9364 14a4 1A68     		ldr	r2, [r3]
 9365 14a6 AB23     		mov	r3, #171
 9366 14a8 9B00     		lsl	r3, r3, #2
 9367 14aa FB18     		add	r3, r7, r3
 9368 14ac 1B68     		ldr	r3, [r3]
 9369 14ae D318     		add	r3, r2, r3
 9370 14b0 A522     		mov	r2, #165
 9371 14b2 9200     		lsl	r2, r2, #2
 9372 14b4 BA18     		add	r2, r7, r2
 9373 14b6 1360     		str	r3, [r2]
1711:Source\TransformFunctions/arm_cfft_radix4_q15.c ****         i2 = i1 + n2;
 9374              		.loc 1 1711 0 discriminator 3
 9375 14b8 A523     		mov	r3, #165
 9376 14ba 9B00     		lsl	r3, r3, #2
 9377 14bc FB18     		add	r3, r7, r3
 9378 14be 1A68     		ldr	r2, [r3]
 9379 14c0 AB23     		mov	r3, #171
 9380 14c2 9B00     		lsl	r3, r3, #2
 9381 14c4 FB18     		add	r3, r7, r3
 9382 14c6 1B68     		ldr	r3, [r3]
 9383 14c8 D318     		add	r3, r2, r3
 9384 14ca A422     		mov	r2, #164
 9385 14cc 9200     		lsl	r2, r2, #2
 9386 14ce BA18     		add	r2, r7, r2
 9387 14d0 1360     		str	r3, [r2]
1712:Source\TransformFunctions/arm_cfft_radix4_q15.c ****         i3 = i2 + n2;
 9388              		.loc 1 1712 0 discriminator 3
 9389 14d2 A423     		mov	r3, #164
 9390 14d4 9B00     		lsl	r3, r3, #2
 9391 14d6 FB18     		add	r3, r7, r3
 9392 14d8 1A68     		ldr	r2, [r3]
 9393 14da AB23     		mov	r3, #171
 9394 14dc 9B00     		lsl	r3, r3, #2
 9395 14de FB18     		add	r3, r7, r3
 9396 14e0 1B68     		ldr	r3, [r3]
 9397 14e2 D318     		add	r3, r2, r3
 9398 14e4 A322     		mov	r2, #163
 9399 14e6 9200     		lsl	r2, r2, #2
 9400 14e8 BA18     		add	r2, r7, r2
 9401 14ea 1360     		str	r3, [r2]
1713:Source\TransformFunctions/arm_cfft_radix4_q15.c **** 
1714:Source\TransformFunctions/arm_cfft_radix4_q15.c ****         /*  Reading i0, i0+fftLen/2 inputs */
1715:Source\TransformFunctions/arm_cfft_radix4_q15.c ****         /* Read ya (real), xa(imag) input */
1716:Source\TransformFunctions/arm_cfft_radix4_q15.c ****         T0 = pSrc16[i0 * 2u];
 9402              		.loc 1 1716 0 discriminator 3
 9403 14ec A923     		mov	r3, #169
 9404 14ee 9B00     		lsl	r3, r3, #2
ARM GAS  C:\Users\fneves\AppData\Local\Temp\cc0ayw4Y.s 			page 218


 9405 14f0 FB18     		add	r3, r7, r3
 9406 14f2 1B68     		ldr	r3, [r3]
 9407 14f4 9B00     		lsl	r3, r3, #2
 9408 14f6 FA68     		ldr	r2, [r7, #12]
 9409 14f8 D218     		add	r2, r2, r3
 9410 14fa 294B     		ldr	r3, .L479+24
 9411 14fc FB18     		add	r3, r7, r3
 9412 14fe 1288     		ldrh	r2, [r2]
 9413 1500 1A80     		strh	r2, [r3]
1717:Source\TransformFunctions/arm_cfft_radix4_q15.c ****         T1 = pSrc16[(i0 * 2u) + 1u];
 9414              		.loc 1 1717 0 discriminator 3
 9415 1502 A923     		mov	r3, #169
 9416 1504 9B00     		lsl	r3, r3, #2
 9417 1506 FB18     		add	r3, r7, r3
 9418 1508 1B68     		ldr	r3, [r3]
 9419 150a 9B00     		lsl	r3, r3, #2
 9420 150c 0233     		add	r3, r3, #2
 9421 150e FA68     		ldr	r2, [r7, #12]
 9422 1510 D218     		add	r2, r2, r3
 9423 1512 A223     		mov	r3, #162
 9424 1514 9B00     		lsl	r3, r3, #2
 9425 1516 FB18     		add	r3, r7, r3
 9426 1518 1288     		ldrh	r2, [r2]
 9427 151a 1A80     		strh	r2, [r3]
1718:Source\TransformFunctions/arm_cfft_radix4_q15.c **** 
1719:Source\TransformFunctions/arm_cfft_radix4_q15.c ****         /* Read yc (real), xc(imag) input */
1720:Source\TransformFunctions/arm_cfft_radix4_q15.c ****         S0 = pSrc16[i2 * 2u];
 9428              		.loc 1 1720 0 discriminator 3
 9429 151c A423     		mov	r3, #164
 9430 151e 9B00     		lsl	r3, r3, #2
 9431 1520 FB18     		add	r3, r7, r3
 9432 1522 1B68     		ldr	r3, [r3]
 9433 1524 9B00     		lsl	r3, r3, #2
 9434 1526 FA68     		ldr	r2, [r7, #12]
 9435 1528 D218     		add	r2, r2, r3
 9436 152a 184B     		ldr	r3, .L479+4
 9437 152c FB18     		add	r3, r7, r3
 9438 152e 1288     		ldrh	r2, [r2]
 9439 1530 1A80     		strh	r2, [r3]
1721:Source\TransformFunctions/arm_cfft_radix4_q15.c ****         S1 = pSrc16[(i2 * 2u) + 1u];
 9440              		.loc 1 1721 0 discriminator 3
 9441 1532 A423     		mov	r3, #164
 9442 1534 9B00     		lsl	r3, r3, #2
 9443 1536 FB18     		add	r3, r7, r3
 9444 1538 1B68     		ldr	r3, [r3]
 9445 153a 9B00     		lsl	r3, r3, #2
 9446 153c 0233     		add	r3, r3, #2
 9447 153e FA68     		ldr	r2, [r7, #12]
 9448 1540 D218     		add	r2, r2, r3
 9449 1542 A123     		mov	r3, #161
 9450 1544 9B00     		lsl	r3, r3, #2
 9451 1546 FB18     		add	r3, r7, r3
 9452 1548 1288     		ldrh	r2, [r2]
 9453 154a 1A80     		strh	r2, [r3]
1722:Source\TransformFunctions/arm_cfft_radix4_q15.c **** 
1723:Source\TransformFunctions/arm_cfft_radix4_q15.c **** 
1724:Source\TransformFunctions/arm_cfft_radix4_q15.c ****         /* R0 = (ya + yc), R1 = (xa + xc) */
ARM GAS  C:\Users\fneves\AppData\Local\Temp\cc0ayw4Y.s 			page 219


1725:Source\TransformFunctions/arm_cfft_radix4_q15.c ****         R0 = __SSAT(T0 + S0, 16u);
 9454              		.loc 1 1725 0 discriminator 3
 9455 154c 144B     		ldr	r3, .L479+24
 9456 154e FB18     		add	r3, r7, r3
 9457 1550 0022     		mov	r2, #0
 9458 1552 9A5E     		ldrsh	r2, [r3, r2]
 9459 1554 0D4B     		ldr	r3, .L479+4
 9460 1556 FB18     		add	r3, r7, r3
 9461 1558 0021     		mov	r1, #0
 9462 155a 5B5E     		ldrsh	r3, [r3, r1]
 9463 155c D318     		add	r3, r2, r3
 9464 155e A822     		mov	r2, #168
 9465 1560 5200     		lsl	r2, r2, #1
 9466 1562 BA18     		add	r2, r7, r2
 9467 1564 1360     		str	r3, [r2]
 9468 1566 1023     		mov	r3, #16
 9469 1568 A622     		mov	r2, #166
 9470 156a 5200     		lsl	r2, r2, #1
 9471 156c BA18     		add	r2, r7, r2
 9472 156e 1360     		str	r3, [r2]
 9473              	.LBB210:
 9474              	.LBB211:
 699:.\Include/arm_math.h ****     for (i = 0; i < (y - 1); i++)
 9475              		.loc 2 699 0 discriminator 3
 9476 1570 0123     		mov	r3, #1
 9477 1572 A422     		mov	r2, #164
 9478 1574 5200     		lsl	r2, r2, #1
 9479 1576 BA18     		add	r2, r7, r2
 9480 1578 1360     		str	r3, [r2]
 700:.\Include/arm_math.h ****     {
 9481              		.loc 2 700 0 discriminator 3
 9482 157a 0023     		mov	r3, #0
 9483 157c A222     		mov	r2, #162
 9484 157e 5200     		lsl	r2, r2, #1
 9485 1580 BA18     		add	r2, r7, r2
 9486 1582 1360     		str	r3, [r2]
 9487 1584 20E0     		b	.L338
 9488              	.L480:
 9489 1586 C046     		.align	2
 9490              	.L479:
 9491 1588 72020000 		.word	626
 9492 158c 86020000 		.word	646
 9493 1590 76020000 		.word	630
 9494 1594 6E020000 		.word	622
 9495 1598 82020000 		.word	642
 9496 159c 7A020000 		.word	634
 9497 15a0 8A020000 		.word	650
 9498              	.L339:
 702:.\Include/arm_math.h ****     }
 9499              		.loc 2 702 0
 9500 15a4 A423     		mov	r3, #164
 9501 15a6 5B00     		lsl	r3, r3, #1
 9502 15a8 FB18     		add	r3, r7, r3
 9503 15aa 1B68     		ldr	r3, [r3]
 9504 15ac 5B00     		lsl	r3, r3, #1
 9505 15ae A422     		mov	r2, #164
 9506 15b0 5200     		lsl	r2, r2, #1
ARM GAS  C:\Users\fneves\AppData\Local\Temp\cc0ayw4Y.s 			page 220


 9507 15b2 BA18     		add	r2, r7, r2
 9508 15b4 1360     		str	r3, [r2]
 700:.\Include/arm_math.h ****     {
 9509              		.loc 2 700 0
 9510 15b6 A223     		mov	r3, #162
 9511 15b8 5B00     		lsl	r3, r3, #1
 9512 15ba FB18     		add	r3, r7, r3
 9513 15bc 1B68     		ldr	r3, [r3]
 9514 15be 0133     		add	r3, r3, #1
 9515 15c0 A222     		mov	r2, #162
 9516 15c2 5200     		lsl	r2, r2, #1
 9517 15c4 BA18     		add	r2, r7, r2
 9518 15c6 1360     		str	r3, [r2]
 9519              	.L338:
 9520 15c8 A623     		mov	r3, #166
 9521 15ca 5B00     		lsl	r3, r3, #1
 9522 15cc FB18     		add	r3, r7, r3
 9523 15ce 1B68     		ldr	r3, [r3]
 9524 15d0 013B     		sub	r3, r3, #1
 9525 15d2 A222     		mov	r2, #162
 9526 15d4 5200     		lsl	r2, r2, #1
 9527 15d6 BA18     		add	r2, r7, r2
 9528 15d8 1268     		ldr	r2, [r2]
 9529 15da 9A42     		cmp	r2, r3
 9530 15dc E2D3     		bcc	.L339
 705:.\Include/arm_math.h ****     {
 9531              		.loc 2 705 0
 9532 15de A823     		mov	r3, #168
 9533 15e0 5B00     		lsl	r3, r3, #1
 9534 15e2 FB18     		add	r3, r7, r3
 9535 15e4 1B68     		ldr	r3, [r3]
 9536 15e6 002B     		cmp	r3, #0
 9537 15e8 1BDD     		ble	.L340
 707:.\Include/arm_math.h **** 
 9538              		.loc 2 707 0
 9539 15ea A423     		mov	r3, #164
 9540 15ec 5B00     		lsl	r3, r3, #1
 9541 15ee FB18     		add	r3, r7, r3
 9542 15f0 1B68     		ldr	r3, [r3]
 9543 15f2 013B     		sub	r3, r3, #1
 9544 15f4 A422     		mov	r2, #164
 9545 15f6 5200     		lsl	r2, r2, #1
 9546 15f8 BA18     		add	r2, r7, r2
 9547 15fa 1360     		str	r3, [r2]
 709:.\Include/arm_math.h ****       {
 9548              		.loc 2 709 0
 9549 15fc A823     		mov	r3, #168
 9550 15fe 5B00     		lsl	r3, r3, #1
 9551 1600 FB18     		add	r3, r7, r3
 9552 1602 1A68     		ldr	r2, [r3]
 9553 1604 A423     		mov	r3, #164
 9554 1606 5B00     		lsl	r3, r3, #1
 9555 1608 FB18     		add	r3, r7, r3
 9556 160a 1B68     		ldr	r3, [r3]
 9557 160c 9A42     		cmp	r2, r3
 9558 160e 24DD     		ble	.L453
 711:.\Include/arm_math.h ****       }
ARM GAS  C:\Users\fneves\AppData\Local\Temp\cc0ayw4Y.s 			page 221


 9559              		.loc 2 711 0
 9560 1610 A423     		mov	r3, #164
 9561 1612 5B00     		lsl	r3, r3, #1
 9562 1614 FB18     		add	r3, r7, r3
 9563 1616 1B68     		ldr	r3, [r3]
 9564 1618 A822     		mov	r2, #168
 9565 161a 5200     		lsl	r2, r2, #1
 9566 161c BA18     		add	r2, r7, r2
 9567 161e 1360     		str	r3, [r2]
 9568 1620 1CE0     		b	.L342
 9569              	.L340:
 716:.\Include/arm_math.h **** 
 9570              		.loc 2 716 0
 9571 1622 A423     		mov	r3, #164
 9572 1624 5B00     		lsl	r3, r3, #1
 9573 1626 FB18     		add	r3, r7, r3
 9574 1628 1B68     		ldr	r3, [r3]
 9575 162a 5B42     		neg	r3, r3
 9576 162c A022     		mov	r2, #160
 9577 162e 5200     		lsl	r2, r2, #1
 9578 1630 BA18     		add	r2, r7, r2
 9579 1632 1360     		str	r3, [r2]
 718:.\Include/arm_math.h ****       {
 9580              		.loc 2 718 0
 9581 1634 A823     		mov	r3, #168
 9582 1636 5B00     		lsl	r3, r3, #1
 9583 1638 FB18     		add	r3, r7, r3
 9584 163a 1A68     		ldr	r2, [r3]
 9585 163c A023     		mov	r3, #160
 9586 163e 5B00     		lsl	r3, r3, #1
 9587 1640 FB18     		add	r3, r7, r3
 9588 1642 1B68     		ldr	r3, [r3]
 9589 1644 9A42     		cmp	r2, r3
 9590 1646 09DA     		bge	.L342
 720:.\Include/arm_math.h ****       }
 9591              		.loc 2 720 0
 9592 1648 A023     		mov	r3, #160
 9593 164a 5B00     		lsl	r3, r3, #1
 9594 164c FB18     		add	r3, r7, r3
 9595 164e 1B68     		ldr	r3, [r3]
 9596 1650 A822     		mov	r2, #168
 9597 1652 5200     		lsl	r2, r2, #1
 9598 1654 BA18     		add	r2, r7, r2
 9599 1656 1360     		str	r3, [r2]
 9600 1658 00E0     		b	.L342
 9601              	.L453:
 711:.\Include/arm_math.h ****       }
 9602              		.loc 2 711 0
 9603 165a C046     		mov	r8, r8
 9604              	.L342:
 9605              		.loc 2 723 0
 9606 165c A823     		mov	r3, #168
 9607 165e 5B00     		lsl	r3, r3, #1
 9608 1660 FB18     		add	r3, r7, r3
 9609 1662 1A68     		ldr	r2, [r3]
 9610              	.LBE211:
 9611              	.LBE210:
ARM GAS  C:\Users\fneves\AppData\Local\Temp\cc0ayw4Y.s 			page 222


 9612              		.loc 1 1725 0
 9613 1664 E74B     		ldr	r3, .L481
 9614 1666 FB18     		add	r3, r7, r3
 9615 1668 1A80     		strh	r2, [r3]
1726:Source\TransformFunctions/arm_cfft_radix4_q15.c ****         R1 = __SSAT(T1 + S1, 16u);
 9616              		.loc 1 1726 0
 9617 166a A223     		mov	r3, #162
 9618 166c 9B00     		lsl	r3, r3, #2
 9619 166e FB18     		add	r3, r7, r3
 9620 1670 0022     		mov	r2, #0
 9621 1672 9A5E     		ldrsh	r2, [r3, r2]
 9622 1674 A123     		mov	r3, #161
 9623 1676 9B00     		lsl	r3, r3, #2
 9624 1678 FB18     		add	r3, r7, r3
 9625 167a 0021     		mov	r1, #0
 9626 167c 5B5E     		ldrsh	r3, [r3, r1]
 9627 167e D318     		add	r3, r2, r3
 9628 1680 9E22     		mov	r2, #158
 9629 1682 5200     		lsl	r2, r2, #1
 9630 1684 BA18     		add	r2, r7, r2
 9631 1686 1360     		str	r3, [r2]
 9632 1688 1023     		mov	r3, #16
 9633 168a 9C22     		mov	r2, #156
 9634 168c 5200     		lsl	r2, r2, #1
 9635 168e BA18     		add	r2, r7, r2
 9636 1690 1360     		str	r3, [r2]
 9637              	.LBB212:
 9638              	.LBB213:
 699:.\Include/arm_math.h ****     for (i = 0; i < (y - 1); i++)
 9639              		.loc 2 699 0
 9640 1692 0123     		mov	r3, #1
 9641 1694 9A22     		mov	r2, #154
 9642 1696 5200     		lsl	r2, r2, #1
 9643 1698 BA18     		add	r2, r7, r2
 9644 169a 1360     		str	r3, [r2]
 700:.\Include/arm_math.h ****     {
 9645              		.loc 2 700 0
 9646 169c 0023     		mov	r3, #0
 9647 169e 9822     		mov	r2, #152
 9648 16a0 5200     		lsl	r2, r2, #1
 9649 16a2 BA18     		add	r2, r7, r2
 9650 16a4 1360     		str	r3, [r2]
 9651 16a6 11E0     		b	.L344
 9652              	.L345:
 702:.\Include/arm_math.h ****     }
 9653              		.loc 2 702 0
 9654 16a8 9A23     		mov	r3, #154
 9655 16aa 5B00     		lsl	r3, r3, #1
 9656 16ac FB18     		add	r3, r7, r3
 9657 16ae 1B68     		ldr	r3, [r3]
 9658 16b0 5B00     		lsl	r3, r3, #1
 9659 16b2 9A22     		mov	r2, #154
 9660 16b4 5200     		lsl	r2, r2, #1
 9661 16b6 BA18     		add	r2, r7, r2
 9662 16b8 1360     		str	r3, [r2]
 700:.\Include/arm_math.h ****     {
 9663              		.loc 2 700 0
ARM GAS  C:\Users\fneves\AppData\Local\Temp\cc0ayw4Y.s 			page 223


 9664 16ba 9823     		mov	r3, #152
 9665 16bc 5B00     		lsl	r3, r3, #1
 9666 16be FB18     		add	r3, r7, r3
 9667 16c0 1B68     		ldr	r3, [r3]
 9668 16c2 0133     		add	r3, r3, #1
 9669 16c4 9822     		mov	r2, #152
 9670 16c6 5200     		lsl	r2, r2, #1
 9671 16c8 BA18     		add	r2, r7, r2
 9672 16ca 1360     		str	r3, [r2]
 9673              	.L344:
 9674 16cc 9C23     		mov	r3, #156
 9675 16ce 5B00     		lsl	r3, r3, #1
 9676 16d0 FB18     		add	r3, r7, r3
 9677 16d2 1B68     		ldr	r3, [r3]
 9678 16d4 013B     		sub	r3, r3, #1
 9679 16d6 9822     		mov	r2, #152
 9680 16d8 5200     		lsl	r2, r2, #1
 9681 16da BA18     		add	r2, r7, r2
 9682 16dc 1268     		ldr	r2, [r2]
 9683 16de 9A42     		cmp	r2, r3
 9684 16e0 E2D3     		bcc	.L345
 705:.\Include/arm_math.h ****     {
 9685              		.loc 2 705 0
 9686 16e2 9E23     		mov	r3, #158
 9687 16e4 5B00     		lsl	r3, r3, #1
 9688 16e6 FB18     		add	r3, r7, r3
 9689 16e8 1B68     		ldr	r3, [r3]
 9690 16ea 002B     		cmp	r3, #0
 9691 16ec 1BDD     		ble	.L346
 707:.\Include/arm_math.h **** 
 9692              		.loc 2 707 0
 9693 16ee 9A23     		mov	r3, #154
 9694 16f0 5B00     		lsl	r3, r3, #1
 9695 16f2 FB18     		add	r3, r7, r3
 9696 16f4 1B68     		ldr	r3, [r3]
 9697 16f6 013B     		sub	r3, r3, #1
 9698 16f8 9A22     		mov	r2, #154
 9699 16fa 5200     		lsl	r2, r2, #1
 9700 16fc BA18     		add	r2, r7, r2
 9701 16fe 1360     		str	r3, [r2]
 709:.\Include/arm_math.h ****       {
 9702              		.loc 2 709 0
 9703 1700 9E23     		mov	r3, #158
 9704 1702 5B00     		lsl	r3, r3, #1
 9705 1704 FB18     		add	r3, r7, r3
 9706 1706 1A68     		ldr	r2, [r3]
 9707 1708 9A23     		mov	r3, #154
 9708 170a 5B00     		lsl	r3, r3, #1
 9709 170c FB18     		add	r3, r7, r3
 9710 170e 1B68     		ldr	r3, [r3]
 9711 1710 9A42     		cmp	r2, r3
 9712 1712 24DD     		ble	.L454
 711:.\Include/arm_math.h ****       }
 9713              		.loc 2 711 0
 9714 1714 9A23     		mov	r3, #154
 9715 1716 5B00     		lsl	r3, r3, #1
 9716 1718 FB18     		add	r3, r7, r3
ARM GAS  C:\Users\fneves\AppData\Local\Temp\cc0ayw4Y.s 			page 224


 9717 171a 1B68     		ldr	r3, [r3]
 9718 171c 9E22     		mov	r2, #158
 9719 171e 5200     		lsl	r2, r2, #1
 9720 1720 BA18     		add	r2, r7, r2
 9721 1722 1360     		str	r3, [r2]
 9722 1724 1CE0     		b	.L348
 9723              	.L346:
 716:.\Include/arm_math.h **** 
 9724              		.loc 2 716 0
 9725 1726 9A23     		mov	r3, #154
 9726 1728 5B00     		lsl	r3, r3, #1
 9727 172a FB18     		add	r3, r7, r3
 9728 172c 1B68     		ldr	r3, [r3]
 9729 172e 5B42     		neg	r3, r3
 9730 1730 9622     		mov	r2, #150
 9731 1732 5200     		lsl	r2, r2, #1
 9732 1734 BA18     		add	r2, r7, r2
 9733 1736 1360     		str	r3, [r2]
 718:.\Include/arm_math.h ****       {
 9734              		.loc 2 718 0
 9735 1738 9E23     		mov	r3, #158
 9736 173a 5B00     		lsl	r3, r3, #1
 9737 173c FB18     		add	r3, r7, r3
 9738 173e 1A68     		ldr	r2, [r3]
 9739 1740 9623     		mov	r3, #150
 9740 1742 5B00     		lsl	r3, r3, #1
 9741 1744 FB18     		add	r3, r7, r3
 9742 1746 1B68     		ldr	r3, [r3]
 9743 1748 9A42     		cmp	r2, r3
 9744 174a 09DA     		bge	.L348
 720:.\Include/arm_math.h ****       }
 9745              		.loc 2 720 0
 9746 174c 9623     		mov	r3, #150
 9747 174e 5B00     		lsl	r3, r3, #1
 9748 1750 FB18     		add	r3, r7, r3
 9749 1752 1B68     		ldr	r3, [r3]
 9750 1754 9E22     		mov	r2, #158
 9751 1756 5200     		lsl	r2, r2, #1
 9752 1758 BA18     		add	r2, r7, r2
 9753 175a 1360     		str	r3, [r2]
 9754 175c 00E0     		b	.L348
 9755              	.L454:
 711:.\Include/arm_math.h ****       }
 9756              		.loc 2 711 0
 9757 175e C046     		mov	r8, r8
 9758              	.L348:
 9759              		.loc 2 723 0
 9760 1760 9E23     		mov	r3, #158
 9761 1762 5B00     		lsl	r3, r3, #1
 9762 1764 FB18     		add	r3, r7, r3
 9763 1766 1A68     		ldr	r2, [r3]
 9764              	.LBE213:
 9765              	.LBE212:
 9766              		.loc 1 1726 0
 9767 1768 A023     		mov	r3, #160
 9768 176a 9B00     		lsl	r3, r3, #2
 9769 176c FB18     		add	r3, r7, r3
ARM GAS  C:\Users\fneves\AppData\Local\Temp\cc0ayw4Y.s 			page 225


 9770 176e 1A80     		strh	r2, [r3]
1727:Source\TransformFunctions/arm_cfft_radix4_q15.c ****         /* S0 = (ya - yc), S1 = (xa - xc) */
1728:Source\TransformFunctions/arm_cfft_radix4_q15.c ****         S0 = __SSAT(T0 - S0, 16u);
 9771              		.loc 1 1728 0
 9772 1770 A54B     		ldr	r3, .L481+4
 9773 1772 FB18     		add	r3, r7, r3
 9774 1774 0022     		mov	r2, #0
 9775 1776 9A5E     		ldrsh	r2, [r3, r2]
 9776 1778 A44B     		ldr	r3, .L481+8
 9777 177a FB18     		add	r3, r7, r3
 9778 177c 0021     		mov	r1, #0
 9779 177e 5B5E     		ldrsh	r3, [r3, r1]
 9780 1780 D31A     		sub	r3, r2, r3
 9781 1782 9422     		mov	r2, #148
 9782 1784 5200     		lsl	r2, r2, #1
 9783 1786 BA18     		add	r2, r7, r2
 9784 1788 1360     		str	r3, [r2]
 9785 178a 1023     		mov	r3, #16
 9786 178c 9222     		mov	r2, #146
 9787 178e 5200     		lsl	r2, r2, #1
 9788 1790 BA18     		add	r2, r7, r2
 9789 1792 1360     		str	r3, [r2]
 9790              	.LBB214:
 9791              	.LBB215:
 699:.\Include/arm_math.h ****     for (i = 0; i < (y - 1); i++)
 9792              		.loc 2 699 0
 9793 1794 0123     		mov	r3, #1
 9794 1796 9022     		mov	r2, #144
 9795 1798 5200     		lsl	r2, r2, #1
 9796 179a BA18     		add	r2, r7, r2
 9797 179c 1360     		str	r3, [r2]
 700:.\Include/arm_math.h ****     {
 9798              		.loc 2 700 0
 9799 179e 0023     		mov	r3, #0
 9800 17a0 8E22     		mov	r2, #142
 9801 17a2 5200     		lsl	r2, r2, #1
 9802 17a4 BA18     		add	r2, r7, r2
 9803 17a6 1360     		str	r3, [r2]
 9804 17a8 11E0     		b	.L350
 9805              	.L351:
 702:.\Include/arm_math.h ****     }
 9806              		.loc 2 702 0
 9807 17aa 9023     		mov	r3, #144
 9808 17ac 5B00     		lsl	r3, r3, #1
 9809 17ae FB18     		add	r3, r7, r3
 9810 17b0 1B68     		ldr	r3, [r3]
 9811 17b2 5B00     		lsl	r3, r3, #1
 9812 17b4 9022     		mov	r2, #144
 9813 17b6 5200     		lsl	r2, r2, #1
 9814 17b8 BA18     		add	r2, r7, r2
 9815 17ba 1360     		str	r3, [r2]
 700:.\Include/arm_math.h ****     {
 9816              		.loc 2 700 0
 9817 17bc 8E23     		mov	r3, #142
 9818 17be 5B00     		lsl	r3, r3, #1
 9819 17c0 FB18     		add	r3, r7, r3
 9820 17c2 1B68     		ldr	r3, [r3]
ARM GAS  C:\Users\fneves\AppData\Local\Temp\cc0ayw4Y.s 			page 226


 9821 17c4 0133     		add	r3, r3, #1
 9822 17c6 8E22     		mov	r2, #142
 9823 17c8 5200     		lsl	r2, r2, #1
 9824 17ca BA18     		add	r2, r7, r2
 9825 17cc 1360     		str	r3, [r2]
 9826              	.L350:
 9827 17ce 9223     		mov	r3, #146
 9828 17d0 5B00     		lsl	r3, r3, #1
 9829 17d2 FB18     		add	r3, r7, r3
 9830 17d4 1B68     		ldr	r3, [r3]
 9831 17d6 013B     		sub	r3, r3, #1
 9832 17d8 8E22     		mov	r2, #142
 9833 17da 5200     		lsl	r2, r2, #1
 9834 17dc BA18     		add	r2, r7, r2
 9835 17de 1268     		ldr	r2, [r2]
 9836 17e0 9A42     		cmp	r2, r3
 9837 17e2 E2D3     		bcc	.L351
 705:.\Include/arm_math.h ****     {
 9838              		.loc 2 705 0
 9839 17e4 9423     		mov	r3, #148
 9840 17e6 5B00     		lsl	r3, r3, #1
 9841 17e8 FB18     		add	r3, r7, r3
 9842 17ea 1B68     		ldr	r3, [r3]
 9843 17ec 002B     		cmp	r3, #0
 9844 17ee 1BDD     		ble	.L352
 707:.\Include/arm_math.h **** 
 9845              		.loc 2 707 0
 9846 17f0 9023     		mov	r3, #144
 9847 17f2 5B00     		lsl	r3, r3, #1
 9848 17f4 FB18     		add	r3, r7, r3
 9849 17f6 1B68     		ldr	r3, [r3]
 9850 17f8 013B     		sub	r3, r3, #1
 9851 17fa 9022     		mov	r2, #144
 9852 17fc 5200     		lsl	r2, r2, #1
 9853 17fe BA18     		add	r2, r7, r2
 9854 1800 1360     		str	r3, [r2]
 709:.\Include/arm_math.h ****       {
 9855              		.loc 2 709 0
 9856 1802 9423     		mov	r3, #148
 9857 1804 5B00     		lsl	r3, r3, #1
 9858 1806 FB18     		add	r3, r7, r3
 9859 1808 1A68     		ldr	r2, [r3]
 9860 180a 9023     		mov	r3, #144
 9861 180c 5B00     		lsl	r3, r3, #1
 9862 180e FB18     		add	r3, r7, r3
 9863 1810 1B68     		ldr	r3, [r3]
 9864 1812 9A42     		cmp	r2, r3
 9865 1814 24DD     		ble	.L455
 711:.\Include/arm_math.h ****       }
 9866              		.loc 2 711 0
 9867 1816 9023     		mov	r3, #144
 9868 1818 5B00     		lsl	r3, r3, #1
 9869 181a FB18     		add	r3, r7, r3
 9870 181c 1B68     		ldr	r3, [r3]
 9871 181e 9422     		mov	r2, #148
 9872 1820 5200     		lsl	r2, r2, #1
 9873 1822 BA18     		add	r2, r7, r2
ARM GAS  C:\Users\fneves\AppData\Local\Temp\cc0ayw4Y.s 			page 227


 9874 1824 1360     		str	r3, [r2]
 9875 1826 1CE0     		b	.L354
 9876              	.L352:
 716:.\Include/arm_math.h **** 
 9877              		.loc 2 716 0
 9878 1828 9023     		mov	r3, #144
 9879 182a 5B00     		lsl	r3, r3, #1
 9880 182c FB18     		add	r3, r7, r3
 9881 182e 1B68     		ldr	r3, [r3]
 9882 1830 5B42     		neg	r3, r3
 9883 1832 8C22     		mov	r2, #140
 9884 1834 5200     		lsl	r2, r2, #1
 9885 1836 BA18     		add	r2, r7, r2
 9886 1838 1360     		str	r3, [r2]
 718:.\Include/arm_math.h ****       {
 9887              		.loc 2 718 0
 9888 183a 9423     		mov	r3, #148
 9889 183c 5B00     		lsl	r3, r3, #1
 9890 183e FB18     		add	r3, r7, r3
 9891 1840 1A68     		ldr	r2, [r3]
 9892 1842 8C23     		mov	r3, #140
 9893 1844 5B00     		lsl	r3, r3, #1
 9894 1846 FB18     		add	r3, r7, r3
 9895 1848 1B68     		ldr	r3, [r3]
 9896 184a 9A42     		cmp	r2, r3
 9897 184c 09DA     		bge	.L354
 720:.\Include/arm_math.h ****       }
 9898              		.loc 2 720 0
 9899 184e 8C23     		mov	r3, #140
 9900 1850 5B00     		lsl	r3, r3, #1
 9901 1852 FB18     		add	r3, r7, r3
 9902 1854 1B68     		ldr	r3, [r3]
 9903 1856 9422     		mov	r2, #148
 9904 1858 5200     		lsl	r2, r2, #1
 9905 185a BA18     		add	r2, r7, r2
 9906 185c 1360     		str	r3, [r2]
 9907 185e 00E0     		b	.L354
 9908              	.L455:
 711:.\Include/arm_math.h ****       }
 9909              		.loc 2 711 0
 9910 1860 C046     		mov	r8, r8
 9911              	.L354:
 9912              		.loc 2 723 0
 9913 1862 9423     		mov	r3, #148
 9914 1864 5B00     		lsl	r3, r3, #1
 9915 1866 FB18     		add	r3, r7, r3
 9916 1868 1A68     		ldr	r2, [r3]
 9917              	.LBE215:
 9918              	.LBE214:
 9919              		.loc 1 1728 0
 9920 186a 684B     		ldr	r3, .L481+8
 9921 186c FB18     		add	r3, r7, r3
 9922 186e 1A80     		strh	r2, [r3]
1729:Source\TransformFunctions/arm_cfft_radix4_q15.c ****         S1 = __SSAT(T1 - S1, 16u);
 9923              		.loc 1 1729 0
 9924 1870 A223     		mov	r3, #162
 9925 1872 9B00     		lsl	r3, r3, #2
ARM GAS  C:\Users\fneves\AppData\Local\Temp\cc0ayw4Y.s 			page 228


 9926 1874 FB18     		add	r3, r7, r3
 9927 1876 0022     		mov	r2, #0
 9928 1878 9A5E     		ldrsh	r2, [r3, r2]
 9929 187a A123     		mov	r3, #161
 9930 187c 9B00     		lsl	r3, r3, #2
 9931 187e FB18     		add	r3, r7, r3
 9932 1880 0021     		mov	r1, #0
 9933 1882 5B5E     		ldrsh	r3, [r3, r1]
 9934 1884 D31A     		sub	r3, r2, r3
 9935 1886 8A22     		mov	r2, #138
 9936 1888 5200     		lsl	r2, r2, #1
 9937 188a BA18     		add	r2, r7, r2
 9938 188c 1360     		str	r3, [r2]
 9939 188e 1023     		mov	r3, #16
 9940 1890 8822     		mov	r2, #136
 9941 1892 5200     		lsl	r2, r2, #1
 9942 1894 BA18     		add	r2, r7, r2
 9943 1896 1360     		str	r3, [r2]
 9944              	.LBB216:
 9945              	.LBB217:
 699:.\Include/arm_math.h ****     for (i = 0; i < (y - 1); i++)
 9946              		.loc 2 699 0
 9947 1898 0123     		mov	r3, #1
 9948 189a 8622     		mov	r2, #134
 9949 189c 5200     		lsl	r2, r2, #1
 9950 189e BA18     		add	r2, r7, r2
 9951 18a0 1360     		str	r3, [r2]
 700:.\Include/arm_math.h ****     {
 9952              		.loc 2 700 0
 9953 18a2 0023     		mov	r3, #0
 9954 18a4 8422     		mov	r2, #132
 9955 18a6 5200     		lsl	r2, r2, #1
 9956 18a8 BA18     		add	r2, r7, r2
 9957 18aa 1360     		str	r3, [r2]
 9958 18ac 11E0     		b	.L356
 9959              	.L357:
 702:.\Include/arm_math.h ****     }
 9960              		.loc 2 702 0
 9961 18ae 8623     		mov	r3, #134
 9962 18b0 5B00     		lsl	r3, r3, #1
 9963 18b2 FB18     		add	r3, r7, r3
 9964 18b4 1B68     		ldr	r3, [r3]
 9965 18b6 5B00     		lsl	r3, r3, #1
 9966 18b8 8622     		mov	r2, #134
 9967 18ba 5200     		lsl	r2, r2, #1
 9968 18bc BA18     		add	r2, r7, r2
 9969 18be 1360     		str	r3, [r2]
 700:.\Include/arm_math.h ****     {
 9970              		.loc 2 700 0
 9971 18c0 8423     		mov	r3, #132
 9972 18c2 5B00     		lsl	r3, r3, #1
 9973 18c4 FB18     		add	r3, r7, r3
 9974 18c6 1B68     		ldr	r3, [r3]
 9975 18c8 0133     		add	r3, r3, #1
 9976 18ca 8422     		mov	r2, #132
 9977 18cc 5200     		lsl	r2, r2, #1
 9978 18ce BA18     		add	r2, r7, r2
ARM GAS  C:\Users\fneves\AppData\Local\Temp\cc0ayw4Y.s 			page 229


 9979 18d0 1360     		str	r3, [r2]
 9980              	.L356:
 9981 18d2 8823     		mov	r3, #136
 9982 18d4 5B00     		lsl	r3, r3, #1
 9983 18d6 FB18     		add	r3, r7, r3
 9984 18d8 1B68     		ldr	r3, [r3]
 9985 18da 013B     		sub	r3, r3, #1
 9986 18dc 8422     		mov	r2, #132
 9987 18de 5200     		lsl	r2, r2, #1
 9988 18e0 BA18     		add	r2, r7, r2
 9989 18e2 1268     		ldr	r2, [r2]
 9990 18e4 9A42     		cmp	r2, r3
 9991 18e6 E2D3     		bcc	.L357
 705:.\Include/arm_math.h ****     {
 9992              		.loc 2 705 0
 9993 18e8 8A23     		mov	r3, #138
 9994 18ea 5B00     		lsl	r3, r3, #1
 9995 18ec FB18     		add	r3, r7, r3
 9996 18ee 1B68     		ldr	r3, [r3]
 9997 18f0 002B     		cmp	r3, #0
 9998 18f2 1BDD     		ble	.L358
 707:.\Include/arm_math.h **** 
 9999              		.loc 2 707 0
 10000 18f4 8623     		mov	r3, #134
 10001 18f6 5B00     		lsl	r3, r3, #1
 10002 18f8 FB18     		add	r3, r7, r3
 10003 18fa 1B68     		ldr	r3, [r3]
 10004 18fc 013B     		sub	r3, r3, #1
 10005 18fe 8622     		mov	r2, #134
 10006 1900 5200     		lsl	r2, r2, #1
 10007 1902 BA18     		add	r2, r7, r2
 10008 1904 1360     		str	r3, [r2]
 709:.\Include/arm_math.h ****       {
 10009              		.loc 2 709 0
 10010 1906 8A23     		mov	r3, #138
 10011 1908 5B00     		lsl	r3, r3, #1
 10012 190a FB18     		add	r3, r7, r3
 10013 190c 1A68     		ldr	r2, [r3]
 10014 190e 8623     		mov	r3, #134
 10015 1910 5B00     		lsl	r3, r3, #1
 10016 1912 FB18     		add	r3, r7, r3
 10017 1914 1B68     		ldr	r3, [r3]
 10018 1916 9A42     		cmp	r2, r3
 10019 1918 21DD     		ble	.L456
 711:.\Include/arm_math.h ****       }
 10020              		.loc 2 711 0
 10021 191a 8623     		mov	r3, #134
 10022 191c 5B00     		lsl	r3, r3, #1
 10023 191e FB18     		add	r3, r7, r3
 10024 1920 1B68     		ldr	r3, [r3]
 10025 1922 8A22     		mov	r2, #138
 10026 1924 5200     		lsl	r2, r2, #1
 10027 1926 BA18     		add	r2, r7, r2
 10028 1928 1360     		str	r3, [r2]
 10029 192a 19E0     		b	.L360
 10030              	.L358:
 716:.\Include/arm_math.h **** 
ARM GAS  C:\Users\fneves\AppData\Local\Temp\cc0ayw4Y.s 			page 230


 10031              		.loc 2 716 0
 10032 192c 8623     		mov	r3, #134
 10033 192e 5B00     		lsl	r3, r3, #1
 10034 1930 FB18     		add	r3, r7, r3
 10035 1932 1B68     		ldr	r3, [r3]
 10036 1934 5B42     		neg	r3, r3
 10037 1936 7A1D     		add	r2, r7, #5
 10038 1938 FF32     		add	r2, r2, #255
 10039 193a 1360     		str	r3, [r2]
 718:.\Include/arm_math.h ****       {
 10040              		.loc 2 718 0
 10041 193c 8A23     		mov	r3, #138
 10042 193e 5B00     		lsl	r3, r3, #1
 10043 1940 FB18     		add	r3, r7, r3
 10044 1942 1A68     		ldr	r2, [r3]
 10045 1944 7B1D     		add	r3, r7, #5
 10046 1946 FF33     		add	r3, r3, #255
 10047 1948 1B68     		ldr	r3, [r3]
 10048 194a 9A42     		cmp	r2, r3
 10049 194c 08DA     		bge	.L360
 720:.\Include/arm_math.h ****       }
 10050              		.loc 2 720 0
 10051 194e 7B1D     		add	r3, r7, #5
 10052 1950 FF33     		add	r3, r3, #255
 10053 1952 1B68     		ldr	r3, [r3]
 10054 1954 8A22     		mov	r2, #138
 10055 1956 5200     		lsl	r2, r2, #1
 10056 1958 BA18     		add	r2, r7, r2
 10057 195a 1360     		str	r3, [r2]
 10058 195c 00E0     		b	.L360
 10059              	.L456:
 711:.\Include/arm_math.h ****       }
 10060              		.loc 2 711 0
 10061 195e C046     		mov	r8, r8
 10062              	.L360:
 10063              		.loc 2 723 0
 10064 1960 8A23     		mov	r3, #138
 10065 1962 5B00     		lsl	r3, r3, #1
 10066 1964 FB18     		add	r3, r7, r3
 10067 1966 1A68     		ldr	r2, [r3]
 10068              	.LBE217:
 10069              	.LBE216:
 10070              		.loc 1 1729 0
 10071 1968 A123     		mov	r3, #161
 10072 196a 9B00     		lsl	r3, r3, #2
 10073 196c FB18     		add	r3, r7, r3
 10074 196e 1A80     		strh	r2, [r3]
1730:Source\TransformFunctions/arm_cfft_radix4_q15.c **** 
1731:Source\TransformFunctions/arm_cfft_radix4_q15.c ****         /*  Reading i0+fftLen/4 , i0+3fftLen/4 inputs */
1732:Source\TransformFunctions/arm_cfft_radix4_q15.c ****         /* Read yb (real), xb(imag) input */
1733:Source\TransformFunctions/arm_cfft_radix4_q15.c ****         T0 = pSrc16[i1 * 2u];
 10075              		.loc 1 1733 0
 10076 1970 A523     		mov	r3, #165
 10077 1972 9B00     		lsl	r3, r3, #2
 10078 1974 FB18     		add	r3, r7, r3
 10079 1976 1B68     		ldr	r3, [r3]
 10080 1978 9B00     		lsl	r3, r3, #2
ARM GAS  C:\Users\fneves\AppData\Local\Temp\cc0ayw4Y.s 			page 231


 10081 197a FA68     		ldr	r2, [r7, #12]
 10082 197c D218     		add	r2, r2, r3
 10083 197e 224B     		ldr	r3, .L481+4
 10084 1980 FB18     		add	r3, r7, r3
 10085 1982 1288     		ldrh	r2, [r2]
 10086 1984 1A80     		strh	r2, [r3]
1734:Source\TransformFunctions/arm_cfft_radix4_q15.c ****         T1 = pSrc16[(i1 * 2u) + 1u];
 10087              		.loc 1 1734 0
 10088 1986 A523     		mov	r3, #165
 10089 1988 9B00     		lsl	r3, r3, #2
 10090 198a FB18     		add	r3, r7, r3
 10091 198c 1B68     		ldr	r3, [r3]
 10092 198e 9B00     		lsl	r3, r3, #2
 10093 1990 0233     		add	r3, r3, #2
 10094 1992 FA68     		ldr	r2, [r7, #12]
 10095 1994 D218     		add	r2, r2, r3
 10096 1996 A223     		mov	r3, #162
 10097 1998 9B00     		lsl	r3, r3, #2
 10098 199a FB18     		add	r3, r7, r3
 10099 199c 1288     		ldrh	r2, [r2]
 10100 199e 1A80     		strh	r2, [r3]
1735:Source\TransformFunctions/arm_cfft_radix4_q15.c **** 
1736:Source\TransformFunctions/arm_cfft_radix4_q15.c ****         /* Read yd (real), xd(imag) input */
1737:Source\TransformFunctions/arm_cfft_radix4_q15.c ****         U0 = pSrc16[i3 * 2u];
 10101              		.loc 1 1737 0
 10102 19a0 A323     		mov	r3, #163
 10103 19a2 9B00     		lsl	r3, r3, #2
 10104 19a4 FB18     		add	r3, r7, r3
 10105 19a6 1B68     		ldr	r3, [r3]
 10106 19a8 9B00     		lsl	r3, r3, #2
 10107 19aa FA68     		ldr	r2, [r7, #12]
 10108 19ac D218     		add	r2, r2, r3
 10109 19ae 184B     		ldr	r3, .L481+12
 10110 19b0 FB18     		add	r3, r7, r3
 10111 19b2 1288     		ldrh	r2, [r2]
 10112 19b4 1A80     		strh	r2, [r3]
1738:Source\TransformFunctions/arm_cfft_radix4_q15.c ****         U1 = pSrc16[(i3 * 2u) + 1u];
 10113              		.loc 1 1738 0
 10114 19b6 A323     		mov	r3, #163
 10115 19b8 9B00     		lsl	r3, r3, #2
 10116 19ba FB18     		add	r3, r7, r3
 10117 19bc 1B68     		ldr	r3, [r3]
 10118 19be 9B00     		lsl	r3, r3, #2
 10119 19c0 0233     		add	r3, r3, #2
 10120 19c2 FA68     		ldr	r2, [r7, #12]
 10121 19c4 D218     		add	r2, r2, r3
 10122 19c6 9F23     		mov	r3, #159
 10123 19c8 9B00     		lsl	r3, r3, #2
 10124 19ca FB18     		add	r3, r7, r3
 10125 19cc 1288     		ldrh	r2, [r2]
 10126 19ce 1A80     		strh	r2, [r3]
1739:Source\TransformFunctions/arm_cfft_radix4_q15.c **** 
1740:Source\TransformFunctions/arm_cfft_radix4_q15.c ****         /* T0 = (yb + yd), T1 = (xb + xd) */
1741:Source\TransformFunctions/arm_cfft_radix4_q15.c ****         T0 = __SSAT(T0 + U0, 16u);
 10127              		.loc 1 1741 0
 10128 19d0 0D4B     		ldr	r3, .L481+4
 10129 19d2 FB18     		add	r3, r7, r3
ARM GAS  C:\Users\fneves\AppData\Local\Temp\cc0ayw4Y.s 			page 232


 10130 19d4 0022     		mov	r2, #0
 10131 19d6 9A5E     		ldrsh	r2, [r3, r2]
 10132 19d8 0D4B     		ldr	r3, .L481+12
 10133 19da FB18     		add	r3, r7, r3
 10134 19dc 0021     		mov	r1, #0
 10135 19de 5B5E     		ldrsh	r3, [r3, r1]
 10136 19e0 D318     		add	r3, r2, r3
 10137 19e2 7A1C     		add	r2, r7, #1
 10138 19e4 FF32     		add	r2, r2, #255
 10139 19e6 1360     		str	r3, [r2]
 10140 19e8 1023     		mov	r3, #16
 10141 19ea FC22     		mov	r2, #252
 10142 19ec BA18     		add	r2, r7, r2
 10143 19ee 1360     		str	r3, [r2]
 10144              	.LBB218:
 10145              	.LBB219:
 699:.\Include/arm_math.h ****     for (i = 0; i < (y - 1); i++)
 10146              		.loc 2 699 0
 10147 19f0 0123     		mov	r3, #1
 10148 19f2 F822     		mov	r2, #248
 10149 19f4 BA18     		add	r2, r7, r2
 10150 19f6 1360     		str	r3, [r2]
 700:.\Include/arm_math.h ****     {
 10151              		.loc 2 700 0
 10152 19f8 0023     		mov	r3, #0
 10153 19fa F422     		mov	r2, #244
 10154 19fc BA18     		add	r2, r7, r2
 10155 19fe 1360     		str	r3, [r2]
 10156 1a00 16E0     		b	.L362
 10157              	.L482:
 10158 1a02 C046     		.align	2
 10159              	.L481:
 10160 1a04 82020000 		.word	642
 10161 1a08 8A020000 		.word	650
 10162 1a0c 86020000 		.word	646
 10163 1a10 7E020000 		.word	638
 10164              	.L363:
 702:.\Include/arm_math.h ****     }
 10165              		.loc 2 702 0
 10166 1a14 F823     		mov	r3, #248
 10167 1a16 FB18     		add	r3, r7, r3
 10168 1a18 1B68     		ldr	r3, [r3]
 10169 1a1a 5B00     		lsl	r3, r3, #1
 10170 1a1c F822     		mov	r2, #248
 10171 1a1e BA18     		add	r2, r7, r2
 10172 1a20 1360     		str	r3, [r2]
 700:.\Include/arm_math.h ****     {
 10173              		.loc 2 700 0
 10174 1a22 F423     		mov	r3, #244
 10175 1a24 FB18     		add	r3, r7, r3
 10176 1a26 1B68     		ldr	r3, [r3]
 10177 1a28 0133     		add	r3, r3, #1
 10178 1a2a F422     		mov	r2, #244
 10179 1a2c BA18     		add	r2, r7, r2
 10180 1a2e 1360     		str	r3, [r2]
 10181              	.L362:
 10182 1a30 FC23     		mov	r3, #252
ARM GAS  C:\Users\fneves\AppData\Local\Temp\cc0ayw4Y.s 			page 233


 10183 1a32 FB18     		add	r3, r7, r3
 10184 1a34 1B68     		ldr	r3, [r3]
 10185 1a36 013B     		sub	r3, r3, #1
 10186 1a38 F422     		mov	r2, #244
 10187 1a3a BA18     		add	r2, r7, r2
 10188 1a3c 1268     		ldr	r2, [r2]
 10189 1a3e 9A42     		cmp	r2, r3
 10190 1a40 E8D3     		bcc	.L363
 705:.\Include/arm_math.h ****     {
 10191              		.loc 2 705 0
 10192 1a42 7B1C     		add	r3, r7, #1
 10193 1a44 FF33     		add	r3, r3, #255
 10194 1a46 1B68     		ldr	r3, [r3]
 10195 1a48 002B     		cmp	r3, #0
 10196 1a4a 15DD     		ble	.L364
 707:.\Include/arm_math.h **** 
 10197              		.loc 2 707 0
 10198 1a4c F823     		mov	r3, #248
 10199 1a4e FB18     		add	r3, r7, r3
 10200 1a50 1B68     		ldr	r3, [r3]
 10201 1a52 013B     		sub	r3, r3, #1
 10202 1a54 F822     		mov	r2, #248
 10203 1a56 BA18     		add	r2, r7, r2
 10204 1a58 1360     		str	r3, [r2]
 709:.\Include/arm_math.h ****       {
 10205              		.loc 2 709 0
 10206 1a5a 7B1C     		add	r3, r7, #1
 10207 1a5c FF33     		add	r3, r3, #255
 10208 1a5e 1A68     		ldr	r2, [r3]
 10209 1a60 F823     		mov	r3, #248
 10210 1a62 FB18     		add	r3, r7, r3
 10211 1a64 1B68     		ldr	r3, [r3]
 10212 1a66 9A42     		cmp	r2, r3
 10213 1a68 1CDD     		ble	.L457
 711:.\Include/arm_math.h ****       }
 10214              		.loc 2 711 0
 10215 1a6a F823     		mov	r3, #248
 10216 1a6c FB18     		add	r3, r7, r3
 10217 1a6e 1B68     		ldr	r3, [r3]
 10218 1a70 7A1C     		add	r2, r7, #1
 10219 1a72 FF32     		add	r2, r2, #255
 10220 1a74 1360     		str	r3, [r2]
 10221 1a76 16E0     		b	.L366
 10222              	.L364:
 716:.\Include/arm_math.h **** 
 10223              		.loc 2 716 0
 10224 1a78 F823     		mov	r3, #248
 10225 1a7a FB18     		add	r3, r7, r3
 10226 1a7c 1B68     		ldr	r3, [r3]
 10227 1a7e 5B42     		neg	r3, r3
 10228 1a80 F022     		mov	r2, #240
 10229 1a82 BA18     		add	r2, r7, r2
 10230 1a84 1360     		str	r3, [r2]
 718:.\Include/arm_math.h ****       {
 10231              		.loc 2 718 0
 10232 1a86 7B1C     		add	r3, r7, #1
 10233 1a88 FF33     		add	r3, r3, #255
ARM GAS  C:\Users\fneves\AppData\Local\Temp\cc0ayw4Y.s 			page 234


 10234 1a8a 1A68     		ldr	r2, [r3]
 10235 1a8c F023     		mov	r3, #240
 10236 1a8e FB18     		add	r3, r7, r3
 10237 1a90 1B68     		ldr	r3, [r3]
 10238 1a92 9A42     		cmp	r2, r3
 10239 1a94 07DA     		bge	.L366
 720:.\Include/arm_math.h ****       }
 10240              		.loc 2 720 0
 10241 1a96 F023     		mov	r3, #240
 10242 1a98 FB18     		add	r3, r7, r3
 10243 1a9a 1B68     		ldr	r3, [r3]
 10244 1a9c 7A1C     		add	r2, r7, #1
 10245 1a9e FF32     		add	r2, r2, #255
 10246 1aa0 1360     		str	r3, [r2]
 10247 1aa2 00E0     		b	.L366
 10248              	.L457:
 711:.\Include/arm_math.h ****       }
 10249              		.loc 2 711 0
 10250 1aa4 C046     		mov	r8, r8
 10251              	.L366:
 10252              		.loc 2 723 0
 10253 1aa6 7B1C     		add	r3, r7, #1
 10254 1aa8 FF33     		add	r3, r3, #255
 10255 1aaa 1A68     		ldr	r2, [r3]
 10256              	.LBE219:
 10257              	.LBE218:
 10258              		.loc 1 1741 0
 10259 1aac E44B     		ldr	r3, .L483
 10260 1aae FB18     		add	r3, r7, r3
 10261 1ab0 1A80     		strh	r2, [r3]
1742:Source\TransformFunctions/arm_cfft_radix4_q15.c ****         T1 = __SSAT(T1 + U1, 16u);
 10262              		.loc 1 1742 0
 10263 1ab2 A223     		mov	r3, #162
 10264 1ab4 9B00     		lsl	r3, r3, #2
 10265 1ab6 FB18     		add	r3, r7, r3
 10266 1ab8 0022     		mov	r2, #0
 10267 1aba 9A5E     		ldrsh	r2, [r3, r2]
 10268 1abc 9F23     		mov	r3, #159
 10269 1abe 9B00     		lsl	r3, r3, #2
 10270 1ac0 FB18     		add	r3, r7, r3
 10271 1ac2 0021     		mov	r1, #0
 10272 1ac4 5B5E     		ldrsh	r3, [r3, r1]
 10273 1ac6 D318     		add	r3, r2, r3
 10274 1ac8 EC22     		mov	r2, #236
 10275 1aca BA18     		add	r2, r7, r2
 10276 1acc 1360     		str	r3, [r2]
 10277 1ace 1023     		mov	r3, #16
 10278 1ad0 E822     		mov	r2, #232
 10279 1ad2 BA18     		add	r2, r7, r2
 10280 1ad4 1360     		str	r3, [r2]
 10281              	.LBB220:
 10282              	.LBB221:
 699:.\Include/arm_math.h ****     for (i = 0; i < (y - 1); i++)
 10283              		.loc 2 699 0
 10284 1ad6 0123     		mov	r3, #1
 10285 1ad8 E422     		mov	r2, #228
 10286 1ada BA18     		add	r2, r7, r2
ARM GAS  C:\Users\fneves\AppData\Local\Temp\cc0ayw4Y.s 			page 235


 10287 1adc 1360     		str	r3, [r2]
 700:.\Include/arm_math.h ****     {
 10288              		.loc 2 700 0
 10289 1ade 0023     		mov	r3, #0
 10290 1ae0 E022     		mov	r2, #224
 10291 1ae2 BA18     		add	r2, r7, r2
 10292 1ae4 1360     		str	r3, [r2]
 10293 1ae6 0DE0     		b	.L368
 10294              	.L369:
 702:.\Include/arm_math.h ****     }
 10295              		.loc 2 702 0
 10296 1ae8 E423     		mov	r3, #228
 10297 1aea FB18     		add	r3, r7, r3
 10298 1aec 1B68     		ldr	r3, [r3]
 10299 1aee 5B00     		lsl	r3, r3, #1
 10300 1af0 E422     		mov	r2, #228
 10301 1af2 BA18     		add	r2, r7, r2
 10302 1af4 1360     		str	r3, [r2]
 700:.\Include/arm_math.h ****     {
 10303              		.loc 2 700 0
 10304 1af6 E023     		mov	r3, #224
 10305 1af8 FB18     		add	r3, r7, r3
 10306 1afa 1B68     		ldr	r3, [r3]
 10307 1afc 0133     		add	r3, r3, #1
 10308 1afe E022     		mov	r2, #224
 10309 1b00 BA18     		add	r2, r7, r2
 10310 1b02 1360     		str	r3, [r2]
 10311              	.L368:
 10312 1b04 E823     		mov	r3, #232
 10313 1b06 FB18     		add	r3, r7, r3
 10314 1b08 1B68     		ldr	r3, [r3]
 10315 1b0a 013B     		sub	r3, r3, #1
 10316 1b0c E022     		mov	r2, #224
 10317 1b0e BA18     		add	r2, r7, r2
 10318 1b10 1268     		ldr	r2, [r2]
 10319 1b12 9A42     		cmp	r2, r3
 10320 1b14 E8D3     		bcc	.L369
 705:.\Include/arm_math.h ****     {
 10321              		.loc 2 705 0
 10322 1b16 EC23     		mov	r3, #236
 10323 1b18 FB18     		add	r3, r7, r3
 10324 1b1a 1B68     		ldr	r3, [r3]
 10325 1b1c 002B     		cmp	r3, #0
 10326 1b1e 15DD     		ble	.L370
 707:.\Include/arm_math.h **** 
 10327              		.loc 2 707 0
 10328 1b20 E423     		mov	r3, #228
 10329 1b22 FB18     		add	r3, r7, r3
 10330 1b24 1B68     		ldr	r3, [r3]
 10331 1b26 013B     		sub	r3, r3, #1
 10332 1b28 E422     		mov	r2, #228
 10333 1b2a BA18     		add	r2, r7, r2
 10334 1b2c 1360     		str	r3, [r2]
 709:.\Include/arm_math.h ****       {
 10335              		.loc 2 709 0
 10336 1b2e EC23     		mov	r3, #236
 10337 1b30 FB18     		add	r3, r7, r3
ARM GAS  C:\Users\fneves\AppData\Local\Temp\cc0ayw4Y.s 			page 236


 10338 1b32 1A68     		ldr	r2, [r3]
 10339 1b34 E423     		mov	r3, #228
 10340 1b36 FB18     		add	r3, r7, r3
 10341 1b38 1B68     		ldr	r3, [r3]
 10342 1b3a 9A42     		cmp	r2, r3
 10343 1b3c 1CDD     		ble	.L458
 711:.\Include/arm_math.h ****       }
 10344              		.loc 2 711 0
 10345 1b3e E423     		mov	r3, #228
 10346 1b40 FB18     		add	r3, r7, r3
 10347 1b42 1B68     		ldr	r3, [r3]
 10348 1b44 EC22     		mov	r2, #236
 10349 1b46 BA18     		add	r2, r7, r2
 10350 1b48 1360     		str	r3, [r2]
 10351 1b4a 16E0     		b	.L372
 10352              	.L370:
 716:.\Include/arm_math.h **** 
 10353              		.loc 2 716 0
 10354 1b4c E423     		mov	r3, #228
 10355 1b4e FB18     		add	r3, r7, r3
 10356 1b50 1B68     		ldr	r3, [r3]
 10357 1b52 5B42     		neg	r3, r3
 10358 1b54 DC22     		mov	r2, #220
 10359 1b56 BA18     		add	r2, r7, r2
 10360 1b58 1360     		str	r3, [r2]
 718:.\Include/arm_math.h ****       {
 10361              		.loc 2 718 0
 10362 1b5a EC23     		mov	r3, #236
 10363 1b5c FB18     		add	r3, r7, r3
 10364 1b5e 1A68     		ldr	r2, [r3]
 10365 1b60 DC23     		mov	r3, #220
 10366 1b62 FB18     		add	r3, r7, r3
 10367 1b64 1B68     		ldr	r3, [r3]
 10368 1b66 9A42     		cmp	r2, r3
 10369 1b68 07DA     		bge	.L372
 720:.\Include/arm_math.h ****       }
 10370              		.loc 2 720 0
 10371 1b6a DC23     		mov	r3, #220
 10372 1b6c FB18     		add	r3, r7, r3
 10373 1b6e 1B68     		ldr	r3, [r3]
 10374 1b70 EC22     		mov	r2, #236
 10375 1b72 BA18     		add	r2, r7, r2
 10376 1b74 1360     		str	r3, [r2]
 10377 1b76 00E0     		b	.L372
 10378              	.L458:
 711:.\Include/arm_math.h ****       }
 10379              		.loc 2 711 0
 10380 1b78 C046     		mov	r8, r8
 10381              	.L372:
 10382              		.loc 2 723 0
 10383 1b7a EC23     		mov	r3, #236
 10384 1b7c FB18     		add	r3, r7, r3
 10385 1b7e 1A68     		ldr	r2, [r3]
 10386              	.LBE221:
 10387              	.LBE220:
 10388              		.loc 1 1742 0
 10389 1b80 A223     		mov	r3, #162
ARM GAS  C:\Users\fneves\AppData\Local\Temp\cc0ayw4Y.s 			page 237


 10390 1b82 9B00     		lsl	r3, r3, #2
 10391 1b84 FB18     		add	r3, r7, r3
 10392 1b86 1A80     		strh	r2, [r3]
1743:Source\TransformFunctions/arm_cfft_radix4_q15.c **** 
1744:Source\TransformFunctions/arm_cfft_radix4_q15.c ****         /*  writing the butterfly processed i0 sample */
1745:Source\TransformFunctions/arm_cfft_radix4_q15.c ****         /* xa' = xa + xb + xc + xd */
1746:Source\TransformFunctions/arm_cfft_radix4_q15.c ****         /* ya' = ya + yb + yc + yd */
1747:Source\TransformFunctions/arm_cfft_radix4_q15.c ****         pSrc16[i0 * 2u] = ((R0 >> 1u) + (T0 >> 1u)) >> 1u;
 10393              		.loc 1 1747 0
 10394 1b88 A923     		mov	r3, #169
 10395 1b8a 9B00     		lsl	r3, r3, #2
 10396 1b8c FB18     		add	r3, r7, r3
 10397 1b8e 1B68     		ldr	r3, [r3]
 10398 1b90 9B00     		lsl	r3, r3, #2
 10399 1b92 FA68     		ldr	r2, [r7, #12]
 10400 1b94 D318     		add	r3, r2, r3
 10401 1b96 AB4A     		ldr	r2, .L483+4
 10402 1b98 BA18     		add	r2, r7, r2
 10403 1b9a 0021     		mov	r1, #0
 10404 1b9c 525E     		ldrsh	r2, [r2, r1]
 10405 1b9e 5210     		asr	r2, r2, #1
 10406 1ba0 92B2     		uxth	r2, r2
 10407 1ba2 11B2     		sxth	r1, r2
 10408 1ba4 A64A     		ldr	r2, .L483
 10409 1ba6 BA18     		add	r2, r7, r2
 10410 1ba8 0020     		mov	r0, #0
 10411 1baa 125E     		ldrsh	r2, [r2, r0]
 10412 1bac 5210     		asr	r2, r2, #1
 10413 1bae 92B2     		uxth	r2, r2
 10414 1bb0 12B2     		sxth	r2, r2
 10415 1bb2 8A18     		add	r2, r1, r2
 10416 1bb4 5210     		asr	r2, r2, #1
 10417 1bb6 92B2     		uxth	r2, r2
 10418 1bb8 1A80     		strh	r2, [r3]
1748:Source\TransformFunctions/arm_cfft_radix4_q15.c ****         pSrc16[(i0 * 2u) + 1u] = ((R1 >> 1u) + (T1 >> 1u)) >> 1u;
 10419              		.loc 1 1748 0
 10420 1bba A923     		mov	r3, #169
 10421 1bbc 9B00     		lsl	r3, r3, #2
 10422 1bbe FB18     		add	r3, r7, r3
 10423 1bc0 1B68     		ldr	r3, [r3]
 10424 1bc2 9B00     		lsl	r3, r3, #2
 10425 1bc4 0233     		add	r3, r3, #2
 10426 1bc6 FA68     		ldr	r2, [r7, #12]
 10427 1bc8 D318     		add	r3, r2, r3
 10428 1bca A022     		mov	r2, #160
 10429 1bcc 9200     		lsl	r2, r2, #2
 10430 1bce BA18     		add	r2, r7, r2
 10431 1bd0 0021     		mov	r1, #0
 10432 1bd2 525E     		ldrsh	r2, [r2, r1]
 10433 1bd4 5210     		asr	r2, r2, #1
 10434 1bd6 92B2     		uxth	r2, r2
 10435 1bd8 11B2     		sxth	r1, r2
 10436 1bda A222     		mov	r2, #162
 10437 1bdc 9200     		lsl	r2, r2, #2
 10438 1bde BA18     		add	r2, r7, r2
 10439 1be0 0020     		mov	r0, #0
 10440 1be2 125E     		ldrsh	r2, [r2, r0]
ARM GAS  C:\Users\fneves\AppData\Local\Temp\cc0ayw4Y.s 			page 238


 10441 1be4 5210     		asr	r2, r2, #1
 10442 1be6 92B2     		uxth	r2, r2
 10443 1be8 12B2     		sxth	r2, r2
 10444 1bea 8A18     		add	r2, r1, r2
 10445 1bec 5210     		asr	r2, r2, #1
 10446 1bee 92B2     		uxth	r2, r2
 10447 1bf0 1A80     		strh	r2, [r3]
1749:Source\TransformFunctions/arm_cfft_radix4_q15.c **** 
1750:Source\TransformFunctions/arm_cfft_radix4_q15.c ****         /* R0 = (ya + yc) - (yb + yd), R1 = (xa + xc) - (xb + xd) */
1751:Source\TransformFunctions/arm_cfft_radix4_q15.c ****         R0 = (R0 >> 1u) - (T0 >> 1u);
 10448              		.loc 1 1751 0
 10449 1bf2 944B     		ldr	r3, .L483+4
 10450 1bf4 FB18     		add	r3, r7, r3
 10451 1bf6 0022     		mov	r2, #0
 10452 1bf8 9B5E     		ldrsh	r3, [r3, r2]
 10453 1bfa 5B10     		asr	r3, r3, #1
 10454 1bfc 9BB2     		uxth	r3, r3
 10455 1bfe 9AB2     		uxth	r2, r3
 10456 1c00 8F4B     		ldr	r3, .L483
 10457 1c02 FB18     		add	r3, r7, r3
 10458 1c04 0021     		mov	r1, #0
 10459 1c06 5B5E     		ldrsh	r3, [r3, r1]
 10460 1c08 5B10     		asr	r3, r3, #1
 10461 1c0a 9BB2     		uxth	r3, r3
 10462 1c0c 9BB2     		uxth	r3, r3
 10463 1c0e D31A     		sub	r3, r2, r3
 10464 1c10 9AB2     		uxth	r2, r3
 10465 1c12 8C4B     		ldr	r3, .L483+4
 10466 1c14 FB18     		add	r3, r7, r3
 10467 1c16 1A80     		strh	r2, [r3]
1752:Source\TransformFunctions/arm_cfft_radix4_q15.c ****         R1 = (R1 >> 1u) - (T1 >> 1u);
 10468              		.loc 1 1752 0
 10469 1c18 A023     		mov	r3, #160
 10470 1c1a 9B00     		lsl	r3, r3, #2
 10471 1c1c FB18     		add	r3, r7, r3
 10472 1c1e 0022     		mov	r2, #0
 10473 1c20 9B5E     		ldrsh	r3, [r3, r2]
 10474 1c22 5B10     		asr	r3, r3, #1
 10475 1c24 9BB2     		uxth	r3, r3
 10476 1c26 9AB2     		uxth	r2, r3
 10477 1c28 A223     		mov	r3, #162
 10478 1c2a 9B00     		lsl	r3, r3, #2
 10479 1c2c FB18     		add	r3, r7, r3
 10480 1c2e 0021     		mov	r1, #0
 10481 1c30 5B5E     		ldrsh	r3, [r3, r1]
 10482 1c32 5B10     		asr	r3, r3, #1
 10483 1c34 9BB2     		uxth	r3, r3
 10484 1c36 9BB2     		uxth	r3, r3
 10485 1c38 D31A     		sub	r3, r2, r3
 10486 1c3a 9AB2     		uxth	r2, r3
 10487 1c3c A023     		mov	r3, #160
 10488 1c3e 9B00     		lsl	r3, r3, #2
 10489 1c40 FB18     		add	r3, r7, r3
 10490 1c42 1A80     		strh	r2, [r3]
1753:Source\TransformFunctions/arm_cfft_radix4_q15.c **** 
1754:Source\TransformFunctions/arm_cfft_radix4_q15.c ****         /* (ya-yb+yc-yd)* (si2) - (xa-xb+xc-xd)* co2 */
1755:Source\TransformFunctions/arm_cfft_radix4_q15.c ****         out1 = (q15_t) ((Co2 * R0 - Si2 * R1) >> 16);
ARM GAS  C:\Users\fneves\AppData\Local\Temp\cc0ayw4Y.s 			page 239


 10491              		.loc 1 1755 0
 10492 1c44 804B     		ldr	r3, .L483+8
 10493 1c46 FB18     		add	r3, r7, r3
 10494 1c48 0022     		mov	r2, #0
 10495 1c4a 9B5E     		ldrsh	r3, [r3, r2]
 10496 1c4c 7D4A     		ldr	r2, .L483+4
 10497 1c4e BA18     		add	r2, r7, r2
 10498 1c50 0021     		mov	r1, #0
 10499 1c52 525E     		ldrsh	r2, [r2, r1]
 10500 1c54 5A43     		mul	r2, r3
 10501 1c56 9E23     		mov	r3, #158
 10502 1c58 9B00     		lsl	r3, r3, #2
 10503 1c5a FB18     		add	r3, r7, r3
 10504 1c5c 0021     		mov	r1, #0
 10505 1c5e 5B5E     		ldrsh	r3, [r3, r1]
 10506 1c60 A021     		mov	r1, #160
 10507 1c62 8900     		lsl	r1, r1, #2
 10508 1c64 7918     		add	r1, r7, r1
 10509 1c66 0020     		mov	r0, #0
 10510 1c68 095E     		ldrsh	r1, [r1, r0]
 10511 1c6a 4B43     		mul	r3, r1
 10512 1c6c D31A     		sub	r3, r2, r3
 10513 1c6e 1A14     		asr	r2, r3, #16
 10514 1c70 764B     		ldr	r3, .L483+12
 10515 1c72 FB18     		add	r3, r7, r3
 10516 1c74 1A80     		strh	r2, [r3]
1756:Source\TransformFunctions/arm_cfft_radix4_q15.c ****         /* (ya-yb+yc-yd)* co2 + (xa-xb+xc-xd)* (si2) */
1757:Source\TransformFunctions/arm_cfft_radix4_q15.c ****         out2 = (q15_t) ((Si2 * R0 + Co2 * R1) >> 16);
 10517              		.loc 1 1757 0
 10518 1c76 9E23     		mov	r3, #158
 10519 1c78 9B00     		lsl	r3, r3, #2
 10520 1c7a FB18     		add	r3, r7, r3
 10521 1c7c 0022     		mov	r2, #0
 10522 1c7e 9B5E     		ldrsh	r3, [r3, r2]
 10523 1c80 704A     		ldr	r2, .L483+4
 10524 1c82 BA18     		add	r2, r7, r2
 10525 1c84 0021     		mov	r1, #0
 10526 1c86 525E     		ldrsh	r2, [r2, r1]
 10527 1c88 5A43     		mul	r2, r3
 10528 1c8a 6F4B     		ldr	r3, .L483+8
 10529 1c8c FB18     		add	r3, r7, r3
 10530 1c8e 0021     		mov	r1, #0
 10531 1c90 5B5E     		ldrsh	r3, [r3, r1]
 10532 1c92 A021     		mov	r1, #160
 10533 1c94 8900     		lsl	r1, r1, #2
 10534 1c96 7918     		add	r1, r7, r1
 10535 1c98 0020     		mov	r0, #0
 10536 1c9a 095E     		ldrsh	r1, [r1, r0]
 10537 1c9c 4B43     		mul	r3, r1
 10538 1c9e D318     		add	r3, r2, r3
 10539 1ca0 1A14     		asr	r2, r3, #16
 10540 1ca2 9D23     		mov	r3, #157
 10541 1ca4 9B00     		lsl	r3, r3, #2
 10542 1ca6 FB18     		add	r3, r7, r3
 10543 1ca8 1A80     		strh	r2, [r3]
1758:Source\TransformFunctions/arm_cfft_radix4_q15.c **** 
1759:Source\TransformFunctions/arm_cfft_radix4_q15.c ****         /*  Reading i0+3fftLen/4 */
ARM GAS  C:\Users\fneves\AppData\Local\Temp\cc0ayw4Y.s 			page 240


1760:Source\TransformFunctions/arm_cfft_radix4_q15.c ****         /* Read yb (real), xb(imag) input */
1761:Source\TransformFunctions/arm_cfft_radix4_q15.c ****         T0 = pSrc16[i1 * 2u];
 10544              		.loc 1 1761 0
 10545 1caa A523     		mov	r3, #165
 10546 1cac 9B00     		lsl	r3, r3, #2
 10547 1cae FB18     		add	r3, r7, r3
 10548 1cb0 1B68     		ldr	r3, [r3]
 10549 1cb2 9B00     		lsl	r3, r3, #2
 10550 1cb4 FA68     		ldr	r2, [r7, #12]
 10551 1cb6 D218     		add	r2, r2, r3
 10552 1cb8 614B     		ldr	r3, .L483
 10553 1cba FB18     		add	r3, r7, r3
 10554 1cbc 1288     		ldrh	r2, [r2]
 10555 1cbe 1A80     		strh	r2, [r3]
1762:Source\TransformFunctions/arm_cfft_radix4_q15.c ****         T1 = pSrc16[(i1 * 2u) + 1u];
 10556              		.loc 1 1762 0
 10557 1cc0 A523     		mov	r3, #165
 10558 1cc2 9B00     		lsl	r3, r3, #2
 10559 1cc4 FB18     		add	r3, r7, r3
 10560 1cc6 1B68     		ldr	r3, [r3]
 10561 1cc8 9B00     		lsl	r3, r3, #2
 10562 1cca 0233     		add	r3, r3, #2
 10563 1ccc FA68     		ldr	r2, [r7, #12]
 10564 1cce D218     		add	r2, r2, r3
 10565 1cd0 A223     		mov	r3, #162
 10566 1cd2 9B00     		lsl	r3, r3, #2
 10567 1cd4 FB18     		add	r3, r7, r3
 10568 1cd6 1288     		ldrh	r2, [r2]
 10569 1cd8 1A80     		strh	r2, [r3]
1763:Source\TransformFunctions/arm_cfft_radix4_q15.c **** 
1764:Source\TransformFunctions/arm_cfft_radix4_q15.c ****         /*  writing the butterfly processed i0 + fftLen/4 sample */
1765:Source\TransformFunctions/arm_cfft_radix4_q15.c ****         /* xc' = (xa-xb+xc-xd)* co2 - (ya-yb+yc-yd)* (si2) */
1766:Source\TransformFunctions/arm_cfft_radix4_q15.c ****         /* yc' = (ya-yb+yc-yd)* co2 + (xa-xb+xc-xd)* (si2) */
1767:Source\TransformFunctions/arm_cfft_radix4_q15.c ****         pSrc16[i1 * 2u] = out1;
 10570              		.loc 1 1767 0
 10571 1cda A523     		mov	r3, #165
 10572 1cdc 9B00     		lsl	r3, r3, #2
 10573 1cde FB18     		add	r3, r7, r3
 10574 1ce0 1B68     		ldr	r3, [r3]
 10575 1ce2 9B00     		lsl	r3, r3, #2
 10576 1ce4 FA68     		ldr	r2, [r7, #12]
 10577 1ce6 D318     		add	r3, r2, r3
 10578 1ce8 584A     		ldr	r2, .L483+12
 10579 1cea BA18     		add	r2, r7, r2
 10580 1cec 1288     		ldrh	r2, [r2]
 10581 1cee 1A80     		strh	r2, [r3]
1768:Source\TransformFunctions/arm_cfft_radix4_q15.c ****         pSrc16[(i1 * 2u) + 1u] = out2;
 10582              		.loc 1 1768 0
 10583 1cf0 A523     		mov	r3, #165
 10584 1cf2 9B00     		lsl	r3, r3, #2
 10585 1cf4 FB18     		add	r3, r7, r3
 10586 1cf6 1B68     		ldr	r3, [r3]
 10587 1cf8 9B00     		lsl	r3, r3, #2
 10588 1cfa 0233     		add	r3, r3, #2
 10589 1cfc FA68     		ldr	r2, [r7, #12]
 10590 1cfe D318     		add	r3, r2, r3
 10591 1d00 9D22     		mov	r2, #157
ARM GAS  C:\Users\fneves\AppData\Local\Temp\cc0ayw4Y.s 			page 241


 10592 1d02 9200     		lsl	r2, r2, #2
 10593 1d04 BA18     		add	r2, r7, r2
 10594 1d06 1288     		ldrh	r2, [r2]
 10595 1d08 1A80     		strh	r2, [r3]
1769:Source\TransformFunctions/arm_cfft_radix4_q15.c **** 
1770:Source\TransformFunctions/arm_cfft_radix4_q15.c ****         /*  Butterfly calculations */
1771:Source\TransformFunctions/arm_cfft_radix4_q15.c ****         /* Read yd (real), xd(imag) input */
1772:Source\TransformFunctions/arm_cfft_radix4_q15.c ****         U0 = pSrc16[i3 * 2u];
 10596              		.loc 1 1772 0
 10597 1d0a A323     		mov	r3, #163
 10598 1d0c 9B00     		lsl	r3, r3, #2
 10599 1d0e FB18     		add	r3, r7, r3
 10600 1d10 1B68     		ldr	r3, [r3]
 10601 1d12 9B00     		lsl	r3, r3, #2
 10602 1d14 FA68     		ldr	r2, [r7, #12]
 10603 1d16 D218     		add	r2, r2, r3
 10604 1d18 4D4B     		ldr	r3, .L483+16
 10605 1d1a FB18     		add	r3, r7, r3
 10606 1d1c 1288     		ldrh	r2, [r2]
 10607 1d1e 1A80     		strh	r2, [r3]
1773:Source\TransformFunctions/arm_cfft_radix4_q15.c ****         U1 = pSrc16[(i3 * 2u) + 1u];
 10608              		.loc 1 1773 0
 10609 1d20 A323     		mov	r3, #163
 10610 1d22 9B00     		lsl	r3, r3, #2
 10611 1d24 FB18     		add	r3, r7, r3
 10612 1d26 1B68     		ldr	r3, [r3]
 10613 1d28 9B00     		lsl	r3, r3, #2
 10614 1d2a 0233     		add	r3, r3, #2
 10615 1d2c FA68     		ldr	r2, [r7, #12]
 10616 1d2e D218     		add	r2, r2, r3
 10617 1d30 9F23     		mov	r3, #159
 10618 1d32 9B00     		lsl	r3, r3, #2
 10619 1d34 FB18     		add	r3, r7, r3
 10620 1d36 1288     		ldrh	r2, [r2]
 10621 1d38 1A80     		strh	r2, [r3]
1774:Source\TransformFunctions/arm_cfft_radix4_q15.c **** 
1775:Source\TransformFunctions/arm_cfft_radix4_q15.c ****         /* T0 = yb-yd, T1 = xb-xd) */
1776:Source\TransformFunctions/arm_cfft_radix4_q15.c ****         T0 = __SSAT(T0 - U0, 16u);
 10622              		.loc 1 1776 0
 10623 1d3a 414B     		ldr	r3, .L483
 10624 1d3c FB18     		add	r3, r7, r3
 10625 1d3e 0022     		mov	r2, #0
 10626 1d40 9A5E     		ldrsh	r2, [r3, r2]
 10627 1d42 434B     		ldr	r3, .L483+16
 10628 1d44 FB18     		add	r3, r7, r3
 10629 1d46 0021     		mov	r1, #0
 10630 1d48 5B5E     		ldrsh	r3, [r3, r1]
 10631 1d4a D31A     		sub	r3, r2, r3
 10632 1d4c D822     		mov	r2, #216
 10633 1d4e BA18     		add	r2, r7, r2
 10634 1d50 1360     		str	r3, [r2]
 10635 1d52 1023     		mov	r3, #16
 10636 1d54 D422     		mov	r2, #212
 10637 1d56 BA18     		add	r2, r7, r2
 10638 1d58 1360     		str	r3, [r2]
 10639              	.LBB222:
 10640              	.LBB223:
ARM GAS  C:\Users\fneves\AppData\Local\Temp\cc0ayw4Y.s 			page 242


 699:.\Include/arm_math.h ****     for (i = 0; i < (y - 1); i++)
 10641              		.loc 2 699 0
 10642 1d5a 0123     		mov	r3, #1
 10643 1d5c D022     		mov	r2, #208
 10644 1d5e BA18     		add	r2, r7, r2
 10645 1d60 1360     		str	r3, [r2]
 700:.\Include/arm_math.h ****     {
 10646              		.loc 2 700 0
 10647 1d62 0023     		mov	r3, #0
 10648 1d64 CC22     		mov	r2, #204
 10649 1d66 BA18     		add	r2, r7, r2
 10650 1d68 1360     		str	r3, [r2]
 10651 1d6a 0DE0     		b	.L374
 10652              	.L375:
 702:.\Include/arm_math.h ****     }
 10653              		.loc 2 702 0
 10654 1d6c D023     		mov	r3, #208
 10655 1d6e FB18     		add	r3, r7, r3
 10656 1d70 1B68     		ldr	r3, [r3]
 10657 1d72 5B00     		lsl	r3, r3, #1
 10658 1d74 D022     		mov	r2, #208
 10659 1d76 BA18     		add	r2, r7, r2
 10660 1d78 1360     		str	r3, [r2]
 700:.\Include/arm_math.h ****     {
 10661              		.loc 2 700 0
 10662 1d7a CC23     		mov	r3, #204
 10663 1d7c FB18     		add	r3, r7, r3
 10664 1d7e 1B68     		ldr	r3, [r3]
 10665 1d80 0133     		add	r3, r3, #1
 10666 1d82 CC22     		mov	r2, #204
 10667 1d84 BA18     		add	r2, r7, r2
 10668 1d86 1360     		str	r3, [r2]
 10669              	.L374:
 10670 1d88 D423     		mov	r3, #212
 10671 1d8a FB18     		add	r3, r7, r3
 10672 1d8c 1B68     		ldr	r3, [r3]
 10673 1d8e 013B     		sub	r3, r3, #1
 10674 1d90 CC22     		mov	r2, #204
 10675 1d92 BA18     		add	r2, r7, r2
 10676 1d94 1268     		ldr	r2, [r2]
 10677 1d96 9A42     		cmp	r2, r3
 10678 1d98 E8D3     		bcc	.L375
 705:.\Include/arm_math.h ****     {
 10679              		.loc 2 705 0
 10680 1d9a D823     		mov	r3, #216
 10681 1d9c FB18     		add	r3, r7, r3
 10682 1d9e 1B68     		ldr	r3, [r3]
 10683 1da0 002B     		cmp	r3, #0
 10684 1da2 15DD     		ble	.L376
 707:.\Include/arm_math.h **** 
 10685              		.loc 2 707 0
 10686 1da4 D023     		mov	r3, #208
 10687 1da6 FB18     		add	r3, r7, r3
 10688 1da8 1B68     		ldr	r3, [r3]
 10689 1daa 013B     		sub	r3, r3, #1
 10690 1dac D022     		mov	r2, #208
 10691 1dae BA18     		add	r2, r7, r2
ARM GAS  C:\Users\fneves\AppData\Local\Temp\cc0ayw4Y.s 			page 243


 10692 1db0 1360     		str	r3, [r2]
 709:.\Include/arm_math.h ****       {
 10693              		.loc 2 709 0
 10694 1db2 D823     		mov	r3, #216
 10695 1db4 FB18     		add	r3, r7, r3
 10696 1db6 1A68     		ldr	r2, [r3]
 10697 1db8 D023     		mov	r3, #208
 10698 1dba FB18     		add	r3, r7, r3
 10699 1dbc 1B68     		ldr	r3, [r3]
 10700 1dbe 9A42     		cmp	r2, r3
 10701 1dc0 1CDD     		ble	.L459
 711:.\Include/arm_math.h ****       }
 10702              		.loc 2 711 0
 10703 1dc2 D023     		mov	r3, #208
 10704 1dc4 FB18     		add	r3, r7, r3
 10705 1dc6 1B68     		ldr	r3, [r3]
 10706 1dc8 D822     		mov	r2, #216
 10707 1dca BA18     		add	r2, r7, r2
 10708 1dcc 1360     		str	r3, [r2]
 10709 1dce 16E0     		b	.L378
 10710              	.L376:
 716:.\Include/arm_math.h **** 
 10711              		.loc 2 716 0
 10712 1dd0 D023     		mov	r3, #208
 10713 1dd2 FB18     		add	r3, r7, r3
 10714 1dd4 1B68     		ldr	r3, [r3]
 10715 1dd6 5B42     		neg	r3, r3
 10716 1dd8 C822     		mov	r2, #200
 10717 1dda BA18     		add	r2, r7, r2
 10718 1ddc 1360     		str	r3, [r2]
 718:.\Include/arm_math.h ****       {
 10719              		.loc 2 718 0
 10720 1dde D823     		mov	r3, #216
 10721 1de0 FB18     		add	r3, r7, r3
 10722 1de2 1A68     		ldr	r2, [r3]
 10723 1de4 C823     		mov	r3, #200
 10724 1de6 FB18     		add	r3, r7, r3
 10725 1de8 1B68     		ldr	r3, [r3]
 10726 1dea 9A42     		cmp	r2, r3
 10727 1dec 07DA     		bge	.L378
 720:.\Include/arm_math.h ****       }
 10728              		.loc 2 720 0
 10729 1dee C823     		mov	r3, #200
 10730 1df0 FB18     		add	r3, r7, r3
 10731 1df2 1B68     		ldr	r3, [r3]
 10732 1df4 D822     		mov	r2, #216
 10733 1df6 BA18     		add	r2, r7, r2
 10734 1df8 1360     		str	r3, [r2]
 10735 1dfa 00E0     		b	.L378
 10736              	.L459:
 711:.\Include/arm_math.h ****       }
 10737              		.loc 2 711 0
 10738 1dfc C046     		mov	r8, r8
 10739              	.L378:
 10740              		.loc 2 723 0
 10741 1dfe D823     		mov	r3, #216
 10742 1e00 FB18     		add	r3, r7, r3
ARM GAS  C:\Users\fneves\AppData\Local\Temp\cc0ayw4Y.s 			page 244


 10743 1e02 1A68     		ldr	r2, [r3]
 10744              	.LBE223:
 10745              	.LBE222:
 10746              		.loc 1 1776 0
 10747 1e04 0E4B     		ldr	r3, .L483
 10748 1e06 FB18     		add	r3, r7, r3
 10749 1e08 1A80     		strh	r2, [r3]
1777:Source\TransformFunctions/arm_cfft_radix4_q15.c ****         T1 = __SSAT(T1 - U1, 16u);
 10750              		.loc 1 1777 0
 10751 1e0a A223     		mov	r3, #162
 10752 1e0c 9B00     		lsl	r3, r3, #2
 10753 1e0e FB18     		add	r3, r7, r3
 10754 1e10 0022     		mov	r2, #0
 10755 1e12 9A5E     		ldrsh	r2, [r3, r2]
 10756 1e14 9F23     		mov	r3, #159
 10757 1e16 9B00     		lsl	r3, r3, #2
 10758 1e18 FB18     		add	r3, r7, r3
 10759 1e1a 0021     		mov	r1, #0
 10760 1e1c 5B5E     		ldrsh	r3, [r3, r1]
 10761 1e1e D31A     		sub	r3, r2, r3
 10762 1e20 C422     		mov	r2, #196
 10763 1e22 BA18     		add	r2, r7, r2
 10764 1e24 1360     		str	r3, [r2]
 10765 1e26 1023     		mov	r3, #16
 10766 1e28 C022     		mov	r2, #192
 10767 1e2a BA18     		add	r2, r7, r2
 10768 1e2c 1360     		str	r3, [r2]
 10769              	.LBB224:
 10770              	.LBB225:
 699:.\Include/arm_math.h ****     for (i = 0; i < (y - 1); i++)
 10771              		.loc 2 699 0
 10772 1e2e 0123     		mov	r3, #1
 10773 1e30 BC22     		mov	r2, #188
 10774 1e32 BA18     		add	r2, r7, r2
 10775 1e34 1360     		str	r3, [r2]
 700:.\Include/arm_math.h ****     {
 10776              		.loc 2 700 0
 10777 1e36 0023     		mov	r3, #0
 10778 1e38 B822     		mov	r2, #184
 10779 1e3a BA18     		add	r2, r7, r2
 10780 1e3c 1360     		str	r3, [r2]
 10781 1e3e 17E0     		b	.L380
 10782              	.L484:
 10783              		.align	2
 10784              	.L483:
 10785 1e40 8A020000 		.word	650
 10786 1e44 82020000 		.word	642
 10787 1e48 7A020000 		.word	634
 10788 1e4c 76020000 		.word	630
 10789 1e50 7E020000 		.word	638
 10790              	.L381:
 702:.\Include/arm_math.h ****     }
 10791              		.loc 2 702 0
 10792 1e54 BC23     		mov	r3, #188
 10793 1e56 FB18     		add	r3, r7, r3
 10794 1e58 1B68     		ldr	r3, [r3]
 10795 1e5a 5B00     		lsl	r3, r3, #1
ARM GAS  C:\Users\fneves\AppData\Local\Temp\cc0ayw4Y.s 			page 245


 10796 1e5c BC22     		mov	r2, #188
 10797 1e5e BA18     		add	r2, r7, r2
 10798 1e60 1360     		str	r3, [r2]
 700:.\Include/arm_math.h ****     {
 10799              		.loc 2 700 0
 10800 1e62 B823     		mov	r3, #184
 10801 1e64 FB18     		add	r3, r7, r3
 10802 1e66 1B68     		ldr	r3, [r3]
 10803 1e68 0133     		add	r3, r3, #1
 10804 1e6a B822     		mov	r2, #184
 10805 1e6c BA18     		add	r2, r7, r2
 10806 1e6e 1360     		str	r3, [r2]
 10807              	.L380:
 10808 1e70 C023     		mov	r3, #192
 10809 1e72 FB18     		add	r3, r7, r3
 10810 1e74 1B68     		ldr	r3, [r3]
 10811 1e76 013B     		sub	r3, r3, #1
 10812 1e78 B822     		mov	r2, #184
 10813 1e7a BA18     		add	r2, r7, r2
 10814 1e7c 1268     		ldr	r2, [r2]
 10815 1e7e 9A42     		cmp	r2, r3
 10816 1e80 E8D3     		bcc	.L381
 705:.\Include/arm_math.h ****     {
 10817              		.loc 2 705 0
 10818 1e82 C423     		mov	r3, #196
 10819 1e84 FB18     		add	r3, r7, r3
 10820 1e86 1B68     		ldr	r3, [r3]
 10821 1e88 002B     		cmp	r3, #0
 10822 1e8a 15DD     		ble	.L382
 707:.\Include/arm_math.h **** 
 10823              		.loc 2 707 0
 10824 1e8c BC23     		mov	r3, #188
 10825 1e8e FB18     		add	r3, r7, r3
 10826 1e90 1B68     		ldr	r3, [r3]
 10827 1e92 013B     		sub	r3, r3, #1
 10828 1e94 BC22     		mov	r2, #188
 10829 1e96 BA18     		add	r2, r7, r2
 10830 1e98 1360     		str	r3, [r2]
 709:.\Include/arm_math.h ****       {
 10831              		.loc 2 709 0
 10832 1e9a C423     		mov	r3, #196
 10833 1e9c FB18     		add	r3, r7, r3
 10834 1e9e 1A68     		ldr	r2, [r3]
 10835 1ea0 BC23     		mov	r3, #188
 10836 1ea2 FB18     		add	r3, r7, r3
 10837 1ea4 1B68     		ldr	r3, [r3]
 10838 1ea6 9A42     		cmp	r2, r3
 10839 1ea8 1CDD     		ble	.L460
 711:.\Include/arm_math.h ****       }
 10840              		.loc 2 711 0
 10841 1eaa BC23     		mov	r3, #188
 10842 1eac FB18     		add	r3, r7, r3
 10843 1eae 1B68     		ldr	r3, [r3]
 10844 1eb0 C422     		mov	r2, #196
 10845 1eb2 BA18     		add	r2, r7, r2
 10846 1eb4 1360     		str	r3, [r2]
 10847 1eb6 16E0     		b	.L384
ARM GAS  C:\Users\fneves\AppData\Local\Temp\cc0ayw4Y.s 			page 246


 10848              	.L382:
 716:.\Include/arm_math.h **** 
 10849              		.loc 2 716 0
 10850 1eb8 BC23     		mov	r3, #188
 10851 1eba FB18     		add	r3, r7, r3
 10852 1ebc 1B68     		ldr	r3, [r3]
 10853 1ebe 5B42     		neg	r3, r3
 10854 1ec0 B422     		mov	r2, #180
 10855 1ec2 BA18     		add	r2, r7, r2
 10856 1ec4 1360     		str	r3, [r2]
 718:.\Include/arm_math.h ****       {
 10857              		.loc 2 718 0
 10858 1ec6 C423     		mov	r3, #196
 10859 1ec8 FB18     		add	r3, r7, r3
 10860 1eca 1A68     		ldr	r2, [r3]
 10861 1ecc B423     		mov	r3, #180
 10862 1ece FB18     		add	r3, r7, r3
 10863 1ed0 1B68     		ldr	r3, [r3]
 10864 1ed2 9A42     		cmp	r2, r3
 10865 1ed4 07DA     		bge	.L384
 720:.\Include/arm_math.h ****       }
 10866              		.loc 2 720 0
 10867 1ed6 B423     		mov	r3, #180
 10868 1ed8 FB18     		add	r3, r7, r3
 10869 1eda 1B68     		ldr	r3, [r3]
 10870 1edc C422     		mov	r2, #196
 10871 1ede BA18     		add	r2, r7, r2
 10872 1ee0 1360     		str	r3, [r2]
 10873 1ee2 00E0     		b	.L384
 10874              	.L460:
 711:.\Include/arm_math.h ****       }
 10875              		.loc 2 711 0
 10876 1ee4 C046     		mov	r8, r8
 10877              	.L384:
 10878              		.loc 2 723 0
 10879 1ee6 C423     		mov	r3, #196
 10880 1ee8 FB18     		add	r3, r7, r3
 10881 1eea 1A68     		ldr	r2, [r3]
 10882              	.LBE225:
 10883              	.LBE224:
 10884              		.loc 1 1777 0
 10885 1eec A223     		mov	r3, #162
 10886 1eee 9B00     		lsl	r3, r3, #2
 10887 1ef0 FB18     		add	r3, r7, r3
 10888 1ef2 1A80     		strh	r2, [r3]
1778:Source\TransformFunctions/arm_cfft_radix4_q15.c **** 
1779:Source\TransformFunctions/arm_cfft_radix4_q15.c ****         /* R0 = (ya-yc) - (xb- xd) , R1 = (xa-xc) + (yb-yd) */
1780:Source\TransformFunctions/arm_cfft_radix4_q15.c ****         R0 = (S0 >> 1u) + (T1 >> 1u);
 10889              		.loc 1 1780 0
 10890 1ef4 F04B     		ldr	r3, .L485
 10891 1ef6 FB18     		add	r3, r7, r3
 10892 1ef8 0022     		mov	r2, #0
 10893 1efa 9B5E     		ldrsh	r3, [r3, r2]
 10894 1efc 5B10     		asr	r3, r3, #1
 10895 1efe 9BB2     		uxth	r3, r3
 10896 1f00 9AB2     		uxth	r2, r3
 10897 1f02 A223     		mov	r3, #162
ARM GAS  C:\Users\fneves\AppData\Local\Temp\cc0ayw4Y.s 			page 247


 10898 1f04 9B00     		lsl	r3, r3, #2
 10899 1f06 FB18     		add	r3, r7, r3
 10900 1f08 0021     		mov	r1, #0
 10901 1f0a 5B5E     		ldrsh	r3, [r3, r1]
 10902 1f0c 5B10     		asr	r3, r3, #1
 10903 1f0e 9BB2     		uxth	r3, r3
 10904 1f10 9BB2     		uxth	r3, r3
 10905 1f12 D318     		add	r3, r2, r3
 10906 1f14 9AB2     		uxth	r2, r3
 10907 1f16 E94B     		ldr	r3, .L485+4
 10908 1f18 FB18     		add	r3, r7, r3
 10909 1f1a 1A80     		strh	r2, [r3]
1781:Source\TransformFunctions/arm_cfft_radix4_q15.c ****         R1 = (S1 >> 1u) - (T0 >> 1u);
 10910              		.loc 1 1781 0
 10911 1f1c A123     		mov	r3, #161
 10912 1f1e 9B00     		lsl	r3, r3, #2
 10913 1f20 FB18     		add	r3, r7, r3
 10914 1f22 0022     		mov	r2, #0
 10915 1f24 9B5E     		ldrsh	r3, [r3, r2]
 10916 1f26 5B10     		asr	r3, r3, #1
 10917 1f28 9BB2     		uxth	r3, r3
 10918 1f2a 9AB2     		uxth	r2, r3
 10919 1f2c E44B     		ldr	r3, .L485+8
 10920 1f2e FB18     		add	r3, r7, r3
 10921 1f30 0021     		mov	r1, #0
 10922 1f32 5B5E     		ldrsh	r3, [r3, r1]
 10923 1f34 5B10     		asr	r3, r3, #1
 10924 1f36 9BB2     		uxth	r3, r3
 10925 1f38 9BB2     		uxth	r3, r3
 10926 1f3a D31A     		sub	r3, r2, r3
 10927 1f3c 9AB2     		uxth	r2, r3
 10928 1f3e A023     		mov	r3, #160
 10929 1f40 9B00     		lsl	r3, r3, #2
 10930 1f42 FB18     		add	r3, r7, r3
 10931 1f44 1A80     		strh	r2, [r3]
1782:Source\TransformFunctions/arm_cfft_radix4_q15.c **** 
1783:Source\TransformFunctions/arm_cfft_radix4_q15.c ****         /* S1 = (ya-yc) + (xb- xd), S1 = (xa-xc) - (yb-yd) */
1784:Source\TransformFunctions/arm_cfft_radix4_q15.c ****         S0 = (S0 >> 1u) - (T1 >> 1u);
 10932              		.loc 1 1784 0
 10933 1f46 DC4B     		ldr	r3, .L485
 10934 1f48 FB18     		add	r3, r7, r3
 10935 1f4a 0022     		mov	r2, #0
 10936 1f4c 9B5E     		ldrsh	r3, [r3, r2]
 10937 1f4e 5B10     		asr	r3, r3, #1
 10938 1f50 9BB2     		uxth	r3, r3
 10939 1f52 9AB2     		uxth	r2, r3
 10940 1f54 A223     		mov	r3, #162
 10941 1f56 9B00     		lsl	r3, r3, #2
 10942 1f58 FB18     		add	r3, r7, r3
 10943 1f5a 0021     		mov	r1, #0
 10944 1f5c 5B5E     		ldrsh	r3, [r3, r1]
 10945 1f5e 5B10     		asr	r3, r3, #1
 10946 1f60 9BB2     		uxth	r3, r3
 10947 1f62 9BB2     		uxth	r3, r3
 10948 1f64 D31A     		sub	r3, r2, r3
 10949 1f66 9AB2     		uxth	r2, r3
 10950 1f68 D34B     		ldr	r3, .L485
ARM GAS  C:\Users\fneves\AppData\Local\Temp\cc0ayw4Y.s 			page 248


 10951 1f6a FB18     		add	r3, r7, r3
 10952 1f6c 1A80     		strh	r2, [r3]
1785:Source\TransformFunctions/arm_cfft_radix4_q15.c ****         S1 = (S1 >> 1u) + (T0 >> 1u);
 10953              		.loc 1 1785 0
 10954 1f6e A123     		mov	r3, #161
 10955 1f70 9B00     		lsl	r3, r3, #2
 10956 1f72 FB18     		add	r3, r7, r3
 10957 1f74 0022     		mov	r2, #0
 10958 1f76 9B5E     		ldrsh	r3, [r3, r2]
 10959 1f78 5B10     		asr	r3, r3, #1
 10960 1f7a 9BB2     		uxth	r3, r3
 10961 1f7c 9AB2     		uxth	r2, r3
 10962 1f7e D04B     		ldr	r3, .L485+8
 10963 1f80 FB18     		add	r3, r7, r3
 10964 1f82 0021     		mov	r1, #0
 10965 1f84 5B5E     		ldrsh	r3, [r3, r1]
 10966 1f86 5B10     		asr	r3, r3, #1
 10967 1f88 9BB2     		uxth	r3, r3
 10968 1f8a 9BB2     		uxth	r3, r3
 10969 1f8c D318     		add	r3, r2, r3
 10970 1f8e 9AB2     		uxth	r2, r3
 10971 1f90 A123     		mov	r3, #161
 10972 1f92 9B00     		lsl	r3, r3, #2
 10973 1f94 FB18     		add	r3, r7, r3
 10974 1f96 1A80     		strh	r2, [r3]
1786:Source\TransformFunctions/arm_cfft_radix4_q15.c **** 
1787:Source\TransformFunctions/arm_cfft_radix4_q15.c ****         /*  Butterfly process for the i0+fftLen/2 sample */
1788:Source\TransformFunctions/arm_cfft_radix4_q15.c ****         out1 = (q15_t) ((Co1 * S0 - Si1 * S1) >> 16u);
 10975              		.loc 1 1788 0
 10976 1f98 CA4B     		ldr	r3, .L485+12
 10977 1f9a FB18     		add	r3, r7, r3
 10978 1f9c 0022     		mov	r2, #0
 10979 1f9e 9B5E     		ldrsh	r3, [r3, r2]
 10980 1fa0 C54A     		ldr	r2, .L485
 10981 1fa2 BA18     		add	r2, r7, r2
 10982 1fa4 0021     		mov	r1, #0
 10983 1fa6 525E     		ldrsh	r2, [r2, r1]
 10984 1fa8 5A43     		mul	r2, r3
 10985 1faa 9C23     		mov	r3, #156
 10986 1fac 9B00     		lsl	r3, r3, #2
 10987 1fae FB18     		add	r3, r7, r3
 10988 1fb0 0021     		mov	r1, #0
 10989 1fb2 5B5E     		ldrsh	r3, [r3, r1]
 10990 1fb4 A121     		mov	r1, #161
 10991 1fb6 8900     		lsl	r1, r1, #2
 10992 1fb8 7918     		add	r1, r7, r1
 10993 1fba 0020     		mov	r0, #0
 10994 1fbc 095E     		ldrsh	r1, [r1, r0]
 10995 1fbe 4B43     		mul	r3, r1
 10996 1fc0 D31A     		sub	r3, r2, r3
 10997 1fc2 1A14     		asr	r2, r3, #16
 10998 1fc4 C04B     		ldr	r3, .L485+16
 10999 1fc6 FB18     		add	r3, r7, r3
 11000 1fc8 1A80     		strh	r2, [r3]
1789:Source\TransformFunctions/arm_cfft_radix4_q15.c ****         out2 = (q15_t) ((Si1 * S0 + Co1 * S1) >> 16u);
 11001              		.loc 1 1789 0
 11002 1fca 9C23     		mov	r3, #156
ARM GAS  C:\Users\fneves\AppData\Local\Temp\cc0ayw4Y.s 			page 249


 11003 1fcc 9B00     		lsl	r3, r3, #2
 11004 1fce FB18     		add	r3, r7, r3
 11005 1fd0 0022     		mov	r2, #0
 11006 1fd2 9B5E     		ldrsh	r3, [r3, r2]
 11007 1fd4 B84A     		ldr	r2, .L485
 11008 1fd6 BA18     		add	r2, r7, r2
 11009 1fd8 0021     		mov	r1, #0
 11010 1fda 525E     		ldrsh	r2, [r2, r1]
 11011 1fdc 5A43     		mul	r2, r3
 11012 1fde B94B     		ldr	r3, .L485+12
 11013 1fe0 FB18     		add	r3, r7, r3
 11014 1fe2 0021     		mov	r1, #0
 11015 1fe4 5B5E     		ldrsh	r3, [r3, r1]
 11016 1fe6 A121     		mov	r1, #161
 11017 1fe8 8900     		lsl	r1, r1, #2
 11018 1fea 7918     		add	r1, r7, r1
 11019 1fec 0020     		mov	r0, #0
 11020 1fee 095E     		ldrsh	r1, [r1, r0]
 11021 1ff0 4B43     		mul	r3, r1
 11022 1ff2 D318     		add	r3, r2, r3
 11023 1ff4 1A14     		asr	r2, r3, #16
 11024 1ff6 9D23     		mov	r3, #157
 11025 1ff8 9B00     		lsl	r3, r3, #2
 11026 1ffa FB18     		add	r3, r7, r3
 11027 1ffc 1A80     		strh	r2, [r3]
1790:Source\TransformFunctions/arm_cfft_radix4_q15.c ****         /* xb' = (xa-yb-xc+yd)* co1 - (ya+xb-yc-xd)* (si1) */
1791:Source\TransformFunctions/arm_cfft_radix4_q15.c ****         /* yb' = (ya+xb-yc-xd)* co1 + (xa-yb-xc+yd)* (si1) */
1792:Source\TransformFunctions/arm_cfft_radix4_q15.c ****         pSrc16[i2 * 2u] = out1;
 11028              		.loc 1 1792 0
 11029 1ffe A423     		mov	r3, #164
 11030 2000 9B00     		lsl	r3, r3, #2
 11031 2002 FB18     		add	r3, r7, r3
 11032 2004 1B68     		ldr	r3, [r3]
 11033 2006 9B00     		lsl	r3, r3, #2
 11034 2008 FA68     		ldr	r2, [r7, #12]
 11035 200a D318     		add	r3, r2, r3
 11036 200c AE4A     		ldr	r2, .L485+16
 11037 200e BA18     		add	r2, r7, r2
 11038 2010 1288     		ldrh	r2, [r2]
 11039 2012 1A80     		strh	r2, [r3]
1793:Source\TransformFunctions/arm_cfft_radix4_q15.c ****         pSrc16[(i2 * 2u) + 1u] = out2;
 11040              		.loc 1 1793 0
 11041 2014 A423     		mov	r3, #164
 11042 2016 9B00     		lsl	r3, r3, #2
 11043 2018 FB18     		add	r3, r7, r3
 11044 201a 1B68     		ldr	r3, [r3]
 11045 201c 9B00     		lsl	r3, r3, #2
 11046 201e 0233     		add	r3, r3, #2
 11047 2020 FA68     		ldr	r2, [r7, #12]
 11048 2022 D318     		add	r3, r2, r3
 11049 2024 9D22     		mov	r2, #157
 11050 2026 9200     		lsl	r2, r2, #2
 11051 2028 BA18     		add	r2, r7, r2
 11052 202a 1288     		ldrh	r2, [r2]
 11053 202c 1A80     		strh	r2, [r3]
1794:Source\TransformFunctions/arm_cfft_radix4_q15.c **** 
1795:Source\TransformFunctions/arm_cfft_radix4_q15.c ****         /*  Butterfly process for the i0+3fftLen/4 sample */
ARM GAS  C:\Users\fneves\AppData\Local\Temp\cc0ayw4Y.s 			page 250


1796:Source\TransformFunctions/arm_cfft_radix4_q15.c ****         out1 = (q15_t) ((Co3 * R0 - Si3 * R1) >> 16u);
 11054              		.loc 1 1796 0
 11055 202e A74B     		ldr	r3, .L485+20
 11056 2030 FB18     		add	r3, r7, r3
 11057 2032 0022     		mov	r2, #0
 11058 2034 9B5E     		ldrsh	r3, [r3, r2]
 11059 2036 A14A     		ldr	r2, .L485+4
 11060 2038 BA18     		add	r2, r7, r2
 11061 203a 0021     		mov	r1, #0
 11062 203c 525E     		ldrsh	r2, [r2, r1]
 11063 203e 5A43     		mul	r2, r3
 11064 2040 9B23     		mov	r3, #155
 11065 2042 9B00     		lsl	r3, r3, #2
 11066 2044 FB18     		add	r3, r7, r3
 11067 2046 0021     		mov	r1, #0
 11068 2048 5B5E     		ldrsh	r3, [r3, r1]
 11069 204a A021     		mov	r1, #160
 11070 204c 8900     		lsl	r1, r1, #2
 11071 204e 7918     		add	r1, r7, r1
 11072 2050 0020     		mov	r0, #0
 11073 2052 095E     		ldrsh	r1, [r1, r0]
 11074 2054 4B43     		mul	r3, r1
 11075 2056 D31A     		sub	r3, r2, r3
 11076 2058 1A14     		asr	r2, r3, #16
 11077 205a 9B4B     		ldr	r3, .L485+16
 11078 205c FB18     		add	r3, r7, r3
 11079 205e 1A80     		strh	r2, [r3]
1797:Source\TransformFunctions/arm_cfft_radix4_q15.c **** 
1798:Source\TransformFunctions/arm_cfft_radix4_q15.c ****         out2 = (q15_t) ((Si3 * R0 + Co3 * R1) >> 16u);
 11080              		.loc 1 1798 0
 11081 2060 9B23     		mov	r3, #155
 11082 2062 9B00     		lsl	r3, r3, #2
 11083 2064 FB18     		add	r3, r7, r3
 11084 2066 0022     		mov	r2, #0
 11085 2068 9B5E     		ldrsh	r3, [r3, r2]
 11086 206a 944A     		ldr	r2, .L485+4
 11087 206c BA18     		add	r2, r7, r2
 11088 206e 0021     		mov	r1, #0
 11089 2070 525E     		ldrsh	r2, [r2, r1]
 11090 2072 5A43     		mul	r2, r3
 11091 2074 954B     		ldr	r3, .L485+20
 11092 2076 FB18     		add	r3, r7, r3
 11093 2078 0021     		mov	r1, #0
 11094 207a 5B5E     		ldrsh	r3, [r3, r1]
 11095 207c A021     		mov	r1, #160
 11096 207e 8900     		lsl	r1, r1, #2
 11097 2080 7918     		add	r1, r7, r1
 11098 2082 0020     		mov	r0, #0
 11099 2084 095E     		ldrsh	r1, [r1, r0]
 11100 2086 4B43     		mul	r3, r1
 11101 2088 D318     		add	r3, r2, r3
 11102 208a 1A14     		asr	r2, r3, #16
 11103 208c 9D23     		mov	r3, #157
 11104 208e 9B00     		lsl	r3, r3, #2
 11105 2090 FB18     		add	r3, r7, r3
 11106 2092 1A80     		strh	r2, [r3]
1799:Source\TransformFunctions/arm_cfft_radix4_q15.c ****         /* xd' = (xa+yb-xc-yd)* Co3 - (ya-xb-yc+xd)* (si3) */
ARM GAS  C:\Users\fneves\AppData\Local\Temp\cc0ayw4Y.s 			page 251


1800:Source\TransformFunctions/arm_cfft_radix4_q15.c ****         /* yd' = (ya-xb-yc+xd)* Co3 + (xa+yb-xc-yd)* (si3) */
1801:Source\TransformFunctions/arm_cfft_radix4_q15.c ****         pSrc16[i3 * 2u] = out1;
 11107              		.loc 1 1801 0
 11108 2094 A323     		mov	r3, #163
 11109 2096 9B00     		lsl	r3, r3, #2
 11110 2098 FB18     		add	r3, r7, r3
 11111 209a 1B68     		ldr	r3, [r3]
 11112 209c 9B00     		lsl	r3, r3, #2
 11113 209e FA68     		ldr	r2, [r7, #12]
 11114 20a0 D318     		add	r3, r2, r3
 11115 20a2 894A     		ldr	r2, .L485+16
 11116 20a4 BA18     		add	r2, r7, r2
 11117 20a6 1288     		ldrh	r2, [r2]
 11118 20a8 1A80     		strh	r2, [r3]
1802:Source\TransformFunctions/arm_cfft_radix4_q15.c ****         pSrc16[(i3 * 2u) + 1u] = out2;
 11119              		.loc 1 1802 0
 11120 20aa A323     		mov	r3, #163
 11121 20ac 9B00     		lsl	r3, r3, #2
 11122 20ae FB18     		add	r3, r7, r3
 11123 20b0 1B68     		ldr	r3, [r3]
 11124 20b2 9B00     		lsl	r3, r3, #2
 11125 20b4 0233     		add	r3, r3, #2
 11126 20b6 FA68     		ldr	r2, [r7, #12]
 11127 20b8 D318     		add	r3, r2, r3
 11128 20ba 9D22     		mov	r2, #157
 11129 20bc 9200     		lsl	r2, r2, #2
 11130 20be BA18     		add	r2, r7, r2
 11131 20c0 1288     		ldrh	r2, [r2]
 11132 20c2 1A80     		strh	r2, [r3]
1706:Source\TransformFunctions/arm_cfft_radix4_q15.c ****       {
 11133              		.loc 1 1706 0
 11134 20c4 A923     		mov	r3, #169
 11135 20c6 9B00     		lsl	r3, r3, #2
 11136 20c8 FB18     		add	r3, r7, r3
 11137 20ca 1A68     		ldr	r2, [r3]
 11138 20cc A623     		mov	r3, #166
 11139 20ce 9B00     		lsl	r3, r3, #2
 11140 20d0 FB18     		add	r3, r7, r3
 11141 20d2 1B68     		ldr	r3, [r3]
 11142 20d4 D318     		add	r3, r2, r3
 11143 20d6 A922     		mov	r2, #169
 11144 20d8 9200     		lsl	r2, r2, #2
 11145 20da BA18     		add	r2, r7, r2
 11146 20dc 1360     		str	r3, [r2]
 11147              	.L337:
1706:Source\TransformFunctions/arm_cfft_radix4_q15.c ****       {
 11148              		.loc 1 1706 0 is_stmt 0 discriminator 1
 11149 20de A923     		mov	r3, #169
 11150 20e0 9B00     		lsl	r3, r3, #2
 11151 20e2 FB18     		add	r3, r7, r3
 11152 20e4 1A68     		ldr	r2, [r3]
 11153 20e6 BB68     		ldr	r3, [r7, #8]
 11154 20e8 9A42     		cmp	r2, r3
 11155 20ea 01D2     		bcs	.LCB10323
 11156 20ec FFF7D7F9 		bl	.L386	@far jump
 11157              	.LCB10323:
1692:Source\TransformFunctions/arm_cfft_radix4_q15.c ****     {
ARM GAS  C:\Users\fneves\AppData\Local\Temp\cc0ayw4Y.s 			page 252


 11158              		.loc 1 1692 0 is_stmt 1 discriminator 2
 11159 20f0 A823     		mov	r3, #168
 11160 20f2 9B00     		lsl	r3, r3, #2
 11161 20f4 FB18     		add	r3, r7, r3
 11162 20f6 1B68     		ldr	r3, [r3]
 11163 20f8 0133     		add	r3, r3, #1
 11164 20fa A822     		mov	r2, #168
 11165 20fc 9200     		lsl	r2, r2, #2
 11166 20fe BA18     		add	r2, r7, r2
 11167 2100 1360     		str	r3, [r2]
 11168              	.L336:
1692:Source\TransformFunctions/arm_cfft_radix4_q15.c ****     {
 11169              		.loc 1 1692 0 is_stmt 0 discriminator 1
 11170 2102 AB23     		mov	r3, #171
 11171 2104 9B00     		lsl	r3, r3, #2
 11172 2106 FB18     		add	r3, r7, r3
 11173 2108 1B68     		ldr	r3, [r3]
 11174 210a 5A1E     		sub	r2, r3, #1
 11175 210c A823     		mov	r3, #168
 11176 210e 9B00     		lsl	r3, r3, #2
 11177 2110 FB18     		add	r3, r7, r3
 11178 2112 1B68     		ldr	r3, [r3]
 11179 2114 9A42     		cmp	r2, r3
 11180 2116 01D3     		bcc	.LCB10345
 11181 2118 FFF75EF9 		bl	.L387	@far jump
 11182              	.LCB10345:
1803:Source\TransformFunctions/arm_cfft_radix4_q15.c **** 
1804:Source\TransformFunctions/arm_cfft_radix4_q15.c **** 
1805:Source\TransformFunctions/arm_cfft_radix4_q15.c ****       }
1806:Source\TransformFunctions/arm_cfft_radix4_q15.c ****     }
1807:Source\TransformFunctions/arm_cfft_radix4_q15.c ****     /*  Twiddle coefficients index modifier */
1808:Source\TransformFunctions/arm_cfft_radix4_q15.c ****     twidCoefModifier <<= 2u;
 11183              		.loc 1 1808 0 is_stmt 1 discriminator 2
 11184 211c 3B68     		ldr	r3, [r7]
 11185 211e 9B00     		lsl	r3, r3, #2
 11186 2120 3B60     		str	r3, [r7]
1685:Source\TransformFunctions/arm_cfft_radix4_q15.c ****   {
 11187              		.loc 1 1685 0 discriminator 2
 11188 2122 A723     		mov	r3, #167
 11189 2124 9B00     		lsl	r3, r3, #2
 11190 2126 FB18     		add	r3, r7, r3
 11191 2128 1B68     		ldr	r3, [r3]
 11192 212a 9B08     		lsr	r3, r3, #2
 11193 212c A722     		mov	r2, #167
 11194 212e 9200     		lsl	r2, r2, #2
 11195 2130 BA18     		add	r2, r7, r2
 11196 2132 1360     		str	r3, [r2]
 11197              	.L335:
1685:Source\TransformFunctions/arm_cfft_radix4_q15.c ****   {
 11198              		.loc 1 1685 0 is_stmt 0 discriminator 1
 11199 2134 A723     		mov	r3, #167
 11200 2136 9B00     		lsl	r3, r3, #2
 11201 2138 FB18     		add	r3, r7, r3
 11202 213a 1B68     		ldr	r3, [r3]
 11203 213c 042B     		cmp	r3, #4
 11204 213e 01D9     		bls	.LCB10365
 11205 2140 FFF72DF9 		bl	.L388	@far jump
ARM GAS  C:\Users\fneves\AppData\Local\Temp\cc0ayw4Y.s 			page 253


 11206              	.LCB10365:
1809:Source\TransformFunctions/arm_cfft_radix4_q15.c ****   }
1810:Source\TransformFunctions/arm_cfft_radix4_q15.c ****   /*  End of Middle stages process */
1811:Source\TransformFunctions/arm_cfft_radix4_q15.c **** 
1812:Source\TransformFunctions/arm_cfft_radix4_q15.c **** 
1813:Source\TransformFunctions/arm_cfft_radix4_q15.c ****   /* data is in 10.6(q6) format for the 1024 point */
1814:Source\TransformFunctions/arm_cfft_radix4_q15.c ****   /* data is in 8.8(q8) format for the 256 point   */
1815:Source\TransformFunctions/arm_cfft_radix4_q15.c ****   /* data is in 6.10(q10) format for the 64 point  */
1816:Source\TransformFunctions/arm_cfft_radix4_q15.c ****   /* data is in 4.12(q12) format for the 16 point  */
1817:Source\TransformFunctions/arm_cfft_radix4_q15.c **** 
1818:Source\TransformFunctions/arm_cfft_radix4_q15.c ****   /* start of last stage process */
1819:Source\TransformFunctions/arm_cfft_radix4_q15.c **** 
1820:Source\TransformFunctions/arm_cfft_radix4_q15.c **** 
1821:Source\TransformFunctions/arm_cfft_radix4_q15.c ****   /*  Initializations for the last stage */
1822:Source\TransformFunctions/arm_cfft_radix4_q15.c ****   n1 = n2;
 11207              		.loc 1 1822 0 is_stmt 1
 11208 2144 AB23     		mov	r3, #171
 11209 2146 9B00     		lsl	r3, r3, #2
 11210 2148 FB18     		add	r3, r7, r3
 11211 214a 1B68     		ldr	r3, [r3]
 11212 214c A622     		mov	r2, #166
 11213 214e 9200     		lsl	r2, r2, #2
 11214 2150 BA18     		add	r2, r7, r2
 11215 2152 1360     		str	r3, [r2]
1823:Source\TransformFunctions/arm_cfft_radix4_q15.c ****   n2 >>= 2u;
 11216              		.loc 1 1823 0
 11217 2154 AB23     		mov	r3, #171
 11218 2156 9B00     		lsl	r3, r3, #2
 11219 2158 FB18     		add	r3, r7, r3
 11220 215a 1B68     		ldr	r3, [r3]
 11221 215c 9B08     		lsr	r3, r3, #2
 11222 215e AB22     		mov	r2, #171
 11223 2160 9200     		lsl	r2, r2, #2
 11224 2162 BA18     		add	r2, r7, r2
 11225 2164 1360     		str	r3, [r2]
1824:Source\TransformFunctions/arm_cfft_radix4_q15.c **** 
1825:Source\TransformFunctions/arm_cfft_radix4_q15.c ****   /*  Butterfly implementation */
1826:Source\TransformFunctions/arm_cfft_radix4_q15.c ****   for (i0 = 0u; i0 <= (fftLen - n1); i0 += n1)
 11226              		.loc 1 1826 0
 11227 2166 0023     		mov	r3, #0
 11228 2168 A922     		mov	r2, #169
 11229 216a 9200     		lsl	r2, r2, #2
 11230 216c BA18     		add	r2, r7, r2
 11231 216e 1360     		str	r3, [r2]
 11232 2170 00F006FC 		bl	.L389	@ far jump
 11233              	.L438:
1827:Source\TransformFunctions/arm_cfft_radix4_q15.c ****   {
1828:Source\TransformFunctions/arm_cfft_radix4_q15.c ****     /*  index calculation for the input as, */
1829:Source\TransformFunctions/arm_cfft_radix4_q15.c ****     /*  pSrc16[i0 + 0], pSrc16[i0 + fftLen/4], pSrc16[i0 + fftLen/2], pSrc16[i0 + 3fftLen/4] */
1830:Source\TransformFunctions/arm_cfft_radix4_q15.c ****     i1 = i0 + n2;
 11234              		.loc 1 1830 0 discriminator 3
 11235 2174 A923     		mov	r3, #169
 11236 2176 9B00     		lsl	r3, r3, #2
 11237 2178 FB18     		add	r3, r7, r3
 11238 217a 1A68     		ldr	r2, [r3]
 11239 217c AB23     		mov	r3, #171
 11240 217e 9B00     		lsl	r3, r3, #2
ARM GAS  C:\Users\fneves\AppData\Local\Temp\cc0ayw4Y.s 			page 254


 11241 2180 FB18     		add	r3, r7, r3
 11242 2182 1B68     		ldr	r3, [r3]
 11243 2184 D318     		add	r3, r2, r3
 11244 2186 A522     		mov	r2, #165
 11245 2188 9200     		lsl	r2, r2, #2
 11246 218a BA18     		add	r2, r7, r2
 11247 218c 1360     		str	r3, [r2]
1831:Source\TransformFunctions/arm_cfft_radix4_q15.c ****     i2 = i1 + n2;
 11248              		.loc 1 1831 0 discriminator 3
 11249 218e A523     		mov	r3, #165
 11250 2190 9B00     		lsl	r3, r3, #2
 11251 2192 FB18     		add	r3, r7, r3
 11252 2194 1A68     		ldr	r2, [r3]
 11253 2196 AB23     		mov	r3, #171
 11254 2198 9B00     		lsl	r3, r3, #2
 11255 219a FB18     		add	r3, r7, r3
 11256 219c 1B68     		ldr	r3, [r3]
 11257 219e D318     		add	r3, r2, r3
 11258 21a0 A422     		mov	r2, #164
 11259 21a2 9200     		lsl	r2, r2, #2
 11260 21a4 BA18     		add	r2, r7, r2
 11261 21a6 1360     		str	r3, [r2]
1832:Source\TransformFunctions/arm_cfft_radix4_q15.c ****     i3 = i2 + n2;
 11262              		.loc 1 1832 0 discriminator 3
 11263 21a8 A423     		mov	r3, #164
 11264 21aa 9B00     		lsl	r3, r3, #2
 11265 21ac FB18     		add	r3, r7, r3
 11266 21ae 1A68     		ldr	r2, [r3]
 11267 21b0 AB23     		mov	r3, #171
 11268 21b2 9B00     		lsl	r3, r3, #2
 11269 21b4 FB18     		add	r3, r7, r3
 11270 21b6 1B68     		ldr	r3, [r3]
 11271 21b8 D318     		add	r3, r2, r3
 11272 21ba A322     		mov	r2, #163
 11273 21bc 9200     		lsl	r2, r2, #2
 11274 21be BA18     		add	r2, r7, r2
 11275 21c0 1360     		str	r3, [r2]
1833:Source\TransformFunctions/arm_cfft_radix4_q15.c **** 
1834:Source\TransformFunctions/arm_cfft_radix4_q15.c ****     /*  Reading i0, i0+fftLen/2 inputs */
1835:Source\TransformFunctions/arm_cfft_radix4_q15.c ****     /* Read ya (real), xa(imag) input */
1836:Source\TransformFunctions/arm_cfft_radix4_q15.c ****     T0 = pSrc16[i0 * 2u];
 11276              		.loc 1 1836 0 discriminator 3
 11277 21c2 A923     		mov	r3, #169
 11278 21c4 9B00     		lsl	r3, r3, #2
 11279 21c6 FB18     		add	r3, r7, r3
 11280 21c8 1B68     		ldr	r3, [r3]
 11281 21ca 9B00     		lsl	r3, r3, #2
 11282 21cc FA68     		ldr	r2, [r7, #12]
 11283 21ce D218     		add	r2, r2, r3
 11284 21d0 3B4B     		ldr	r3, .L485+8
 11285 21d2 FB18     		add	r3, r7, r3
 11286 21d4 1288     		ldrh	r2, [r2]
 11287 21d6 1A80     		strh	r2, [r3]
1837:Source\TransformFunctions/arm_cfft_radix4_q15.c ****     T1 = pSrc16[(i0 * 2u) + 1u];
 11288              		.loc 1 1837 0 discriminator 3
 11289 21d8 A923     		mov	r3, #169
 11290 21da 9B00     		lsl	r3, r3, #2
ARM GAS  C:\Users\fneves\AppData\Local\Temp\cc0ayw4Y.s 			page 255


 11291 21dc FB18     		add	r3, r7, r3
 11292 21de 1B68     		ldr	r3, [r3]
 11293 21e0 9B00     		lsl	r3, r3, #2
 11294 21e2 0233     		add	r3, r3, #2
 11295 21e4 FA68     		ldr	r2, [r7, #12]
 11296 21e6 D218     		add	r2, r2, r3
 11297 21e8 A223     		mov	r3, #162
 11298 21ea 9B00     		lsl	r3, r3, #2
 11299 21ec FB18     		add	r3, r7, r3
 11300 21ee 1288     		ldrh	r2, [r2]
 11301 21f0 1A80     		strh	r2, [r3]
1838:Source\TransformFunctions/arm_cfft_radix4_q15.c ****     /* Read yc (real), xc(imag) input */
1839:Source\TransformFunctions/arm_cfft_radix4_q15.c ****     S0 = pSrc16[i2 * 2u];
 11302              		.loc 1 1839 0 discriminator 3
 11303 21f2 A423     		mov	r3, #164
 11304 21f4 9B00     		lsl	r3, r3, #2
 11305 21f6 FB18     		add	r3, r7, r3
 11306 21f8 1B68     		ldr	r3, [r3]
 11307 21fa 9B00     		lsl	r3, r3, #2
 11308 21fc FA68     		ldr	r2, [r7, #12]
 11309 21fe D218     		add	r2, r2, r3
 11310 2200 2D4B     		ldr	r3, .L485
 11311 2202 FB18     		add	r3, r7, r3
 11312 2204 1288     		ldrh	r2, [r2]
 11313 2206 1A80     		strh	r2, [r3]
1840:Source\TransformFunctions/arm_cfft_radix4_q15.c ****     S1 = pSrc16[(i2 * 2u) + 1u];
 11314              		.loc 1 1840 0 discriminator 3
 11315 2208 A423     		mov	r3, #164
 11316 220a 9B00     		lsl	r3, r3, #2
 11317 220c FB18     		add	r3, r7, r3
 11318 220e 1B68     		ldr	r3, [r3]
 11319 2210 9B00     		lsl	r3, r3, #2
 11320 2212 0233     		add	r3, r3, #2
 11321 2214 FA68     		ldr	r2, [r7, #12]
 11322 2216 D218     		add	r2, r2, r3
 11323 2218 A123     		mov	r3, #161
 11324 221a 9B00     		lsl	r3, r3, #2
 11325 221c FB18     		add	r3, r7, r3
 11326 221e 1288     		ldrh	r2, [r2]
 11327 2220 1A80     		strh	r2, [r3]
1841:Source\TransformFunctions/arm_cfft_radix4_q15.c **** 
1842:Source\TransformFunctions/arm_cfft_radix4_q15.c ****     /* R0 = (ya + yc), R1 = (xa + xc) */
1843:Source\TransformFunctions/arm_cfft_radix4_q15.c ****     R0 = __SSAT(T0 + S0, 16u);
 11328              		.loc 1 1843 0 discriminator 3
 11329 2222 274B     		ldr	r3, .L485+8
 11330 2224 FB18     		add	r3, r7, r3
 11331 2226 0022     		mov	r2, #0
 11332 2228 9A5E     		ldrsh	r2, [r3, r2]
 11333 222a 234B     		ldr	r3, .L485
 11334 222c FB18     		add	r3, r7, r3
 11335 222e 0021     		mov	r1, #0
 11336 2230 5B5E     		ldrsh	r3, [r3, r1]
 11337 2232 D318     		add	r3, r2, r3
 11338 2234 B022     		mov	r2, #176
 11339 2236 BA18     		add	r2, r7, r2
 11340 2238 1360     		str	r3, [r2]
 11341 223a 1023     		mov	r3, #16
ARM GAS  C:\Users\fneves\AppData\Local\Temp\cc0ayw4Y.s 			page 256


 11342 223c AC22     		mov	r2, #172
 11343 223e BA18     		add	r2, r7, r2
 11344 2240 1360     		str	r3, [r2]
 11345              	.LBB226:
 11346              	.LBB227:
 699:.\Include/arm_math.h ****     for (i = 0; i < (y - 1); i++)
 11347              		.loc 2 699 0 discriminator 3
 11348 2242 0123     		mov	r3, #1
 11349 2244 A822     		mov	r2, #168
 11350 2246 BA18     		add	r2, r7, r2
 11351 2248 1360     		str	r3, [r2]
 700:.\Include/arm_math.h ****     {
 11352              		.loc 2 700 0 discriminator 3
 11353 224a 0023     		mov	r3, #0
 11354 224c A422     		mov	r2, #164
 11355 224e BA18     		add	r2, r7, r2
 11356 2250 1360     		str	r3, [r2]
 11357 2252 0DE0     		b	.L390
 11358              	.L391:
 702:.\Include/arm_math.h ****     }
 11359              		.loc 2 702 0
 11360 2254 A823     		mov	r3, #168
 11361 2256 FB18     		add	r3, r7, r3
 11362 2258 1B68     		ldr	r3, [r3]
 11363 225a 5B00     		lsl	r3, r3, #1
 11364 225c A822     		mov	r2, #168
 11365 225e BA18     		add	r2, r7, r2
 11366 2260 1360     		str	r3, [r2]
 700:.\Include/arm_math.h ****     {
 11367              		.loc 2 700 0
 11368 2262 A423     		mov	r3, #164
 11369 2264 FB18     		add	r3, r7, r3
 11370 2266 1B68     		ldr	r3, [r3]
 11371 2268 0133     		add	r3, r3, #1
 11372 226a A422     		mov	r2, #164
 11373 226c BA18     		add	r2, r7, r2
 11374 226e 1360     		str	r3, [r2]
 11375              	.L390:
 11376 2270 AC23     		mov	r3, #172
 11377 2272 FB18     		add	r3, r7, r3
 11378 2274 1B68     		ldr	r3, [r3]
 11379 2276 013B     		sub	r3, r3, #1
 11380 2278 A422     		mov	r2, #164
 11381 227a BA18     		add	r2, r7, r2
 11382 227c 1268     		ldr	r2, [r2]
 11383 227e 9A42     		cmp	r2, r3
 11384 2280 E8D3     		bcc	.L391
 705:.\Include/arm_math.h ****     {
 11385              		.loc 2 705 0
 11386 2282 B023     		mov	r3, #176
 11387 2284 FB18     		add	r3, r7, r3
 11388 2286 1B68     		ldr	r3, [r3]
 11389 2288 002B     		cmp	r3, #0
 11390 228a 21DD     		ble	.L392
 707:.\Include/arm_math.h **** 
 11391              		.loc 2 707 0
 11392 228c A823     		mov	r3, #168
ARM GAS  C:\Users\fneves\AppData\Local\Temp\cc0ayw4Y.s 			page 257


 11393 228e FB18     		add	r3, r7, r3
 11394 2290 1B68     		ldr	r3, [r3]
 11395 2292 013B     		sub	r3, r3, #1
 11396 2294 A822     		mov	r2, #168
 11397 2296 BA18     		add	r2, r7, r2
 11398 2298 1360     		str	r3, [r2]
 709:.\Include/arm_math.h ****       {
 11399              		.loc 2 709 0
 11400 229a B023     		mov	r3, #176
 11401 229c FB18     		add	r3, r7, r3
 11402 229e 1A68     		ldr	r2, [r3]
 11403 22a0 A823     		mov	r3, #168
 11404 22a2 FB18     		add	r3, r7, r3
 11405 22a4 1B68     		ldr	r3, [r3]
 11406 22a6 9A42     		cmp	r2, r3
 11407 22a8 28DD     		ble	.L461
 711:.\Include/arm_math.h ****       }
 11408              		.loc 2 711 0
 11409 22aa A823     		mov	r3, #168
 11410 22ac FB18     		add	r3, r7, r3
 11411 22ae 1B68     		ldr	r3, [r3]
 11412 22b0 B022     		mov	r2, #176
 11413 22b2 BA18     		add	r2, r7, r2
 11414 22b4 1360     		str	r3, [r2]
 11415 22b6 22E0     		b	.L394
 11416              	.L486:
 11417              		.align	2
 11418              	.L485:
 11419 22b8 86020000 		.word	646
 11420 22bc 82020000 		.word	642
 11421 22c0 8A020000 		.word	650
 11422 22c4 72020000 		.word	626
 11423 22c8 76020000 		.word	630
 11424 22cc 6E020000 		.word	622
 11425              	.L392:
 716:.\Include/arm_math.h **** 
 11426              		.loc 2 716 0
 11427 22d0 A823     		mov	r3, #168
 11428 22d2 FB18     		add	r3, r7, r3
 11429 22d4 1B68     		ldr	r3, [r3]
 11430 22d6 5B42     		neg	r3, r3
 11431 22d8 A022     		mov	r2, #160
 11432 22da BA18     		add	r2, r7, r2
 11433 22dc 1360     		str	r3, [r2]
 718:.\Include/arm_math.h ****       {
 11434              		.loc 2 718 0
 11435 22de B023     		mov	r3, #176
 11436 22e0 FB18     		add	r3, r7, r3
 11437 22e2 1A68     		ldr	r2, [r3]
 11438 22e4 A023     		mov	r3, #160
 11439 22e6 FB18     		add	r3, r7, r3
 11440 22e8 1B68     		ldr	r3, [r3]
 11441 22ea 9A42     		cmp	r2, r3
 11442 22ec 07DA     		bge	.L394
 720:.\Include/arm_math.h ****       }
 11443              		.loc 2 720 0
 11444 22ee A023     		mov	r3, #160
ARM GAS  C:\Users\fneves\AppData\Local\Temp\cc0ayw4Y.s 			page 258


 11445 22f0 FB18     		add	r3, r7, r3
 11446 22f2 1B68     		ldr	r3, [r3]
 11447 22f4 B022     		mov	r2, #176
 11448 22f6 BA18     		add	r2, r7, r2
 11449 22f8 1360     		str	r3, [r2]
 11450 22fa 00E0     		b	.L394
 11451              	.L461:
 711:.\Include/arm_math.h ****       }
 11452              		.loc 2 711 0
 11453 22fc C046     		mov	r8, r8
 11454              	.L394:
 11455              		.loc 2 723 0
 11456 22fe B023     		mov	r3, #176
 11457 2300 FB18     		add	r3, r7, r3
 11458 2302 1A68     		ldr	r2, [r3]
 11459              	.LBE227:
 11460              	.LBE226:
 11461              		.loc 1 1843 0
 11462 2304 CF4B     		ldr	r3, .L487
 11463 2306 FB18     		add	r3, r7, r3
 11464 2308 1A80     		strh	r2, [r3]
1844:Source\TransformFunctions/arm_cfft_radix4_q15.c ****     R1 = __SSAT(T1 + S1, 16u);
 11465              		.loc 1 1844 0
 11466 230a A223     		mov	r3, #162
 11467 230c 9B00     		lsl	r3, r3, #2
 11468 230e FB18     		add	r3, r7, r3
 11469 2310 0022     		mov	r2, #0
 11470 2312 9A5E     		ldrsh	r2, [r3, r2]
 11471 2314 A123     		mov	r3, #161
 11472 2316 9B00     		lsl	r3, r3, #2
 11473 2318 FB18     		add	r3, r7, r3
 11474 231a 0021     		mov	r1, #0
 11475 231c 5B5E     		ldrsh	r3, [r3, r1]
 11476 231e D318     		add	r3, r2, r3
 11477 2320 9C22     		mov	r2, #156
 11478 2322 BA18     		add	r2, r7, r2
 11479 2324 1360     		str	r3, [r2]
 11480 2326 1023     		mov	r3, #16
 11481 2328 9822     		mov	r2, #152
 11482 232a BA18     		add	r2, r7, r2
 11483 232c 1360     		str	r3, [r2]
 11484              	.LBB228:
 11485              	.LBB229:
 699:.\Include/arm_math.h ****     for (i = 0; i < (y - 1); i++)
 11486              		.loc 2 699 0
 11487 232e 0123     		mov	r3, #1
 11488 2330 9422     		mov	r2, #148
 11489 2332 BA18     		add	r2, r7, r2
 11490 2334 1360     		str	r3, [r2]
 700:.\Include/arm_math.h ****     {
 11491              		.loc 2 700 0
 11492 2336 0023     		mov	r3, #0
 11493 2338 9022     		mov	r2, #144
 11494 233a BA18     		add	r2, r7, r2
 11495 233c 1360     		str	r3, [r2]
 11496 233e 0DE0     		b	.L396
 11497              	.L397:
ARM GAS  C:\Users\fneves\AppData\Local\Temp\cc0ayw4Y.s 			page 259


 702:.\Include/arm_math.h ****     }
 11498              		.loc 2 702 0
 11499 2340 9423     		mov	r3, #148
 11500 2342 FB18     		add	r3, r7, r3
 11501 2344 1B68     		ldr	r3, [r3]
 11502 2346 5B00     		lsl	r3, r3, #1
 11503 2348 9422     		mov	r2, #148
 11504 234a BA18     		add	r2, r7, r2
 11505 234c 1360     		str	r3, [r2]
 700:.\Include/arm_math.h ****     {
 11506              		.loc 2 700 0
 11507 234e 9023     		mov	r3, #144
 11508 2350 FB18     		add	r3, r7, r3
 11509 2352 1B68     		ldr	r3, [r3]
 11510 2354 0133     		add	r3, r3, #1
 11511 2356 9022     		mov	r2, #144
 11512 2358 BA18     		add	r2, r7, r2
 11513 235a 1360     		str	r3, [r2]
 11514              	.L396:
 11515 235c 9823     		mov	r3, #152
 11516 235e FB18     		add	r3, r7, r3
 11517 2360 1B68     		ldr	r3, [r3]
 11518 2362 013B     		sub	r3, r3, #1
 11519 2364 9022     		mov	r2, #144
 11520 2366 BA18     		add	r2, r7, r2
 11521 2368 1268     		ldr	r2, [r2]
 11522 236a 9A42     		cmp	r2, r3
 11523 236c E8D3     		bcc	.L397
 705:.\Include/arm_math.h ****     {
 11524              		.loc 2 705 0
 11525 236e 9C23     		mov	r3, #156
 11526 2370 FB18     		add	r3, r7, r3
 11527 2372 1B68     		ldr	r3, [r3]
 11528 2374 002B     		cmp	r3, #0
 11529 2376 15DD     		ble	.L398
 707:.\Include/arm_math.h **** 
 11530              		.loc 2 707 0
 11531 2378 9423     		mov	r3, #148
 11532 237a FB18     		add	r3, r7, r3
 11533 237c 1B68     		ldr	r3, [r3]
 11534 237e 013B     		sub	r3, r3, #1
 11535 2380 9422     		mov	r2, #148
 11536 2382 BA18     		add	r2, r7, r2
 11537 2384 1360     		str	r3, [r2]
 709:.\Include/arm_math.h ****       {
 11538              		.loc 2 709 0
 11539 2386 9C23     		mov	r3, #156
 11540 2388 FB18     		add	r3, r7, r3
 11541 238a 1A68     		ldr	r2, [r3]
 11542 238c 9423     		mov	r3, #148
 11543 238e FB18     		add	r3, r7, r3
 11544 2390 1B68     		ldr	r3, [r3]
 11545 2392 9A42     		cmp	r2, r3
 11546 2394 1CDD     		ble	.L462
 711:.\Include/arm_math.h ****       }
 11547              		.loc 2 711 0
 11548 2396 9423     		mov	r3, #148
ARM GAS  C:\Users\fneves\AppData\Local\Temp\cc0ayw4Y.s 			page 260


 11549 2398 FB18     		add	r3, r7, r3
 11550 239a 1B68     		ldr	r3, [r3]
 11551 239c 9C22     		mov	r2, #156
 11552 239e BA18     		add	r2, r7, r2
 11553 23a0 1360     		str	r3, [r2]
 11554 23a2 16E0     		b	.L400
 11555              	.L398:
 716:.\Include/arm_math.h **** 
 11556              		.loc 2 716 0
 11557 23a4 9423     		mov	r3, #148
 11558 23a6 FB18     		add	r3, r7, r3
 11559 23a8 1B68     		ldr	r3, [r3]
 11560 23aa 5B42     		neg	r3, r3
 11561 23ac 8C22     		mov	r2, #140
 11562 23ae BA18     		add	r2, r7, r2
 11563 23b0 1360     		str	r3, [r2]
 718:.\Include/arm_math.h ****       {
 11564              		.loc 2 718 0
 11565 23b2 9C23     		mov	r3, #156
 11566 23b4 FB18     		add	r3, r7, r3
 11567 23b6 1A68     		ldr	r2, [r3]
 11568 23b8 8C23     		mov	r3, #140
 11569 23ba FB18     		add	r3, r7, r3
 11570 23bc 1B68     		ldr	r3, [r3]
 11571 23be 9A42     		cmp	r2, r3
 11572 23c0 07DA     		bge	.L400
 720:.\Include/arm_math.h ****       }
 11573              		.loc 2 720 0
 11574 23c2 8C23     		mov	r3, #140
 11575 23c4 FB18     		add	r3, r7, r3
 11576 23c6 1B68     		ldr	r3, [r3]
 11577 23c8 9C22     		mov	r2, #156
 11578 23ca BA18     		add	r2, r7, r2
 11579 23cc 1360     		str	r3, [r2]
 11580 23ce 00E0     		b	.L400
 11581              	.L462:
 711:.\Include/arm_math.h ****       }
 11582              		.loc 2 711 0
 11583 23d0 C046     		mov	r8, r8
 11584              	.L400:
 11585              		.loc 2 723 0
 11586 23d2 9C23     		mov	r3, #156
 11587 23d4 FB18     		add	r3, r7, r3
 11588 23d6 1A68     		ldr	r2, [r3]
 11589              	.LBE229:
 11590              	.LBE228:
 11591              		.loc 1 1844 0
 11592 23d8 A023     		mov	r3, #160
 11593 23da 9B00     		lsl	r3, r3, #2
 11594 23dc FB18     		add	r3, r7, r3
 11595 23de 1A80     		strh	r2, [r3]
1845:Source\TransformFunctions/arm_cfft_radix4_q15.c ****     /* S0 = (ya - yc), S1 = (xa - xc) */
1846:Source\TransformFunctions/arm_cfft_radix4_q15.c ****     S0 = __SSAT(T0 - S0, 16u);
 11596              		.loc 1 1846 0
 11597 23e0 994B     		ldr	r3, .L487+4
 11598 23e2 FB18     		add	r3, r7, r3
 11599 23e4 0022     		mov	r2, #0
ARM GAS  C:\Users\fneves\AppData\Local\Temp\cc0ayw4Y.s 			page 261


 11600 23e6 9A5E     		ldrsh	r2, [r3, r2]
 11601 23e8 984B     		ldr	r3, .L487+8
 11602 23ea FB18     		add	r3, r7, r3
 11603 23ec 0021     		mov	r1, #0
 11604 23ee 5B5E     		ldrsh	r3, [r3, r1]
 11605 23f0 D31A     		sub	r3, r2, r3
 11606 23f2 8822     		mov	r2, #136
 11607 23f4 BA18     		add	r2, r7, r2
 11608 23f6 1360     		str	r3, [r2]
 11609 23f8 1023     		mov	r3, #16
 11610 23fa 8422     		mov	r2, #132
 11611 23fc BA18     		add	r2, r7, r2
 11612 23fe 1360     		str	r3, [r2]
 11613              	.LBB230:
 11614              	.LBB231:
 699:.\Include/arm_math.h ****     for (i = 0; i < (y - 1); i++)
 11615              		.loc 2 699 0
 11616 2400 0123     		mov	r3, #1
 11617 2402 8022     		mov	r2, #128
 11618 2404 BA18     		add	r2, r7, r2
 11619 2406 1360     		str	r3, [r2]
 700:.\Include/arm_math.h ****     {
 11620              		.loc 2 700 0
 11621 2408 0023     		mov	r3, #0
 11622 240a FB67     		str	r3, [r7, #124]
 11623 240c 09E0     		b	.L402
 11624              	.L403:
 702:.\Include/arm_math.h ****     }
 11625              		.loc 2 702 0
 11626 240e 8023     		mov	r3, #128
 11627 2410 FB18     		add	r3, r7, r3
 11628 2412 1B68     		ldr	r3, [r3]
 11629 2414 5B00     		lsl	r3, r3, #1
 11630 2416 8022     		mov	r2, #128
 11631 2418 BA18     		add	r2, r7, r2
 11632 241a 1360     		str	r3, [r2]
 700:.\Include/arm_math.h ****     {
 11633              		.loc 2 700 0
 11634 241c FB6F     		ldr	r3, [r7, #124]
 11635 241e 0133     		add	r3, r3, #1
 11636 2420 FB67     		str	r3, [r7, #124]
 11637              	.L402:
 11638 2422 8423     		mov	r3, #132
 11639 2424 FB18     		add	r3, r7, r3
 11640 2426 1B68     		ldr	r3, [r3]
 11641 2428 013B     		sub	r3, r3, #1
 11642 242a FA6F     		ldr	r2, [r7, #124]
 11643 242c 9A42     		cmp	r2, r3
 11644 242e EED3     		bcc	.L403
 705:.\Include/arm_math.h ****     {
 11645              		.loc 2 705 0
 11646 2430 8823     		mov	r3, #136
 11647 2432 FB18     		add	r3, r7, r3
 11648 2434 1B68     		ldr	r3, [r3]
 11649 2436 002B     		cmp	r3, #0
 11650 2438 15DD     		ble	.L404
 707:.\Include/arm_math.h **** 
ARM GAS  C:\Users\fneves\AppData\Local\Temp\cc0ayw4Y.s 			page 262


 11651              		.loc 2 707 0
 11652 243a 8023     		mov	r3, #128
 11653 243c FB18     		add	r3, r7, r3
 11654 243e 1B68     		ldr	r3, [r3]
 11655 2440 013B     		sub	r3, r3, #1
 11656 2442 8022     		mov	r2, #128
 11657 2444 BA18     		add	r2, r7, r2
 11658 2446 1360     		str	r3, [r2]
 709:.\Include/arm_math.h ****       {
 11659              		.loc 2 709 0
 11660 2448 8823     		mov	r3, #136
 11661 244a FB18     		add	r3, r7, r3
 11662 244c 1A68     		ldr	r2, [r3]
 11663 244e 8023     		mov	r3, #128
 11664 2450 FB18     		add	r3, r7, r3
 11665 2452 1B68     		ldr	r3, [r3]
 11666 2454 9A42     		cmp	r2, r3
 11667 2456 16DD     		ble	.L463
 711:.\Include/arm_math.h ****       }
 11668              		.loc 2 711 0
 11669 2458 8023     		mov	r3, #128
 11670 245a FB18     		add	r3, r7, r3
 11671 245c 1B68     		ldr	r3, [r3]
 11672 245e 8822     		mov	r2, #136
 11673 2460 BA18     		add	r2, r7, r2
 11674 2462 1360     		str	r3, [r2]
 11675 2464 10E0     		b	.L406
 11676              	.L404:
 716:.\Include/arm_math.h **** 
 11677              		.loc 2 716 0
 11678 2466 8023     		mov	r3, #128
 11679 2468 FB18     		add	r3, r7, r3
 11680 246a 1B68     		ldr	r3, [r3]
 11681 246c 5B42     		neg	r3, r3
 11682 246e BB67     		str	r3, [r7, #120]
 718:.\Include/arm_math.h ****       {
 11683              		.loc 2 718 0
 11684 2470 8823     		mov	r3, #136
 11685 2472 FB18     		add	r3, r7, r3
 11686 2474 1A68     		ldr	r2, [r3]
 11687 2476 BB6F     		ldr	r3, [r7, #120]
 11688 2478 9A42     		cmp	r2, r3
 11689 247a 05DA     		bge	.L406
 720:.\Include/arm_math.h ****       }
 11690              		.loc 2 720 0
 11691 247c BB6F     		ldr	r3, [r7, #120]
 11692 247e 8822     		mov	r2, #136
 11693 2480 BA18     		add	r2, r7, r2
 11694 2482 1360     		str	r3, [r2]
 11695 2484 00E0     		b	.L406
 11696              	.L463:
 711:.\Include/arm_math.h ****       }
 11697              		.loc 2 711 0
 11698 2486 C046     		mov	r8, r8
 11699              	.L406:
 11700              		.loc 2 723 0
 11701 2488 8823     		mov	r3, #136
ARM GAS  C:\Users\fneves\AppData\Local\Temp\cc0ayw4Y.s 			page 263


 11702 248a FB18     		add	r3, r7, r3
 11703 248c 1A68     		ldr	r2, [r3]
 11704              	.LBE231:
 11705              	.LBE230:
 11706              		.loc 1 1846 0
 11707 248e 6F4B     		ldr	r3, .L487+8
 11708 2490 FB18     		add	r3, r7, r3
 11709 2492 1A80     		strh	r2, [r3]
1847:Source\TransformFunctions/arm_cfft_radix4_q15.c ****     S1 = __SSAT(T1 - S1, 16u);
 11710              		.loc 1 1847 0
 11711 2494 A223     		mov	r3, #162
 11712 2496 9B00     		lsl	r3, r3, #2
 11713 2498 FB18     		add	r3, r7, r3
 11714 249a 0022     		mov	r2, #0
 11715 249c 9A5E     		ldrsh	r2, [r3, r2]
 11716 249e A123     		mov	r3, #161
 11717 24a0 9B00     		lsl	r3, r3, #2
 11718 24a2 FB18     		add	r3, r7, r3
 11719 24a4 0021     		mov	r1, #0
 11720 24a6 5B5E     		ldrsh	r3, [r3, r1]
 11721 24a8 D31A     		sub	r3, r2, r3
 11722 24aa 7B67     		str	r3, [r7, #116]
 11723 24ac 1023     		mov	r3, #16
 11724 24ae 3B67     		str	r3, [r7, #112]
 11725              	.LBB232:
 11726              	.LBB233:
 699:.\Include/arm_math.h ****     for (i = 0; i < (y - 1); i++)
 11727              		.loc 2 699 0
 11728 24b0 0123     		mov	r3, #1
 11729 24b2 FB66     		str	r3, [r7, #108]
 700:.\Include/arm_math.h ****     {
 11730              		.loc 2 700 0
 11731 24b4 0023     		mov	r3, #0
 11732 24b6 BB66     		str	r3, [r7, #104]
 11733 24b8 05E0     		b	.L408
 11734              	.L409:
 702:.\Include/arm_math.h ****     }
 11735              		.loc 2 702 0
 11736 24ba FB6E     		ldr	r3, [r7, #108]
 11737 24bc 5B00     		lsl	r3, r3, #1
 11738 24be FB66     		str	r3, [r7, #108]
 700:.\Include/arm_math.h ****     {
 11739              		.loc 2 700 0
 11740 24c0 BB6E     		ldr	r3, [r7, #104]
 11741 24c2 0133     		add	r3, r3, #1
 11742 24c4 BB66     		str	r3, [r7, #104]
 11743              	.L408:
 11744 24c6 3B6F     		ldr	r3, [r7, #112]
 11745 24c8 013B     		sub	r3, r3, #1
 11746 24ca BA6E     		ldr	r2, [r7, #104]
 11747 24cc 9A42     		cmp	r2, r3
 11748 24ce F4D3     		bcc	.L409
 705:.\Include/arm_math.h ****     {
 11749              		.loc 2 705 0
 11750 24d0 7B6F     		ldr	r3, [r7, #116]
 11751 24d2 002B     		cmp	r3, #0
 11752 24d4 09DD     		ble	.L410
ARM GAS  C:\Users\fneves\AppData\Local\Temp\cc0ayw4Y.s 			page 264


 707:.\Include/arm_math.h **** 
 11753              		.loc 2 707 0
 11754 24d6 FB6E     		ldr	r3, [r7, #108]
 11755 24d8 013B     		sub	r3, r3, #1
 11756 24da FB66     		str	r3, [r7, #108]
 709:.\Include/arm_math.h ****       {
 11757              		.loc 2 709 0
 11758 24dc 7A6F     		ldr	r2, [r7, #116]
 11759 24de FB6E     		ldr	r3, [r7, #108]
 11760 24e0 9A42     		cmp	r2, r3
 11761 24e2 0CDD     		ble	.L464
 711:.\Include/arm_math.h ****       }
 11762              		.loc 2 711 0
 11763 24e4 FB6E     		ldr	r3, [r7, #108]
 11764 24e6 7B67     		str	r3, [r7, #116]
 11765 24e8 0AE0     		b	.L412
 11766              	.L410:
 716:.\Include/arm_math.h **** 
 11767              		.loc 2 716 0
 11768 24ea FB6E     		ldr	r3, [r7, #108]
 11769 24ec 5B42     		neg	r3, r3
 11770 24ee 7B66     		str	r3, [r7, #100]
 718:.\Include/arm_math.h ****       {
 11771              		.loc 2 718 0
 11772 24f0 7A6F     		ldr	r2, [r7, #116]
 11773 24f2 7B6E     		ldr	r3, [r7, #100]
 11774 24f4 9A42     		cmp	r2, r3
 11775 24f6 03DA     		bge	.L412
 720:.\Include/arm_math.h ****       }
 11776              		.loc 2 720 0
 11777 24f8 7B6E     		ldr	r3, [r7, #100]
 11778 24fa 7B67     		str	r3, [r7, #116]
 11779 24fc 00E0     		b	.L412
 11780              	.L464:
 711:.\Include/arm_math.h ****       }
 11781              		.loc 2 711 0
 11782 24fe C046     		mov	r8, r8
 11783              	.L412:
 11784              		.loc 2 723 0
 11785 2500 7A6F     		ldr	r2, [r7, #116]
 11786              	.LBE233:
 11787              	.LBE232:
 11788              		.loc 1 1847 0
 11789 2502 A123     		mov	r3, #161
 11790 2504 9B00     		lsl	r3, r3, #2
 11791 2506 FB18     		add	r3, r7, r3
 11792 2508 1A80     		strh	r2, [r3]
1848:Source\TransformFunctions/arm_cfft_radix4_q15.c **** 
1849:Source\TransformFunctions/arm_cfft_radix4_q15.c ****     /*  Reading i0+fftLen/4 , i0+3fftLen/4 inputs */
1850:Source\TransformFunctions/arm_cfft_radix4_q15.c ****     /* Read yb (real), xb(imag) input */
1851:Source\TransformFunctions/arm_cfft_radix4_q15.c ****     T0 = pSrc16[i1 * 2u];
 11793              		.loc 1 1851 0
 11794 250a A523     		mov	r3, #165
 11795 250c 9B00     		lsl	r3, r3, #2
 11796 250e FB18     		add	r3, r7, r3
 11797 2510 1B68     		ldr	r3, [r3]
 11798 2512 9B00     		lsl	r3, r3, #2
ARM GAS  C:\Users\fneves\AppData\Local\Temp\cc0ayw4Y.s 			page 265


 11799 2514 FA68     		ldr	r2, [r7, #12]
 11800 2516 D218     		add	r2, r2, r3
 11801 2518 4B4B     		ldr	r3, .L487+4
 11802 251a FB18     		add	r3, r7, r3
 11803 251c 1288     		ldrh	r2, [r2]
 11804 251e 1A80     		strh	r2, [r3]
1852:Source\TransformFunctions/arm_cfft_radix4_q15.c ****     T1 = pSrc16[(i1 * 2u) + 1u];
 11805              		.loc 1 1852 0
 11806 2520 A523     		mov	r3, #165
 11807 2522 9B00     		lsl	r3, r3, #2
 11808 2524 FB18     		add	r3, r7, r3
 11809 2526 1B68     		ldr	r3, [r3]
 11810 2528 9B00     		lsl	r3, r3, #2
 11811 252a 0233     		add	r3, r3, #2
 11812 252c FA68     		ldr	r2, [r7, #12]
 11813 252e D218     		add	r2, r2, r3
 11814 2530 A223     		mov	r3, #162
 11815 2532 9B00     		lsl	r3, r3, #2
 11816 2534 FB18     		add	r3, r7, r3
 11817 2536 1288     		ldrh	r2, [r2]
 11818 2538 1A80     		strh	r2, [r3]
1853:Source\TransformFunctions/arm_cfft_radix4_q15.c ****     /* Read yd (real), xd(imag) input */
1854:Source\TransformFunctions/arm_cfft_radix4_q15.c ****     U0 = pSrc16[i3 * 2u];
 11819              		.loc 1 1854 0
 11820 253a A323     		mov	r3, #163
 11821 253c 9B00     		lsl	r3, r3, #2
 11822 253e FB18     		add	r3, r7, r3
 11823 2540 1B68     		ldr	r3, [r3]
 11824 2542 9B00     		lsl	r3, r3, #2
 11825 2544 FA68     		ldr	r2, [r7, #12]
 11826 2546 D218     		add	r2, r2, r3
 11827 2548 414B     		ldr	r3, .L487+12
 11828 254a FB18     		add	r3, r7, r3
 11829 254c 1288     		ldrh	r2, [r2]
 11830 254e 1A80     		strh	r2, [r3]
1855:Source\TransformFunctions/arm_cfft_radix4_q15.c ****     U1 = pSrc16[(i3 * 2u) + 1u];
 11831              		.loc 1 1855 0
 11832 2550 A323     		mov	r3, #163
 11833 2552 9B00     		lsl	r3, r3, #2
 11834 2554 FB18     		add	r3, r7, r3
 11835 2556 1B68     		ldr	r3, [r3]
 11836 2558 9B00     		lsl	r3, r3, #2
 11837 255a 0233     		add	r3, r3, #2
 11838 255c FA68     		ldr	r2, [r7, #12]
 11839 255e D218     		add	r2, r2, r3
 11840 2560 9F23     		mov	r3, #159
 11841 2562 9B00     		lsl	r3, r3, #2
 11842 2564 FB18     		add	r3, r7, r3
 11843 2566 1288     		ldrh	r2, [r2]
 11844 2568 1A80     		strh	r2, [r3]
1856:Source\TransformFunctions/arm_cfft_radix4_q15.c **** 
1857:Source\TransformFunctions/arm_cfft_radix4_q15.c ****     /* T0 = (yb + yd), T1 = (xb + xd) */
1858:Source\TransformFunctions/arm_cfft_radix4_q15.c ****     T0 = __SSAT(T0 + U0, 16u);
 11845              		.loc 1 1858 0
 11846 256a 374B     		ldr	r3, .L487+4
 11847 256c FB18     		add	r3, r7, r3
 11848 256e 0022     		mov	r2, #0
ARM GAS  C:\Users\fneves\AppData\Local\Temp\cc0ayw4Y.s 			page 266


 11849 2570 9A5E     		ldrsh	r2, [r3, r2]
 11850 2572 374B     		ldr	r3, .L487+12
 11851 2574 FB18     		add	r3, r7, r3
 11852 2576 0021     		mov	r1, #0
 11853 2578 5B5E     		ldrsh	r3, [r3, r1]
 11854 257a D318     		add	r3, r2, r3
 11855 257c 3B66     		str	r3, [r7, #96]
 11856 257e 1023     		mov	r3, #16
 11857 2580 FB65     		str	r3, [r7, #92]
 11858              	.LBB234:
 11859              	.LBB235:
 699:.\Include/arm_math.h ****     for (i = 0; i < (y - 1); i++)
 11860              		.loc 2 699 0
 11861 2582 0123     		mov	r3, #1
 11862 2584 BB65     		str	r3, [r7, #88]
 700:.\Include/arm_math.h ****     {
 11863              		.loc 2 700 0
 11864 2586 0023     		mov	r3, #0
 11865 2588 7B65     		str	r3, [r7, #84]
 11866 258a 05E0     		b	.L414
 11867              	.L415:
 702:.\Include/arm_math.h ****     }
 11868              		.loc 2 702 0
 11869 258c BB6D     		ldr	r3, [r7, #88]
 11870 258e 5B00     		lsl	r3, r3, #1
 11871 2590 BB65     		str	r3, [r7, #88]
 700:.\Include/arm_math.h ****     {
 11872              		.loc 2 700 0
 11873 2592 7B6D     		ldr	r3, [r7, #84]
 11874 2594 0133     		add	r3, r3, #1
 11875 2596 7B65     		str	r3, [r7, #84]
 11876              	.L414:
 11877 2598 FB6D     		ldr	r3, [r7, #92]
 11878 259a 013B     		sub	r3, r3, #1
 11879 259c 7A6D     		ldr	r2, [r7, #84]
 11880 259e 9A42     		cmp	r2, r3
 11881 25a0 F4D3     		bcc	.L415
 705:.\Include/arm_math.h ****     {
 11882              		.loc 2 705 0
 11883 25a2 3B6E     		ldr	r3, [r7, #96]
 11884 25a4 002B     		cmp	r3, #0
 11885 25a6 09DD     		ble	.L416
 707:.\Include/arm_math.h **** 
 11886              		.loc 2 707 0
 11887 25a8 BB6D     		ldr	r3, [r7, #88]
 11888 25aa 013B     		sub	r3, r3, #1
 11889 25ac BB65     		str	r3, [r7, #88]
 709:.\Include/arm_math.h ****       {
 11890              		.loc 2 709 0
 11891 25ae 3A6E     		ldr	r2, [r7, #96]
 11892 25b0 BB6D     		ldr	r3, [r7, #88]
 11893 25b2 9A42     		cmp	r2, r3
 11894 25b4 0CDD     		ble	.L465
 711:.\Include/arm_math.h ****       }
 11895              		.loc 2 711 0
 11896 25b6 BB6D     		ldr	r3, [r7, #88]
 11897 25b8 3B66     		str	r3, [r7, #96]
ARM GAS  C:\Users\fneves\AppData\Local\Temp\cc0ayw4Y.s 			page 267


 11898 25ba 0AE0     		b	.L418
 11899              	.L416:
 716:.\Include/arm_math.h **** 
 11900              		.loc 2 716 0
 11901 25bc BB6D     		ldr	r3, [r7, #88]
 11902 25be 5B42     		neg	r3, r3
 11903 25c0 3B65     		str	r3, [r7, #80]
 718:.\Include/arm_math.h ****       {
 11904              		.loc 2 718 0
 11905 25c2 3A6E     		ldr	r2, [r7, #96]
 11906 25c4 3B6D     		ldr	r3, [r7, #80]
 11907 25c6 9A42     		cmp	r2, r3
 11908 25c8 03DA     		bge	.L418
 720:.\Include/arm_math.h ****       }
 11909              		.loc 2 720 0
 11910 25ca 3B6D     		ldr	r3, [r7, #80]
 11911 25cc 3B66     		str	r3, [r7, #96]
 11912 25ce 00E0     		b	.L418
 11913              	.L465:
 711:.\Include/arm_math.h ****       }
 11914              		.loc 2 711 0
 11915 25d0 C046     		mov	r8, r8
 11916              	.L418:
 11917              		.loc 2 723 0
 11918 25d2 3A6E     		ldr	r2, [r7, #96]
 11919              	.LBE235:
 11920              	.LBE234:
 11921              		.loc 1 1858 0
 11922 25d4 1C4B     		ldr	r3, .L487+4
 11923 25d6 FB18     		add	r3, r7, r3
 11924 25d8 1A80     		strh	r2, [r3]
1859:Source\TransformFunctions/arm_cfft_radix4_q15.c ****     T1 = __SSAT(T1 + U1, 16u);
 11925              		.loc 1 1859 0
 11926 25da A223     		mov	r3, #162
 11927 25dc 9B00     		lsl	r3, r3, #2
 11928 25de FB18     		add	r3, r7, r3
 11929 25e0 0022     		mov	r2, #0
 11930 25e2 9A5E     		ldrsh	r2, [r3, r2]
 11931 25e4 9F23     		mov	r3, #159
 11932 25e6 9B00     		lsl	r3, r3, #2
 11933 25e8 FB18     		add	r3, r7, r3
 11934 25ea 0021     		mov	r1, #0
 11935 25ec 5B5E     		ldrsh	r3, [r3, r1]
 11936 25ee D318     		add	r3, r2, r3
 11937 25f0 FB64     		str	r3, [r7, #76]
 11938 25f2 1023     		mov	r3, #16
 11939 25f4 BB64     		str	r3, [r7, #72]
 11940              	.LBB236:
 11941              	.LBB237:
 699:.\Include/arm_math.h ****     for (i = 0; i < (y - 1); i++)
 11942              		.loc 2 699 0
 11943 25f6 0123     		mov	r3, #1
 11944 25f8 7B64     		str	r3, [r7, #68]
 700:.\Include/arm_math.h ****     {
 11945              		.loc 2 700 0
 11946 25fa 0023     		mov	r3, #0
 11947 25fc 3B64     		str	r3, [r7, #64]
ARM GAS  C:\Users\fneves\AppData\Local\Temp\cc0ayw4Y.s 			page 268


 11948 25fe 05E0     		b	.L420
 11949              	.L421:
 702:.\Include/arm_math.h ****     }
 11950              		.loc 2 702 0
 11951 2600 7B6C     		ldr	r3, [r7, #68]
 11952 2602 5B00     		lsl	r3, r3, #1
 11953 2604 7B64     		str	r3, [r7, #68]
 700:.\Include/arm_math.h ****     {
 11954              		.loc 2 700 0
 11955 2606 3B6C     		ldr	r3, [r7, #64]
 11956 2608 0133     		add	r3, r3, #1
 11957 260a 3B64     		str	r3, [r7, #64]
 11958              	.L420:
 11959 260c BB6C     		ldr	r3, [r7, #72]
 11960 260e 013B     		sub	r3, r3, #1
 11961 2610 3A6C     		ldr	r2, [r7, #64]
 11962 2612 9A42     		cmp	r2, r3
 11963 2614 F4D3     		bcc	.L421
 705:.\Include/arm_math.h ****     {
 11964              		.loc 2 705 0
 11965 2616 FB6C     		ldr	r3, [r7, #76]
 11966 2618 002B     		cmp	r3, #0
 11967 261a 09DD     		ble	.L422
 707:.\Include/arm_math.h **** 
 11968              		.loc 2 707 0
 11969 261c 7B6C     		ldr	r3, [r7, #68]
 11970 261e 013B     		sub	r3, r3, #1
 11971 2620 7B64     		str	r3, [r7, #68]
 709:.\Include/arm_math.h ****       {
 11972              		.loc 2 709 0
 11973 2622 FA6C     		ldr	r2, [r7, #76]
 11974 2624 7B6C     		ldr	r3, [r7, #68]
 11975 2626 9A42     		cmp	r2, r3
 11976 2628 14DD     		ble	.L466
 711:.\Include/arm_math.h ****       }
 11977              		.loc 2 711 0
 11978 262a 7B6C     		ldr	r3, [r7, #68]
 11979 262c FB64     		str	r3, [r7, #76]
 11980 262e 12E0     		b	.L424
 11981              	.L422:
 716:.\Include/arm_math.h **** 
 11982              		.loc 2 716 0
 11983 2630 7B6C     		ldr	r3, [r7, #68]
 11984 2632 5B42     		neg	r3, r3
 11985 2634 FB63     		str	r3, [r7, #60]
 718:.\Include/arm_math.h ****       {
 11986              		.loc 2 718 0
 11987 2636 FA6C     		ldr	r2, [r7, #76]
 11988 2638 FB6B     		ldr	r3, [r7, #60]
 11989 263a 9A42     		cmp	r2, r3
 11990 263c 0BDA     		bge	.L424
 720:.\Include/arm_math.h ****       }
 11991              		.loc 2 720 0
 11992 263e FB6B     		ldr	r3, [r7, #60]
 11993 2640 FB64     		str	r3, [r7, #76]
 11994 2642 08E0     		b	.L424
 11995              	.L488:
ARM GAS  C:\Users\fneves\AppData\Local\Temp\cc0ayw4Y.s 			page 269


 11996              		.align	2
 11997              	.L487:
 11998 2644 82020000 		.word	642
 11999 2648 8A020000 		.word	650
 12000 264c 86020000 		.word	646
 12001 2650 7E020000 		.word	638
 12002              	.L466:
 711:.\Include/arm_math.h ****       }
 12003              		.loc 2 711 0
 12004 2654 C046     		mov	r8, r8
 12005              	.L424:
 12006              		.loc 2 723 0
 12007 2656 FA6C     		ldr	r2, [r7, #76]
 12008              	.LBE237:
 12009              	.LBE236:
 12010              		.loc 1 1859 0
 12011 2658 A223     		mov	r3, #162
 12012 265a 9B00     		lsl	r3, r3, #2
 12013 265c FB18     		add	r3, r7, r3
 12014 265e 1A80     		strh	r2, [r3]
1860:Source\TransformFunctions/arm_cfft_radix4_q15.c **** 
1861:Source\TransformFunctions/arm_cfft_radix4_q15.c ****     /*  writing the butterfly processed i0 sample */
1862:Source\TransformFunctions/arm_cfft_radix4_q15.c ****     /* xa' = xa + xb + xc + xd */
1863:Source\TransformFunctions/arm_cfft_radix4_q15.c ****     /* ya' = ya + yb + yc + yd */
1864:Source\TransformFunctions/arm_cfft_radix4_q15.c ****     pSrc16[i0 * 2u] = (R0 >> 1u) + (T0 >> 1u);
 12015              		.loc 1 1864 0
 12016 2660 A923     		mov	r3, #169
 12017 2662 9B00     		lsl	r3, r3, #2
 12018 2664 FB18     		add	r3, r7, r3
 12019 2666 1B68     		ldr	r3, [r3]
 12020 2668 9B00     		lsl	r3, r3, #2
 12021 266a FA68     		ldr	r2, [r7, #12]
 12022 266c D318     		add	r3, r2, r3
 12023 266e CE4A     		ldr	r2, .L489
 12024 2670 BA18     		add	r2, r7, r2
 12025 2672 0021     		mov	r1, #0
 12026 2674 525E     		ldrsh	r2, [r2, r1]
 12027 2676 5210     		asr	r2, r2, #1
 12028 2678 92B2     		uxth	r2, r2
 12029 267a 91B2     		uxth	r1, r2
 12030 267c CB4A     		ldr	r2, .L489+4
 12031 267e BA18     		add	r2, r7, r2
 12032 2680 0020     		mov	r0, #0
 12033 2682 125E     		ldrsh	r2, [r2, r0]
 12034 2684 5210     		asr	r2, r2, #1
 12035 2686 92B2     		uxth	r2, r2
 12036 2688 92B2     		uxth	r2, r2
 12037 268a 8A18     		add	r2, r1, r2
 12038 268c 92B2     		uxth	r2, r2
 12039 268e 92B2     		uxth	r2, r2
 12040 2690 1A80     		strh	r2, [r3]
1865:Source\TransformFunctions/arm_cfft_radix4_q15.c ****     pSrc16[(i0 * 2u) + 1u] = (R1 >> 1u) + (T1 >> 1u);
 12041              		.loc 1 1865 0
 12042 2692 A923     		mov	r3, #169
 12043 2694 9B00     		lsl	r3, r3, #2
 12044 2696 FB18     		add	r3, r7, r3
 12045 2698 1B68     		ldr	r3, [r3]
ARM GAS  C:\Users\fneves\AppData\Local\Temp\cc0ayw4Y.s 			page 270


 12046 269a 9B00     		lsl	r3, r3, #2
 12047 269c 0233     		add	r3, r3, #2
 12048 269e FA68     		ldr	r2, [r7, #12]
 12049 26a0 D318     		add	r3, r2, r3
 12050 26a2 A022     		mov	r2, #160
 12051 26a4 9200     		lsl	r2, r2, #2
 12052 26a6 BA18     		add	r2, r7, r2
 12053 26a8 0021     		mov	r1, #0
 12054 26aa 525E     		ldrsh	r2, [r2, r1]
 12055 26ac 5210     		asr	r2, r2, #1
 12056 26ae 92B2     		uxth	r2, r2
 12057 26b0 91B2     		uxth	r1, r2
 12058 26b2 A222     		mov	r2, #162
 12059 26b4 9200     		lsl	r2, r2, #2
 12060 26b6 BA18     		add	r2, r7, r2
 12061 26b8 0020     		mov	r0, #0
 12062 26ba 125E     		ldrsh	r2, [r2, r0]
 12063 26bc 5210     		asr	r2, r2, #1
 12064 26be 92B2     		uxth	r2, r2
 12065 26c0 92B2     		uxth	r2, r2
 12066 26c2 8A18     		add	r2, r1, r2
 12067 26c4 92B2     		uxth	r2, r2
 12068 26c6 92B2     		uxth	r2, r2
 12069 26c8 1A80     		strh	r2, [r3]
1866:Source\TransformFunctions/arm_cfft_radix4_q15.c **** 
1867:Source\TransformFunctions/arm_cfft_radix4_q15.c ****     /* R0 = (ya + yc) - (yb + yd), R1 = (xa + xc) - (xb + xd) */
1868:Source\TransformFunctions/arm_cfft_radix4_q15.c ****     R0 = (R0 >> 1u) - (T0 >> 1u);
 12070              		.loc 1 1868 0
 12071 26ca B74B     		ldr	r3, .L489
 12072 26cc FB18     		add	r3, r7, r3
 12073 26ce 0022     		mov	r2, #0
 12074 26d0 9B5E     		ldrsh	r3, [r3, r2]
 12075 26d2 5B10     		asr	r3, r3, #1
 12076 26d4 9BB2     		uxth	r3, r3
 12077 26d6 9AB2     		uxth	r2, r3
 12078 26d8 B44B     		ldr	r3, .L489+4
 12079 26da FB18     		add	r3, r7, r3
 12080 26dc 0021     		mov	r1, #0
 12081 26de 5B5E     		ldrsh	r3, [r3, r1]
 12082 26e0 5B10     		asr	r3, r3, #1
 12083 26e2 9BB2     		uxth	r3, r3
 12084 26e4 9BB2     		uxth	r3, r3
 12085 26e6 D31A     		sub	r3, r2, r3
 12086 26e8 9AB2     		uxth	r2, r3
 12087 26ea AF4B     		ldr	r3, .L489
 12088 26ec FB18     		add	r3, r7, r3
 12089 26ee 1A80     		strh	r2, [r3]
1869:Source\TransformFunctions/arm_cfft_radix4_q15.c ****     R1 = (R1 >> 1u) - (T1 >> 1u);
 12090              		.loc 1 1869 0
 12091 26f0 A023     		mov	r3, #160
 12092 26f2 9B00     		lsl	r3, r3, #2
 12093 26f4 FB18     		add	r3, r7, r3
 12094 26f6 0022     		mov	r2, #0
 12095 26f8 9B5E     		ldrsh	r3, [r3, r2]
 12096 26fa 5B10     		asr	r3, r3, #1
 12097 26fc 9BB2     		uxth	r3, r3
 12098 26fe 9AB2     		uxth	r2, r3
ARM GAS  C:\Users\fneves\AppData\Local\Temp\cc0ayw4Y.s 			page 271


 12099 2700 A223     		mov	r3, #162
 12100 2702 9B00     		lsl	r3, r3, #2
 12101 2704 FB18     		add	r3, r7, r3
 12102 2706 0021     		mov	r1, #0
 12103 2708 5B5E     		ldrsh	r3, [r3, r1]
 12104 270a 5B10     		asr	r3, r3, #1
 12105 270c 9BB2     		uxth	r3, r3
 12106 270e 9BB2     		uxth	r3, r3
 12107 2710 D31A     		sub	r3, r2, r3
 12108 2712 9AB2     		uxth	r2, r3
 12109 2714 A023     		mov	r3, #160
 12110 2716 9B00     		lsl	r3, r3, #2
 12111 2718 FB18     		add	r3, r7, r3
 12112 271a 1A80     		strh	r2, [r3]
1870:Source\TransformFunctions/arm_cfft_radix4_q15.c **** 
1871:Source\TransformFunctions/arm_cfft_radix4_q15.c ****     /* Read yb (real), xb(imag) input */
1872:Source\TransformFunctions/arm_cfft_radix4_q15.c ****     T0 = pSrc16[i1 * 2u];
 12113              		.loc 1 1872 0
 12114 271c A523     		mov	r3, #165
 12115 271e 9B00     		lsl	r3, r3, #2
 12116 2720 FB18     		add	r3, r7, r3
 12117 2722 1B68     		ldr	r3, [r3]
 12118 2724 9B00     		lsl	r3, r3, #2
 12119 2726 FA68     		ldr	r2, [r7, #12]
 12120 2728 D218     		add	r2, r2, r3
 12121 272a A04B     		ldr	r3, .L489+4
 12122 272c FB18     		add	r3, r7, r3
 12123 272e 1288     		ldrh	r2, [r2]
 12124 2730 1A80     		strh	r2, [r3]
1873:Source\TransformFunctions/arm_cfft_radix4_q15.c ****     T1 = pSrc16[(i1 * 2u) + 1u];
 12125              		.loc 1 1873 0
 12126 2732 A523     		mov	r3, #165
 12127 2734 9B00     		lsl	r3, r3, #2
 12128 2736 FB18     		add	r3, r7, r3
 12129 2738 1B68     		ldr	r3, [r3]
 12130 273a 9B00     		lsl	r3, r3, #2
 12131 273c 0233     		add	r3, r3, #2
 12132 273e FA68     		ldr	r2, [r7, #12]
 12133 2740 D218     		add	r2, r2, r3
 12134 2742 A223     		mov	r3, #162
 12135 2744 9B00     		lsl	r3, r3, #2
 12136 2746 FB18     		add	r3, r7, r3
 12137 2748 1288     		ldrh	r2, [r2]
 12138 274a 1A80     		strh	r2, [r3]
1874:Source\TransformFunctions/arm_cfft_radix4_q15.c **** 
1875:Source\TransformFunctions/arm_cfft_radix4_q15.c ****     /*  writing the butterfly processed i0 + fftLen/4 sample */
1876:Source\TransformFunctions/arm_cfft_radix4_q15.c ****     /* xc' = (xa-xb+xc-xd) */
1877:Source\TransformFunctions/arm_cfft_radix4_q15.c ****     /* yc' = (ya-yb+yc-yd) */
1878:Source\TransformFunctions/arm_cfft_radix4_q15.c ****     pSrc16[i1 * 2u] = R0;
 12139              		.loc 1 1878 0
 12140 274c A523     		mov	r3, #165
 12141 274e 9B00     		lsl	r3, r3, #2
 12142 2750 FB18     		add	r3, r7, r3
 12143 2752 1B68     		ldr	r3, [r3]
 12144 2754 9B00     		lsl	r3, r3, #2
 12145 2756 FA68     		ldr	r2, [r7, #12]
 12146 2758 D318     		add	r3, r2, r3
ARM GAS  C:\Users\fneves\AppData\Local\Temp\cc0ayw4Y.s 			page 272


 12147 275a 934A     		ldr	r2, .L489
 12148 275c BA18     		add	r2, r7, r2
 12149 275e 1288     		ldrh	r2, [r2]
 12150 2760 1A80     		strh	r2, [r3]
1879:Source\TransformFunctions/arm_cfft_radix4_q15.c ****     pSrc16[(i1 * 2u) + 1u] = R1;
 12151              		.loc 1 1879 0
 12152 2762 A523     		mov	r3, #165
 12153 2764 9B00     		lsl	r3, r3, #2
 12154 2766 FB18     		add	r3, r7, r3
 12155 2768 1B68     		ldr	r3, [r3]
 12156 276a 9B00     		lsl	r3, r3, #2
 12157 276c 0233     		add	r3, r3, #2
 12158 276e FA68     		ldr	r2, [r7, #12]
 12159 2770 D318     		add	r3, r2, r3
 12160 2772 A022     		mov	r2, #160
 12161 2774 9200     		lsl	r2, r2, #2
 12162 2776 BA18     		add	r2, r7, r2
 12163 2778 1288     		ldrh	r2, [r2]
 12164 277a 1A80     		strh	r2, [r3]
1880:Source\TransformFunctions/arm_cfft_radix4_q15.c **** 
1881:Source\TransformFunctions/arm_cfft_radix4_q15.c ****     /* Read yd (real), xd(imag) input */
1882:Source\TransformFunctions/arm_cfft_radix4_q15.c ****     U0 = pSrc16[i3 * 2u];
 12165              		.loc 1 1882 0
 12166 277c A323     		mov	r3, #163
 12167 277e 9B00     		lsl	r3, r3, #2
 12168 2780 FB18     		add	r3, r7, r3
 12169 2782 1B68     		ldr	r3, [r3]
 12170 2784 9B00     		lsl	r3, r3, #2
 12171 2786 FA68     		ldr	r2, [r7, #12]
 12172 2788 D218     		add	r2, r2, r3
 12173 278a 894B     		ldr	r3, .L489+8
 12174 278c FB18     		add	r3, r7, r3
 12175 278e 1288     		ldrh	r2, [r2]
 12176 2790 1A80     		strh	r2, [r3]
1883:Source\TransformFunctions/arm_cfft_radix4_q15.c ****     U1 = pSrc16[(i3 * 2u) + 1u];
 12177              		.loc 1 1883 0
 12178 2792 A323     		mov	r3, #163
 12179 2794 9B00     		lsl	r3, r3, #2
 12180 2796 FB18     		add	r3, r7, r3
 12181 2798 1B68     		ldr	r3, [r3]
 12182 279a 9B00     		lsl	r3, r3, #2
 12183 279c 0233     		add	r3, r3, #2
 12184 279e FA68     		ldr	r2, [r7, #12]
 12185 27a0 D218     		add	r2, r2, r3
 12186 27a2 9F23     		mov	r3, #159
 12187 27a4 9B00     		lsl	r3, r3, #2
 12188 27a6 FB18     		add	r3, r7, r3
 12189 27a8 1288     		ldrh	r2, [r2]
 12190 27aa 1A80     		strh	r2, [r3]
1884:Source\TransformFunctions/arm_cfft_radix4_q15.c ****     /* T0 = (yb - yd), T1 = (xb - xd) */
1885:Source\TransformFunctions/arm_cfft_radix4_q15.c ****     T0 = __SSAT(T0 - U0, 16u);
 12191              		.loc 1 1885 0
 12192 27ac 7F4B     		ldr	r3, .L489+4
 12193 27ae FB18     		add	r3, r7, r3
 12194 27b0 0022     		mov	r2, #0
 12195 27b2 9A5E     		ldrsh	r2, [r3, r2]
 12196 27b4 7E4B     		ldr	r3, .L489+8
ARM GAS  C:\Users\fneves\AppData\Local\Temp\cc0ayw4Y.s 			page 273


 12197 27b6 FB18     		add	r3, r7, r3
 12198 27b8 0021     		mov	r1, #0
 12199 27ba 5B5E     		ldrsh	r3, [r3, r1]
 12200 27bc D31A     		sub	r3, r2, r3
 12201 27be BB63     		str	r3, [r7, #56]
 12202 27c0 1023     		mov	r3, #16
 12203 27c2 7B63     		str	r3, [r7, #52]
 12204              	.LBB238:
 12205              	.LBB239:
 699:.\Include/arm_math.h ****     for (i = 0; i < (y - 1); i++)
 12206              		.loc 2 699 0
 12207 27c4 0123     		mov	r3, #1
 12208 27c6 3B63     		str	r3, [r7, #48]
 700:.\Include/arm_math.h ****     {
 12209              		.loc 2 700 0
 12210 27c8 0023     		mov	r3, #0
 12211 27ca FB62     		str	r3, [r7, #44]
 12212 27cc 05E0     		b	.L426
 12213              	.L427:
 702:.\Include/arm_math.h ****     }
 12214              		.loc 2 702 0
 12215 27ce 3B6B     		ldr	r3, [r7, #48]
 12216 27d0 5B00     		lsl	r3, r3, #1
 12217 27d2 3B63     		str	r3, [r7, #48]
 700:.\Include/arm_math.h ****     {
 12218              		.loc 2 700 0
 12219 27d4 FB6A     		ldr	r3, [r7, #44]
 12220 27d6 0133     		add	r3, r3, #1
 12221 27d8 FB62     		str	r3, [r7, #44]
 12222              	.L426:
 12223 27da 7B6B     		ldr	r3, [r7, #52]
 12224 27dc 013B     		sub	r3, r3, #1
 12225 27de FA6A     		ldr	r2, [r7, #44]
 12226 27e0 9A42     		cmp	r2, r3
 12227 27e2 F4D3     		bcc	.L427
 705:.\Include/arm_math.h ****     {
 12228              		.loc 2 705 0
 12229 27e4 BB6B     		ldr	r3, [r7, #56]
 12230 27e6 002B     		cmp	r3, #0
 12231 27e8 09DD     		ble	.L428
 707:.\Include/arm_math.h **** 
 12232              		.loc 2 707 0
 12233 27ea 3B6B     		ldr	r3, [r7, #48]
 12234 27ec 013B     		sub	r3, r3, #1
 12235 27ee 3B63     		str	r3, [r7, #48]
 709:.\Include/arm_math.h ****       {
 12236              		.loc 2 709 0
 12237 27f0 BA6B     		ldr	r2, [r7, #56]
 12238 27f2 3B6B     		ldr	r3, [r7, #48]
 12239 27f4 9A42     		cmp	r2, r3
 12240 27f6 0CDD     		ble	.L467
 711:.\Include/arm_math.h ****       }
 12241              		.loc 2 711 0
 12242 27f8 3B6B     		ldr	r3, [r7, #48]
 12243 27fa BB63     		str	r3, [r7, #56]
 12244 27fc 0AE0     		b	.L430
 12245              	.L428:
ARM GAS  C:\Users\fneves\AppData\Local\Temp\cc0ayw4Y.s 			page 274


 716:.\Include/arm_math.h **** 
 12246              		.loc 2 716 0
 12247 27fe 3B6B     		ldr	r3, [r7, #48]
 12248 2800 5B42     		neg	r3, r3
 12249 2802 BB62     		str	r3, [r7, #40]
 718:.\Include/arm_math.h ****       {
 12250              		.loc 2 718 0
 12251 2804 BA6B     		ldr	r2, [r7, #56]
 12252 2806 BB6A     		ldr	r3, [r7, #40]
 12253 2808 9A42     		cmp	r2, r3
 12254 280a 03DA     		bge	.L430
 720:.\Include/arm_math.h ****       }
 12255              		.loc 2 720 0
 12256 280c BB6A     		ldr	r3, [r7, #40]
 12257 280e BB63     		str	r3, [r7, #56]
 12258 2810 00E0     		b	.L430
 12259              	.L467:
 711:.\Include/arm_math.h ****       }
 12260              		.loc 2 711 0
 12261 2812 C046     		mov	r8, r8
 12262              	.L430:
 12263              		.loc 2 723 0
 12264 2814 BA6B     		ldr	r2, [r7, #56]
 12265              	.LBE239:
 12266              	.LBE238:
 12267              		.loc 1 1885 0
 12268 2816 654B     		ldr	r3, .L489+4
 12269 2818 FB18     		add	r3, r7, r3
 12270 281a 1A80     		strh	r2, [r3]
1886:Source\TransformFunctions/arm_cfft_radix4_q15.c ****     T1 = __SSAT(T1 - U1, 16u);
 12271              		.loc 1 1886 0
 12272 281c A223     		mov	r3, #162
 12273 281e 9B00     		lsl	r3, r3, #2
 12274 2820 FB18     		add	r3, r7, r3
 12275 2822 0022     		mov	r2, #0
 12276 2824 9A5E     		ldrsh	r2, [r3, r2]
 12277 2826 9F23     		mov	r3, #159
 12278 2828 9B00     		lsl	r3, r3, #2
 12279 282a FB18     		add	r3, r7, r3
 12280 282c 0021     		mov	r1, #0
 12281 282e 5B5E     		ldrsh	r3, [r3, r1]
 12282 2830 D31A     		sub	r3, r2, r3
 12283 2832 7B62     		str	r3, [r7, #36]
 12284 2834 1023     		mov	r3, #16
 12285 2836 3B62     		str	r3, [r7, #32]
 12286              	.LBB240:
 12287              	.LBB241:
 699:.\Include/arm_math.h ****     for (i = 0; i < (y - 1); i++)
 12288              		.loc 2 699 0
 12289 2838 0123     		mov	r3, #1
 12290 283a FB61     		str	r3, [r7, #28]
 700:.\Include/arm_math.h ****     {
 12291              		.loc 2 700 0
 12292 283c 0023     		mov	r3, #0
 12293 283e BB61     		str	r3, [r7, #24]
 12294 2840 05E0     		b	.L432
 12295              	.L433:
ARM GAS  C:\Users\fneves\AppData\Local\Temp\cc0ayw4Y.s 			page 275


 702:.\Include/arm_math.h ****     }
 12296              		.loc 2 702 0
 12297 2842 FB69     		ldr	r3, [r7, #28]
 12298 2844 5B00     		lsl	r3, r3, #1
 12299 2846 FB61     		str	r3, [r7, #28]
 700:.\Include/arm_math.h ****     {
 12300              		.loc 2 700 0
 12301 2848 BB69     		ldr	r3, [r7, #24]
 12302 284a 0133     		add	r3, r3, #1
 12303 284c BB61     		str	r3, [r7, #24]
 12304              	.L432:
 12305 284e 3B6A     		ldr	r3, [r7, #32]
 12306 2850 013B     		sub	r3, r3, #1
 12307 2852 BA69     		ldr	r2, [r7, #24]
 12308 2854 9A42     		cmp	r2, r3
 12309 2856 F4D3     		bcc	.L433
 705:.\Include/arm_math.h ****     {
 12310              		.loc 2 705 0
 12311 2858 7B6A     		ldr	r3, [r7, #36]
 12312 285a 002B     		cmp	r3, #0
 12313 285c 09DD     		ble	.L434
 707:.\Include/arm_math.h **** 
 12314              		.loc 2 707 0
 12315 285e FB69     		ldr	r3, [r7, #28]
 12316 2860 013B     		sub	r3, r3, #1
 12317 2862 FB61     		str	r3, [r7, #28]
 709:.\Include/arm_math.h ****       {
 12318              		.loc 2 709 0
 12319 2864 7A6A     		ldr	r2, [r7, #36]
 12320 2866 FB69     		ldr	r3, [r7, #28]
 12321 2868 9A42     		cmp	r2, r3
 12322 286a 0CDD     		ble	.L468
 711:.\Include/arm_math.h ****       }
 12323              		.loc 2 711 0
 12324 286c FB69     		ldr	r3, [r7, #28]
 12325 286e 7B62     		str	r3, [r7, #36]
 12326 2870 0AE0     		b	.L436
 12327              	.L434:
 716:.\Include/arm_math.h **** 
 12328              		.loc 2 716 0
 12329 2872 FB69     		ldr	r3, [r7, #28]
 12330 2874 5B42     		neg	r3, r3
 12331 2876 7B61     		str	r3, [r7, #20]
 718:.\Include/arm_math.h ****       {
 12332              		.loc 2 718 0
 12333 2878 7A6A     		ldr	r2, [r7, #36]
 12334 287a 7B69     		ldr	r3, [r7, #20]
 12335 287c 9A42     		cmp	r2, r3
 12336 287e 03DA     		bge	.L436
 720:.\Include/arm_math.h ****       }
 12337              		.loc 2 720 0
 12338 2880 7B69     		ldr	r3, [r7, #20]
 12339 2882 7B62     		str	r3, [r7, #36]
 12340 2884 00E0     		b	.L436
 12341              	.L468:
 711:.\Include/arm_math.h ****       }
 12342              		.loc 2 711 0
ARM GAS  C:\Users\fneves\AppData\Local\Temp\cc0ayw4Y.s 			page 276


 12343 2886 C046     		mov	r8, r8
 12344              	.L436:
 12345              		.loc 2 723 0
 12346 2888 7A6A     		ldr	r2, [r7, #36]
 12347              	.LBE241:
 12348              	.LBE240:
 12349              		.loc 1 1886 0
 12350 288a A223     		mov	r3, #162
 12351 288c 9B00     		lsl	r3, r3, #2
 12352 288e FB18     		add	r3, r7, r3
 12353 2890 1A80     		strh	r2, [r3]
1887:Source\TransformFunctions/arm_cfft_radix4_q15.c **** 
1888:Source\TransformFunctions/arm_cfft_radix4_q15.c ****     /*  writing the butterfly processed i0 + fftLen/2 sample */
1889:Source\TransformFunctions/arm_cfft_radix4_q15.c ****     /* xb' = (xa-yb-xc+yd) */
1890:Source\TransformFunctions/arm_cfft_radix4_q15.c ****     /* yb' = (ya+xb-yc-xd) */
1891:Source\TransformFunctions/arm_cfft_radix4_q15.c ****     pSrc16[i2 * 2u] = (S0 >> 1u) - (T1 >> 1u);
 12354              		.loc 1 1891 0
 12355 2892 A423     		mov	r3, #164
 12356 2894 9B00     		lsl	r3, r3, #2
 12357 2896 FB18     		add	r3, r7, r3
 12358 2898 1B68     		ldr	r3, [r3]
 12359 289a 9B00     		lsl	r3, r3, #2
 12360 289c FA68     		ldr	r2, [r7, #12]
 12361 289e D318     		add	r3, r2, r3
 12362 28a0 444A     		ldr	r2, .L489+12
 12363 28a2 BA18     		add	r2, r7, r2
 12364 28a4 0021     		mov	r1, #0
 12365 28a6 525E     		ldrsh	r2, [r2, r1]
 12366 28a8 5210     		asr	r2, r2, #1
 12367 28aa 92B2     		uxth	r2, r2
 12368 28ac 91B2     		uxth	r1, r2
 12369 28ae A222     		mov	r2, #162
 12370 28b0 9200     		lsl	r2, r2, #2
 12371 28b2 BA18     		add	r2, r7, r2
 12372 28b4 0020     		mov	r0, #0
 12373 28b6 125E     		ldrsh	r2, [r2, r0]
 12374 28b8 5210     		asr	r2, r2, #1
 12375 28ba 92B2     		uxth	r2, r2
 12376 28bc 92B2     		uxth	r2, r2
 12377 28be 8A1A     		sub	r2, r1, r2
 12378 28c0 92B2     		uxth	r2, r2
 12379 28c2 92B2     		uxth	r2, r2
 12380 28c4 1A80     		strh	r2, [r3]
1892:Source\TransformFunctions/arm_cfft_radix4_q15.c ****     pSrc16[(i2 * 2u) + 1u] = (S1 >> 1u) + (T0 >> 1u);
 12381              		.loc 1 1892 0
 12382 28c6 A423     		mov	r3, #164
 12383 28c8 9B00     		lsl	r3, r3, #2
 12384 28ca FB18     		add	r3, r7, r3
 12385 28cc 1B68     		ldr	r3, [r3]
 12386 28ce 9B00     		lsl	r3, r3, #2
 12387 28d0 0233     		add	r3, r3, #2
 12388 28d2 FA68     		ldr	r2, [r7, #12]
 12389 28d4 D318     		add	r3, r2, r3
 12390 28d6 A122     		mov	r2, #161
 12391 28d8 9200     		lsl	r2, r2, #2
 12392 28da BA18     		add	r2, r7, r2
 12393 28dc 0021     		mov	r1, #0
ARM GAS  C:\Users\fneves\AppData\Local\Temp\cc0ayw4Y.s 			page 277


 12394 28de 525E     		ldrsh	r2, [r2, r1]
 12395 28e0 5210     		asr	r2, r2, #1
 12396 28e2 92B2     		uxth	r2, r2
 12397 28e4 91B2     		uxth	r1, r2
 12398 28e6 314A     		ldr	r2, .L489+4
 12399 28e8 BA18     		add	r2, r7, r2
 12400 28ea 0020     		mov	r0, #0
 12401 28ec 125E     		ldrsh	r2, [r2, r0]
 12402 28ee 5210     		asr	r2, r2, #1
 12403 28f0 92B2     		uxth	r2, r2
 12404 28f2 92B2     		uxth	r2, r2
 12405 28f4 8A18     		add	r2, r1, r2
 12406 28f6 92B2     		uxth	r2, r2
 12407 28f8 92B2     		uxth	r2, r2
 12408 28fa 1A80     		strh	r2, [r3]
1893:Source\TransformFunctions/arm_cfft_radix4_q15.c **** 
1894:Source\TransformFunctions/arm_cfft_radix4_q15.c **** 
1895:Source\TransformFunctions/arm_cfft_radix4_q15.c ****     /*  writing the butterfly processed i0 + 3fftLen/4 sample */
1896:Source\TransformFunctions/arm_cfft_radix4_q15.c ****     /* xd' = (xa+yb-xc-yd) */
1897:Source\TransformFunctions/arm_cfft_radix4_q15.c ****     /* yd' = (ya-xb-yc+xd) */
1898:Source\TransformFunctions/arm_cfft_radix4_q15.c ****     pSrc16[i3 * 2u] = (S0 >> 1u) + (T1 >> 1u);
 12409              		.loc 1 1898 0
 12410 28fc A323     		mov	r3, #163
 12411 28fe 9B00     		lsl	r3, r3, #2
 12412 2900 FB18     		add	r3, r7, r3
 12413 2902 1B68     		ldr	r3, [r3]
 12414 2904 9B00     		lsl	r3, r3, #2
 12415 2906 FA68     		ldr	r2, [r7, #12]
 12416 2908 D318     		add	r3, r2, r3
 12417 290a 2A4A     		ldr	r2, .L489+12
 12418 290c BA18     		add	r2, r7, r2
 12419 290e 0021     		mov	r1, #0
 12420 2910 525E     		ldrsh	r2, [r2, r1]
 12421 2912 5210     		asr	r2, r2, #1
 12422 2914 92B2     		uxth	r2, r2
 12423 2916 91B2     		uxth	r1, r2
 12424 2918 A222     		mov	r2, #162
 12425 291a 9200     		lsl	r2, r2, #2
 12426 291c BA18     		add	r2, r7, r2
 12427 291e 0020     		mov	r0, #0
 12428 2920 125E     		ldrsh	r2, [r2, r0]
 12429 2922 5210     		asr	r2, r2, #1
 12430 2924 92B2     		uxth	r2, r2
 12431 2926 92B2     		uxth	r2, r2
 12432 2928 8A18     		add	r2, r1, r2
 12433 292a 92B2     		uxth	r2, r2
 12434 292c 92B2     		uxth	r2, r2
 12435 292e 1A80     		strh	r2, [r3]
1899:Source\TransformFunctions/arm_cfft_radix4_q15.c ****     pSrc16[(i3 * 2u) + 1u] = (S1 >> 1u) - (T0 >> 1u);
 12436              		.loc 1 1899 0
 12437 2930 A323     		mov	r3, #163
 12438 2932 9B00     		lsl	r3, r3, #2
 12439 2934 FB18     		add	r3, r7, r3
 12440 2936 1B68     		ldr	r3, [r3]
 12441 2938 9B00     		lsl	r3, r3, #2
 12442 293a 0233     		add	r3, r3, #2
 12443 293c FA68     		ldr	r2, [r7, #12]
ARM GAS  C:\Users\fneves\AppData\Local\Temp\cc0ayw4Y.s 			page 278


 12444 293e D318     		add	r3, r2, r3
 12445 2940 A122     		mov	r2, #161
 12446 2942 9200     		lsl	r2, r2, #2
 12447 2944 BA18     		add	r2, r7, r2
 12448 2946 0021     		mov	r1, #0
 12449 2948 525E     		ldrsh	r2, [r2, r1]
 12450 294a 5210     		asr	r2, r2, #1
 12451 294c 92B2     		uxth	r2, r2
 12452 294e 91B2     		uxth	r1, r2
 12453 2950 164A     		ldr	r2, .L489+4
 12454 2952 BA18     		add	r2, r7, r2
 12455 2954 0020     		mov	r0, #0
 12456 2956 125E     		ldrsh	r2, [r2, r0]
 12457 2958 5210     		asr	r2, r2, #1
 12458 295a 92B2     		uxth	r2, r2
 12459 295c 92B2     		uxth	r2, r2
 12460 295e 8A1A     		sub	r2, r1, r2
 12461 2960 92B2     		uxth	r2, r2
 12462 2962 92B2     		uxth	r2, r2
 12463 2964 1A80     		strh	r2, [r3]
1826:Source\TransformFunctions/arm_cfft_radix4_q15.c ****   {
 12464              		.loc 1 1826 0
 12465 2966 A923     		mov	r3, #169
 12466 2968 9B00     		lsl	r3, r3, #2
 12467 296a FB18     		add	r3, r7, r3
 12468 296c 1A68     		ldr	r2, [r3]
 12469 296e A623     		mov	r3, #166
 12470 2970 9B00     		lsl	r3, r3, #2
 12471 2972 FB18     		add	r3, r7, r3
 12472 2974 1B68     		ldr	r3, [r3]
 12473 2976 D318     		add	r3, r2, r3
 12474 2978 A922     		mov	r2, #169
 12475 297a 9200     		lsl	r2, r2, #2
 12476 297c BA18     		add	r2, r7, r2
 12477 297e 1360     		str	r3, [r2]
 12478              	.L389:
1826:Source\TransformFunctions/arm_cfft_radix4_q15.c ****   {
 12479              		.loc 1 1826 0 is_stmt 0 discriminator 1
 12480 2980 BA68     		ldr	r2, [r7, #8]
 12481 2982 A623     		mov	r3, #166
 12482 2984 9B00     		lsl	r3, r3, #2
 12483 2986 FB18     		add	r3, r7, r3
 12484 2988 1B68     		ldr	r3, [r3]
 12485 298a D21A     		sub	r2, r2, r3
 12486 298c A923     		mov	r3, #169
 12487 298e 9B00     		lsl	r3, r3, #2
 12488 2990 FB18     		add	r3, r7, r3
 12489 2992 1B68     		ldr	r3, [r3]
 12490 2994 9A42     		cmp	r2, r3
 12491 2996 01D3     		bcc	.LCB11539
 12492 2998 FFF7ECFB 		bl	.L438	@far jump
 12493              	.LCB11539:
1900:Source\TransformFunctions/arm_cfft_radix4_q15.c ****   }
1901:Source\TransformFunctions/arm_cfft_radix4_q15.c ****   /* end of last stage  process */
1902:Source\TransformFunctions/arm_cfft_radix4_q15.c **** 
1903:Source\TransformFunctions/arm_cfft_radix4_q15.c ****   /* output is in 11.5(q5) format for the 1024 point */
1904:Source\TransformFunctions/arm_cfft_radix4_q15.c ****   /* output is in 9.7(q7) format for the 256 point   */
ARM GAS  C:\Users\fneves\AppData\Local\Temp\cc0ayw4Y.s 			page 279


1905:Source\TransformFunctions/arm_cfft_radix4_q15.c ****   /* output is in 7.9(q9) format for the 64 point  */
1906:Source\TransformFunctions/arm_cfft_radix4_q15.c ****   /* output is in 5.11(q11) format for the 16 point  */
1907:Source\TransformFunctions/arm_cfft_radix4_q15.c **** 
1908:Source\TransformFunctions/arm_cfft_radix4_q15.c **** #endif /* #if defined (ARM_MATH_DSP) */
1909:Source\TransformFunctions/arm_cfft_radix4_q15.c **** 
1910:Source\TransformFunctions/arm_cfft_radix4_q15.c **** }
 12494              		.loc 1 1910 0 is_stmt 1
 12495 299c BD46     		mov	sp, r7
 12496 299e AC23     		mov	r3, #172
 12497 29a0 9B00     		lsl	r3, r3, #2
 12498 29a2 9D44     		add	sp, sp, r3
 12499              		@ sp needed
 12500 29a4 80BD     		pop	{r7, pc}
 12501              	.L490:
 12502 29a6 C046     		.align	2
 12503              	.L489:
 12504 29a8 82020000 		.word	642
 12505 29ac 8A020000 		.word	650
 12506 29b0 7E020000 		.word	638
 12507 29b4 86020000 		.word	646
 12508              		.cfi_endproc
 12509              	.LFE84:
 12510              		.size	arm_radix4_butterfly_inverse_q15, .-arm_radix4_butterfly_inverse_q15
 12511              		.text
 12512              	.Letext0:
 12513              		.file 3 "c:\\program files (x86)\\cypress\\psoc creator\\4.0\\psoc creator\\import\\gnu\\arm\\4.9.
 12514              		.file 4 "c:\\program files (x86)\\cypress\\psoc creator\\4.0\\psoc creator\\import\\gnu\\arm\\4.9.
 12515              		.section	.debug_info,"",%progbits
 12516              	.Ldebug_info0:
 12517 0000 52170000 		.4byte	0x1752
 12518 0004 0400     		.2byte	0x4
 12519 0006 00000000 		.4byte	.Ldebug_abbrev0
 12520 000a 04       		.byte	0x4
 12521 000b 01       		.uleb128 0x1
 12522 000c DE000000 		.4byte	.LASF43
 12523 0010 01       		.byte	0x1
 12524 0011 A3020000 		.4byte	.LASF44
 12525 0015 FF010000 		.4byte	.LASF45
 12526 0019 00000000 		.4byte	.Ldebug_ranges0+0
 12527 001d 00000000 		.4byte	0
 12528 0021 00000000 		.4byte	.Ldebug_line0
 12529 0025 02       		.uleb128 0x2
 12530 0026 01       		.byte	0x1
 12531 0027 06       		.byte	0x6
 12532 0028 45000000 		.4byte	.LASF0
 12533 002c 03       		.uleb128 0x3
 12534 002d 0E000000 		.4byte	.LASF2
 12535 0031 03       		.byte	0x3
 12536 0032 1D       		.byte	0x1d
 12537 0033 37000000 		.4byte	0x37
 12538 0037 02       		.uleb128 0x2
 12539 0038 01       		.byte	0x1
 12540 0039 08       		.byte	0x8
 12541 003a E7010000 		.4byte	.LASF1
 12542 003e 03       		.uleb128 0x3
 12543 003f A9000000 		.4byte	.LASF3
 12544 0043 03       		.byte	0x3
ARM GAS  C:\Users\fneves\AppData\Local\Temp\cc0ayw4Y.s 			page 280


 12545 0044 29       		.byte	0x29
 12546 0045 49000000 		.4byte	0x49
 12547 0049 02       		.uleb128 0x2
 12548 004a 02       		.byte	0x2
 12549 004b 05       		.byte	0x5
 12550 004c F5010000 		.4byte	.LASF4
 12551 0050 03       		.uleb128 0x3
 12552 0051 60020000 		.4byte	.LASF5
 12553 0055 03       		.byte	0x3
 12554 0056 2B       		.byte	0x2b
 12555 0057 5B000000 		.4byte	0x5b
 12556 005b 02       		.uleb128 0x2
 12557 005c 02       		.byte	0x2
 12558 005d 07       		.byte	0x7
 12559 005e 70010000 		.4byte	.LASF6
 12560 0062 03       		.uleb128 0x3
 12561 0063 6B020000 		.4byte	.LASF7
 12562 0067 03       		.byte	0x3
 12563 0068 3F       		.byte	0x3f
 12564 0069 6D000000 		.4byte	0x6d
 12565 006d 02       		.uleb128 0x2
 12566 006e 04       		.byte	0x4
 12567 006f 05       		.byte	0x5
 12568 0070 51000000 		.4byte	.LASF8
 12569 0074 03       		.uleb128 0x3
 12570 0075 9E000000 		.4byte	.LASF9
 12571 0079 03       		.byte	0x3
 12572 007a 41       		.byte	0x41
 12573 007b 7F000000 		.4byte	0x7f
 12574 007f 02       		.uleb128 0x2
 12575 0080 04       		.byte	0x4
 12576 0081 07       		.byte	0x7
 12577 0082 CC000000 		.4byte	.LASF10
 12578 0086 02       		.uleb128 0x2
 12579 0087 08       		.byte	0x8
 12580 0088 05       		.byte	0x5
 12581 0089 37000000 		.4byte	.LASF11
 12582 008d 02       		.uleb128 0x2
 12583 008e 08       		.byte	0x8
 12584 008f 07       		.byte	0x7
 12585 0090 18000000 		.4byte	.LASF12
 12586 0094 04       		.uleb128 0x4
 12587 0095 04       		.byte	0x4
 12588 0096 05       		.byte	0x5
 12589 0097 696E7400 		.ascii	"int\000"
 12590 009b 02       		.uleb128 0x2
 12591 009c 04       		.byte	0x4
 12592 009d 07       		.byte	0x7
 12593 009e BA000000 		.4byte	.LASF13
 12594 00a2 03       		.uleb128 0x3
 12595 00a3 D3020000 		.4byte	.LASF14
 12596 00a7 04       		.byte	0x4
 12597 00a8 15       		.byte	0x15
 12598 00a9 2C000000 		.4byte	0x2c
 12599 00ad 03       		.uleb128 0x3
 12600 00ae 2F000000 		.4byte	.LASF15
 12601 00b2 04       		.byte	0x4
ARM GAS  C:\Users\fneves\AppData\Local\Temp\cc0ayw4Y.s 			page 281


 12602 00b3 20       		.byte	0x20
 12603 00b4 3E000000 		.4byte	0x3e
 12604 00b8 03       		.uleb128 0x3
 12605 00b9 6D000000 		.4byte	.LASF16
 12606 00bd 04       		.byte	0x4
 12607 00be 21       		.byte	0x21
 12608 00bf 50000000 		.4byte	0x50
 12609 00c3 03       		.uleb128 0x3
 12610 00c4 DF010000 		.4byte	.LASF17
 12611 00c8 04       		.byte	0x4
 12612 00c9 2C       		.byte	0x2c
 12613 00ca 62000000 		.4byte	0x62
 12614 00ce 03       		.uleb128 0x3
 12615 00cf 4B020000 		.4byte	.LASF18
 12616 00d3 04       		.byte	0x4
 12617 00d4 2D       		.byte	0x2d
 12618 00d5 74000000 		.4byte	0x74
 12619 00d9 02       		.uleb128 0x2
 12620 00da 04       		.byte	0x4
 12621 00db 07       		.byte	0x7
 12622 00dc AE010000 		.4byte	.LASF19
 12623 00e0 02       		.uleb128 0x2
 12624 00e1 01       		.byte	0x1
 12625 00e2 08       		.byte	0x8
 12626 00e3 5B020000 		.4byte	.LASF20
 12627 00e7 02       		.uleb128 0x2
 12628 00e8 08       		.byte	0x8
 12629 00e9 04       		.byte	0x4
 12630 00ea 76000000 		.4byte	.LASF21
 12631 00ee 02       		.uleb128 0x2
 12632 00ef 04       		.byte	0x4
 12633 00f0 04       		.byte	0x4
 12634 00f1 D2010000 		.4byte	.LASF22
 12635 00f5 02       		.uleb128 0x2
 12636 00f6 08       		.byte	0x8
 12637 00f7 04       		.byte	0x4
 12638 00f8 B7010000 		.4byte	.LASF23
 12639 00fc 05       		.uleb128 0x5
 12640 00fd 5A000000 		.4byte	.LASF24
 12641 0101 02       		.byte	0x2
 12642 0102 9601     		.2byte	0x196
 12643 0104 AD000000 		.4byte	0xad
 12644 0108 05       		.uleb128 0x5
 12645 0109 45020000 		.4byte	.LASF25
 12646 010d 02       		.byte	0x2
 12647 010e 9B01     		.2byte	0x19b
 12648 0110 C3000000 		.4byte	0xc3
 12649 0114 06       		.uleb128 0x6
 12650 0115 04       		.byte	0x4
 12651 0116 FC000000 		.4byte	0xfc
 12652 011a 06       		.uleb128 0x6
 12653 011b 04       		.byte	0x4
 12654 011c B8000000 		.4byte	0xb8
 12655 0120 07       		.uleb128 0x7
 12656 0121 10       		.byte	0x10
 12657 0122 02       		.byte	0x2
 12658 0123 F807     		.2byte	0x7f8
ARM GAS  C:\Users\fneves\AppData\Local\Temp\cc0ayw4Y.s 			page 282


 12659 0125 85010000 		.4byte	0x185
 12660 0129 08       		.uleb128 0x8
 12661 012a B3000000 		.4byte	.LASF26
 12662 012e 02       		.byte	0x2
 12663 012f FA07     		.2byte	0x7fa
 12664 0131 B8000000 		.4byte	0xb8
 12665 0135 00       		.byte	0
 12666 0136 08       		.uleb128 0x8
 12667 0137 05030000 		.4byte	.LASF27
 12668 013b 02       		.byte	0x2
 12669 013c FB07     		.2byte	0x7fb
 12670 013e A2000000 		.4byte	0xa2
 12671 0142 02       		.byte	0x2
 12672 0143 08       		.uleb128 0x8
 12673 0144 C3010000 		.4byte	.LASF28
 12674 0148 02       		.byte	0x2
 12675 0149 FC07     		.2byte	0x7fc
 12676 014b A2000000 		.4byte	0xa2
 12677 014f 03       		.byte	0x3
 12678 0150 08       		.uleb128 0x8
 12679 0151 9A020000 		.4byte	.LASF29
 12680 0155 02       		.byte	0x2
 12681 0156 FD07     		.2byte	0x7fd
 12682 0158 14010000 		.4byte	0x114
 12683 015c 04       		.byte	0x4
 12684 015d 08       		.uleb128 0x8
 12685 015e 60000000 		.4byte	.LASF30
 12686 0162 02       		.byte	0x2
 12687 0163 FE07     		.2byte	0x7fe
 12688 0165 1A010000 		.4byte	0x11a
 12689 0169 08       		.byte	0x8
 12690 016a 08       		.uleb128 0x8
 12691 016b DB020000 		.4byte	.LASF31
 12692 016f 02       		.byte	0x2
 12693 0170 FF07     		.2byte	0x7ff
 12694 0172 B8000000 		.4byte	0xb8
 12695 0176 0C       		.byte	0xc
 12696 0177 08       		.uleb128 0x8
 12697 0178 83010000 		.4byte	.LASF32
 12698 017c 02       		.byte	0x2
 12699 017d 0008     		.2byte	0x800
 12700 017f B8000000 		.4byte	0xb8
 12701 0183 0E       		.byte	0xe
 12702 0184 00       		.byte	0
 12703 0185 05       		.uleb128 0x5
 12704 0186 7D020000 		.4byte	.LASF33
 12705 018a 02       		.byte	0x2
 12706 018b 0108     		.2byte	0x801
 12707 018d 20010000 		.4byte	0x120
 12708 0191 09       		.uleb128 0x9
 12709 0192 00000000 		.4byte	.LASF46
 12710 0196 02       		.byte	0x2
 12711 0197 B402     		.2byte	0x2b4
 12712 0199 08010000 		.4byte	0x108
 12713 019d 03       		.byte	0x3
 12714 019e D9010000 		.4byte	0x1d9
 12715 01a2 0A       		.uleb128 0xa
ARM GAS  C:\Users\fneves\AppData\Local\Temp\cc0ayw4Y.s 			page 283


 12716 01a3 7800     		.ascii	"x\000"
 12717 01a5 02       		.byte	0x2
 12718 01a6 B502     		.2byte	0x2b5
 12719 01a8 08010000 		.4byte	0x108
 12720 01ac 0A       		.uleb128 0xa
 12721 01ad 7900     		.ascii	"y\000"
 12722 01af 02       		.byte	0x2
 12723 01b0 B602     		.2byte	0x2b6
 12724 01b2 CE000000 		.4byte	0xce
 12725 01b6 0B       		.uleb128 0xb
 12726 01b7 54020000 		.4byte	.LASF34
 12727 01bb 02       		.byte	0x2
 12728 01bc B802     		.2byte	0x2b8
 12729 01be C3000000 		.4byte	0xc3
 12730 01c2 0B       		.uleb128 0xb
 12731 01c3 07000000 		.4byte	.LASF35
 12732 01c7 02       		.byte	0x2
 12733 01c8 B802     		.2byte	0x2b8
 12734 01ca C3000000 		.4byte	0xc3
 12735 01ce 0C       		.uleb128 0xc
 12736 01cf 6900     		.ascii	"i\000"
 12737 01d1 02       		.byte	0x2
 12738 01d2 B902     		.2byte	0x2b9
 12739 01d4 CE000000 		.4byte	0xce
 12740 01d8 00       		.byte	0
 12741 01d9 0D       		.uleb128 0xd
 12742 01da 90010000 		.4byte	.LASF37
 12743 01de 01       		.byte	0x1
 12744 01df 4F       		.byte	0x4f
 12745 01e0 00000000 		.4byte	.LFB82
 12746 01e4 6E000000 		.4byte	.LFE82-.LFB82
 12747 01e8 01       		.uleb128 0x1
 12748 01e9 9C       		.byte	0x9c
 12749 01ea 09020000 		.4byte	0x209
 12750 01ee 0E       		.uleb128 0xe
 12751 01ef 5300     		.ascii	"S\000"
 12752 01f1 01       		.byte	0x1
 12753 01f2 50       		.byte	0x50
 12754 01f3 09020000 		.4byte	0x209
 12755 01f7 02       		.uleb128 0x2
 12756 01f8 91       		.byte	0x91
 12757 01f9 6C       		.sleb128 -20
 12758 01fa 0F       		.uleb128 0xf
 12759 01fb C7000000 		.4byte	.LASF36
 12760 01ff 01       		.byte	0x1
 12761 0200 51       		.byte	0x51
 12762 0201 14010000 		.4byte	0x114
 12763 0205 02       		.uleb128 0x2
 12764 0206 91       		.byte	0x91
 12765 0207 68       		.sleb128 -24
 12766 0208 00       		.byte	0
 12767 0209 06       		.uleb128 0x6
 12768 020a 04       		.byte	0x4
 12769 020b 0F020000 		.4byte	0x20f
 12770 020f 10       		.uleb128 0x10
 12771 0210 85010000 		.4byte	0x185
 12772 0214 11       		.uleb128 0x11
ARM GAS  C:\Users\fneves\AppData\Local\Temp\cc0ayw4Y.s 			page 284


 12773 0215 EC020000 		.4byte	.LASF38
 12774 0219 01       		.byte	0x1
 12775 021a 95       		.byte	0x95
 12776 021b 00000000 		.4byte	.LFB83
 12777 021f DC290000 		.4byte	.LFE83-.LFB83
 12778 0223 01       		.uleb128 0x1
 12779 0224 9C       		.byte	0x9c
 12780 0225 B40C0000 		.4byte	0xcb4
 12781 0229 0F       		.uleb128 0xf
 12782 022a D8010000 		.4byte	.LASF39
 12783 022e 01       		.byte	0x1
 12784 022f 96       		.byte	0x96
 12785 0230 14010000 		.4byte	0x114
 12786 0234 03       		.uleb128 0x3
 12787 0235 91       		.byte	0x91
 12788 0236 D47A     		.sleb128 -684
 12789 0238 0F       		.uleb128 0xf
 12790 0239 B3000000 		.4byte	.LASF26
 12791 023d 01       		.byte	0x1
 12792 023e 97       		.byte	0x97
 12793 023f CE000000 		.4byte	0xce
 12794 0243 03       		.uleb128 0x3
 12795 0244 91       		.byte	0x91
 12796 0245 D07A     		.sleb128 -688
 12797 0247 0F       		.uleb128 0xf
 12798 0248 75020000 		.4byte	.LASF40
 12799 024c 01       		.byte	0x1
 12800 024d 98       		.byte	0x98
 12801 024e 14010000 		.4byte	0x114
 12802 0252 03       		.uleb128 0x3
 12803 0253 91       		.byte	0x91
 12804 0254 CC7A     		.sleb128 -692
 12805 0256 0F       		.uleb128 0xf
 12806 0257 DB020000 		.4byte	.LASF31
 12807 025b 01       		.byte	0x1
 12808 025c 99       		.byte	0x99
 12809 025d CE000000 		.4byte	0xce
 12810 0261 03       		.uleb128 0x3
 12811 0262 91       		.byte	0x91
 12812 0263 C87A     		.sleb128 -696
 12813 0265 12       		.uleb128 0x12
 12814 0266 523000   		.ascii	"R0\000"
 12815 0269 01       		.byte	0x1
 12816 026a 6802     		.2byte	0x268
 12817 026c FC000000 		.4byte	0xfc
 12818 0270 02       		.uleb128 0x2
 12819 0271 91       		.byte	0x91
 12820 0272 4A       		.sleb128 -54
 12821 0273 12       		.uleb128 0x12
 12822 0274 523100   		.ascii	"R1\000"
 12823 0277 01       		.byte	0x1
 12824 0278 6802     		.2byte	0x268
 12825 027a FC000000 		.4byte	0xfc
 12826 027e 02       		.uleb128 0x2
 12827 027f 91       		.byte	0x91
 12828 0280 48       		.sleb128 -56
 12829 0281 12       		.uleb128 0x12
ARM GAS  C:\Users\fneves\AppData\Local\Temp\cc0ayw4Y.s 			page 285


 12830 0282 533000   		.ascii	"S0\000"
 12831 0285 01       		.byte	0x1
 12832 0286 6802     		.2byte	0x268
 12833 0288 FC000000 		.4byte	0xfc
 12834 028c 02       		.uleb128 0x2
 12835 028d 91       		.byte	0x91
 12836 028e 4E       		.sleb128 -50
 12837 028f 12       		.uleb128 0x12
 12838 0290 533100   		.ascii	"S1\000"
 12839 0293 01       		.byte	0x1
 12840 0294 6802     		.2byte	0x268
 12841 0296 FC000000 		.4byte	0xfc
 12842 029a 02       		.uleb128 0x2
 12843 029b 91       		.byte	0x91
 12844 029c 4C       		.sleb128 -52
 12845 029d 12       		.uleb128 0x12
 12846 029e 543000   		.ascii	"T0\000"
 12847 02a1 01       		.byte	0x1
 12848 02a2 6802     		.2byte	0x268
 12849 02a4 FC000000 		.4byte	0xfc
 12850 02a8 02       		.uleb128 0x2
 12851 02a9 91       		.byte	0x91
 12852 02aa 52       		.sleb128 -46
 12853 02ab 12       		.uleb128 0x12
 12854 02ac 543100   		.ascii	"T1\000"
 12855 02af 01       		.byte	0x1
 12856 02b0 6802     		.2byte	0x268
 12857 02b2 FC000000 		.4byte	0xfc
 12858 02b6 02       		.uleb128 0x2
 12859 02b7 91       		.byte	0x91
 12860 02b8 50       		.sleb128 -48
 12861 02b9 12       		.uleb128 0x12
 12862 02ba 553000   		.ascii	"U0\000"
 12863 02bd 01       		.byte	0x1
 12864 02be 6802     		.2byte	0x268
 12865 02c0 FC000000 		.4byte	0xfc
 12866 02c4 02       		.uleb128 0x2
 12867 02c5 91       		.byte	0x91
 12868 02c6 46       		.sleb128 -58
 12869 02c7 12       		.uleb128 0x12
 12870 02c8 553100   		.ascii	"U1\000"
 12871 02cb 01       		.byte	0x1
 12872 02cc 6802     		.2byte	0x268
 12873 02ce FC000000 		.4byte	0xfc
 12874 02d2 02       		.uleb128 0x2
 12875 02d3 91       		.byte	0x91
 12876 02d4 44       		.sleb128 -60
 12877 02d5 12       		.uleb128 0x12
 12878 02d6 436F3100 		.ascii	"Co1\000"
 12879 02da 01       		.byte	0x1
 12880 02db 6902     		.2byte	0x269
 12881 02dd FC000000 		.4byte	0xfc
 12882 02e1 03       		.uleb128 0x3
 12883 02e2 91       		.byte	0x91
 12884 02e3 BA7F     		.sleb128 -70
 12885 02e5 12       		.uleb128 0x12
 12886 02e6 53693100 		.ascii	"Si1\000"
ARM GAS  C:\Users\fneves\AppData\Local\Temp\cc0ayw4Y.s 			page 286


 12887 02ea 01       		.byte	0x1
 12888 02eb 6902     		.2byte	0x269
 12889 02ed FC000000 		.4byte	0xfc
 12890 02f1 03       		.uleb128 0x3
 12891 02f2 91       		.byte	0x91
 12892 02f3 B87F     		.sleb128 -72
 12893 02f5 12       		.uleb128 0x12
 12894 02f6 436F3200 		.ascii	"Co2\000"
 12895 02fa 01       		.byte	0x1
 12896 02fb 6902     		.2byte	0x269
 12897 02fd FC000000 		.4byte	0xfc
 12898 0301 02       		.uleb128 0x2
 12899 0302 91       		.byte	0x91
 12900 0303 42       		.sleb128 -62
 12901 0304 12       		.uleb128 0x12
 12902 0305 53693200 		.ascii	"Si2\000"
 12903 0309 01       		.byte	0x1
 12904 030a 6902     		.2byte	0x269
 12905 030c FC000000 		.4byte	0xfc
 12906 0310 02       		.uleb128 0x2
 12907 0311 91       		.byte	0x91
 12908 0312 40       		.sleb128 -64
 12909 0313 12       		.uleb128 0x12
 12910 0314 436F3300 		.ascii	"Co3\000"
 12911 0318 01       		.byte	0x1
 12912 0319 6902     		.2byte	0x269
 12913 031b FC000000 		.4byte	0xfc
 12914 031f 03       		.uleb128 0x3
 12915 0320 91       		.byte	0x91
 12916 0321 B67F     		.sleb128 -74
 12917 0323 12       		.uleb128 0x12
 12918 0324 53693300 		.ascii	"Si3\000"
 12919 0328 01       		.byte	0x1
 12920 0329 6902     		.2byte	0x269
 12921 032b FC000000 		.4byte	0xfc
 12922 032f 03       		.uleb128 0x3
 12923 0330 91       		.byte	0x91
 12924 0331 B47F     		.sleb128 -76
 12925 0333 13       		.uleb128 0x13
 12926 0334 A4010000 		.4byte	.LASF41
 12927 0338 01       		.byte	0x1
 12928 0339 6902     		.2byte	0x269
 12929 033b FC000000 		.4byte	0xfc
 12930 033f 03       		.uleb128 0x3
 12931 0340 91       		.byte	0x91
 12932 0341 BE7F     		.sleb128 -66
 12933 0343 13       		.uleb128 0x13
 12934 0344 A9010000 		.4byte	.LASF42
 12935 0348 01       		.byte	0x1
 12936 0349 6902     		.2byte	0x269
 12937 034b FC000000 		.4byte	0xfc
 12938 034f 03       		.uleb128 0x3
 12939 0350 91       		.byte	0x91
 12940 0351 BC7F     		.sleb128 -68
 12941 0353 12       		.uleb128 0x12
 12942 0354 6E3100   		.ascii	"n1\000"
 12943 0357 01       		.byte	0x1
ARM GAS  C:\Users\fneves\AppData\Local\Temp\cc0ayw4Y.s 			page 287


 12944 0358 6A02     		.2byte	0x26a
 12945 035a CE000000 		.4byte	0xce
 12946 035e 02       		.uleb128 0x2
 12947 035f 91       		.byte	0x91
 12948 0360 60       		.sleb128 -32
 12949 0361 12       		.uleb128 0x12
 12950 0362 6E3200   		.ascii	"n2\000"
 12951 0365 01       		.byte	0x1
 12952 0366 6A02     		.2byte	0x26a
 12953 0368 CE000000 		.4byte	0xce
 12954 036c 02       		.uleb128 0x2
 12955 036d 91       		.byte	0x91
 12956 036e 74       		.sleb128 -12
 12957 036f 12       		.uleb128 0x12
 12958 0370 696300   		.ascii	"ic\000"
 12959 0373 01       		.byte	0x1
 12960 0374 6A02     		.2byte	0x26a
 12961 0376 CE000000 		.4byte	0xce
 12962 037a 02       		.uleb128 0x2
 12963 037b 91       		.byte	0x91
 12964 037c 70       		.sleb128 -16
 12965 037d 12       		.uleb128 0x12
 12966 037e 693000   		.ascii	"i0\000"
 12967 0381 01       		.byte	0x1
 12968 0382 6A02     		.2byte	0x26a
 12969 0384 CE000000 		.4byte	0xce
 12970 0388 02       		.uleb128 0x2
 12971 0389 91       		.byte	0x91
 12972 038a 6C       		.sleb128 -20
 12973 038b 12       		.uleb128 0x12
 12974 038c 693100   		.ascii	"i1\000"
 12975 038f 01       		.byte	0x1
 12976 0390 6A02     		.2byte	0x26a
 12977 0392 CE000000 		.4byte	0xce
 12978 0396 02       		.uleb128 0x2
 12979 0397 91       		.byte	0x91
 12980 0398 5C       		.sleb128 -36
 12981 0399 12       		.uleb128 0x12
 12982 039a 693200   		.ascii	"i2\000"
 12983 039d 01       		.byte	0x1
 12984 039e 6A02     		.2byte	0x26a
 12985 03a0 CE000000 		.4byte	0xce
 12986 03a4 02       		.uleb128 0x2
 12987 03a5 91       		.byte	0x91
 12988 03a6 58       		.sleb128 -40
 12989 03a7 12       		.uleb128 0x12
 12990 03a8 693300   		.ascii	"i3\000"
 12991 03ab 01       		.byte	0x1
 12992 03ac 6A02     		.2byte	0x26a
 12993 03ae CE000000 		.4byte	0xce
 12994 03b2 02       		.uleb128 0x2
 12995 03b3 91       		.byte	0x91
 12996 03b4 54       		.sleb128 -44
 12997 03b5 12       		.uleb128 0x12
 12998 03b6 6A00     		.ascii	"j\000"
 12999 03b8 01       		.byte	0x1
 13000 03b9 6A02     		.2byte	0x26a
ARM GAS  C:\Users\fneves\AppData\Local\Temp\cc0ayw4Y.s 			page 288


 13001 03bb CE000000 		.4byte	0xce
 13002 03bf 02       		.uleb128 0x2
 13003 03c0 91       		.byte	0x91
 13004 03c1 68       		.sleb128 -24
 13005 03c2 12       		.uleb128 0x12
 13006 03c3 6B00     		.ascii	"k\000"
 13007 03c5 01       		.byte	0x1
 13008 03c6 6A02     		.2byte	0x26a
 13009 03c8 CE000000 		.4byte	0xce
 13010 03cc 02       		.uleb128 0x2
 13011 03cd 91       		.byte	0x91
 13012 03ce 64       		.sleb128 -28
 13013 03cf 14       		.uleb128 0x14
 13014 03d0 91010000 		.4byte	0x191
 13015 03d4 42010000 		.4byte	.LBB122
 13016 03d8 D6000000 		.4byte	.LBE122-.LBB122
 13017 03dc 01       		.byte	0x1
 13018 03dd 9802     		.2byte	0x298
 13019 03df 1B040000 		.4byte	0x41b
 13020 03e3 15       		.uleb128 0x15
 13021 03e4 AC010000 		.4byte	0x1ac
 13022 03e8 03       		.uleb128 0x3
 13023 03e9 91       		.byte	0x91
 13024 03ea AC7F     		.sleb128 -84
 13025 03ec 15       		.uleb128 0x15
 13026 03ed A2010000 		.4byte	0x1a2
 13027 03f1 03       		.uleb128 0x3
 13028 03f2 91       		.byte	0x91
 13029 03f3 B07F     		.sleb128 -80
 13030 03f5 16       		.uleb128 0x16
 13031 03f6 42010000 		.4byte	.LBB123
 13032 03fa D6000000 		.4byte	.LBE123-.LBB123
 13033 03fe 17       		.uleb128 0x17
 13034 03ff B6010000 		.4byte	0x1b6
 13035 0403 03       		.uleb128 0x3
 13036 0404 91       		.byte	0x91
 13037 0405 A87F     		.sleb128 -88
 13038 0407 17       		.uleb128 0x17
 13039 0408 C2010000 		.4byte	0x1c2
 13040 040c 03       		.uleb128 0x3
 13041 040d 91       		.byte	0x91
 13042 040e A07F     		.sleb128 -96
 13043 0410 17       		.uleb128 0x17
 13044 0411 CE010000 		.4byte	0x1ce
 13045 0415 03       		.uleb128 0x3
 13046 0416 91       		.byte	0x91
 13047 0417 A47F     		.sleb128 -92
 13048 0419 00       		.byte	0
 13049 041a 00       		.byte	0
 13050 041b 14       		.uleb128 0x14
 13051 041c 91010000 		.4byte	0x191
 13052 0420 46020000 		.4byte	.LBB124
 13053 0424 D6000000 		.4byte	.LBE124-.LBB124
 13054 0428 01       		.byte	0x1
 13055 0429 9A02     		.2byte	0x29a
 13056 042b 67040000 		.4byte	0x467
 13057 042f 15       		.uleb128 0x15
ARM GAS  C:\Users\fneves\AppData\Local\Temp\cc0ayw4Y.s 			page 289


 13058 0430 AC010000 		.4byte	0x1ac
 13059 0434 03       		.uleb128 0x3
 13060 0435 91       		.byte	0x91
 13061 0436 987F     		.sleb128 -104
 13062 0438 15       		.uleb128 0x15
 13063 0439 A2010000 		.4byte	0x1a2
 13064 043d 03       		.uleb128 0x3
 13065 043e 91       		.byte	0x91
 13066 043f 9C7F     		.sleb128 -100
 13067 0441 16       		.uleb128 0x16
 13068 0442 46020000 		.4byte	.LBB125
 13069 0446 D6000000 		.4byte	.LBE125-.LBB125
 13070 044a 17       		.uleb128 0x17
 13071 044b B6010000 		.4byte	0x1b6
 13072 044f 03       		.uleb128 0x3
 13073 0450 91       		.byte	0x91
 13074 0451 947F     		.sleb128 -108
 13075 0453 17       		.uleb128 0x17
 13076 0454 C2010000 		.4byte	0x1c2
 13077 0458 03       		.uleb128 0x3
 13078 0459 91       		.byte	0x91
 13079 045a 8C7F     		.sleb128 -116
 13080 045c 17       		.uleb128 0x17
 13081 045d CE010000 		.4byte	0x1ce
 13082 0461 03       		.uleb128 0x3
 13083 0462 91       		.byte	0x91
 13084 0463 907F     		.sleb128 -112
 13085 0465 00       		.byte	0
 13086 0466 00       		.byte	0
 13087 0467 14       		.uleb128 0x14
 13088 0468 91010000 		.4byte	0x191
 13089 046c 48030000 		.4byte	.LBB126
 13090 0470 E8000000 		.4byte	.LBE126-.LBB126
 13091 0474 01       		.byte	0x1
 13092 0475 9D02     		.2byte	0x29d
 13093 0477 B3040000 		.4byte	0x4b3
 13094 047b 15       		.uleb128 0x15
 13095 047c AC010000 		.4byte	0x1ac
 13096 0480 03       		.uleb128 0x3
 13097 0481 91       		.byte	0x91
 13098 0482 847F     		.sleb128 -124
 13099 0484 15       		.uleb128 0x15
 13100 0485 A2010000 		.4byte	0x1a2
 13101 0489 03       		.uleb128 0x3
 13102 048a 91       		.byte	0x91
 13103 048b 887F     		.sleb128 -120
 13104 048d 16       		.uleb128 0x16
 13105 048e 48030000 		.4byte	.LBB127
 13106 0492 E8000000 		.4byte	.LBE127-.LBB127
 13107 0496 17       		.uleb128 0x17
 13108 0497 B6010000 		.4byte	0x1b6
 13109 049b 03       		.uleb128 0x3
 13110 049c 91       		.byte	0x91
 13111 049d 807F     		.sleb128 -128
 13112 049f 17       		.uleb128 0x17
 13113 04a0 C2010000 		.4byte	0x1c2
 13114 04a4 03       		.uleb128 0x3
ARM GAS  C:\Users\fneves\AppData\Local\Temp\cc0ayw4Y.s 			page 290


 13115 04a5 91       		.byte	0x91
 13116 04a6 F87E     		.sleb128 -136
 13117 04a8 17       		.uleb128 0x17
 13118 04a9 CE010000 		.4byte	0x1ce
 13119 04ad 03       		.uleb128 0x3
 13120 04ae 91       		.byte	0x91
 13121 04af FC7E     		.sleb128 -132
 13122 04b1 00       		.byte	0
 13123 04b2 00       		.byte	0
 13124 04b3 14       		.uleb128 0x14
 13125 04b4 91010000 		.4byte	0x191
 13126 04b8 5E040000 		.4byte	.LBB128
 13127 04bc D6000000 		.4byte	.LBE128-.LBB128
 13128 04c0 01       		.byte	0x1
 13129 04c1 9F02     		.2byte	0x29f
 13130 04c3 FF040000 		.4byte	0x4ff
 13131 04c7 15       		.uleb128 0x15
 13132 04c8 AC010000 		.4byte	0x1ac
 13133 04cc 03       		.uleb128 0x3
 13134 04cd 91       		.byte	0x91
 13135 04ce F07E     		.sleb128 -144
 13136 04d0 15       		.uleb128 0x15
 13137 04d1 A2010000 		.4byte	0x1a2
 13138 04d5 03       		.uleb128 0x3
 13139 04d6 91       		.byte	0x91
 13140 04d7 F47E     		.sleb128 -140
 13141 04d9 16       		.uleb128 0x16
 13142 04da 5E040000 		.4byte	.LBB129
 13143 04de D6000000 		.4byte	.LBE129-.LBB129
 13144 04e2 17       		.uleb128 0x17
 13145 04e3 B6010000 		.4byte	0x1b6
 13146 04e7 03       		.uleb128 0x3
 13147 04e8 91       		.byte	0x91
 13148 04e9 EC7E     		.sleb128 -148
 13149 04eb 17       		.uleb128 0x17
 13150 04ec C2010000 		.4byte	0x1c2
 13151 04f0 03       		.uleb128 0x3
 13152 04f1 91       		.byte	0x91
 13153 04f2 E47E     		.sleb128 -156
 13154 04f4 17       		.uleb128 0x17
 13155 04f5 CE010000 		.4byte	0x1ce
 13156 04f9 03       		.uleb128 0x3
 13157 04fa 91       		.byte	0x91
 13158 04fb E87E     		.sleb128 -152
 13159 04fd 00       		.byte	0
 13160 04fe 00       		.byte	0
 13161 04ff 14       		.uleb128 0x14
 13162 0500 91010000 		.4byte	0x191
 13163 0504 D0050000 		.4byte	.LBB130
 13164 0508 D6000000 		.4byte	.LBE130-.LBB130
 13165 050c 01       		.byte	0x1
 13166 050d AD02     		.2byte	0x2ad
 13167 050f 4B050000 		.4byte	0x54b
 13168 0513 15       		.uleb128 0x15
 13169 0514 AC010000 		.4byte	0x1ac
 13170 0518 03       		.uleb128 0x3
 13171 0519 91       		.byte	0x91
ARM GAS  C:\Users\fneves\AppData\Local\Temp\cc0ayw4Y.s 			page 291


 13172 051a DC7E     		.sleb128 -164
 13173 051c 15       		.uleb128 0x15
 13174 051d A2010000 		.4byte	0x1a2
 13175 0521 03       		.uleb128 0x3
 13176 0522 91       		.byte	0x91
 13177 0523 E07E     		.sleb128 -160
 13178 0525 16       		.uleb128 0x16
 13179 0526 D0050000 		.4byte	.LBB131
 13180 052a D6000000 		.4byte	.LBE131-.LBB131
 13181 052e 17       		.uleb128 0x17
 13182 052f B6010000 		.4byte	0x1b6
 13183 0533 03       		.uleb128 0x3
 13184 0534 91       		.byte	0x91
 13185 0535 D87E     		.sleb128 -168
 13186 0537 17       		.uleb128 0x17
 13187 0538 C2010000 		.4byte	0x1c2
 13188 053c 03       		.uleb128 0x3
 13189 053d 91       		.byte	0x91
 13190 053e D07E     		.sleb128 -176
 13191 0540 17       		.uleb128 0x17
 13192 0541 CE010000 		.4byte	0x1ce
 13193 0545 03       		.uleb128 0x3
 13194 0546 91       		.byte	0x91
 13195 0547 D47E     		.sleb128 -172
 13196 0549 00       		.byte	0
 13197 054a 00       		.byte	0
 13198 054b 14       		.uleb128 0x14
 13199 054c 91010000 		.4byte	0x191
 13200 0550 D4060000 		.4byte	.LBB132
 13201 0554 E2000000 		.4byte	.LBE132-.LBB132
 13202 0558 01       		.byte	0x1
 13203 0559 AF02     		.2byte	0x2af
 13204 055b 97050000 		.4byte	0x597
 13205 055f 15       		.uleb128 0x15
 13206 0560 AC010000 		.4byte	0x1ac
 13207 0564 03       		.uleb128 0x3
 13208 0565 91       		.byte	0x91
 13209 0566 C87E     		.sleb128 -184
 13210 0568 15       		.uleb128 0x15
 13211 0569 A2010000 		.4byte	0x1a2
 13212 056d 03       		.uleb128 0x3
 13213 056e 91       		.byte	0x91
 13214 056f CC7E     		.sleb128 -180
 13215 0571 16       		.uleb128 0x16
 13216 0572 D4060000 		.4byte	.LBB133
 13217 0576 E2000000 		.4byte	.LBE133-.LBB133
 13218 057a 17       		.uleb128 0x17
 13219 057b B6010000 		.4byte	0x1b6
 13220 057f 03       		.uleb128 0x3
 13221 0580 91       		.byte	0x91
 13222 0581 C47E     		.sleb128 -188
 13223 0583 17       		.uleb128 0x17
 13224 0584 C2010000 		.4byte	0x1c2
 13225 0588 03       		.uleb128 0x3
 13226 0589 91       		.byte	0x91
 13227 058a BC7E     		.sleb128 -196
 13228 058c 17       		.uleb128 0x17
ARM GAS  C:\Users\fneves\AppData\Local\Temp\cc0ayw4Y.s 			page 292


 13229 058d CE010000 		.4byte	0x1ce
 13230 0591 03       		.uleb128 0x3
 13231 0592 91       		.byte	0x91
 13232 0593 C07E     		.sleb128 -192
 13233 0595 00       		.byte	0
 13234 0596 00       		.byte	0
 13235 0597 14       		.uleb128 0x14
 13236 0598 91010000 		.4byte	0x191
 13237 059c 4C080000 		.4byte	.LBB134
 13238 05a0 D6000000 		.4byte	.LBE134-.LBB134
 13239 05a4 01       		.byte	0x1
 13240 05a5 B902     		.2byte	0x2b9
 13241 05a7 E3050000 		.4byte	0x5e3
 13242 05ab 15       		.uleb128 0x15
 13243 05ac AC010000 		.4byte	0x1ac
 13244 05b0 03       		.uleb128 0x3
 13245 05b1 91       		.byte	0x91
 13246 05b2 B47E     		.sleb128 -204
 13247 05b4 15       		.uleb128 0x15
 13248 05b5 A2010000 		.4byte	0x1a2
 13249 05b9 03       		.uleb128 0x3
 13250 05ba 91       		.byte	0x91
 13251 05bb B87E     		.sleb128 -200
 13252 05bd 16       		.uleb128 0x16
 13253 05be 4C080000 		.4byte	.LBB135
 13254 05c2 D6000000 		.4byte	.LBE135-.LBB135
 13255 05c6 17       		.uleb128 0x17
 13256 05c7 B6010000 		.4byte	0x1b6
 13257 05cb 03       		.uleb128 0x3
 13258 05cc 91       		.byte	0x91
 13259 05cd B07E     		.sleb128 -208
 13260 05cf 17       		.uleb128 0x17
 13261 05d0 C2010000 		.4byte	0x1c2
 13262 05d4 03       		.uleb128 0x3
 13263 05d5 91       		.byte	0x91
 13264 05d6 A87E     		.sleb128 -216
 13265 05d8 17       		.uleb128 0x17
 13266 05d9 CE010000 		.4byte	0x1ce
 13267 05dd 03       		.uleb128 0x3
 13268 05de 91       		.byte	0x91
 13269 05df AC7E     		.sleb128 -212
 13270 05e1 00       		.byte	0
 13271 05e2 00       		.byte	0
 13272 05e3 14       		.uleb128 0x14
 13273 05e4 91010000 		.4byte	0x191
 13274 05e8 50090000 		.4byte	.LBB136
 13275 05ec DE000000 		.4byte	.LBE136-.LBB136
 13276 05f0 01       		.byte	0x1
 13277 05f1 BA02     		.2byte	0x2ba
 13278 05f3 2F060000 		.4byte	0x62f
 13279 05f7 15       		.uleb128 0x15
 13280 05f8 AC010000 		.4byte	0x1ac
 13281 05fc 03       		.uleb128 0x3
 13282 05fd 91       		.byte	0x91
 13283 05fe A07E     		.sleb128 -224
 13284 0600 15       		.uleb128 0x15
 13285 0601 A2010000 		.4byte	0x1a2
ARM GAS  C:\Users\fneves\AppData\Local\Temp\cc0ayw4Y.s 			page 293


 13286 0605 03       		.uleb128 0x3
 13287 0606 91       		.byte	0x91
 13288 0607 A47E     		.sleb128 -220
 13289 0609 16       		.uleb128 0x16
 13290 060a 50090000 		.4byte	.LBB137
 13291 060e DE000000 		.4byte	.LBE137-.LBB137
 13292 0612 17       		.uleb128 0x17
 13293 0613 B6010000 		.4byte	0x1b6
 13294 0617 03       		.uleb128 0x3
 13295 0618 91       		.byte	0x91
 13296 0619 9C7E     		.sleb128 -228
 13297 061b 17       		.uleb128 0x17
 13298 061c C2010000 		.4byte	0x1c2
 13299 0620 03       		.uleb128 0x3
 13300 0621 91       		.byte	0x91
 13301 0622 947E     		.sleb128 -236
 13302 0624 17       		.uleb128 0x17
 13303 0625 CE010000 		.4byte	0x1ce
 13304 0629 03       		.uleb128 0x3
 13305 062a 91       		.byte	0x91
 13306 062b 987E     		.sleb128 -232
 13307 062d 00       		.byte	0
 13308 062e 00       		.byte	0
 13309 062f 14       		.uleb128 0x14
 13310 0630 91010000 		.4byte	0x191
 13311 0634 920B0000 		.4byte	.LBB138
 13312 0638 D6000000 		.4byte	.LBE138-.LBB138
 13313 063c 01       		.byte	0x1
 13314 063d D602     		.2byte	0x2d6
 13315 063f 7B060000 		.4byte	0x67b
 13316 0643 15       		.uleb128 0x15
 13317 0644 AC010000 		.4byte	0x1ac
 13318 0648 03       		.uleb128 0x3
 13319 0649 91       		.byte	0x91
 13320 064a 8C7E     		.sleb128 -244
 13321 064c 15       		.uleb128 0x15
 13322 064d A2010000 		.4byte	0x1a2
 13323 0651 03       		.uleb128 0x3
 13324 0652 91       		.byte	0x91
 13325 0653 907E     		.sleb128 -240
 13326 0655 16       		.uleb128 0x16
 13327 0656 920B0000 		.4byte	.LBB139
 13328 065a D6000000 		.4byte	.LBE139-.LBB139
 13329 065e 17       		.uleb128 0x17
 13330 065f B6010000 		.4byte	0x1b6
 13331 0663 03       		.uleb128 0x3
 13332 0664 91       		.byte	0x91
 13333 0665 887E     		.sleb128 -248
 13334 0667 17       		.uleb128 0x17
 13335 0668 C2010000 		.4byte	0x1c2
 13336 066c 03       		.uleb128 0x3
 13337 066d 91       		.byte	0x91
 13338 066e 807E     		.sleb128 -256
 13339 0670 17       		.uleb128 0x17
 13340 0671 CE010000 		.4byte	0x1ce
 13341 0675 03       		.uleb128 0x3
 13342 0676 91       		.byte	0x91
ARM GAS  C:\Users\fneves\AppData\Local\Temp\cc0ayw4Y.s 			page 294


 13343 0677 847E     		.sleb128 -252
 13344 0679 00       		.byte	0
 13345 067a 00       		.byte	0
 13346 067b 14       		.uleb128 0x14
 13347 067c 91010000 		.4byte	0x191
 13348 0680 960C0000 		.4byte	.LBB140
 13349 0684 D6000000 		.4byte	.LBE140-.LBB140
 13350 0688 01       		.byte	0x1
 13351 0689 D802     		.2byte	0x2d8
 13352 068b C7060000 		.4byte	0x6c7
 13353 068f 15       		.uleb128 0x15
 13354 0690 AC010000 		.4byte	0x1ac
 13355 0694 03       		.uleb128 0x3
 13356 0695 91       		.byte	0x91
 13357 0696 F87D     		.sleb128 -264
 13358 0698 15       		.uleb128 0x15
 13359 0699 A2010000 		.4byte	0x1a2
 13360 069d 03       		.uleb128 0x3
 13361 069e 91       		.byte	0x91
 13362 069f FC7D     		.sleb128 -260
 13363 06a1 16       		.uleb128 0x16
 13364 06a2 960C0000 		.4byte	.LBB141
 13365 06a6 D6000000 		.4byte	.LBE141-.LBB141
 13366 06aa 17       		.uleb128 0x17
 13367 06ab B6010000 		.4byte	0x1b6
 13368 06af 03       		.uleb128 0x3
 13369 06b0 91       		.byte	0x91
 13370 06b1 F47D     		.sleb128 -268
 13371 06b3 17       		.uleb128 0x17
 13372 06b4 C2010000 		.4byte	0x1c2
 13373 06b8 03       		.uleb128 0x3
 13374 06b9 91       		.byte	0x91
 13375 06ba EC7D     		.sleb128 -276
 13376 06bc 17       		.uleb128 0x17
 13377 06bd CE010000 		.4byte	0x1ce
 13378 06c1 03       		.uleb128 0x3
 13379 06c2 91       		.byte	0x91
 13380 06c3 F07D     		.sleb128 -272
 13381 06c5 00       		.byte	0
 13382 06c6 00       		.byte	0
 13383 06c7 14       		.uleb128 0x14
 13384 06c8 91010000 		.4byte	0x191
 13385 06cc 9A0D0000 		.4byte	.LBB142
 13386 06d0 EE000000 		.4byte	.LBE142-.LBB142
 13387 06d4 01       		.byte	0x1
 13388 06d5 DB02     		.2byte	0x2db
 13389 06d7 13070000 		.4byte	0x713
 13390 06db 15       		.uleb128 0x15
 13391 06dc AC010000 		.4byte	0x1ac
 13392 06e0 03       		.uleb128 0x3
 13393 06e1 91       		.byte	0x91
 13394 06e2 E47D     		.sleb128 -284
 13395 06e4 15       		.uleb128 0x15
 13396 06e5 A2010000 		.4byte	0x1a2
 13397 06e9 03       		.uleb128 0x3
 13398 06ea 91       		.byte	0x91
 13399 06eb E87D     		.sleb128 -280
ARM GAS  C:\Users\fneves\AppData\Local\Temp\cc0ayw4Y.s 			page 295


 13400 06ed 16       		.uleb128 0x16
 13401 06ee 9A0D0000 		.4byte	.LBB143
 13402 06f2 EE000000 		.4byte	.LBE143-.LBB143
 13403 06f6 17       		.uleb128 0x17
 13404 06f7 B6010000 		.4byte	0x1b6
 13405 06fb 03       		.uleb128 0x3
 13406 06fc 91       		.byte	0x91
 13407 06fd E07D     		.sleb128 -288
 13408 06ff 17       		.uleb128 0x17
 13409 0700 C2010000 		.4byte	0x1c2
 13410 0704 03       		.uleb128 0x3
 13411 0705 91       		.byte	0x91
 13412 0706 D87D     		.sleb128 -296
 13413 0708 17       		.uleb128 0x17
 13414 0709 CE010000 		.4byte	0x1ce
 13415 070d 03       		.uleb128 0x3
 13416 070e 91       		.byte	0x91
 13417 070f DC7D     		.sleb128 -292
 13418 0711 00       		.byte	0
 13419 0712 00       		.byte	0
 13420 0713 14       		.uleb128 0x14
 13421 0714 91010000 		.4byte	0x191
 13422 0718 B40E0000 		.4byte	.LBB144
 13423 071c D6000000 		.4byte	.LBE144-.LBB144
 13424 0720 01       		.byte	0x1
 13425 0721 DC02     		.2byte	0x2dc
 13426 0723 5F070000 		.4byte	0x75f
 13427 0727 15       		.uleb128 0x15
 13428 0728 AC010000 		.4byte	0x1ac
 13429 072c 03       		.uleb128 0x3
 13430 072d 91       		.byte	0x91
 13431 072e D07D     		.sleb128 -304
 13432 0730 15       		.uleb128 0x15
 13433 0731 A2010000 		.4byte	0x1a2
 13434 0735 03       		.uleb128 0x3
 13435 0736 91       		.byte	0x91
 13436 0737 D47D     		.sleb128 -300
 13437 0739 16       		.uleb128 0x16
 13438 073a B40E0000 		.4byte	.LBB145
 13439 073e D6000000 		.4byte	.LBE145-.LBB145
 13440 0742 17       		.uleb128 0x17
 13441 0743 B6010000 		.4byte	0x1b6
 13442 0747 03       		.uleb128 0x3
 13443 0748 91       		.byte	0x91
 13444 0749 CC7D     		.sleb128 -308
 13445 074b 17       		.uleb128 0x17
 13446 074c C2010000 		.4byte	0x1c2
 13447 0750 03       		.uleb128 0x3
 13448 0751 91       		.byte	0x91
 13449 0752 C47D     		.sleb128 -316
 13450 0754 17       		.uleb128 0x17
 13451 0755 CE010000 		.4byte	0x1ce
 13452 0759 03       		.uleb128 0x3
 13453 075a 91       		.byte	0x91
 13454 075b C87D     		.sleb128 -312
 13455 075d 00       		.byte	0
 13456 075e 00       		.byte	0
ARM GAS  C:\Users\fneves\AppData\Local\Temp\cc0ayw4Y.s 			page 296


 13457 075f 14       		.uleb128 0x14
 13458 0760 91010000 		.4byte	0x191
 13459 0764 B80F0000 		.4byte	.LBB146
 13460 0768 D6000000 		.4byte	.LBE146-.LBB146
 13461 076c 01       		.byte	0x1
 13462 076d DF02     		.2byte	0x2df
 13463 076f AB070000 		.4byte	0x7ab
 13464 0773 15       		.uleb128 0x15
 13465 0774 AC010000 		.4byte	0x1ac
 13466 0778 03       		.uleb128 0x3
 13467 0779 91       		.byte	0x91
 13468 077a BC7D     		.sleb128 -324
 13469 077c 15       		.uleb128 0x15
 13470 077d A2010000 		.4byte	0x1a2
 13471 0781 03       		.uleb128 0x3
 13472 0782 91       		.byte	0x91
 13473 0783 C07D     		.sleb128 -320
 13474 0785 16       		.uleb128 0x16
 13475 0786 B80F0000 		.4byte	.LBB147
 13476 078a D6000000 		.4byte	.LBE147-.LBB147
 13477 078e 17       		.uleb128 0x17
 13478 078f B6010000 		.4byte	0x1b6
 13479 0793 03       		.uleb128 0x3
 13480 0794 91       		.byte	0x91
 13481 0795 B87D     		.sleb128 -328
 13482 0797 17       		.uleb128 0x17
 13483 0798 C2010000 		.4byte	0x1c2
 13484 079c 03       		.uleb128 0x3
 13485 079d 91       		.byte	0x91
 13486 079e B07D     		.sleb128 -336
 13487 07a0 17       		.uleb128 0x17
 13488 07a1 CE010000 		.4byte	0x1ce
 13489 07a5 03       		.uleb128 0x3
 13490 07a6 91       		.byte	0x91
 13491 07a7 B47D     		.sleb128 -332
 13492 07a9 00       		.byte	0
 13493 07aa 00       		.byte	0
 13494 07ab 14       		.uleb128 0x14
 13495 07ac 91010000 		.4byte	0x191
 13496 07b0 BA100000 		.4byte	.LBB148
 13497 07b4 E4000000 		.4byte	.LBE148-.LBB148
 13498 07b8 01       		.byte	0x1
 13499 07b9 E002     		.2byte	0x2e0
 13500 07bb F7070000 		.4byte	0x7f7
 13501 07bf 15       		.uleb128 0x15
 13502 07c0 AC010000 		.4byte	0x1ac
 13503 07c4 03       		.uleb128 0x3
 13504 07c5 91       		.byte	0x91
 13505 07c6 A87D     		.sleb128 -344
 13506 07c8 15       		.uleb128 0x15
 13507 07c9 A2010000 		.4byte	0x1a2
 13508 07cd 03       		.uleb128 0x3
 13509 07ce 91       		.byte	0x91
 13510 07cf AC7D     		.sleb128 -340
 13511 07d1 16       		.uleb128 0x16
 13512 07d2 BA100000 		.4byte	.LBB149
 13513 07d6 E4000000 		.4byte	.LBE149-.LBB149
ARM GAS  C:\Users\fneves\AppData\Local\Temp\cc0ayw4Y.s 			page 297


 13514 07da 17       		.uleb128 0x17
 13515 07db B6010000 		.4byte	0x1b6
 13516 07df 03       		.uleb128 0x3
 13517 07e0 91       		.byte	0x91
 13518 07e1 A47D     		.sleb128 -348
 13519 07e3 17       		.uleb128 0x17
 13520 07e4 C2010000 		.4byte	0x1c2
 13521 07e8 03       		.uleb128 0x3
 13522 07e9 91       		.byte	0x91
 13523 07ea 9C7D     		.sleb128 -356
 13524 07ec 17       		.uleb128 0x17
 13525 07ed CE010000 		.4byte	0x1ce
 13526 07f1 03       		.uleb128 0x3
 13527 07f2 91       		.byte	0x91
 13528 07f3 A07D     		.sleb128 -352
 13529 07f5 00       		.byte	0
 13530 07f6 00       		.byte	0
 13531 07f7 14       		.uleb128 0x14
 13532 07f8 91010000 		.4byte	0x191
 13533 07fc 8E150000 		.4byte	.LBB150
 13534 0800 D6000000 		.4byte	.LBE150-.LBB150
 13535 0804 01       		.byte	0x1
 13536 0805 3403     		.2byte	0x334
 13537 0807 43080000 		.4byte	0x843
 13538 080b 15       		.uleb128 0x15
 13539 080c AC010000 		.4byte	0x1ac
 13540 0810 03       		.uleb128 0x3
 13541 0811 91       		.byte	0x91
 13542 0812 947D     		.sleb128 -364
 13543 0814 15       		.uleb128 0x15
 13544 0815 A2010000 		.4byte	0x1a2
 13545 0819 03       		.uleb128 0x3
 13546 081a 91       		.byte	0x91
 13547 081b 987D     		.sleb128 -360
 13548 081d 16       		.uleb128 0x16
 13549 081e 8E150000 		.4byte	.LBB151
 13550 0822 D6000000 		.4byte	.LBE151-.LBB151
 13551 0826 17       		.uleb128 0x17
 13552 0827 B6010000 		.4byte	0x1b6
 13553 082b 03       		.uleb128 0x3
 13554 082c 91       		.byte	0x91
 13555 082d 907D     		.sleb128 -368
 13556 082f 17       		.uleb128 0x17
 13557 0830 C2010000 		.4byte	0x1c2
 13558 0834 03       		.uleb128 0x3
 13559 0835 91       		.byte	0x91
 13560 0836 887D     		.sleb128 -376
 13561 0838 17       		.uleb128 0x17
 13562 0839 CE010000 		.4byte	0x1ce
 13563 083d 03       		.uleb128 0x3
 13564 083e 91       		.byte	0x91
 13565 083f 8C7D     		.sleb128 -372
 13566 0841 00       		.byte	0
 13567 0842 00       		.byte	0
 13568 0843 14       		.uleb128 0x14
 13569 0844 91010000 		.4byte	0x191
 13570 0848 92160000 		.4byte	.LBB152
ARM GAS  C:\Users\fneves\AppData\Local\Temp\cc0ayw4Y.s 			page 298


 13571 084c D6000000 		.4byte	.LBE152-.LBB152
 13572 0850 01       		.byte	0x1
 13573 0851 3503     		.2byte	0x335
 13574 0853 8F080000 		.4byte	0x88f
 13575 0857 15       		.uleb128 0x15
 13576 0858 AC010000 		.4byte	0x1ac
 13577 085c 03       		.uleb128 0x3
 13578 085d 91       		.byte	0x91
 13579 085e 807D     		.sleb128 -384
 13580 0860 15       		.uleb128 0x15
 13581 0861 A2010000 		.4byte	0x1a2
 13582 0865 03       		.uleb128 0x3
 13583 0866 91       		.byte	0x91
 13584 0867 847D     		.sleb128 -380
 13585 0869 16       		.uleb128 0x16
 13586 086a 92160000 		.4byte	.LBB153
 13587 086e D6000000 		.4byte	.LBE153-.LBB153
 13588 0872 17       		.uleb128 0x17
 13589 0873 B6010000 		.4byte	0x1b6
 13590 0877 03       		.uleb128 0x3
 13591 0878 91       		.byte	0x91
 13592 0879 FC7C     		.sleb128 -388
 13593 087b 17       		.uleb128 0x17
 13594 087c C2010000 		.4byte	0x1c2
 13595 0880 03       		.uleb128 0x3
 13596 0881 91       		.byte	0x91
 13597 0882 F47C     		.sleb128 -396
 13598 0884 17       		.uleb128 0x17
 13599 0885 CE010000 		.4byte	0x1ce
 13600 0889 03       		.uleb128 0x3
 13601 088a 91       		.byte	0x91
 13602 088b F87C     		.sleb128 -392
 13603 088d 00       		.byte	0
 13604 088e 00       		.byte	0
 13605 088f 14       		.uleb128 0x14
 13606 0890 91010000 		.4byte	0x191
 13607 0894 94170000 		.4byte	.LBB154
 13608 0898 D6000000 		.4byte	.LBE154-.LBB154
 13609 089c 01       		.byte	0x1
 13610 089d 3803     		.2byte	0x338
 13611 089f DB080000 		.4byte	0x8db
 13612 08a3 15       		.uleb128 0x15
 13613 08a4 AC010000 		.4byte	0x1ac
 13614 08a8 03       		.uleb128 0x3
 13615 08a9 91       		.byte	0x91
 13616 08aa EC7C     		.sleb128 -404
 13617 08ac 15       		.uleb128 0x15
 13618 08ad A2010000 		.4byte	0x1a2
 13619 08b1 03       		.uleb128 0x3
 13620 08b2 91       		.byte	0x91
 13621 08b3 F07C     		.sleb128 -400
 13622 08b5 16       		.uleb128 0x16
 13623 08b6 94170000 		.4byte	.LBB155
 13624 08ba D6000000 		.4byte	.LBE155-.LBB155
 13625 08be 17       		.uleb128 0x17
 13626 08bf B6010000 		.4byte	0x1b6
 13627 08c3 03       		.uleb128 0x3
ARM GAS  C:\Users\fneves\AppData\Local\Temp\cc0ayw4Y.s 			page 299


 13628 08c4 91       		.byte	0x91
 13629 08c5 E87C     		.sleb128 -408
 13630 08c7 17       		.uleb128 0x17
 13631 08c8 C2010000 		.4byte	0x1c2
 13632 08cc 03       		.uleb128 0x3
 13633 08cd 91       		.byte	0x91
 13634 08ce E07C     		.sleb128 -416
 13635 08d0 17       		.uleb128 0x17
 13636 08d1 CE010000 		.4byte	0x1ce
 13637 08d5 03       		.uleb128 0x3
 13638 08d6 91       		.byte	0x91
 13639 08d7 E47C     		.sleb128 -412
 13640 08d9 00       		.byte	0
 13641 08da 00       		.byte	0
 13642 08db 14       		.uleb128 0x14
 13643 08dc 91010000 		.4byte	0x191
 13644 08e0 98180000 		.4byte	.LBB156
 13645 08e4 DE000000 		.4byte	.LBE156-.LBB156
 13646 08e8 01       		.byte	0x1
 13647 08e9 3903     		.2byte	0x339
 13648 08eb 27090000 		.4byte	0x927
 13649 08ef 15       		.uleb128 0x15
 13650 08f0 AC010000 		.4byte	0x1ac
 13651 08f4 03       		.uleb128 0x3
 13652 08f5 91       		.byte	0x91
 13653 08f6 D87C     		.sleb128 -424
 13654 08f8 15       		.uleb128 0x15
 13655 08f9 A2010000 		.4byte	0x1a2
 13656 08fd 03       		.uleb128 0x3
 13657 08fe 91       		.byte	0x91
 13658 08ff DC7C     		.sleb128 -420
 13659 0901 16       		.uleb128 0x16
 13660 0902 98180000 		.4byte	.LBB157
 13661 0906 DE000000 		.4byte	.LBE157-.LBB157
 13662 090a 17       		.uleb128 0x17
 13663 090b B6010000 		.4byte	0x1b6
 13664 090f 03       		.uleb128 0x3
 13665 0910 91       		.byte	0x91
 13666 0911 D47C     		.sleb128 -428
 13667 0913 17       		.uleb128 0x17
 13668 0914 C2010000 		.4byte	0x1c2
 13669 0918 03       		.uleb128 0x3
 13670 0919 91       		.byte	0x91
 13671 091a CC7C     		.sleb128 -436
 13672 091c 17       		.uleb128 0x17
 13673 091d CE010000 		.4byte	0x1ce
 13674 0921 03       		.uleb128 0x3
 13675 0922 91       		.byte	0x91
 13676 0923 D07C     		.sleb128 -432
 13677 0925 00       		.byte	0
 13678 0926 00       		.byte	0
 13679 0927 14       		.uleb128 0x14
 13680 0928 91010000 		.4byte	0x191
 13681 092c FE190000 		.4byte	.LBB158
 13682 0930 AA000000 		.4byte	.LBE158-.LBB158
 13683 0934 01       		.byte	0x1
 13684 0935 4603     		.2byte	0x346
ARM GAS  C:\Users\fneves\AppData\Local\Temp\cc0ayw4Y.s 			page 300


 13685 0937 73090000 		.4byte	0x973
 13686 093b 15       		.uleb128 0x15
 13687 093c AC010000 		.4byte	0x1ac
 13688 0940 03       		.uleb128 0x3
 13689 0941 91       		.byte	0x91
 13690 0942 C47C     		.sleb128 -444
 13691 0944 15       		.uleb128 0x15
 13692 0945 A2010000 		.4byte	0x1a2
 13693 0949 03       		.uleb128 0x3
 13694 094a 91       		.byte	0x91
 13695 094b C87C     		.sleb128 -440
 13696 094d 16       		.uleb128 0x16
 13697 094e FE190000 		.4byte	.LBB159
 13698 0952 AA000000 		.4byte	.LBE159-.LBB159
 13699 0956 17       		.uleb128 0x17
 13700 0957 B6010000 		.4byte	0x1b6
 13701 095b 03       		.uleb128 0x3
 13702 095c 91       		.byte	0x91
 13703 095d C07C     		.sleb128 -448
 13704 095f 17       		.uleb128 0x17
 13705 0960 C2010000 		.4byte	0x1c2
 13706 0964 03       		.uleb128 0x3
 13707 0965 91       		.byte	0x91
 13708 0966 B87C     		.sleb128 -456
 13709 0968 17       		.uleb128 0x17
 13710 0969 CE010000 		.4byte	0x1ce
 13711 096d 03       		.uleb128 0x3
 13712 096e 91       		.byte	0x91
 13713 096f BC7C     		.sleb128 -452
 13714 0971 00       		.byte	0
 13715 0972 00       		.byte	0
 13716 0973 14       		.uleb128 0x14
 13717 0974 91010000 		.4byte	0x191
 13718 0978 D21A0000 		.4byte	.LBB160
 13719 097c B2000000 		.4byte	.LBE160-.LBB160
 13720 0980 01       		.byte	0x1
 13721 0981 4703     		.2byte	0x347
 13722 0983 BF090000 		.4byte	0x9bf
 13723 0987 15       		.uleb128 0x15
 13724 0988 AC010000 		.4byte	0x1ac
 13725 098c 03       		.uleb128 0x3
 13726 098d 91       		.byte	0x91
 13727 098e B07C     		.sleb128 -464
 13728 0990 15       		.uleb128 0x15
 13729 0991 A2010000 		.4byte	0x1a2
 13730 0995 03       		.uleb128 0x3
 13731 0996 91       		.byte	0x91
 13732 0997 B47C     		.sleb128 -460
 13733 0999 16       		.uleb128 0x16
 13734 099a D21A0000 		.4byte	.LBB161
 13735 099e B2000000 		.4byte	.LBE161-.LBB161
 13736 09a2 17       		.uleb128 0x17
 13737 09a3 B6010000 		.4byte	0x1b6
 13738 09a7 03       		.uleb128 0x3
 13739 09a8 91       		.byte	0x91
 13740 09a9 AC7C     		.sleb128 -468
 13741 09ab 17       		.uleb128 0x17
ARM GAS  C:\Users\fneves\AppData\Local\Temp\cc0ayw4Y.s 			page 301


 13742 09ac C2010000 		.4byte	0x1c2
 13743 09b0 03       		.uleb128 0x3
 13744 09b1 91       		.byte	0x91
 13745 09b2 A47C     		.sleb128 -476
 13746 09b4 17       		.uleb128 0x17
 13747 09b5 CE010000 		.4byte	0x1ce
 13748 09b9 03       		.uleb128 0x3
 13749 09ba 91       		.byte	0x91
 13750 09bb A87C     		.sleb128 -472
 13751 09bd 00       		.byte	0
 13752 09be 00       		.byte	0
 13753 09bf 14       		.uleb128 0x14
 13754 09c0 91010000 		.4byte	0x191
 13755 09c4 781D0000 		.4byte	.LBB162
 13756 09c8 AA000000 		.4byte	.LBE162-.LBB162
 13757 09cc 01       		.byte	0x1
 13758 09cd 6F03     		.2byte	0x36f
 13759 09cf 0B0A0000 		.4byte	0xa0b
 13760 09d3 15       		.uleb128 0x15
 13761 09d4 AC010000 		.4byte	0x1ac
 13762 09d8 03       		.uleb128 0x3
 13763 09d9 91       		.byte	0x91
 13764 09da 9C7C     		.sleb128 -484
 13765 09dc 15       		.uleb128 0x15
 13766 09dd A2010000 		.4byte	0x1a2
 13767 09e1 03       		.uleb128 0x3
 13768 09e2 91       		.byte	0x91
 13769 09e3 A07C     		.sleb128 -480
 13770 09e5 16       		.uleb128 0x16
 13771 09e6 781D0000 		.4byte	.LBB163
 13772 09ea AA000000 		.4byte	.LBE163-.LBB163
 13773 09ee 17       		.uleb128 0x17
 13774 09ef B6010000 		.4byte	0x1b6
 13775 09f3 03       		.uleb128 0x3
 13776 09f4 91       		.byte	0x91
 13777 09f5 987C     		.sleb128 -488
 13778 09f7 17       		.uleb128 0x17
 13779 09f8 C2010000 		.4byte	0x1c2
 13780 09fc 03       		.uleb128 0x3
 13781 09fd 91       		.byte	0x91
 13782 09fe 907C     		.sleb128 -496
 13783 0a00 17       		.uleb128 0x17
 13784 0a01 CE010000 		.4byte	0x1ce
 13785 0a05 03       		.uleb128 0x3
 13786 0a06 91       		.byte	0x91
 13787 0a07 947C     		.sleb128 -492
 13788 0a09 00       		.byte	0
 13789 0a0a 00       		.byte	0
 13790 0a0b 14       		.uleb128 0x14
 13791 0a0c 91010000 		.4byte	0x191
 13792 0a10 4C1E0000 		.4byte	.LBB164
 13793 0a14 C0000000 		.4byte	.LBE164-.LBB164
 13794 0a18 01       		.byte	0x1
 13795 0a19 7003     		.2byte	0x370
 13796 0a1b 570A0000 		.4byte	0xa57
 13797 0a1f 15       		.uleb128 0x15
 13798 0a20 AC010000 		.4byte	0x1ac
ARM GAS  C:\Users\fneves\AppData\Local\Temp\cc0ayw4Y.s 			page 302


 13799 0a24 03       		.uleb128 0x3
 13800 0a25 91       		.byte	0x91
 13801 0a26 887C     		.sleb128 -504
 13802 0a28 15       		.uleb128 0x15
 13803 0a29 A2010000 		.4byte	0x1a2
 13804 0a2d 03       		.uleb128 0x3
 13805 0a2e 91       		.byte	0x91
 13806 0a2f 8C7C     		.sleb128 -500
 13807 0a31 16       		.uleb128 0x16
 13808 0a32 4C1E0000 		.4byte	.LBB165
 13809 0a36 C0000000 		.4byte	.LBE165-.LBB165
 13810 0a3a 17       		.uleb128 0x17
 13811 0a3b B6010000 		.4byte	0x1b6
 13812 0a3f 03       		.uleb128 0x3
 13813 0a40 91       		.byte	0x91
 13814 0a41 847C     		.sleb128 -508
 13815 0a43 17       		.uleb128 0x17
 13816 0a44 C2010000 		.4byte	0x1c2
 13817 0a48 03       		.uleb128 0x3
 13818 0a49 91       		.byte	0x91
 13819 0a4a FC7B     		.sleb128 -516
 13820 0a4c 17       		.uleb128 0x17
 13821 0a4d CE010000 		.4byte	0x1ce
 13822 0a51 03       		.uleb128 0x3
 13823 0a52 91       		.byte	0x91
 13824 0a53 807C     		.sleb128 -512
 13825 0a55 00       		.byte	0
 13826 0a56 00       		.byte	0
 13827 0a57 14       		.uleb128 0x14
 13828 0a58 91010000 		.4byte	0x191
 13829 0a5c 66220000 		.4byte	.LBB166
 13830 0a60 C2000000 		.4byte	.LBE166-.LBB166
 13831 0a64 01       		.byte	0x1
 13832 0a65 B203     		.2byte	0x3b2
 13833 0a67 A30A0000 		.4byte	0xaa3
 13834 0a6b 15       		.uleb128 0x15
 13835 0a6c AC010000 		.4byte	0x1ac
 13836 0a70 03       		.uleb128 0x3
 13837 0a71 91       		.byte	0x91
 13838 0a72 F47B     		.sleb128 -524
 13839 0a74 15       		.uleb128 0x15
 13840 0a75 A2010000 		.4byte	0x1a2
 13841 0a79 03       		.uleb128 0x3
 13842 0a7a 91       		.byte	0x91
 13843 0a7b F87B     		.sleb128 -520
 13844 0a7d 16       		.uleb128 0x16
 13845 0a7e 66220000 		.4byte	.LBB167
 13846 0a82 C2000000 		.4byte	.LBE167-.LBB167
 13847 0a86 17       		.uleb128 0x17
 13848 0a87 B6010000 		.4byte	0x1b6
 13849 0a8b 03       		.uleb128 0x3
 13850 0a8c 91       		.byte	0x91
 13851 0a8d F07B     		.sleb128 -528
 13852 0a8f 17       		.uleb128 0x17
 13853 0a90 C2010000 		.4byte	0x1c2
 13854 0a94 03       		.uleb128 0x3
 13855 0a95 91       		.byte	0x91
ARM GAS  C:\Users\fneves\AppData\Local\Temp\cc0ayw4Y.s 			page 303


 13856 0a96 E87B     		.sleb128 -536
 13857 0a98 17       		.uleb128 0x17
 13858 0a99 CE010000 		.4byte	0x1ce
 13859 0a9d 03       		.uleb128 0x3
 13860 0a9e 91       		.byte	0x91
 13861 0a9f EC7B     		.sleb128 -532
 13862 0aa1 00       		.byte	0
 13863 0aa2 00       		.byte	0
 13864 0aa3 14       		.uleb128 0x14
 13865 0aa4 91010000 		.4byte	0x191
 13866 0aa8 52230000 		.4byte	.LBB168
 13867 0aac AA000000 		.4byte	.LBE168-.LBB168
 13868 0ab0 01       		.byte	0x1
 13869 0ab1 B303     		.2byte	0x3b3
 13870 0ab3 EF0A0000 		.4byte	0xaef
 13871 0ab7 15       		.uleb128 0x15
 13872 0ab8 AC010000 		.4byte	0x1ac
 13873 0abc 03       		.uleb128 0x3
 13874 0abd 91       		.byte	0x91
 13875 0abe E07B     		.sleb128 -544
 13876 0ac0 15       		.uleb128 0x15
 13877 0ac1 A2010000 		.4byte	0x1a2
 13878 0ac5 03       		.uleb128 0x3
 13879 0ac6 91       		.byte	0x91
 13880 0ac7 E47B     		.sleb128 -540
 13881 0ac9 16       		.uleb128 0x16
 13882 0aca 52230000 		.4byte	.LBB169
 13883 0ace AA000000 		.4byte	.LBE169-.LBB169
 13884 0ad2 17       		.uleb128 0x17
 13885 0ad3 B6010000 		.4byte	0x1b6
 13886 0ad7 03       		.uleb128 0x3
 13887 0ad8 91       		.byte	0x91
 13888 0ad9 DC7B     		.sleb128 -548
 13889 0adb 17       		.uleb128 0x17
 13890 0adc C2010000 		.4byte	0x1c2
 13891 0ae0 03       		.uleb128 0x3
 13892 0ae1 91       		.byte	0x91
 13893 0ae2 D47B     		.sleb128 -556
 13894 0ae4 17       		.uleb128 0x17
 13895 0ae5 CE010000 		.4byte	0x1ce
 13896 0ae9 03       		.uleb128 0x3
 13897 0aea 91       		.byte	0x91
 13898 0aeb D87B     		.sleb128 -552
 13899 0aed 00       		.byte	0
 13900 0aee 00       		.byte	0
 13901 0aef 14       		.uleb128 0x14
 13902 0af0 91010000 		.4byte	0x191
 13903 0af4 24240000 		.4byte	.LBB170
 13904 0af8 8E000000 		.4byte	.LBE170-.LBB170
 13905 0afc 01       		.byte	0x1
 13906 0afd B603     		.2byte	0x3b6
 13907 0aff 3B0B0000 		.4byte	0xb3b
 13908 0b03 15       		.uleb128 0x15
 13909 0b04 AC010000 		.4byte	0x1ac
 13910 0b08 03       		.uleb128 0x3
 13911 0b09 91       		.byte	0x91
 13912 0b0a CC7B     		.sleb128 -564
ARM GAS  C:\Users\fneves\AppData\Local\Temp\cc0ayw4Y.s 			page 304


 13913 0b0c 15       		.uleb128 0x15
 13914 0b0d A2010000 		.4byte	0x1a2
 13915 0b11 03       		.uleb128 0x3
 13916 0b12 91       		.byte	0x91
 13917 0b13 D07B     		.sleb128 -560
 13918 0b15 16       		.uleb128 0x16
 13919 0b16 24240000 		.4byte	.LBB171
 13920 0b1a 8E000000 		.4byte	.LBE171-.LBB171
 13921 0b1e 17       		.uleb128 0x17
 13922 0b1f B6010000 		.4byte	0x1b6
 13923 0b23 03       		.uleb128 0x3
 13924 0b24 91       		.byte	0x91
 13925 0b25 C87B     		.sleb128 -568
 13926 0b27 17       		.uleb128 0x17
 13927 0b28 C2010000 		.4byte	0x1c2
 13928 0b2c 03       		.uleb128 0x3
 13929 0b2d 91       		.byte	0x91
 13930 0b2e C07B     		.sleb128 -576
 13931 0b30 17       		.uleb128 0x17
 13932 0b31 CE010000 		.4byte	0x1ce
 13933 0b35 03       		.uleb128 0x3
 13934 0b36 91       		.byte	0x91
 13935 0b37 C47B     		.sleb128 -572
 13936 0b39 00       		.byte	0
 13937 0b3a 00       		.byte	0
 13938 0b3b 14       		.uleb128 0x14
 13939 0b3c 91010000 		.4byte	0x191
 13940 0b40 D4240000 		.4byte	.LBB172
 13941 0b44 52000000 		.4byte	.LBE172-.LBB172
 13942 0b48 01       		.byte	0x1
 13943 0b49 B703     		.2byte	0x3b7
 13944 0b4b 870B0000 		.4byte	0xb87
 13945 0b4f 15       		.uleb128 0x15
 13946 0b50 AC010000 		.4byte	0x1ac
 13947 0b54 03       		.uleb128 0x3
 13948 0b55 91       		.byte	0x91
 13949 0b56 B87B     		.sleb128 -584
 13950 0b58 15       		.uleb128 0x15
 13951 0b59 A2010000 		.4byte	0x1a2
 13952 0b5d 03       		.uleb128 0x3
 13953 0b5e 91       		.byte	0x91
 13954 0b5f BC7B     		.sleb128 -580
 13955 0b61 16       		.uleb128 0x16
 13956 0b62 D4240000 		.4byte	.LBB173
 13957 0b66 52000000 		.4byte	.LBE173-.LBB173
 13958 0b6a 17       		.uleb128 0x17
 13959 0b6b B6010000 		.4byte	0x1b6
 13960 0b6f 03       		.uleb128 0x3
 13961 0b70 91       		.byte	0x91
 13962 0b71 B47B     		.sleb128 -588
 13963 0b73 17       		.uleb128 0x17
 13964 0b74 C2010000 		.4byte	0x1c2
 13965 0b78 03       		.uleb128 0x3
 13966 0b79 91       		.byte	0x91
 13967 0b7a AC7B     		.sleb128 -596
 13968 0b7c 17       		.uleb128 0x17
 13969 0b7d CE010000 		.4byte	0x1ce
ARM GAS  C:\Users\fneves\AppData\Local\Temp\cc0ayw4Y.s 			page 305


 13970 0b81 03       		.uleb128 0x3
 13971 0b82 91       		.byte	0x91
 13972 0b83 B07B     		.sleb128 -592
 13973 0b85 00       		.byte	0
 13974 0b86 00       		.byte	0
 13975 0b87 14       		.uleb128 0x14
 13976 0b88 91010000 		.4byte	0x191
 13977 0b8c A6250000 		.4byte	.LBB174
 13978 0b90 52000000 		.4byte	.LBE174-.LBB174
 13979 0b94 01       		.byte	0x1
 13980 0b95 C203     		.2byte	0x3c2
 13981 0b97 D30B0000 		.4byte	0xbd3
 13982 0b9b 15       		.uleb128 0x15
 13983 0b9c AC010000 		.4byte	0x1ac
 13984 0ba0 03       		.uleb128 0x3
 13985 0ba1 91       		.byte	0x91
 13986 0ba2 A47B     		.sleb128 -604
 13987 0ba4 15       		.uleb128 0x15
 13988 0ba5 A2010000 		.4byte	0x1a2
 13989 0ba9 03       		.uleb128 0x3
 13990 0baa 91       		.byte	0x91
 13991 0bab A87B     		.sleb128 -600
 13992 0bad 16       		.uleb128 0x16
 13993 0bae A6250000 		.4byte	.LBB175
 13994 0bb2 52000000 		.4byte	.LBE175-.LBB175
 13995 0bb6 17       		.uleb128 0x17
 13996 0bb7 B6010000 		.4byte	0x1b6
 13997 0bbb 03       		.uleb128 0x3
 13998 0bbc 91       		.byte	0x91
 13999 0bbd A07B     		.sleb128 -608
 14000 0bbf 17       		.uleb128 0x17
 14001 0bc0 C2010000 		.4byte	0x1c2
 14002 0bc4 03       		.uleb128 0x3
 14003 0bc5 91       		.byte	0x91
 14004 0bc6 987B     		.sleb128 -616
 14005 0bc8 17       		.uleb128 0x17
 14006 0bc9 CE010000 		.4byte	0x1ce
 14007 0bcd 03       		.uleb128 0x3
 14008 0bce 91       		.byte	0x91
 14009 0bcf 9C7B     		.sleb128 -612
 14010 0bd1 00       		.byte	0
 14011 0bd2 00       		.byte	0
 14012 0bd3 14       		.uleb128 0x14
 14013 0bd4 91010000 		.4byte	0x191
 14014 0bd8 1A260000 		.4byte	.LBB176
 14015 0bdc 62000000 		.4byte	.LBE176-.LBB176
 14016 0be0 01       		.byte	0x1
 14017 0be1 C303     		.2byte	0x3c3
 14018 0be3 1F0C0000 		.4byte	0xc1f
 14019 0be7 15       		.uleb128 0x15
 14020 0be8 AC010000 		.4byte	0x1ac
 14021 0bec 03       		.uleb128 0x3
 14022 0bed 91       		.byte	0x91
 14023 0bee 907B     		.sleb128 -624
 14024 0bf0 15       		.uleb128 0x15
 14025 0bf1 A2010000 		.4byte	0x1a2
 14026 0bf5 03       		.uleb128 0x3
ARM GAS  C:\Users\fneves\AppData\Local\Temp\cc0ayw4Y.s 			page 306


 14027 0bf6 91       		.byte	0x91
 14028 0bf7 947B     		.sleb128 -620
 14029 0bf9 16       		.uleb128 0x16
 14030 0bfa 1A260000 		.4byte	.LBB177
 14031 0bfe 62000000 		.4byte	.LBE177-.LBB177
 14032 0c02 17       		.uleb128 0x17
 14033 0c03 B6010000 		.4byte	0x1b6
 14034 0c07 03       		.uleb128 0x3
 14035 0c08 91       		.byte	0x91
 14036 0c09 8C7B     		.sleb128 -628
 14037 0c0b 17       		.uleb128 0x17
 14038 0c0c C2010000 		.4byte	0x1c2
 14039 0c10 03       		.uleb128 0x3
 14040 0c11 91       		.byte	0x91
 14041 0c12 847B     		.sleb128 -636
 14042 0c14 17       		.uleb128 0x17
 14043 0c15 CE010000 		.4byte	0x1ce
 14044 0c19 03       		.uleb128 0x3
 14045 0c1a 91       		.byte	0x91
 14046 0c1b 887B     		.sleb128 -632
 14047 0c1d 00       		.byte	0
 14048 0c1e 00       		.byte	0
 14049 0c1f 14       		.uleb128 0x14
 14050 0c20 91010000 		.4byte	0x191
 14051 0c24 E8270000 		.4byte	.LBB178
 14052 0c28 52000000 		.4byte	.LBE178-.LBB178
 14053 0c2c 01       		.byte	0x1
 14054 0c2d DC03     		.2byte	0x3dc
 14055 0c2f 6B0C0000 		.4byte	0xc6b
 14056 0c33 15       		.uleb128 0x15
 14057 0c34 AC010000 		.4byte	0x1ac
 14058 0c38 03       		.uleb128 0x3
 14059 0c39 91       		.byte	0x91
 14060 0c3a FC7A     		.sleb128 -644
 14061 0c3c 15       		.uleb128 0x15
 14062 0c3d A2010000 		.4byte	0x1a2
 14063 0c41 03       		.uleb128 0x3
 14064 0c42 91       		.byte	0x91
 14065 0c43 807B     		.sleb128 -640
 14066 0c45 16       		.uleb128 0x16
 14067 0c46 E8270000 		.4byte	.LBB179
 14068 0c4a 52000000 		.4byte	.LBE179-.LBB179
 14069 0c4e 17       		.uleb128 0x17
 14070 0c4f B6010000 		.4byte	0x1b6
 14071 0c53 03       		.uleb128 0x3
 14072 0c54 91       		.byte	0x91
 14073 0c55 F87A     		.sleb128 -648
 14074 0c57 17       		.uleb128 0x17
 14075 0c58 C2010000 		.4byte	0x1c2
 14076 0c5c 03       		.uleb128 0x3
 14077 0c5d 91       		.byte	0x91
 14078 0c5e F07A     		.sleb128 -656
 14079 0c60 17       		.uleb128 0x17
 14080 0c61 CE010000 		.4byte	0x1ce
 14081 0c65 03       		.uleb128 0x3
 14082 0c66 91       		.byte	0x91
 14083 0c67 F47A     		.sleb128 -652
ARM GAS  C:\Users\fneves\AppData\Local\Temp\cc0ayw4Y.s 			page 307


 14084 0c69 00       		.byte	0
 14085 0c6a 00       		.byte	0
 14086 0c6b 18       		.uleb128 0x18
 14087 0c6c 91010000 		.4byte	0x191
 14088 0c70 5C280000 		.4byte	.LBB180
 14089 0c74 52000000 		.4byte	.LBE180-.LBB180
 14090 0c78 01       		.byte	0x1
 14091 0c79 DD03     		.2byte	0x3dd
 14092 0c7b 15       		.uleb128 0x15
 14093 0c7c AC010000 		.4byte	0x1ac
 14094 0c80 03       		.uleb128 0x3
 14095 0c81 91       		.byte	0x91
 14096 0c82 E87A     		.sleb128 -664
 14097 0c84 15       		.uleb128 0x15
 14098 0c85 A2010000 		.4byte	0x1a2
 14099 0c89 03       		.uleb128 0x3
 14100 0c8a 91       		.byte	0x91
 14101 0c8b EC7A     		.sleb128 -660
 14102 0c8d 16       		.uleb128 0x16
 14103 0c8e 5C280000 		.4byte	.LBB181
 14104 0c92 52000000 		.4byte	.LBE181-.LBB181
 14105 0c96 17       		.uleb128 0x17
 14106 0c97 B6010000 		.4byte	0x1b6
 14107 0c9b 03       		.uleb128 0x3
 14108 0c9c 91       		.byte	0x91
 14109 0c9d E47A     		.sleb128 -668
 14110 0c9f 17       		.uleb128 0x17
 14111 0ca0 C2010000 		.4byte	0x1c2
 14112 0ca4 03       		.uleb128 0x3
 14113 0ca5 91       		.byte	0x91
 14114 0ca6 DC7A     		.sleb128 -676
 14115 0ca8 17       		.uleb128 0x17
 14116 0ca9 CE010000 		.4byte	0x1ce
 14117 0cad 03       		.uleb128 0x3
 14118 0cae 91       		.byte	0x91
 14119 0caf E07A     		.sleb128 -672
 14120 0cb1 00       		.byte	0
 14121 0cb2 00       		.byte	0
 14122 0cb3 00       		.byte	0
 14123 0cb4 19       		.uleb128 0x19
 14124 0cb5 7D000000 		.4byte	.LASF47
 14125 0cb9 01       		.byte	0x1
 14126 0cba 2A04     		.2byte	0x42a
 14127 0cbc 00000000 		.4byte	.LFB84
 14128 0cc0 B8290000 		.4byte	.LFE84-.LFB84
 14129 0cc4 01       		.uleb128 0x1
 14130 0cc5 9C       		.byte	0x9c
 14131 0cc6 1A       		.uleb128 0x1a
 14132 0cc7 D8010000 		.4byte	.LASF39
 14133 0ccb 01       		.byte	0x1
 14134 0ccc 2B04     		.2byte	0x42b
 14135 0cce 14010000 		.4byte	0x114
 14136 0cd2 03       		.uleb128 0x3
 14137 0cd3 91       		.byte	0x91
 14138 0cd4 D47A     		.sleb128 -684
 14139 0cd6 1A       		.uleb128 0x1a
 14140 0cd7 B3000000 		.4byte	.LASF26
ARM GAS  C:\Users\fneves\AppData\Local\Temp\cc0ayw4Y.s 			page 308


 14141 0cdb 01       		.byte	0x1
 14142 0cdc 2C04     		.2byte	0x42c
 14143 0cde CE000000 		.4byte	0xce
 14144 0ce2 03       		.uleb128 0x3
 14145 0ce3 91       		.byte	0x91
 14146 0ce4 D07A     		.sleb128 -688
 14147 0ce6 1A       		.uleb128 0x1a
 14148 0ce7 75020000 		.4byte	.LASF40
 14149 0ceb 01       		.byte	0x1
 14150 0cec 2D04     		.2byte	0x42d
 14151 0cee 14010000 		.4byte	0x114
 14152 0cf2 03       		.uleb128 0x3
 14153 0cf3 91       		.byte	0x91
 14154 0cf4 CC7A     		.sleb128 -692
 14155 0cf6 1A       		.uleb128 0x1a
 14156 0cf7 DB020000 		.4byte	.LASF31
 14157 0cfb 01       		.byte	0x1
 14158 0cfc 2E04     		.2byte	0x42e
 14159 0cfe CE000000 		.4byte	0xce
 14160 0d02 03       		.uleb128 0x3
 14161 0d03 91       		.byte	0x91
 14162 0d04 C87A     		.sleb128 -696
 14163 0d06 12       		.uleb128 0x12
 14164 0d07 523000   		.ascii	"R0\000"
 14165 0d0a 01       		.byte	0x1
 14166 0d0b FB05     		.2byte	0x5fb
 14167 0d0d FC000000 		.4byte	0xfc
 14168 0d11 02       		.uleb128 0x2
 14169 0d12 91       		.byte	0x91
 14170 0d13 4A       		.sleb128 -54
 14171 0d14 12       		.uleb128 0x12
 14172 0d15 523100   		.ascii	"R1\000"
 14173 0d18 01       		.byte	0x1
 14174 0d19 FB05     		.2byte	0x5fb
 14175 0d1b FC000000 		.4byte	0xfc
 14176 0d1f 02       		.uleb128 0x2
 14177 0d20 91       		.byte	0x91
 14178 0d21 48       		.sleb128 -56
 14179 0d22 12       		.uleb128 0x12
 14180 0d23 533000   		.ascii	"S0\000"
 14181 0d26 01       		.byte	0x1
 14182 0d27 FB05     		.2byte	0x5fb
 14183 0d29 FC000000 		.4byte	0xfc
 14184 0d2d 02       		.uleb128 0x2
 14185 0d2e 91       		.byte	0x91
 14186 0d2f 4E       		.sleb128 -50
 14187 0d30 12       		.uleb128 0x12
 14188 0d31 533100   		.ascii	"S1\000"
 14189 0d34 01       		.byte	0x1
 14190 0d35 FB05     		.2byte	0x5fb
 14191 0d37 FC000000 		.4byte	0xfc
 14192 0d3b 02       		.uleb128 0x2
 14193 0d3c 91       		.byte	0x91
 14194 0d3d 4C       		.sleb128 -52
 14195 0d3e 12       		.uleb128 0x12
 14196 0d3f 543000   		.ascii	"T0\000"
 14197 0d42 01       		.byte	0x1
ARM GAS  C:\Users\fneves\AppData\Local\Temp\cc0ayw4Y.s 			page 309


 14198 0d43 FB05     		.2byte	0x5fb
 14199 0d45 FC000000 		.4byte	0xfc
 14200 0d49 02       		.uleb128 0x2
 14201 0d4a 91       		.byte	0x91
 14202 0d4b 52       		.sleb128 -46
 14203 0d4c 12       		.uleb128 0x12
 14204 0d4d 543100   		.ascii	"T1\000"
 14205 0d50 01       		.byte	0x1
 14206 0d51 FB05     		.2byte	0x5fb
 14207 0d53 FC000000 		.4byte	0xfc
 14208 0d57 02       		.uleb128 0x2
 14209 0d58 91       		.byte	0x91
 14210 0d59 50       		.sleb128 -48
 14211 0d5a 12       		.uleb128 0x12
 14212 0d5b 553000   		.ascii	"U0\000"
 14213 0d5e 01       		.byte	0x1
 14214 0d5f FB05     		.2byte	0x5fb
 14215 0d61 FC000000 		.4byte	0xfc
 14216 0d65 02       		.uleb128 0x2
 14217 0d66 91       		.byte	0x91
 14218 0d67 46       		.sleb128 -58
 14219 0d68 12       		.uleb128 0x12
 14220 0d69 553100   		.ascii	"U1\000"
 14221 0d6c 01       		.byte	0x1
 14222 0d6d FB05     		.2byte	0x5fb
 14223 0d6f FC000000 		.4byte	0xfc
 14224 0d73 02       		.uleb128 0x2
 14225 0d74 91       		.byte	0x91
 14226 0d75 44       		.sleb128 -60
 14227 0d76 12       		.uleb128 0x12
 14228 0d77 436F3100 		.ascii	"Co1\000"
 14229 0d7b 01       		.byte	0x1
 14230 0d7c FC05     		.2byte	0x5fc
 14231 0d7e FC000000 		.4byte	0xfc
 14232 0d82 03       		.uleb128 0x3
 14233 0d83 91       		.byte	0x91
 14234 0d84 BA7F     		.sleb128 -70
 14235 0d86 12       		.uleb128 0x12
 14236 0d87 53693100 		.ascii	"Si1\000"
 14237 0d8b 01       		.byte	0x1
 14238 0d8c FC05     		.2byte	0x5fc
 14239 0d8e FC000000 		.4byte	0xfc
 14240 0d92 03       		.uleb128 0x3
 14241 0d93 91       		.byte	0x91
 14242 0d94 B87F     		.sleb128 -72
 14243 0d96 12       		.uleb128 0x12
 14244 0d97 436F3200 		.ascii	"Co2\000"
 14245 0d9b 01       		.byte	0x1
 14246 0d9c FC05     		.2byte	0x5fc
 14247 0d9e FC000000 		.4byte	0xfc
 14248 0da2 02       		.uleb128 0x2
 14249 0da3 91       		.byte	0x91
 14250 0da4 42       		.sleb128 -62
 14251 0da5 12       		.uleb128 0x12
 14252 0da6 53693200 		.ascii	"Si2\000"
 14253 0daa 01       		.byte	0x1
 14254 0dab FC05     		.2byte	0x5fc
ARM GAS  C:\Users\fneves\AppData\Local\Temp\cc0ayw4Y.s 			page 310


 14255 0dad FC000000 		.4byte	0xfc
 14256 0db1 02       		.uleb128 0x2
 14257 0db2 91       		.byte	0x91
 14258 0db3 40       		.sleb128 -64
 14259 0db4 12       		.uleb128 0x12
 14260 0db5 436F3300 		.ascii	"Co3\000"
 14261 0db9 01       		.byte	0x1
 14262 0dba FC05     		.2byte	0x5fc
 14263 0dbc FC000000 		.4byte	0xfc
 14264 0dc0 03       		.uleb128 0x3
 14265 0dc1 91       		.byte	0x91
 14266 0dc2 B67F     		.sleb128 -74
 14267 0dc4 12       		.uleb128 0x12
 14268 0dc5 53693300 		.ascii	"Si3\000"
 14269 0dc9 01       		.byte	0x1
 14270 0dca FC05     		.2byte	0x5fc
 14271 0dcc FC000000 		.4byte	0xfc
 14272 0dd0 03       		.uleb128 0x3
 14273 0dd1 91       		.byte	0x91
 14274 0dd2 B47F     		.sleb128 -76
 14275 0dd4 13       		.uleb128 0x13
 14276 0dd5 A4010000 		.4byte	.LASF41
 14277 0dd9 01       		.byte	0x1
 14278 0dda FC05     		.2byte	0x5fc
 14279 0ddc FC000000 		.4byte	0xfc
 14280 0de0 03       		.uleb128 0x3
 14281 0de1 91       		.byte	0x91
 14282 0de2 BE7F     		.sleb128 -66
 14283 0de4 13       		.uleb128 0x13
 14284 0de5 A9010000 		.4byte	.LASF42
 14285 0de9 01       		.byte	0x1
 14286 0dea FC05     		.2byte	0x5fc
 14287 0dec FC000000 		.4byte	0xfc
 14288 0df0 03       		.uleb128 0x3
 14289 0df1 91       		.byte	0x91
 14290 0df2 BC7F     		.sleb128 -68
 14291 0df4 12       		.uleb128 0x12
 14292 0df5 6E3100   		.ascii	"n1\000"
 14293 0df8 01       		.byte	0x1
 14294 0df9 FD05     		.2byte	0x5fd
 14295 0dfb CE000000 		.4byte	0xce
 14296 0dff 02       		.uleb128 0x2
 14297 0e00 91       		.byte	0x91
 14298 0e01 60       		.sleb128 -32
 14299 0e02 12       		.uleb128 0x12
 14300 0e03 6E3200   		.ascii	"n2\000"
 14301 0e06 01       		.byte	0x1
 14302 0e07 FD05     		.2byte	0x5fd
 14303 0e09 CE000000 		.4byte	0xce
 14304 0e0d 02       		.uleb128 0x2
 14305 0e0e 91       		.byte	0x91
 14306 0e0f 74       		.sleb128 -12
 14307 0e10 12       		.uleb128 0x12
 14308 0e11 696300   		.ascii	"ic\000"
 14309 0e14 01       		.byte	0x1
 14310 0e15 FD05     		.2byte	0x5fd
 14311 0e17 CE000000 		.4byte	0xce
ARM GAS  C:\Users\fneves\AppData\Local\Temp\cc0ayw4Y.s 			page 311


 14312 0e1b 02       		.uleb128 0x2
 14313 0e1c 91       		.byte	0x91
 14314 0e1d 70       		.sleb128 -16
 14315 0e1e 12       		.uleb128 0x12
 14316 0e1f 693000   		.ascii	"i0\000"
 14317 0e22 01       		.byte	0x1
 14318 0e23 FD05     		.2byte	0x5fd
 14319 0e25 CE000000 		.4byte	0xce
 14320 0e29 02       		.uleb128 0x2
 14321 0e2a 91       		.byte	0x91
 14322 0e2b 6C       		.sleb128 -20
 14323 0e2c 12       		.uleb128 0x12
 14324 0e2d 693100   		.ascii	"i1\000"
 14325 0e30 01       		.byte	0x1
 14326 0e31 FD05     		.2byte	0x5fd
 14327 0e33 CE000000 		.4byte	0xce
 14328 0e37 02       		.uleb128 0x2
 14329 0e38 91       		.byte	0x91
 14330 0e39 5C       		.sleb128 -36
 14331 0e3a 12       		.uleb128 0x12
 14332 0e3b 693200   		.ascii	"i2\000"
 14333 0e3e 01       		.byte	0x1
 14334 0e3f FD05     		.2byte	0x5fd
 14335 0e41 CE000000 		.4byte	0xce
 14336 0e45 02       		.uleb128 0x2
 14337 0e46 91       		.byte	0x91
 14338 0e47 58       		.sleb128 -40
 14339 0e48 12       		.uleb128 0x12
 14340 0e49 693300   		.ascii	"i3\000"
 14341 0e4c 01       		.byte	0x1
 14342 0e4d FD05     		.2byte	0x5fd
 14343 0e4f CE000000 		.4byte	0xce
 14344 0e53 02       		.uleb128 0x2
 14345 0e54 91       		.byte	0x91
 14346 0e55 54       		.sleb128 -44
 14347 0e56 12       		.uleb128 0x12
 14348 0e57 6A00     		.ascii	"j\000"
 14349 0e59 01       		.byte	0x1
 14350 0e5a FD05     		.2byte	0x5fd
 14351 0e5c CE000000 		.4byte	0xce
 14352 0e60 02       		.uleb128 0x2
 14353 0e61 91       		.byte	0x91
 14354 0e62 68       		.sleb128 -24
 14355 0e63 12       		.uleb128 0x12
 14356 0e64 6B00     		.ascii	"k\000"
 14357 0e66 01       		.byte	0x1
 14358 0e67 FD05     		.2byte	0x5fd
 14359 0e69 CE000000 		.4byte	0xce
 14360 0e6d 02       		.uleb128 0x2
 14361 0e6e 91       		.byte	0x91
 14362 0e6f 64       		.sleb128 -28
 14363 0e70 14       		.uleb128 0x14
 14364 0e71 91010000 		.4byte	0x191
 14365 0e75 42010000 		.4byte	.LBB182
 14366 0e79 D6000000 		.4byte	.LBE182-.LBB182
 14367 0e7d 01       		.byte	0x1
 14368 0e7e 2A06     		.2byte	0x62a
ARM GAS  C:\Users\fneves\AppData\Local\Temp\cc0ayw4Y.s 			page 312


 14369 0e80 BC0E0000 		.4byte	0xebc
 14370 0e84 15       		.uleb128 0x15
 14371 0e85 AC010000 		.4byte	0x1ac
 14372 0e89 03       		.uleb128 0x3
 14373 0e8a 91       		.byte	0x91
 14374 0e8b AC7F     		.sleb128 -84
 14375 0e8d 15       		.uleb128 0x15
 14376 0e8e A2010000 		.4byte	0x1a2
 14377 0e92 03       		.uleb128 0x3
 14378 0e93 91       		.byte	0x91
 14379 0e94 B07F     		.sleb128 -80
 14380 0e96 16       		.uleb128 0x16
 14381 0e97 42010000 		.4byte	.LBB183
 14382 0e9b D6000000 		.4byte	.LBE183-.LBB183
 14383 0e9f 17       		.uleb128 0x17
 14384 0ea0 B6010000 		.4byte	0x1b6
 14385 0ea4 03       		.uleb128 0x3
 14386 0ea5 91       		.byte	0x91
 14387 0ea6 A87F     		.sleb128 -88
 14388 0ea8 17       		.uleb128 0x17
 14389 0ea9 C2010000 		.4byte	0x1c2
 14390 0ead 03       		.uleb128 0x3
 14391 0eae 91       		.byte	0x91
 14392 0eaf A07F     		.sleb128 -96
 14393 0eb1 17       		.uleb128 0x17
 14394 0eb2 CE010000 		.4byte	0x1ce
 14395 0eb6 03       		.uleb128 0x3
 14396 0eb7 91       		.byte	0x91
 14397 0eb8 A47F     		.sleb128 -92
 14398 0eba 00       		.byte	0
 14399 0ebb 00       		.byte	0
 14400 0ebc 14       		.uleb128 0x14
 14401 0ebd 91010000 		.4byte	0x191
 14402 0ec1 46020000 		.4byte	.LBB184
 14403 0ec5 D6000000 		.4byte	.LBE184-.LBB184
 14404 0ec9 01       		.byte	0x1
 14405 0eca 2B06     		.2byte	0x62b
 14406 0ecc 080F0000 		.4byte	0xf08
 14407 0ed0 15       		.uleb128 0x15
 14408 0ed1 AC010000 		.4byte	0x1ac
 14409 0ed5 03       		.uleb128 0x3
 14410 0ed6 91       		.byte	0x91
 14411 0ed7 987F     		.sleb128 -104
 14412 0ed9 15       		.uleb128 0x15
 14413 0eda A2010000 		.4byte	0x1a2
 14414 0ede 03       		.uleb128 0x3
 14415 0edf 91       		.byte	0x91
 14416 0ee0 9C7F     		.sleb128 -100
 14417 0ee2 16       		.uleb128 0x16
 14418 0ee3 46020000 		.4byte	.LBB185
 14419 0ee7 D6000000 		.4byte	.LBE185-.LBB185
 14420 0eeb 17       		.uleb128 0x17
 14421 0eec B6010000 		.4byte	0x1b6
 14422 0ef0 03       		.uleb128 0x3
 14423 0ef1 91       		.byte	0x91
 14424 0ef2 947F     		.sleb128 -108
 14425 0ef4 17       		.uleb128 0x17
ARM GAS  C:\Users\fneves\AppData\Local\Temp\cc0ayw4Y.s 			page 313


 14426 0ef5 C2010000 		.4byte	0x1c2
 14427 0ef9 03       		.uleb128 0x3
 14428 0efa 91       		.byte	0x91
 14429 0efb 8C7F     		.sleb128 -116
 14430 0efd 17       		.uleb128 0x17
 14431 0efe CE010000 		.4byte	0x1ce
 14432 0f02 03       		.uleb128 0x3
 14433 0f03 91       		.byte	0x91
 14434 0f04 907F     		.sleb128 -112
 14435 0f06 00       		.byte	0
 14436 0f07 00       		.byte	0
 14437 0f08 14       		.uleb128 0x14
 14438 0f09 91010000 		.4byte	0x191
 14439 0f0d 48030000 		.4byte	.LBB186
 14440 0f11 E8000000 		.4byte	.LBE186-.LBB186
 14441 0f15 01       		.byte	0x1
 14442 0f16 2D06     		.2byte	0x62d
 14443 0f18 540F0000 		.4byte	0xf54
 14444 0f1c 15       		.uleb128 0x15
 14445 0f1d AC010000 		.4byte	0x1ac
 14446 0f21 03       		.uleb128 0x3
 14447 0f22 91       		.byte	0x91
 14448 0f23 847F     		.sleb128 -124
 14449 0f25 15       		.uleb128 0x15
 14450 0f26 A2010000 		.4byte	0x1a2
 14451 0f2a 03       		.uleb128 0x3
 14452 0f2b 91       		.byte	0x91
 14453 0f2c 887F     		.sleb128 -120
 14454 0f2e 16       		.uleb128 0x16
 14455 0f2f 48030000 		.4byte	.LBB187
 14456 0f33 E8000000 		.4byte	.LBE187-.LBB187
 14457 0f37 17       		.uleb128 0x17
 14458 0f38 B6010000 		.4byte	0x1b6
 14459 0f3c 03       		.uleb128 0x3
 14460 0f3d 91       		.byte	0x91
 14461 0f3e 807F     		.sleb128 -128
 14462 0f40 17       		.uleb128 0x17
 14463 0f41 C2010000 		.4byte	0x1c2
 14464 0f45 03       		.uleb128 0x3
 14465 0f46 91       		.byte	0x91
 14466 0f47 F87E     		.sleb128 -136
 14467 0f49 17       		.uleb128 0x17
 14468 0f4a CE010000 		.4byte	0x1ce
 14469 0f4e 03       		.uleb128 0x3
 14470 0f4f 91       		.byte	0x91
 14471 0f50 FC7E     		.sleb128 -132
 14472 0f52 00       		.byte	0
 14473 0f53 00       		.byte	0
 14474 0f54 14       		.uleb128 0x14
 14475 0f55 91010000 		.4byte	0x191
 14476 0f59 5E040000 		.4byte	.LBB188
 14477 0f5d D6000000 		.4byte	.LBE188-.LBB188
 14478 0f61 01       		.byte	0x1
 14479 0f62 2E06     		.2byte	0x62e
 14480 0f64 A00F0000 		.4byte	0xfa0
 14481 0f68 15       		.uleb128 0x15
 14482 0f69 AC010000 		.4byte	0x1ac
ARM GAS  C:\Users\fneves\AppData\Local\Temp\cc0ayw4Y.s 			page 314


 14483 0f6d 03       		.uleb128 0x3
 14484 0f6e 91       		.byte	0x91
 14485 0f6f F07E     		.sleb128 -144
 14486 0f71 15       		.uleb128 0x15
 14487 0f72 A2010000 		.4byte	0x1a2
 14488 0f76 03       		.uleb128 0x3
 14489 0f77 91       		.byte	0x91
 14490 0f78 F47E     		.sleb128 -140
 14491 0f7a 16       		.uleb128 0x16
 14492 0f7b 5E040000 		.4byte	.LBB189
 14493 0f7f D6000000 		.4byte	.LBE189-.LBB189
 14494 0f83 17       		.uleb128 0x17
 14495 0f84 B6010000 		.4byte	0x1b6
 14496 0f88 03       		.uleb128 0x3
 14497 0f89 91       		.byte	0x91
 14498 0f8a EC7E     		.sleb128 -148
 14499 0f8c 17       		.uleb128 0x17
 14500 0f8d C2010000 		.4byte	0x1c2
 14501 0f91 03       		.uleb128 0x3
 14502 0f92 91       		.byte	0x91
 14503 0f93 E47E     		.sleb128 -156
 14504 0f95 17       		.uleb128 0x17
 14505 0f96 CE010000 		.4byte	0x1ce
 14506 0f9a 03       		.uleb128 0x3
 14507 0f9b 91       		.byte	0x91
 14508 0f9c E87E     		.sleb128 -152
 14509 0f9e 00       		.byte	0
 14510 0f9f 00       		.byte	0
 14511 0fa0 14       		.uleb128 0x14
 14512 0fa1 91010000 		.4byte	0x191
 14513 0fa5 D0050000 		.4byte	.LBB190
 14514 0fa9 D6000000 		.4byte	.LBE190-.LBB190
 14515 0fad 01       		.byte	0x1
 14516 0fae 3B06     		.2byte	0x63b
 14517 0fb0 EC0F0000 		.4byte	0xfec
 14518 0fb4 15       		.uleb128 0x15
 14519 0fb5 AC010000 		.4byte	0x1ac
 14520 0fb9 03       		.uleb128 0x3
 14521 0fba 91       		.byte	0x91
 14522 0fbb DC7E     		.sleb128 -164
 14523 0fbd 15       		.uleb128 0x15
 14524 0fbe A2010000 		.4byte	0x1a2
 14525 0fc2 03       		.uleb128 0x3
 14526 0fc3 91       		.byte	0x91
 14527 0fc4 E07E     		.sleb128 -160
 14528 0fc6 16       		.uleb128 0x16
 14529 0fc7 D0050000 		.4byte	.LBB191
 14530 0fcb D6000000 		.4byte	.LBE191-.LBB191
 14531 0fcf 17       		.uleb128 0x17
 14532 0fd0 B6010000 		.4byte	0x1b6
 14533 0fd4 03       		.uleb128 0x3
 14534 0fd5 91       		.byte	0x91
 14535 0fd6 D87E     		.sleb128 -168
 14536 0fd8 17       		.uleb128 0x17
 14537 0fd9 C2010000 		.4byte	0x1c2
 14538 0fdd 03       		.uleb128 0x3
 14539 0fde 91       		.byte	0x91
ARM GAS  C:\Users\fneves\AppData\Local\Temp\cc0ayw4Y.s 			page 315


 14540 0fdf D07E     		.sleb128 -176
 14541 0fe1 17       		.uleb128 0x17
 14542 0fe2 CE010000 		.4byte	0x1ce
 14543 0fe6 03       		.uleb128 0x3
 14544 0fe7 91       		.byte	0x91
 14545 0fe8 D47E     		.sleb128 -172
 14546 0fea 00       		.byte	0
 14547 0feb 00       		.byte	0
 14548 0fec 14       		.uleb128 0x14
 14549 0fed 91010000 		.4byte	0x191
 14550 0ff1 D4060000 		.4byte	.LBB192
 14551 0ff5 E2000000 		.4byte	.LBE192-.LBB192
 14552 0ff9 01       		.byte	0x1
 14553 0ffa 3C06     		.2byte	0x63c
 14554 0ffc 38100000 		.4byte	0x1038
 14555 1000 15       		.uleb128 0x15
 14556 1001 AC010000 		.4byte	0x1ac
 14557 1005 03       		.uleb128 0x3
 14558 1006 91       		.byte	0x91
 14559 1007 C87E     		.sleb128 -184
 14560 1009 15       		.uleb128 0x15
 14561 100a A2010000 		.4byte	0x1a2
 14562 100e 03       		.uleb128 0x3
 14563 100f 91       		.byte	0x91
 14564 1010 CC7E     		.sleb128 -180
 14565 1012 16       		.uleb128 0x16
 14566 1013 D4060000 		.4byte	.LBB193
 14567 1017 E2000000 		.4byte	.LBE193-.LBB193
 14568 101b 17       		.uleb128 0x17
 14569 101c B6010000 		.4byte	0x1b6
 14570 1020 03       		.uleb128 0x3
 14571 1021 91       		.byte	0x91
 14572 1022 C47E     		.sleb128 -188
 14573 1024 17       		.uleb128 0x17
 14574 1025 C2010000 		.4byte	0x1c2
 14575 1029 03       		.uleb128 0x3
 14576 102a 91       		.byte	0x91
 14577 102b BC7E     		.sleb128 -196
 14578 102d 17       		.uleb128 0x17
 14579 102e CE010000 		.4byte	0x1ce
 14580 1032 03       		.uleb128 0x3
 14581 1033 91       		.byte	0x91
 14582 1034 C07E     		.sleb128 -192
 14583 1036 00       		.byte	0
 14584 1037 00       		.byte	0
 14585 1038 14       		.uleb128 0x14
 14586 1039 91010000 		.4byte	0x191
 14587 103d 4C080000 		.4byte	.LBB194
 14588 1041 D6000000 		.4byte	.LBE194-.LBB194
 14589 1045 01       		.byte	0x1
 14590 1046 4506     		.2byte	0x645
 14591 1048 84100000 		.4byte	0x1084
 14592 104c 15       		.uleb128 0x15
 14593 104d AC010000 		.4byte	0x1ac
 14594 1051 03       		.uleb128 0x3
 14595 1052 91       		.byte	0x91
 14596 1053 B47E     		.sleb128 -204
ARM GAS  C:\Users\fneves\AppData\Local\Temp\cc0ayw4Y.s 			page 316


 14597 1055 15       		.uleb128 0x15
 14598 1056 A2010000 		.4byte	0x1a2
 14599 105a 03       		.uleb128 0x3
 14600 105b 91       		.byte	0x91
 14601 105c B87E     		.sleb128 -200
 14602 105e 16       		.uleb128 0x16
 14603 105f 4C080000 		.4byte	.LBB195
 14604 1063 D6000000 		.4byte	.LBE195-.LBB195
 14605 1067 17       		.uleb128 0x17
 14606 1068 B6010000 		.4byte	0x1b6
 14607 106c 03       		.uleb128 0x3
 14608 106d 91       		.byte	0x91
 14609 106e B07E     		.sleb128 -208
 14610 1070 17       		.uleb128 0x17
 14611 1071 C2010000 		.4byte	0x1c2
 14612 1075 03       		.uleb128 0x3
 14613 1076 91       		.byte	0x91
 14614 1077 A87E     		.sleb128 -216
 14615 1079 17       		.uleb128 0x17
 14616 107a CE010000 		.4byte	0x1ce
 14617 107e 03       		.uleb128 0x3
 14618 107f 91       		.byte	0x91
 14619 1080 AC7E     		.sleb128 -212
 14620 1082 00       		.byte	0
 14621 1083 00       		.byte	0
 14622 1084 14       		.uleb128 0x14
 14623 1085 91010000 		.4byte	0x191
 14624 1089 50090000 		.4byte	.LBB196
 14625 108d DE000000 		.4byte	.LBE196-.LBB196
 14626 1091 01       		.byte	0x1
 14627 1092 4606     		.2byte	0x646
 14628 1094 D0100000 		.4byte	0x10d0
 14629 1098 15       		.uleb128 0x15
 14630 1099 AC010000 		.4byte	0x1ac
 14631 109d 03       		.uleb128 0x3
 14632 109e 91       		.byte	0x91
 14633 109f A07E     		.sleb128 -224
 14634 10a1 15       		.uleb128 0x15
 14635 10a2 A2010000 		.4byte	0x1a2
 14636 10a6 03       		.uleb128 0x3
 14637 10a7 91       		.byte	0x91
 14638 10a8 A47E     		.sleb128 -220
 14639 10aa 16       		.uleb128 0x16
 14640 10ab 50090000 		.4byte	.LBB197
 14641 10af DE000000 		.4byte	.LBE197-.LBB197
 14642 10b3 17       		.uleb128 0x17
 14643 10b4 B6010000 		.4byte	0x1b6
 14644 10b8 03       		.uleb128 0x3
 14645 10b9 91       		.byte	0x91
 14646 10ba 9C7E     		.sleb128 -228
 14647 10bc 17       		.uleb128 0x17
 14648 10bd C2010000 		.4byte	0x1c2
 14649 10c1 03       		.uleb128 0x3
 14650 10c2 91       		.byte	0x91
 14651 10c3 947E     		.sleb128 -236
 14652 10c5 17       		.uleb128 0x17
 14653 10c6 CE010000 		.4byte	0x1ce
ARM GAS  C:\Users\fneves\AppData\Local\Temp\cc0ayw4Y.s 			page 317


 14654 10ca 03       		.uleb128 0x3
 14655 10cb 91       		.byte	0x91
 14656 10cc 987E     		.sleb128 -232
 14657 10ce 00       		.byte	0
 14658 10cf 00       		.byte	0
 14659 10d0 14       		.uleb128 0x14
 14660 10d1 91010000 		.4byte	0x191
 14661 10d5 900B0000 		.4byte	.LBB198
 14662 10d9 D6000000 		.4byte	.LBE198-.LBB198
 14663 10dd 01       		.byte	0x1
 14664 10de 6106     		.2byte	0x661
 14665 10e0 1C110000 		.4byte	0x111c
 14666 10e4 15       		.uleb128 0x15
 14667 10e5 AC010000 		.4byte	0x1ac
 14668 10e9 03       		.uleb128 0x3
 14669 10ea 91       		.byte	0x91
 14670 10eb 8C7E     		.sleb128 -244
 14671 10ed 15       		.uleb128 0x15
 14672 10ee A2010000 		.4byte	0x1a2
 14673 10f2 03       		.uleb128 0x3
 14674 10f3 91       		.byte	0x91
 14675 10f4 907E     		.sleb128 -240
 14676 10f6 16       		.uleb128 0x16
 14677 10f7 900B0000 		.4byte	.LBB199
 14678 10fb D6000000 		.4byte	.LBE199-.LBB199
 14679 10ff 17       		.uleb128 0x17
 14680 1100 B6010000 		.4byte	0x1b6
 14681 1104 03       		.uleb128 0x3
 14682 1105 91       		.byte	0x91
 14683 1106 887E     		.sleb128 -248
 14684 1108 17       		.uleb128 0x17
 14685 1109 C2010000 		.4byte	0x1c2
 14686 110d 03       		.uleb128 0x3
 14687 110e 91       		.byte	0x91
 14688 110f 807E     		.sleb128 -256
 14689 1111 17       		.uleb128 0x17
 14690 1112 CE010000 		.4byte	0x1ce
 14691 1116 03       		.uleb128 0x3
 14692 1117 91       		.byte	0x91
 14693 1118 847E     		.sleb128 -252
 14694 111a 00       		.byte	0
 14695 111b 00       		.byte	0
 14696 111c 14       		.uleb128 0x14
 14697 111d 91010000 		.4byte	0x191
 14698 1121 940C0000 		.4byte	.LBB200
 14699 1125 D6000000 		.4byte	.LBE200-.LBB200
 14700 1129 01       		.byte	0x1
 14701 112a 6206     		.2byte	0x662
 14702 112c 68110000 		.4byte	0x1168
 14703 1130 15       		.uleb128 0x15
 14704 1131 AC010000 		.4byte	0x1ac
 14705 1135 03       		.uleb128 0x3
 14706 1136 91       		.byte	0x91
 14707 1137 F87D     		.sleb128 -264
 14708 1139 15       		.uleb128 0x15
 14709 113a A2010000 		.4byte	0x1a2
 14710 113e 03       		.uleb128 0x3
ARM GAS  C:\Users\fneves\AppData\Local\Temp\cc0ayw4Y.s 			page 318


 14711 113f 91       		.byte	0x91
 14712 1140 FC7D     		.sleb128 -260
 14713 1142 16       		.uleb128 0x16
 14714 1143 940C0000 		.4byte	.LBB201
 14715 1147 D6000000 		.4byte	.LBE201-.LBB201
 14716 114b 17       		.uleb128 0x17
 14717 114c B6010000 		.4byte	0x1b6
 14718 1150 03       		.uleb128 0x3
 14719 1151 91       		.byte	0x91
 14720 1152 F47D     		.sleb128 -268
 14721 1154 17       		.uleb128 0x17
 14722 1155 C2010000 		.4byte	0x1c2
 14723 1159 03       		.uleb128 0x3
 14724 115a 91       		.byte	0x91
 14725 115b EC7D     		.sleb128 -276
 14726 115d 17       		.uleb128 0x17
 14727 115e CE010000 		.4byte	0x1ce
 14728 1162 03       		.uleb128 0x3
 14729 1163 91       		.byte	0x91
 14730 1164 F07D     		.sleb128 -272
 14731 1166 00       		.byte	0
 14732 1167 00       		.byte	0
 14733 1168 14       		.uleb128 0x14
 14734 1169 91010000 		.4byte	0x191
 14735 116d 980D0000 		.4byte	.LBB202
 14736 1171 F0000000 		.4byte	.LBE202-.LBB202
 14737 1175 01       		.byte	0x1
 14738 1176 6406     		.2byte	0x664
 14739 1178 B4110000 		.4byte	0x11b4
 14740 117c 15       		.uleb128 0x15
 14741 117d AC010000 		.4byte	0x1ac
 14742 1181 03       		.uleb128 0x3
 14743 1182 91       		.byte	0x91
 14744 1183 E47D     		.sleb128 -284
 14745 1185 15       		.uleb128 0x15
 14746 1186 A2010000 		.4byte	0x1a2
 14747 118a 03       		.uleb128 0x3
 14748 118b 91       		.byte	0x91
 14749 118c E87D     		.sleb128 -280
 14750 118e 16       		.uleb128 0x16
 14751 118f 980D0000 		.4byte	.LBB203
 14752 1193 F0000000 		.4byte	.LBE203-.LBB203
 14753 1197 17       		.uleb128 0x17
 14754 1198 B6010000 		.4byte	0x1b6
 14755 119c 03       		.uleb128 0x3
 14756 119d 91       		.byte	0x91
 14757 119e E07D     		.sleb128 -288
 14758 11a0 17       		.uleb128 0x17
 14759 11a1 C2010000 		.4byte	0x1c2
 14760 11a5 03       		.uleb128 0x3
 14761 11a6 91       		.byte	0x91
 14762 11a7 D87D     		.sleb128 -296
 14763 11a9 17       		.uleb128 0x17
 14764 11aa CE010000 		.4byte	0x1ce
 14765 11ae 03       		.uleb128 0x3
 14766 11af 91       		.byte	0x91
 14767 11b0 DC7D     		.sleb128 -292
ARM GAS  C:\Users\fneves\AppData\Local\Temp\cc0ayw4Y.s 			page 319


 14768 11b2 00       		.byte	0
 14769 11b3 00       		.byte	0
 14770 11b4 14       		.uleb128 0x14
 14771 11b5 91010000 		.4byte	0x191
 14772 11b9 B40E0000 		.4byte	.LBB204
 14773 11bd D6000000 		.4byte	.LBE204-.LBB204
 14774 11c1 01       		.byte	0x1
 14775 11c2 6506     		.2byte	0x665
 14776 11c4 00120000 		.4byte	0x1200
 14777 11c8 15       		.uleb128 0x15
 14778 11c9 AC010000 		.4byte	0x1ac
 14779 11cd 03       		.uleb128 0x3
 14780 11ce 91       		.byte	0x91
 14781 11cf D07D     		.sleb128 -304
 14782 11d1 15       		.uleb128 0x15
 14783 11d2 A2010000 		.4byte	0x1a2
 14784 11d6 03       		.uleb128 0x3
 14785 11d7 91       		.byte	0x91
 14786 11d8 D47D     		.sleb128 -300
 14787 11da 16       		.uleb128 0x16
 14788 11db B40E0000 		.4byte	.LBB205
 14789 11df D6000000 		.4byte	.LBE205-.LBB205
 14790 11e3 17       		.uleb128 0x17
 14791 11e4 B6010000 		.4byte	0x1b6
 14792 11e8 03       		.uleb128 0x3
 14793 11e9 91       		.byte	0x91
 14794 11ea CC7D     		.sleb128 -308
 14795 11ec 17       		.uleb128 0x17
 14796 11ed C2010000 		.4byte	0x1c2
 14797 11f1 03       		.uleb128 0x3
 14798 11f2 91       		.byte	0x91
 14799 11f3 C47D     		.sleb128 -316
 14800 11f5 17       		.uleb128 0x17
 14801 11f6 CE010000 		.4byte	0x1ce
 14802 11fa 03       		.uleb128 0x3
 14803 11fb 91       		.byte	0x91
 14804 11fc C87D     		.sleb128 -312
 14805 11fe 00       		.byte	0
 14806 11ff 00       		.byte	0
 14807 1200 14       		.uleb128 0x14
 14808 1201 91010000 		.4byte	0x191
 14809 1205 B80F0000 		.4byte	.LBB206
 14810 1209 D6000000 		.4byte	.LBE206-.LBB206
 14811 120d 01       		.byte	0x1
 14812 120e 6706     		.2byte	0x667
 14813 1210 4C120000 		.4byte	0x124c
 14814 1214 15       		.uleb128 0x15
 14815 1215 AC010000 		.4byte	0x1ac
 14816 1219 03       		.uleb128 0x3
 14817 121a 91       		.byte	0x91
 14818 121b BC7D     		.sleb128 -324
 14819 121d 15       		.uleb128 0x15
 14820 121e A2010000 		.4byte	0x1a2
 14821 1222 03       		.uleb128 0x3
 14822 1223 91       		.byte	0x91
 14823 1224 C07D     		.sleb128 -320
 14824 1226 16       		.uleb128 0x16
ARM GAS  C:\Users\fneves\AppData\Local\Temp\cc0ayw4Y.s 			page 320


 14825 1227 B80F0000 		.4byte	.LBB207
 14826 122b D6000000 		.4byte	.LBE207-.LBB207
 14827 122f 17       		.uleb128 0x17
 14828 1230 B6010000 		.4byte	0x1b6
 14829 1234 03       		.uleb128 0x3
 14830 1235 91       		.byte	0x91
 14831 1236 B87D     		.sleb128 -328
 14832 1238 17       		.uleb128 0x17
 14833 1239 C2010000 		.4byte	0x1c2
 14834 123d 03       		.uleb128 0x3
 14835 123e 91       		.byte	0x91
 14836 123f B07D     		.sleb128 -336
 14837 1241 17       		.uleb128 0x17
 14838 1242 CE010000 		.4byte	0x1ce
 14839 1246 03       		.uleb128 0x3
 14840 1247 91       		.byte	0x91
 14841 1248 B47D     		.sleb128 -332
 14842 124a 00       		.byte	0
 14843 124b 00       		.byte	0
 14844 124c 14       		.uleb128 0x14
 14845 124d 91010000 		.4byte	0x191
 14846 1251 BA100000 		.4byte	.LBB208
 14847 1255 E4000000 		.4byte	.LBE208-.LBB208
 14848 1259 01       		.byte	0x1
 14849 125a 6806     		.2byte	0x668
 14850 125c 98120000 		.4byte	0x1298
 14851 1260 15       		.uleb128 0x15
 14852 1261 AC010000 		.4byte	0x1ac
 14853 1265 03       		.uleb128 0x3
 14854 1266 91       		.byte	0x91
 14855 1267 A87D     		.sleb128 -344
 14856 1269 15       		.uleb128 0x15
 14857 126a A2010000 		.4byte	0x1a2
 14858 126e 03       		.uleb128 0x3
 14859 126f 91       		.byte	0x91
 14860 1270 AC7D     		.sleb128 -340
 14861 1272 16       		.uleb128 0x16
 14862 1273 BA100000 		.4byte	.LBB209
 14863 1277 E4000000 		.4byte	.LBE209-.LBB209
 14864 127b 17       		.uleb128 0x17
 14865 127c B6010000 		.4byte	0x1b6
 14866 1280 03       		.uleb128 0x3
 14867 1281 91       		.byte	0x91
 14868 1282 A47D     		.sleb128 -348
 14869 1284 17       		.uleb128 0x17
 14870 1285 C2010000 		.4byte	0x1c2
 14871 1289 03       		.uleb128 0x3
 14872 128a 91       		.byte	0x91
 14873 128b 9C7D     		.sleb128 -356
 14874 128d 17       		.uleb128 0x17
 14875 128e CE010000 		.4byte	0x1ce
 14876 1292 03       		.uleb128 0x3
 14877 1293 91       		.byte	0x91
 14878 1294 A07D     		.sleb128 -352
 14879 1296 00       		.byte	0
 14880 1297 00       		.byte	0
 14881 1298 14       		.uleb128 0x14
ARM GAS  C:\Users\fneves\AppData\Local\Temp\cc0ayw4Y.s 			page 321


 14882 1299 91010000 		.4byte	0x191
 14883 129d 70150000 		.4byte	.LBB210
 14884 12a1 F4000000 		.4byte	.LBE210-.LBB210
 14885 12a5 01       		.byte	0x1
 14886 12a6 BD06     		.2byte	0x6bd
 14887 12a8 E4120000 		.4byte	0x12e4
 14888 12ac 15       		.uleb128 0x15
 14889 12ad AC010000 		.4byte	0x1ac
 14890 12b1 03       		.uleb128 0x3
 14891 12b2 91       		.byte	0x91
 14892 12b3 947D     		.sleb128 -364
 14893 12b5 15       		.uleb128 0x15
 14894 12b6 A2010000 		.4byte	0x1a2
 14895 12ba 03       		.uleb128 0x3
 14896 12bb 91       		.byte	0x91
 14897 12bc 987D     		.sleb128 -360
 14898 12be 16       		.uleb128 0x16
 14899 12bf 70150000 		.4byte	.LBB211
 14900 12c3 F4000000 		.4byte	.LBE211-.LBB211
 14901 12c7 17       		.uleb128 0x17
 14902 12c8 B6010000 		.4byte	0x1b6
 14903 12cc 03       		.uleb128 0x3
 14904 12cd 91       		.byte	0x91
 14905 12ce 907D     		.sleb128 -368
 14906 12d0 17       		.uleb128 0x17
 14907 12d1 C2010000 		.4byte	0x1c2
 14908 12d5 03       		.uleb128 0x3
 14909 12d6 91       		.byte	0x91
 14910 12d7 887D     		.sleb128 -376
 14911 12d9 17       		.uleb128 0x17
 14912 12da CE010000 		.4byte	0x1ce
 14913 12de 03       		.uleb128 0x3
 14914 12df 91       		.byte	0x91
 14915 12e0 8C7D     		.sleb128 -372
 14916 12e2 00       		.byte	0
 14917 12e3 00       		.byte	0
 14918 12e4 14       		.uleb128 0x14
 14919 12e5 91010000 		.4byte	0x191
 14920 12e9 92160000 		.4byte	.LBB212
 14921 12ed D6000000 		.4byte	.LBE212-.LBB212
 14922 12f1 01       		.byte	0x1
 14923 12f2 BE06     		.2byte	0x6be
 14924 12f4 30130000 		.4byte	0x1330
 14925 12f8 15       		.uleb128 0x15
 14926 12f9 AC010000 		.4byte	0x1ac
 14927 12fd 03       		.uleb128 0x3
 14928 12fe 91       		.byte	0x91
 14929 12ff 807D     		.sleb128 -384
 14930 1301 15       		.uleb128 0x15
 14931 1302 A2010000 		.4byte	0x1a2
 14932 1306 03       		.uleb128 0x3
 14933 1307 91       		.byte	0x91
 14934 1308 847D     		.sleb128 -380
 14935 130a 16       		.uleb128 0x16
 14936 130b 92160000 		.4byte	.LBB213
 14937 130f D6000000 		.4byte	.LBE213-.LBB213
 14938 1313 17       		.uleb128 0x17
ARM GAS  C:\Users\fneves\AppData\Local\Temp\cc0ayw4Y.s 			page 322


 14939 1314 B6010000 		.4byte	0x1b6
 14940 1318 03       		.uleb128 0x3
 14941 1319 91       		.byte	0x91
 14942 131a FC7C     		.sleb128 -388
 14943 131c 17       		.uleb128 0x17
 14944 131d C2010000 		.4byte	0x1c2
 14945 1321 03       		.uleb128 0x3
 14946 1322 91       		.byte	0x91
 14947 1323 F47C     		.sleb128 -396
 14948 1325 17       		.uleb128 0x17
 14949 1326 CE010000 		.4byte	0x1ce
 14950 132a 03       		.uleb128 0x3
 14951 132b 91       		.byte	0x91
 14952 132c F87C     		.sleb128 -392
 14953 132e 00       		.byte	0
 14954 132f 00       		.byte	0
 14955 1330 14       		.uleb128 0x14
 14956 1331 91010000 		.4byte	0x191
 14957 1335 94170000 		.4byte	.LBB214
 14958 1339 D6000000 		.4byte	.LBE214-.LBB214
 14959 133d 01       		.byte	0x1
 14960 133e C006     		.2byte	0x6c0
 14961 1340 7C130000 		.4byte	0x137c
 14962 1344 15       		.uleb128 0x15
 14963 1345 AC010000 		.4byte	0x1ac
 14964 1349 03       		.uleb128 0x3
 14965 134a 91       		.byte	0x91
 14966 134b EC7C     		.sleb128 -404
 14967 134d 15       		.uleb128 0x15
 14968 134e A2010000 		.4byte	0x1a2
 14969 1352 03       		.uleb128 0x3
 14970 1353 91       		.byte	0x91
 14971 1354 F07C     		.sleb128 -400
 14972 1356 16       		.uleb128 0x16
 14973 1357 94170000 		.4byte	.LBB215
 14974 135b D6000000 		.4byte	.LBE215-.LBB215
 14975 135f 17       		.uleb128 0x17
 14976 1360 B6010000 		.4byte	0x1b6
 14977 1364 03       		.uleb128 0x3
 14978 1365 91       		.byte	0x91
 14979 1366 E87C     		.sleb128 -408
 14980 1368 17       		.uleb128 0x17
 14981 1369 C2010000 		.4byte	0x1c2
 14982 136d 03       		.uleb128 0x3
 14983 136e 91       		.byte	0x91
 14984 136f E07C     		.sleb128 -416
 14985 1371 17       		.uleb128 0x17
 14986 1372 CE010000 		.4byte	0x1ce
 14987 1376 03       		.uleb128 0x3
 14988 1377 91       		.byte	0x91
 14989 1378 E47C     		.sleb128 -412
 14990 137a 00       		.byte	0
 14991 137b 00       		.byte	0
 14992 137c 14       		.uleb128 0x14
 14993 137d 91010000 		.4byte	0x191
 14994 1381 98180000 		.4byte	.LBB216
 14995 1385 D0000000 		.4byte	.LBE216-.LBB216
ARM GAS  C:\Users\fneves\AppData\Local\Temp\cc0ayw4Y.s 			page 323


 14996 1389 01       		.byte	0x1
 14997 138a C106     		.2byte	0x6c1
 14998 138c C8130000 		.4byte	0x13c8
 14999 1390 15       		.uleb128 0x15
 15000 1391 AC010000 		.4byte	0x1ac
 15001 1395 03       		.uleb128 0x3
 15002 1396 91       		.byte	0x91
 15003 1397 D87C     		.sleb128 -424
 15004 1399 15       		.uleb128 0x15
 15005 139a A2010000 		.4byte	0x1a2
 15006 139e 03       		.uleb128 0x3
 15007 139f 91       		.byte	0x91
 15008 13a0 DC7C     		.sleb128 -420
 15009 13a2 16       		.uleb128 0x16
 15010 13a3 98180000 		.4byte	.LBB217
 15011 13a7 D0000000 		.4byte	.LBE217-.LBB217
 15012 13ab 17       		.uleb128 0x17
 15013 13ac B6010000 		.4byte	0x1b6
 15014 13b0 03       		.uleb128 0x3
 15015 13b1 91       		.byte	0x91
 15016 13b2 D47C     		.sleb128 -428
 15017 13b4 17       		.uleb128 0x17
 15018 13b5 C2010000 		.4byte	0x1c2
 15019 13b9 03       		.uleb128 0x3
 15020 13ba 91       		.byte	0x91
 15021 13bb CC7C     		.sleb128 -436
 15022 13bd 17       		.uleb128 0x17
 15023 13be CE010000 		.4byte	0x1ce
 15024 13c2 03       		.uleb128 0x3
 15025 13c3 91       		.byte	0x91
 15026 13c4 D07C     		.sleb128 -432
 15027 13c6 00       		.byte	0
 15028 13c7 00       		.byte	0
 15029 13c8 14       		.uleb128 0x14
 15030 13c9 91010000 		.4byte	0x191
 15031 13cd F0190000 		.4byte	.LBB218
 15032 13d1 BC000000 		.4byte	.LBE218-.LBB218
 15033 13d5 01       		.byte	0x1
 15034 13d6 CD06     		.2byte	0x6cd
 15035 13d8 14140000 		.4byte	0x1414
 15036 13dc 15       		.uleb128 0x15
 15037 13dd AC010000 		.4byte	0x1ac
 15038 13e1 03       		.uleb128 0x3
 15039 13e2 91       		.byte	0x91
 15040 13e3 C47C     		.sleb128 -444
 15041 13e5 15       		.uleb128 0x15
 15042 13e6 A2010000 		.4byte	0x1a2
 15043 13ea 03       		.uleb128 0x3
 15044 13eb 91       		.byte	0x91
 15045 13ec C87C     		.sleb128 -440
 15046 13ee 16       		.uleb128 0x16
 15047 13ef F0190000 		.4byte	.LBB219
 15048 13f3 BC000000 		.4byte	.LBE219-.LBB219
 15049 13f7 17       		.uleb128 0x17
 15050 13f8 B6010000 		.4byte	0x1b6
 15051 13fc 03       		.uleb128 0x3
 15052 13fd 91       		.byte	0x91
ARM GAS  C:\Users\fneves\AppData\Local\Temp\cc0ayw4Y.s 			page 324


 15053 13fe C07C     		.sleb128 -448
 15054 1400 17       		.uleb128 0x17
 15055 1401 C2010000 		.4byte	0x1c2
 15056 1405 03       		.uleb128 0x3
 15057 1406 91       		.byte	0x91
 15058 1407 B87C     		.sleb128 -456
 15059 1409 17       		.uleb128 0x17
 15060 140a CE010000 		.4byte	0x1ce
 15061 140e 03       		.uleb128 0x3
 15062 140f 91       		.byte	0x91
 15063 1410 BC7C     		.sleb128 -452
 15064 1412 00       		.byte	0
 15065 1413 00       		.byte	0
 15066 1414 14       		.uleb128 0x14
 15067 1415 91010000 		.4byte	0x191
 15068 1419 D61A0000 		.4byte	.LBB220
 15069 141d AA000000 		.4byte	.LBE220-.LBB220
 15070 1421 01       		.byte	0x1
 15071 1422 CE06     		.2byte	0x6ce
 15072 1424 60140000 		.4byte	0x1460
 15073 1428 15       		.uleb128 0x15
 15074 1429 AC010000 		.4byte	0x1ac
 15075 142d 03       		.uleb128 0x3
 15076 142e 91       		.byte	0x91
 15077 142f B07C     		.sleb128 -464
 15078 1431 15       		.uleb128 0x15
 15079 1432 A2010000 		.4byte	0x1a2
 15080 1436 03       		.uleb128 0x3
 15081 1437 91       		.byte	0x91
 15082 1438 B47C     		.sleb128 -460
 15083 143a 16       		.uleb128 0x16
 15084 143b D61A0000 		.4byte	.LBB221
 15085 143f AA000000 		.4byte	.LBE221-.LBB221
 15086 1443 17       		.uleb128 0x17
 15087 1444 B6010000 		.4byte	0x1b6
 15088 1448 03       		.uleb128 0x3
 15089 1449 91       		.byte	0x91
 15090 144a AC7C     		.sleb128 -468
 15091 144c 17       		.uleb128 0x17
 15092 144d C2010000 		.4byte	0x1c2
 15093 1451 03       		.uleb128 0x3
 15094 1452 91       		.byte	0x91
 15095 1453 A47C     		.sleb128 -476
 15096 1455 17       		.uleb128 0x17
 15097 1456 CE010000 		.4byte	0x1ce
 15098 145a 03       		.uleb128 0x3
 15099 145b 91       		.byte	0x91
 15100 145c A87C     		.sleb128 -472
 15101 145e 00       		.byte	0
 15102 145f 00       		.byte	0
 15103 1460 14       		.uleb128 0x14
 15104 1461 91010000 		.4byte	0x191
 15105 1465 5A1D0000 		.4byte	.LBB222
 15106 1469 AA000000 		.4byte	.LBE222-.LBB222
 15107 146d 01       		.byte	0x1
 15108 146e F006     		.2byte	0x6f0
 15109 1470 AC140000 		.4byte	0x14ac
ARM GAS  C:\Users\fneves\AppData\Local\Temp\cc0ayw4Y.s 			page 325


 15110 1474 15       		.uleb128 0x15
 15111 1475 AC010000 		.4byte	0x1ac
 15112 1479 03       		.uleb128 0x3
 15113 147a 91       		.byte	0x91
 15114 147b 9C7C     		.sleb128 -484
 15115 147d 15       		.uleb128 0x15
 15116 147e A2010000 		.4byte	0x1a2
 15117 1482 03       		.uleb128 0x3
 15118 1483 91       		.byte	0x91
 15119 1484 A07C     		.sleb128 -480
 15120 1486 16       		.uleb128 0x16
 15121 1487 5A1D0000 		.4byte	.LBB223
 15122 148b AA000000 		.4byte	.LBE223-.LBB223
 15123 148f 17       		.uleb128 0x17
 15124 1490 B6010000 		.4byte	0x1b6
 15125 1494 03       		.uleb128 0x3
 15126 1495 91       		.byte	0x91
 15127 1496 987C     		.sleb128 -488
 15128 1498 17       		.uleb128 0x17
 15129 1499 C2010000 		.4byte	0x1c2
 15130 149d 03       		.uleb128 0x3
 15131 149e 91       		.byte	0x91
 15132 149f 907C     		.sleb128 -496
 15133 14a1 17       		.uleb128 0x17
 15134 14a2 CE010000 		.4byte	0x1ce
 15135 14a6 03       		.uleb128 0x3
 15136 14a7 91       		.byte	0x91
 15137 14a8 947C     		.sleb128 -492
 15138 14aa 00       		.byte	0
 15139 14ab 00       		.byte	0
 15140 14ac 14       		.uleb128 0x14
 15141 14ad 91010000 		.4byte	0x191
 15142 14b1 2E1E0000 		.4byte	.LBB224
 15143 14b5 BE000000 		.4byte	.LBE224-.LBB224
 15144 14b9 01       		.byte	0x1
 15145 14ba F106     		.2byte	0x6f1
 15146 14bc F8140000 		.4byte	0x14f8
 15147 14c0 15       		.uleb128 0x15
 15148 14c1 AC010000 		.4byte	0x1ac
 15149 14c5 03       		.uleb128 0x3
 15150 14c6 91       		.byte	0x91
 15151 14c7 887C     		.sleb128 -504
 15152 14c9 15       		.uleb128 0x15
 15153 14ca A2010000 		.4byte	0x1a2
 15154 14ce 03       		.uleb128 0x3
 15155 14cf 91       		.byte	0x91
 15156 14d0 8C7C     		.sleb128 -500
 15157 14d2 16       		.uleb128 0x16
 15158 14d3 2E1E0000 		.4byte	.LBB225
 15159 14d7 BE000000 		.4byte	.LBE225-.LBB225
 15160 14db 17       		.uleb128 0x17
 15161 14dc B6010000 		.4byte	0x1b6
 15162 14e0 03       		.uleb128 0x3
 15163 14e1 91       		.byte	0x91
 15164 14e2 847C     		.sleb128 -508
 15165 14e4 17       		.uleb128 0x17
 15166 14e5 C2010000 		.4byte	0x1c2
ARM GAS  C:\Users\fneves\AppData\Local\Temp\cc0ayw4Y.s 			page 326


 15167 14e9 03       		.uleb128 0x3
 15168 14ea 91       		.byte	0x91
 15169 14eb FC7B     		.sleb128 -516
 15170 14ed 17       		.uleb128 0x17
 15171 14ee CE010000 		.4byte	0x1ce
 15172 14f2 03       		.uleb128 0x3
 15173 14f3 91       		.byte	0x91
 15174 14f4 807C     		.sleb128 -512
 15175 14f6 00       		.byte	0
 15176 14f7 00       		.byte	0
 15177 14f8 14       		.uleb128 0x14
 15178 14f9 91010000 		.4byte	0x191
 15179 14fd 42220000 		.4byte	.LBB226
 15180 1501 C2000000 		.4byte	.LBE226-.LBB226
 15181 1505 01       		.byte	0x1
 15182 1506 3307     		.2byte	0x733
 15183 1508 44150000 		.4byte	0x1544
 15184 150c 15       		.uleb128 0x15
 15185 150d AC010000 		.4byte	0x1ac
 15186 1511 03       		.uleb128 0x3
 15187 1512 91       		.byte	0x91
 15188 1513 F47B     		.sleb128 -524
 15189 1515 15       		.uleb128 0x15
 15190 1516 A2010000 		.4byte	0x1a2
 15191 151a 03       		.uleb128 0x3
 15192 151b 91       		.byte	0x91
 15193 151c F87B     		.sleb128 -520
 15194 151e 16       		.uleb128 0x16
 15195 151f 42220000 		.4byte	.LBB227
 15196 1523 C2000000 		.4byte	.LBE227-.LBB227
 15197 1527 17       		.uleb128 0x17
 15198 1528 B6010000 		.4byte	0x1b6
 15199 152c 03       		.uleb128 0x3
 15200 152d 91       		.byte	0x91
 15201 152e F07B     		.sleb128 -528
 15202 1530 17       		.uleb128 0x17
 15203 1531 C2010000 		.4byte	0x1c2
 15204 1535 03       		.uleb128 0x3
 15205 1536 91       		.byte	0x91
 15206 1537 E87B     		.sleb128 -536
 15207 1539 17       		.uleb128 0x17
 15208 153a CE010000 		.4byte	0x1ce
 15209 153e 03       		.uleb128 0x3
 15210 153f 91       		.byte	0x91
 15211 1540 EC7B     		.sleb128 -532
 15212 1542 00       		.byte	0
 15213 1543 00       		.byte	0
 15214 1544 14       		.uleb128 0x14
 15215 1545 91010000 		.4byte	0x191
 15216 1549 2E230000 		.4byte	.LBB228
 15217 154d AA000000 		.4byte	.LBE228-.LBB228
 15218 1551 01       		.byte	0x1
 15219 1552 3407     		.2byte	0x734
 15220 1554 90150000 		.4byte	0x1590
 15221 1558 15       		.uleb128 0x15
 15222 1559 AC010000 		.4byte	0x1ac
 15223 155d 03       		.uleb128 0x3
ARM GAS  C:\Users\fneves\AppData\Local\Temp\cc0ayw4Y.s 			page 327


 15224 155e 91       		.byte	0x91
 15225 155f E07B     		.sleb128 -544
 15226 1561 15       		.uleb128 0x15
 15227 1562 A2010000 		.4byte	0x1a2
 15228 1566 03       		.uleb128 0x3
 15229 1567 91       		.byte	0x91
 15230 1568 E47B     		.sleb128 -540
 15231 156a 16       		.uleb128 0x16
 15232 156b 2E230000 		.4byte	.LBB229
 15233 156f AA000000 		.4byte	.LBE229-.LBB229
 15234 1573 17       		.uleb128 0x17
 15235 1574 B6010000 		.4byte	0x1b6
 15236 1578 03       		.uleb128 0x3
 15237 1579 91       		.byte	0x91
 15238 157a DC7B     		.sleb128 -548
 15239 157c 17       		.uleb128 0x17
 15240 157d C2010000 		.4byte	0x1c2
 15241 1581 03       		.uleb128 0x3
 15242 1582 91       		.byte	0x91
 15243 1583 D47B     		.sleb128 -556
 15244 1585 17       		.uleb128 0x17
 15245 1586 CE010000 		.4byte	0x1ce
 15246 158a 03       		.uleb128 0x3
 15247 158b 91       		.byte	0x91
 15248 158c D87B     		.sleb128 -552
 15249 158e 00       		.byte	0
 15250 158f 00       		.byte	0
 15251 1590 14       		.uleb128 0x14
 15252 1591 91010000 		.4byte	0x191
 15253 1595 00240000 		.4byte	.LBB230
 15254 1599 8E000000 		.4byte	.LBE230-.LBB230
 15255 159d 01       		.byte	0x1
 15256 159e 3607     		.2byte	0x736
 15257 15a0 DC150000 		.4byte	0x15dc
 15258 15a4 15       		.uleb128 0x15
 15259 15a5 AC010000 		.4byte	0x1ac
 15260 15a9 03       		.uleb128 0x3
 15261 15aa 91       		.byte	0x91
 15262 15ab CC7B     		.sleb128 -564
 15263 15ad 15       		.uleb128 0x15
 15264 15ae A2010000 		.4byte	0x1a2
 15265 15b2 03       		.uleb128 0x3
 15266 15b3 91       		.byte	0x91
 15267 15b4 D07B     		.sleb128 -560
 15268 15b6 16       		.uleb128 0x16
 15269 15b7 00240000 		.4byte	.LBB231
 15270 15bb 8E000000 		.4byte	.LBE231-.LBB231
 15271 15bf 17       		.uleb128 0x17
 15272 15c0 B6010000 		.4byte	0x1b6
 15273 15c4 03       		.uleb128 0x3
 15274 15c5 91       		.byte	0x91
 15275 15c6 C87B     		.sleb128 -568
 15276 15c8 17       		.uleb128 0x17
 15277 15c9 C2010000 		.4byte	0x1c2
 15278 15cd 03       		.uleb128 0x3
 15279 15ce 91       		.byte	0x91
 15280 15cf C07B     		.sleb128 -576
ARM GAS  C:\Users\fneves\AppData\Local\Temp\cc0ayw4Y.s 			page 328


 15281 15d1 17       		.uleb128 0x17
 15282 15d2 CE010000 		.4byte	0x1ce
 15283 15d6 03       		.uleb128 0x3
 15284 15d7 91       		.byte	0x91
 15285 15d8 C47B     		.sleb128 -572
 15286 15da 00       		.byte	0
 15287 15db 00       		.byte	0
 15288 15dc 14       		.uleb128 0x14
 15289 15dd 91010000 		.4byte	0x191
 15290 15e1 B0240000 		.4byte	.LBB232
 15291 15e5 52000000 		.4byte	.LBE232-.LBB232
 15292 15e9 01       		.byte	0x1
 15293 15ea 3707     		.2byte	0x737
 15294 15ec 28160000 		.4byte	0x1628
 15295 15f0 15       		.uleb128 0x15
 15296 15f1 AC010000 		.4byte	0x1ac
 15297 15f5 03       		.uleb128 0x3
 15298 15f6 91       		.byte	0x91
 15299 15f7 B87B     		.sleb128 -584
 15300 15f9 15       		.uleb128 0x15
 15301 15fa A2010000 		.4byte	0x1a2
 15302 15fe 03       		.uleb128 0x3
 15303 15ff 91       		.byte	0x91
 15304 1600 BC7B     		.sleb128 -580
 15305 1602 16       		.uleb128 0x16
 15306 1603 B0240000 		.4byte	.LBB233
 15307 1607 52000000 		.4byte	.LBE233-.LBB233
 15308 160b 17       		.uleb128 0x17
 15309 160c B6010000 		.4byte	0x1b6
 15310 1610 03       		.uleb128 0x3
 15311 1611 91       		.byte	0x91
 15312 1612 B47B     		.sleb128 -588
 15313 1614 17       		.uleb128 0x17
 15314 1615 C2010000 		.4byte	0x1c2
 15315 1619 03       		.uleb128 0x3
 15316 161a 91       		.byte	0x91
 15317 161b AC7B     		.sleb128 -596
 15318 161d 17       		.uleb128 0x17
 15319 161e CE010000 		.4byte	0x1ce
 15320 1622 03       		.uleb128 0x3
 15321 1623 91       		.byte	0x91
 15322 1624 B07B     		.sleb128 -592
 15323 1626 00       		.byte	0
 15324 1627 00       		.byte	0
 15325 1628 14       		.uleb128 0x14
 15326 1629 91010000 		.4byte	0x191
 15327 162d 82250000 		.4byte	.LBB234
 15328 1631 52000000 		.4byte	.LBE234-.LBB234
 15329 1635 01       		.byte	0x1
 15330 1636 4207     		.2byte	0x742
 15331 1638 74160000 		.4byte	0x1674
 15332 163c 15       		.uleb128 0x15
 15333 163d AC010000 		.4byte	0x1ac
 15334 1641 03       		.uleb128 0x3
 15335 1642 91       		.byte	0x91
 15336 1643 A47B     		.sleb128 -604
 15337 1645 15       		.uleb128 0x15
ARM GAS  C:\Users\fneves\AppData\Local\Temp\cc0ayw4Y.s 			page 329


 15338 1646 A2010000 		.4byte	0x1a2
 15339 164a 03       		.uleb128 0x3
 15340 164b 91       		.byte	0x91
 15341 164c A87B     		.sleb128 -600
 15342 164e 16       		.uleb128 0x16
 15343 164f 82250000 		.4byte	.LBB235
 15344 1653 52000000 		.4byte	.LBE235-.LBB235
 15345 1657 17       		.uleb128 0x17
 15346 1658 B6010000 		.4byte	0x1b6
 15347 165c 03       		.uleb128 0x3
 15348 165d 91       		.byte	0x91
 15349 165e A07B     		.sleb128 -608
 15350 1660 17       		.uleb128 0x17
 15351 1661 C2010000 		.4byte	0x1c2
 15352 1665 03       		.uleb128 0x3
 15353 1666 91       		.byte	0x91
 15354 1667 987B     		.sleb128 -616
 15355 1669 17       		.uleb128 0x17
 15356 166a CE010000 		.4byte	0x1ce
 15357 166e 03       		.uleb128 0x3
 15358 166f 91       		.byte	0x91
 15359 1670 9C7B     		.sleb128 -612
 15360 1672 00       		.byte	0
 15361 1673 00       		.byte	0
 15362 1674 14       		.uleb128 0x14
 15363 1675 91010000 		.4byte	0x191
 15364 1679 F6250000 		.4byte	.LBB236
 15365 167d 62000000 		.4byte	.LBE236-.LBB236
 15366 1681 01       		.byte	0x1
 15367 1682 4307     		.2byte	0x743
 15368 1684 C0160000 		.4byte	0x16c0
 15369 1688 15       		.uleb128 0x15
 15370 1689 AC010000 		.4byte	0x1ac
 15371 168d 03       		.uleb128 0x3
 15372 168e 91       		.byte	0x91
 15373 168f 907B     		.sleb128 -624
 15374 1691 15       		.uleb128 0x15
 15375 1692 A2010000 		.4byte	0x1a2
 15376 1696 03       		.uleb128 0x3
 15377 1697 91       		.byte	0x91
 15378 1698 947B     		.sleb128 -620
 15379 169a 16       		.uleb128 0x16
 15380 169b F6250000 		.4byte	.LBB237
 15381 169f 62000000 		.4byte	.LBE237-.LBB237
 15382 16a3 17       		.uleb128 0x17
 15383 16a4 B6010000 		.4byte	0x1b6
 15384 16a8 03       		.uleb128 0x3
 15385 16a9 91       		.byte	0x91
 15386 16aa 8C7B     		.sleb128 -628
 15387 16ac 17       		.uleb128 0x17
 15388 16ad C2010000 		.4byte	0x1c2
 15389 16b1 03       		.uleb128 0x3
 15390 16b2 91       		.byte	0x91
 15391 16b3 847B     		.sleb128 -636
 15392 16b5 17       		.uleb128 0x17
 15393 16b6 CE010000 		.4byte	0x1ce
 15394 16ba 03       		.uleb128 0x3
ARM GAS  C:\Users\fneves\AppData\Local\Temp\cc0ayw4Y.s 			page 330


 15395 16bb 91       		.byte	0x91
 15396 16bc 887B     		.sleb128 -632
 15397 16be 00       		.byte	0
 15398 16bf 00       		.byte	0
 15399 16c0 14       		.uleb128 0x14
 15400 16c1 91010000 		.4byte	0x191
 15401 16c5 C4270000 		.4byte	.LBB238
 15402 16c9 52000000 		.4byte	.LBE238-.LBB238
 15403 16cd 01       		.byte	0x1
 15404 16ce 5D07     		.2byte	0x75d
 15405 16d0 0C170000 		.4byte	0x170c
 15406 16d4 15       		.uleb128 0x15
 15407 16d5 AC010000 		.4byte	0x1ac
 15408 16d9 03       		.uleb128 0x3
 15409 16da 91       		.byte	0x91
 15410 16db FC7A     		.sleb128 -644
 15411 16dd 15       		.uleb128 0x15
 15412 16de A2010000 		.4byte	0x1a2
 15413 16e2 03       		.uleb128 0x3
 15414 16e3 91       		.byte	0x91
 15415 16e4 807B     		.sleb128 -640
 15416 16e6 16       		.uleb128 0x16
 15417 16e7 C4270000 		.4byte	.LBB239
 15418 16eb 52000000 		.4byte	.LBE239-.LBB239
 15419 16ef 17       		.uleb128 0x17
 15420 16f0 B6010000 		.4byte	0x1b6
 15421 16f4 03       		.uleb128 0x3
 15422 16f5 91       		.byte	0x91
 15423 16f6 F87A     		.sleb128 -648
 15424 16f8 17       		.uleb128 0x17
 15425 16f9 C2010000 		.4byte	0x1c2
 15426 16fd 03       		.uleb128 0x3
 15427 16fe 91       		.byte	0x91
 15428 16ff F07A     		.sleb128 -656
 15429 1701 17       		.uleb128 0x17
 15430 1702 CE010000 		.4byte	0x1ce
 15431 1706 03       		.uleb128 0x3
 15432 1707 91       		.byte	0x91
 15433 1708 F47A     		.sleb128 -652
 15434 170a 00       		.byte	0
 15435 170b 00       		.byte	0
 15436 170c 18       		.uleb128 0x18
 15437 170d 91010000 		.4byte	0x191
 15438 1711 38280000 		.4byte	.LBB240
 15439 1715 52000000 		.4byte	.LBE240-.LBB240
 15440 1719 01       		.byte	0x1
 15441 171a 5E07     		.2byte	0x75e
 15442 171c 15       		.uleb128 0x15
 15443 171d AC010000 		.4byte	0x1ac
 15444 1721 03       		.uleb128 0x3
 15445 1722 91       		.byte	0x91
 15446 1723 E87A     		.sleb128 -664
 15447 1725 15       		.uleb128 0x15
 15448 1726 A2010000 		.4byte	0x1a2
 15449 172a 03       		.uleb128 0x3
 15450 172b 91       		.byte	0x91
 15451 172c EC7A     		.sleb128 -660
ARM GAS  C:\Users\fneves\AppData\Local\Temp\cc0ayw4Y.s 			page 331


 15452 172e 16       		.uleb128 0x16
 15453 172f 38280000 		.4byte	.LBB241
 15454 1733 52000000 		.4byte	.LBE241-.LBB241
 15455 1737 17       		.uleb128 0x17
 15456 1738 B6010000 		.4byte	0x1b6
 15457 173c 03       		.uleb128 0x3
 15458 173d 91       		.byte	0x91
 15459 173e E47A     		.sleb128 -668
 15460 1740 17       		.uleb128 0x17
 15461 1741 C2010000 		.4byte	0x1c2
 15462 1745 03       		.uleb128 0x3
 15463 1746 91       		.byte	0x91
 15464 1747 DC7A     		.sleb128 -676
 15465 1749 17       		.uleb128 0x17
 15466 174a CE010000 		.4byte	0x1ce
 15467 174e 03       		.uleb128 0x3
 15468 174f 91       		.byte	0x91
 15469 1750 E07A     		.sleb128 -672
 15470 1752 00       		.byte	0
 15471 1753 00       		.byte	0
 15472 1754 00       		.byte	0
 15473 1755 00       		.byte	0
 15474              		.section	.debug_abbrev,"",%progbits
 15475              	.Ldebug_abbrev0:
 15476 0000 01       		.uleb128 0x1
 15477 0001 11       		.uleb128 0x11
 15478 0002 01       		.byte	0x1
 15479 0003 25       		.uleb128 0x25
 15480 0004 0E       		.uleb128 0xe
 15481 0005 13       		.uleb128 0x13
 15482 0006 0B       		.uleb128 0xb
 15483 0007 03       		.uleb128 0x3
 15484 0008 0E       		.uleb128 0xe
 15485 0009 1B       		.uleb128 0x1b
 15486 000a 0E       		.uleb128 0xe
 15487 000b 55       		.uleb128 0x55
 15488 000c 17       		.uleb128 0x17
 15489 000d 11       		.uleb128 0x11
 15490 000e 01       		.uleb128 0x1
 15491 000f 10       		.uleb128 0x10
 15492 0010 17       		.uleb128 0x17
 15493 0011 00       		.byte	0
 15494 0012 00       		.byte	0
 15495 0013 02       		.uleb128 0x2
 15496 0014 24       		.uleb128 0x24
 15497 0015 00       		.byte	0
 15498 0016 0B       		.uleb128 0xb
 15499 0017 0B       		.uleb128 0xb
 15500 0018 3E       		.uleb128 0x3e
 15501 0019 0B       		.uleb128 0xb
 15502 001a 03       		.uleb128 0x3
 15503 001b 0E       		.uleb128 0xe
 15504 001c 00       		.byte	0
 15505 001d 00       		.byte	0
 15506 001e 03       		.uleb128 0x3
 15507 001f 16       		.uleb128 0x16
 15508 0020 00       		.byte	0
ARM GAS  C:\Users\fneves\AppData\Local\Temp\cc0ayw4Y.s 			page 332


 15509 0021 03       		.uleb128 0x3
 15510 0022 0E       		.uleb128 0xe
 15511 0023 3A       		.uleb128 0x3a
 15512 0024 0B       		.uleb128 0xb
 15513 0025 3B       		.uleb128 0x3b
 15514 0026 0B       		.uleb128 0xb
 15515 0027 49       		.uleb128 0x49
 15516 0028 13       		.uleb128 0x13
 15517 0029 00       		.byte	0
 15518 002a 00       		.byte	0
 15519 002b 04       		.uleb128 0x4
 15520 002c 24       		.uleb128 0x24
 15521 002d 00       		.byte	0
 15522 002e 0B       		.uleb128 0xb
 15523 002f 0B       		.uleb128 0xb
 15524 0030 3E       		.uleb128 0x3e
 15525 0031 0B       		.uleb128 0xb
 15526 0032 03       		.uleb128 0x3
 15527 0033 08       		.uleb128 0x8
 15528 0034 00       		.byte	0
 15529 0035 00       		.byte	0
 15530 0036 05       		.uleb128 0x5
 15531 0037 16       		.uleb128 0x16
 15532 0038 00       		.byte	0
 15533 0039 03       		.uleb128 0x3
 15534 003a 0E       		.uleb128 0xe
 15535 003b 3A       		.uleb128 0x3a
 15536 003c 0B       		.uleb128 0xb
 15537 003d 3B       		.uleb128 0x3b
 15538 003e 05       		.uleb128 0x5
 15539 003f 49       		.uleb128 0x49
 15540 0040 13       		.uleb128 0x13
 15541 0041 00       		.byte	0
 15542 0042 00       		.byte	0
 15543 0043 06       		.uleb128 0x6
 15544 0044 0F       		.uleb128 0xf
 15545 0045 00       		.byte	0
 15546 0046 0B       		.uleb128 0xb
 15547 0047 0B       		.uleb128 0xb
 15548 0048 49       		.uleb128 0x49
 15549 0049 13       		.uleb128 0x13
 15550 004a 00       		.byte	0
 15551 004b 00       		.byte	0
 15552 004c 07       		.uleb128 0x7
 15553 004d 13       		.uleb128 0x13
 15554 004e 01       		.byte	0x1
 15555 004f 0B       		.uleb128 0xb
 15556 0050 0B       		.uleb128 0xb
 15557 0051 3A       		.uleb128 0x3a
 15558 0052 0B       		.uleb128 0xb
 15559 0053 3B       		.uleb128 0x3b
 15560 0054 05       		.uleb128 0x5
 15561 0055 01       		.uleb128 0x1
 15562 0056 13       		.uleb128 0x13
 15563 0057 00       		.byte	0
 15564 0058 00       		.byte	0
 15565 0059 08       		.uleb128 0x8
ARM GAS  C:\Users\fneves\AppData\Local\Temp\cc0ayw4Y.s 			page 333


 15566 005a 0D       		.uleb128 0xd
 15567 005b 00       		.byte	0
 15568 005c 03       		.uleb128 0x3
 15569 005d 0E       		.uleb128 0xe
 15570 005e 3A       		.uleb128 0x3a
 15571 005f 0B       		.uleb128 0xb
 15572 0060 3B       		.uleb128 0x3b
 15573 0061 05       		.uleb128 0x5
 15574 0062 49       		.uleb128 0x49
 15575 0063 13       		.uleb128 0x13
 15576 0064 38       		.uleb128 0x38
 15577 0065 0B       		.uleb128 0xb
 15578 0066 00       		.byte	0
 15579 0067 00       		.byte	0
 15580 0068 09       		.uleb128 0x9
 15581 0069 2E       		.uleb128 0x2e
 15582 006a 01       		.byte	0x1
 15583 006b 03       		.uleb128 0x3
 15584 006c 0E       		.uleb128 0xe
 15585 006d 3A       		.uleb128 0x3a
 15586 006e 0B       		.uleb128 0xb
 15587 006f 3B       		.uleb128 0x3b
 15588 0070 05       		.uleb128 0x5
 15589 0071 27       		.uleb128 0x27
 15590 0072 19       		.uleb128 0x19
 15591 0073 49       		.uleb128 0x49
 15592 0074 13       		.uleb128 0x13
 15593 0075 20       		.uleb128 0x20
 15594 0076 0B       		.uleb128 0xb
 15595 0077 01       		.uleb128 0x1
 15596 0078 13       		.uleb128 0x13
 15597 0079 00       		.byte	0
 15598 007a 00       		.byte	0
 15599 007b 0A       		.uleb128 0xa
 15600 007c 05       		.uleb128 0x5
 15601 007d 00       		.byte	0
 15602 007e 03       		.uleb128 0x3
 15603 007f 08       		.uleb128 0x8
 15604 0080 3A       		.uleb128 0x3a
 15605 0081 0B       		.uleb128 0xb
 15606 0082 3B       		.uleb128 0x3b
 15607 0083 05       		.uleb128 0x5
 15608 0084 49       		.uleb128 0x49
 15609 0085 13       		.uleb128 0x13
 15610 0086 00       		.byte	0
 15611 0087 00       		.byte	0
 15612 0088 0B       		.uleb128 0xb
 15613 0089 34       		.uleb128 0x34
 15614 008a 00       		.byte	0
 15615 008b 03       		.uleb128 0x3
 15616 008c 0E       		.uleb128 0xe
 15617 008d 3A       		.uleb128 0x3a
 15618 008e 0B       		.uleb128 0xb
 15619 008f 3B       		.uleb128 0x3b
 15620 0090 05       		.uleb128 0x5
 15621 0091 49       		.uleb128 0x49
 15622 0092 13       		.uleb128 0x13
ARM GAS  C:\Users\fneves\AppData\Local\Temp\cc0ayw4Y.s 			page 334


 15623 0093 00       		.byte	0
 15624 0094 00       		.byte	0
 15625 0095 0C       		.uleb128 0xc
 15626 0096 34       		.uleb128 0x34
 15627 0097 00       		.byte	0
 15628 0098 03       		.uleb128 0x3
 15629 0099 08       		.uleb128 0x8
 15630 009a 3A       		.uleb128 0x3a
 15631 009b 0B       		.uleb128 0xb
 15632 009c 3B       		.uleb128 0x3b
 15633 009d 05       		.uleb128 0x5
 15634 009e 49       		.uleb128 0x49
 15635 009f 13       		.uleb128 0x13
 15636 00a0 00       		.byte	0
 15637 00a1 00       		.byte	0
 15638 00a2 0D       		.uleb128 0xd
 15639 00a3 2E       		.uleb128 0x2e
 15640 00a4 01       		.byte	0x1
 15641 00a5 3F       		.uleb128 0x3f
 15642 00a6 19       		.uleb128 0x19
 15643 00a7 03       		.uleb128 0x3
 15644 00a8 0E       		.uleb128 0xe
 15645 00a9 3A       		.uleb128 0x3a
 15646 00aa 0B       		.uleb128 0xb
 15647 00ab 3B       		.uleb128 0x3b
 15648 00ac 0B       		.uleb128 0xb
 15649 00ad 27       		.uleb128 0x27
 15650 00ae 19       		.uleb128 0x19
 15651 00af 11       		.uleb128 0x11
 15652 00b0 01       		.uleb128 0x1
 15653 00b1 12       		.uleb128 0x12
 15654 00b2 06       		.uleb128 0x6
 15655 00b3 40       		.uleb128 0x40
 15656 00b4 18       		.uleb128 0x18
 15657 00b5 9642     		.uleb128 0x2116
 15658 00b7 19       		.uleb128 0x19
 15659 00b8 01       		.uleb128 0x1
 15660 00b9 13       		.uleb128 0x13
 15661 00ba 00       		.byte	0
 15662 00bb 00       		.byte	0
 15663 00bc 0E       		.uleb128 0xe
 15664 00bd 05       		.uleb128 0x5
 15665 00be 00       		.byte	0
 15666 00bf 03       		.uleb128 0x3
 15667 00c0 08       		.uleb128 0x8
 15668 00c1 3A       		.uleb128 0x3a
 15669 00c2 0B       		.uleb128 0xb
 15670 00c3 3B       		.uleb128 0x3b
 15671 00c4 0B       		.uleb128 0xb
 15672 00c5 49       		.uleb128 0x49
 15673 00c6 13       		.uleb128 0x13
 15674 00c7 02       		.uleb128 0x2
 15675 00c8 18       		.uleb128 0x18
 15676 00c9 00       		.byte	0
 15677 00ca 00       		.byte	0
 15678 00cb 0F       		.uleb128 0xf
 15679 00cc 05       		.uleb128 0x5
ARM GAS  C:\Users\fneves\AppData\Local\Temp\cc0ayw4Y.s 			page 335


 15680 00cd 00       		.byte	0
 15681 00ce 03       		.uleb128 0x3
 15682 00cf 0E       		.uleb128 0xe
 15683 00d0 3A       		.uleb128 0x3a
 15684 00d1 0B       		.uleb128 0xb
 15685 00d2 3B       		.uleb128 0x3b
 15686 00d3 0B       		.uleb128 0xb
 15687 00d4 49       		.uleb128 0x49
 15688 00d5 13       		.uleb128 0x13
 15689 00d6 02       		.uleb128 0x2
 15690 00d7 18       		.uleb128 0x18
 15691 00d8 00       		.byte	0
 15692 00d9 00       		.byte	0
 15693 00da 10       		.uleb128 0x10
 15694 00db 26       		.uleb128 0x26
 15695 00dc 00       		.byte	0
 15696 00dd 49       		.uleb128 0x49
 15697 00de 13       		.uleb128 0x13
 15698 00df 00       		.byte	0
 15699 00e0 00       		.byte	0
 15700 00e1 11       		.uleb128 0x11
 15701 00e2 2E       		.uleb128 0x2e
 15702 00e3 01       		.byte	0x1
 15703 00e4 3F       		.uleb128 0x3f
 15704 00e5 19       		.uleb128 0x19
 15705 00e6 03       		.uleb128 0x3
 15706 00e7 0E       		.uleb128 0xe
 15707 00e8 3A       		.uleb128 0x3a
 15708 00e9 0B       		.uleb128 0xb
 15709 00ea 3B       		.uleb128 0x3b
 15710 00eb 0B       		.uleb128 0xb
 15711 00ec 27       		.uleb128 0x27
 15712 00ed 19       		.uleb128 0x19
 15713 00ee 11       		.uleb128 0x11
 15714 00ef 01       		.uleb128 0x1
 15715 00f0 12       		.uleb128 0x12
 15716 00f1 06       		.uleb128 0x6
 15717 00f2 40       		.uleb128 0x40
 15718 00f3 18       		.uleb128 0x18
 15719 00f4 9742     		.uleb128 0x2117
 15720 00f6 19       		.uleb128 0x19
 15721 00f7 01       		.uleb128 0x1
 15722 00f8 13       		.uleb128 0x13
 15723 00f9 00       		.byte	0
 15724 00fa 00       		.byte	0
 15725 00fb 12       		.uleb128 0x12
 15726 00fc 34       		.uleb128 0x34
 15727 00fd 00       		.byte	0
 15728 00fe 03       		.uleb128 0x3
 15729 00ff 08       		.uleb128 0x8
 15730 0100 3A       		.uleb128 0x3a
 15731 0101 0B       		.uleb128 0xb
 15732 0102 3B       		.uleb128 0x3b
 15733 0103 05       		.uleb128 0x5
 15734 0104 49       		.uleb128 0x49
 15735 0105 13       		.uleb128 0x13
 15736 0106 02       		.uleb128 0x2
ARM GAS  C:\Users\fneves\AppData\Local\Temp\cc0ayw4Y.s 			page 336


 15737 0107 18       		.uleb128 0x18
 15738 0108 00       		.byte	0
 15739 0109 00       		.byte	0
 15740 010a 13       		.uleb128 0x13
 15741 010b 34       		.uleb128 0x34
 15742 010c 00       		.byte	0
 15743 010d 03       		.uleb128 0x3
 15744 010e 0E       		.uleb128 0xe
 15745 010f 3A       		.uleb128 0x3a
 15746 0110 0B       		.uleb128 0xb
 15747 0111 3B       		.uleb128 0x3b
 15748 0112 05       		.uleb128 0x5
 15749 0113 49       		.uleb128 0x49
 15750 0114 13       		.uleb128 0x13
 15751 0115 02       		.uleb128 0x2
 15752 0116 18       		.uleb128 0x18
 15753 0117 00       		.byte	0
 15754 0118 00       		.byte	0
 15755 0119 14       		.uleb128 0x14
 15756 011a 1D       		.uleb128 0x1d
 15757 011b 01       		.byte	0x1
 15758 011c 31       		.uleb128 0x31
 15759 011d 13       		.uleb128 0x13
 15760 011e 11       		.uleb128 0x11
 15761 011f 01       		.uleb128 0x1
 15762 0120 12       		.uleb128 0x12
 15763 0121 06       		.uleb128 0x6
 15764 0122 58       		.uleb128 0x58
 15765 0123 0B       		.uleb128 0xb
 15766 0124 59       		.uleb128 0x59
 15767 0125 05       		.uleb128 0x5
 15768 0126 01       		.uleb128 0x1
 15769 0127 13       		.uleb128 0x13
 15770 0128 00       		.byte	0
 15771 0129 00       		.byte	0
 15772 012a 15       		.uleb128 0x15
 15773 012b 05       		.uleb128 0x5
 15774 012c 00       		.byte	0
 15775 012d 31       		.uleb128 0x31
 15776 012e 13       		.uleb128 0x13
 15777 012f 02       		.uleb128 0x2
 15778 0130 18       		.uleb128 0x18
 15779 0131 00       		.byte	0
 15780 0132 00       		.byte	0
 15781 0133 16       		.uleb128 0x16
 15782 0134 0B       		.uleb128 0xb
 15783 0135 01       		.byte	0x1
 15784 0136 11       		.uleb128 0x11
 15785 0137 01       		.uleb128 0x1
 15786 0138 12       		.uleb128 0x12
 15787 0139 06       		.uleb128 0x6
 15788 013a 00       		.byte	0
 15789 013b 00       		.byte	0
 15790 013c 17       		.uleb128 0x17
 15791 013d 34       		.uleb128 0x34
 15792 013e 00       		.byte	0
 15793 013f 31       		.uleb128 0x31
ARM GAS  C:\Users\fneves\AppData\Local\Temp\cc0ayw4Y.s 			page 337


 15794 0140 13       		.uleb128 0x13
 15795 0141 02       		.uleb128 0x2
 15796 0142 18       		.uleb128 0x18
 15797 0143 00       		.byte	0
 15798 0144 00       		.byte	0
 15799 0145 18       		.uleb128 0x18
 15800 0146 1D       		.uleb128 0x1d
 15801 0147 01       		.byte	0x1
 15802 0148 31       		.uleb128 0x31
 15803 0149 13       		.uleb128 0x13
 15804 014a 11       		.uleb128 0x11
 15805 014b 01       		.uleb128 0x1
 15806 014c 12       		.uleb128 0x12
 15807 014d 06       		.uleb128 0x6
 15808 014e 58       		.uleb128 0x58
 15809 014f 0B       		.uleb128 0xb
 15810 0150 59       		.uleb128 0x59
 15811 0151 05       		.uleb128 0x5
 15812 0152 00       		.byte	0
 15813 0153 00       		.byte	0
 15814 0154 19       		.uleb128 0x19
 15815 0155 2E       		.uleb128 0x2e
 15816 0156 01       		.byte	0x1
 15817 0157 3F       		.uleb128 0x3f
 15818 0158 19       		.uleb128 0x19
 15819 0159 03       		.uleb128 0x3
 15820 015a 0E       		.uleb128 0xe
 15821 015b 3A       		.uleb128 0x3a
 15822 015c 0B       		.uleb128 0xb
 15823 015d 3B       		.uleb128 0x3b
 15824 015e 05       		.uleb128 0x5
 15825 015f 27       		.uleb128 0x27
 15826 0160 19       		.uleb128 0x19
 15827 0161 11       		.uleb128 0x11
 15828 0162 01       		.uleb128 0x1
 15829 0163 12       		.uleb128 0x12
 15830 0164 06       		.uleb128 0x6
 15831 0165 40       		.uleb128 0x40
 15832 0166 18       		.uleb128 0x18
 15833 0167 9742     		.uleb128 0x2117
 15834 0169 19       		.uleb128 0x19
 15835 016a 00       		.byte	0
 15836 016b 00       		.byte	0
 15837 016c 1A       		.uleb128 0x1a
 15838 016d 05       		.uleb128 0x5
 15839 016e 00       		.byte	0
 15840 016f 03       		.uleb128 0x3
 15841 0170 0E       		.uleb128 0xe
 15842 0171 3A       		.uleb128 0x3a
 15843 0172 0B       		.uleb128 0xb
 15844 0173 3B       		.uleb128 0x3b
 15845 0174 05       		.uleb128 0x5
 15846 0175 49       		.uleb128 0x49
 15847 0176 13       		.uleb128 0x13
 15848 0177 02       		.uleb128 0x2
 15849 0178 18       		.uleb128 0x18
 15850 0179 00       		.byte	0
ARM GAS  C:\Users\fneves\AppData\Local\Temp\cc0ayw4Y.s 			page 338


 15851 017a 00       		.byte	0
 15852 017b 00       		.byte	0
 15853              		.section	.debug_aranges,"",%progbits
 15854 0000 2C000000 		.4byte	0x2c
 15855 0004 0200     		.2byte	0x2
 15856 0006 00000000 		.4byte	.Ldebug_info0
 15857 000a 04       		.byte	0x4
 15858 000b 00       		.byte	0
 15859 000c 0000     		.2byte	0
 15860 000e 0000     		.2byte	0
 15861 0010 00000000 		.4byte	.LFB82
 15862 0014 6E000000 		.4byte	.LFE82-.LFB82
 15863 0018 00000000 		.4byte	.LFB83
 15864 001c DC290000 		.4byte	.LFE83-.LFB83
 15865 0020 00000000 		.4byte	.LFB84
 15866 0024 B8290000 		.4byte	.LFE84-.LFB84
 15867 0028 00000000 		.4byte	0
 15868 002c 00000000 		.4byte	0
 15869              		.section	.debug_ranges,"",%progbits
 15870              	.Ldebug_ranges0:
 15871 0000 00000000 		.4byte	.LFB82
 15872 0004 6E000000 		.4byte	.LFE82
 15873 0008 00000000 		.4byte	.LFB83
 15874 000c DC290000 		.4byte	.LFE83
 15875 0010 00000000 		.4byte	.LFB84
 15876 0014 B8290000 		.4byte	.LFE84
 15877 0018 00000000 		.4byte	0
 15878 001c 00000000 		.4byte	0
 15879              		.section	.debug_line,"",%progbits
 15880              	.Ldebug_line0:
 15881 0000 410B0000 		.section	.debug_str,"MS",%progbits,1
 15881      02005601 
 15881      00000201 
 15881      FB0E0D00 
 15881      01010101 
 15882              	.LASF46:
 15883 0000 5F5F5353 		.ascii	"__SSAT\000"
 15883      415400
 15884              	.LASF35:
 15885 0007 6E65674D 		.ascii	"negMin\000"
 15885      696E00
 15886              	.LASF2:
 15887 000e 5F5F7569 		.ascii	"__uint8_t\000"
 15887      6E74385F 
 15887      7400
 15888              	.LASF12:
 15889 0018 6C6F6E67 		.ascii	"long long unsigned int\000"
 15889      206C6F6E 
 15889      6720756E 
 15889      7369676E 
 15889      65642069 
 15890              	.LASF15:
 15891 002f 696E7431 		.ascii	"int16_t\000"
 15891      365F7400 
 15892              	.LASF11:
 15893 0037 6C6F6E67 		.ascii	"long long int\000"
 15893      206C6F6E 
ARM GAS  C:\Users\fneves\AppData\Local\Temp\cc0ayw4Y.s 			page 339


 15893      6720696E 
 15893      7400
 15894              	.LASF0:
 15895 0045 7369676E 		.ascii	"signed char\000"
 15895      65642063 
 15895      68617200 
 15896              	.LASF8:
 15897 0051 6C6F6E67 		.ascii	"long int\000"
 15897      20696E74 
 15897      00
 15898              	.LASF24:
 15899 005a 7131355F 		.ascii	"q15_t\000"
 15899      7400
 15900              	.LASF30:
 15901 0060 70426974 		.ascii	"pBitRevTable\000"
 15901      52657654 
 15901      61626C65 
 15901      00
 15902              	.LASF16:
 15903 006d 75696E74 		.ascii	"uint16_t\000"
 15903      31365F74 
 15903      00
 15904              	.LASF21:
 15905 0076 646F7562 		.ascii	"double\000"
 15905      6C6500
 15906              	.LASF47:
 15907 007d 61726D5F 		.ascii	"arm_radix4_butterfly_inverse_q15\000"
 15907      72616469 
 15907      78345F62 
 15907      75747465 
 15907      72666C79 
 15908              	.LASF9:
 15909 009e 5F5F7569 		.ascii	"__uint32_t\000"
 15909      6E743332 
 15909      5F7400
 15910              	.LASF3:
 15911 00a9 5F5F696E 		.ascii	"__int16_t\000"
 15911      7431365F 
 15911      7400
 15912              	.LASF26:
 15913 00b3 6666744C 		.ascii	"fftLen\000"
 15913      656E00
 15914              	.LASF13:
 15915 00ba 756E7369 		.ascii	"unsigned int\000"
 15915      676E6564 
 15915      20696E74 
 15915      00
 15916              	.LASF36:
 15917 00c7 70537263 		.ascii	"pSrc\000"
 15917      00
 15918              	.LASF10:
 15919 00cc 6C6F6E67 		.ascii	"long unsigned int\000"
 15919      20756E73 
 15919      69676E65 
 15919      6420696E 
 15919      7400
 15920              	.LASF43:
ARM GAS  C:\Users\fneves\AppData\Local\Temp\cc0ayw4Y.s 			page 340


 15921 00de 474E5520 		.ascii	"GNU C 4.9.3 20150303 (release) [ARM/embedded-4_9-br"
 15921      4320342E 
 15921      392E3320 
 15921      32303135 
 15921      30333033 
 15922 0111 616E6368 		.ascii	"anch revision 221220] -mcpu=cortex-m0plus -mthumb -"
 15922      20726576 
 15922      6973696F 
 15922      6E203232 
 15922      31323230 
 15923 0144 67202D4F 		.ascii	"g -O0 -ffunction-sections -ffat-lto-objects\000"
 15923      30202D66 
 15923      66756E63 
 15923      74696F6E 
 15923      2D736563 
 15924              	.LASF6:
 15925 0170 73686F72 		.ascii	"short unsigned int\000"
 15925      7420756E 
 15925      7369676E 
 15925      65642069 
 15925      6E7400
 15926              	.LASF32:
 15927 0183 62697452 		.ascii	"bitRevFactor\000"
 15927      65764661 
 15927      63746F72 
 15927      00
 15928              	.LASF37:
 15929 0190 61726D5F 		.ascii	"arm_cfft_radix4_q15\000"
 15929      63666674 
 15929      5F726164 
 15929      6978345F 
 15929      71313500 
 15930              	.LASF41:
 15931 01a4 6F757431 		.ascii	"out1\000"
 15931      00
 15932              	.LASF42:
 15933 01a9 6F757432 		.ascii	"out2\000"
 15933      00
 15934              	.LASF19:
 15935 01ae 73697A65 		.ascii	"sizetype\000"
 15935      74797065 
 15935      00
 15936              	.LASF23:
 15937 01b7 6C6F6E67 		.ascii	"long double\000"
 15937      20646F75 
 15937      626C6500 
 15938              	.LASF28:
 15939 01c3 62697452 		.ascii	"bitReverseFlag\000"
 15939      65766572 
 15939      7365466C 
 15939      616700
 15940              	.LASF22:
 15941 01d2 666C6F61 		.ascii	"float\000"
 15941      7400
 15942              	.LASF39:
 15943 01d8 70537263 		.ascii	"pSrc16\000"
 15943      313600
ARM GAS  C:\Users\fneves\AppData\Local\Temp\cc0ayw4Y.s 			page 341


 15944              	.LASF17:
 15945 01df 696E7433 		.ascii	"int32_t\000"
 15945      325F7400 
 15946              	.LASF1:
 15947 01e7 756E7369 		.ascii	"unsigned char\000"
 15947      676E6564 
 15947      20636861 
 15947      7200
 15948              	.LASF4:
 15949 01f5 73686F72 		.ascii	"short int\000"
 15949      7420696E 
 15949      7400
 15950              	.LASF45:
 15951 01ff 433A5C55 		.ascii	"C:\\Users\\fneves\\Documents\\PSoC Creator\\wp_1\\e"
 15951      73657273 
 15951      5C666E65 
 15951      7665735C 
 15951      446F6375 
 15952 022c 6E67696E 		.ascii	"ngine_speed_sensor.cydsn\000"
 15952      655F7370 
 15952      6565645F 
 15952      73656E73 
 15952      6F722E63 
 15953              	.LASF25:
 15954 0245 7133315F 		.ascii	"q31_t\000"
 15954      7400
 15955              	.LASF18:
 15956 024b 75696E74 		.ascii	"uint32_t\000"
 15956      33325F74 
 15956      00
 15957              	.LASF34:
 15958 0254 706F734D 		.ascii	"posMax\000"
 15958      617800
 15959              	.LASF20:
 15960 025b 63686172 		.ascii	"char\000"
 15960      00
 15961              	.LASF5:
 15962 0260 5F5F7569 		.ascii	"__uint16_t\000"
 15962      6E743136 
 15962      5F7400
 15963              	.LASF7:
 15964 026b 5F5F696E 		.ascii	"__int32_t\000"
 15964      7433325F 
 15964      7400
 15965              	.LASF40:
 15966 0275 70436F65 		.ascii	"pCoef16\000"
 15966      66313600 
 15967              	.LASF33:
 15968 027d 61726D5F 		.ascii	"arm_cfft_radix4_instance_q15\000"
 15968      63666674 
 15968      5F726164 
 15968      6978345F 
 15968      696E7374 
 15969              	.LASF29:
 15970 029a 70547769 		.ascii	"pTwiddle\000"
 15970      64646C65 
 15970      00
ARM GAS  C:\Users\fneves\AppData\Local\Temp\cc0ayw4Y.s 			page 342


 15971              	.LASF44:
 15972 02a3 536F7572 		.ascii	"Source\\TransformFunctions\\arm_cfft_radix4_q15.c\000"
 15972      63655C54 
 15972      72616E73 
 15972      666F726D 
 15972      46756E63 
 15973              	.LASF14:
 15974 02d3 75696E74 		.ascii	"uint8_t\000"
 15974      385F7400 
 15975              	.LASF31:
 15976 02db 74776964 		.ascii	"twidCoefModifier\000"
 15976      436F6566 
 15976      4D6F6469 
 15976      66696572 
 15976      00
 15977              	.LASF38:
 15978 02ec 61726D5F 		.ascii	"arm_radix4_butterfly_q15\000"
 15978      72616469 
 15978      78345F62 
 15978      75747465 
 15978      72666C79 
 15979              	.LASF27:
 15980 0305 69666674 		.ascii	"ifftFlag\000"
 15980      466C6167 
 15980      00
 15981              		.ident	"GCC: (GNU Tools for ARM Embedded Processors) 4.9.3 20150303 (release) [ARM/embedded-4_9-br
