ARM GAS  C:\Users\fneves\AppData\Local\Temp\ccCX8F1S.s 			page 1


   1              		.cpu cortex-m0plus
   2              		.fpu softvfp
   3              		.eabi_attribute 20, 1
   4              		.eabi_attribute 21, 1
   5              		.eabi_attribute 23, 3
   6              		.eabi_attribute 24, 1
   7              		.eabi_attribute 25, 1
   8              		.eabi_attribute 26, 1
   9              		.eabi_attribute 30, 6
  10              		.eabi_attribute 34, 0
  11              		.eabi_attribute 18, 4
  12              		.code	16
  13              		.file	"arm_mat_cmplx_mult_f32.c"
  14              		.text
  15              	.Ltext0:
  16              		.cfi_sections	.debug_frame
  17              		.global	__aeabi_fmul
  18              		.global	__aeabi_fadd
  19              		.global	__aeabi_fsub
  20              		.section	.text.arm_mat_cmplx_mult_f32,"ax",%progbits
  21              		.align	2
  22              		.global	arm_mat_cmplx_mult_f32
  23              		.code	16
  24              		.thumb_func
  25              		.type	arm_mat_cmplx_mult_f32, %function
  26              	arm_mat_cmplx_mult_f32:
  27              	.LFB82:
  28              		.file 1 "Source\\MatrixFunctions\\arm_mat_cmplx_mult_f32.c"
   1:Source\MatrixFunctions/arm_mat_cmplx_mult_f32.c **** /* ----------------------------------------------------------------------
   2:Source\MatrixFunctions/arm_mat_cmplx_mult_f32.c ****  * Project:      CMSIS DSP Library
   3:Source\MatrixFunctions/arm_mat_cmplx_mult_f32.c ****  * Title:        arm_mat_cmplx_mult_f32.c
   4:Source\MatrixFunctions/arm_mat_cmplx_mult_f32.c ****  * Description:  Floating-point matrix multiplication
   5:Source\MatrixFunctions/arm_mat_cmplx_mult_f32.c ****  *
   6:Source\MatrixFunctions/arm_mat_cmplx_mult_f32.c ****  * $Date:        27. January 2017
   7:Source\MatrixFunctions/arm_mat_cmplx_mult_f32.c ****  * $Revision:    V.1.5.1
   8:Source\MatrixFunctions/arm_mat_cmplx_mult_f32.c ****  *
   9:Source\MatrixFunctions/arm_mat_cmplx_mult_f32.c ****  * Target Processor: Cortex-M cores
  10:Source\MatrixFunctions/arm_mat_cmplx_mult_f32.c ****  * -------------------------------------------------------------------- */
  11:Source\MatrixFunctions/arm_mat_cmplx_mult_f32.c **** /*
  12:Source\MatrixFunctions/arm_mat_cmplx_mult_f32.c ****  * Copyright (C) 2010-2017 ARM Limited or its affiliates. All rights reserved.
  13:Source\MatrixFunctions/arm_mat_cmplx_mult_f32.c ****  *
  14:Source\MatrixFunctions/arm_mat_cmplx_mult_f32.c ****  * SPDX-License-Identifier: Apache-2.0
  15:Source\MatrixFunctions/arm_mat_cmplx_mult_f32.c ****  *
  16:Source\MatrixFunctions/arm_mat_cmplx_mult_f32.c ****  * Licensed under the Apache License, Version 2.0 (the License); you may
  17:Source\MatrixFunctions/arm_mat_cmplx_mult_f32.c ****  * not use this file except in compliance with the License.
  18:Source\MatrixFunctions/arm_mat_cmplx_mult_f32.c ****  * You may obtain a copy of the License at
  19:Source\MatrixFunctions/arm_mat_cmplx_mult_f32.c ****  *
  20:Source\MatrixFunctions/arm_mat_cmplx_mult_f32.c ****  * www.apache.org/licenses/LICENSE-2.0
  21:Source\MatrixFunctions/arm_mat_cmplx_mult_f32.c ****  *
  22:Source\MatrixFunctions/arm_mat_cmplx_mult_f32.c ****  * Unless required by applicable law or agreed to in writing, software
  23:Source\MatrixFunctions/arm_mat_cmplx_mult_f32.c ****  * distributed under the License is distributed on an AS IS BASIS, WITHOUT
  24:Source\MatrixFunctions/arm_mat_cmplx_mult_f32.c ****  * WARRANTIES OR CONDITIONS OF ANY KIND, either express or implied.
  25:Source\MatrixFunctions/arm_mat_cmplx_mult_f32.c ****  * See the License for the specific language governing permissions and
  26:Source\MatrixFunctions/arm_mat_cmplx_mult_f32.c ****  * limitations under the License.
  27:Source\MatrixFunctions/arm_mat_cmplx_mult_f32.c ****  */
  28:Source\MatrixFunctions/arm_mat_cmplx_mult_f32.c **** 
  29:Source\MatrixFunctions/arm_mat_cmplx_mult_f32.c **** #include "arm_math.h"
ARM GAS  C:\Users\fneves\AppData\Local\Temp\ccCX8F1S.s 			page 2


  30:Source\MatrixFunctions/arm_mat_cmplx_mult_f32.c **** 
  31:Source\MatrixFunctions/arm_mat_cmplx_mult_f32.c **** /**
  32:Source\MatrixFunctions/arm_mat_cmplx_mult_f32.c ****  * @ingroup groupMatrix
  33:Source\MatrixFunctions/arm_mat_cmplx_mult_f32.c ****  */
  34:Source\MatrixFunctions/arm_mat_cmplx_mult_f32.c **** 
  35:Source\MatrixFunctions/arm_mat_cmplx_mult_f32.c **** /**
  36:Source\MatrixFunctions/arm_mat_cmplx_mult_f32.c ****  * @defgroup CmplxMatrixMult  Complex Matrix Multiplication
  37:Source\MatrixFunctions/arm_mat_cmplx_mult_f32.c ****  *
  38:Source\MatrixFunctions/arm_mat_cmplx_mult_f32.c ****  * Complex Matrix multiplication is only defined if the number of columns of the
  39:Source\MatrixFunctions/arm_mat_cmplx_mult_f32.c ****  * first matrix equals the number of rows of the second matrix.
  40:Source\MatrixFunctions/arm_mat_cmplx_mult_f32.c ****  * Multiplying an <code>M x N</code> matrix with an <code>N x P</code> matrix results
  41:Source\MatrixFunctions/arm_mat_cmplx_mult_f32.c ****  * in an <code>M x P</code> matrix.
  42:Source\MatrixFunctions/arm_mat_cmplx_mult_f32.c ****  * When matrix size checking is enabled, the functions check: (1) that the inner dimensions of
  43:Source\MatrixFunctions/arm_mat_cmplx_mult_f32.c ****  * <code>pSrcA</code> and <code>pSrcB</code> are equal; and (2) that the size of the output
  44:Source\MatrixFunctions/arm_mat_cmplx_mult_f32.c ****  * matrix equals the outer dimensions of <code>pSrcA</code> and <code>pSrcB</code>.
  45:Source\MatrixFunctions/arm_mat_cmplx_mult_f32.c ****  */
  46:Source\MatrixFunctions/arm_mat_cmplx_mult_f32.c **** 
  47:Source\MatrixFunctions/arm_mat_cmplx_mult_f32.c **** 
  48:Source\MatrixFunctions/arm_mat_cmplx_mult_f32.c **** /**
  49:Source\MatrixFunctions/arm_mat_cmplx_mult_f32.c ****  * @addtogroup CmplxMatrixMult
  50:Source\MatrixFunctions/arm_mat_cmplx_mult_f32.c ****  * @{
  51:Source\MatrixFunctions/arm_mat_cmplx_mult_f32.c ****  */
  52:Source\MatrixFunctions/arm_mat_cmplx_mult_f32.c **** 
  53:Source\MatrixFunctions/arm_mat_cmplx_mult_f32.c **** /**
  54:Source\MatrixFunctions/arm_mat_cmplx_mult_f32.c ****  * @brief Floating-point Complex matrix multiplication.
  55:Source\MatrixFunctions/arm_mat_cmplx_mult_f32.c ****  * @param[in]       *pSrcA points to the first input complex matrix structure
  56:Source\MatrixFunctions/arm_mat_cmplx_mult_f32.c ****  * @param[in]       *pSrcB points to the second input complex matrix structure
  57:Source\MatrixFunctions/arm_mat_cmplx_mult_f32.c ****  * @param[out]      *pDst points to output complex matrix structure
  58:Source\MatrixFunctions/arm_mat_cmplx_mult_f32.c ****  * @return     		The function returns either
  59:Source\MatrixFunctions/arm_mat_cmplx_mult_f32.c ****  * <code>ARM_MATH_SIZE_MISMATCH</code> or <code>ARM_MATH_SUCCESS</code> based on the outcome of siz
  60:Source\MatrixFunctions/arm_mat_cmplx_mult_f32.c ****  */
  61:Source\MatrixFunctions/arm_mat_cmplx_mult_f32.c **** 
  62:Source\MatrixFunctions/arm_mat_cmplx_mult_f32.c **** arm_status arm_mat_cmplx_mult_f32(
  63:Source\MatrixFunctions/arm_mat_cmplx_mult_f32.c ****   const arm_matrix_instance_f32 * pSrcA,
  64:Source\MatrixFunctions/arm_mat_cmplx_mult_f32.c ****   const arm_matrix_instance_f32 * pSrcB,
  65:Source\MatrixFunctions/arm_mat_cmplx_mult_f32.c ****   arm_matrix_instance_f32 * pDst)
  66:Source\MatrixFunctions/arm_mat_cmplx_mult_f32.c **** {
  29              		.loc 1 66 0
  30              		.cfi_startproc
  31 0000 80B5     		push	{r7, lr}
  32              		.cfi_def_cfa_offset 8
  33              		.cfi_offset 7, -8
  34              		.cfi_offset 14, -4
  35 0002 9CB0     		sub	sp, sp, #112
  36              		.cfi_def_cfa_offset 120
  37 0004 00AF     		add	r7, sp, #0
  38              		.cfi_def_cfa_register 7
  39 0006 F860     		str	r0, [r7, #12]
  40 0008 B960     		str	r1, [r7, #8]
  41 000a 7A60     		str	r2, [r7, #4]
  67:Source\MatrixFunctions/arm_mat_cmplx_mult_f32.c ****   float32_t *pIn1 = pSrcA->pData;                /* input data matrix pointer A */
  42              		.loc 1 67 0
  43 000c FB68     		ldr	r3, [r7, #12]
  44 000e 5B68     		ldr	r3, [r3, #4]
  45 0010 FB66     		str	r3, [r7, #108]
  68:Source\MatrixFunctions/arm_mat_cmplx_mult_f32.c ****   float32_t *pIn2 = pSrcB->pData;                /* input data matrix pointer B */
  46              		.loc 1 68 0
ARM GAS  C:\Users\fneves\AppData\Local\Temp\ccCX8F1S.s 			page 3


  47 0012 BB68     		ldr	r3, [r7, #8]
  48 0014 5B68     		ldr	r3, [r3, #4]
  49 0016 BB66     		str	r3, [r7, #104]
  69:Source\MatrixFunctions/arm_mat_cmplx_mult_f32.c ****   float32_t *pInA = pSrcA->pData;                /* input data matrix pointer A  */
  50              		.loc 1 69 0
  51 0018 FB68     		ldr	r3, [r7, #12]
  52 001a 5B68     		ldr	r3, [r3, #4]
  53 001c 7B66     		str	r3, [r7, #100]
  70:Source\MatrixFunctions/arm_mat_cmplx_mult_f32.c ****   float32_t *pOut = pDst->pData;                 /* output data matrix pointer */
  54              		.loc 1 70 0
  55 001e 7B68     		ldr	r3, [r7, #4]
  56 0020 5B68     		ldr	r3, [r3, #4]
  57 0022 3B64     		str	r3, [r7, #64]
  71:Source\MatrixFunctions/arm_mat_cmplx_mult_f32.c ****   float32_t *px;                                 /* Temporary output data matrix pointer */
  72:Source\MatrixFunctions/arm_mat_cmplx_mult_f32.c ****   uint16_t numRowsA = pSrcA->numRows;            /* number of rows of input matrix A */
  58              		.loc 1 72 0
  59 0024 3E23     		mov	r3, #62
  60 0026 FB18     		add	r3, r7, r3
  61 0028 FA68     		ldr	r2, [r7, #12]
  62 002a 1288     		ldrh	r2, [r2]
  63 002c 1A80     		strh	r2, [r3]
  73:Source\MatrixFunctions/arm_mat_cmplx_mult_f32.c ****   uint16_t numColsB = pSrcB->numCols;            /* number of columns of input matrix B */
  64              		.loc 1 73 0
  65 002e 3C23     		mov	r3, #60
  66 0030 FB18     		add	r3, r7, r3
  67 0032 BA68     		ldr	r2, [r7, #8]
  68 0034 5288     		ldrh	r2, [r2, #2]
  69 0036 1A80     		strh	r2, [r3]
  74:Source\MatrixFunctions/arm_mat_cmplx_mult_f32.c ****   uint16_t numColsA = pSrcA->numCols;            /* number of columns of input matrix A */
  70              		.loc 1 74 0
  71 0038 3A23     		mov	r3, #58
  72 003a FB18     		add	r3, r7, r3
  73 003c FA68     		ldr	r2, [r7, #12]
  74 003e 5288     		ldrh	r2, [r2, #2]
  75 0040 1A80     		strh	r2, [r3]
  75:Source\MatrixFunctions/arm_mat_cmplx_mult_f32.c ****   float32_t sumReal1, sumImag1;                  /* accumulator */
  76:Source\MatrixFunctions/arm_mat_cmplx_mult_f32.c ****   float32_t a0, b0, c0, d0;
  77:Source\MatrixFunctions/arm_mat_cmplx_mult_f32.c ****   float32_t a1, b1, c1, d1;
  78:Source\MatrixFunctions/arm_mat_cmplx_mult_f32.c ****   float32_t sumReal2, sumImag2;                  /* accumulator */
  79:Source\MatrixFunctions/arm_mat_cmplx_mult_f32.c **** 
  80:Source\MatrixFunctions/arm_mat_cmplx_mult_f32.c **** 
  81:Source\MatrixFunctions/arm_mat_cmplx_mult_f32.c ****   /* Run the below code for Cortex-M4 and Cortex-M3 */
  82:Source\MatrixFunctions/arm_mat_cmplx_mult_f32.c **** 
  83:Source\MatrixFunctions/arm_mat_cmplx_mult_f32.c ****   uint16_t col, i = 0u, j, row = numRowsA, colCnt;      /* loop counters */
  76              		.loc 1 83 0
  77 0042 4C23     		mov	r3, #76
  78 0044 FB18     		add	r3, r7, r3
  79 0046 0022     		mov	r2, #0
  80 0048 1A80     		strh	r2, [r3]
  81 004a 4823     		mov	r3, #72
  82 004c FB18     		add	r3, r7, r3
  83 004e 3E22     		mov	r2, #62
  84 0050 BA18     		add	r2, r7, r2
  85 0052 1288     		ldrh	r2, [r2]
  86 0054 1A80     		strh	r2, [r3]
  87              	.L7:
  84:Source\MatrixFunctions/arm_mat_cmplx_mult_f32.c ****   arm_status status;                             /* status of matrix multiplication */
ARM GAS  C:\Users\fneves\AppData\Local\Temp\ccCX8F1S.s 			page 4


  85:Source\MatrixFunctions/arm_mat_cmplx_mult_f32.c **** 
  86:Source\MatrixFunctions/arm_mat_cmplx_mult_f32.c **** #ifdef ARM_MATH_MATRIX_CHECK
  87:Source\MatrixFunctions/arm_mat_cmplx_mult_f32.c **** 
  88:Source\MatrixFunctions/arm_mat_cmplx_mult_f32.c **** 
  89:Source\MatrixFunctions/arm_mat_cmplx_mult_f32.c ****   /* Check for matrix mismatch condition */
  90:Source\MatrixFunctions/arm_mat_cmplx_mult_f32.c ****   if ((pSrcA->numCols != pSrcB->numRows) ||
  91:Source\MatrixFunctions/arm_mat_cmplx_mult_f32.c ****      (pSrcA->numRows != pDst->numRows) || (pSrcB->numCols != pDst->numCols))
  92:Source\MatrixFunctions/arm_mat_cmplx_mult_f32.c ****   {
  93:Source\MatrixFunctions/arm_mat_cmplx_mult_f32.c **** 
  94:Source\MatrixFunctions/arm_mat_cmplx_mult_f32.c ****     /* Set status as ARM_MATH_SIZE_MISMATCH */
  95:Source\MatrixFunctions/arm_mat_cmplx_mult_f32.c ****     status = ARM_MATH_SIZE_MISMATCH;
  96:Source\MatrixFunctions/arm_mat_cmplx_mult_f32.c ****   }
  97:Source\MatrixFunctions/arm_mat_cmplx_mult_f32.c ****   else
  98:Source\MatrixFunctions/arm_mat_cmplx_mult_f32.c **** #endif /*      #ifdef ARM_MATH_MATRIX_CHECK    */
  99:Source\MatrixFunctions/arm_mat_cmplx_mult_f32.c **** 
 100:Source\MatrixFunctions/arm_mat_cmplx_mult_f32.c ****   {
 101:Source\MatrixFunctions/arm_mat_cmplx_mult_f32.c ****     /* The following loop performs the dot-product of each row in pSrcA with each column in pSrcB *
 102:Source\MatrixFunctions/arm_mat_cmplx_mult_f32.c ****     /* row loop */
 103:Source\MatrixFunctions/arm_mat_cmplx_mult_f32.c ****     do
 104:Source\MatrixFunctions/arm_mat_cmplx_mult_f32.c ****     {
 105:Source\MatrixFunctions/arm_mat_cmplx_mult_f32.c ****       /* Output pointer is set to starting address of the row being processed */
 106:Source\MatrixFunctions/arm_mat_cmplx_mult_f32.c ****       px = pOut + 2 * i;
  88              		.loc 1 106 0
  89 0056 4C23     		mov	r3, #76
  90 0058 FB18     		add	r3, r7, r3
  91 005a 1B88     		ldrh	r3, [r3]
  92 005c DB00     		lsl	r3, r3, #3
  93 005e 1A1C     		mov	r2, r3
  94 0060 3B6C     		ldr	r3, [r7, #64]
  95 0062 9B18     		add	r3, r3, r2
  96 0064 3B66     		str	r3, [r7, #96]
 107:Source\MatrixFunctions/arm_mat_cmplx_mult_f32.c **** 
 108:Source\MatrixFunctions/arm_mat_cmplx_mult_f32.c ****       /* For every row wise process, the column loop counter is to be initiated */
 109:Source\MatrixFunctions/arm_mat_cmplx_mult_f32.c ****       col = numColsB;
  97              		.loc 1 109 0
  98 0066 4E23     		mov	r3, #78
  99 0068 FB18     		add	r3, r7, r3
 100 006a 3C22     		mov	r2, #60
 101 006c BA18     		add	r2, r7, r2
 102 006e 1288     		ldrh	r2, [r2]
 103 0070 1A80     		strh	r2, [r3]
 110:Source\MatrixFunctions/arm_mat_cmplx_mult_f32.c **** 
 111:Source\MatrixFunctions/arm_mat_cmplx_mult_f32.c ****       /* For every row wise process, the pIn2 pointer is set
 112:Source\MatrixFunctions/arm_mat_cmplx_mult_f32.c ****        ** to the starting address of the pSrcB data */
 113:Source\MatrixFunctions/arm_mat_cmplx_mult_f32.c ****       pIn2 = pSrcB->pData;
 104              		.loc 1 113 0
 105 0072 BB68     		ldr	r3, [r7, #8]
 106 0074 5B68     		ldr	r3, [r3, #4]
 107 0076 BB66     		str	r3, [r7, #104]
 114:Source\MatrixFunctions/arm_mat_cmplx_mult_f32.c **** 
 115:Source\MatrixFunctions/arm_mat_cmplx_mult_f32.c ****       j = 0u;
 108              		.loc 1 115 0
 109 0078 4A23     		mov	r3, #74
 110 007a FB18     		add	r3, r7, r3
 111 007c 0022     		mov	r2, #0
 112 007e 1A80     		strh	r2, [r3]
 113              	.L6:
ARM GAS  C:\Users\fneves\AppData\Local\Temp\ccCX8F1S.s 			page 5


 116:Source\MatrixFunctions/arm_mat_cmplx_mult_f32.c **** 
 117:Source\MatrixFunctions/arm_mat_cmplx_mult_f32.c ****       /* column loop */
 118:Source\MatrixFunctions/arm_mat_cmplx_mult_f32.c ****       do
 119:Source\MatrixFunctions/arm_mat_cmplx_mult_f32.c ****       {
 120:Source\MatrixFunctions/arm_mat_cmplx_mult_f32.c ****         /* Set the variable sum, that acts as accumulator, to zero */
 121:Source\MatrixFunctions/arm_mat_cmplx_mult_f32.c ****         sumReal1 = 0.0f;
 114              		.loc 1 121 0
 115 0080 0023     		mov	r3, #0
 116 0082 FB65     		str	r3, [r7, #92]
 122:Source\MatrixFunctions/arm_mat_cmplx_mult_f32.c ****         sumImag1 = 0.0f;
 117              		.loc 1 122 0
 118 0084 0023     		mov	r3, #0
 119 0086 BB65     		str	r3, [r7, #88]
 123:Source\MatrixFunctions/arm_mat_cmplx_mult_f32.c **** 
 124:Source\MatrixFunctions/arm_mat_cmplx_mult_f32.c ****         sumReal2 = 0.0f;
 120              		.loc 1 124 0
 121 0088 0023     		mov	r3, #0
 122 008a 7B65     		str	r3, [r7, #84]
 125:Source\MatrixFunctions/arm_mat_cmplx_mult_f32.c ****         sumImag2 = 0.0f;
 123              		.loc 1 125 0
 124 008c 0023     		mov	r3, #0
 125 008e 3B65     		str	r3, [r7, #80]
 126:Source\MatrixFunctions/arm_mat_cmplx_mult_f32.c **** 
 127:Source\MatrixFunctions/arm_mat_cmplx_mult_f32.c ****         /* Initiate the pointer pIn1 to point to the starting address of the column being processed
 128:Source\MatrixFunctions/arm_mat_cmplx_mult_f32.c ****         pIn1 = pInA;
 126              		.loc 1 128 0
 127 0090 7B6E     		ldr	r3, [r7, #100]
 128 0092 FB66     		str	r3, [r7, #108]
 129:Source\MatrixFunctions/arm_mat_cmplx_mult_f32.c **** 
 130:Source\MatrixFunctions/arm_mat_cmplx_mult_f32.c ****         /* Apply loop unrolling and compute 4 MACs simultaneously. */
 131:Source\MatrixFunctions/arm_mat_cmplx_mult_f32.c ****         colCnt = numColsA >> 2;
 129              		.loc 1 131 0
 130 0094 4623     		mov	r3, #70
 131 0096 FB18     		add	r3, r7, r3
 132 0098 3A22     		mov	r2, #58
 133 009a BA18     		add	r2, r7, r2
 134 009c 1288     		ldrh	r2, [r2]
 135 009e 9208     		lsr	r2, r2, #2
 136 00a0 1A80     		strh	r2, [r3]
 132:Source\MatrixFunctions/arm_mat_cmplx_mult_f32.c **** 
 133:Source\MatrixFunctions/arm_mat_cmplx_mult_f32.c ****         /* matrix multiplication        */
 134:Source\MatrixFunctions/arm_mat_cmplx_mult_f32.c ****         while (colCnt > 0u)
 137              		.loc 1 134 0
 138 00a2 12E1     		b	.L2
 139              	.L3:
 135:Source\MatrixFunctions/arm_mat_cmplx_mult_f32.c ****         {
 136:Source\MatrixFunctions/arm_mat_cmplx_mult_f32.c **** 
 137:Source\MatrixFunctions/arm_mat_cmplx_mult_f32.c ****           /* Reading real part of complex matrix A */
 138:Source\MatrixFunctions/arm_mat_cmplx_mult_f32.c ****           a0 = *pIn1;
 140              		.loc 1 138 0
 141 00a4 FB6E     		ldr	r3, [r7, #108]
 142 00a6 1B68     		ldr	r3, [r3]
 143 00a8 7B63     		str	r3, [r7, #52]
 139:Source\MatrixFunctions/arm_mat_cmplx_mult_f32.c **** 
 140:Source\MatrixFunctions/arm_mat_cmplx_mult_f32.c ****           /* Reading real part of complex matrix B */
 141:Source\MatrixFunctions/arm_mat_cmplx_mult_f32.c ****           c0 = *pIn2;
 144              		.loc 1 141 0
ARM GAS  C:\Users\fneves\AppData\Local\Temp\ccCX8F1S.s 			page 6


 145 00aa BB6E     		ldr	r3, [r7, #104]
 146 00ac 1B68     		ldr	r3, [r3]
 147 00ae 3B63     		str	r3, [r7, #48]
 142:Source\MatrixFunctions/arm_mat_cmplx_mult_f32.c **** 
 143:Source\MatrixFunctions/arm_mat_cmplx_mult_f32.c ****           /* Reading imaginary part of complex matrix A */
 144:Source\MatrixFunctions/arm_mat_cmplx_mult_f32.c ****           b0 = *(pIn1 + 1u);
 148              		.loc 1 144 0
 149 00b0 FB6E     		ldr	r3, [r7, #108]
 150 00b2 5B68     		ldr	r3, [r3, #4]
 151 00b4 FB62     		str	r3, [r7, #44]
 145:Source\MatrixFunctions/arm_mat_cmplx_mult_f32.c **** 
 146:Source\MatrixFunctions/arm_mat_cmplx_mult_f32.c ****           /* Reading imaginary part of complex matrix B */
 147:Source\MatrixFunctions/arm_mat_cmplx_mult_f32.c ****           d0 = *(pIn2 + 1u);
 152              		.loc 1 147 0
 153 00b6 BB6E     		ldr	r3, [r7, #104]
 154 00b8 5B68     		ldr	r3, [r3, #4]
 155 00ba BB62     		str	r3, [r7, #40]
 148:Source\MatrixFunctions/arm_mat_cmplx_mult_f32.c **** 
 149:Source\MatrixFunctions/arm_mat_cmplx_mult_f32.c ****           sumReal1 += a0 * c0;
 156              		.loc 1 149 0
 157 00bc 786B     		ldr	r0, [r7, #52]
 158 00be 396B     		ldr	r1, [r7, #48]
 159 00c0 FFF7FEFF 		bl	__aeabi_fmul
 160 00c4 031C     		add	r3, r0, #0
 161 00c6 F86D     		ldr	r0, [r7, #92]
 162 00c8 191C     		add	r1, r3, #0
 163 00ca FFF7FEFF 		bl	__aeabi_fadd
 164 00ce 031C     		add	r3, r0, #0
 165 00d0 FB65     		str	r3, [r7, #92]
 150:Source\MatrixFunctions/arm_mat_cmplx_mult_f32.c ****           sumImag1 += b0 * c0;
 166              		.loc 1 150 0
 167 00d2 F86A     		ldr	r0, [r7, #44]
 168 00d4 396B     		ldr	r1, [r7, #48]
 169 00d6 FFF7FEFF 		bl	__aeabi_fmul
 170 00da 031C     		add	r3, r0, #0
 171 00dc B86D     		ldr	r0, [r7, #88]
 172 00de 191C     		add	r1, r3, #0
 173 00e0 FFF7FEFF 		bl	__aeabi_fadd
 174 00e4 031C     		add	r3, r0, #0
 175 00e6 BB65     		str	r3, [r7, #88]
 151:Source\MatrixFunctions/arm_mat_cmplx_mult_f32.c **** 
 152:Source\MatrixFunctions/arm_mat_cmplx_mult_f32.c ****           pIn1 += 2u;
 176              		.loc 1 152 0
 177 00e8 FB6E     		ldr	r3, [r7, #108]
 178 00ea 0833     		add	r3, r3, #8
 179 00ec FB66     		str	r3, [r7, #108]
 153:Source\MatrixFunctions/arm_mat_cmplx_mult_f32.c ****           pIn2 += 2 * numColsB;
 180              		.loc 1 153 0
 181 00ee 3C23     		mov	r3, #60
 182 00f0 FB18     		add	r3, r7, r3
 183 00f2 1B88     		ldrh	r3, [r3]
 184 00f4 DB00     		lsl	r3, r3, #3
 185 00f6 1A1C     		mov	r2, r3
 186 00f8 BB6E     		ldr	r3, [r7, #104]
 187 00fa 9B18     		add	r3, r3, r2
 188 00fc BB66     		str	r3, [r7, #104]
 154:Source\MatrixFunctions/arm_mat_cmplx_mult_f32.c **** 
ARM GAS  C:\Users\fneves\AppData\Local\Temp\ccCX8F1S.s 			page 7


 155:Source\MatrixFunctions/arm_mat_cmplx_mult_f32.c ****           sumReal2 -= b0 * d0;
 189              		.loc 1 155 0
 190 00fe F86A     		ldr	r0, [r7, #44]
 191 0100 B96A     		ldr	r1, [r7, #40]
 192 0102 FFF7FEFF 		bl	__aeabi_fmul
 193 0106 031C     		add	r3, r0, #0
 194 0108 786D     		ldr	r0, [r7, #84]
 195 010a 191C     		add	r1, r3, #0
 196 010c FFF7FEFF 		bl	__aeabi_fsub
 197 0110 031C     		add	r3, r0, #0
 198 0112 7B65     		str	r3, [r7, #84]
 156:Source\MatrixFunctions/arm_mat_cmplx_mult_f32.c ****           sumImag2 += a0 * d0;
 199              		.loc 1 156 0
 200 0114 786B     		ldr	r0, [r7, #52]
 201 0116 B96A     		ldr	r1, [r7, #40]
 202 0118 FFF7FEFF 		bl	__aeabi_fmul
 203 011c 031C     		add	r3, r0, #0
 204 011e 386D     		ldr	r0, [r7, #80]
 205 0120 191C     		add	r1, r3, #0
 206 0122 FFF7FEFF 		bl	__aeabi_fadd
 207 0126 031C     		add	r3, r0, #0
 208 0128 3B65     		str	r3, [r7, #80]
 157:Source\MatrixFunctions/arm_mat_cmplx_mult_f32.c **** 
 158:Source\MatrixFunctions/arm_mat_cmplx_mult_f32.c ****           /* c(m,n) = a(1,1)*b(1,1) + a(1,2) * b(2,1) + .... + a(m,p)*b(p,n) */
 159:Source\MatrixFunctions/arm_mat_cmplx_mult_f32.c **** 
 160:Source\MatrixFunctions/arm_mat_cmplx_mult_f32.c ****           a1 = *pIn1;
 209              		.loc 1 160 0
 210 012a FB6E     		ldr	r3, [r7, #108]
 211 012c 1B68     		ldr	r3, [r3]
 212 012e 7B62     		str	r3, [r7, #36]
 161:Source\MatrixFunctions/arm_mat_cmplx_mult_f32.c ****           c1 = *pIn2;
 213              		.loc 1 161 0
 214 0130 BB6E     		ldr	r3, [r7, #104]
 215 0132 1B68     		ldr	r3, [r3]
 216 0134 3B62     		str	r3, [r7, #32]
 162:Source\MatrixFunctions/arm_mat_cmplx_mult_f32.c **** 
 163:Source\MatrixFunctions/arm_mat_cmplx_mult_f32.c ****           b1 = *(pIn1 + 1u);
 217              		.loc 1 163 0
 218 0136 FB6E     		ldr	r3, [r7, #108]
 219 0138 5B68     		ldr	r3, [r3, #4]
 220 013a FB61     		str	r3, [r7, #28]
 164:Source\MatrixFunctions/arm_mat_cmplx_mult_f32.c ****           d1 = *(pIn2 + 1u);
 221              		.loc 1 164 0
 222 013c BB6E     		ldr	r3, [r7, #104]
 223 013e 5B68     		ldr	r3, [r3, #4]
 224 0140 BB61     		str	r3, [r7, #24]
 165:Source\MatrixFunctions/arm_mat_cmplx_mult_f32.c **** 
 166:Source\MatrixFunctions/arm_mat_cmplx_mult_f32.c ****           sumReal1 += a1 * c1;
 225              		.loc 1 166 0
 226 0142 786A     		ldr	r0, [r7, #36]
 227 0144 396A     		ldr	r1, [r7, #32]
 228 0146 FFF7FEFF 		bl	__aeabi_fmul
 229 014a 031C     		add	r3, r0, #0
 230 014c F86D     		ldr	r0, [r7, #92]
 231 014e 191C     		add	r1, r3, #0
 232 0150 FFF7FEFF 		bl	__aeabi_fadd
 233 0154 031C     		add	r3, r0, #0
ARM GAS  C:\Users\fneves\AppData\Local\Temp\ccCX8F1S.s 			page 8


 234 0156 FB65     		str	r3, [r7, #92]
 167:Source\MatrixFunctions/arm_mat_cmplx_mult_f32.c ****           sumImag1 += b1 * c1;
 235              		.loc 1 167 0
 236 0158 F869     		ldr	r0, [r7, #28]
 237 015a 396A     		ldr	r1, [r7, #32]
 238 015c FFF7FEFF 		bl	__aeabi_fmul
 239 0160 031C     		add	r3, r0, #0
 240 0162 B86D     		ldr	r0, [r7, #88]
 241 0164 191C     		add	r1, r3, #0
 242 0166 FFF7FEFF 		bl	__aeabi_fadd
 243 016a 031C     		add	r3, r0, #0
 244 016c BB65     		str	r3, [r7, #88]
 168:Source\MatrixFunctions/arm_mat_cmplx_mult_f32.c **** 
 169:Source\MatrixFunctions/arm_mat_cmplx_mult_f32.c ****           pIn1 += 2u;
 245              		.loc 1 169 0
 246 016e FB6E     		ldr	r3, [r7, #108]
 247 0170 0833     		add	r3, r3, #8
 248 0172 FB66     		str	r3, [r7, #108]
 170:Source\MatrixFunctions/arm_mat_cmplx_mult_f32.c ****           pIn2 += 2 * numColsB;
 249              		.loc 1 170 0
 250 0174 3C23     		mov	r3, #60
 251 0176 FB18     		add	r3, r7, r3
 252 0178 1B88     		ldrh	r3, [r3]
 253 017a DB00     		lsl	r3, r3, #3
 254 017c 1A1C     		mov	r2, r3
 255 017e BB6E     		ldr	r3, [r7, #104]
 256 0180 9B18     		add	r3, r3, r2
 257 0182 BB66     		str	r3, [r7, #104]
 171:Source\MatrixFunctions/arm_mat_cmplx_mult_f32.c **** 
 172:Source\MatrixFunctions/arm_mat_cmplx_mult_f32.c ****           sumReal2 -= b1 * d1;
 258              		.loc 1 172 0
 259 0184 F869     		ldr	r0, [r7, #28]
 260 0186 B969     		ldr	r1, [r7, #24]
 261 0188 FFF7FEFF 		bl	__aeabi_fmul
 262 018c 031C     		add	r3, r0, #0
 263 018e 786D     		ldr	r0, [r7, #84]
 264 0190 191C     		add	r1, r3, #0
 265 0192 FFF7FEFF 		bl	__aeabi_fsub
 266 0196 031C     		add	r3, r0, #0
 267 0198 7B65     		str	r3, [r7, #84]
 173:Source\MatrixFunctions/arm_mat_cmplx_mult_f32.c ****           sumImag2 += a1 * d1;
 268              		.loc 1 173 0
 269 019a 786A     		ldr	r0, [r7, #36]
 270 019c B969     		ldr	r1, [r7, #24]
 271 019e FFF7FEFF 		bl	__aeabi_fmul
 272 01a2 031C     		add	r3, r0, #0
 273 01a4 386D     		ldr	r0, [r7, #80]
 274 01a6 191C     		add	r1, r3, #0
 275 01a8 FFF7FEFF 		bl	__aeabi_fadd
 276 01ac 031C     		add	r3, r0, #0
 277 01ae 3B65     		str	r3, [r7, #80]
 174:Source\MatrixFunctions/arm_mat_cmplx_mult_f32.c **** 
 175:Source\MatrixFunctions/arm_mat_cmplx_mult_f32.c ****           a0 = *pIn1;
 278              		.loc 1 175 0
 279 01b0 FB6E     		ldr	r3, [r7, #108]
 280 01b2 1B68     		ldr	r3, [r3]
 281 01b4 7B63     		str	r3, [r7, #52]
ARM GAS  C:\Users\fneves\AppData\Local\Temp\ccCX8F1S.s 			page 9


 176:Source\MatrixFunctions/arm_mat_cmplx_mult_f32.c ****           c0 = *pIn2;
 282              		.loc 1 176 0
 283 01b6 BB6E     		ldr	r3, [r7, #104]
 284 01b8 1B68     		ldr	r3, [r3]
 285 01ba 3B63     		str	r3, [r7, #48]
 177:Source\MatrixFunctions/arm_mat_cmplx_mult_f32.c **** 
 178:Source\MatrixFunctions/arm_mat_cmplx_mult_f32.c ****           b0 = *(pIn1 + 1u);
 286              		.loc 1 178 0
 287 01bc FB6E     		ldr	r3, [r7, #108]
 288 01be 5B68     		ldr	r3, [r3, #4]
 289 01c0 FB62     		str	r3, [r7, #44]
 179:Source\MatrixFunctions/arm_mat_cmplx_mult_f32.c ****           d0 = *(pIn2 + 1u);
 290              		.loc 1 179 0
 291 01c2 BB6E     		ldr	r3, [r7, #104]
 292 01c4 5B68     		ldr	r3, [r3, #4]
 293 01c6 BB62     		str	r3, [r7, #40]
 180:Source\MatrixFunctions/arm_mat_cmplx_mult_f32.c **** 
 181:Source\MatrixFunctions/arm_mat_cmplx_mult_f32.c ****           sumReal1 += a0 * c0;
 294              		.loc 1 181 0
 295 01c8 786B     		ldr	r0, [r7, #52]
 296 01ca 396B     		ldr	r1, [r7, #48]
 297 01cc FFF7FEFF 		bl	__aeabi_fmul
 298 01d0 031C     		add	r3, r0, #0
 299 01d2 F86D     		ldr	r0, [r7, #92]
 300 01d4 191C     		add	r1, r3, #0
 301 01d6 FFF7FEFF 		bl	__aeabi_fadd
 302 01da 031C     		add	r3, r0, #0
 303 01dc FB65     		str	r3, [r7, #92]
 182:Source\MatrixFunctions/arm_mat_cmplx_mult_f32.c ****           sumImag1 += b0 * c0;
 304              		.loc 1 182 0
 305 01de F86A     		ldr	r0, [r7, #44]
 306 01e0 396B     		ldr	r1, [r7, #48]
 307 01e2 FFF7FEFF 		bl	__aeabi_fmul
 308 01e6 031C     		add	r3, r0, #0
 309 01e8 B86D     		ldr	r0, [r7, #88]
 310 01ea 191C     		add	r1, r3, #0
 311 01ec FFF7FEFF 		bl	__aeabi_fadd
 312 01f0 031C     		add	r3, r0, #0
 313 01f2 BB65     		str	r3, [r7, #88]
 183:Source\MatrixFunctions/arm_mat_cmplx_mult_f32.c **** 
 184:Source\MatrixFunctions/arm_mat_cmplx_mult_f32.c ****           pIn1 += 2u;
 314              		.loc 1 184 0
 315 01f4 FB6E     		ldr	r3, [r7, #108]
 316 01f6 0833     		add	r3, r3, #8
 317 01f8 FB66     		str	r3, [r7, #108]
 185:Source\MatrixFunctions/arm_mat_cmplx_mult_f32.c ****           pIn2 += 2 * numColsB;
 318              		.loc 1 185 0
 319 01fa 3C23     		mov	r3, #60
 320 01fc FB18     		add	r3, r7, r3
 321 01fe 1B88     		ldrh	r3, [r3]
 322 0200 DB00     		lsl	r3, r3, #3
 323 0202 1A1C     		mov	r2, r3
 324 0204 BB6E     		ldr	r3, [r7, #104]
 325 0206 9B18     		add	r3, r3, r2
 326 0208 BB66     		str	r3, [r7, #104]
 186:Source\MatrixFunctions/arm_mat_cmplx_mult_f32.c **** 
 187:Source\MatrixFunctions/arm_mat_cmplx_mult_f32.c ****           sumReal2 -= b0 * d0;
ARM GAS  C:\Users\fneves\AppData\Local\Temp\ccCX8F1S.s 			page 10


 327              		.loc 1 187 0
 328 020a F86A     		ldr	r0, [r7, #44]
 329 020c B96A     		ldr	r1, [r7, #40]
 330 020e FFF7FEFF 		bl	__aeabi_fmul
 331 0212 031C     		add	r3, r0, #0
 332 0214 786D     		ldr	r0, [r7, #84]
 333 0216 191C     		add	r1, r3, #0
 334 0218 FFF7FEFF 		bl	__aeabi_fsub
 335 021c 031C     		add	r3, r0, #0
 336 021e 7B65     		str	r3, [r7, #84]
 188:Source\MatrixFunctions/arm_mat_cmplx_mult_f32.c ****           sumImag2 += a0 * d0;
 337              		.loc 1 188 0
 338 0220 786B     		ldr	r0, [r7, #52]
 339 0222 B96A     		ldr	r1, [r7, #40]
 340 0224 FFF7FEFF 		bl	__aeabi_fmul
 341 0228 031C     		add	r3, r0, #0
 342 022a 386D     		ldr	r0, [r7, #80]
 343 022c 191C     		add	r1, r3, #0
 344 022e FFF7FEFF 		bl	__aeabi_fadd
 345 0232 031C     		add	r3, r0, #0
 346 0234 3B65     		str	r3, [r7, #80]
 189:Source\MatrixFunctions/arm_mat_cmplx_mult_f32.c **** 
 190:Source\MatrixFunctions/arm_mat_cmplx_mult_f32.c ****           /* c(m,n) = a(1,1)*b(1,1) + a(1,2) * b(2,1) + .... + a(m,p)*b(p,n) */
 191:Source\MatrixFunctions/arm_mat_cmplx_mult_f32.c **** 
 192:Source\MatrixFunctions/arm_mat_cmplx_mult_f32.c ****           a1 = *pIn1;
 347              		.loc 1 192 0
 348 0236 FB6E     		ldr	r3, [r7, #108]
 349 0238 1B68     		ldr	r3, [r3]
 350 023a 7B62     		str	r3, [r7, #36]
 193:Source\MatrixFunctions/arm_mat_cmplx_mult_f32.c ****           c1 = *pIn2;
 351              		.loc 1 193 0
 352 023c BB6E     		ldr	r3, [r7, #104]
 353 023e 1B68     		ldr	r3, [r3]
 354 0240 3B62     		str	r3, [r7, #32]
 194:Source\MatrixFunctions/arm_mat_cmplx_mult_f32.c **** 
 195:Source\MatrixFunctions/arm_mat_cmplx_mult_f32.c ****           b1 = *(pIn1 + 1u);
 355              		.loc 1 195 0
 356 0242 FB6E     		ldr	r3, [r7, #108]
 357 0244 5B68     		ldr	r3, [r3, #4]
 358 0246 FB61     		str	r3, [r7, #28]
 196:Source\MatrixFunctions/arm_mat_cmplx_mult_f32.c ****           d1 = *(pIn2 + 1u);
 359              		.loc 1 196 0
 360 0248 BB6E     		ldr	r3, [r7, #104]
 361 024a 5B68     		ldr	r3, [r3, #4]
 362 024c BB61     		str	r3, [r7, #24]
 197:Source\MatrixFunctions/arm_mat_cmplx_mult_f32.c **** 
 198:Source\MatrixFunctions/arm_mat_cmplx_mult_f32.c ****           sumReal1 += a1 * c1;
 363              		.loc 1 198 0
 364 024e 786A     		ldr	r0, [r7, #36]
 365 0250 396A     		ldr	r1, [r7, #32]
 366 0252 FFF7FEFF 		bl	__aeabi_fmul
 367 0256 031C     		add	r3, r0, #0
 368 0258 F86D     		ldr	r0, [r7, #92]
 369 025a 191C     		add	r1, r3, #0
 370 025c FFF7FEFF 		bl	__aeabi_fadd
 371 0260 031C     		add	r3, r0, #0
 372 0262 FB65     		str	r3, [r7, #92]
ARM GAS  C:\Users\fneves\AppData\Local\Temp\ccCX8F1S.s 			page 11


 199:Source\MatrixFunctions/arm_mat_cmplx_mult_f32.c ****           sumImag1 += b1 * c1;
 373              		.loc 1 199 0
 374 0264 F869     		ldr	r0, [r7, #28]
 375 0266 396A     		ldr	r1, [r7, #32]
 376 0268 FFF7FEFF 		bl	__aeabi_fmul
 377 026c 031C     		add	r3, r0, #0
 378 026e B86D     		ldr	r0, [r7, #88]
 379 0270 191C     		add	r1, r3, #0
 380 0272 FFF7FEFF 		bl	__aeabi_fadd
 381 0276 031C     		add	r3, r0, #0
 382 0278 BB65     		str	r3, [r7, #88]
 200:Source\MatrixFunctions/arm_mat_cmplx_mult_f32.c **** 
 201:Source\MatrixFunctions/arm_mat_cmplx_mult_f32.c ****           pIn1 += 2u;
 383              		.loc 1 201 0
 384 027a FB6E     		ldr	r3, [r7, #108]
 385 027c 0833     		add	r3, r3, #8
 386 027e FB66     		str	r3, [r7, #108]
 202:Source\MatrixFunctions/arm_mat_cmplx_mult_f32.c ****           pIn2 += 2 * numColsB;
 387              		.loc 1 202 0
 388 0280 3C23     		mov	r3, #60
 389 0282 FB18     		add	r3, r7, r3
 390 0284 1B88     		ldrh	r3, [r3]
 391 0286 DB00     		lsl	r3, r3, #3
 392 0288 1A1C     		mov	r2, r3
 393 028a BB6E     		ldr	r3, [r7, #104]
 394 028c 9B18     		add	r3, r3, r2
 395 028e BB66     		str	r3, [r7, #104]
 203:Source\MatrixFunctions/arm_mat_cmplx_mult_f32.c **** 
 204:Source\MatrixFunctions/arm_mat_cmplx_mult_f32.c ****           sumReal2 -= b1 * d1;
 396              		.loc 1 204 0
 397 0290 F869     		ldr	r0, [r7, #28]
 398 0292 B969     		ldr	r1, [r7, #24]
 399 0294 FFF7FEFF 		bl	__aeabi_fmul
 400 0298 031C     		add	r3, r0, #0
 401 029a 786D     		ldr	r0, [r7, #84]
 402 029c 191C     		add	r1, r3, #0
 403 029e FFF7FEFF 		bl	__aeabi_fsub
 404 02a2 031C     		add	r3, r0, #0
 405 02a4 7B65     		str	r3, [r7, #84]
 205:Source\MatrixFunctions/arm_mat_cmplx_mult_f32.c ****           sumImag2 += a1 * d1;
 406              		.loc 1 205 0
 407 02a6 786A     		ldr	r0, [r7, #36]
 408 02a8 B969     		ldr	r1, [r7, #24]
 409 02aa FFF7FEFF 		bl	__aeabi_fmul
 410 02ae 031C     		add	r3, r0, #0
 411 02b0 386D     		ldr	r0, [r7, #80]
 412 02b2 191C     		add	r1, r3, #0
 413 02b4 FFF7FEFF 		bl	__aeabi_fadd
 414 02b8 031C     		add	r3, r0, #0
 415 02ba 3B65     		str	r3, [r7, #80]
 206:Source\MatrixFunctions/arm_mat_cmplx_mult_f32.c **** 
 207:Source\MatrixFunctions/arm_mat_cmplx_mult_f32.c ****           /* Decrement the loop count */
 208:Source\MatrixFunctions/arm_mat_cmplx_mult_f32.c ****           colCnt--;
 416              		.loc 1 208 0
 417 02bc 4623     		mov	r3, #70
 418 02be FB18     		add	r3, r7, r3
 419 02c0 1A88     		ldrh	r2, [r3]
ARM GAS  C:\Users\fneves\AppData\Local\Temp\ccCX8F1S.s 			page 12


 420 02c2 4623     		mov	r3, #70
 421 02c4 FB18     		add	r3, r7, r3
 422 02c6 013A     		sub	r2, r2, #1
 423 02c8 1A80     		strh	r2, [r3]
 424              	.L2:
 134:Source\MatrixFunctions/arm_mat_cmplx_mult_f32.c ****         {
 425              		.loc 1 134 0
 426 02ca 4623     		mov	r3, #70
 427 02cc FB18     		add	r3, r7, r3
 428 02ce 1B88     		ldrh	r3, [r3]
 429 02d0 002B     		cmp	r3, #0
 430 02d2 00D0     		beq	.LCB347
 431 02d4 E6E6     		b	.L3	@long jump
 432              	.LCB347:
 209:Source\MatrixFunctions/arm_mat_cmplx_mult_f32.c ****         }
 210:Source\MatrixFunctions/arm_mat_cmplx_mult_f32.c **** 
 211:Source\MatrixFunctions/arm_mat_cmplx_mult_f32.c ****         /* If the columns of pSrcA is not a multiple of 4, compute any remaining MACs here.
 212:Source\MatrixFunctions/arm_mat_cmplx_mult_f32.c ****          ** No loop unrolling is used. */
 213:Source\MatrixFunctions/arm_mat_cmplx_mult_f32.c ****         colCnt = numColsA % 0x4u;
 433              		.loc 1 213 0
 434 02d6 4623     		mov	r3, #70
 435 02d8 FB18     		add	r3, r7, r3
 436 02da 3A22     		mov	r2, #58
 437 02dc BA18     		add	r2, r7, r2
 438 02de 1288     		ldrh	r2, [r2]
 439 02e0 0321     		mov	r1, #3
 440 02e2 0A40     		and	r2, r1
 441 02e4 1A80     		strh	r2, [r3]
 214:Source\MatrixFunctions/arm_mat_cmplx_mult_f32.c **** 
 215:Source\MatrixFunctions/arm_mat_cmplx_mult_f32.c ****         while (colCnt > 0u)
 442              		.loc 1 215 0
 443 02e6 49E0     		b	.L4
 444              	.L5:
 216:Source\MatrixFunctions/arm_mat_cmplx_mult_f32.c ****         {
 217:Source\MatrixFunctions/arm_mat_cmplx_mult_f32.c ****           /* c(m,n) = a(1,1)*b(1,1) + a(1,2) * b(2,1) + .... + a(m,p)*b(p,n) */
 218:Source\MatrixFunctions/arm_mat_cmplx_mult_f32.c ****           a1 = *pIn1;
 445              		.loc 1 218 0
 446 02e8 FB6E     		ldr	r3, [r7, #108]
 447 02ea 1B68     		ldr	r3, [r3]
 448 02ec 7B62     		str	r3, [r7, #36]
 219:Source\MatrixFunctions/arm_mat_cmplx_mult_f32.c ****           c1 = *pIn2;
 449              		.loc 1 219 0
 450 02ee BB6E     		ldr	r3, [r7, #104]
 451 02f0 1B68     		ldr	r3, [r3]
 452 02f2 3B62     		str	r3, [r7, #32]
 220:Source\MatrixFunctions/arm_mat_cmplx_mult_f32.c **** 
 221:Source\MatrixFunctions/arm_mat_cmplx_mult_f32.c ****           b1 = *(pIn1 + 1u);
 453              		.loc 1 221 0
 454 02f4 FB6E     		ldr	r3, [r7, #108]
 455 02f6 5B68     		ldr	r3, [r3, #4]
 456 02f8 FB61     		str	r3, [r7, #28]
 222:Source\MatrixFunctions/arm_mat_cmplx_mult_f32.c ****           d1 = *(pIn2 + 1u);
 457              		.loc 1 222 0
 458 02fa BB6E     		ldr	r3, [r7, #104]
 459 02fc 5B68     		ldr	r3, [r3, #4]
 460 02fe BB61     		str	r3, [r7, #24]
 223:Source\MatrixFunctions/arm_mat_cmplx_mult_f32.c **** 
ARM GAS  C:\Users\fneves\AppData\Local\Temp\ccCX8F1S.s 			page 13


 224:Source\MatrixFunctions/arm_mat_cmplx_mult_f32.c ****           sumReal1 += a1 * c1;
 461              		.loc 1 224 0
 462 0300 786A     		ldr	r0, [r7, #36]
 463 0302 396A     		ldr	r1, [r7, #32]
 464 0304 FFF7FEFF 		bl	__aeabi_fmul
 465 0308 031C     		add	r3, r0, #0
 466 030a F86D     		ldr	r0, [r7, #92]
 467 030c 191C     		add	r1, r3, #0
 468 030e FFF7FEFF 		bl	__aeabi_fadd
 469 0312 031C     		add	r3, r0, #0
 470 0314 FB65     		str	r3, [r7, #92]
 225:Source\MatrixFunctions/arm_mat_cmplx_mult_f32.c ****           sumImag1 += b1 * c1;
 471              		.loc 1 225 0
 472 0316 F869     		ldr	r0, [r7, #28]
 473 0318 396A     		ldr	r1, [r7, #32]
 474 031a FFF7FEFF 		bl	__aeabi_fmul
 475 031e 031C     		add	r3, r0, #0
 476 0320 B86D     		ldr	r0, [r7, #88]
 477 0322 191C     		add	r1, r3, #0
 478 0324 FFF7FEFF 		bl	__aeabi_fadd
 479 0328 031C     		add	r3, r0, #0
 480 032a BB65     		str	r3, [r7, #88]
 226:Source\MatrixFunctions/arm_mat_cmplx_mult_f32.c **** 
 227:Source\MatrixFunctions/arm_mat_cmplx_mult_f32.c ****           pIn1 += 2u;
 481              		.loc 1 227 0
 482 032c FB6E     		ldr	r3, [r7, #108]
 483 032e 0833     		add	r3, r3, #8
 484 0330 FB66     		str	r3, [r7, #108]
 228:Source\MatrixFunctions/arm_mat_cmplx_mult_f32.c ****           pIn2 += 2 * numColsB;
 485              		.loc 1 228 0
 486 0332 3C23     		mov	r3, #60
 487 0334 FB18     		add	r3, r7, r3
 488 0336 1B88     		ldrh	r3, [r3]
 489 0338 DB00     		lsl	r3, r3, #3
 490 033a 1A1C     		mov	r2, r3
 491 033c BB6E     		ldr	r3, [r7, #104]
 492 033e 9B18     		add	r3, r3, r2
 493 0340 BB66     		str	r3, [r7, #104]
 229:Source\MatrixFunctions/arm_mat_cmplx_mult_f32.c **** 
 230:Source\MatrixFunctions/arm_mat_cmplx_mult_f32.c ****           sumReal2 -= b1 * d1;
 494              		.loc 1 230 0
 495 0342 F869     		ldr	r0, [r7, #28]
 496 0344 B969     		ldr	r1, [r7, #24]
 497 0346 FFF7FEFF 		bl	__aeabi_fmul
 498 034a 031C     		add	r3, r0, #0
 499 034c 786D     		ldr	r0, [r7, #84]
 500 034e 191C     		add	r1, r3, #0
 501 0350 FFF7FEFF 		bl	__aeabi_fsub
 502 0354 031C     		add	r3, r0, #0
 503 0356 7B65     		str	r3, [r7, #84]
 231:Source\MatrixFunctions/arm_mat_cmplx_mult_f32.c ****           sumImag2 += a1 * d1;
 504              		.loc 1 231 0
 505 0358 786A     		ldr	r0, [r7, #36]
 506 035a B969     		ldr	r1, [r7, #24]
 507 035c FFF7FEFF 		bl	__aeabi_fmul
 508 0360 031C     		add	r3, r0, #0
 509 0362 386D     		ldr	r0, [r7, #80]
ARM GAS  C:\Users\fneves\AppData\Local\Temp\ccCX8F1S.s 			page 14


 510 0364 191C     		add	r1, r3, #0
 511 0366 FFF7FEFF 		bl	__aeabi_fadd
 512 036a 031C     		add	r3, r0, #0
 513 036c 3B65     		str	r3, [r7, #80]
 232:Source\MatrixFunctions/arm_mat_cmplx_mult_f32.c **** 
 233:Source\MatrixFunctions/arm_mat_cmplx_mult_f32.c ****           /* Decrement the loop counter */
 234:Source\MatrixFunctions/arm_mat_cmplx_mult_f32.c ****           colCnt--;
 514              		.loc 1 234 0
 515 036e 4623     		mov	r3, #70
 516 0370 FB18     		add	r3, r7, r3
 517 0372 1A88     		ldrh	r2, [r3]
 518 0374 4623     		mov	r3, #70
 519 0376 FB18     		add	r3, r7, r3
 520 0378 013A     		sub	r2, r2, #1
 521 037a 1A80     		strh	r2, [r3]
 522              	.L4:
 215:Source\MatrixFunctions/arm_mat_cmplx_mult_f32.c ****         {
 523              		.loc 1 215 0
 524 037c 4623     		mov	r3, #70
 525 037e FB18     		add	r3, r7, r3
 526 0380 1B88     		ldrh	r3, [r3]
 527 0382 002B     		cmp	r3, #0
 528 0384 B0D1     		bne	.L5
 235:Source\MatrixFunctions/arm_mat_cmplx_mult_f32.c ****         }
 236:Source\MatrixFunctions/arm_mat_cmplx_mult_f32.c **** 
 237:Source\MatrixFunctions/arm_mat_cmplx_mult_f32.c ****         sumReal1 += sumReal2;
 529              		.loc 1 237 0
 530 0386 F86D     		ldr	r0, [r7, #92]
 531 0388 796D     		ldr	r1, [r7, #84]
 532 038a FFF7FEFF 		bl	__aeabi_fadd
 533 038e 031C     		add	r3, r0, #0
 534 0390 FB65     		str	r3, [r7, #92]
 238:Source\MatrixFunctions/arm_mat_cmplx_mult_f32.c ****         sumImag1 += sumImag2;
 535              		.loc 1 238 0
 536 0392 B86D     		ldr	r0, [r7, #88]
 537 0394 396D     		ldr	r1, [r7, #80]
 538 0396 FFF7FEFF 		bl	__aeabi_fadd
 539 039a 031C     		add	r3, r0, #0
 540 039c BB65     		str	r3, [r7, #88]
 239:Source\MatrixFunctions/arm_mat_cmplx_mult_f32.c **** 
 240:Source\MatrixFunctions/arm_mat_cmplx_mult_f32.c ****         /* Store the result in the destination buffer */
 241:Source\MatrixFunctions/arm_mat_cmplx_mult_f32.c ****         *px++ = sumReal1;
 541              		.loc 1 241 0
 542 039e 3B6E     		ldr	r3, [r7, #96]
 543 03a0 1A1D     		add	r2, r3, #4
 544 03a2 3A66     		str	r2, [r7, #96]
 545 03a4 FA6D     		ldr	r2, [r7, #92]
 546 03a6 1A60     		str	r2, [r3]
 242:Source\MatrixFunctions/arm_mat_cmplx_mult_f32.c ****         *px++ = sumImag1;
 547              		.loc 1 242 0
 548 03a8 3B6E     		ldr	r3, [r7, #96]
 549 03aa 1A1D     		add	r2, r3, #4
 550 03ac 3A66     		str	r2, [r7, #96]
 551 03ae BA6D     		ldr	r2, [r7, #88]
 552 03b0 1A60     		str	r2, [r3]
 243:Source\MatrixFunctions/arm_mat_cmplx_mult_f32.c **** 
 244:Source\MatrixFunctions/arm_mat_cmplx_mult_f32.c ****         /* Update the pointer pIn2 to point to the  starting address of the next column */
ARM GAS  C:\Users\fneves\AppData\Local\Temp\ccCX8F1S.s 			page 15


 245:Source\MatrixFunctions/arm_mat_cmplx_mult_f32.c ****         j++;
 553              		.loc 1 245 0
 554 03b2 4A23     		mov	r3, #74
 555 03b4 FB18     		add	r3, r7, r3
 556 03b6 1A88     		ldrh	r2, [r3]
 557 03b8 4A23     		mov	r3, #74
 558 03ba FB18     		add	r3, r7, r3
 559 03bc 0132     		add	r2, r2, #1
 560 03be 1A80     		strh	r2, [r3]
 246:Source\MatrixFunctions/arm_mat_cmplx_mult_f32.c ****         pIn2 = pSrcB->pData + 2u * j;
 561              		.loc 1 246 0
 562 03c0 BB68     		ldr	r3, [r7, #8]
 563 03c2 5A68     		ldr	r2, [r3, #4]
 564 03c4 4A23     		mov	r3, #74
 565 03c6 FB18     		add	r3, r7, r3
 566 03c8 1B88     		ldrh	r3, [r3]
 567 03ca DB00     		lsl	r3, r3, #3
 568 03cc D318     		add	r3, r2, r3
 569 03ce BB66     		str	r3, [r7, #104]
 247:Source\MatrixFunctions/arm_mat_cmplx_mult_f32.c **** 
 248:Source\MatrixFunctions/arm_mat_cmplx_mult_f32.c ****         /* Decrement the column loop counter */
 249:Source\MatrixFunctions/arm_mat_cmplx_mult_f32.c ****         col--;
 570              		.loc 1 249 0
 571 03d0 4E23     		mov	r3, #78
 572 03d2 FB18     		add	r3, r7, r3
 573 03d4 1A88     		ldrh	r2, [r3]
 574 03d6 4E23     		mov	r3, #78
 575 03d8 FB18     		add	r3, r7, r3
 576 03da 013A     		sub	r2, r2, #1
 577 03dc 1A80     		strh	r2, [r3]
 250:Source\MatrixFunctions/arm_mat_cmplx_mult_f32.c **** 
 251:Source\MatrixFunctions/arm_mat_cmplx_mult_f32.c ****       } while (col > 0u);
 578              		.loc 1 251 0
 579 03de 4E23     		mov	r3, #78
 580 03e0 FB18     		add	r3, r7, r3
 581 03e2 1B88     		ldrh	r3, [r3]
 582 03e4 002B     		cmp	r3, #0
 583 03e6 00D0     		beq	.LCB479
 584 03e8 4AE6     		b	.L6	@long jump
 585              	.LCB479:
 252:Source\MatrixFunctions/arm_mat_cmplx_mult_f32.c **** 
 253:Source\MatrixFunctions/arm_mat_cmplx_mult_f32.c ****       /* Update the pointer pInA to point to the  starting address of the next row */
 254:Source\MatrixFunctions/arm_mat_cmplx_mult_f32.c ****       i = i + numColsB;
 586              		.loc 1 254 0
 587 03ea 4C23     		mov	r3, #76
 588 03ec FB18     		add	r3, r7, r3
 589 03ee 4C22     		mov	r2, #76
 590 03f0 B918     		add	r1, r7, r2
 591 03f2 3C22     		mov	r2, #60
 592 03f4 BA18     		add	r2, r7, r2
 593 03f6 0988     		ldrh	r1, [r1]
 594 03f8 1288     		ldrh	r2, [r2]
 595 03fa 8A18     		add	r2, r1, r2
 596 03fc 1A80     		strh	r2, [r3]
 255:Source\MatrixFunctions/arm_mat_cmplx_mult_f32.c ****       pInA = pInA + 2 * numColsA;
 597              		.loc 1 255 0
 598 03fe 3A23     		mov	r3, #58
ARM GAS  C:\Users\fneves\AppData\Local\Temp\ccCX8F1S.s 			page 16


 599 0400 FB18     		add	r3, r7, r3
 600 0402 1B88     		ldrh	r3, [r3]
 601 0404 DB00     		lsl	r3, r3, #3
 602 0406 1A1C     		mov	r2, r3
 603 0408 7B6E     		ldr	r3, [r7, #100]
 604 040a 9B18     		add	r3, r3, r2
 605 040c 7B66     		str	r3, [r7, #100]
 256:Source\MatrixFunctions/arm_mat_cmplx_mult_f32.c **** 
 257:Source\MatrixFunctions/arm_mat_cmplx_mult_f32.c ****       /* Decrement the row loop counter */
 258:Source\MatrixFunctions/arm_mat_cmplx_mult_f32.c ****       row--;
 606              		.loc 1 258 0
 607 040e 4823     		mov	r3, #72
 608 0410 FB18     		add	r3, r7, r3
 609 0412 1A88     		ldrh	r2, [r3]
 610 0414 4823     		mov	r3, #72
 611 0416 FB18     		add	r3, r7, r3
 612 0418 013A     		sub	r2, r2, #1
 613 041a 1A80     		strh	r2, [r3]
 259:Source\MatrixFunctions/arm_mat_cmplx_mult_f32.c **** 
 260:Source\MatrixFunctions/arm_mat_cmplx_mult_f32.c ****     } while (row > 0u);
 614              		.loc 1 260 0
 615 041c 4823     		mov	r3, #72
 616 041e FB18     		add	r3, r7, r3
 617 0420 1B88     		ldrh	r3, [r3]
 618 0422 002B     		cmp	r3, #0
 619 0424 00D0     		beq	.LCB509
 620 0426 16E6     		b	.L7	@long jump
 621              	.LCB509:
 261:Source\MatrixFunctions/arm_mat_cmplx_mult_f32.c **** 
 262:Source\MatrixFunctions/arm_mat_cmplx_mult_f32.c ****     /* Set status as ARM_MATH_SUCCESS */
 263:Source\MatrixFunctions/arm_mat_cmplx_mult_f32.c ****     status = ARM_MATH_SUCCESS;
 622              		.loc 1 263 0
 623 0428 1723     		mov	r3, #23
 624 042a FB18     		add	r3, r7, r3
 625 042c 0022     		mov	r2, #0
 626 042e 1A70     		strb	r2, [r3]
 264:Source\MatrixFunctions/arm_mat_cmplx_mult_f32.c ****   }
 265:Source\MatrixFunctions/arm_mat_cmplx_mult_f32.c **** 
 266:Source\MatrixFunctions/arm_mat_cmplx_mult_f32.c ****   /* Return to application */
 267:Source\MatrixFunctions/arm_mat_cmplx_mult_f32.c ****   return (status);
 627              		.loc 1 267 0
 628 0430 1723     		mov	r3, #23
 629 0432 FB18     		add	r3, r7, r3
 630 0434 1B78     		ldrb	r3, [r3]
 631 0436 5BB2     		sxtb	r3, r3
 268:Source\MatrixFunctions/arm_mat_cmplx_mult_f32.c **** }
 632              		.loc 1 268 0
 633 0438 181C     		mov	r0, r3
 634 043a BD46     		mov	sp, r7
 635 043c 1CB0     		add	sp, sp, #112
 636              		@ sp needed
 637 043e 80BD     		pop	{r7, pc}
 638              		.cfi_endproc
 639              	.LFE82:
 640              		.size	arm_mat_cmplx_mult_f32, .-arm_mat_cmplx_mult_f32
 641              		.text
 642              	.Letext0:
ARM GAS  C:\Users\fneves\AppData\Local\Temp\ccCX8F1S.s 			page 17


 643              		.file 2 "c:\\program files (x86)\\cypress\\psoc creator\\4.0\\psoc creator\\import\\gnu\\arm\\4.9.
 644              		.file 3 "c:\\program files (x86)\\cypress\\psoc creator\\4.0\\psoc creator\\import\\gnu\\arm\\4.9.
 645              		.file 4 ".\\Include/arm_math.h"
 646              		.section	.debug_info,"",%progbits
 647              	.Ldebug_info0:
 648 0000 F0020000 		.4byte	0x2f0
 649 0004 0400     		.2byte	0x4
 650 0006 00000000 		.4byte	.Ldebug_abbrev0
 651 000a 04       		.byte	0x4
 652 000b 01       		.uleb128 0x1
 653 000c 8B010000 		.4byte	.LASF45
 654 0010 01       		.byte	0x1
 655 0011 95000000 		.4byte	.LASF46
 656 0015 3D000000 		.4byte	.LASF47
 657 0019 00000000 		.4byte	.Ldebug_ranges0+0
 658 001d 00000000 		.4byte	0
 659 0021 00000000 		.4byte	.Ldebug_line0
 660 0025 02       		.uleb128 0x2
 661 0026 01       		.byte	0x1
 662 0027 06       		.byte	0x6
 663 0028 E0020000 		.4byte	.LASF0
 664 002c 02       		.uleb128 0x2
 665 002d 01       		.byte	0x1
 666 002e 08       		.byte	0x8
 667 002f C5000000 		.4byte	.LASF1
 668 0033 02       		.uleb128 0x2
 669 0034 02       		.byte	0x2
 670 0035 05       		.byte	0x5
 671 0036 3C010000 		.4byte	.LASF2
 672 003a 03       		.uleb128 0x3
 673 003b 2A010000 		.4byte	.LASF9
 674 003f 02       		.byte	0x2
 675 0040 2B       		.byte	0x2b
 676 0041 45000000 		.4byte	0x45
 677 0045 02       		.uleb128 0x2
 678 0046 02       		.byte	0x2
 679 0047 07       		.byte	0x7
 680 0048 12010000 		.4byte	.LASF3
 681 004c 02       		.uleb128 0x2
 682 004d 04       		.byte	0x4
 683 004e 05       		.byte	0x5
 684 004f AE020000 		.4byte	.LASF4
 685 0053 02       		.uleb128 0x2
 686 0054 04       		.byte	0x4
 687 0055 07       		.byte	0x7
 688 0056 00010000 		.4byte	.LASF5
 689 005a 02       		.uleb128 0x2
 690 005b 08       		.byte	0x8
 691 005c 05       		.byte	0x5
 692 005d 54020000 		.4byte	.LASF6
 693 0061 02       		.uleb128 0x2
 694 0062 08       		.byte	0x8
 695 0063 07       		.byte	0x7
 696 0064 74010000 		.4byte	.LASF7
 697 0068 04       		.uleb128 0x4
 698 0069 04       		.byte	0x4
 699 006a 05       		.byte	0x5
ARM GAS  C:\Users\fneves\AppData\Local\Temp\ccCX8F1S.s 			page 18


 700 006b 696E7400 		.ascii	"int\000"
 701 006f 02       		.uleb128 0x2
 702 0070 04       		.byte	0x4
 703 0071 07       		.byte	0x7
 704 0072 67010000 		.4byte	.LASF8
 705 0076 03       		.uleb128 0x3
 706 0077 9A020000 		.4byte	.LASF10
 707 007b 03       		.byte	0x3
 708 007c 21       		.byte	0x21
 709 007d 3A000000 		.4byte	0x3a
 710 0081 02       		.uleb128 0x2
 711 0082 04       		.byte	0x4
 712 0083 07       		.byte	0x7
 713 0084 4B020000 		.4byte	.LASF11
 714 0088 02       		.uleb128 0x2
 715 0089 01       		.byte	0x1
 716 008a 08       		.byte	0x8
 717 008b 68020000 		.4byte	.LASF12
 718 008f 02       		.uleb128 0x2
 719 0090 08       		.byte	0x8
 720 0091 04       		.byte	0x4
 721 0092 35010000 		.4byte	.LASF13
 722 0096 02       		.uleb128 0x2
 723 0097 04       		.byte	0x4
 724 0098 04       		.byte	0x4
 725 0099 62020000 		.4byte	.LASF14
 726 009d 02       		.uleb128 0x2
 727 009e 08       		.byte	0x8
 728 009f 04       		.byte	0x4
 729 00a0 BC020000 		.4byte	.LASF15
 730 00a4 05       		.uleb128 0x5
 731 00a5 01       		.byte	0x1
 732 00a6 04       		.byte	0x4
 733 00a7 8401     		.2byte	0x184
 734 00a9 D8000000 		.4byte	0xd8
 735 00ad 06       		.uleb128 0x6
 736 00ae 77020000 		.4byte	.LASF16
 737 00b2 00       		.sleb128 0
 738 00b3 06       		.uleb128 0x6
 739 00b4 4F010000 		.4byte	.LASF17
 740 00b8 7F       		.sleb128 -1
 741 00b9 06       		.uleb128 0x6
 742 00ba 1B000000 		.4byte	.LASF18
 743 00be 7E       		.sleb128 -2
 744 00bf 06       		.uleb128 0x6
 745 00c0 1D020000 		.4byte	.LASF19
 746 00c4 7D       		.sleb128 -3
 747 00c5 06       		.uleb128 0x6
 748 00c6 3B020000 		.4byte	.LASF20
 749 00ca 7C       		.sleb128 -4
 750 00cb 06       		.uleb128 0x6
 751 00cc 0F030000 		.4byte	.LASF21
 752 00d0 7B       		.sleb128 -5
 753 00d1 06       		.uleb128 0x6
 754 00d2 EA000000 		.4byte	.LASF22
 755 00d6 7A       		.sleb128 -6
 756 00d7 00       		.byte	0
ARM GAS  C:\Users\fneves\AppData\Local\Temp\ccCX8F1S.s 			page 19


 757 00d8 07       		.uleb128 0x7
 758 00d9 A3020000 		.4byte	.LASF23
 759 00dd 04       		.byte	0x4
 760 00de 8C01     		.2byte	0x18c
 761 00e0 A4000000 		.4byte	0xa4
 762 00e4 07       		.uleb128 0x7
 763 00e5 6D020000 		.4byte	.LASF24
 764 00e9 04       		.byte	0x4
 765 00ea A501     		.2byte	0x1a5
 766 00ec 96000000 		.4byte	0x96
 767 00f0 08       		.uleb128 0x8
 768 00f1 04       		.byte	0x4
 769 00f2 E4000000 		.4byte	0xe4
 770 00f6 09       		.uleb128 0x9
 771 00f7 08       		.byte	0x8
 772 00f8 04       		.byte	0x4
 773 00f9 9A05     		.2byte	0x59a
 774 00fb 27010000 		.4byte	0x127
 775 00ff 0A       		.uleb128 0xa
 776 0100 EC020000 		.4byte	.LASF25
 777 0104 04       		.byte	0x4
 778 0105 9C05     		.2byte	0x59c
 779 0107 76000000 		.4byte	0x76
 780 010b 00       		.byte	0
 781 010c 0A       		.uleb128 0xa
 782 010d F4020000 		.4byte	.LASF26
 783 0111 04       		.byte	0x4
 784 0112 9D05     		.2byte	0x59d
 785 0114 76000000 		.4byte	0x76
 786 0118 02       		.byte	0x2
 787 0119 0A       		.uleb128 0xa
 788 011a 8A000000 		.4byte	.LASF27
 789 011e 04       		.byte	0x4
 790 011f 9E05     		.2byte	0x59e
 791 0121 F0000000 		.4byte	0xf0
 792 0125 04       		.byte	0x4
 793 0126 00       		.byte	0
 794 0127 07       		.uleb128 0x7
 795 0128 C8020000 		.4byte	.LASF28
 796 012c 04       		.byte	0x4
 797 012d 9F05     		.2byte	0x59f
 798 012f F6000000 		.4byte	0xf6
 799 0133 0B       		.uleb128 0xb
 800 0134 D3000000 		.4byte	.LASF48
 801 0138 01       		.byte	0x1
 802 0139 3E       		.byte	0x3e
 803 013a D8000000 		.4byte	0xd8
 804 013e 00000000 		.4byte	.LFB82
 805 0142 40040000 		.4byte	.LFE82-.LFB82
 806 0146 01       		.uleb128 0x1
 807 0147 9C       		.byte	0x9c
 808 0148 E2020000 		.4byte	0x2e2
 809 014c 0C       		.uleb128 0xc
 810 014d 31000000 		.4byte	.LASF29
 811 0151 01       		.byte	0x1
 812 0152 3F       		.byte	0x3f
 813 0153 E2020000 		.4byte	0x2e2
ARM GAS  C:\Users\fneves\AppData\Local\Temp\ccCX8F1S.s 			page 20


 814 0157 03       		.uleb128 0x3
 815 0158 91       		.byte	0x91
 816 0159 947F     		.sleb128 -108
 817 015b 0C       		.uleb128 0xc
 818 015c 37000000 		.4byte	.LASF30
 819 0160 01       		.byte	0x1
 820 0161 40       		.byte	0x40
 821 0162 E2020000 		.4byte	0x2e2
 822 0166 03       		.uleb128 0x3
 823 0167 91       		.byte	0x91
 824 0168 907F     		.sleb128 -112
 825 016a 0C       		.uleb128 0xc
 826 016b 25010000 		.4byte	.LASF31
 827 016f 01       		.byte	0x1
 828 0170 41       		.byte	0x41
 829 0171 ED020000 		.4byte	0x2ed
 830 0175 03       		.uleb128 0x3
 831 0176 91       		.byte	0x91
 832 0177 8C7F     		.sleb128 -116
 833 0179 0D       		.uleb128 0xd
 834 017a 05030000 		.4byte	.LASF32
 835 017e 01       		.byte	0x1
 836 017f 43       		.byte	0x43
 837 0180 F0000000 		.4byte	0xf0
 838 0184 02       		.uleb128 0x2
 839 0185 91       		.byte	0x91
 840 0186 74       		.sleb128 -12
 841 0187 0D       		.uleb128 0xd
 842 0188 0A030000 		.4byte	.LASF33
 843 018c 01       		.byte	0x1
 844 018d 44       		.byte	0x44
 845 018e F0000000 		.4byte	0xf0
 846 0192 02       		.uleb128 0x2
 847 0193 91       		.byte	0x91
 848 0194 70       		.sleb128 -16
 849 0195 0D       		.uleb128 0xd
 850 0196 B7020000 		.4byte	.LASF34
 851 019a 01       		.byte	0x1
 852 019b 45       		.byte	0x45
 853 019c F0000000 		.4byte	0xf0
 854 01a0 02       		.uleb128 0x2
 855 01a1 91       		.byte	0x91
 856 01a2 6C       		.sleb128 -20
 857 01a3 0D       		.uleb128 0xd
 858 01a4 90000000 		.4byte	.LASF35
 859 01a8 01       		.byte	0x1
 860 01a9 46       		.byte	0x46
 861 01aa F0000000 		.4byte	0xf0
 862 01ae 02       		.uleb128 0x2
 863 01af 91       		.byte	0x91
 864 01b0 48       		.sleb128 -56
 865 01b1 0E       		.uleb128 0xe
 866 01b2 707800   		.ascii	"px\000"
 867 01b5 01       		.byte	0x1
 868 01b6 47       		.byte	0x47
 869 01b7 F0000000 		.4byte	0xf0
 870 01bb 02       		.uleb128 0x2
ARM GAS  C:\Users\fneves\AppData\Local\Temp\ccCX8F1S.s 			page 21


 871 01bc 91       		.byte	0x91
 872 01bd 68       		.sleb128 -24
 873 01be 0D       		.uleb128 0xd
 874 01bf 46010000 		.4byte	.LASF36
 875 01c3 01       		.byte	0x1
 876 01c4 48       		.byte	0x48
 877 01c5 76000000 		.4byte	0x76
 878 01c9 02       		.uleb128 0x2
 879 01ca 91       		.byte	0x91
 880 01cb 46       		.sleb128 -58
 881 01cc 0D       		.uleb128 0xd
 882 01cd 12000000 		.4byte	.LASF37
 883 01d1 01       		.byte	0x1
 884 01d2 49       		.byte	0x49
 885 01d3 76000000 		.4byte	0x76
 886 01d7 02       		.uleb128 0x2
 887 01d8 91       		.byte	0x91
 888 01d9 44       		.sleb128 -60
 889 01da 0D       		.uleb128 0xd
 890 01db 09000000 		.4byte	.LASF38
 891 01df 01       		.byte	0x1
 892 01e0 4A       		.byte	0x4a
 893 01e1 76000000 		.4byte	0x76
 894 01e5 02       		.uleb128 0x2
 895 01e6 91       		.byte	0x91
 896 01e7 42       		.sleb128 -62
 897 01e8 0D       		.uleb128 0xd
 898 01e9 00000000 		.4byte	.LASF39
 899 01ed 01       		.byte	0x1
 900 01ee 4B       		.byte	0x4b
 901 01ef E4000000 		.4byte	0xe4
 902 01f3 02       		.uleb128 0x2
 903 01f4 91       		.byte	0x91
 904 01f5 64       		.sleb128 -28
 905 01f6 0D       		.uleb128 0xd
 906 01f7 88020000 		.4byte	.LASF40
 907 01fb 01       		.byte	0x1
 908 01fc 4B       		.byte	0x4b
 909 01fd E4000000 		.4byte	0xe4
 910 0201 02       		.uleb128 0x2
 911 0202 91       		.byte	0x91
 912 0203 60       		.sleb128 -32
 913 0204 0E       		.uleb128 0xe
 914 0205 613000   		.ascii	"a0\000"
 915 0208 01       		.byte	0x1
 916 0209 4C       		.byte	0x4c
 917 020a E4000000 		.4byte	0xe4
 918 020e 03       		.uleb128 0x3
 919 020f 91       		.byte	0x91
 920 0210 BC7F     		.sleb128 -68
 921 0212 0E       		.uleb128 0xe
 922 0213 623000   		.ascii	"b0\000"
 923 0216 01       		.byte	0x1
 924 0217 4C       		.byte	0x4c
 925 0218 E4000000 		.4byte	0xe4
 926 021c 03       		.uleb128 0x3
 927 021d 91       		.byte	0x91
ARM GAS  C:\Users\fneves\AppData\Local\Temp\ccCX8F1S.s 			page 22


 928 021e B47F     		.sleb128 -76
 929 0220 0E       		.uleb128 0xe
 930 0221 633000   		.ascii	"c0\000"
 931 0224 01       		.byte	0x1
 932 0225 4C       		.byte	0x4c
 933 0226 E4000000 		.4byte	0xe4
 934 022a 03       		.uleb128 0x3
 935 022b 91       		.byte	0x91
 936 022c B87F     		.sleb128 -72
 937 022e 0E       		.uleb128 0xe
 938 022f 643000   		.ascii	"d0\000"
 939 0232 01       		.byte	0x1
 940 0233 4C       		.byte	0x4c
 941 0234 E4000000 		.4byte	0xe4
 942 0238 03       		.uleb128 0x3
 943 0239 91       		.byte	0x91
 944 023a B07F     		.sleb128 -80
 945 023c 0E       		.uleb128 0xe
 946 023d 613100   		.ascii	"a1\000"
 947 0240 01       		.byte	0x1
 948 0241 4D       		.byte	0x4d
 949 0242 E4000000 		.4byte	0xe4
 950 0246 03       		.uleb128 0x3
 951 0247 91       		.byte	0x91
 952 0248 AC7F     		.sleb128 -84
 953 024a 0E       		.uleb128 0xe
 954 024b 623100   		.ascii	"b1\000"
 955 024e 01       		.byte	0x1
 956 024f 4D       		.byte	0x4d
 957 0250 E4000000 		.4byte	0xe4
 958 0254 03       		.uleb128 0x3
 959 0255 91       		.byte	0x91
 960 0256 A47F     		.sleb128 -92
 961 0258 0E       		.uleb128 0xe
 962 0259 633100   		.ascii	"c1\000"
 963 025c 01       		.byte	0x1
 964 025d 4D       		.byte	0x4d
 965 025e E4000000 		.4byte	0xe4
 966 0262 03       		.uleb128 0x3
 967 0263 91       		.byte	0x91
 968 0264 A87F     		.sleb128 -88
 969 0266 0E       		.uleb128 0xe
 970 0267 643100   		.ascii	"d1\000"
 971 026a 01       		.byte	0x1
 972 026b 4D       		.byte	0x4d
 973 026c E4000000 		.4byte	0xe4
 974 0270 03       		.uleb128 0x3
 975 0271 91       		.byte	0x91
 976 0272 A07F     		.sleb128 -96
 977 0274 0D       		.uleb128 0xd
 978 0275 FC020000 		.4byte	.LASF41
 979 0279 01       		.byte	0x1
 980 027a 4E       		.byte	0x4e
 981 027b E4000000 		.4byte	0xe4
 982 027f 02       		.uleb128 0x2
 983 0280 91       		.byte	0x91
 984 0281 5C       		.sleb128 -36
ARM GAS  C:\Users\fneves\AppData\Local\Temp\ccCX8F1S.s 			page 23


 985 0282 0D       		.uleb128 0xd
 986 0283 91020000 		.4byte	.LASF42
 987 0287 01       		.byte	0x1
 988 0288 4E       		.byte	0x4e
 989 0289 E4000000 		.4byte	0xe4
 990 028d 02       		.uleb128 0x2
 991 028e 91       		.byte	0x91
 992 028f 58       		.sleb128 -40
 993 0290 0E       		.uleb128 0xe
 994 0291 636F6C00 		.ascii	"col\000"
 995 0295 01       		.byte	0x1
 996 0296 53       		.byte	0x53
 997 0297 76000000 		.4byte	0x76
 998 029b 02       		.uleb128 0x2
 999 029c 91       		.byte	0x91
 1000 029d 56       		.sleb128 -42
 1001 029e 0E       		.uleb128 0xe
 1002 029f 6900     		.ascii	"i\000"
 1003 02a1 01       		.byte	0x1
 1004 02a2 53       		.byte	0x53
 1005 02a3 76000000 		.4byte	0x76
 1006 02a7 02       		.uleb128 0x2
 1007 02a8 91       		.byte	0x91
 1008 02a9 54       		.sleb128 -44
 1009 02aa 0E       		.uleb128 0xe
 1010 02ab 6A00     		.ascii	"j\000"
 1011 02ad 01       		.byte	0x1
 1012 02ae 53       		.byte	0x53
 1013 02af 76000000 		.4byte	0x76
 1014 02b3 02       		.uleb128 0x2
 1015 02b4 91       		.byte	0x91
 1016 02b5 52       		.sleb128 -46
 1017 02b6 0E       		.uleb128 0xe
 1018 02b7 726F7700 		.ascii	"row\000"
 1019 02bb 01       		.byte	0x1
 1020 02bc 53       		.byte	0x53
 1021 02bd 76000000 		.4byte	0x76
 1022 02c1 02       		.uleb128 0x2
 1023 02c2 91       		.byte	0x91
 1024 02c3 50       		.sleb128 -48
 1025 02c4 0D       		.uleb128 0xd
 1026 02c5 34020000 		.4byte	.LASF43
 1027 02c9 01       		.byte	0x1
 1028 02ca 53       		.byte	0x53
 1029 02cb 76000000 		.4byte	0x76
 1030 02cf 02       		.uleb128 0x2
 1031 02d0 91       		.byte	0x91
 1032 02d1 4E       		.sleb128 -50
 1033 02d2 0D       		.uleb128 0xd
 1034 02d3 83000000 		.4byte	.LASF44
 1035 02d7 01       		.byte	0x1
 1036 02d8 54       		.byte	0x54
 1037 02d9 D8000000 		.4byte	0xd8
 1038 02dd 03       		.uleb128 0x3
 1039 02de 91       		.byte	0x91
 1040 02df 9F7F     		.sleb128 -97
 1041 02e1 00       		.byte	0
ARM GAS  C:\Users\fneves\AppData\Local\Temp\ccCX8F1S.s 			page 24


 1042 02e2 08       		.uleb128 0x8
 1043 02e3 04       		.byte	0x4
 1044 02e4 E8020000 		.4byte	0x2e8
 1045 02e8 0F       		.uleb128 0xf
 1046 02e9 27010000 		.4byte	0x127
 1047 02ed 08       		.uleb128 0x8
 1048 02ee 04       		.byte	0x4
 1049 02ef 27010000 		.4byte	0x127
 1050 02f3 00       		.byte	0
 1051              		.section	.debug_abbrev,"",%progbits
 1052              	.Ldebug_abbrev0:
 1053 0000 01       		.uleb128 0x1
 1054 0001 11       		.uleb128 0x11
 1055 0002 01       		.byte	0x1
 1056 0003 25       		.uleb128 0x25
 1057 0004 0E       		.uleb128 0xe
 1058 0005 13       		.uleb128 0x13
 1059 0006 0B       		.uleb128 0xb
 1060 0007 03       		.uleb128 0x3
 1061 0008 0E       		.uleb128 0xe
 1062 0009 1B       		.uleb128 0x1b
 1063 000a 0E       		.uleb128 0xe
 1064 000b 55       		.uleb128 0x55
 1065 000c 17       		.uleb128 0x17
 1066 000d 11       		.uleb128 0x11
 1067 000e 01       		.uleb128 0x1
 1068 000f 10       		.uleb128 0x10
 1069 0010 17       		.uleb128 0x17
 1070 0011 00       		.byte	0
 1071 0012 00       		.byte	0
 1072 0013 02       		.uleb128 0x2
 1073 0014 24       		.uleb128 0x24
 1074 0015 00       		.byte	0
 1075 0016 0B       		.uleb128 0xb
 1076 0017 0B       		.uleb128 0xb
 1077 0018 3E       		.uleb128 0x3e
 1078 0019 0B       		.uleb128 0xb
 1079 001a 03       		.uleb128 0x3
 1080 001b 0E       		.uleb128 0xe
 1081 001c 00       		.byte	0
 1082 001d 00       		.byte	0
 1083 001e 03       		.uleb128 0x3
 1084 001f 16       		.uleb128 0x16
 1085 0020 00       		.byte	0
 1086 0021 03       		.uleb128 0x3
 1087 0022 0E       		.uleb128 0xe
 1088 0023 3A       		.uleb128 0x3a
 1089 0024 0B       		.uleb128 0xb
 1090 0025 3B       		.uleb128 0x3b
 1091 0026 0B       		.uleb128 0xb
 1092 0027 49       		.uleb128 0x49
 1093 0028 13       		.uleb128 0x13
 1094 0029 00       		.byte	0
 1095 002a 00       		.byte	0
 1096 002b 04       		.uleb128 0x4
 1097 002c 24       		.uleb128 0x24
 1098 002d 00       		.byte	0
ARM GAS  C:\Users\fneves\AppData\Local\Temp\ccCX8F1S.s 			page 25


 1099 002e 0B       		.uleb128 0xb
 1100 002f 0B       		.uleb128 0xb
 1101 0030 3E       		.uleb128 0x3e
 1102 0031 0B       		.uleb128 0xb
 1103 0032 03       		.uleb128 0x3
 1104 0033 08       		.uleb128 0x8
 1105 0034 00       		.byte	0
 1106 0035 00       		.byte	0
 1107 0036 05       		.uleb128 0x5
 1108 0037 04       		.uleb128 0x4
 1109 0038 01       		.byte	0x1
 1110 0039 0B       		.uleb128 0xb
 1111 003a 0B       		.uleb128 0xb
 1112 003b 3A       		.uleb128 0x3a
 1113 003c 0B       		.uleb128 0xb
 1114 003d 3B       		.uleb128 0x3b
 1115 003e 05       		.uleb128 0x5
 1116 003f 01       		.uleb128 0x1
 1117 0040 13       		.uleb128 0x13
 1118 0041 00       		.byte	0
 1119 0042 00       		.byte	0
 1120 0043 06       		.uleb128 0x6
 1121 0044 28       		.uleb128 0x28
 1122 0045 00       		.byte	0
 1123 0046 03       		.uleb128 0x3
 1124 0047 0E       		.uleb128 0xe
 1125 0048 1C       		.uleb128 0x1c
 1126 0049 0D       		.uleb128 0xd
 1127 004a 00       		.byte	0
 1128 004b 00       		.byte	0
 1129 004c 07       		.uleb128 0x7
 1130 004d 16       		.uleb128 0x16
 1131 004e 00       		.byte	0
 1132 004f 03       		.uleb128 0x3
 1133 0050 0E       		.uleb128 0xe
 1134 0051 3A       		.uleb128 0x3a
 1135 0052 0B       		.uleb128 0xb
 1136 0053 3B       		.uleb128 0x3b
 1137 0054 05       		.uleb128 0x5
 1138 0055 49       		.uleb128 0x49
 1139 0056 13       		.uleb128 0x13
 1140 0057 00       		.byte	0
 1141 0058 00       		.byte	0
 1142 0059 08       		.uleb128 0x8
 1143 005a 0F       		.uleb128 0xf
 1144 005b 00       		.byte	0
 1145 005c 0B       		.uleb128 0xb
 1146 005d 0B       		.uleb128 0xb
 1147 005e 49       		.uleb128 0x49
 1148 005f 13       		.uleb128 0x13
 1149 0060 00       		.byte	0
 1150 0061 00       		.byte	0
 1151 0062 09       		.uleb128 0x9
 1152 0063 13       		.uleb128 0x13
 1153 0064 01       		.byte	0x1
 1154 0065 0B       		.uleb128 0xb
 1155 0066 0B       		.uleb128 0xb
ARM GAS  C:\Users\fneves\AppData\Local\Temp\ccCX8F1S.s 			page 26


 1156 0067 3A       		.uleb128 0x3a
 1157 0068 0B       		.uleb128 0xb
 1158 0069 3B       		.uleb128 0x3b
 1159 006a 05       		.uleb128 0x5
 1160 006b 01       		.uleb128 0x1
 1161 006c 13       		.uleb128 0x13
 1162 006d 00       		.byte	0
 1163 006e 00       		.byte	0
 1164 006f 0A       		.uleb128 0xa
 1165 0070 0D       		.uleb128 0xd
 1166 0071 00       		.byte	0
 1167 0072 03       		.uleb128 0x3
 1168 0073 0E       		.uleb128 0xe
 1169 0074 3A       		.uleb128 0x3a
 1170 0075 0B       		.uleb128 0xb
 1171 0076 3B       		.uleb128 0x3b
 1172 0077 05       		.uleb128 0x5
 1173 0078 49       		.uleb128 0x49
 1174 0079 13       		.uleb128 0x13
 1175 007a 38       		.uleb128 0x38
 1176 007b 0B       		.uleb128 0xb
 1177 007c 00       		.byte	0
 1178 007d 00       		.byte	0
 1179 007e 0B       		.uleb128 0xb
 1180 007f 2E       		.uleb128 0x2e
 1181 0080 01       		.byte	0x1
 1182 0081 3F       		.uleb128 0x3f
 1183 0082 19       		.uleb128 0x19
 1184 0083 03       		.uleb128 0x3
 1185 0084 0E       		.uleb128 0xe
 1186 0085 3A       		.uleb128 0x3a
 1187 0086 0B       		.uleb128 0xb
 1188 0087 3B       		.uleb128 0x3b
 1189 0088 0B       		.uleb128 0xb
 1190 0089 27       		.uleb128 0x27
 1191 008a 19       		.uleb128 0x19
 1192 008b 49       		.uleb128 0x49
 1193 008c 13       		.uleb128 0x13
 1194 008d 11       		.uleb128 0x11
 1195 008e 01       		.uleb128 0x1
 1196 008f 12       		.uleb128 0x12
 1197 0090 06       		.uleb128 0x6
 1198 0091 40       		.uleb128 0x40
 1199 0092 18       		.uleb128 0x18
 1200 0093 9642     		.uleb128 0x2116
 1201 0095 19       		.uleb128 0x19
 1202 0096 01       		.uleb128 0x1
 1203 0097 13       		.uleb128 0x13
 1204 0098 00       		.byte	0
 1205 0099 00       		.byte	0
 1206 009a 0C       		.uleb128 0xc
 1207 009b 05       		.uleb128 0x5
 1208 009c 00       		.byte	0
 1209 009d 03       		.uleb128 0x3
 1210 009e 0E       		.uleb128 0xe
 1211 009f 3A       		.uleb128 0x3a
 1212 00a0 0B       		.uleb128 0xb
ARM GAS  C:\Users\fneves\AppData\Local\Temp\ccCX8F1S.s 			page 27


 1213 00a1 3B       		.uleb128 0x3b
 1214 00a2 0B       		.uleb128 0xb
 1215 00a3 49       		.uleb128 0x49
 1216 00a4 13       		.uleb128 0x13
 1217 00a5 02       		.uleb128 0x2
 1218 00a6 18       		.uleb128 0x18
 1219 00a7 00       		.byte	0
 1220 00a8 00       		.byte	0
 1221 00a9 0D       		.uleb128 0xd
 1222 00aa 34       		.uleb128 0x34
 1223 00ab 00       		.byte	0
 1224 00ac 03       		.uleb128 0x3
 1225 00ad 0E       		.uleb128 0xe
 1226 00ae 3A       		.uleb128 0x3a
 1227 00af 0B       		.uleb128 0xb
 1228 00b0 3B       		.uleb128 0x3b
 1229 00b1 0B       		.uleb128 0xb
 1230 00b2 49       		.uleb128 0x49
 1231 00b3 13       		.uleb128 0x13
 1232 00b4 02       		.uleb128 0x2
 1233 00b5 18       		.uleb128 0x18
 1234 00b6 00       		.byte	0
 1235 00b7 00       		.byte	0
 1236 00b8 0E       		.uleb128 0xe
 1237 00b9 34       		.uleb128 0x34
 1238 00ba 00       		.byte	0
 1239 00bb 03       		.uleb128 0x3
 1240 00bc 08       		.uleb128 0x8
 1241 00bd 3A       		.uleb128 0x3a
 1242 00be 0B       		.uleb128 0xb
 1243 00bf 3B       		.uleb128 0x3b
 1244 00c0 0B       		.uleb128 0xb
 1245 00c1 49       		.uleb128 0x49
 1246 00c2 13       		.uleb128 0x13
 1247 00c3 02       		.uleb128 0x2
 1248 00c4 18       		.uleb128 0x18
 1249 00c5 00       		.byte	0
 1250 00c6 00       		.byte	0
 1251 00c7 0F       		.uleb128 0xf
 1252 00c8 26       		.uleb128 0x26
 1253 00c9 00       		.byte	0
 1254 00ca 49       		.uleb128 0x49
 1255 00cb 13       		.uleb128 0x13
 1256 00cc 00       		.byte	0
 1257 00cd 00       		.byte	0
 1258 00ce 00       		.byte	0
 1259              		.section	.debug_aranges,"",%progbits
 1260 0000 1C000000 		.4byte	0x1c
 1261 0004 0200     		.2byte	0x2
 1262 0006 00000000 		.4byte	.Ldebug_info0
 1263 000a 04       		.byte	0x4
 1264 000b 00       		.byte	0
 1265 000c 0000     		.2byte	0
 1266 000e 0000     		.2byte	0
 1267 0010 00000000 		.4byte	.LFB82
 1268 0014 40040000 		.4byte	.LFE82-.LFB82
 1269 0018 00000000 		.4byte	0
ARM GAS  C:\Users\fneves\AppData\Local\Temp\ccCX8F1S.s 			page 28


 1270 001c 00000000 		.4byte	0
 1271              		.section	.debug_ranges,"",%progbits
 1272              	.Ldebug_ranges0:
 1273 0000 00000000 		.4byte	.LFB82
 1274 0004 40040000 		.4byte	.LFE82
 1275 0008 00000000 		.4byte	0
 1276 000c 00000000 		.4byte	0
 1277              		.section	.debug_line,"",%progbits
 1278              	.Ldebug_line0:
 1279 0000 D4010000 		.section	.debug_str,"MS",%progbits,1
 1279      02005601 
 1279      00000201 
 1279      FB0E0D00 
 1279      01010101 
 1280              	.LASF39:
 1281 0000 73756D52 		.ascii	"sumReal1\000"
 1281      65616C31 
 1281      00
 1282              	.LASF38:
 1283 0009 6E756D43 		.ascii	"numColsA\000"
 1283      6F6C7341 
 1283      00
 1284              	.LASF37:
 1285 0012 6E756D43 		.ascii	"numColsB\000"
 1285      6F6C7342 
 1285      00
 1286              	.LASF18:
 1287 001b 41524D5F 		.ascii	"ARM_MATH_LENGTH_ERROR\000"
 1287      4D415448 
 1287      5F4C454E 
 1287      4754485F 
 1287      4552524F 
 1288              	.LASF29:
 1289 0031 70537263 		.ascii	"pSrcA\000"
 1289      4100
 1290              	.LASF30:
 1291 0037 70537263 		.ascii	"pSrcB\000"
 1291      4200
 1292              	.LASF47:
 1293 003d 433A5C55 		.ascii	"C:\\Users\\fneves\\Documents\\PSoC Creator\\wp_1\\e"
 1293      73657273 
 1293      5C666E65 
 1293      7665735C 
 1293      446F6375 
 1294 006a 6E67696E 		.ascii	"ngine_speed_sensor.cydsn\000"
 1294      655F7370 
 1294      6565645F 
 1294      73656E73 
 1294      6F722E63 
 1295              	.LASF44:
 1296 0083 73746174 		.ascii	"status\000"
 1296      757300
 1297              	.LASF27:
 1298 008a 70446174 		.ascii	"pData\000"
 1298      6100
 1299              	.LASF35:
 1300 0090 704F7574 		.ascii	"pOut\000"
ARM GAS  C:\Users\fneves\AppData\Local\Temp\ccCX8F1S.s 			page 29


 1300      00
 1301              	.LASF46:
 1302 0095 536F7572 		.ascii	"Source\\MatrixFunctions\\arm_mat_cmplx_mult_f32.c\000"
 1302      63655C4D 
 1302      61747269 
 1302      7846756E 
 1302      6374696F 
 1303              	.LASF1:
 1304 00c5 756E7369 		.ascii	"unsigned char\000"
 1304      676E6564 
 1304      20636861 
 1304      7200
 1305              	.LASF48:
 1306 00d3 61726D5F 		.ascii	"arm_mat_cmplx_mult_f32\000"
 1306      6D61745F 
 1306      636D706C 
 1306      785F6D75 
 1306      6C745F66 
 1307              	.LASF22:
 1308 00ea 41524D5F 		.ascii	"ARM_MATH_TEST_FAILURE\000"
 1308      4D415448 
 1308      5F544553 
 1308      545F4641 
 1308      494C5552 
 1309              	.LASF5:
 1310 0100 6C6F6E67 		.ascii	"long unsigned int\000"
 1310      20756E73 
 1310      69676E65 
 1310      6420696E 
 1310      7400
 1311              	.LASF3:
 1312 0112 73686F72 		.ascii	"short unsigned int\000"
 1312      7420756E 
 1312      7369676E 
 1312      65642069 
 1312      6E7400
 1313              	.LASF31:
 1314 0125 70447374 		.ascii	"pDst\000"
 1314      00
 1315              	.LASF9:
 1316 012a 5F5F7569 		.ascii	"__uint16_t\000"
 1316      6E743136 
 1316      5F7400
 1317              	.LASF13:
 1318 0135 646F7562 		.ascii	"double\000"
 1318      6C6500
 1319              	.LASF2:
 1320 013c 73686F72 		.ascii	"short int\000"
 1320      7420696E 
 1320      7400
 1321              	.LASF36:
 1322 0146 6E756D52 		.ascii	"numRowsA\000"
 1322      6F777341 
 1322      00
 1323              	.LASF17:
 1324 014f 41524D5F 		.ascii	"ARM_MATH_ARGUMENT_ERROR\000"
 1324      4D415448 
ARM GAS  C:\Users\fneves\AppData\Local\Temp\ccCX8F1S.s 			page 30


 1324      5F415247 
 1324      554D454E 
 1324      545F4552 
 1325              	.LASF8:
 1326 0167 756E7369 		.ascii	"unsigned int\000"
 1326      676E6564 
 1326      20696E74 
 1326      00
 1327              	.LASF7:
 1328 0174 6C6F6E67 		.ascii	"long long unsigned int\000"
 1328      206C6F6E 
 1328      6720756E 
 1328      7369676E 
 1328      65642069 
 1329              	.LASF45:
 1330 018b 474E5520 		.ascii	"GNU C 4.9.3 20150303 (release) [ARM/embedded-4_9-br"
 1330      4320342E 
 1330      392E3320 
 1330      32303135 
 1330      30333033 
 1331 01be 616E6368 		.ascii	"anch revision 221220] -mcpu=cortex-m0plus -mthumb -"
 1331      20726576 
 1331      6973696F 
 1331      6E203232 
 1331      31323230 
 1332 01f1 67202D4F 		.ascii	"g -O0 -ffunction-sections -ffat-lto-objects\000"
 1332      30202D66 
 1332      66756E63 
 1332      74696F6E 
 1332      2D736563 
 1333              	.LASF19:
 1334 021d 41524D5F 		.ascii	"ARM_MATH_SIZE_MISMATCH\000"
 1334      4D415448 
 1334      5F53495A 
 1334      455F4D49 
 1334      534D4154 
 1335              	.LASF43:
 1336 0234 636F6C43 		.ascii	"colCnt\000"
 1336      6E7400
 1337              	.LASF20:
 1338 023b 41524D5F 		.ascii	"ARM_MATH_NANINF\000"
 1338      4D415448 
 1338      5F4E414E 
 1338      494E4600 
 1339              	.LASF11:
 1340 024b 73697A65 		.ascii	"sizetype\000"
 1340      74797065 
 1340      00
 1341              	.LASF6:
 1342 0254 6C6F6E67 		.ascii	"long long int\000"
 1342      206C6F6E 
 1342      6720696E 
 1342      7400
 1343              	.LASF14:
 1344 0262 666C6F61 		.ascii	"float\000"
 1344      7400
 1345              	.LASF12:
ARM GAS  C:\Users\fneves\AppData\Local\Temp\ccCX8F1S.s 			page 31


 1346 0268 63686172 		.ascii	"char\000"
 1346      00
 1347              	.LASF24:
 1348 026d 666C6F61 		.ascii	"float32_t\000"
 1348      7433325F 
 1348      7400
 1349              	.LASF16:
 1350 0277 41524D5F 		.ascii	"ARM_MATH_SUCCESS\000"
 1350      4D415448 
 1350      5F535543 
 1350      43455353 
 1350      00
 1351              	.LASF40:
 1352 0288 73756D49 		.ascii	"sumImag1\000"
 1352      6D616731 
 1352      00
 1353              	.LASF42:
 1354 0291 73756D49 		.ascii	"sumImag2\000"
 1354      6D616732 
 1354      00
 1355              	.LASF10:
 1356 029a 75696E74 		.ascii	"uint16_t\000"
 1356      31365F74 
 1356      00
 1357              	.LASF23:
 1358 02a3 61726D5F 		.ascii	"arm_status\000"
 1358      73746174 
 1358      757300
 1359              	.LASF4:
 1360 02ae 6C6F6E67 		.ascii	"long int\000"
 1360      20696E74 
 1360      00
 1361              	.LASF34:
 1362 02b7 70496E41 		.ascii	"pInA\000"
 1362      00
 1363              	.LASF15:
 1364 02bc 6C6F6E67 		.ascii	"long double\000"
 1364      20646F75 
 1364      626C6500 
 1365              	.LASF28:
 1366 02c8 61726D5F 		.ascii	"arm_matrix_instance_f32\000"
 1366      6D617472 
 1366      69785F69 
 1366      6E737461 
 1366      6E63655F 
 1367              	.LASF0:
 1368 02e0 7369676E 		.ascii	"signed char\000"
 1368      65642063 
 1368      68617200 
 1369              	.LASF25:
 1370 02ec 6E756D52 		.ascii	"numRows\000"
 1370      6F777300 
 1371              	.LASF26:
 1372 02f4 6E756D43 		.ascii	"numCols\000"
 1372      6F6C7300 
 1373              	.LASF41:
 1374 02fc 73756D52 		.ascii	"sumReal2\000"
ARM GAS  C:\Users\fneves\AppData\Local\Temp\ccCX8F1S.s 			page 32


 1374      65616C32 
 1374      00
 1375              	.LASF32:
 1376 0305 70496E31 		.ascii	"pIn1\000"
 1376      00
 1377              	.LASF33:
 1378 030a 70496E32 		.ascii	"pIn2\000"
 1378      00
 1379              	.LASF21:
 1380 030f 41524D5F 		.ascii	"ARM_MATH_SINGULAR\000"
 1380      4D415448 
 1380      5F53494E 
 1380      47554C41 
 1380      5200
 1381              		.ident	"GCC: (GNU Tools for ARM Embedded Processors) 4.9.3 20150303 (release) [ARM/embedded-4_9-br
