ARM GAS  C:\Users\fneves\AppData\Local\Temp\cc8rLVZu.s 			page 1


   1              		.cpu cortex-m0plus
   2              		.fpu softvfp
   3              		.eabi_attribute 20, 1
   4              		.eabi_attribute 21, 1
   5              		.eabi_attribute 23, 3
   6              		.eabi_attribute 24, 1
   7              		.eabi_attribute 25, 1
   8              		.eabi_attribute 26, 1
   9              		.eabi_attribute 30, 6
  10              		.eabi_attribute 34, 0
  11              		.eabi_attribute 18, 4
  12              		.code	16
  13              		.file	"arm_var_f32.c"
  14              		.text
  15              	.Ltext0:
  16              		.cfi_sections	.debug_frame
  17              		.global	__aeabi_fadd
  18              		.global	__aeabi_ui2f
  19              		.global	__aeabi_fdiv
  20              		.global	__aeabi_fsub
  21              		.global	__aeabi_fmul
  22              		.section	.text.arm_var_f32,"ax",%progbits
  23              		.align	2
  24              		.global	arm_var_f32
  25              		.code	16
  26              		.thumb_func
  27              		.type	arm_var_f32, %function
  28              	arm_var_f32:
  29              	.LFB82:
  30              		.file 1 "Source\\StatisticsFunctions\\arm_var_f32.c"
   1:Source\StatisticsFunctions/arm_var_f32.c **** /* ----------------------------------------------------------------------
   2:Source\StatisticsFunctions/arm_var_f32.c ****  * Project:      CMSIS DSP Library
   3:Source\StatisticsFunctions/arm_var_f32.c ****  * Title:        arm_var_f32.c
   4:Source\StatisticsFunctions/arm_var_f32.c ****  * Description:  Variance of the elements of a floating-point vector
   5:Source\StatisticsFunctions/arm_var_f32.c ****  *
   6:Source\StatisticsFunctions/arm_var_f32.c ****  * $Date:        27. January 2017
   7:Source\StatisticsFunctions/arm_var_f32.c ****  * $Revision:    V.1.5.1
   8:Source\StatisticsFunctions/arm_var_f32.c ****  *
   9:Source\StatisticsFunctions/arm_var_f32.c ****  * Target Processor: Cortex-M cores
  10:Source\StatisticsFunctions/arm_var_f32.c ****  * -------------------------------------------------------------------- */
  11:Source\StatisticsFunctions/arm_var_f32.c **** /*
  12:Source\StatisticsFunctions/arm_var_f32.c ****  * Copyright (C) 2010-2017 ARM Limited or its affiliates. All rights reserved.
  13:Source\StatisticsFunctions/arm_var_f32.c ****  *
  14:Source\StatisticsFunctions/arm_var_f32.c ****  * SPDX-License-Identifier: Apache-2.0
  15:Source\StatisticsFunctions/arm_var_f32.c ****  *
  16:Source\StatisticsFunctions/arm_var_f32.c ****  * Licensed under the Apache License, Version 2.0 (the License); you may
  17:Source\StatisticsFunctions/arm_var_f32.c ****  * not use this file except in compliance with the License.
  18:Source\StatisticsFunctions/arm_var_f32.c ****  * You may obtain a copy of the License at
  19:Source\StatisticsFunctions/arm_var_f32.c ****  *
  20:Source\StatisticsFunctions/arm_var_f32.c ****  * www.apache.org/licenses/LICENSE-2.0
  21:Source\StatisticsFunctions/arm_var_f32.c ****  *
  22:Source\StatisticsFunctions/arm_var_f32.c ****  * Unless required by applicable law or agreed to in writing, software
  23:Source\StatisticsFunctions/arm_var_f32.c ****  * distributed under the License is distributed on an AS IS BASIS, WITHOUT
  24:Source\StatisticsFunctions/arm_var_f32.c ****  * WARRANTIES OR CONDITIONS OF ANY KIND, either express or implied.
  25:Source\StatisticsFunctions/arm_var_f32.c ****  * See the License for the specific language governing permissions and
  26:Source\StatisticsFunctions/arm_var_f32.c ****  * limitations under the License.
  27:Source\StatisticsFunctions/arm_var_f32.c ****  */
ARM GAS  C:\Users\fneves\AppData\Local\Temp\cc8rLVZu.s 			page 2


  28:Source\StatisticsFunctions/arm_var_f32.c **** 
  29:Source\StatisticsFunctions/arm_var_f32.c **** #include "arm_math.h"
  30:Source\StatisticsFunctions/arm_var_f32.c **** 
  31:Source\StatisticsFunctions/arm_var_f32.c **** /**
  32:Source\StatisticsFunctions/arm_var_f32.c ****  * @ingroup groupStats
  33:Source\StatisticsFunctions/arm_var_f32.c ****  */
  34:Source\StatisticsFunctions/arm_var_f32.c **** 
  35:Source\StatisticsFunctions/arm_var_f32.c **** /**
  36:Source\StatisticsFunctions/arm_var_f32.c ****  * @defgroup variance  Variance
  37:Source\StatisticsFunctions/arm_var_f32.c ****  *
  38:Source\StatisticsFunctions/arm_var_f32.c ****  * Calculates the variance of the elements in the input vector.
  39:Source\StatisticsFunctions/arm_var_f32.c ****  * The underlying algorithm used is the direct method sometimes referred to as the two-pass method:
  40:Source\StatisticsFunctions/arm_var_f32.c ****  *
  41:Source\StatisticsFunctions/arm_var_f32.c ****  * <pre>
  42:Source\StatisticsFunctions/arm_var_f32.c ****  *   Result = sum(element - meanOfElements)^2) / numElement - 1
  43:Source\StatisticsFunctions/arm_var_f32.c ****  *
  44:Source\StatisticsFunctions/arm_var_f32.c ****  *     where, meanOfElements = ( pSrc[0] * pSrc[0] + pSrc[1] * pSrc[1] + ... + pSrc[blockSize-1] ) 
  45:Source\StatisticsFunctions/arm_var_f32.c ****  *
  46:Source\StatisticsFunctions/arm_var_f32.c ****  * </pre>
  47:Source\StatisticsFunctions/arm_var_f32.c ****  *
  48:Source\StatisticsFunctions/arm_var_f32.c ****  * There are separate functions for floating point, Q31, and Q15 data types.
  49:Source\StatisticsFunctions/arm_var_f32.c ****  */
  50:Source\StatisticsFunctions/arm_var_f32.c **** 
  51:Source\StatisticsFunctions/arm_var_f32.c **** /**
  52:Source\StatisticsFunctions/arm_var_f32.c ****  * @addtogroup variance
  53:Source\StatisticsFunctions/arm_var_f32.c ****  * @{
  54:Source\StatisticsFunctions/arm_var_f32.c ****  */
  55:Source\StatisticsFunctions/arm_var_f32.c **** 
  56:Source\StatisticsFunctions/arm_var_f32.c **** 
  57:Source\StatisticsFunctions/arm_var_f32.c **** /**
  58:Source\StatisticsFunctions/arm_var_f32.c ****  * @brief Variance of the elements of a floating-point vector.
  59:Source\StatisticsFunctions/arm_var_f32.c ****  * @param[in]       *pSrc points to the input vector
  60:Source\StatisticsFunctions/arm_var_f32.c ****  * @param[in]       blockSize length of the input vector
  61:Source\StatisticsFunctions/arm_var_f32.c ****  * @param[out]      *pResult variance value returned here
  62:Source\StatisticsFunctions/arm_var_f32.c ****  * @return none.
  63:Source\StatisticsFunctions/arm_var_f32.c ****  */
  64:Source\StatisticsFunctions/arm_var_f32.c **** 
  65:Source\StatisticsFunctions/arm_var_f32.c **** void arm_var_f32(
  66:Source\StatisticsFunctions/arm_var_f32.c ****                  float32_t * pSrc,
  67:Source\StatisticsFunctions/arm_var_f32.c ****                  uint32_t blockSize,
  68:Source\StatisticsFunctions/arm_var_f32.c ****                  float32_t * pResult)
  69:Source\StatisticsFunctions/arm_var_f32.c **** {
  31              		.loc 1 69 0
  32              		.cfi_startproc
  33 0000 80B5     		push	{r7, lr}
  34              		.cfi_def_cfa_offset 8
  35              		.cfi_offset 7, -8
  36              		.cfi_offset 14, -4
  37 0002 8AB0     		sub	sp, sp, #40
  38              		.cfi_def_cfa_offset 48
  39 0004 00AF     		add	r7, sp, #0
  40              		.cfi_def_cfa_register 7
  41 0006 F860     		str	r0, [r7, #12]
  42 0008 B960     		str	r1, [r7, #8]
  43 000a 7A60     		str	r2, [r7, #4]
  70:Source\StatisticsFunctions/arm_var_f32.c ****     float32_t fMean, fValue;
  71:Source\StatisticsFunctions/arm_var_f32.c ****     uint32_t blkCnt;            /* loop counter */
ARM GAS  C:\Users\fneves\AppData\Local\Temp\cc8rLVZu.s 			page 3


  72:Source\StatisticsFunctions/arm_var_f32.c ****     float32_t * pInput = pSrc;
  44              		.loc 1 72 0
  45 000c FB68     		ldr	r3, [r7, #12]
  46 000e 3B62     		str	r3, [r7, #32]
  73:Source\StatisticsFunctions/arm_var_f32.c ****     float32_t sum = 0.0f;
  47              		.loc 1 73 0
  48 0010 0023     		mov	r3, #0
  49 0012 FB61     		str	r3, [r7, #28]
  74:Source\StatisticsFunctions/arm_var_f32.c ****     float32_t fSum = 0.0f;
  50              		.loc 1 74 0
  51 0014 0023     		mov	r3, #0
  52 0016 BB61     		str	r3, [r7, #24]
  75:Source\StatisticsFunctions/arm_var_f32.c ****     #if defined(ARM_MATH_DSP)
  76:Source\StatisticsFunctions/arm_var_f32.c ****     float32_t in1, in2, in3, in4;
  77:Source\StatisticsFunctions/arm_var_f32.c ****     #endif
  78:Source\StatisticsFunctions/arm_var_f32.c **** 
  79:Source\StatisticsFunctions/arm_var_f32.c ****     if (blockSize <= 1u)
  53              		.loc 1 79 0
  54 0018 BB68     		ldr	r3, [r7, #8]
  55 001a 012B     		cmp	r3, #1
  56 001c 03D8     		bhi	.L2
  80:Source\StatisticsFunctions/arm_var_f32.c ****     {
  81:Source\StatisticsFunctions/arm_var_f32.c ****         *pResult = 0;
  57              		.loc 1 81 0
  58 001e 7B68     		ldr	r3, [r7, #4]
  59 0020 0022     		mov	r2, #0
  60 0022 1A60     		str	r2, [r3]
  82:Source\StatisticsFunctions/arm_var_f32.c ****         return;
  61              		.loc 1 82 0
  62 0024 4EE0     		b	.L1
  63              	.L2:
  83:Source\StatisticsFunctions/arm_var_f32.c ****     }
  84:Source\StatisticsFunctions/arm_var_f32.c **** 
  85:Source\StatisticsFunctions/arm_var_f32.c ****     #if defined(ARM_MATH_DSP)
  86:Source\StatisticsFunctions/arm_var_f32.c ****         /* Run the below code for Cortex-M4 and Cortex-M7 */
  87:Source\StatisticsFunctions/arm_var_f32.c **** 
  88:Source\StatisticsFunctions/arm_var_f32.c ****         /*loop Unrolling */
  89:Source\StatisticsFunctions/arm_var_f32.c ****         blkCnt = blockSize >> 2u;
  90:Source\StatisticsFunctions/arm_var_f32.c **** 
  91:Source\StatisticsFunctions/arm_var_f32.c ****         /* First part of the processing with loop unrolling.  Compute 4 outputs at a time.
  92:Source\StatisticsFunctions/arm_var_f32.c ****         ** a second loop below computes the remaining 1 to 3 samples. */
  93:Source\StatisticsFunctions/arm_var_f32.c ****         while (blkCnt > 0u)
  94:Source\StatisticsFunctions/arm_var_f32.c ****         {
  95:Source\StatisticsFunctions/arm_var_f32.c ****             /* C = (A[0] + A[1] + A[2] + ... + A[blockSize-1]) */
  96:Source\StatisticsFunctions/arm_var_f32.c ****             in1 = *pInput++;
  97:Source\StatisticsFunctions/arm_var_f32.c ****             in2 = *pInput++;
  98:Source\StatisticsFunctions/arm_var_f32.c ****             in3 = *pInput++;
  99:Source\StatisticsFunctions/arm_var_f32.c ****             in4 = *pInput++;
 100:Source\StatisticsFunctions/arm_var_f32.c **** 
 101:Source\StatisticsFunctions/arm_var_f32.c ****             sum += in1;
 102:Source\StatisticsFunctions/arm_var_f32.c ****             sum += in2;
 103:Source\StatisticsFunctions/arm_var_f32.c ****             sum += in3;
 104:Source\StatisticsFunctions/arm_var_f32.c ****             sum += in4;
 105:Source\StatisticsFunctions/arm_var_f32.c **** 
 106:Source\StatisticsFunctions/arm_var_f32.c ****             /* Decrement the loop counter */
 107:Source\StatisticsFunctions/arm_var_f32.c ****             blkCnt--;
 108:Source\StatisticsFunctions/arm_var_f32.c ****         }
ARM GAS  C:\Users\fneves\AppData\Local\Temp\cc8rLVZu.s 			page 4


 109:Source\StatisticsFunctions/arm_var_f32.c **** 
 110:Source\StatisticsFunctions/arm_var_f32.c ****         /* If the blockSize is not a multiple of 4, compute any remaining output samples here.
 111:Source\StatisticsFunctions/arm_var_f32.c ****         ** No loop unrolling is used. */
 112:Source\StatisticsFunctions/arm_var_f32.c ****         blkCnt = blockSize % 0x4u;
 113:Source\StatisticsFunctions/arm_var_f32.c **** 
 114:Source\StatisticsFunctions/arm_var_f32.c ****     #else
 115:Source\StatisticsFunctions/arm_var_f32.c ****         /* Run the below code for Cortex-M0 or Cortex-M3 */
 116:Source\StatisticsFunctions/arm_var_f32.c **** 
 117:Source\StatisticsFunctions/arm_var_f32.c ****         /* Loop over blockSize number of values */
 118:Source\StatisticsFunctions/arm_var_f32.c ****         blkCnt = blockSize;
  64              		.loc 1 118 0
  65 0026 BB68     		ldr	r3, [r7, #8]
  66 0028 7B62     		str	r3, [r7, #36]
 119:Source\StatisticsFunctions/arm_var_f32.c **** 
 120:Source\StatisticsFunctions/arm_var_f32.c ****     #endif
 121:Source\StatisticsFunctions/arm_var_f32.c **** 
 122:Source\StatisticsFunctions/arm_var_f32.c ****     while (blkCnt > 0u)
  67              		.loc 1 122 0
  68 002a 0CE0     		b	.L4
  69              	.L5:
 123:Source\StatisticsFunctions/arm_var_f32.c ****     {
 124:Source\StatisticsFunctions/arm_var_f32.c ****         /* C = (A[0] + A[1] + A[2] + ... + A[blockSize-1]) */
 125:Source\StatisticsFunctions/arm_var_f32.c ****         sum += *pInput++;
  70              		.loc 1 125 0
  71 002c 3B6A     		ldr	r3, [r7, #32]
  72 002e 1A1D     		add	r2, r3, #4
  73 0030 3A62     		str	r2, [r7, #32]
  74 0032 1B68     		ldr	r3, [r3]
  75 0034 F869     		ldr	r0, [r7, #28]
  76 0036 191C     		add	r1, r3, #0
  77 0038 FFF7FEFF 		bl	__aeabi_fadd
  78 003c 031C     		add	r3, r0, #0
  79 003e FB61     		str	r3, [r7, #28]
 126:Source\StatisticsFunctions/arm_var_f32.c **** 
 127:Source\StatisticsFunctions/arm_var_f32.c ****         /* Decrement the loop counter */
 128:Source\StatisticsFunctions/arm_var_f32.c ****         blkCnt--;
  80              		.loc 1 128 0
  81 0040 7B6A     		ldr	r3, [r7, #36]
  82 0042 013B     		sub	r3, r3, #1
  83 0044 7B62     		str	r3, [r7, #36]
  84              	.L4:
 122:Source\StatisticsFunctions/arm_var_f32.c ****     {
  85              		.loc 1 122 0
  86 0046 7B6A     		ldr	r3, [r7, #36]
  87 0048 002B     		cmp	r3, #0
  88 004a EFD1     		bne	.L5
 129:Source\StatisticsFunctions/arm_var_f32.c ****     }
 130:Source\StatisticsFunctions/arm_var_f32.c **** 
 131:Source\StatisticsFunctions/arm_var_f32.c ****     /* C = (A[0] + A[1] + A[2] + ... + A[blockSize-1]) / blockSize  */
 132:Source\StatisticsFunctions/arm_var_f32.c ****     fMean = sum / (float32_t) blockSize;
  89              		.loc 1 132 0
  90 004c B868     		ldr	r0, [r7, #8]
  91 004e FFF7FEFF 		bl	__aeabi_ui2f
  92 0052 031C     		add	r3, r0, #0
  93 0054 F869     		ldr	r0, [r7, #28]
  94 0056 191C     		add	r1, r3, #0
  95 0058 FFF7FEFF 		bl	__aeabi_fdiv
ARM GAS  C:\Users\fneves\AppData\Local\Temp\cc8rLVZu.s 			page 5


  96 005c 031C     		add	r3, r0, #0
  97 005e 7B61     		str	r3, [r7, #20]
 133:Source\StatisticsFunctions/arm_var_f32.c **** 
 134:Source\StatisticsFunctions/arm_var_f32.c ****     pInput = pSrc;
  98              		.loc 1 134 0
  99 0060 FB68     		ldr	r3, [r7, #12]
 100 0062 3B62     		str	r3, [r7, #32]
 135:Source\StatisticsFunctions/arm_var_f32.c **** 
 136:Source\StatisticsFunctions/arm_var_f32.c ****     #if defined(ARM_MATH_DSP)
 137:Source\StatisticsFunctions/arm_var_f32.c **** 
 138:Source\StatisticsFunctions/arm_var_f32.c ****         /*loop Unrolling */
 139:Source\StatisticsFunctions/arm_var_f32.c ****         blkCnt = blockSize >> 2u;
 140:Source\StatisticsFunctions/arm_var_f32.c **** 
 141:Source\StatisticsFunctions/arm_var_f32.c ****         /* First part of the processing with loop unrolling.  Compute 4 outputs at a time.
 142:Source\StatisticsFunctions/arm_var_f32.c ****         ** a second loop below computes the remaining 1 to 3 samples. */
 143:Source\StatisticsFunctions/arm_var_f32.c ****         while (blkCnt > 0u)
 144:Source\StatisticsFunctions/arm_var_f32.c ****         {
 145:Source\StatisticsFunctions/arm_var_f32.c ****             fValue = *pInput++ - fMean;
 146:Source\StatisticsFunctions/arm_var_f32.c ****             fSum += fValue * fValue;
 147:Source\StatisticsFunctions/arm_var_f32.c ****             fValue = *pInput++ - fMean;
 148:Source\StatisticsFunctions/arm_var_f32.c ****             fSum += fValue * fValue;
 149:Source\StatisticsFunctions/arm_var_f32.c ****             fValue = *pInput++ - fMean;
 150:Source\StatisticsFunctions/arm_var_f32.c ****             fSum += fValue * fValue;
 151:Source\StatisticsFunctions/arm_var_f32.c ****             fValue = *pInput++ - fMean;
 152:Source\StatisticsFunctions/arm_var_f32.c ****             fSum += fValue * fValue;
 153:Source\StatisticsFunctions/arm_var_f32.c **** 
 154:Source\StatisticsFunctions/arm_var_f32.c ****             /* Decrement the loop counter */
 155:Source\StatisticsFunctions/arm_var_f32.c ****             blkCnt--;
 156:Source\StatisticsFunctions/arm_var_f32.c ****         }
 157:Source\StatisticsFunctions/arm_var_f32.c **** 
 158:Source\StatisticsFunctions/arm_var_f32.c ****         blkCnt = blockSize % 0x4u;
 159:Source\StatisticsFunctions/arm_var_f32.c ****     #else
 160:Source\StatisticsFunctions/arm_var_f32.c ****         /* Run the below code for Cortex-M0 or Cortex-M3 */
 161:Source\StatisticsFunctions/arm_var_f32.c **** 
 162:Source\StatisticsFunctions/arm_var_f32.c ****         /* Loop over blockSize number of values */
 163:Source\StatisticsFunctions/arm_var_f32.c ****         blkCnt = blockSize;
 101              		.loc 1 163 0
 102 0064 BB68     		ldr	r3, [r7, #8]
 103 0066 7B62     		str	r3, [r7, #36]
 164:Source\StatisticsFunctions/arm_var_f32.c ****     #endif
 165:Source\StatisticsFunctions/arm_var_f32.c **** 
 166:Source\StatisticsFunctions/arm_var_f32.c ****     while (blkCnt > 0u)
 104              		.loc 1 166 0
 105 0068 17E0     		b	.L6
 106              	.L7:
 167:Source\StatisticsFunctions/arm_var_f32.c ****     {
 168:Source\StatisticsFunctions/arm_var_f32.c ****         fValue = *pInput++ - fMean;
 107              		.loc 1 168 0
 108 006a 3B6A     		ldr	r3, [r7, #32]
 109 006c 1A1D     		add	r2, r3, #4
 110 006e 3A62     		str	r2, [r7, #32]
 111 0070 1B68     		ldr	r3, [r3]
 112 0072 181C     		add	r0, r3, #0
 113 0074 7969     		ldr	r1, [r7, #20]
 114 0076 FFF7FEFF 		bl	__aeabi_fsub
 115 007a 031C     		add	r3, r0, #0
 116 007c 3B61     		str	r3, [r7, #16]
ARM GAS  C:\Users\fneves\AppData\Local\Temp\cc8rLVZu.s 			page 6


 169:Source\StatisticsFunctions/arm_var_f32.c ****         fSum += fValue * fValue;
 117              		.loc 1 169 0
 118 007e 3869     		ldr	r0, [r7, #16]
 119 0080 3969     		ldr	r1, [r7, #16]
 120 0082 FFF7FEFF 		bl	__aeabi_fmul
 121 0086 031C     		add	r3, r0, #0
 122 0088 B869     		ldr	r0, [r7, #24]
 123 008a 191C     		add	r1, r3, #0
 124 008c FFF7FEFF 		bl	__aeabi_fadd
 125 0090 031C     		add	r3, r0, #0
 126 0092 BB61     		str	r3, [r7, #24]
 170:Source\StatisticsFunctions/arm_var_f32.c **** 
 171:Source\StatisticsFunctions/arm_var_f32.c ****         /* Decrement the loop counter */
 172:Source\StatisticsFunctions/arm_var_f32.c ****         blkCnt--;
 127              		.loc 1 172 0
 128 0094 7B6A     		ldr	r3, [r7, #36]
 129 0096 013B     		sub	r3, r3, #1
 130 0098 7B62     		str	r3, [r7, #36]
 131              	.L6:
 166:Source\StatisticsFunctions/arm_var_f32.c ****     {
 132              		.loc 1 166 0
 133 009a 7B6A     		ldr	r3, [r7, #36]
 134 009c 002B     		cmp	r3, #0
 135 009e E4D1     		bne	.L7
 173:Source\StatisticsFunctions/arm_var_f32.c ****     }
 174:Source\StatisticsFunctions/arm_var_f32.c **** 
 175:Source\StatisticsFunctions/arm_var_f32.c ****     /* Variance */
 176:Source\StatisticsFunctions/arm_var_f32.c ****     *pResult = fSum / (float32_t)(blockSize - 1.0f);
 136              		.loc 1 176 0
 137 00a0 B868     		ldr	r0, [r7, #8]
 138 00a2 FFF7FEFF 		bl	__aeabi_ui2f
 139 00a6 031C     		add	r3, r0, #0
 140 00a8 181C     		add	r0, r3, #0
 141 00aa FE21     		mov	r1, #254
 142 00ac 8905     		lsl	r1, r1, #22
 143 00ae FFF7FEFF 		bl	__aeabi_fsub
 144 00b2 031C     		add	r3, r0, #0
 145 00b4 B869     		ldr	r0, [r7, #24]
 146 00b6 191C     		add	r1, r3, #0
 147 00b8 FFF7FEFF 		bl	__aeabi_fdiv
 148 00bc 031C     		add	r3, r0, #0
 149 00be 1A1C     		add	r2, r3, #0
 150 00c0 7B68     		ldr	r3, [r7, #4]
 151 00c2 1A60     		str	r2, [r3]
 152              	.L1:
 177:Source\StatisticsFunctions/arm_var_f32.c **** }
 153              		.loc 1 177 0
 154 00c4 BD46     		mov	sp, r7
 155 00c6 0AB0     		add	sp, sp, #40
 156              		@ sp needed
 157 00c8 80BD     		pop	{r7, pc}
 158              		.cfi_endproc
 159              	.LFE82:
 160              		.size	arm_var_f32, .-arm_var_f32
 161 00ca C046     		.text
 162              	.Letext0:
 163              		.file 2 "c:\\program files (x86)\\cypress\\psoc creator\\4.0\\psoc creator\\import\\gnu\\arm\\4.9.
ARM GAS  C:\Users\fneves\AppData\Local\Temp\cc8rLVZu.s 			page 7


 164              		.file 3 "c:\\program files (x86)\\cypress\\psoc creator\\4.0\\psoc creator\\import\\gnu\\arm\\4.9.
 165              		.file 4 ".\\Include/arm_math.h"