ARM GAS  C:\Users\fneves\AppData\Local\Temp\ccJd5WqB.s 			page 1


   1              		.cpu cortex-m0plus
   2              		.fpu softvfp
   3              		.eabi_attribute 20, 1
   4              		.eabi_attribute 21, 1
   5              		.eabi_attribute 23, 3
   6              		.eabi_attribute 24, 1
   7              		.eabi_attribute 25, 1
   8              		.eabi_attribute 26, 1
   9              		.eabi_attribute 30, 6
  10              		.eabi_attribute 34, 0
  11              		.eabi_attribute 18, 4
  12              		.code	16
  13              		.file	"arm_q15_to_q7.c"
  14              		.text
  15              	.Ltext0:
  16              		.cfi_sections	.debug_frame
  17              		.section	.text.arm_q15_to_q7,"ax",%progbits
  18              		.align	2
  19              		.global	arm_q15_to_q7
  20              		.code	16
  21              		.thumb_func
  22              		.type	arm_q15_to_q7, %function
  23              	arm_q15_to_q7:
  24              	.LFB82:
  25              		.file 1 "Source\\SupportFunctions\\arm_q15_to_q7.c"
   1:Source\SupportFunctions/arm_q15_to_q7.c **** /* ----------------------------------------------------------------------
   2:Source\SupportFunctions/arm_q15_to_q7.c ****  * Project:      CMSIS DSP Library
   3:Source\SupportFunctions/arm_q15_to_q7.c ****  * Title:        arm_q15_to_q7.c
   4:Source\SupportFunctions/arm_q15_to_q7.c ****  * Description:  Converts the elements of the Q15 vector to Q7 vector
   5:Source\SupportFunctions/arm_q15_to_q7.c ****  *
   6:Source\SupportFunctions/arm_q15_to_q7.c ****  * $Date:        27. January 2017
   7:Source\SupportFunctions/arm_q15_to_q7.c ****  * $Revision:    V.1.5.1
   8:Source\SupportFunctions/arm_q15_to_q7.c ****  *
   9:Source\SupportFunctions/arm_q15_to_q7.c ****  * Target Processor: Cortex-M cores
  10:Source\SupportFunctions/arm_q15_to_q7.c ****  * -------------------------------------------------------------------- */
  11:Source\SupportFunctions/arm_q15_to_q7.c **** /*
  12:Source\SupportFunctions/arm_q15_to_q7.c ****  * Copyright (C) 2010-2017 ARM Limited or its affiliates. All rights reserved.
  13:Source\SupportFunctions/arm_q15_to_q7.c ****  *
  14:Source\SupportFunctions/arm_q15_to_q7.c ****  * SPDX-License-Identifier: Apache-2.0
  15:Source\SupportFunctions/arm_q15_to_q7.c ****  *
  16:Source\SupportFunctions/arm_q15_to_q7.c ****  * Licensed under the Apache License, Version 2.0 (the License); you may
  17:Source\SupportFunctions/arm_q15_to_q7.c ****  * not use this file except in compliance with the License.
  18:Source\SupportFunctions/arm_q15_to_q7.c ****  * You may obtain a copy of the License at
  19:Source\SupportFunctions/arm_q15_to_q7.c ****  *
  20:Source\SupportFunctions/arm_q15_to_q7.c ****  * www.apache.org/licenses/LICENSE-2.0
  21:Source\SupportFunctions/arm_q15_to_q7.c ****  *
  22:Source\SupportFunctions/arm_q15_to_q7.c ****  * Unless required by applicable law or agreed to in writing, software
  23:Source\SupportFunctions/arm_q15_to_q7.c ****  * distributed under the License is distributed on an AS IS BASIS, WITHOUT
  24:Source\SupportFunctions/arm_q15_to_q7.c ****  * WARRANTIES OR CONDITIONS OF ANY KIND, either express or implied.
  25:Source\SupportFunctions/arm_q15_to_q7.c ****  * See the License for the specific language governing permissions and
  26:Source\SupportFunctions/arm_q15_to_q7.c ****  * limitations under the License.
  27:Source\SupportFunctions/arm_q15_to_q7.c ****  */
  28:Source\SupportFunctions/arm_q15_to_q7.c **** 
  29:Source\SupportFunctions/arm_q15_to_q7.c **** #include "arm_math.h"
  30:Source\SupportFunctions/arm_q15_to_q7.c **** 
  31:Source\SupportFunctions/arm_q15_to_q7.c **** /**
  32:Source\SupportFunctions/arm_q15_to_q7.c ****  * @ingroup groupSupport
ARM GAS  C:\Users\fneves\AppData\Local\Temp\ccJd5WqB.s 			page 2


  33:Source\SupportFunctions/arm_q15_to_q7.c ****  */
  34:Source\SupportFunctions/arm_q15_to_q7.c **** 
  35:Source\SupportFunctions/arm_q15_to_q7.c **** /**
  36:Source\SupportFunctions/arm_q15_to_q7.c ****  * @addtogroup q15_to_x
  37:Source\SupportFunctions/arm_q15_to_q7.c ****  * @{
  38:Source\SupportFunctions/arm_q15_to_q7.c ****  */
  39:Source\SupportFunctions/arm_q15_to_q7.c **** 
  40:Source\SupportFunctions/arm_q15_to_q7.c **** 
  41:Source\SupportFunctions/arm_q15_to_q7.c **** /**
  42:Source\SupportFunctions/arm_q15_to_q7.c ****  * @brief Converts the elements of the Q15 vector to Q7 vector.
  43:Source\SupportFunctions/arm_q15_to_q7.c ****  * @param[in]       *pSrc points to the Q15 input vector
  44:Source\SupportFunctions/arm_q15_to_q7.c ****  * @param[out]      *pDst points to the Q7 output vector
  45:Source\SupportFunctions/arm_q15_to_q7.c ****  * @param[in]       blockSize length of the input vector
  46:Source\SupportFunctions/arm_q15_to_q7.c ****  * @return none.
  47:Source\SupportFunctions/arm_q15_to_q7.c ****  *
  48:Source\SupportFunctions/arm_q15_to_q7.c ****  * \par Description:
  49:Source\SupportFunctions/arm_q15_to_q7.c ****  *
  50:Source\SupportFunctions/arm_q15_to_q7.c ****  * The equation used for the conversion process is:
  51:Source\SupportFunctions/arm_q15_to_q7.c ****  *
  52:Source\SupportFunctions/arm_q15_to_q7.c ****  * <pre>
  53:Source\SupportFunctions/arm_q15_to_q7.c ****  * 	pDst[n] = (q7_t) pSrc[n] >> 8;   0 <= n < blockSize.
  54:Source\SupportFunctions/arm_q15_to_q7.c ****  * </pre>
  55:Source\SupportFunctions/arm_q15_to_q7.c ****  *
  56:Source\SupportFunctions/arm_q15_to_q7.c ****  */
  57:Source\SupportFunctions/arm_q15_to_q7.c **** 
  58:Source\SupportFunctions/arm_q15_to_q7.c **** 
  59:Source\SupportFunctions/arm_q15_to_q7.c **** void arm_q15_to_q7(
  60:Source\SupportFunctions/arm_q15_to_q7.c ****   q15_t * pSrc,
  61:Source\SupportFunctions/arm_q15_to_q7.c ****   q7_t * pDst,
  62:Source\SupportFunctions/arm_q15_to_q7.c ****   uint32_t blockSize)
  63:Source\SupportFunctions/arm_q15_to_q7.c **** {
  26              		.loc 1 63 0
  27              		.cfi_startproc
  28 0000 80B5     		push	{r7, lr}
  29              		.cfi_def_cfa_offset 8
  30              		.cfi_offset 7, -8
  31              		.cfi_offset 14, -4
  32 0002 86B0     		sub	sp, sp, #24
  33              		.cfi_def_cfa_offset 32
  34 0004 00AF     		add	r7, sp, #0
  35              		.cfi_def_cfa_register 7
  36 0006 F860     		str	r0, [r7, #12]
  37 0008 B960     		str	r1, [r7, #8]
  38 000a 7A60     		str	r2, [r7, #4]
  64:Source\SupportFunctions/arm_q15_to_q7.c ****   q15_t *pIn = pSrc;                             /* Src pointer */
  39              		.loc 1 64 0
  40 000c FB68     		ldr	r3, [r7, #12]
  41 000e 7B61     		str	r3, [r7, #20]
  65:Source\SupportFunctions/arm_q15_to_q7.c ****   uint32_t blkCnt;                               /* loop counter */
  66:Source\SupportFunctions/arm_q15_to_q7.c **** 
  67:Source\SupportFunctions/arm_q15_to_q7.c **** #if defined (ARM_MATH_DSP)
  68:Source\SupportFunctions/arm_q15_to_q7.c **** 
  69:Source\SupportFunctions/arm_q15_to_q7.c ****   /* Run the below code for Cortex-M4 and Cortex-M3 */
  70:Source\SupportFunctions/arm_q15_to_q7.c ****   q31_t in1, in2;
  71:Source\SupportFunctions/arm_q15_to_q7.c ****   q31_t out1, out2;
  72:Source\SupportFunctions/arm_q15_to_q7.c **** 
  73:Source\SupportFunctions/arm_q15_to_q7.c ****   /*loop Unrolling */
ARM GAS  C:\Users\fneves\AppData\Local\Temp\ccJd5WqB.s 			page 3


  74:Source\SupportFunctions/arm_q15_to_q7.c ****   blkCnt = blockSize >> 2u;
  75:Source\SupportFunctions/arm_q15_to_q7.c **** 
  76:Source\SupportFunctions/arm_q15_to_q7.c ****   /* First part of the processing with loop unrolling.  Compute 4 outputs at a time.
  77:Source\SupportFunctions/arm_q15_to_q7.c ****    ** a second loop below computes the remaining 1 to 3 samples. */
  78:Source\SupportFunctions/arm_q15_to_q7.c ****   while (blkCnt > 0u)
  79:Source\SupportFunctions/arm_q15_to_q7.c ****   {
  80:Source\SupportFunctions/arm_q15_to_q7.c ****     /* C = (q7_t) A >> 8 */
  81:Source\SupportFunctions/arm_q15_to_q7.c ****     /* convert from q15 to q7 and then store the results in the destination buffer */
  82:Source\SupportFunctions/arm_q15_to_q7.c ****     in1 = *__SIMD32(pIn)++;
  83:Source\SupportFunctions/arm_q15_to_q7.c ****     in2 = *__SIMD32(pIn)++;
  84:Source\SupportFunctions/arm_q15_to_q7.c **** 
  85:Source\SupportFunctions/arm_q15_to_q7.c **** #ifndef ARM_MATH_BIG_ENDIAN
  86:Source\SupportFunctions/arm_q15_to_q7.c **** 
  87:Source\SupportFunctions/arm_q15_to_q7.c ****     out1 = __PKHTB(in2, in1, 16);
  88:Source\SupportFunctions/arm_q15_to_q7.c ****     out2 = __PKHBT(in2, in1, 16);
  89:Source\SupportFunctions/arm_q15_to_q7.c **** 
  90:Source\SupportFunctions/arm_q15_to_q7.c **** #else
  91:Source\SupportFunctions/arm_q15_to_q7.c **** 
  92:Source\SupportFunctions/arm_q15_to_q7.c ****     out1 = __PKHTB(in1, in2, 16);
  93:Source\SupportFunctions/arm_q15_to_q7.c ****     out2 = __PKHBT(in1, in2, 16);
  94:Source\SupportFunctions/arm_q15_to_q7.c **** 
  95:Source\SupportFunctions/arm_q15_to_q7.c **** #endif //      #ifndef ARM_MATH_BIG_ENDIAN
  96:Source\SupportFunctions/arm_q15_to_q7.c **** 
  97:Source\SupportFunctions/arm_q15_to_q7.c ****     /* rotate packed value by 24 */
  98:Source\SupportFunctions/arm_q15_to_q7.c ****     out2 = ((uint32_t) out2 << 8) | ((uint32_t) out2 >> 24);
  99:Source\SupportFunctions/arm_q15_to_q7.c **** 
 100:Source\SupportFunctions/arm_q15_to_q7.c ****     /* anding with 0xff00ff00 to get two 8 bit values */
 101:Source\SupportFunctions/arm_q15_to_q7.c ****     out1 = out1 & 0xFF00FF00;
 102:Source\SupportFunctions/arm_q15_to_q7.c ****     /* anding with 0x00ff00ff to get two 8 bit values */
 103:Source\SupportFunctions/arm_q15_to_q7.c ****     out2 = out2 & 0x00FF00FF;
 104:Source\SupportFunctions/arm_q15_to_q7.c **** 
 105:Source\SupportFunctions/arm_q15_to_q7.c ****     /* oring two values(contains two 8 bit values) to get four packed 8 bit values */
 106:Source\SupportFunctions/arm_q15_to_q7.c ****     out1 = out1 | out2;
 107:Source\SupportFunctions/arm_q15_to_q7.c **** 
 108:Source\SupportFunctions/arm_q15_to_q7.c ****     /* store 4 samples at a time to destiantion buffer */
 109:Source\SupportFunctions/arm_q15_to_q7.c ****     *__SIMD32(pDst)++ = out1;
 110:Source\SupportFunctions/arm_q15_to_q7.c **** 
 111:Source\SupportFunctions/arm_q15_to_q7.c ****     /* Decrement the loop counter */
 112:Source\SupportFunctions/arm_q15_to_q7.c ****     blkCnt--;
 113:Source\SupportFunctions/arm_q15_to_q7.c ****   }
 114:Source\SupportFunctions/arm_q15_to_q7.c **** 
 115:Source\SupportFunctions/arm_q15_to_q7.c ****   /* If the blockSize is not a multiple of 4, compute any remaining output samples here.
 116:Source\SupportFunctions/arm_q15_to_q7.c ****    ** No loop unrolling is used. */
 117:Source\SupportFunctions/arm_q15_to_q7.c ****   blkCnt = blockSize % 0x4u;
 118:Source\SupportFunctions/arm_q15_to_q7.c **** 
 119:Source\SupportFunctions/arm_q15_to_q7.c **** #else
 120:Source\SupportFunctions/arm_q15_to_q7.c **** 
 121:Source\SupportFunctions/arm_q15_to_q7.c ****   /* Run the below code for Cortex-M0 */
 122:Source\SupportFunctions/arm_q15_to_q7.c **** 
 123:Source\SupportFunctions/arm_q15_to_q7.c ****   /* Loop over blockSize number of values */
 124:Source\SupportFunctions/arm_q15_to_q7.c ****   blkCnt = blockSize;
  42              		.loc 1 124 0
  43 0010 7B68     		ldr	r3, [r7, #4]
  44 0012 3B61     		str	r3, [r7, #16]
 125:Source\SupportFunctions/arm_q15_to_q7.c **** 
 126:Source\SupportFunctions/arm_q15_to_q7.c **** #endif /* #if defined (ARM_MATH_DSP) */
 127:Source\SupportFunctions/arm_q15_to_q7.c **** 
ARM GAS  C:\Users\fneves\AppData\Local\Temp\ccJd5WqB.s 			page 4


 128:Source\SupportFunctions/arm_q15_to_q7.c ****   while (blkCnt > 0u)
  45              		.loc 1 128 0
  46 0014 0EE0     		b	.L2
  47              	.L3:
 129:Source\SupportFunctions/arm_q15_to_q7.c ****   {
 130:Source\SupportFunctions/arm_q15_to_q7.c ****     /* C = (q7_t) A >> 8 */
 131:Source\SupportFunctions/arm_q15_to_q7.c ****     /* convert from q15 to q7 and then store the results in the destination buffer */
 132:Source\SupportFunctions/arm_q15_to_q7.c ****     *pDst++ = (q7_t) (*pIn++ >> 8);
  48              		.loc 1 132 0
  49 0016 BB68     		ldr	r3, [r7, #8]
  50 0018 5A1C     		add	r2, r3, #1
  51 001a BA60     		str	r2, [r7, #8]
  52 001c 7A69     		ldr	r2, [r7, #20]
  53 001e 911C     		add	r1, r2, #2
  54 0020 7961     		str	r1, [r7, #20]
  55 0022 1288     		ldrh	r2, [r2]
  56 0024 12B2     		sxth	r2, r2
  57 0026 1212     		asr	r2, r2, #8
  58 0028 92B2     		uxth	r2, r2
  59 002a D2B2     		uxtb	r2, r2
  60 002c 1A70     		strb	r2, [r3]
 133:Source\SupportFunctions/arm_q15_to_q7.c **** 
 134:Source\SupportFunctions/arm_q15_to_q7.c ****     /* Decrement the loop counter */
 135:Source\SupportFunctions/arm_q15_to_q7.c ****     blkCnt--;
  61              		.loc 1 135 0
  62 002e 3B69     		ldr	r3, [r7, #16]
  63 0030 013B     		sub	r3, r3, #1
  64 0032 3B61     		str	r3, [r7, #16]
  65              	.L2:
 128:Source\SupportFunctions/arm_q15_to_q7.c ****   {
  66              		.loc 1 128 0
  67 0034 3B69     		ldr	r3, [r7, #16]
  68 0036 002B     		cmp	r3, #0
  69 0038 EDD1     		bne	.L3
 136:Source\SupportFunctions/arm_q15_to_q7.c ****   }
 137:Source\SupportFunctions/arm_q15_to_q7.c **** 
 138:Source\SupportFunctions/arm_q15_to_q7.c **** }
  70              		.loc 1 138 0
  71 003a BD46     		mov	sp, r7
  72 003c 06B0     		add	sp, sp, #24
  73              		@ sp needed
  74 003e 80BD     		pop	{r7, pc}
  75              		.cfi_endproc
  76              	.LFE82:
  77              		.size	arm_q15_to_q7, .-arm_q15_to_q7
  78              		.text
  79              	.Letext0:
  80              		.file 2 "c:\\program files (x86)\\cypress\\psoc creator\\4.0\\psoc creator\\import\\gnu\\arm\\4.9.
  81              		.file 3 "c:\\program files (x86)\\cypress\\psoc creator\\4.0\\psoc creator\\import\\gnu\\arm\\4.9.
  82              		.file 4 ".\\Include/arm_math.h"