ARM GAS  C:\Users\fneves\AppData\Local\Temp\ccSgTFeD.s 			page 1


   1              		.cpu cortex-m0plus
   2              		.fpu softvfp
   3              		.eabi_attribute 20, 1
   4              		.eabi_attribute 21, 1
   5              		.eabi_attribute 23, 3
   6              		.eabi_attribute 24, 1
   7              		.eabi_attribute 25, 1
   8              		.eabi_attribute 26, 1
   9              		.eabi_attribute 30, 6
  10              		.eabi_attribute 34, 0
  11              		.eabi_attribute 18, 4
  12              		.code	16
  13              		.file	"arm_cfft_radix4_init_q15.c"
  14              		.text
  15              	.Ltext0:
  16              		.cfi_sections	.debug_frame
  17              		.section	.text.arm_cfft_radix4_init_q15,"ax",%progbits
  18              		.align	2
  19              		.global	arm_cfft_radix4_init_q15
  20              		.code	16
  21              		.thumb_func
  22              		.type	arm_cfft_radix4_init_q15, %function
  23              	arm_cfft_radix4_init_q15:
  24              	.LFB82:
  25              		.file 1 "Source\\TransformFunctions\\arm_cfft_radix4_init_q15.c"
   1:Source\TransformFunctions/arm_cfft_radix4_init_q15.c **** /* ----------------------------------------------------------------------
   2:Source\TransformFunctions/arm_cfft_radix4_init_q15.c ****  * Project:      CMSIS DSP Library
   3:Source\TransformFunctions/arm_cfft_radix4_init_q15.c ****  * Title:        arm_cfft_radix4_init_q15.c
   4:Source\TransformFunctions/arm_cfft_radix4_init_q15.c ****  * Description:  Radix-4 Decimation in Frequency Q15 FFT & IFFT initialization function
   5:Source\TransformFunctions/arm_cfft_radix4_init_q15.c ****  *
   6:Source\TransformFunctions/arm_cfft_radix4_init_q15.c ****  * $Date:        27. January 2017
   7:Source\TransformFunctions/arm_cfft_radix4_init_q15.c ****  * $Revision:    V.1.5.1
   8:Source\TransformFunctions/arm_cfft_radix4_init_q15.c ****  *
   9:Source\TransformFunctions/arm_cfft_radix4_init_q15.c ****  * Target Processor: Cortex-M cores
  10:Source\TransformFunctions/arm_cfft_radix4_init_q15.c ****  * -------------------------------------------------------------------- */
  11:Source\TransformFunctions/arm_cfft_radix4_init_q15.c **** /*
  12:Source\TransformFunctions/arm_cfft_radix4_init_q15.c ****  * Copyright (C) 2010-2017 ARM Limited or its affiliates. All rights reserved.
  13:Source\TransformFunctions/arm_cfft_radix4_init_q15.c ****  *
  14:Source\TransformFunctions/arm_cfft_radix4_init_q15.c ****  * SPDX-License-Identifier: Apache-2.0
  15:Source\TransformFunctions/arm_cfft_radix4_init_q15.c ****  *
  16:Source\TransformFunctions/arm_cfft_radix4_init_q15.c ****  * Licensed under the Apache License, Version 2.0 (the License); you may
  17:Source\TransformFunctions/arm_cfft_radix4_init_q15.c ****  * not use this file except in compliance with the License.
  18:Source\TransformFunctions/arm_cfft_radix4_init_q15.c ****  * You may obtain a copy of the License at
  19:Source\TransformFunctions/arm_cfft_radix4_init_q15.c ****  *
  20:Source\TransformFunctions/arm_cfft_radix4_init_q15.c ****  * www.apache.org/licenses/LICENSE-2.0
  21:Source\TransformFunctions/arm_cfft_radix4_init_q15.c ****  *
  22:Source\TransformFunctions/arm_cfft_radix4_init_q15.c ****  * Unless required by applicable law or agreed to in writing, software
  23:Source\TransformFunctions/arm_cfft_radix4_init_q15.c ****  * distributed under the License is distributed on an AS IS BASIS, WITHOUT
  24:Source\TransformFunctions/arm_cfft_radix4_init_q15.c ****  * WARRANTIES OR CONDITIONS OF ANY KIND, either express or implied.
  25:Source\TransformFunctions/arm_cfft_radix4_init_q15.c ****  * See the License for the specific language governing permissions and
  26:Source\TransformFunctions/arm_cfft_radix4_init_q15.c ****  * limitations under the License.
  27:Source\TransformFunctions/arm_cfft_radix4_init_q15.c ****  */
  28:Source\TransformFunctions/arm_cfft_radix4_init_q15.c **** 
  29:Source\TransformFunctions/arm_cfft_radix4_init_q15.c **** #include "arm_math.h"
  30:Source\TransformFunctions/arm_cfft_radix4_init_q15.c **** #include "arm_common_tables.h"
  31:Source\TransformFunctions/arm_cfft_radix4_init_q15.c **** 
  32:Source\TransformFunctions/arm_cfft_radix4_init_q15.c **** /**
ARM GAS  C:\Users\fneves\AppData\Local\Temp\ccSgTFeD.s 			page 2


  33:Source\TransformFunctions/arm_cfft_radix4_init_q15.c ****  * @ingroup groupTransforms
  34:Source\TransformFunctions/arm_cfft_radix4_init_q15.c ****  */
  35:Source\TransformFunctions/arm_cfft_radix4_init_q15.c **** 
  36:Source\TransformFunctions/arm_cfft_radix4_init_q15.c **** 
  37:Source\TransformFunctions/arm_cfft_radix4_init_q15.c **** /**
  38:Source\TransformFunctions/arm_cfft_radix4_init_q15.c ****  * @addtogroup ComplexFFT
  39:Source\TransformFunctions/arm_cfft_radix4_init_q15.c ****  * @{
  40:Source\TransformFunctions/arm_cfft_radix4_init_q15.c ****  */
  41:Source\TransformFunctions/arm_cfft_radix4_init_q15.c **** 
  42:Source\TransformFunctions/arm_cfft_radix4_init_q15.c **** 
  43:Source\TransformFunctions/arm_cfft_radix4_init_q15.c **** /**
  44:Source\TransformFunctions/arm_cfft_radix4_init_q15.c **** * @brief Initialization function for the Q15 CFFT/CIFFT.
  45:Source\TransformFunctions/arm_cfft_radix4_init_q15.c **** * @deprecated Do not use this function.  It has been superseded by \ref arm_cfft_q15 and will be re
  46:Source\TransformFunctions/arm_cfft_radix4_init_q15.c **** * @param[in,out] *S             points to an instance of the Q15 CFFT/CIFFT structure.
  47:Source\TransformFunctions/arm_cfft_radix4_init_q15.c **** * @param[in]     fftLen         length of the FFT.
  48:Source\TransformFunctions/arm_cfft_radix4_init_q15.c **** * @param[in]     ifftFlag       flag that selects forward (ifftFlag=0) or inverse (ifftFlag=1) tran
  49:Source\TransformFunctions/arm_cfft_radix4_init_q15.c **** * @param[in]     bitReverseFlag flag that enables (bitReverseFlag=1) or disables (bitReverseFlag=0)
  50:Source\TransformFunctions/arm_cfft_radix4_init_q15.c **** * @return        The function returns ARM_MATH_SUCCESS if initialization is successful or ARM_MATH_
  51:Source\TransformFunctions/arm_cfft_radix4_init_q15.c **** *
  52:Source\TransformFunctions/arm_cfft_radix4_init_q15.c **** * \par Description:
  53:Source\TransformFunctions/arm_cfft_radix4_init_q15.c **** * \par
  54:Source\TransformFunctions/arm_cfft_radix4_init_q15.c **** * The parameter <code>ifftFlag</code> controls whether a forward or inverse transform is computed.
  55:Source\TransformFunctions/arm_cfft_radix4_init_q15.c **** * Set(=1) ifftFlag for calculation of CIFFT otherwise  CFFT is calculated
  56:Source\TransformFunctions/arm_cfft_radix4_init_q15.c **** * \par
  57:Source\TransformFunctions/arm_cfft_radix4_init_q15.c **** * The parameter <code>bitReverseFlag</code> controls whether output is in normal order or bit rever
  58:Source\TransformFunctions/arm_cfft_radix4_init_q15.c **** * Set(=1) bitReverseFlag for output to be in normal order otherwise output is in bit reversed order
  59:Source\TransformFunctions/arm_cfft_radix4_init_q15.c **** * \par
  60:Source\TransformFunctions/arm_cfft_radix4_init_q15.c **** * The parameter <code>fftLen</code>	Specifies length of CFFT/CIFFT process. Supported FFT Lengths a
  61:Source\TransformFunctions/arm_cfft_radix4_init_q15.c **** * \par
  62:Source\TransformFunctions/arm_cfft_radix4_init_q15.c **** * This Function also initializes Twiddle factor table pointer and Bit reversal table pointer.
  63:Source\TransformFunctions/arm_cfft_radix4_init_q15.c **** */
  64:Source\TransformFunctions/arm_cfft_radix4_init_q15.c **** 
  65:Source\TransformFunctions/arm_cfft_radix4_init_q15.c **** arm_status arm_cfft_radix4_init_q15(
  66:Source\TransformFunctions/arm_cfft_radix4_init_q15.c ****   arm_cfft_radix4_instance_q15 * S,
  67:Source\TransformFunctions/arm_cfft_radix4_init_q15.c ****   uint16_t fftLen,
  68:Source\TransformFunctions/arm_cfft_radix4_init_q15.c ****   uint8_t ifftFlag,
  69:Source\TransformFunctions/arm_cfft_radix4_init_q15.c ****   uint8_t bitReverseFlag)
  70:Source\TransformFunctions/arm_cfft_radix4_init_q15.c **** {
  26              		.loc 1 70 0
  27              		.cfi_startproc
  28 0000 90B5     		push	{r4, r7, lr}
  29              		.cfi_def_cfa_offset 12
  30              		.cfi_offset 4, -12
  31              		.cfi_offset 7, -8
  32              		.cfi_offset 14, -4
  33 0002 85B0     		sub	sp, sp, #20
  34              		.cfi_def_cfa_offset 32
  35 0004 00AF     		add	r7, sp, #0
  36              		.cfi_def_cfa_register 7
  37 0006 7860     		str	r0, [r7, #4]
  38 0008 0C1C     		mov	r4, r1
  39 000a 101C     		mov	r0, r2
  40 000c 191C     		mov	r1, r3
  41 000e BB1C     		add	r3, r7, #2
  42 0010 221C     		add	r2, r4, #0
  43 0012 1A80     		strh	r2, [r3]
  44 0014 7B1C     		add	r3, r7, #1
ARM GAS  C:\Users\fneves\AppData\Local\Temp\ccSgTFeD.s 			page 3


  45 0016 021C     		add	r2, r0, #0
  46 0018 1A70     		strb	r2, [r3]
  47 001a 3B1C     		mov	r3, r7
  48 001c 0A1C     		add	r2, r1, #0
  49 001e 1A70     		strb	r2, [r3]
  71:Source\TransformFunctions/arm_cfft_radix4_init_q15.c ****   /*  Initialise the default arm status */
  72:Source\TransformFunctions/arm_cfft_radix4_init_q15.c ****   arm_status status = ARM_MATH_SUCCESS;
  50              		.loc 1 72 0
  51 0020 0F23     		mov	r3, #15
  52 0022 FB18     		add	r3, r7, r3
  53 0024 0022     		mov	r2, #0
  54 0026 1A70     		strb	r2, [r3]
  73:Source\TransformFunctions/arm_cfft_radix4_init_q15.c ****   /*  Initialise the FFT length */
  74:Source\TransformFunctions/arm_cfft_radix4_init_q15.c ****   S->fftLen = fftLen;
  55              		.loc 1 74 0
  56 0028 7B68     		ldr	r3, [r7, #4]
  57 002a BA1C     		add	r2, r7, #2
  58 002c 1288     		ldrh	r2, [r2]
  59 002e 1A80     		strh	r2, [r3]
  75:Source\TransformFunctions/arm_cfft_radix4_init_q15.c ****   /*  Initialise the Twiddle coefficient pointer */
  76:Source\TransformFunctions/arm_cfft_radix4_init_q15.c ****   S->pTwiddle = (q15_t *) twiddleCoef_4096_q15;
  60              		.loc 1 76 0
  61 0030 7B68     		ldr	r3, [r7, #4]
  62 0032 314A     		ldr	r2, .L11
  63 0034 5A60     		str	r2, [r3, #4]
  77:Source\TransformFunctions/arm_cfft_radix4_init_q15.c ****   /*  Initialise the Flag for selection of CFFT or CIFFT */
  78:Source\TransformFunctions/arm_cfft_radix4_init_q15.c ****   S->ifftFlag = ifftFlag;
  64              		.loc 1 78 0
  65 0036 7B68     		ldr	r3, [r7, #4]
  66 0038 7A1C     		add	r2, r7, #1
  67 003a 1278     		ldrb	r2, [r2]
  68 003c 9A70     		strb	r2, [r3, #2]
  79:Source\TransformFunctions/arm_cfft_radix4_init_q15.c ****   /*  Initialise the Flag for calculation Bit reversal or not */
  80:Source\TransformFunctions/arm_cfft_radix4_init_q15.c ****   S->bitReverseFlag = bitReverseFlag;
  69              		.loc 1 80 0
  70 003e 7B68     		ldr	r3, [r7, #4]
  71 0040 3A1C     		mov	r2, r7
  72 0042 1278     		ldrb	r2, [r2]
  73 0044 DA70     		strb	r2, [r3, #3]
  81:Source\TransformFunctions/arm_cfft_radix4_init_q15.c **** 
  82:Source\TransformFunctions/arm_cfft_radix4_init_q15.c ****   /*  Initializations of structure parameters depending on the FFT length */
  83:Source\TransformFunctions/arm_cfft_radix4_init_q15.c ****   switch (S->fftLen)
  74              		.loc 1 83 0
  75 0046 7B68     		ldr	r3, [r7, #4]
  76 0048 1B88     		ldrh	r3, [r3]
  77 004a 8022     		mov	r2, #128
  78 004c 5200     		lsl	r2, r2, #1
  79 004e 9342     		cmp	r3, r2
  80 0050 24D0     		beq	.L3
  81 0052 8022     		mov	r2, #128
  82 0054 5200     		lsl	r2, r2, #1
  83 0056 9342     		cmp	r3, r2
  84 0058 04DC     		bgt	.L4
  85 005a 102B     		cmp	r3, #16
  86 005c 32D0     		beq	.L5
  87 005e 402B     		cmp	r3, #64
  88 0060 26D0     		beq	.L6
ARM GAS  C:\Users\fneves\AppData\Local\Temp\ccSgTFeD.s 			page 4


  89 0062 3BE0     		b	.L2
  90              	.L4:
  91 0064 8022     		mov	r2, #128
  92 0066 D200     		lsl	r2, r2, #3
  93 0068 9342     		cmp	r3, r2
  94 006a 0DD0     		beq	.L7
  95 006c 8022     		mov	r2, #128
  96 006e 5201     		lsl	r2, r2, #5
  97 0070 9342     		cmp	r3, r2
  98 0072 33D1     		bne	.L2
  84:Source\TransformFunctions/arm_cfft_radix4_init_q15.c ****   {
  85:Source\TransformFunctions/arm_cfft_radix4_init_q15.c ****   case 4096u:
  86:Source\TransformFunctions/arm_cfft_radix4_init_q15.c ****     /*  Initializations of structure parameters for 4096 point FFT */
  87:Source\TransformFunctions/arm_cfft_radix4_init_q15.c **** 
  88:Source\TransformFunctions/arm_cfft_radix4_init_q15.c ****     /*  Initialise the twiddle coef modifier value */
  89:Source\TransformFunctions/arm_cfft_radix4_init_q15.c ****     S->twidCoefModifier = 1u;
  99              		.loc 1 89 0
 100 0074 7B68     		ldr	r3, [r7, #4]
 101 0076 0122     		mov	r2, #1
 102 0078 9A81     		strh	r2, [r3, #12]
  90:Source\TransformFunctions/arm_cfft_radix4_init_q15.c ****     /*  Initialise the bit reversal table modifier */
  91:Source\TransformFunctions/arm_cfft_radix4_init_q15.c ****     S->bitRevFactor = 1u;
 103              		.loc 1 91 0
 104 007a 7B68     		ldr	r3, [r7, #4]
 105 007c 0122     		mov	r2, #1
 106 007e DA81     		strh	r2, [r3, #14]
  92:Source\TransformFunctions/arm_cfft_radix4_init_q15.c ****     /*  Initialise the bit reversal table pointer */
  93:Source\TransformFunctions/arm_cfft_radix4_init_q15.c ****     S->pBitRevTable = (uint16_t *) armBitRevTable;
 107              		.loc 1 93 0
 108 0080 7B68     		ldr	r3, [r7, #4]
 109 0082 1E4A     		ldr	r2, .L11+4
 110 0084 9A60     		str	r2, [r3, #8]
  94:Source\TransformFunctions/arm_cfft_radix4_init_q15.c **** 
  95:Source\TransformFunctions/arm_cfft_radix4_init_q15.c ****     break;
 111              		.loc 1 95 0
 112 0086 2EE0     		b	.L9
 113              	.L7:
  96:Source\TransformFunctions/arm_cfft_radix4_init_q15.c **** 
  97:Source\TransformFunctions/arm_cfft_radix4_init_q15.c ****   case 1024u:
  98:Source\TransformFunctions/arm_cfft_radix4_init_q15.c ****     /*  Initializations of structure parameters for 1024 point FFT */
  99:Source\TransformFunctions/arm_cfft_radix4_init_q15.c ****     S->twidCoefModifier = 4u;
 114              		.loc 1 99 0
 115 0088 7B68     		ldr	r3, [r7, #4]
 116 008a 0422     		mov	r2, #4
 117 008c 9A81     		strh	r2, [r3, #12]
 100:Source\TransformFunctions/arm_cfft_radix4_init_q15.c ****     S->bitRevFactor = 4u;
 118              		.loc 1 100 0
 119 008e 7B68     		ldr	r3, [r7, #4]
 120 0090 0422     		mov	r2, #4
 121 0092 DA81     		strh	r2, [r3, #14]
 101:Source\TransformFunctions/arm_cfft_radix4_init_q15.c ****     S->pBitRevTable = (uint16_t *) & armBitRevTable[3];
 122              		.loc 1 101 0
 123 0094 7B68     		ldr	r3, [r7, #4]
 124 0096 1A4A     		ldr	r2, .L11+8
 125 0098 9A60     		str	r2, [r3, #8]
 102:Source\TransformFunctions/arm_cfft_radix4_init_q15.c **** 
 103:Source\TransformFunctions/arm_cfft_radix4_init_q15.c ****     break;
ARM GAS  C:\Users\fneves\AppData\Local\Temp\ccSgTFeD.s 			page 5


 126              		.loc 1 103 0
 127 009a 24E0     		b	.L9
 128              	.L3:
 104:Source\TransformFunctions/arm_cfft_radix4_init_q15.c **** 
 105:Source\TransformFunctions/arm_cfft_radix4_init_q15.c ****   case 256u:
 106:Source\TransformFunctions/arm_cfft_radix4_init_q15.c ****     /*  Initializations of structure parameters for 256 point FFT */
 107:Source\TransformFunctions/arm_cfft_radix4_init_q15.c ****     S->twidCoefModifier = 16u;
 129              		.loc 1 107 0
 130 009c 7B68     		ldr	r3, [r7, #4]
 131 009e 1022     		mov	r2, #16
 132 00a0 9A81     		strh	r2, [r3, #12]
 108:Source\TransformFunctions/arm_cfft_radix4_init_q15.c ****     S->bitRevFactor = 16u;
 133              		.loc 1 108 0
 134 00a2 7B68     		ldr	r3, [r7, #4]
 135 00a4 1022     		mov	r2, #16
 136 00a6 DA81     		strh	r2, [r3, #14]
 109:Source\TransformFunctions/arm_cfft_radix4_init_q15.c ****     S->pBitRevTable = (uint16_t *) & armBitRevTable[15];
 137              		.loc 1 109 0
 138 00a8 7B68     		ldr	r3, [r7, #4]
 139 00aa 164A     		ldr	r2, .L11+12
 140 00ac 9A60     		str	r2, [r3, #8]
 110:Source\TransformFunctions/arm_cfft_radix4_init_q15.c **** 
 111:Source\TransformFunctions/arm_cfft_radix4_init_q15.c ****     break;
 141              		.loc 1 111 0
 142 00ae 1AE0     		b	.L9
 143              	.L6:
 112:Source\TransformFunctions/arm_cfft_radix4_init_q15.c **** 
 113:Source\TransformFunctions/arm_cfft_radix4_init_q15.c ****   case 64u:
 114:Source\TransformFunctions/arm_cfft_radix4_init_q15.c ****     /*  Initializations of structure parameters for 64 point FFT */
 115:Source\TransformFunctions/arm_cfft_radix4_init_q15.c ****     S->twidCoefModifier = 64u;
 144              		.loc 1 115 0
 145 00b0 7B68     		ldr	r3, [r7, #4]
 146 00b2 4022     		mov	r2, #64
 147 00b4 9A81     		strh	r2, [r3, #12]
 116:Source\TransformFunctions/arm_cfft_radix4_init_q15.c ****     S->bitRevFactor = 64u;
 148              		.loc 1 116 0
 149 00b6 7B68     		ldr	r3, [r7, #4]
 150 00b8 4022     		mov	r2, #64
 151 00ba DA81     		strh	r2, [r3, #14]
 117:Source\TransformFunctions/arm_cfft_radix4_init_q15.c ****     S->pBitRevTable = (uint16_t *) & armBitRevTable[63];
 152              		.loc 1 117 0
 153 00bc 7B68     		ldr	r3, [r7, #4]
 154 00be 124A     		ldr	r2, .L11+16
 155 00c0 9A60     		str	r2, [r3, #8]
 118:Source\TransformFunctions/arm_cfft_radix4_init_q15.c **** 
 119:Source\TransformFunctions/arm_cfft_radix4_init_q15.c ****     break;
 156              		.loc 1 119 0
 157 00c2 10E0     		b	.L9
 158              	.L5:
 120:Source\TransformFunctions/arm_cfft_radix4_init_q15.c **** 
 121:Source\TransformFunctions/arm_cfft_radix4_init_q15.c ****   case 16u:
 122:Source\TransformFunctions/arm_cfft_radix4_init_q15.c ****     /*  Initializations of structure parameters for 16 point FFT */
 123:Source\TransformFunctions/arm_cfft_radix4_init_q15.c ****     S->twidCoefModifier = 256u;
 159              		.loc 1 123 0
 160 00c4 7B68     		ldr	r3, [r7, #4]
 161 00c6 8022     		mov	r2, #128
 162 00c8 5200     		lsl	r2, r2, #1
ARM GAS  C:\Users\fneves\AppData\Local\Temp\ccSgTFeD.s 			page 6


 163 00ca 9A81     		strh	r2, [r3, #12]
 124:Source\TransformFunctions/arm_cfft_radix4_init_q15.c ****     S->bitRevFactor = 256u;
 164              		.loc 1 124 0
 165 00cc 7B68     		ldr	r3, [r7, #4]
 166 00ce 8022     		mov	r2, #128
 167 00d0 5200     		lsl	r2, r2, #1
 168 00d2 DA81     		strh	r2, [r3, #14]
 125:Source\TransformFunctions/arm_cfft_radix4_init_q15.c ****     S->pBitRevTable = (uint16_t *) & armBitRevTable[255];
 169              		.loc 1 125 0
 170 00d4 7B68     		ldr	r3, [r7, #4]
 171 00d6 0D4A     		ldr	r2, .L11+20
 172 00d8 9A60     		str	r2, [r3, #8]
 126:Source\TransformFunctions/arm_cfft_radix4_init_q15.c **** 
 127:Source\TransformFunctions/arm_cfft_radix4_init_q15.c ****     break;
 173              		.loc 1 127 0
 174 00da 04E0     		b	.L9
 175              	.L2:
 128:Source\TransformFunctions/arm_cfft_radix4_init_q15.c **** 
 129:Source\TransformFunctions/arm_cfft_radix4_init_q15.c ****   default:
 130:Source\TransformFunctions/arm_cfft_radix4_init_q15.c ****     /*  Reporting argument error if fftSize is not valid value */
 131:Source\TransformFunctions/arm_cfft_radix4_init_q15.c ****     status = ARM_MATH_ARGUMENT_ERROR;
 176              		.loc 1 131 0
 177 00dc 0F23     		mov	r3, #15
 178 00de FB18     		add	r3, r7, r3
 179 00e0 FF22     		mov	r2, #255
 180 00e2 1A70     		strb	r2, [r3]
 132:Source\TransformFunctions/arm_cfft_radix4_init_q15.c ****     break;
 181              		.loc 1 132 0
 182 00e4 C046     		mov	r8, r8
 183              	.L9:
 133:Source\TransformFunctions/arm_cfft_radix4_init_q15.c ****   }
 134:Source\TransformFunctions/arm_cfft_radix4_init_q15.c **** 
 135:Source\TransformFunctions/arm_cfft_radix4_init_q15.c ****   return (status);
 184              		.loc 1 135 0
 185 00e6 0F23     		mov	r3, #15
 186 00e8 FB18     		add	r3, r7, r3
 187 00ea 1B78     		ldrb	r3, [r3]
 188 00ec 5BB2     		sxtb	r3, r3
 136:Source\TransformFunctions/arm_cfft_radix4_init_q15.c **** }
 189              		.loc 1 136 0
 190 00ee 181C     		mov	r0, r3
 191 00f0 BD46     		mov	sp, r7
 192 00f2 05B0     		add	sp, sp, #20
 193              		@ sp needed
 194 00f4 90BD     		pop	{r4, r7, pc}
 195              	.L12:
 196 00f6 C046     		.align	2
 197              	.L11:
 198 00f8 00000000 		.word	twiddleCoef_4096_q15
 199 00fc 00000000 		.word	armBitRevTable
 200 0100 06000000 		.word	armBitRevTable+6
 201 0104 1E000000 		.word	armBitRevTable+30
 202 0108 7E000000 		.word	armBitRevTable+126
 203 010c FE010000 		.word	armBitRevTable+510
 204              		.cfi_endproc
 205              	.LFE82:
 206              		.size	arm_cfft_radix4_init_q15, .-arm_cfft_radix4_init_q15
ARM GAS  C:\Users\fneves\AppData\Local\Temp\ccSgTFeD.s 			page 7


 207              		.text
 208              	.Letext0:
 209              		.file 2 "c:\\program files (x86)\\cypress\\psoc creator\\4.0\\psoc creator\\import\\gnu\\arm\\4.9.
 210              		.file 3 "c:\\program files (x86)\\cypress\\psoc creator\\4.0\\psoc creator\\import\\gnu\\arm\\4.9.
 211              		.file 4 ".\\Include/arm_math.h"
 212              		.file 5 ".\\Include/arm_common_tables.h"