ARM GAS  C:\Users\fneves\AppData\Local\Temp\ccoFdZPV.s 			page 1


   1              		.cpu cortex-m0plus
   2              		.fpu softvfp
   3              		.eabi_attribute 20, 1
   4              		.eabi_attribute 21, 1
   5              		.eabi_attribute 23, 3
   6              		.eabi_attribute 24, 1
   7              		.eabi_attribute 25, 1
   8              		.eabi_attribute 26, 1
   9              		.eabi_attribute 30, 6
  10              		.eabi_attribute 34, 0
  11              		.eabi_attribute 18, 4
  12              		.code	16
  13              		.file	"arm_cmplx_mag_squared_q15.c"
  14              		.text
  15              	.Ltext0:
  16              		.cfi_sections	.debug_frame
  17              		.section	.text.arm_cmplx_mag_squared_q15,"ax",%progbits
  18              		.align	2
  19              		.global	arm_cmplx_mag_squared_q15
  20              		.code	16
  21              		.thumb_func
  22              		.type	arm_cmplx_mag_squared_q15, %function
  23              	arm_cmplx_mag_squared_q15:
  24              	.LFB82:
  25              		.file 1 "Source\\ComplexMathFunctions\\arm_cmplx_mag_squared_q15.c"
   1:Source\ComplexMathFunctions/arm_cmplx_mag_squared_q15.c **** /* ----------------------------------------------------------------------
   2:Source\ComplexMathFunctions/arm_cmplx_mag_squared_q15.c ****  * Project:      CMSIS DSP Library
   3:Source\ComplexMathFunctions/arm_cmplx_mag_squared_q15.c ****  * Title:        arm_cmplx_mag_squared_q15.c
   4:Source\ComplexMathFunctions/arm_cmplx_mag_squared_q15.c ****  * Description:  Q15 complex magnitude squared
   5:Source\ComplexMathFunctions/arm_cmplx_mag_squared_q15.c ****  *
   6:Source\ComplexMathFunctions/arm_cmplx_mag_squared_q15.c ****  * $Date:        27. January 2017
   7:Source\ComplexMathFunctions/arm_cmplx_mag_squared_q15.c ****  * $Revision:    V.1.5.1
   8:Source\ComplexMathFunctions/arm_cmplx_mag_squared_q15.c ****  *
   9:Source\ComplexMathFunctions/arm_cmplx_mag_squared_q15.c ****  * Target Processor: Cortex-M cores
  10:Source\ComplexMathFunctions/arm_cmplx_mag_squared_q15.c ****  * -------------------------------------------------------------------- */
  11:Source\ComplexMathFunctions/arm_cmplx_mag_squared_q15.c **** /*
  12:Source\ComplexMathFunctions/arm_cmplx_mag_squared_q15.c ****  * Copyright (C) 2010-2017 ARM Limited or its affiliates. All rights reserved.
  13:Source\ComplexMathFunctions/arm_cmplx_mag_squared_q15.c ****  *
  14:Source\ComplexMathFunctions/arm_cmplx_mag_squared_q15.c ****  * SPDX-License-Identifier: Apache-2.0
  15:Source\ComplexMathFunctions/arm_cmplx_mag_squared_q15.c ****  *
  16:Source\ComplexMathFunctions/arm_cmplx_mag_squared_q15.c ****  * Licensed under the Apache License, Version 2.0 (the License); you may
  17:Source\ComplexMathFunctions/arm_cmplx_mag_squared_q15.c ****  * not use this file except in compliance with the License.
  18:Source\ComplexMathFunctions/arm_cmplx_mag_squared_q15.c ****  * You may obtain a copy of the License at
  19:Source\ComplexMathFunctions/arm_cmplx_mag_squared_q15.c ****  *
  20:Source\ComplexMathFunctions/arm_cmplx_mag_squared_q15.c ****  * www.apache.org/licenses/LICENSE-2.0
  21:Source\ComplexMathFunctions/arm_cmplx_mag_squared_q15.c ****  *
  22:Source\ComplexMathFunctions/arm_cmplx_mag_squared_q15.c ****  * Unless required by applicable law or agreed to in writing, software
  23:Source\ComplexMathFunctions/arm_cmplx_mag_squared_q15.c ****  * distributed under the License is distributed on an AS IS BASIS, WITHOUT
  24:Source\ComplexMathFunctions/arm_cmplx_mag_squared_q15.c ****  * WARRANTIES OR CONDITIONS OF ANY KIND, either express or implied.
  25:Source\ComplexMathFunctions/arm_cmplx_mag_squared_q15.c ****  * See the License for the specific language governing permissions and
  26:Source\ComplexMathFunctions/arm_cmplx_mag_squared_q15.c ****  * limitations under the License.
  27:Source\ComplexMathFunctions/arm_cmplx_mag_squared_q15.c ****  */
  28:Source\ComplexMathFunctions/arm_cmplx_mag_squared_q15.c **** 
  29:Source\ComplexMathFunctions/arm_cmplx_mag_squared_q15.c **** #include "arm_math.h"
  30:Source\ComplexMathFunctions/arm_cmplx_mag_squared_q15.c **** 
  31:Source\ComplexMathFunctions/arm_cmplx_mag_squared_q15.c **** /**
  32:Source\ComplexMathFunctions/arm_cmplx_mag_squared_q15.c ****  * @ingroup groupCmplxMath
ARM GAS  C:\Users\fneves\AppData\Local\Temp\ccoFdZPV.s 			page 2


  33:Source\ComplexMathFunctions/arm_cmplx_mag_squared_q15.c ****  */
  34:Source\ComplexMathFunctions/arm_cmplx_mag_squared_q15.c **** 
  35:Source\ComplexMathFunctions/arm_cmplx_mag_squared_q15.c **** /**
  36:Source\ComplexMathFunctions/arm_cmplx_mag_squared_q15.c ****  * @addtogroup cmplx_mag_squared
  37:Source\ComplexMathFunctions/arm_cmplx_mag_squared_q15.c ****  * @{
  38:Source\ComplexMathFunctions/arm_cmplx_mag_squared_q15.c ****  */
  39:Source\ComplexMathFunctions/arm_cmplx_mag_squared_q15.c **** 
  40:Source\ComplexMathFunctions/arm_cmplx_mag_squared_q15.c **** /**
  41:Source\ComplexMathFunctions/arm_cmplx_mag_squared_q15.c ****  * @brief  Q15 complex magnitude squared
  42:Source\ComplexMathFunctions/arm_cmplx_mag_squared_q15.c ****  * @param  *pSrc points to the complex input vector
  43:Source\ComplexMathFunctions/arm_cmplx_mag_squared_q15.c ****  * @param  *pDst points to the real output vector
  44:Source\ComplexMathFunctions/arm_cmplx_mag_squared_q15.c ****  * @param  numSamples number of complex samples in the input vector
  45:Source\ComplexMathFunctions/arm_cmplx_mag_squared_q15.c ****  * @return none.
  46:Source\ComplexMathFunctions/arm_cmplx_mag_squared_q15.c ****  *
  47:Source\ComplexMathFunctions/arm_cmplx_mag_squared_q15.c ****  * <b>Scaling and Overflow Behavior:</b>
  48:Source\ComplexMathFunctions/arm_cmplx_mag_squared_q15.c ****  * \par
  49:Source\ComplexMathFunctions/arm_cmplx_mag_squared_q15.c ****  * The function implements 1.15 by 1.15 multiplications and finally output is converted into 3.13 f
  50:Source\ComplexMathFunctions/arm_cmplx_mag_squared_q15.c ****  */
  51:Source\ComplexMathFunctions/arm_cmplx_mag_squared_q15.c **** 
  52:Source\ComplexMathFunctions/arm_cmplx_mag_squared_q15.c **** void arm_cmplx_mag_squared_q15(
  53:Source\ComplexMathFunctions/arm_cmplx_mag_squared_q15.c ****   q15_t * pSrc,
  54:Source\ComplexMathFunctions/arm_cmplx_mag_squared_q15.c ****   q15_t * pDst,
  55:Source\ComplexMathFunctions/arm_cmplx_mag_squared_q15.c ****   uint32_t numSamples)
  56:Source\ComplexMathFunctions/arm_cmplx_mag_squared_q15.c **** {
  26              		.loc 1 56 0
  27              		.cfi_startproc
  28 0000 F0B5     		push	{r4, r5, r6, r7, lr}
  29              		.cfi_def_cfa_offset 20
  30              		.cfi_offset 4, -20
  31              		.cfi_offset 5, -16
  32              		.cfi_offset 6, -12
  33              		.cfi_offset 7, -8
  34              		.cfi_offset 14, -4
  35 0002 8DB0     		sub	sp, sp, #52
  36              		.cfi_def_cfa_offset 72
  37 0004 00AF     		add	r7, sp, #0
  38              		.cfi_def_cfa_register 7
  39 0006 F861     		str	r0, [r7, #28]
  40 0008 B961     		str	r1, [r7, #24]
  41 000a 7A61     		str	r2, [r7, #20]
  57:Source\ComplexMathFunctions/arm_cmplx_mag_squared_q15.c ****   q31_t acc0, acc1;                              /* Accumulators */
  58:Source\ComplexMathFunctions/arm_cmplx_mag_squared_q15.c **** 
  59:Source\ComplexMathFunctions/arm_cmplx_mag_squared_q15.c **** #if defined (ARM_MATH_DSP)
  60:Source\ComplexMathFunctions/arm_cmplx_mag_squared_q15.c **** 
  61:Source\ComplexMathFunctions/arm_cmplx_mag_squared_q15.c ****   /* Run the below code for Cortex-M4 and Cortex-M3 */
  62:Source\ComplexMathFunctions/arm_cmplx_mag_squared_q15.c ****   uint32_t blkCnt;                               /* loop counter */
  63:Source\ComplexMathFunctions/arm_cmplx_mag_squared_q15.c ****   q31_t in1, in2, in3, in4;
  64:Source\ComplexMathFunctions/arm_cmplx_mag_squared_q15.c ****   q31_t acc2, acc3;
  65:Source\ComplexMathFunctions/arm_cmplx_mag_squared_q15.c **** 
  66:Source\ComplexMathFunctions/arm_cmplx_mag_squared_q15.c ****   /*loop Unrolling */
  67:Source\ComplexMathFunctions/arm_cmplx_mag_squared_q15.c ****   blkCnt = numSamples >> 2u;
  68:Source\ComplexMathFunctions/arm_cmplx_mag_squared_q15.c **** 
  69:Source\ComplexMathFunctions/arm_cmplx_mag_squared_q15.c ****   /* First part of the processing with loop unrolling.  Compute 4 outputs at a time.
  70:Source\ComplexMathFunctions/arm_cmplx_mag_squared_q15.c ****    ** a second loop below computes the remaining 1 to 3 samples. */
  71:Source\ComplexMathFunctions/arm_cmplx_mag_squared_q15.c ****   while (blkCnt > 0u)
  72:Source\ComplexMathFunctions/arm_cmplx_mag_squared_q15.c ****   {
  73:Source\ComplexMathFunctions/arm_cmplx_mag_squared_q15.c ****     /* C[0] = (A[0] * A[0] + A[1] * A[1]) */
ARM GAS  C:\Users\fneves\AppData\Local\Temp\ccoFdZPV.s 			page 3


  74:Source\ComplexMathFunctions/arm_cmplx_mag_squared_q15.c ****     in1 = *__SIMD32(pSrc)++;
  75:Source\ComplexMathFunctions/arm_cmplx_mag_squared_q15.c ****     in2 = *__SIMD32(pSrc)++;
  76:Source\ComplexMathFunctions/arm_cmplx_mag_squared_q15.c ****     in3 = *__SIMD32(pSrc)++;
  77:Source\ComplexMathFunctions/arm_cmplx_mag_squared_q15.c ****     in4 = *__SIMD32(pSrc)++;
  78:Source\ComplexMathFunctions/arm_cmplx_mag_squared_q15.c **** 
  79:Source\ComplexMathFunctions/arm_cmplx_mag_squared_q15.c ****     acc0 = __SMUAD(in1, in1);
  80:Source\ComplexMathFunctions/arm_cmplx_mag_squared_q15.c ****     acc1 = __SMUAD(in2, in2);
  81:Source\ComplexMathFunctions/arm_cmplx_mag_squared_q15.c ****     acc2 = __SMUAD(in3, in3);
  82:Source\ComplexMathFunctions/arm_cmplx_mag_squared_q15.c ****     acc3 = __SMUAD(in4, in4);
  83:Source\ComplexMathFunctions/arm_cmplx_mag_squared_q15.c **** 
  84:Source\ComplexMathFunctions/arm_cmplx_mag_squared_q15.c ****     /* store the result in 3.13 format in the destination buffer. */
  85:Source\ComplexMathFunctions/arm_cmplx_mag_squared_q15.c ****     *pDst++ = (q15_t) (acc0 >> 17);
  86:Source\ComplexMathFunctions/arm_cmplx_mag_squared_q15.c ****     *pDst++ = (q15_t) (acc1 >> 17);
  87:Source\ComplexMathFunctions/arm_cmplx_mag_squared_q15.c ****     *pDst++ = (q15_t) (acc2 >> 17);
  88:Source\ComplexMathFunctions/arm_cmplx_mag_squared_q15.c ****     *pDst++ = (q15_t) (acc3 >> 17);
  89:Source\ComplexMathFunctions/arm_cmplx_mag_squared_q15.c **** 
  90:Source\ComplexMathFunctions/arm_cmplx_mag_squared_q15.c ****     /* Decrement the loop counter */
  91:Source\ComplexMathFunctions/arm_cmplx_mag_squared_q15.c ****     blkCnt--;
  92:Source\ComplexMathFunctions/arm_cmplx_mag_squared_q15.c ****   }
  93:Source\ComplexMathFunctions/arm_cmplx_mag_squared_q15.c **** 
  94:Source\ComplexMathFunctions/arm_cmplx_mag_squared_q15.c ****   /* If the numSamples is not a multiple of 4, compute any remaining output samples here.
  95:Source\ComplexMathFunctions/arm_cmplx_mag_squared_q15.c ****    ** No loop unrolling is used. */
  96:Source\ComplexMathFunctions/arm_cmplx_mag_squared_q15.c ****   blkCnt = numSamples % 0x4u;
  97:Source\ComplexMathFunctions/arm_cmplx_mag_squared_q15.c **** 
  98:Source\ComplexMathFunctions/arm_cmplx_mag_squared_q15.c ****   while (blkCnt > 0u)
  99:Source\ComplexMathFunctions/arm_cmplx_mag_squared_q15.c ****   {
 100:Source\ComplexMathFunctions/arm_cmplx_mag_squared_q15.c ****     /* C[0] = (A[0] * A[0] + A[1] * A[1]) */
 101:Source\ComplexMathFunctions/arm_cmplx_mag_squared_q15.c ****     in1 = *__SIMD32(pSrc)++;
 102:Source\ComplexMathFunctions/arm_cmplx_mag_squared_q15.c ****     acc0 = __SMUAD(in1, in1);
 103:Source\ComplexMathFunctions/arm_cmplx_mag_squared_q15.c **** 
 104:Source\ComplexMathFunctions/arm_cmplx_mag_squared_q15.c ****     /* store the result in 3.13 format in the destination buffer. */
 105:Source\ComplexMathFunctions/arm_cmplx_mag_squared_q15.c ****     *pDst++ = (q15_t) (acc0 >> 17);
 106:Source\ComplexMathFunctions/arm_cmplx_mag_squared_q15.c **** 
 107:Source\ComplexMathFunctions/arm_cmplx_mag_squared_q15.c ****     /* Decrement the loop counter */
 108:Source\ComplexMathFunctions/arm_cmplx_mag_squared_q15.c ****     blkCnt--;
 109:Source\ComplexMathFunctions/arm_cmplx_mag_squared_q15.c ****   }
 110:Source\ComplexMathFunctions/arm_cmplx_mag_squared_q15.c **** 
 111:Source\ComplexMathFunctions/arm_cmplx_mag_squared_q15.c **** #else
 112:Source\ComplexMathFunctions/arm_cmplx_mag_squared_q15.c **** 
 113:Source\ComplexMathFunctions/arm_cmplx_mag_squared_q15.c ****   /* Run the below code for Cortex-M0 */
 114:Source\ComplexMathFunctions/arm_cmplx_mag_squared_q15.c ****   q15_t real, imag;                              /* Temporary variables to store real and imaginary
 115:Source\ComplexMathFunctions/arm_cmplx_mag_squared_q15.c **** 
 116:Source\ComplexMathFunctions/arm_cmplx_mag_squared_q15.c ****   while (numSamples > 0u)
  42              		.loc 1 116 0
  43 000c 4DE0     		b	.L2
  44              	.L3:
 117:Source\ComplexMathFunctions/arm_cmplx_mag_squared_q15.c ****   {
 118:Source\ComplexMathFunctions/arm_cmplx_mag_squared_q15.c ****     /* out = ((real * real) + (imag * imag)) */
 119:Source\ComplexMathFunctions/arm_cmplx_mag_squared_q15.c ****     real = *pSrc++;
  45              		.loc 1 119 0
  46 000e FB69     		ldr	r3, [r7, #28]
  47 0010 9A1C     		add	r2, r3, #2
  48 0012 FA61     		str	r2, [r7, #28]
  49 0014 1E22     		mov	r2, #30
  50 0016 1021     		mov	r1, #16
  51 0018 8C46     		mov	ip, r1
  52 001a BC44     		add	ip, ip, r7
ARM GAS  C:\Users\fneves\AppData\Local\Temp\ccoFdZPV.s 			page 4


  53 001c 6244     		add	r2, r2, ip
  54 001e 1B88     		ldrh	r3, [r3]
  55 0020 1380     		strh	r3, [r2]
 120:Source\ComplexMathFunctions/arm_cmplx_mag_squared_q15.c ****     imag = *pSrc++;
  56              		.loc 1 120 0
  57 0022 FB69     		ldr	r3, [r7, #28]
  58 0024 9A1C     		add	r2, r3, #2
  59 0026 FA61     		str	r2, [r7, #28]
  60 0028 1C22     		mov	r2, #28
  61 002a 1021     		mov	r1, #16
  62 002c 8C46     		mov	ip, r1
  63 002e BC44     		add	ip, ip, r7
  64 0030 6244     		add	r2, r2, ip
  65 0032 1B88     		ldrh	r3, [r3]
  66 0034 1380     		strh	r3, [r2]
 121:Source\ComplexMathFunctions/arm_cmplx_mag_squared_q15.c ****     acc0 = (real * real);
  67              		.loc 1 121 0
  68 0036 1E23     		mov	r3, #30
  69 0038 1022     		mov	r2, #16
  70 003a 9446     		mov	ip, r2
  71 003c BC44     		add	ip, ip, r7
  72 003e 6344     		add	r3, r3, ip
  73 0040 0022     		mov	r2, #0
  74 0042 9B5E     		ldrsh	r3, [r3, r2]
  75 0044 1E22     		mov	r2, #30
  76 0046 1021     		mov	r1, #16
  77 0048 8C46     		mov	ip, r1
  78 004a BC44     		add	ip, ip, r7
  79 004c 6244     		add	r2, r2, ip
  80 004e 0021     		mov	r1, #0
  81 0050 525E     		ldrsh	r2, [r2, r1]
  82 0052 5343     		mul	r3, r2
  83 0054 BB62     		str	r3, [r7, #40]
 122:Source\ComplexMathFunctions/arm_cmplx_mag_squared_q15.c ****     acc1 = (imag * imag);
  84              		.loc 1 122 0
  85 0056 1C23     		mov	r3, #28
  86 0058 1022     		mov	r2, #16
  87 005a 9446     		mov	ip, r2
  88 005c BC44     		add	ip, ip, r7
  89 005e 6344     		add	r3, r3, ip
  90 0060 0022     		mov	r2, #0
  91 0062 9B5E     		ldrsh	r3, [r3, r2]
  92 0064 1C22     		mov	r2, #28
  93 0066 1021     		mov	r1, #16
  94 0068 8C46     		mov	ip, r1
  95 006a BC44     		add	ip, ip, r7
  96 006c 6244     		add	r2, r2, ip
  97 006e 0021     		mov	r1, #0
  98 0070 525E     		ldrsh	r2, [r2, r1]
  99 0072 5343     		mul	r3, r2
 100 0074 7B62     		str	r3, [r7, #36]
 123:Source\ComplexMathFunctions/arm_cmplx_mag_squared_q15.c ****     /* store the result in 3.13 format in the destination buffer. */
 124:Source\ComplexMathFunctions/arm_cmplx_mag_squared_q15.c ****     *pDst++ = (q15_t) (((q63_t) acc0 + acc1) >> 17);
 101              		.loc 1 124 0
 102 0076 BA69     		ldr	r2, [r7, #24]
 103 0078 931C     		add	r3, r2, #2
 104 007a BB61     		str	r3, [r7, #24]
ARM GAS  C:\Users\fneves\AppData\Local\Temp\ccoFdZPV.s 			page 5


 105 007c BB6A     		ldr	r3, [r7, #40]
 106 007e BB60     		str	r3, [r7, #8]
 107 0080 DB17     		asr	r3, r3, #31
 108 0082 FB60     		str	r3, [r7, #12]
 109 0084 7B6A     		ldr	r3, [r7, #36]
 110 0086 3B60     		str	r3, [r7]
 111 0088 DB17     		asr	r3, r3, #31
 112 008a 7B60     		str	r3, [r7, #4]
 113 008c BB68     		ldr	r3, [r7, #8]
 114 008e FC68     		ldr	r4, [r7, #12]
 115 0090 3868     		ldr	r0, [r7]
 116 0092 7968     		ldr	r1, [r7, #4]
 117 0094 1B18     		add	r3, r3, r0
 118 0096 4C41     		adc	r4, r4, r1
 119 0098 E103     		lsl	r1, r4, #15
 120 009a 5D0C     		lsr	r5, r3, #17
 121 009c 0D43     		orr	r5, r1
 122 009e 6614     		asr	r6, r4, #17
 123 00a0 ABB2     		uxth	r3, r5
 124 00a2 1380     		strh	r3, [r2]
 125:Source\ComplexMathFunctions/arm_cmplx_mag_squared_q15.c **** 
 126:Source\ComplexMathFunctions/arm_cmplx_mag_squared_q15.c ****     /* Decrement the loop counter */
 127:Source\ComplexMathFunctions/arm_cmplx_mag_squared_q15.c ****     numSamples--;
 125              		.loc 1 127 0
 126 00a4 7B69     		ldr	r3, [r7, #20]
 127 00a6 013B     		sub	r3, r3, #1
 128 00a8 7B61     		str	r3, [r7, #20]
 129              	.L2:
 116:Source\ComplexMathFunctions/arm_cmplx_mag_squared_q15.c ****   {
 130              		.loc 1 116 0
 131 00aa 7B69     		ldr	r3, [r7, #20]
 132 00ac 002B     		cmp	r3, #0
 133 00ae AED1     		bne	.L3
 128:Source\ComplexMathFunctions/arm_cmplx_mag_squared_q15.c ****   }
 129:Source\ComplexMathFunctions/arm_cmplx_mag_squared_q15.c **** 
 130:Source\ComplexMathFunctions/arm_cmplx_mag_squared_q15.c **** #endif /* #if defined (ARM_MATH_DSP) */
 131:Source\ComplexMathFunctions/arm_cmplx_mag_squared_q15.c **** 
 132:Source\ComplexMathFunctions/arm_cmplx_mag_squared_q15.c **** }
 134              		.loc 1 132 0
 135 00b0 BD46     		mov	sp, r7
 136 00b2 0DB0     		add	sp, sp, #52
 137              		@ sp needed
 138 00b4 F0BD     		pop	{r4, r5, r6, r7, pc}
 139              		.cfi_endproc
 140              	.LFE82:
 141              		.size	arm_cmplx_mag_squared_q15, .-arm_cmplx_mag_squared_q15
 142 00b6 C046     		.text
 143              	.Letext0:
 144              		.file 2 "c:\\program files (x86)\\cypress\\psoc creator\\4.0\\psoc creator\\import\\gnu\\arm\\4.9.
 145              		.file 3 "c:\\program files (x86)\\cypress\\psoc creator\\4.0\\psoc creator\\import\\gnu\\arm\\4.9.
 146              		.file 4 ".\\Include/arm_math.h"