ARM GAS  C:\Users\fneves\AppData\Local\Temp\ccCX8F1S.s 			page 1


   1              		.cpu cortex-m0plus
   2              		.fpu softvfp
   3              		.eabi_attribute 20, 1
   4              		.eabi_attribute 21, 1
   5              		.eabi_attribute 23, 3
   6              		.eabi_attribute 24, 1
   7              		.eabi_attribute 25, 1
   8              		.eabi_attribute 26, 1
   9              		.eabi_attribute 30, 6
  10              		.eabi_attribute 34, 0
  11              		.eabi_attribute 18, 4
  12              		.code	16
  13              		.file	"arm_mat_cmplx_mult_f32.c"
  14              		.text
  15              	.Ltext0:
  16              		.cfi_sections	.debug_frame
  17              		.global	__aeabi_fmul
  18              		.global	__aeabi_fadd
  19              		.global	__aeabi_fsub
  20              		.section	.text.arm_mat_cmplx_mult_f32,"ax",%progbits
  21              		.align	2
  22              		.global	arm_mat_cmplx_mult_f32
  23              		.code	16
  24              		.thumb_func
  25              		.type	arm_mat_cmplx_mult_f32, %function
  26              	arm_mat_cmplx_mult_f32:
  27              	.LFB82:
  28              		.file 1 "Source\\MatrixFunctions\\arm_mat_cmplx_mult_f32.c"
   1:Source\MatrixFunctions/arm_mat_cmplx_mult_f32.c **** /* ----------------------------------------------------------------------
   2:Source\MatrixFunctions/arm_mat_cmplx_mult_f32.c ****  * Project:      CMSIS DSP Library
   3:Source\MatrixFunctions/arm_mat_cmplx_mult_f32.c ****  * Title:        arm_mat_cmplx_mult_f32.c
   4:Source\MatrixFunctions/arm_mat_cmplx_mult_f32.c ****  * Description:  Floating-point matrix multiplication
   5:Source\MatrixFunctions/arm_mat_cmplx_mult_f32.c ****  *
   6:Source\MatrixFunctions/arm_mat_cmplx_mult_f32.c ****  * $Date:        27. January 2017
   7:Source\MatrixFunctions/arm_mat_cmplx_mult_f32.c ****  * $Revision:    V.1.5.1
   8:Source\MatrixFunctions/arm_mat_cmplx_mult_f32.c ****  *
   9:Source\MatrixFunctions/arm_mat_cmplx_mult_f32.c ****  * Target Processor: Cortex-M cores
  10:Source\MatrixFunctions/arm_mat_cmplx_mult_f32.c ****  * -------------------------------------------------------------------- */
  11:Source\MatrixFunctions/arm_mat_cmplx_mult_f32.c **** /*
  12:Source\MatrixFunctions/arm_mat_cmplx_mult_f32.c ****  * Copyright (C) 2010-2017 ARM Limited or its affiliates. All rights reserved.
  13:Source\MatrixFunctions/arm_mat_cmplx_mult_f32.c ****  *
  14:Source\MatrixFunctions/arm_mat_cmplx_mult_f32.c ****  * SPDX-License-Identifier: Apache-2.0
  15:Source\MatrixFunctions/arm_mat_cmplx_mult_f32.c ****  *
  16:Source\MatrixFunctions/arm_mat_cmplx_mult_f32.c ****  * Licensed under the Apache License, Version 2.0 (the License); you may
  17:Source\MatrixFunctions/arm_mat_cmplx_mult_f32.c ****  * not use this file except in compliance with the License.
  18:Source\MatrixFunctions/arm_mat_cmplx_mult_f32.c ****  * You may obtain a copy of the License at
  19:Source\MatrixFunctions/arm_mat_cmplx_mult_f32.c ****  *
  20:Source\MatrixFunctions/arm_mat_cmplx_mult_f32.c ****  * www.apache.org/licenses/LICENSE-2.0
  21:Source\MatrixFunctions/arm_mat_cmplx_mult_f32.c ****  *
  22:Source\MatrixFunctions/arm_mat_cmplx_mult_f32.c ****  * Unless required by applicable law or agreed to in writing, software
  23:Source\MatrixFunctions/arm_mat_cmplx_mult_f32.c ****  * distributed under the License is distributed on an AS IS BASIS, WITHOUT
  24:Source\MatrixFunctions/arm_mat_cmplx_mult_f32.c ****  * WARRANTIES OR CONDITIONS OF ANY KIND, either express or implied.
  25:Source\MatrixFunctions/arm_mat_cmplx_mult_f32.c ****  * See the License for the specific language governing permissions and
  26:Source\MatrixFunctions/arm_mat_cmplx_mult_f32.c ****  * limitations under the License.
  27:Source\MatrixFunctions/arm_mat_cmplx_mult_f32.c ****  */
  28:Source\MatrixFunctions/arm_mat_cmplx_mult_f32.c **** 
  29:Source\MatrixFunctions/arm_mat_cmplx_mult_f32.c **** #include "arm_math.h"
ARM GAS  C:\Users\fneves\AppData\Local\Temp\ccCX8F1S.s 			page 2


  30:Source\MatrixFunctions/arm_mat_cmplx_mult_f32.c **** 
  31:Source\MatrixFunctions/arm_mat_cmplx_mult_f32.c **** /**
  32:Source\MatrixFunctions/arm_mat_cmplx_mult_f32.c ****  * @ingroup groupMatrix
  33:Source\MatrixFunctions/arm_mat_cmplx_mult_f32.c ****  */
  34:Source\MatrixFunctions/arm_mat_cmplx_mult_f32.c **** 
  35:Source\MatrixFunctions/arm_mat_cmplx_mult_f32.c **** /**
  36:Source\MatrixFunctions/arm_mat_cmplx_mult_f32.c ****  * @defgroup CmplxMatrixMult  Complex Matrix Multiplication
  37:Source\MatrixFunctions/arm_mat_cmplx_mult_f32.c ****  *
  38:Source\MatrixFunctions/arm_mat_cmplx_mult_f32.c ****  * Complex Matrix multiplication is only defined if the number of columns of the
  39:Source\MatrixFunctions/arm_mat_cmplx_mult_f32.c ****  * first matrix equals the number of rows of the second matrix.
  40:Source\MatrixFunctions/arm_mat_cmplx_mult_f32.c ****  * Multiplying an <code>M x N</code> matrix with an <code>N x P</code> matrix results
  41:Source\MatrixFunctions/arm_mat_cmplx_mult_f32.c ****  * in an <code>M x P</code> matrix.
  42:Source\MatrixFunctions/arm_mat_cmplx_mult_f32.c ****  * When matrix size checking is enabled, the functions check: (1) that the inner dimensions of
  43:Source\MatrixFunctions/arm_mat_cmplx_mult_f32.c ****  * <code>pSrcA</code> and <code>pSrcB</code> are equal; and (2) that the size of the output
  44:Source\MatrixFunctions/arm_mat_cmplx_mult_f32.c ****  * matrix equals the outer dimensions of <code>pSrcA</code> and <code>pSrcB</code>.
  45:Source\MatrixFunctions/arm_mat_cmplx_mult_f32.c ****  */
  46:Source\MatrixFunctions/arm_mat_cmplx_mult_f32.c **** 
  47:Source\MatrixFunctions/arm_mat_cmplx_mult_f32.c **** 
  48:Source\MatrixFunctions/arm_mat_cmplx_mult_f32.c **** /**
  49:Source\MatrixFunctions/arm_mat_cmplx_mult_f32.c ****  * @addtogroup CmplxMatrixMult
  50:Source\MatrixFunctions/arm_mat_cmplx_mult_f32.c ****  * @{
  51:Source\MatrixFunctions/arm_mat_cmplx_mult_f32.c ****  */
  52:Source\MatrixFunctions/arm_mat_cmplx_mult_f32.c **** 
  53:Source\MatrixFunctions/arm_mat_cmplx_mult_f32.c **** /**
  54:Source\MatrixFunctions/arm_mat_cmplx_mult_f32.c ****  * @brief Floating-point Complex matrix multiplication.
  55:Source\MatrixFunctions/arm_mat_cmplx_mult_f32.c ****  * @param[in]       *pSrcA points to the first input complex matrix structure
  56:Source\MatrixFunctions/arm_mat_cmplx_mult_f32.c ****  * @param[in]       *pSrcB points to the second input complex matrix structure
  57:Source\MatrixFunctions/arm_mat_cmplx_mult_f32.c ****  * @param[out]      *pDst points to output complex matrix structure
  58:Source\MatrixFunctions/arm_mat_cmplx_mult_f32.c ****  * @return     		The function returns either
  59:Source\MatrixFunctions/arm_mat_cmplx_mult_f32.c ****  * <code>ARM_MATH_SIZE_MISMATCH</code> or <code>ARM_MATH_SUCCESS</code> based on the outcome of siz
  60:Source\MatrixFunctions/arm_mat_cmplx_mult_f32.c ****  */
  61:Source\MatrixFunctions/arm_mat_cmplx_mult_f32.c **** 
  62:Source\MatrixFunctions/arm_mat_cmplx_mult_f32.c **** arm_status arm_mat_cmplx_mult_f32(
  63:Source\MatrixFunctions/arm_mat_cmplx_mult_f32.c ****   const arm_matrix_instance_f32 * pSrcA,
  64:Source\MatrixFunctions/arm_mat_cmplx_mult_f32.c ****   const arm_matrix_instance_f32 * pSrcB,
  65:Source\MatrixFunctions/arm_mat_cmplx_mult_f32.c ****   arm_matrix_instance_f32 * pDst)
  66:Source\MatrixFunctions/arm_mat_cmplx_mult_f32.c **** {
  29              		.loc 1 66 0
  30              		.cfi_startproc
  31 0000 80B5     		push	{r7, lr}
  32              		.cfi_def_cfa_offset 8
  33              		.cfi_offset 7, -8
  34              		.cfi_offset 14, -4
  35 0002 9CB0     		sub	sp, sp, #112
  36              		.cfi_def_cfa_offset 120
  37 0004 00AF     		add	r7, sp, #0
  38              		.cfi_def_cfa_register 7
  39 0006 F860     		str	r0, [r7, #12]
  40 0008 B960     		str	r1, [r7, #8]
  41 000a 7A60     		str	r2, [r7, #4]
  67:Source\MatrixFunctions/arm_mat_cmplx_mult_f32.c ****   float32_t *pIn1 = pSrcA->pData;                /* input data matrix pointer A */
  42              		.loc 1 67 0
  43 000c FB68     		ldr	r3, [r7, #12]
  44 000e 5B68     		ldr	r3, [r3, #4]
  45 0010 FB66     		str	r3, [r7, #108]
  68:Source\MatrixFunctions/arm_mat_cmplx_mult_f32.c ****   float32_t *pIn2 = pSrcB->pData;                /* input data matrix pointer B */
  46              		.loc 1 68 0
ARM GAS  C:\Users\fneves\AppData\Local\Temp\ccCX8F1S.s 			page 3


  47 0012 BB68     		ldr	r3, [r7, #8]
  48 0014 5B68     		ldr	r3, [r3, #4]
  49 0016 BB66     		str	r3, [r7, #104]
  69:Source\MatrixFunctions/arm_mat_cmplx_mult_f32.c ****   float32_t *pInA = pSrcA->pData;                /* input data matrix pointer A  */
  50              		.loc 1 69 0
  51 0018 FB68     		ldr	r3, [r7, #12]
  52 001a 5B68     		ldr	r3, [r3, #4]
  53 001c 7B66     		str	r3, [r7, #100]
  70:Source\MatrixFunctions/arm_mat_cmplx_mult_f32.c ****   float32_t *pOut = pDst->pData;                 /* output data matrix pointer */
  54              		.loc 1 70 0
  55 001e 7B68     		ldr	r3, [r7, #4]
  56 0020 5B68     		ldr	r3, [r3, #4]
  57 0022 3B64     		str	r3, [r7, #64]
  71:Source\MatrixFunctions/arm_mat_cmplx_mult_f32.c ****   float32_t *px;                                 /* Temporary output data matrix pointer */
  72:Source\MatrixFunctions/arm_mat_cmplx_mult_f32.c ****   uint16_t numRowsA = pSrcA->numRows;            /* number of rows of input matrix A */
  58              		.loc 1 72 0
  59 0024 3E23     		mov	r3, #62
  60 0026 FB18     		add	r3, r7, r3
  61 0028 FA68     		ldr	r2, [r7, #12]
  62 002a 1288     		ldrh	r2, [r2]
  63 002c 1A80     		strh	r2, [r3]
  73:Source\MatrixFunctions/arm_mat_cmplx_mult_f32.c ****   uint16_t numColsB = pSrcB->numCols;            /* number of columns of input matrix B */
  64              		.loc 1 73 0
  65 002e 3C23     		mov	r3, #60
  66 0030 FB18     		add	r3, r7, r3
  67 0032 BA68     		ldr	r2, [r7, #8]
  68 0034 5288     		ldrh	r2, [r2, #2]
  69 0036 1A80     		strh	r2, [r3]
  74:Source\MatrixFunctions/arm_mat_cmplx_mult_f32.c ****   uint16_t numColsA = pSrcA->numCols;            /* number of columns of input matrix A */
  70              		.loc 1 74 0
  71 0038 3A23     		mov	r3, #58
  72 003a FB18     		add	r3, r7, r3
  73 003c FA68     		ldr	r2, [r7, #12]
  74 003e 5288     		ldrh	r2, [r2, #2]
  75 0040 1A80     		strh	r2, [r3]
  75:Source\MatrixFunctions/arm_mat_cmplx_mult_f32.c ****   float32_t sumReal1, sumImag1;                  /* accumulator */
  76:Source\MatrixFunctions/arm_mat_cmplx_mult_f32.c ****   float32_t a0, b0, c0, d0;
  77:Source\MatrixFunctions/arm_mat_cmplx_mult_f32.c ****   float32_t a1, b1, c1, d1;
  78:Source\MatrixFunctions/arm_mat_cmplx_mult_f32.c ****   float32_t sumReal2, sumImag2;                  /* accumulator */
  79:Source\MatrixFunctions/arm_mat_cmplx_mult_f32.c **** 
  80:Source\MatrixFunctions/arm_mat_cmplx_mult_f32.c **** 
  81:Source\MatrixFunctions/arm_mat_cmplx_mult_f32.c ****   /* Run the below code for Cortex-M4 and Cortex-M3 */
  82:Source\MatrixFunctions/arm_mat_cmplx_mult_f32.c **** 
  83:Source\MatrixFunctions/arm_mat_cmplx_mult_f32.c ****   uint16_t col, i = 0u, j, row = numRowsA, colCnt;      /* loop counters */
  76              		.loc 1 83 0
  77 0042 4C23     		mov	r3, #76
  78 0044 FB18     		add	r3, r7, r3
  79 0046 0022     		mov	r2, #0
  80 0048 1A80     		strh	r2, [r3]
  81 004a 4823     		mov	r3, #72
  82 004c FB18     		add	r3, r7, r3
  83 004e 3E22     		mov	r2, #62
  84 0050 BA18     		add	r2, r7, r2
  85 0052 1288     		ldrh	r2, [r2]
  86 0054 1A80     		strh	r2, [r3]
  87              	.L7:
  84:Source\MatrixFunctions/arm_mat_cmplx_mult_f32.c ****   arm_status status;                             /* status of matrix multiplication */
ARM GAS  C:\Users\fneves\AppData\Local\Temp\ccCX8F1S.s 			page 4


  85:Source\MatrixFunctions/arm_mat_cmplx_mult_f32.c **** 
  86:Source\MatrixFunctions/arm_mat_cmplx_mult_f32.c **** #ifdef ARM_MATH_MATRIX_CHECK
  87:Source\MatrixFunctions/arm_mat_cmplx_mult_f32.c **** 
  88:Source\MatrixFunctions/arm_mat_cmplx_mult_f32.c **** 
  89:Source\MatrixFunctions/arm_mat_cmplx_mult_f32.c ****   /* Check for matrix mismatch condition */
  90:Source\MatrixFunctions/arm_mat_cmplx_mult_f32.c ****   if ((pSrcA->numCols != pSrcB->numRows) ||
  91:Source\MatrixFunctions/arm_mat_cmplx_mult_f32.c ****      (pSrcA->numRows != pDst->numRows) || (pSrcB->numCols != pDst->numCols))
  92:Source\MatrixFunctions/arm_mat_cmplx_mult_f32.c ****   {
  93:Source\MatrixFunctions/arm_mat_cmplx_mult_f32.c **** 
  94:Source\MatrixFunctions/arm_mat_cmplx_mult_f32.c ****     /* Set status as ARM_MATH_SIZE_MISMATCH */
  95:Source\MatrixFunctions/arm_mat_cmplx_mult_f32.c ****     status = ARM_MATH_SIZE_MISMATCH;
  96:Source\MatrixFunctions/arm_mat_cmplx_mult_f32.c ****   }
  97:Source\MatrixFunctions/arm_mat_cmplx_mult_f32.c ****   else
  98:Source\MatrixFunctions/arm_mat_cmplx_mult_f32.c **** #endif /*      #ifdef ARM_MATH_MATRIX_CHECK    */
  99:Source\MatrixFunctions/arm_mat_cmplx_mult_f32.c **** 
 100:Source\MatrixFunctions/arm_mat_cmplx_mult_f32.c ****   {
 101:Source\MatrixFunctions/arm_mat_cmplx_mult_f32.c ****     /* The following loop performs the dot-product of each row in pSrcA with each column in pSrcB *
 102:Source\MatrixFunctions/arm_mat_cmplx_mult_f32.c ****     /* row loop */
 103:Source\MatrixFunctions/arm_mat_cmplx_mult_f32.c ****     do
 104:Source\MatrixFunctions/arm_mat_cmplx_mult_f32.c ****     {
 105:Source\MatrixFunctions/arm_mat_cmplx_mult_f32.c ****       /* Output pointer is set to starting address of the row being processed */
 106:Source\MatrixFunctions/arm_mat_cmplx_mult_f32.c ****       px = pOut + 2 * i;
  88              		.loc 1 106 0
  89 0056 4C23     		mov	r3, #76
  90 0058 FB18     		add	r3, r7, r3
  91 005a 1B88     		ldrh	r3, [r3]
  92 005c DB00     		lsl	r3, r3, #3
  93 005e 1A1C     		mov	r2, r3
  94 0060 3B6C     		ldr	r3, [r7, #64]
  95 0062 9B18     		add	r3, r3, r2
  96 0064 3B66     		str	r3, [r7, #96]
 107:Source\MatrixFunctions/arm_mat_cmplx_mult_f32.c **** 
 108:Source\MatrixFunctions/arm_mat_cmplx_mult_f32.c ****       /* For every row wise process, the column loop counter is to be initiated */
 109:Source\MatrixFunctions/arm_mat_cmplx_mult_f32.c ****       col = numColsB;
  97              		.loc 1 109 0
  98 0066 4E23     		mov	r3, #78
  99 0068 FB18     		add	r3, r7, r3
 100 006a 3C22     		mov	r2, #60
 101 006c BA18     		add	r2, r7, r2
 102 006e 1288     		ldrh	r2, [r2]
 103 0070 1A80     		strh	r2, [r3]
 110:Source\MatrixFunctions/arm_mat_cmplx_mult_f32.c **** 
 111:Source\MatrixFunctions/arm_mat_cmplx_mult_f32.c ****       /* For every row wise process, the pIn2 pointer is set
 112:Source\MatrixFunctions/arm_mat_cmplx_mult_f32.c ****        ** to the starting address of the pSrcB data */
 113:Source\MatrixFunctions/arm_mat_cmplx_mult_f32.c ****       pIn2 = pSrcB->pData;
 104              		.loc 1 113 0
 105 0072 BB68     		ldr	r3, [r7, #8]
 106 0074 5B68     		ldr	r3, [r3, #4]
 107 0076 BB66     		str	r3, [r7, #104]
 114:Source\MatrixFunctions/arm_mat_cmplx_mult_f32.c **** 
 115:Source\MatrixFunctions/arm_mat_cmplx_mult_f32.c ****       j = 0u;
 108              		.loc 1 115 0
 109 0078 4A23     		mov	r3, #74
 110 007a FB18     		add	r3, r7, r3
 111 007c 0022     		mov	r2, #0
 112 007e 1A80     		strh	r2, [r3]
 113              	.L6:
ARM GAS  C:\Users\fneves\AppData\Local\Temp\ccCX8F1S.s 			page 5


 116:Source\MatrixFunctions/arm_mat_cmplx_mult_f32.c **** 
 117:Source\MatrixFunctions/arm_mat_cmplx_mult_f32.c ****       /* column loop */
 118:Source\MatrixFunctions/arm_mat_cmplx_mult_f32.c ****       do
 119:Source\MatrixFunctions/arm_mat_cmplx_mult_f32.c ****       {
 120:Source\MatrixFunctions/arm_mat_cmplx_mult_f32.c ****         /* Set the variable sum, that acts as accumulator, to zero */
 121:Source\MatrixFunctions/arm_mat_cmplx_mult_f32.c ****         sumReal1 = 0.0f;
 114              		.loc 1 121 0
 115 0080 0023     		mov	r3, #0
 116 0082 FB65     		str	r3, [r7, #92]
 122:Source\MatrixFunctions/arm_mat_cmplx_mult_f32.c ****         sumImag1 = 0.0f;
 117              		.loc 1 122 0
 118 0084 0023     		mov	r3, #0
 119 0086 BB65     		str	r3, [r7, #88]
 123:Source\MatrixFunctions/arm_mat_cmplx_mult_f32.c **** 
 124:Source\MatrixFunctions/arm_mat_cmplx_mult_f32.c ****         sumReal2 = 0.0f;
 120              		.loc 1 124 0
 121 0088 0023     		mov	r3, #0
 122 008a 7B65     		str	r3, [r7, #84]
 125:Source\MatrixFunctions/arm_mat_cmplx_mult_f32.c ****         sumImag2 = 0.0f;
 123              		.loc 1 125 0
 124 008c 0023     		mov	r3, #0
 125 008e 3B65     		str	r3, [r7, #80]
 126:Source\MatrixFunctions/arm_mat_cmplx_mult_f32.c **** 
 127:Source\MatrixFunctions/arm_mat_cmplx_mult_f32.c ****         /* Initiate the pointer pIn1 to point to the starting address of the column being processed
 128:Source\MatrixFunctions/arm_mat_cmplx_mult_f32.c ****         pIn1 = pInA;
 126              		.loc 1 128 0
 127 0090 7B6E     		ldr	r3, [r7, #100]
 128 0092 FB66     		str	r3, [r7, #108]
 129:Source\MatrixFunctions/arm_mat_cmplx_mult_f32.c **** 
 130:Source\MatrixFunctions/arm_mat_cmplx_mult_f32.c ****         /* Apply loop unrolling and compute 4 MACs simultaneously. */
 131:Source\MatrixFunctions/arm_mat_cmplx_mult_f32.c ****         colCnt = numColsA >> 2;
 129              		.loc 1 131 0
 130 0094 4623     		mov	r3, #70
 131 0096 FB18     		add	r3, r7, r3
 132 0098 3A22     		mov	r2, #58
 133 009a BA18     		add	r2, r7, r2
 134 009c 1288     		ldrh	r2, [r2]
 135 009e 9208     		lsr	r2, r2, #2
 136 00a0 1A80     		strh	r2, [r3]
 132:Source\MatrixFunctions/arm_mat_cmplx_mult_f32.c **** 
 133:Source\MatrixFunctions/arm_mat_cmplx_mult_f32.c ****         /* matrix multiplication        */
 134:Source\MatrixFunctions/arm_mat_cmplx_mult_f32.c ****         while (colCnt > 0u)
 137              		.loc 1 134 0
 138 00a2 12E1     		b	.L2
 139              	.L3:
 135:Source\MatrixFunctions/arm_mat_cmplx_mult_f32.c ****         {
 136:Source\MatrixFunctions/arm_mat_cmplx_mult_f32.c **** 
 137:Source\MatrixFunctions/arm_mat_cmplx_mult_f32.c ****           /* Reading real part of complex matrix A */
 138:Source\MatrixFunctions/arm_mat_cmplx_mult_f32.c ****           a0 = *pIn1;
 140              		.loc 1 138 0
 141 00a4 FB6E     		ldr	r3, [r7, #108]
 142 00a6 1B68     		ldr	r3, [r3]
 143 00a8 7B63     		str	r3, [r7, #52]
 139:Source\MatrixFunctions/arm_mat_cmplx_mult_f32.c **** 
 140:Source\MatrixFunctions/arm_mat_cmplx_mult_f32.c ****           /* Reading real part of complex matrix B */
 141:Source\MatrixFunctions/arm_mat_cmplx_mult_f32.c ****           c0 = *pIn2;
 144              		.loc 1 141 0
ARM GAS  C:\Users\fneves\AppData\Local\Temp\ccCX8F1S.s 			page 6


 145 00aa BB6E     		ldr	r3, [r7, #104]
 146 00ac 1B68     		ldr	r3, [r3]
 147 00ae 3B63     		str	r3, [r7, #48]
 142:Source\MatrixFunctions/arm_mat_cmplx_mult_f32.c **** 
 143:Source\MatrixFunctions/arm_mat_cmplx_mult_f32.c ****           /* Reading imaginary part of complex matrix A */
 144:Source\MatrixFunctions/arm_mat_cmplx_mult_f32.c ****           b0 = *(pIn1 + 1u);
 148              		.loc 1 144 0
 149 00b0 FB6E     		ldr	r3, [r7, #108]
 150 00b2 5B68     		ldr	r3, [r3, #4]
 151 00b4 FB62     		str	r3, [r7, #44]
 145:Source\MatrixFunctions/arm_mat_cmplx_mult_f32.c **** 
 146:Source\MatrixFunctions/arm_mat_cmplx_mult_f32.c ****           /* Reading imaginary part of complex matrix B */
 147:Source\MatrixFunctions/arm_mat_cmplx_mult_f32.c ****           d0 = *(pIn2 + 1u);
 152              		.loc 1 147 0
 153 00b6 BB6E     		ldr	r3, [r7, #104]
 154 00b8 5B68     		ldr	r3, [r3, #4]
 155 00ba BB62     		str	r3, [r7, #40]
 148:Source\MatrixFunctions/arm_mat_cmplx_mult_f32.c **** 
 149:Source\MatrixFunctions/arm_mat_cmplx_mult_f32.c ****           sumReal1 += a0 * c0;
 156              		.loc 1 149 0
 157 00bc 786B     		ldr	r0, [r7, #52]
 158 00be 396B     		ldr	r1, [r7, #48]
 159 00c0 FFF7FEFF 		bl	__aeabi_fmul
 160 00c4 031C     		add	r3, r0, #0
 161 00c6 F86D     		ldr	r0, [r7, #92]
 162 00c8 191C     		add	r1, r3, #0
 163 00ca FFF7FEFF 		bl	__aeabi_fadd
 164 00ce 031C     		add	r3, r0, #0
 165 00d0 FB65     		str	r3, [r7, #92]
 150:Source\MatrixFunctions/arm_mat_cmplx_mult_f32.c ****           sumImag1 += b0 * c0;
 166              		.loc 1 150 0
 167 00d2 F86A     		ldr	r0, [r7, #44]
 168 00d4 396B     		ldr	r1, [r7, #48]
 169 00d6 FFF7FEFF 		bl	__aeabi_fmul
 170 00da 031C     		add	r3, r0, #0
 171 00dc B86D     		ldr	r0, [r7, #88]
 172 00de 191C     		add	r1, r3, #0
 173 00e0 FFF7FEFF 		bl	__aeabi_fadd
 174 00e4 031C     		add	r3, r0, #0
 175 00e6 BB65     		str	r3, [r7, #88]
 151:Source\MatrixFunctions/arm_mat_cmplx_mult_f32.c **** 
 152:Source\MatrixFunctions/arm_mat_cmplx_mult_f32.c ****           pIn1 += 2u;
 176              		.loc 1 152 0
 177 00e8 FB6E     		ldr	r3, [r7, #108]
 178 00ea 0833     		add	r3, r3, #8
 179 00ec FB66     		str	r3, [r7, #108]
 153:Source\MatrixFunctions/arm_mat_cmplx_mult_f32.c ****           pIn2 += 2 * numColsB;
 180              		.loc 1 153 0
 181 00ee 3C23     		mov	r3, #60
 182 00f0 FB18     		add	r3, r7, r3
 183 00f2 1B88     		ldrh	r3, [r3]
 184 00f4 DB00     		lsl	r3, r3, #3
 185 00f6 1A1C     		mov	r2, r3
 186 00f8 BB6E     		ldr	r3, [r7, #104]
 187 00fa 9B18     		add	r3, r3, r2
 188 00fc BB66     		str	r3, [r7, #104]
 154:Source\MatrixFunctions/arm_mat_cmplx_mult_f32.c **** 
ARM GAS  C:\Users\fneves\AppData\Local\Temp\ccCX8F1S.s 			page 7


 155:Source\MatrixFunctions/arm_mat_cmplx_mult_f32.c ****           sumReal2 -= b0 * d0;
 189              		.loc 1 155 0
 190 00fe F86A     		ldr	r0, [r7, #44]
 191 0100 B96A     		ldr	r1, [r7, #40]
 192 0102 FFF7FEFF 		bl	__aeabi_fmul
 193 0106 031C     		add	r3, r0, #0
 194 0108 786D     		ldr	r0, [r7, #84]
 195 010a 191C     		add	r1, r3, #0
 196 010c FFF7FEFF 		bl	__aeabi_fsub
 197 0110 031C     		add	r3, r0, #0
 198 0112 7B65     		str	r3, [r7, #84]
 156:Source\MatrixFunctions/arm_mat_cmplx_mult_f32.c ****           sumImag2 += a0 * d0;
 199              		.loc 1 156 0
 200 0114 786B     		ldr	r0, [r7, #52]
 201 0116 B96A     		ldr	r1, [r7, #40]
 202 0118 FFF7FEFF 		bl	__aeabi_fmul
 203 011c 031C     		add	r3, r0, #0
 204 011e 386D     		ldr	r0, [r7, #80]
 205 0120 191C     		add	r1, r3, #0
 206 0122 FFF7FEFF 		bl	__aeabi_fadd
 207 0126 031C     		add	r3, r0, #0
 208 0128 3B65     		str	r3, [r7, #80]
 157:Source\MatrixFunctions/arm_mat_cmplx_mult_f32.c **** 
 158:Source\MatrixFunctions/arm_mat_cmplx_mult_f32.c ****           /* c(m,n) = a(1,1)*b(1,1) + a(1,2) * b(2,1) + .... + a(m,p)*b(p,n) */
 159:Source\MatrixFunctions/arm_mat_cmplx_mult_f32.c **** 
 160:Source\MatrixFunctions/arm_mat_cmplx_mult_f32.c ****           a1 = *pIn1;
 209              		.loc 1 160 0
 210 012a FB6E     		ldr	r3, [r7, #108]
 211 012c 1B68     		ldr	r3, [r3]
 212 012e 7B62     		str	r3, [r7, #36]
 161:Source\MatrixFunctions/arm_mat_cmplx_mult_f32.c ****           c1 = *pIn2;
 213              		.loc 1 161 0
 214 0130 BB6E     		ldr	r3, [r7, #104]
 215 0132 1B68     		ldr	r3, [r3]
 216 0134 3B62     		str	r3, [r7, #32]
 162:Source\MatrixFunctions/arm_mat_cmplx_mult_f32.c **** 
 163:Source\MatrixFunctions/arm_mat_cmplx_mult_f32.c ****           b1 = *(pIn1 + 1u);
 217              		.loc 1 163 0
 218 0136 FB6E     		ldr	r3, [r7, #108]
 219 0138 5B68     		ldr	r3, [r3, #4]
 220 013a FB61     		str	r3, [r7, #28]
 164:Source\MatrixFunctions/arm_mat_cmplx_mult_f32.c ****           d1 = *(pIn2 + 1u);
 221              		.loc 1 164 0
 222 013c BB6E     		ldr	r3, [r7, #104]
 223 013e 5B68     		ldr	r3, [r3, #4]
 224 0140 BB61     		str	r3, [r7, #24]
 165:Source\MatrixFunctions/arm_mat_cmplx_mult_f32.c **** 
 166:Source\MatrixFunctions/arm_mat_cmplx_mult_f32.c ****           sumReal1 += a1 * c1;
 225              		.loc 1 166 0
 226 0142 786A     		ldr	r0, [r7, #36]
 227 0144 396A     		ldr	r1, [r7, #32]
 228 0146 FFF7FEFF 		bl	__aeabi_fmul
 229 014a 031C     		add	r3, r0, #0
 230 014c F86D     		ldr	r0, [r7, #92]
 231 014e 191C     		add	r1, r3, #0
 232 0150 FFF7FEFF 		bl	__aeabi_fadd
 233 0154 031C     		add	r3, r0, #0
ARM GAS  C:\Users\fneves\AppData\Local\Temp\ccCX8F1S.s 			page 8


 234 0156 FB65     		str	r3, [r7, #92]
 167:Source\MatrixFunctions/arm_mat_cmplx_mult_f32.c ****           sumImag1 += b1 * c1;
 235              		.loc 1 167 0
 236 0158 F869     		ldr	r0, [r7, #28]
 237 015a 396A     		ldr	r1, [r7, #32]
 238 015c FFF7FEFF 		bl	__aeabi_fmul
 239 0160 031C     		add	r3, r0, #0
 240 0162 B86D     		ldr	r0, [r7, #88]
 241 0164 191C     		add	r1, r3, #0
 242 0166 FFF7FEFF 		bl	__aeabi_fadd
 243 016a 031C     		add	r3, r0, #0
 244 016c BB65     		str	r3, [r7, #88]
 168:Source\MatrixFunctions/arm_mat_cmplx_mult_f32.c **** 
 169:Source\MatrixFunctions/arm_mat_cmplx_mult_f32.c ****           pIn1 += 2u;
 245              		.loc 1 169 0
 246 016e FB6E     		ldr	r3, [r7, #108]
 247 0170 0833     		add	r3, r3, #8
 248 0172 FB66     		str	r3, [r7, #108]
 170:Source\MatrixFunctions/arm_mat_cmplx_mult_f32.c ****           pIn2 += 2 * numColsB;
 249              		.loc 1 170 0
 250 0174 3C23     		mov	r3, #60
 251 0176 FB18     		add	r3, r7, r3
 252 0178 1B88     		ldrh	r3, [r3]
 253 017a DB00     		lsl	r3, r3, #3
 254 017c 1A1C     		mov	r2, r3
 255 017e BB6E     		ldr	r3, [r7, #104]
 256 0180 9B18     		add	r3, r3, r2
 257 0182 BB66     		str	r3, [r7, #104]
 171:Source\MatrixFunctions/arm_mat_cmplx_mult_f32.c **** 
 172:Source\MatrixFunctions/arm_mat_cmplx_mult_f32.c ****           sumReal2 -= b1 * d1;
 258              		.loc 1 172 0
 259 0184 F869     		ldr	r0, [r7, #28]
 260 0186 B969     		ldr	r1, [r7, #24]
 261 0188 FFF7FEFF 		bl	__aeabi_fmul
 262 018c 031C     		add	r3, r0, #0
 263 018e 786D     		ldr	r0, [r7, #84]
 264 0190 191C     		add	r1, r3, #0
 265 0192 FFF7FEFF 		bl	__aeabi_fsub
 266 0196 031C     		add	r3, r0, #0
 267 0198 7B65     		str	r3, [r7, #84]
 173:Source\MatrixFunctions/arm_mat_cmplx_mult_f32.c ****           sumImag2 += a1 * d1;
 268              		.loc 1 173 0
 269 019a 786A     		ldr	r0, [r7, #36]
 270 019c B969     		ldr	r1, [r7, #24]
 271 019e FFF7FEFF 		bl	__aeabi_fmul
 272 01a2 031C     		add	r3, r0, #0
 273 01a4 386D     		ldr	r0, [r7, #80]
 274 01a6 191C     		add	r1, r3, #0
 275 01a8 FFF7FEFF 		bl	__aeabi_fadd
 276 01ac 031C     		add	r3, r0, #0
 277 01ae 3B65     		str	r3, [r7, #80]
 174:Source\MatrixFunctions/arm_mat_cmplx_mult_f32.c **** 
 175:Source\MatrixFunctions/arm_mat_cmplx_mult_f32.c ****           a0 = *pIn1;
 278              		.loc 1 175 0
 279 01b0 FB6E     		ldr	r3, [r7, #108]
 280 01b2 1B68     		ldr	r3, [r3]
 281 01b4 7B63     		str	r3, [r7, #52]
ARM GAS  C:\Users\fneves\AppData\Local\Temp\ccCX8F1S.s 			page 9


 176:Source\MatrixFunctions/arm_mat_cmplx_mult_f32.c ****           c0 = *pIn2;
 282              		.loc 1 176 0
 283 01b6 BB6E     		ldr	r3, [r7, #104]
 284 01b8 1B68     		ldr	r3, [r3]
 285 01ba 3B63     		str	r3, [r7, #48]
 177:Source\MatrixFunctions/arm_mat_cmplx_mult_f32.c **** 
 178:Source\MatrixFunctions/arm_mat_cmplx_mult_f32.c ****           b0 = *(pIn1 + 1u);
 286              		.loc 1 178 0
 287 01bc FB6E     		ldr	r3, [r7, #108]
 288 01be 5B68     		ldr	r3, [r3, #4]
 289 01c0 FB62     		str	r3, [r7, #44]
 179:Source\MatrixFunctions/arm_mat_cmplx_mult_f32.c ****           d0 = *(pIn2 + 1u);
 290              		.loc 1 179 0
 291 01c2 BB6E     		ldr	r3, [r7, #104]
 292 01c4 5B68     		ldr	r3, [r3, #4]
 293 01c6 BB62     		str	r3, [r7, #40]
 180:Source\MatrixFunctions/arm_mat_cmplx_mult_f32.c **** 
 181:Source\MatrixFunctions/arm_mat_cmplx_mult_f32.c ****           sumReal1 += a0 * c0;
 294              		.loc 1 181 0
 295 01c8 786B     		ldr	r0, [r7, #52]
 296 01ca 396B     		ldr	r1, [r7, #48]
 297 01cc FFF7FEFF 		bl	__aeabi_fmul
 298 01d0 031C     		add	r3, r0, #0
 299 01d2 F86D     		ldr	r0, [r7, #92]
 300 01d4 191C     		add	r1, r3, #0
 301 01d6 FFF7FEFF 		bl	__aeabi_fadd
 302 01da 031C     		add	r3, r0, #0
 303 01dc FB65     		str	r3, [r7, #92]
 182:Source\MatrixFunctions/arm_mat_cmplx_mult_f32.c ****           sumImag1 += b0 * c0;
 304              		.loc 1 182 0
 305 01de F86A     		ldr	r0, [r7, #44]
 306 01e0 396B     		ldr	r1, [r7, #48]
 307 01e2 FFF7FEFF 		bl	__aeabi_fmul
 308 01e6 031C     		add	r3, r0, #0
 309 01e8 B86D     		ldr	r0, [r7, #88]
 310 01ea 191C     		add	r1, r3, #0
 311 01ec FFF7FEFF 		bl	__aeabi_fadd
 312 01f0 031C     		add	r3, r0, #0
 313 01f2 BB65     		str	r3, [r7, #88]
 183:Source\MatrixFunctions/arm_mat_cmplx_mult_f32.c **** 
 184:Source\MatrixFunctions/arm_mat_cmplx_mult_f32.c ****           pIn1 += 2u;
 314              		.loc 1 184 0
 315 01f4 FB6E     		ldr	r3, [r7, #108]
 316 01f6 0833     		add	r3, r3, #8
 317 01f8 FB66     		str	r3, [r7, #108]
 185:Source\MatrixFunctions/arm_mat_cmplx_mult_f32.c ****           pIn2 += 2 * numColsB;
 318              		.loc 1 185 0
 319 01fa 3C23     		mov	r3, #60
 320 01fc FB18     		add	r3, r7, r3
 321 01fe 1B88     		ldrh	r3, [r3]
 322 0200 DB00     		lsl	r3, r3, #3
 323 0202 1A1C     		mov	r2, r3
 324 0204 BB6E     		ldr	r3, [r7, #104]
 325 0206 9B18     		add	r3, r3, r2
 326 0208 BB66     		str	r3, [r7, #104]
 186:Source\MatrixFunctions/arm_mat_cmplx_mult_f32.c **** 
 187:Source\MatrixFunctions/arm_mat_cmplx_mult_f32.c ****           sumReal2 -= b0 * d0;
ARM GAS  C:\Users\fneves\AppData\Local\Temp\ccCX8F1S.s 			page 10


 327              		.loc 1 187 0
 328 020a F86A     		ldr	r0, [r7, #44]
 329 020c B96A     		ldr	r1, [r7, #40]
 330 020e FFF7FEFF 		bl	__aeabi_fmul
 331 0212 031C     		add	r3, r0, #0
 332 0214 786D     		ldr	r0, [r7, #84]
 333 0216 191C     		add	r1, r3, #0
 334 0218 FFF7FEFF 		bl	__aeabi_fsub
 335 021c 031C     		add	r3, r0, #0
 336 021e 7B65     		str	r3, [r7, #84]
 188:Source\MatrixFunctions/arm_mat_cmplx_mult_f32.c ****           sumImag2 += a0 * d0;
 337              		.loc 1 188 0
 338 0220 786B     		ldr	r0, [r7, #52]
 339 0222 B96A     		ldr	r1, [r7, #40]
 340 0224 FFF7FEFF 		bl	__aeabi_fmul
 341 0228 031C     		add	r3, r0, #0
 342 022a 386D     		ldr	r0, [r7, #80]
 343 022c 191C     		add	r1, r3, #0
 344 022e FFF7FEFF 		bl	__aeabi_fadd
 345 0232 031C     		add	r3, r0, #0
 346 0234 3B65     		str	r3, [r7, #80]
 189:Source\MatrixFunctions/arm_mat_cmplx_mult_f32.c **** 
 190:Source\MatrixFunctions/arm_mat_cmplx_mult_f32.c ****           /* c(m,n) = a(1,1)*b(1,1) + a(1,2) * b(2,1) + .... + a(m,p)*b(p,n) */
 191:Source\MatrixFunctions/arm_mat_cmplx_mult_f32.c **** 
 192:Source\MatrixFunctions/arm_mat_cmplx_mult_f32.c ****           a1 = *pIn1;
 347              		.loc 1 192 0
 348 0236 FB6E     		ldr	r3, [r7, #108]
 349 0238 1B68     		ldr	r3, [r3]
 350 023a 7B62     		str	r3, [r7, #36]
 193:Source\MatrixFunctions/arm_mat_cmplx_mult_f32.c ****           c1 = *pIn2;
 351              		.loc 1 193 0
 352 023c BB6E     		ldr	r3, [r7, #104]
 353 023e 1B68     		ldr	r3, [r3]
 354 0240 3B62     		str	r3, [r7, #32]
 194:Source\MatrixFunctions/arm_mat_cmplx_mult_f32.c **** 
 195:Source\MatrixFunctions/arm_mat_cmplx_mult_f32.c ****           b1 = *(pIn1 + 1u);
 355              		.loc 1 195 0
 356 0242 FB6E     		ldr	r3, [r7, #108]
 357 0244 5B68     		ldr	r3, [r3, #4]
 358 0246 FB61     		str	r3, [r7, #28]
 196:Source\MatrixFunctions/arm_mat_cmplx_mult_f32.c ****           d1 = *(pIn2 + 1u);
 359              		.loc 1 196 0
 360 0248 BB6E     		ldr	r3, [r7, #104]
 361 024a 5B68     		ldr	r3, [r3, #4]
 362 024c BB61     		str	r3, [r7, #24]
 197:Source\MatrixFunctions/arm_mat_cmplx_mult_f32.c **** 
 198:Source\MatrixFunctions/arm_mat_cmplx_mult_f32.c ****           sumReal1 += a1 * c1;
 363              		.loc 1 198 0
 364 024e 786A     		ldr	r0, [r7, #36]
 365 0250 396A     		ldr	r1, [r7, #32]
 366 0252 FFF7FEFF 		bl	__aeabi_fmul
 367 0256 031C     		add	r3, r0, #0
 368 0258 F86D     		ldr	r0, [r7, #92]
 369 025a 191C     		add	r1, r3, #0
 370 025c FFF7FEFF 		bl	__aeabi_fadd
 371 0260 031C     		add	r3, r0, #0
 372 0262 FB65     		str	r3, [r7, #92]
ARM GAS  C:\Users\fneves\AppData\Local\Temp\ccCX8F1S.s 			page 11


 199:Source\MatrixFunctions/arm_mat_cmplx_mult_f32.c ****           sumImag1 += b1 * c1;
 373              		.loc 1 199 0
 374 0264 F869     		ldr	r0, [r7, #28]
 375 0266 396A     		ldr	r1, [r7, #32]
 376 0268 FFF7FEFF 		bl	__aeabi_fmul
 377 026c 031C     		add	r3, r0, #0
 378 026e B86D     		ldr	r0, [r7, #88]
 379 0270 191C     		add	r1, r3, #0
 380 0272 FFF7FEFF 		bl	__aeabi_fadd
 381 0276 031C     		add	r3, r0, #0
 382 0278 BB65     		str	r3, [r7, #88]
 200:Source\MatrixFunctions/arm_mat_cmplx_mult_f32.c **** 
 201:Source\MatrixFunctions/arm_mat_cmplx_mult_f32.c ****           pIn1 += 2u;
 383              		.loc 1 201 0
 384 027a FB6E     		ldr	r3, [r7, #108]
 385 027c 0833     		add	r3, r3, #8
 386 027e FB66     		str	r3, [r7, #108]
 202:Source\MatrixFunctions/arm_mat_cmplx_mult_f32.c ****           pIn2 += 2 * numColsB;
 387              		.loc 1 202 0
 388 0280 3C23     		mov	r3, #60
 389 0282 FB18     		add	r3, r7, r3
 390 0284 1B88     		ldrh	r3, [r3]
 391 0286 DB00     		lsl	r3, r3, #3
 392 0288 1A1C     		mov	r2, r3
 393 028a BB6E     		ldr	r3, [r7, #104]
 394 028c 9B18     		add	r3, r3, r2
 395 028e BB66     		str	r3, [r7, #104]
 203:Source\MatrixFunctions/arm_mat_cmplx_mult_f32.c **** 
 204:Source\MatrixFunctions/arm_mat_cmplx_mult_f32.c ****           sumReal2 -= b1 * d1;
 396              		.loc 1 204 0
 397 0290 F869     		ldr	r0, [r7, #28]
 398 0292 B969     		ldr	r1, [r7, #24]
 399 0294 FFF7FEFF 		bl	__aeabi_fmul
 400 0298 031C     		add	r3, r0, #0
 401 029a 786D     		ldr	r0, [r7, #84]
 402 029c 191C     		add	r1, r3, #0
 403 029e FFF7FEFF 		bl	__aeabi_fsub
 404 02a2 031C     		add	r3, r0, #0
 405 02a4 7B65     		str	r3, [r7, #84]
 205:Source\MatrixFunctions/arm_mat_cmplx_mult_f32.c ****           sumImag2 += a1 * d1;
 406              		.loc 1 205 0
 407 02a6 786A     		ldr	r0, [r7, #36]
 408 02a8 B969     		ldr	r1, [r7, #24]
 409 02aa FFF7FEFF 		bl	__aeabi_fmul
 410 02ae 031C     		add	r3, r0, #0
 411 02b0 386D     		ldr	r0, [r7, #80]
 412 02b2 191C     		add	r1, r3, #0
 413 02b4 FFF7FEFF 		bl	__aeabi_fadd
 414 02b8 031C     		add	r3, r0, #0
 415 02ba 3B65     		str	r3, [r7, #80]
 206:Source\MatrixFunctions/arm_mat_cmplx_mult_f32.c **** 
 207:Source\MatrixFunctions/arm_mat_cmplx_mult_f32.c ****           /* Decrement the loop count */
 208:Source\MatrixFunctions/arm_mat_cmplx_mult_f32.c ****           colCnt--;
 416              		.loc 1 208 0
 417 02bc 4623     		mov	r3, #70
 418 02be FB18     		add	r3, r7, r3
 419 02c0 1A88     		ldrh	r2, [r3]
ARM GAS  C:\Users\fneves\AppData\Local\Temp\ccCX8F1S.s 			page 12


 420 02c2 4623     		mov	r3, #70
 421 02c4 FB18     		add	r3, r7, r3
 422 02c6 013A     		sub	r2, r2, #1
 423 02c8 1A80     		strh	r2, [r3]
 424              	.L2:
 134:Source\MatrixFunctions/arm_mat_cmplx_mult_f32.c ****         {
 425              		.loc 1 134 0
 426 02ca 4623     		mov	r3, #70
 427 02cc FB18     		add	r3, r7, r3
 428 02ce 1B88     		ldrh	r3, [r3]
 429 02d0 002B     		cmp	r3, #0
 430 02d2 00D0     		beq	.LCB347
 431 02d4 E6E6     		b	.L3	@long jump
 432              	.LCB347:
 209:Source\MatrixFunctions/arm_mat_cmplx_mult_f32.c ****         }
 210:Source\MatrixFunctions/arm_mat_cmplx_mult_f32.c **** 
 211:Source\MatrixFunctions/arm_mat_cmplx_mult_f32.c ****         /* If the columns of pSrcA is not a multiple of 4, compute any remaining MACs here.
 212:Source\MatrixFunctions/arm_mat_cmplx_mult_f32.c ****          ** No loop unrolling is used. */
 213:Source\MatrixFunctions/arm_mat_cmplx_mult_f32.c ****         colCnt = numColsA % 0x4u;
 433              		.loc 1 213 0
 434 02d6 4623     		mov	r3, #70
 435 02d8 FB18     		add	r3, r7, r3
 436 02da 3A22     		mov	r2, #58
 437 02dc BA18     		add	r2, r7, r2
 438 02de 1288     		ldrh	r2, [r2]
 439 02e0 0321     		mov	r1, #3
 440 02e2 0A40     		and	r2, r1
 441 02e4 1A80     		strh	r2, [r3]
 214:Source\MatrixFunctions/arm_mat_cmplx_mult_f32.c **** 
 215:Source\MatrixFunctions/arm_mat_cmplx_mult_f32.c ****         while (colCnt > 0u)
 442              		.loc 1 215 0
 443 02e6 49E0     		b	.L4
 444              	.L5:
 216:Source\MatrixFunctions/arm_mat_cmplx_mult_f32.c ****         {
 217:Source\MatrixFunctions/arm_mat_cmplx_mult_f32.c ****           /* c(m,n) = a(1,1)*b(1,1) + a(1,2) * b(2,1) + .... + a(m,p)*b(p,n) */
 218:Source\MatrixFunctions/arm_mat_cmplx_mult_f32.c ****           a1 = *pIn1;
 445              		.loc 1 218 0
 446 02e8 FB6E     		ldr	r3, [r7, #108]
 447 02ea 1B68     		ldr	r3, [r3]
 448 02ec 7B62     		str	r3, [r7, #36]
 219:Source\MatrixFunctions/arm_mat_cmplx_mult_f32.c ****           c1 = *pIn2;
 449              		.loc 1 219 0
 450 02ee BB6E     		ldr	r3, [r7, #104]
 451 02f0 1B68     		ldr	r3, [r3]
 452 02f2 3B62     		str	r3, [r7, #32]
 220:Source\MatrixFunctions/arm_mat_cmplx_mult_f32.c **** 
 221:Source\MatrixFunctions/arm_mat_cmplx_mult_f32.c ****           b1 = *(pIn1 + 1u);
 453              		.loc 1 221 0
 454 02f4 FB6E     		ldr	r3, [r7, #108]
 455 02f6 5B68     		ldr	r3, [r3, #4]
 456 02f8 FB61     		str	r3, [r7, #28]
 222:Source\MatrixFunctions/arm_mat_cmplx_mult_f32.c ****           d1 = *(pIn2 + 1u);
 457              		.loc 1 222 0
 458 02fa BB6E     		ldr	r3, [r7, #104]
 459 02fc 5B68     		ldr	r3, [r3, #4]
 460 02fe BB61     		str	r3, [r7, #24]
 223:Source\MatrixFunctions/arm_mat_cmplx_mult_f32.c **** 
ARM GAS  C:\Users\fneves\AppData\Local\Temp\ccCX8F1S.s 			page 13


 224:Source\MatrixFunctions/arm_mat_cmplx_mult_f32.c ****           sumReal1 += a1 * c1;
 461              		.loc 1 224 0
 462 0300 786A     		ldr	r0, [r7, #36]
 463 0302 396A     		ldr	r1, [r7, #32]
 464 0304 FFF7FEFF 		bl	__aeabi_fmul
 465 0308 031C     		add	r3, r0, #0
 466 030a F86D     		ldr	r0, [r7, #92]
 467 030c 191C     		add	r1, r3, #0
 468 030e FFF7FEFF 		bl	__aeabi_fadd
 469 0312 031C     		add	r3, r0, #0
 470 0314 FB65     		str	r3, [r7, #92]
 225:Source\MatrixFunctions/arm_mat_cmplx_mult_f32.c ****           sumImag1 += b1 * c1;
 471              		.loc 1 225 0
 472 0316 F869     		ldr	r0, [r7, #28]
 473 0318 396A     		ldr	r1, [r7, #32]
 474 031a FFF7FEFF 		bl	__aeabi_fmul
 475 031e 031C     		add	r3, r0, #0
 476 0320 B86D     		ldr	r0, [r7, #88]
 477 0322 191C     		add	r1, r3, #0
 478 0324 FFF7FEFF 		bl	__aeabi_fadd
 479 0328 031C     		add	r3, r0, #0
 480 032a BB65     		str	r3, [r7, #88]
 226:Source\MatrixFunctions/arm_mat_cmplx_mult_f32.c **** 
 227:Source\MatrixFunctions/arm_mat_cmplx_mult_f32.c ****           pIn1 += 2u;
 481              		.loc 1 227 0
 482 032c FB6E     		ldr	r3, [r7, #108]
 483 032e 0833     		add	r3, r3, #8
 484 0330 FB66     		str	r3, [r7, #108]
 228:Source\MatrixFunctions/arm_mat_cmplx_mult_f32.c ****           pIn2 += 2 * numColsB;
 485              		.loc 1 228 0
 486 0332 3C23     		mov	r3, #60
 487 0334 FB18     		add	r3, r7, r3
 488 0336 1B88     		ldrh	r3, [r3]
 489 0338 DB00     		lsl	r3, r3, #3
 490 033a 1A1C     		mov	r2, r3
 491 033c BB6E     		ldr	r3, [r7, #104]
 492 033e 9B18     		add	r3, r3, r2
 493 0340 BB66     		str	r3, [r7, #104]
 229:Source\MatrixFunctions/arm_mat_cmplx_mult_f32.c **** 
 230:Source\MatrixFunctions/arm_mat_cmplx_mult_f32.c ****           sumReal2 -= b1 * d1;
 494              		.loc 1 230 0
 495 0342 F869     		ldr	r0, [r7, #28]
 496 0344 B969     		ldr	r1, [r7, #24]
 497 0346 FFF7FEFF 		bl	__aeabi_fmul
 498 034a 031C     		add	r3, r0, #0
 499 034c 786D     		ldr	r0, [r7, #84]
 500 034e 191C     		add	r1, r3, #0
 501 0350 FFF7FEFF 		bl	__aeabi_fsub
 502 0354 031C     		add	r3, r0, #0
 503 0356 7B65     		str	r3, [r7, #84]
 231:Source\MatrixFunctions/arm_mat_cmplx_mult_f32.c ****           sumImag2 += a1 * d1;
 504              		.loc 1 231 0
 505 0358 786A     		ldr	r0, [r7, #36]
 506 035a B969     		ldr	r1, [r7, #24]
 507 035c FFF7FEFF 		bl	__aeabi_fmul
 508 0360 031C     		add	r3, r0, #0
 509 0362 386D     		ldr	r0, [r7, #80]
ARM GAS  C:\Users\fneves\AppData\Local\Temp\ccCX8F1S.s 			page 14


 510 0364 191C     		add	r1, r3, #0
 511 0366 FFF7FEFF 		bl	__aeabi_fadd
 512 036a 031C     		add	r3, r0, #0
 513 036c 3B65     		str	r3, [r7, #80]
 232:Source\MatrixFunctions/arm_mat_cmplx_mult_f32.c **** 
 233:Source\MatrixFunctions/arm_mat_cmplx_mult_f32.c ****           /* Decrement the loop counter */
 234:Source\MatrixFunctions/arm_mat_cmplx_mult_f32.c ****           colCnt--;
 514              		.loc 1 234 0
 515 036e 4623     		mov	r3, #70
 516 0370 FB18     		add	r3, r7, r3
 517 0372 1A88     		ldrh	r2, [r3]
 518 0374 4623     		mov	r3, #70
 519 0376 FB18     		add	r3, r7, r3
 520 0378 013A     		sub	r2, r2, #1
 521 037a 1A80     		strh	r2, [r3]
 522              	.L4:
 215:Source\MatrixFunctions/arm_mat_cmplx_mult_f32.c ****         {
 523              		.loc 1 215 0
 524 037c 4623     		mov	r3, #70
 525 037e FB18     		add	r3, r7, r3
 526 0380 1B88     		ldrh	r3, [r3]
 527 0382 002B     		cmp	r3, #0
 528 0384 B0D1     		bne	.L5
 235:Source\MatrixFunctions/arm_mat_cmplx_mult_f32.c ****         }
 236:Source\MatrixFunctions/arm_mat_cmplx_mult_f32.c **** 
 237:Source\MatrixFunctions/arm_mat_cmplx_mult_f32.c ****         sumReal1 += sumReal2;
 529              		.loc 1 237 0
 530 0386 F86D     		ldr	r0, [r7, #92]
 531 0388 796D     		ldr	r1, [r7, #84]
 532 038a FFF7FEFF 		bl	__aeabi_fadd
 533 038e 031C     		add	r3, r0, #0
 534 0390 FB65     		str	r3, [r7, #92]
 238:Source\MatrixFunctions/arm_mat_cmplx_mult_f32.c ****         sumImag1 += sumImag2;
 535              		.loc 1 238 0
 536 0392 B86D     		ldr	r0, [r7, #88]
 537 0394 396D     		ldr	r1, [r7, #80]
 538 0396 FFF7FEFF 		bl	__aeabi_fadd
 539 039a 031C     		add	r3, r0, #0
 540 039c BB65     		str	r3, [r7, #88]
 239:Source\MatrixFunctions/arm_mat_cmplx_mult_f32.c **** 
 240:Source\MatrixFunctions/arm_mat_cmplx_mult_f32.c ****         /* Store the result in the destination buffer */
 241:Source\MatrixFunctions/arm_mat_cmplx_mult_f32.c ****         *px++ = sumReal1;
 541              		.loc 1 241 0
 542 039e 3B6E     		ldr	r3, [r7, #96]
 543 03a0 1A1D     		add	r2, r3, #4
 544 03a2 3A66     		str	r2, [r7, #96]
 545 03a4 FA6D     		ldr	r2, [r7, #92]
 546 03a6 1A60     		str	r2, [r3]
 242:Source\MatrixFunctions/arm_mat_cmplx_mult_f32.c ****         *px++ = sumImag1;
 547              		.loc 1 242 0
 548 03a8 3B6E     		ldr	r3, [r7, #96]
 549 03aa 1A1D     		add	r2, r3, #4
 550 03ac 3A66     		str	r2, [r7, #96]
 551 03ae BA6D     		ldr	r2, [r7, #88]
 552 03b0 1A60     		str	r2, [r3]
 243:Source\MatrixFunctions/arm_mat_cmplx_mult_f32.c **** 
 244:Source\MatrixFunctions/arm_mat_cmplx_mult_f32.c ****         /* Update the pointer pIn2 to point to the  starting address of the next column */
ARM GAS  C:\Users\fneves\AppData\Local\Temp\ccCX8F1S.s 			page 15


 245:Source\MatrixFunctions/arm_mat_cmplx_mult_f32.c ****         j++;
 553              		.loc 1 245 0
 554 03b2 4A23     		mov	r3, #74
 555 03b4 FB18     		add	r3, r7, r3
 556 03b6 1A88     		ldrh	r2, [r3]
 557 03b8 4A23     		mov	r3, #74
 558 03ba FB18     		add	r3, r7, r3
 559 03bc 0132     		add	r2, r2, #1
 560 03be 1A80     		strh	r2, [r3]
 246:Source\MatrixFunctions/arm_mat_cmplx_mult_f32.c ****         pIn2 = pSrcB->pData + 2u * j;
 561              		.loc 1 246 0
 562 03c0 BB68     		ldr	r3, [r7, #8]
 563 03c2 5A68     		ldr	r2, [r3, #4]
 564 03c4 4A23     		mov	r3, #74
 565 03c6 FB18     		add	r3, r7, r3
 566 03c8 1B88     		ldrh	r3, [r3]
 567 03ca DB00     		lsl	r3, r3, #3
 568 03cc D318     		add	r3, r2, r3
 569 03ce BB66     		str	r3, [r7, #104]
 247:Source\MatrixFunctions/arm_mat_cmplx_mult_f32.c **** 
 248:Source\MatrixFunctions/arm_mat_cmplx_mult_f32.c ****         /* Decrement the column loop counter */
 249:Source\MatrixFunctions/arm_mat_cmplx_mult_f32.c ****         col--;
 570              		.loc 1 249 0
 571 03d0 4E23     		mov	r3, #78
 572 03d2 FB18     		add	r3, r7, r3
 573 03d4 1A88     		ldrh	r2, [r3]
 574 03d6 4E23     		mov	r3, #78
 575 03d8 FB18     		add	r3, r7, r3
 576 03da 013A     		sub	r2, r2, #1
 577 03dc 1A80     		strh	r2, [r3]
 250:Source\MatrixFunctions/arm_mat_cmplx_mult_f32.c **** 
 251:Source\MatrixFunctions/arm_mat_cmplx_mult_f32.c ****       } while (col > 0u);
 578              		.loc 1 251 0
 579 03de 4E23     		mov	r3, #78
 580 03e0 FB18     		add	r3, r7, r3
 581 03e2 1B88     		ldrh	r3, [r3]
 582 03e4 002B     		cmp	r3, #0
 583 03e6 00D0     		beq	.LCB479
 584 03e8 4AE6     		b	.L6	@long jump
 585              	.LCB479:
 252:Source\MatrixFunctions/arm_mat_cmplx_mult_f32.c **** 
 253:Source\MatrixFunctions/arm_mat_cmplx_mult_f32.c ****       /* Update the pointer pInA to point to the  starting address of the next row */
 254:Source\MatrixFunctions/arm_mat_cmplx_mult_f32.c ****       i = i + numColsB;
 586              		.loc 1 254 0
 587 03ea 4C23     		mov	r3, #76
 588 03ec FB18     		add	r3, r7, r3
 589 03ee 4C22     		mov	r2, #76
 590 03f0 B918     		add	r1, r7, r2
 591 03f2 3C22     		mov	r2, #60
 592 03f4 BA18     		add	r2, r7, r2
 593 03f6 0988     		ldrh	r1, [r1]
 594 03f8 1288     		ldrh	r2, [r2]
 595 03fa 8A18     		add	r2, r1, r2
 596 03fc 1A80     		strh	r2, [r3]
 255:Source\MatrixFunctions/arm_mat_cmplx_mult_f32.c ****       pInA = pInA + 2 * numColsA;
 597              		.loc 1 255 0
 598 03fe 3A23     		mov	r3, #58
ARM GAS  C:\Users\fneves\AppData\Local\Temp\ccCX8F1S.s 			page 16


 599 0400 FB18     		add	r3, r7, r3
 600 0402 1B88     		ldrh	r3, [r3]
 601 0404 DB00     		lsl	r3, r3, #3
 602 0406 1A1C     		mov	r2, r3
 603 0408 7B6E     		ldr	r3, [r7, #100]
 604 040a 9B18     		add	r3, r3, r2
 605 040c 7B66     		str	r3, [r7, #100]
 256:Source\MatrixFunctions/arm_mat_cmplx_mult_f32.c **** 
 257:Source\MatrixFunctions/arm_mat_cmplx_mult_f32.c ****       /* Decrement the row loop counter */
 258:Source\MatrixFunctions/arm_mat_cmplx_mult_f32.c ****       row--;
 606              		.loc 1 258 0
 607 040e 4823     		mov	r3, #72
 608 0410 FB18     		add	r3, r7, r3
 609 0412 1A88     		ldrh	r2, [r3]
 610 0414 4823     		mov	r3, #72
 611 0416 FB18     		add	r3, r7, r3
 612 0418 013A     		sub	r2, r2, #1
 613 041a 1A80     		strh	r2, [r3]
 259:Source\MatrixFunctions/arm_mat_cmplx_mult_f32.c **** 
 260:Source\MatrixFunctions/arm_mat_cmplx_mult_f32.c ****     } while (row > 0u);
 614              		.loc 1 260 0
 615 041c 4823     		mov	r3, #72
 616 041e FB18     		add	r3, r7, r3
 617 0420 1B88     		ldrh	r3, [r3]
 618 0422 002B     		cmp	r3, #0
 619 0424 00D0     		beq	.LCB509
 620 0426 16E6     		b	.L7	@long jump
 621              	.LCB509:
 261:Source\MatrixFunctions/arm_mat_cmplx_mult_f32.c **** 
 262:Source\MatrixFunctions/arm_mat_cmplx_mult_f32.c ****     /* Set status as ARM_MATH_SUCCESS */
 263:Source\MatrixFunctions/arm_mat_cmplx_mult_f32.c ****     status = ARM_MATH_SUCCESS;
 622              		.loc 1 263 0
 623 0428 1723     		mov	r3, #23
 624 042a FB18     		add	r3, r7, r3
 625 042c 0022     		mov	r2, #0
 626 042e 1A70     		strb	r2, [r3]
 264:Source\MatrixFunctions/arm_mat_cmplx_mult_f32.c ****   }
 265:Source\MatrixFunctions/arm_mat_cmplx_mult_f32.c **** 
 266:Source\MatrixFunctions/arm_mat_cmplx_mult_f32.c ****   /* Return to application */
 267:Source\MatrixFunctions/arm_mat_cmplx_mult_f32.c ****   return (status);
 627              		.loc 1 267 0
 628 0430 1723     		mov	r3, #23
 629 0432 FB18     		add	r3, r7, r3
 630 0434 1B78     		ldrb	r3, [r3]
 631 0436 5BB2     		sxtb	r3, r3
 268:Source\MatrixFunctions/arm_mat_cmplx_mult_f32.c **** }
 632              		.loc 1 268 0
 633 0438 181C     		mov	r0, r3
 634 043a BD46     		mov	sp, r7
 635 043c 1CB0     		add	sp, sp, #112
 636              		@ sp needed
 637 043e 80BD     		pop	{r7, pc}
 638              		.cfi_endproc
 639              	.LFE82:
 640              		.size	arm_mat_cmplx_mult_f32, .-arm_mat_cmplx_mult_f32
 641              		.text
 642              	.Letext0:
ARM GAS  C:\Users\fneves\AppData\Local\Temp\ccCX8F1S.s 			page 17


 643              		.file 2 "c:\\program files (x86)\\cypress\\psoc creator\\4.0\\psoc creator\\import\\gnu\\arm\\4.9.
 644              		.file 3 "c:\\program files (x86)\\cypress\\psoc creator\\4.0\\psoc creator\\import\\gnu\\arm\\4.9.
 645              		.file 4 ".\\Include/arm_math.h"