ARM GAS  C:\Users\fneves\AppData\Local\Temp\cc8Kqy5I.s 			page 1


   1              		.cpu cortex-m0plus
   2              		.fpu softvfp
   3              		.eabi_attribute 20, 1
   4              		.eabi_attribute 21, 1
   5              		.eabi_attribute 23, 3
   6              		.eabi_attribute 24, 1
   7              		.eabi_attribute 25, 1
   8              		.eabi_attribute 26, 1
   9              		.eabi_attribute 30, 6
  10              		.eabi_attribute 34, 0
  11              		.eabi_attribute 18, 4
  12              		.code	16
  13              		.file	"arm_conv_opt_q15.c"
  14              		.text
  15              	.Ltext0:
  16              		.cfi_sections	.debug_frame
  17              		.section	.text.arm_conv_opt_q15,"ax",%progbits
  18              		.align	2
  19              		.global	arm_conv_opt_q15
  20              		.code	16
  21              		.thumb_func
  22              		.type	arm_conv_opt_q15, %function
  23              	arm_conv_opt_q15:
  24              	.LFB82:
  25              		.file 1 "Source\\FilteringFunctions\\arm_conv_opt_q15.c"
   1:Source\FilteringFunctions/arm_conv_opt_q15.c **** /* ----------------------------------------------------------------------
   2:Source\FilteringFunctions/arm_conv_opt_q15.c ****  * Project:      CMSIS DSP Library
   3:Source\FilteringFunctions/arm_conv_opt_q15.c ****  * Title:        arm_conv_opt_q15.c
   4:Source\FilteringFunctions/arm_conv_opt_q15.c ****  * Description:  Convolution of Q15 sequences
   5:Source\FilteringFunctions/arm_conv_opt_q15.c ****  *
   6:Source\FilteringFunctions/arm_conv_opt_q15.c ****  * $Date:        27. January 2017
   7:Source\FilteringFunctions/arm_conv_opt_q15.c ****  * $Revision:    V.1.5.1
   8:Source\FilteringFunctions/arm_conv_opt_q15.c ****  *
   9:Source\FilteringFunctions/arm_conv_opt_q15.c ****  * Target Processor: Cortex-M cores
  10:Source\FilteringFunctions/arm_conv_opt_q15.c ****  * -------------------------------------------------------------------- */
  11:Source\FilteringFunctions/arm_conv_opt_q15.c **** /*
  12:Source\FilteringFunctions/arm_conv_opt_q15.c ****  * Copyright (C) 2010-2017 ARM Limited or its affiliates. All rights reserved.
  13:Source\FilteringFunctions/arm_conv_opt_q15.c ****  *
  14:Source\FilteringFunctions/arm_conv_opt_q15.c ****  * SPDX-License-Identifier: Apache-2.0
  15:Source\FilteringFunctions/arm_conv_opt_q15.c ****  *
  16:Source\FilteringFunctions/arm_conv_opt_q15.c ****  * Licensed under the Apache License, Version 2.0 (the License); you may
  17:Source\FilteringFunctions/arm_conv_opt_q15.c ****  * not use this file except in compliance with the License.
  18:Source\FilteringFunctions/arm_conv_opt_q15.c ****  * You may obtain a copy of the License at
  19:Source\FilteringFunctions/arm_conv_opt_q15.c ****  *
  20:Source\FilteringFunctions/arm_conv_opt_q15.c ****  * www.apache.org/licenses/LICENSE-2.0
  21:Source\FilteringFunctions/arm_conv_opt_q15.c ****  *
  22:Source\FilteringFunctions/arm_conv_opt_q15.c ****  * Unless required by applicable law or agreed to in writing, software
  23:Source\FilteringFunctions/arm_conv_opt_q15.c ****  * distributed under the License is distributed on an AS IS BASIS, WITHOUT
  24:Source\FilteringFunctions/arm_conv_opt_q15.c ****  * WARRANTIES OR CONDITIONS OF ANY KIND, either express or implied.
  25:Source\FilteringFunctions/arm_conv_opt_q15.c ****  * See the License for the specific language governing permissions and
  26:Source\FilteringFunctions/arm_conv_opt_q15.c ****  * limitations under the License.
  27:Source\FilteringFunctions/arm_conv_opt_q15.c ****  */
  28:Source\FilteringFunctions/arm_conv_opt_q15.c **** 
  29:Source\FilteringFunctions/arm_conv_opt_q15.c **** #include "arm_math.h"
  30:Source\FilteringFunctions/arm_conv_opt_q15.c **** 
  31:Source\FilteringFunctions/arm_conv_opt_q15.c **** /**
  32:Source\FilteringFunctions/arm_conv_opt_q15.c ****  * @ingroup groupFilters
ARM GAS  C:\Users\fneves\AppData\Local\Temp\cc8Kqy5I.s 			page 2


  33:Source\FilteringFunctions/arm_conv_opt_q15.c ****  */
  34:Source\FilteringFunctions/arm_conv_opt_q15.c **** 
  35:Source\FilteringFunctions/arm_conv_opt_q15.c **** /**
  36:Source\FilteringFunctions/arm_conv_opt_q15.c ****  * @addtogroup Conv
  37:Source\FilteringFunctions/arm_conv_opt_q15.c ****  * @{
  38:Source\FilteringFunctions/arm_conv_opt_q15.c ****  */
  39:Source\FilteringFunctions/arm_conv_opt_q15.c **** 
  40:Source\FilteringFunctions/arm_conv_opt_q15.c **** /**
  41:Source\FilteringFunctions/arm_conv_opt_q15.c ****  * @brief Convolution of Q15 sequences.
  42:Source\FilteringFunctions/arm_conv_opt_q15.c ****  * @param[in] *pSrcA points to the first input sequence.
  43:Source\FilteringFunctions/arm_conv_opt_q15.c ****  * @param[in] srcALen length of the first input sequence.
  44:Source\FilteringFunctions/arm_conv_opt_q15.c ****  * @param[in] *pSrcB points to the second input sequence.
  45:Source\FilteringFunctions/arm_conv_opt_q15.c ****  * @param[in] srcBLen length of the second input sequence.
  46:Source\FilteringFunctions/arm_conv_opt_q15.c ****  * @param[out] *pDst points to the location where the output result is written.  Length srcALen+src
  47:Source\FilteringFunctions/arm_conv_opt_q15.c ****  * @param[in]  *pScratch1 points to scratch buffer of size max(srcALen, srcBLen) + 2*min(srcALen, s
  48:Source\FilteringFunctions/arm_conv_opt_q15.c ****  * @param[in]  *pScratch2 points to scratch buffer of size min(srcALen, srcBLen).
  49:Source\FilteringFunctions/arm_conv_opt_q15.c ****  * @return none.
  50:Source\FilteringFunctions/arm_conv_opt_q15.c ****  *
  51:Source\FilteringFunctions/arm_conv_opt_q15.c ****  * \par Restrictions
  52:Source\FilteringFunctions/arm_conv_opt_q15.c ****  *  If the silicon does not support unaligned memory access enable the macro UNALIGNED_SUPPORT_DISA
  53:Source\FilteringFunctions/arm_conv_opt_q15.c ****  *	In this case input, output, scratch1 and scratch2 buffers should be aligned by 32-bit
  54:Source\FilteringFunctions/arm_conv_opt_q15.c ****  *
  55:Source\FilteringFunctions/arm_conv_opt_q15.c ****  *
  56:Source\FilteringFunctions/arm_conv_opt_q15.c ****  * @details
  57:Source\FilteringFunctions/arm_conv_opt_q15.c ****  * <b>Scaling and Overflow Behavior:</b>
  58:Source\FilteringFunctions/arm_conv_opt_q15.c ****  *
  59:Source\FilteringFunctions/arm_conv_opt_q15.c ****  * \par
  60:Source\FilteringFunctions/arm_conv_opt_q15.c ****  * The function is implemented using a 64-bit internal accumulator.
  61:Source\FilteringFunctions/arm_conv_opt_q15.c ****  * Both inputs are in 1.15 format and multiplications yield a 2.30 result.
  62:Source\FilteringFunctions/arm_conv_opt_q15.c ****  * The 2.30 intermediate results are accumulated in a 64-bit accumulator in 34.30 format.
  63:Source\FilteringFunctions/arm_conv_opt_q15.c ****  * This approach provides 33 guard bits and there is no risk of overflow.
  64:Source\FilteringFunctions/arm_conv_opt_q15.c ****  * The 34.30 result is then truncated to 34.15 format by discarding the low 15 bits and then satura
  65:Source\FilteringFunctions/arm_conv_opt_q15.c ****  *
  66:Source\FilteringFunctions/arm_conv_opt_q15.c ****  *
  67:Source\FilteringFunctions/arm_conv_opt_q15.c ****  * \par
  68:Source\FilteringFunctions/arm_conv_opt_q15.c ****  * Refer to <code>arm_conv_fast_q15()</code> for a faster but less precise version of this function
  69:Source\FilteringFunctions/arm_conv_opt_q15.c ****  *
  70:Source\FilteringFunctions/arm_conv_opt_q15.c ****  *
  71:Source\FilteringFunctions/arm_conv_opt_q15.c ****  */
  72:Source\FilteringFunctions/arm_conv_opt_q15.c **** 
  73:Source\FilteringFunctions/arm_conv_opt_q15.c **** void arm_conv_opt_q15(
  74:Source\FilteringFunctions/arm_conv_opt_q15.c ****   q15_t * pSrcA,
  75:Source\FilteringFunctions/arm_conv_opt_q15.c ****   uint32_t srcALen,
  76:Source\FilteringFunctions/arm_conv_opt_q15.c ****   q15_t * pSrcB,
  77:Source\FilteringFunctions/arm_conv_opt_q15.c ****   uint32_t srcBLen,
  78:Source\FilteringFunctions/arm_conv_opt_q15.c ****   q15_t * pDst,
  79:Source\FilteringFunctions/arm_conv_opt_q15.c ****   q15_t * pScratch1,
  80:Source\FilteringFunctions/arm_conv_opt_q15.c ****   q15_t * pScratch2)
  81:Source\FilteringFunctions/arm_conv_opt_q15.c **** {
  26              		.loc 1 81 0
  27              		.cfi_startproc
  28 0000 F0B5     		push	{r4, r5, r6, r7, lr}
  29              		.cfi_def_cfa_offset 20
  30              		.cfi_offset 4, -20
  31              		.cfi_offset 5, -16
  32              		.cfi_offset 6, -12
  33              		.cfi_offset 7, -8
ARM GAS  C:\Users\fneves\AppData\Local\Temp\cc8Kqy5I.s 			page 3


  34              		.cfi_offset 14, -4
  35 0002 5746     		mov	r7, r10
  36 0004 4E46     		mov	r6, r9
  37 0006 4546     		mov	r5, r8
  38 0008 E0B4     		push	{r5, r6, r7}
  39              		.cfi_def_cfa_offset 32
  40              		.cfi_offset 8, -32
  41              		.cfi_offset 9, -28
  42              		.cfi_offset 10, -24
  43 000a C04C     		ldr	r4, .L63
  44 000c A544     		add	sp, sp, r4
  45              		.cfi_def_cfa_offset 544
  46 000e 00AF     		add	r7, sp, #0
  47              		.cfi_def_cfa_register 7
  48 0010 A424     		mov	r4, #164
  49 0012 7C60     		str	r4, [r7, #4]
  50 0014 0824     		mov	r4, #8
  51 0016 A446     		mov	ip, r4
  52 0018 0824     		mov	r4, #8
  53 001a A046     		mov	r8, r4
  54 001c B844     		add	r8, r8, r7
  55 001e C444     		add	ip, ip, r8
  56 0020 7C68     		ldr	r4, [r7, #4]
  57 0022 6444     		add	r4, r4, ip
  58 0024 2060     		str	r0, [r4]
  59 0026 A020     		mov	r0, #160
  60 0028 0824     		mov	r4, #8
  61 002a A446     		mov	ip, r4
  62 002c 0824     		mov	r4, #8
  63 002e A046     		mov	r8, r4
  64 0030 B844     		add	r8, r8, r7
  65 0032 C444     		add	ip, ip, r8
  66 0034 6044     		add	r0, r0, ip
  67 0036 0160     		str	r1, [r0]
  68 0038 9C21     		mov	r1, #156
  69 003a 0820     		mov	r0, #8
  70 003c 8446     		mov	ip, r0
  71 003e 0820     		mov	r0, #8
  72 0040 8046     		mov	r8, r0
  73 0042 B844     		add	r8, r8, r7
  74 0044 C444     		add	ip, ip, r8
  75 0046 6144     		add	r1, r1, ip
  76 0048 0A60     		str	r2, [r1]
  77 004a 9822     		mov	r2, #152
  78 004c 0821     		mov	r1, #8
  79 004e 8C46     		mov	ip, r1
  80 0050 0821     		mov	r1, #8
  81 0052 8846     		mov	r8, r1
  82 0054 B844     		add	r8, r8, r7
  83 0056 C444     		add	ip, ip, r8
  84 0058 6244     		add	r2, r2, ip
  85 005a 1360     		str	r3, [r2]
  82:Source\FilteringFunctions/arm_conv_opt_q15.c ****   q63_t acc0, acc1, acc2, acc3;                  /* Accumulator */
  83:Source\FilteringFunctions/arm_conv_opt_q15.c ****   q31_t x1, x2, x3;                              /* Temporary variables to hold state and coefficie
  84:Source\FilteringFunctions/arm_conv_opt_q15.c ****   q31_t y1, y2;                                  /* State variables */
  85:Source\FilteringFunctions/arm_conv_opt_q15.c ****   q15_t *pOut = pDst;                            /* output pointer */
  86              		.loc 1 85 0
ARM GAS  C:\Users\fneves\AppData\Local\Temp\cc8Kqy5I.s 			page 4


  87 005c B823     		mov	r3, #184
  88 005e 5B00     		lsl	r3, r3, #1
  89 0060 9822     		mov	r2, #152
  90 0062 9446     		mov	ip, r2
  91 0064 0822     		mov	r2, #8
  92 0066 9046     		mov	r8, r2
  93 0068 0822     		mov	r2, #8
  94 006a 9146     		mov	r9, r2
  95 006c 0822     		mov	r2, #8
  96 006e 9246     		mov	r10, r2
  97 0070 BA44     		add	r10, r10, r7
  98 0072 D144     		add	r9, r9, r10
  99 0074 C844     		add	r8, r8, r9
 100 0076 C444     		add	ip, ip, r8
 101 0078 6344     		add	r3, r3, ip
 102 007a 1B68     		ldr	r3, [r3]
 103 007c B022     		mov	r2, #176
 104 007e 0821     		mov	r1, #8
 105 0080 8C46     		mov	ip, r1
 106 0082 0821     		mov	r1, #8
 107 0084 8846     		mov	r8, r1
 108 0086 B844     		add	r8, r8, r7
 109 0088 C444     		add	ip, ip, r8
 110 008a 6244     		add	r2, r2, ip
 111 008c 1360     		str	r3, [r2]
  86:Source\FilteringFunctions/arm_conv_opt_q15.c ****   q15_t *pScr1 = pScratch1;                      /* Temporary pointer for scratch1 */
 112              		.loc 1 86 0
 113 008e BA23     		mov	r3, #186
 114 0090 5B00     		lsl	r3, r3, #1
 115 0092 9822     		mov	r2, #152
 116 0094 9446     		mov	ip, r2
 117 0096 0822     		mov	r2, #8
 118 0098 9046     		mov	r8, r2
 119 009a 0822     		mov	r2, #8
 120 009c 9146     		mov	r9, r2
 121 009e 0822     		mov	r2, #8
 122 00a0 9246     		mov	r10, r2
 123 00a2 BA44     		add	r10, r10, r7
 124 00a4 D144     		add	r9, r9, r10
 125 00a6 C844     		add	r8, r8, r9
 126 00a8 C444     		add	ip, ip, r8
 127 00aa 6344     		add	r3, r3, ip
 128 00ac 1B68     		ldr	r3, [r3]
 129 00ae AC22     		mov	r2, #172
 130 00b0 0821     		mov	r1, #8
 131 00b2 8C46     		mov	ip, r1
 132 00b4 0821     		mov	r1, #8
 133 00b6 8846     		mov	r8, r1
 134 00b8 B844     		add	r8, r8, r7
 135 00ba C444     		add	ip, ip, r8
 136 00bc 6244     		add	r2, r2, ip
 137 00be 1360     		str	r3, [r2]
  87:Source\FilteringFunctions/arm_conv_opt_q15.c ****   q15_t *pScr2 = pScratch2;                      /* Temporary pointer for scratch1 */
 138              		.loc 1 87 0
 139 00c0 BC23     		mov	r3, #188
 140 00c2 5B00     		lsl	r3, r3, #1
 141 00c4 9822     		mov	r2, #152
ARM GAS  C:\Users\fneves\AppData\Local\Temp\cc8Kqy5I.s 			page 5


 142 00c6 9446     		mov	ip, r2
 143 00c8 0822     		mov	r2, #8
 144 00ca 9046     		mov	r8, r2
 145 00cc 0822     		mov	r2, #8
 146 00ce 9146     		mov	r9, r2
 147 00d0 0822     		mov	r2, #8
 148 00d2 9246     		mov	r10, r2
 149 00d4 BA44     		add	r10, r10, r7
 150 00d6 D144     		add	r9, r9, r10
 151 00d8 C844     		add	r8, r8, r9
 152 00da C444     		add	ip, ip, r8
 153 00dc 6344     		add	r3, r3, ip
 154 00de 1B68     		ldr	r3, [r3]
 155 00e0 9622     		mov	r2, #150
 156 00e2 5200     		lsl	r2, r2, #1
 157 00e4 9821     		mov	r1, #152
 158 00e6 8C46     		mov	ip, r1
 159 00e8 0821     		mov	r1, #8
 160 00ea 8846     		mov	r8, r1
 161 00ec 0821     		mov	r1, #8
 162 00ee 8946     		mov	r9, r1
 163 00f0 B944     		add	r9, r9, r7
 164 00f2 C844     		add	r8, r8, r9
 165 00f4 C444     		add	ip, ip, r8
 166 00f6 6244     		add	r2, r2, ip
 167 00f8 1360     		str	r3, [r2]
  88:Source\FilteringFunctions/arm_conv_opt_q15.c ****   q15_t *pIn1;                                   /* inputA pointer */
  89:Source\FilteringFunctions/arm_conv_opt_q15.c ****   q15_t *pIn2;                                   /* inputB pointer */
  90:Source\FilteringFunctions/arm_conv_opt_q15.c ****   q15_t *px;                                     /* Intermediate inputA pointer  */
  91:Source\FilteringFunctions/arm_conv_opt_q15.c ****   q15_t *py;                                     /* Intermediate inputB pointer  */
  92:Source\FilteringFunctions/arm_conv_opt_q15.c ****   uint32_t j, k, blkCnt;                         /* loop counter */
  93:Source\FilteringFunctions/arm_conv_opt_q15.c ****   uint32_t tapCnt;                               /* loop count */
  94:Source\FilteringFunctions/arm_conv_opt_q15.c **** #ifdef UNALIGNED_SUPPORT_DISABLE
  95:Source\FilteringFunctions/arm_conv_opt_q15.c **** 
  96:Source\FilteringFunctions/arm_conv_opt_q15.c ****   q15_t a, b;
  97:Source\FilteringFunctions/arm_conv_opt_q15.c **** 
  98:Source\FilteringFunctions/arm_conv_opt_q15.c **** #endif	/*	#ifndef UNALIGNED_SUPPORT_DISABLE	*/
  99:Source\FilteringFunctions/arm_conv_opt_q15.c **** 
 100:Source\FilteringFunctions/arm_conv_opt_q15.c ****   /* The algorithm implementation is based on the lengths of the inputs. */
 101:Source\FilteringFunctions/arm_conv_opt_q15.c ****   /* srcB is always made to slide across srcA. */
 102:Source\FilteringFunctions/arm_conv_opt_q15.c ****   /* So srcBLen is always considered as shorter or equal to srcALen */
 103:Source\FilteringFunctions/arm_conv_opt_q15.c ****   if (srcALen >= srcBLen)
 168              		.loc 1 103 0
 169 00fa A023     		mov	r3, #160
 170 00fc 0822     		mov	r2, #8
 171 00fe 9446     		mov	ip, r2
 172 0100 0822     		mov	r2, #8
 173 0102 9046     		mov	r8, r2
 174 0104 B844     		add	r8, r8, r7
 175 0106 C444     		add	ip, ip, r8
 176 0108 6344     		add	r3, r3, ip
 177 010a 1A68     		ldr	r2, [r3]
 178 010c 9823     		mov	r3, #152
 179 010e 0821     		mov	r1, #8
 180 0110 8C46     		mov	ip, r1
 181 0112 0821     		mov	r1, #8
 182 0114 8846     		mov	r8, r1
ARM GAS  C:\Users\fneves\AppData\Local\Temp\cc8Kqy5I.s 			page 6


 183 0116 B844     		add	r8, r8, r7
 184 0118 C444     		add	ip, ip, r8
 185 011a 6344     		add	r3, r3, ip
 186 011c 1B68     		ldr	r3, [r3]
 187 011e 9A42     		cmp	r2, r3
 188 0120 2CD3     		bcc	.L2
 104:Source\FilteringFunctions/arm_conv_opt_q15.c ****   {
 105:Source\FilteringFunctions/arm_conv_opt_q15.c ****     /* Initialization of inputA pointer */
 106:Source\FilteringFunctions/arm_conv_opt_q15.c ****     pIn1 = pSrcA;
 189              		.loc 1 106 0
 190 0122 A423     		mov	r3, #164
 191 0124 0822     		mov	r2, #8
 192 0126 9446     		mov	ip, r2
 193 0128 0822     		mov	r2, #8
 194 012a 9046     		mov	r8, r2
 195 012c B844     		add	r8, r8, r7
 196 012e C444     		add	ip, ip, r8
 197 0130 6344     		add	r3, r3, ip
 198 0132 1B68     		ldr	r3, [r3]
 199 0134 9422     		mov	r2, #148
 200 0136 5200     		lsl	r2, r2, #1
 201 0138 9821     		mov	r1, #152
 202 013a 8C46     		mov	ip, r1
 203 013c 0821     		mov	r1, #8
 204 013e 8846     		mov	r8, r1
 205 0140 0821     		mov	r1, #8
 206 0142 8946     		mov	r9, r1
 207 0144 B944     		add	r9, r9, r7
 208 0146 C844     		add	r8, r8, r9
 209 0148 C444     		add	ip, ip, r8
 210 014a 6244     		add	r2, r2, ip
 211 014c 1360     		str	r3, [r2]
 107:Source\FilteringFunctions/arm_conv_opt_q15.c **** 
 108:Source\FilteringFunctions/arm_conv_opt_q15.c ****     /* Initialization of inputB pointer */
 109:Source\FilteringFunctions/arm_conv_opt_q15.c ****     pIn2 = pSrcB;
 212              		.loc 1 109 0
 213 014e 9C23     		mov	r3, #156
 214 0150 0822     		mov	r2, #8
 215 0152 9446     		mov	ip, r2
 216 0154 0822     		mov	r2, #8
 217 0156 9046     		mov	r8, r2
 218 0158 B844     		add	r8, r8, r7
 219 015a C444     		add	ip, ip, r8
 220 015c 6344     		add	r3, r3, ip
 221 015e 1B68     		ldr	r3, [r3]
 222 0160 9222     		mov	r2, #146
 223 0162 5200     		lsl	r2, r2, #1
 224 0164 9821     		mov	r1, #152
 225 0166 8C46     		mov	ip, r1
 226 0168 0821     		mov	r1, #8
 227 016a 8846     		mov	r8, r1
 228 016c 0821     		mov	r1, #8
 229 016e 8946     		mov	r9, r1
 230 0170 B944     		add	r9, r9, r7
 231 0172 C844     		add	r8, r8, r9
 232 0174 C444     		add	ip, ip, r8
 233 0176 6244     		add	r2, r2, ip
ARM GAS  C:\Users\fneves\AppData\Local\Temp\cc8Kqy5I.s 			page 7


 234 0178 1360     		str	r3, [r2]
 235 017a 69E0     		b	.L3
 236              	.L2:
 110:Source\FilteringFunctions/arm_conv_opt_q15.c **** 
 111:Source\FilteringFunctions/arm_conv_opt_q15.c ****   }
 112:Source\FilteringFunctions/arm_conv_opt_q15.c ****   else
 113:Source\FilteringFunctions/arm_conv_opt_q15.c ****   {
 114:Source\FilteringFunctions/arm_conv_opt_q15.c ****     /* Initialization of inputA pointer */
 115:Source\FilteringFunctions/arm_conv_opt_q15.c ****     pIn1 = pSrcB;
 237              		.loc 1 115 0
 238 017c 9C23     		mov	r3, #156
 239 017e 0822     		mov	r2, #8
 240 0180 9446     		mov	ip, r2
 241 0182 0822     		mov	r2, #8
 242 0184 9046     		mov	r8, r2
 243 0186 B844     		add	r8, r8, r7
 244 0188 C444     		add	ip, ip, r8
 245 018a 6344     		add	r3, r3, ip
 246 018c 1B68     		ldr	r3, [r3]
 247 018e 9422     		mov	r2, #148
 248 0190 5200     		lsl	r2, r2, #1
 249 0192 9821     		mov	r1, #152
 250 0194 8C46     		mov	ip, r1
 251 0196 0821     		mov	r1, #8
 252 0198 8846     		mov	r8, r1
 253 019a 0821     		mov	r1, #8
 254 019c 8946     		mov	r9, r1
 255 019e B944     		add	r9, r9, r7
 256 01a0 C844     		add	r8, r8, r9
 257 01a2 C444     		add	ip, ip, r8
 258 01a4 6244     		add	r2, r2, ip
 259 01a6 1360     		str	r3, [r2]
 116:Source\FilteringFunctions/arm_conv_opt_q15.c **** 
 117:Source\FilteringFunctions/arm_conv_opt_q15.c ****     /* Initialization of inputB pointer */
 118:Source\FilteringFunctions/arm_conv_opt_q15.c ****     pIn2 = pSrcA;
 260              		.loc 1 118 0
 261 01a8 A423     		mov	r3, #164
 262 01aa 0822     		mov	r2, #8
 263 01ac 9446     		mov	ip, r2
 264 01ae 0822     		mov	r2, #8
 265 01b0 9046     		mov	r8, r2
 266 01b2 B844     		add	r8, r8, r7
 267 01b4 C444     		add	ip, ip, r8
 268 01b6 6344     		add	r3, r3, ip
 269 01b8 1B68     		ldr	r3, [r3]
 270 01ba 9222     		mov	r2, #146
 271 01bc 5200     		lsl	r2, r2, #1
 272 01be 9821     		mov	r1, #152
 273 01c0 8C46     		mov	ip, r1
 274 01c2 0821     		mov	r1, #8
 275 01c4 8846     		mov	r8, r1
 276 01c6 0821     		mov	r1, #8
 277 01c8 8946     		mov	r9, r1
 278 01ca B944     		add	r9, r9, r7
 279 01cc C844     		add	r8, r8, r9
 280 01ce C444     		add	ip, ip, r8
 281 01d0 6244     		add	r2, r2, ip
ARM GAS  C:\Users\fneves\AppData\Local\Temp\cc8Kqy5I.s 			page 8


 282 01d2 1360     		str	r3, [r2]
 119:Source\FilteringFunctions/arm_conv_opt_q15.c **** 
 120:Source\FilteringFunctions/arm_conv_opt_q15.c ****     /* srcBLen is always considered as shorter or equal to srcALen */
 121:Source\FilteringFunctions/arm_conv_opt_q15.c ****     j = srcBLen;
 283              		.loc 1 121 0
 284 01d4 9823     		mov	r3, #152
 285 01d6 0822     		mov	r2, #8
 286 01d8 9446     		mov	ip, r2
 287 01da 0822     		mov	r2, #8
 288 01dc 9046     		mov	r8, r2
 289 01de B844     		add	r8, r8, r7
 290 01e0 C444     		add	ip, ip, r8
 291 01e2 6344     		add	r3, r3, ip
 292 01e4 1B68     		ldr	r3, [r3]
 293 01e6 8822     		mov	r2, #136
 294 01e8 5200     		lsl	r2, r2, #1
 295 01ea 9821     		mov	r1, #152
 296 01ec 8C46     		mov	ip, r1
 297 01ee 0821     		mov	r1, #8
 298 01f0 8846     		mov	r8, r1
 299 01f2 0821     		mov	r1, #8
 300 01f4 8946     		mov	r9, r1
 301 01f6 B944     		add	r9, r9, r7
 302 01f8 C844     		add	r8, r8, r9
 303 01fa C444     		add	ip, ip, r8
 304 01fc 6244     		add	r2, r2, ip
 305 01fe 1360     		str	r3, [r2]
 122:Source\FilteringFunctions/arm_conv_opt_q15.c ****     srcBLen = srcALen;
 306              		.loc 1 122 0
 307 0200 A023     		mov	r3, #160
 308 0202 0822     		mov	r2, #8
 309 0204 9446     		mov	ip, r2
 310 0206 0822     		mov	r2, #8
 311 0208 9046     		mov	r8, r2
 312 020a B844     		add	r8, r8, r7
 313 020c C444     		add	ip, ip, r8
 314 020e 6344     		add	r3, r3, ip
 315 0210 1B68     		ldr	r3, [r3]
 316 0212 9822     		mov	r2, #152
 317 0214 0821     		mov	r1, #8
 318 0216 8C46     		mov	ip, r1
 319 0218 0821     		mov	r1, #8
 320 021a 8846     		mov	r8, r1
 321 021c B844     		add	r8, r8, r7
 322 021e C444     		add	ip, ip, r8
 323 0220 6244     		add	r2, r2, ip
 324 0222 1360     		str	r3, [r2]
 123:Source\FilteringFunctions/arm_conv_opt_q15.c ****     srcALen = j;
 325              		.loc 1 123 0
 326 0224 8823     		mov	r3, #136
 327 0226 5B00     		lsl	r3, r3, #1
 328 0228 9822     		mov	r2, #152
 329 022a 9446     		mov	ip, r2
 330 022c 0822     		mov	r2, #8
 331 022e 9046     		mov	r8, r2
 332 0230 0822     		mov	r2, #8
 333 0232 9146     		mov	r9, r2
ARM GAS  C:\Users\fneves\AppData\Local\Temp\cc8Kqy5I.s 			page 9


 334 0234 B944     		add	r9, r9, r7
 335 0236 C844     		add	r8, r8, r9
 336 0238 C444     		add	ip, ip, r8
 337 023a 6344     		add	r3, r3, ip
 338 023c 1B68     		ldr	r3, [r3]
 339 023e A022     		mov	r2, #160
 340 0240 0821     		mov	r1, #8
 341 0242 8C46     		mov	ip, r1
 342 0244 0821     		mov	r1, #8
 343 0246 8846     		mov	r8, r1
 344 0248 B844     		add	r8, r8, r7
 345 024a C444     		add	ip, ip, r8
 346 024c 6244     		add	r2, r2, ip
 347 024e 1360     		str	r3, [r2]
 348              	.L3:
 124:Source\FilteringFunctions/arm_conv_opt_q15.c ****   }
 125:Source\FilteringFunctions/arm_conv_opt_q15.c **** 
 126:Source\FilteringFunctions/arm_conv_opt_q15.c ****   /* pointer to take end of scratch2 buffer */
 127:Source\FilteringFunctions/arm_conv_opt_q15.c ****   pScr2 = pScratch2 + srcBLen - 1;
 349              		.loc 1 127 0
 350 0250 9823     		mov	r3, #152
 351 0252 0822     		mov	r2, #8
 352 0254 9446     		mov	ip, r2
 353 0256 0822     		mov	r2, #8
 354 0258 9046     		mov	r8, r2
 355 025a B844     		add	r8, r8, r7
 356 025c C444     		add	ip, ip, r8
 357 025e 6344     		add	r3, r3, ip
 358 0260 1B68     		ldr	r3, [r3]
 359 0262 2B4A     		ldr	r2, .L63+4
 360 0264 9446     		mov	ip, r2
 361 0266 6344     		add	r3, r3, ip
 362 0268 5A00     		lsl	r2, r3, #1
 363 026a BC23     		mov	r3, #188
 364 026c 5B00     		lsl	r3, r3, #1
 365 026e 9821     		mov	r1, #152
 366 0270 8C46     		mov	ip, r1
 367 0272 0821     		mov	r1, #8
 368 0274 8846     		mov	r8, r1
 369 0276 0821     		mov	r1, #8
 370 0278 8946     		mov	r9, r1
 371 027a 0821     		mov	r1, #8
 372 027c 8A46     		mov	r10, r1
 373 027e BA44     		add	r10, r10, r7
 374 0280 D144     		add	r9, r9, r10
 375 0282 C844     		add	r8, r8, r9
 376 0284 C444     		add	ip, ip, r8
 377 0286 6344     		add	r3, r3, ip
 378 0288 1B68     		ldr	r3, [r3]
 379 028a 9B18     		add	r3, r3, r2
 380 028c 9622     		mov	r2, #150
 381 028e 5200     		lsl	r2, r2, #1
 382 0290 9821     		mov	r1, #152
 383 0292 8C46     		mov	ip, r1
 384 0294 0821     		mov	r1, #8
 385 0296 8846     		mov	r8, r1
 386 0298 0821     		mov	r1, #8
ARM GAS  C:\Users\fneves\AppData\Local\Temp\cc8Kqy5I.s 			page 10


 387 029a 8946     		mov	r9, r1
 388 029c B944     		add	r9, r9, r7
 389 029e C844     		add	r8, r8, r9
 390 02a0 C444     		add	ip, ip, r8
 391 02a2 6244     		add	r2, r2, ip
 392 02a4 1360     		str	r3, [r2]
 128:Source\FilteringFunctions/arm_conv_opt_q15.c **** 
 129:Source\FilteringFunctions/arm_conv_opt_q15.c ****   /* points to smaller length sequence */
 130:Source\FilteringFunctions/arm_conv_opt_q15.c ****   px = pIn2;
 393              		.loc 1 130 0
 394 02a6 9223     		mov	r3, #146
 395 02a8 5B00     		lsl	r3, r3, #1
 396 02aa 9822     		mov	r2, #152
 397 02ac 9446     		mov	ip, r2
 398 02ae 0822     		mov	r2, #8
 399 02b0 9046     		mov	r8, r2
 400 02b2 0822     		mov	r2, #8
 401 02b4 9146     		mov	r9, r2
 402 02b6 B944     		add	r9, r9, r7
 403 02b8 C844     		add	r8, r8, r9
 404 02ba C444     		add	ip, ip, r8
 405 02bc 6344     		add	r3, r3, ip
 406 02be 1B68     		ldr	r3, [r3]
 407 02c0 9022     		mov	r2, #144
 408 02c2 5200     		lsl	r2, r2, #1
 409 02c4 9821     		mov	r1, #152
 410 02c6 8C46     		mov	ip, r1
 411 02c8 0821     		mov	r1, #8
 412 02ca 8846     		mov	r8, r1
 413 02cc 0821     		mov	r1, #8
 414 02ce 8946     		mov	r9, r1
 415 02d0 B944     		add	r9, r9, r7
 416 02d2 C844     		add	r8, r8, r9
 417 02d4 C444     		add	ip, ip, r8
 418 02d6 6244     		add	r2, r2, ip
 419 02d8 1360     		str	r3, [r2]
 131:Source\FilteringFunctions/arm_conv_opt_q15.c **** 
 132:Source\FilteringFunctions/arm_conv_opt_q15.c ****   /* Apply loop unrolling and do 4 Copies simultaneously. */
 133:Source\FilteringFunctions/arm_conv_opt_q15.c ****   k = srcBLen >> 2u;
 420              		.loc 1 133 0
 421 02da 9823     		mov	r3, #152
 422 02dc 0822     		mov	r2, #8
 423 02de 9446     		mov	ip, r2
 424 02e0 0822     		mov	r2, #8
 425 02e2 9046     		mov	r8, r2
 426 02e4 B844     		add	r8, r8, r7
 427 02e6 C444     		add	ip, ip, r8
 428 02e8 6344     		add	r3, r3, ip
 429 02ea 1B68     		ldr	r3, [r3]
 430 02ec 9B08     		lsr	r3, r3, #2
 431 02ee 8E22     		mov	r2, #142
 432 02f0 5200     		lsl	r2, r2, #1
 433 02f2 9821     		mov	r1, #152
 434 02f4 8C46     		mov	ip, r1
 435 02f6 0821     		mov	r1, #8
 436 02f8 8846     		mov	r8, r1
 437 02fa 0821     		mov	r1, #8
ARM GAS  C:\Users\fneves\AppData\Local\Temp\cc8Kqy5I.s 			page 11


 438 02fc 8946     		mov	r9, r1
 439 02fe B944     		add	r9, r9, r7
 440 0300 C844     		add	r8, r8, r9
 441 0302 C444     		add	ip, ip, r8
 442 0304 6244     		add	r2, r2, ip
 443 0306 1360     		str	r3, [r2]
 134:Source\FilteringFunctions/arm_conv_opt_q15.c **** 
 135:Source\FilteringFunctions/arm_conv_opt_q15.c ****   /* First part of the processing with loop unrolling copies 4 data points at a time.
 136:Source\FilteringFunctions/arm_conv_opt_q15.c ****    ** a second loop below copies for the remaining 1 to 3 samples. */
 137:Source\FilteringFunctions/arm_conv_opt_q15.c ****   /* Copy smaller length input sequence in reverse order into second scratch buffer */
 138:Source\FilteringFunctions/arm_conv_opt_q15.c ****   while (k > 0u)
 444              		.loc 1 138 0
 445 0308 FFE0     		b	.L4
 446              	.L64:
 447 030a C046     		.align	2
 448              	.L63:
 449 030c 00FEFFFF 		.word	-512
 450 0310 FFFFFF7F 		.word	2147483647
 451              	.L5:
 139:Source\FilteringFunctions/arm_conv_opt_q15.c ****   {
 140:Source\FilteringFunctions/arm_conv_opt_q15.c ****     /* copy second buffer in reversal manner */
 141:Source\FilteringFunctions/arm_conv_opt_q15.c ****     *pScr2-- = *px++;
 452              		.loc 1 141 0
 453 0314 9623     		mov	r3, #150
 454 0316 5B00     		lsl	r3, r3, #1
 455 0318 9822     		mov	r2, #152
 456 031a 9446     		mov	ip, r2
 457 031c 0822     		mov	r2, #8
 458 031e 9046     		mov	r8, r2
 459 0320 0822     		mov	r2, #8
 460 0322 9146     		mov	r9, r2
 461 0324 B944     		add	r9, r9, r7
 462 0326 C844     		add	r8, r8, r9
 463 0328 C444     		add	ip, ip, r8
 464 032a 6344     		add	r3, r3, ip
 465 032c 1968     		ldr	r1, [r3]
 466 032e 8B1E     		sub	r3, r1, #2
 467 0330 9622     		mov	r2, #150
 468 0332 5200     		lsl	r2, r2, #1
 469 0334 9820     		mov	r0, #152
 470 0336 8446     		mov	ip, r0
 471 0338 0820     		mov	r0, #8
 472 033a 8046     		mov	r8, r0
 473 033c 0820     		mov	r0, #8
 474 033e 8146     		mov	r9, r0
 475 0340 B944     		add	r9, r9, r7
 476 0342 C844     		add	r8, r8, r9
 477 0344 C444     		add	ip, ip, r8
 478 0346 6244     		add	r2, r2, ip
 479 0348 1360     		str	r3, [r2]
 480 034a 9023     		mov	r3, #144
 481 034c 5B00     		lsl	r3, r3, #1
 482 034e 9822     		mov	r2, #152
 483 0350 9446     		mov	ip, r2
 484 0352 0822     		mov	r2, #8
 485 0354 9046     		mov	r8, r2
 486 0356 0822     		mov	r2, #8
ARM GAS  C:\Users\fneves\AppData\Local\Temp\cc8Kqy5I.s 			page 12


 487 0358 9146     		mov	r9, r2
 488 035a B944     		add	r9, r9, r7
 489 035c C844     		add	r8, r8, r9
 490 035e C444     		add	ip, ip, r8
 491 0360 6344     		add	r3, r3, ip
 492 0362 1A68     		ldr	r2, [r3]
 493 0364 931C     		add	r3, r2, #2
 494 0366 9020     		mov	r0, #144
 495 0368 4000     		lsl	r0, r0, #1
 496 036a 9824     		mov	r4, #152
 497 036c A446     		mov	ip, r4
 498 036e 0824     		mov	r4, #8
 499 0370 A046     		mov	r8, r4
 500 0372 0824     		mov	r4, #8
 501 0374 A146     		mov	r9, r4
 502 0376 B944     		add	r9, r9, r7
 503 0378 C844     		add	r8, r8, r9
 504 037a C444     		add	ip, ip, r8
 505 037c 6044     		add	r0, r0, ip
 506 037e 0360     		str	r3, [r0]
 507 0380 1388     		ldrh	r3, [r2]
 508 0382 0B80     		strh	r3, [r1]
 142:Source\FilteringFunctions/arm_conv_opt_q15.c ****     *pScr2-- = *px++;
 509              		.loc 1 142 0
 510 0384 9623     		mov	r3, #150
 511 0386 5B00     		lsl	r3, r3, #1
 512 0388 9822     		mov	r2, #152
 513 038a 9446     		mov	ip, r2
 514 038c 0822     		mov	r2, #8
 515 038e 9046     		mov	r8, r2
 516 0390 0822     		mov	r2, #8
 517 0392 9146     		mov	r9, r2
 518 0394 B944     		add	r9, r9, r7
 519 0396 C844     		add	r8, r8, r9
 520 0398 C444     		add	ip, ip, r8
 521 039a 6344     		add	r3, r3, ip
 522 039c 1968     		ldr	r1, [r3]
 523 039e 8B1E     		sub	r3, r1, #2
 524 03a0 9622     		mov	r2, #150
 525 03a2 5200     		lsl	r2, r2, #1
 526 03a4 9820     		mov	r0, #152
 527 03a6 8446     		mov	ip, r0
 528 03a8 0820     		mov	r0, #8
 529 03aa 8046     		mov	r8, r0
 530 03ac 0820     		mov	r0, #8
 531 03ae 8146     		mov	r9, r0
 532 03b0 B944     		add	r9, r9, r7
 533 03b2 C844     		add	r8, r8, r9
 534 03b4 C444     		add	ip, ip, r8
 535 03b6 6244     		add	r2, r2, ip
 536 03b8 1360     		str	r3, [r2]
 537 03ba 9023     		mov	r3, #144
 538 03bc 5B00     		lsl	r3, r3, #1
 539 03be 9822     		mov	r2, #152
 540 03c0 9446     		mov	ip, r2
 541 03c2 0822     		mov	r2, #8
 542 03c4 9046     		mov	r8, r2
ARM GAS  C:\Users\fneves\AppData\Local\Temp\cc8Kqy5I.s 			page 13


 543 03c6 0822     		mov	r2, #8
 544 03c8 9146     		mov	r9, r2
 545 03ca B944     		add	r9, r9, r7
 546 03cc C844     		add	r8, r8, r9
 547 03ce C444     		add	ip, ip, r8
 548 03d0 6344     		add	r3, r3, ip
 549 03d2 1A68     		ldr	r2, [r3]
 550 03d4 931C     		add	r3, r2, #2
 551 03d6 9020     		mov	r0, #144
 552 03d8 4000     		lsl	r0, r0, #1
 553 03da 9824     		mov	r4, #152
 554 03dc A446     		mov	ip, r4
 555 03de 0824     		mov	r4, #8
 556 03e0 A046     		mov	r8, r4
 557 03e2 0824     		mov	r4, #8
 558 03e4 A146     		mov	r9, r4
 559 03e6 B944     		add	r9, r9, r7
 560 03e8 C844     		add	r8, r8, r9
 561 03ea C444     		add	ip, ip, r8
 562 03ec 6044     		add	r0, r0, ip
 563 03ee 0360     		str	r3, [r0]
 564 03f0 1388     		ldrh	r3, [r2]
 565 03f2 0B80     		strh	r3, [r1]
 143:Source\FilteringFunctions/arm_conv_opt_q15.c ****     *pScr2-- = *px++;
 566              		.loc 1 143 0
 567 03f4 9623     		mov	r3, #150
 568 03f6 5B00     		lsl	r3, r3, #1
 569 03f8 9822     		mov	r2, #152
 570 03fa 9446     		mov	ip, r2
 571 03fc 0822     		mov	r2, #8
 572 03fe 9046     		mov	r8, r2
 573 0400 0822     		mov	r2, #8
 574 0402 9146     		mov	r9, r2
 575 0404 B944     		add	r9, r9, r7
 576 0406 C844     		add	r8, r8, r9
 577 0408 C444     		add	ip, ip, r8
 578 040a 6344     		add	r3, r3, ip
 579 040c 1968     		ldr	r1, [r3]
 580 040e 8B1E     		sub	r3, r1, #2
 581 0410 9622     		mov	r2, #150
 582 0412 5200     		lsl	r2, r2, #1
 583 0414 9820     		mov	r0, #152
 584 0416 8446     		mov	ip, r0
 585 0418 0820     		mov	r0, #8
 586 041a 8046     		mov	r8, r0
 587 041c 0820     		mov	r0, #8
 588 041e 8146     		mov	r9, r0
 589 0420 B944     		add	r9, r9, r7
 590 0422 C844     		add	r8, r8, r9
 591 0424 C444     		add	ip, ip, r8
 592 0426 6244     		add	r2, r2, ip
 593 0428 1360     		str	r3, [r2]
 594 042a 9023     		mov	r3, #144
 595 042c 5B00     		lsl	r3, r3, #1
 596 042e 9822     		mov	r2, #152
 597 0430 9446     		mov	ip, r2
 598 0432 0822     		mov	r2, #8
ARM GAS  C:\Users\fneves\AppData\Local\Temp\cc8Kqy5I.s 			page 14


 599 0434 9046     		mov	r8, r2
 600 0436 0822     		mov	r2, #8
 601 0438 9146     		mov	r9, r2
 602 043a B944     		add	r9, r9, r7
 603 043c C844     		add	r8, r8, r9
 604 043e C444     		add	ip, ip, r8
 605 0440 6344     		add	r3, r3, ip
 606 0442 1A68     		ldr	r2, [r3]
 607 0444 931C     		add	r3, r2, #2
 608 0446 9020     		mov	r0, #144
 609 0448 4000     		lsl	r0, r0, #1
 610 044a 9824     		mov	r4, #152
 611 044c A446     		mov	ip, r4
 612 044e 0824     		mov	r4, #8
 613 0450 A046     		mov	r8, r4
 614 0452 0824     		mov	r4, #8
 615 0454 A146     		mov	r9, r4
 616 0456 B944     		add	r9, r9, r7
 617 0458 C844     		add	r8, r8, r9
 618 045a C444     		add	ip, ip, r8
 619 045c 6044     		add	r0, r0, ip
 620 045e 0360     		str	r3, [r0]
 621 0460 1388     		ldrh	r3, [r2]
 622 0462 0B80     		strh	r3, [r1]
 144:Source\FilteringFunctions/arm_conv_opt_q15.c ****     *pScr2-- = *px++;
 623              		.loc 1 144 0
 624 0464 9623     		mov	r3, #150
 625 0466 5B00     		lsl	r3, r3, #1
 626 0468 9822     		mov	r2, #152
 627 046a 9446     		mov	ip, r2
 628 046c 0822     		mov	r2, #8
 629 046e 9046     		mov	r8, r2
 630 0470 0822     		mov	r2, #8
 631 0472 9146     		mov	r9, r2
 632 0474 B944     		add	r9, r9, r7
 633 0476 C844     		add	r8, r8, r9
 634 0478 C444     		add	ip, ip, r8
 635 047a 6344     		add	r3, r3, ip
 636 047c 1968     		ldr	r1, [r3]
 637 047e 8B1E     		sub	r3, r1, #2
 638 0480 9622     		mov	r2, #150
 639 0482 5200     		lsl	r2, r2, #1
 640 0484 9820     		mov	r0, #152
 641 0486 8446     		mov	ip, r0
 642 0488 0820     		mov	r0, #8
 643 048a 8046     		mov	r8, r0
 644 048c 0820     		mov	r0, #8
 645 048e 8146     		mov	r9, r0
 646 0490 B944     		add	r9, r9, r7
 647 0492 C844     		add	r8, r8, r9
 648 0494 C444     		add	ip, ip, r8
 649 0496 6244     		add	r2, r2, ip
 650 0498 1360     		str	r3, [r2]
 651 049a 9023     		mov	r3, #144
 652 049c 5B00     		lsl	r3, r3, #1
 653 049e 9822     		mov	r2, #152
 654 04a0 9446     		mov	ip, r2
ARM GAS  C:\Users\fneves\AppData\Local\Temp\cc8Kqy5I.s 			page 15


 655 04a2 0822     		mov	r2, #8
 656 04a4 9046     		mov	r8, r2
 657 04a6 0822     		mov	r2, #8
 658 04a8 9146     		mov	r9, r2
 659 04aa B944     		add	r9, r9, r7
 660 04ac C844     		add	r8, r8, r9
 661 04ae C444     		add	ip, ip, r8
 662 04b0 6344     		add	r3, r3, ip
 663 04b2 1A68     		ldr	r2, [r3]
 664 04b4 931C     		add	r3, r2, #2
 665 04b6 9020     		mov	r0, #144
 666 04b8 4000     		lsl	r0, r0, #1
 667 04ba 9824     		mov	r4, #152
 668 04bc A446     		mov	ip, r4
 669 04be 0824     		mov	r4, #8
 670 04c0 A046     		mov	r8, r4
 671 04c2 0824     		mov	r4, #8
 672 04c4 A146     		mov	r9, r4
 673 04c6 B944     		add	r9, r9, r7
 674 04c8 C844     		add	r8, r8, r9
 675 04ca C444     		add	ip, ip, r8
 676 04cc 6044     		add	r0, r0, ip
 677 04ce 0360     		str	r3, [r0]
 678 04d0 1388     		ldrh	r3, [r2]
 679 04d2 0B80     		strh	r3, [r1]
 145:Source\FilteringFunctions/arm_conv_opt_q15.c **** 
 146:Source\FilteringFunctions/arm_conv_opt_q15.c ****     /* Decrement the loop counter */
 147:Source\FilteringFunctions/arm_conv_opt_q15.c ****     k--;
 680              		.loc 1 147 0
 681 04d4 8E23     		mov	r3, #142
 682 04d6 5B00     		lsl	r3, r3, #1
 683 04d8 9822     		mov	r2, #152
 684 04da 9446     		mov	ip, r2
 685 04dc 0822     		mov	r2, #8
 686 04de 9046     		mov	r8, r2
 687 04e0 0822     		mov	r2, #8
 688 04e2 9146     		mov	r9, r2
 689 04e4 B944     		add	r9, r9, r7
 690 04e6 C844     		add	r8, r8, r9
 691 04e8 C444     		add	ip, ip, r8
 692 04ea 6344     		add	r3, r3, ip
 693 04ec 1B68     		ldr	r3, [r3]
 694 04ee 013B     		sub	r3, r3, #1
 695 04f0 8E22     		mov	r2, #142
 696 04f2 5200     		lsl	r2, r2, #1
 697 04f4 9821     		mov	r1, #152
 698 04f6 8C46     		mov	ip, r1
 699 04f8 0821     		mov	r1, #8
 700 04fa 8846     		mov	r8, r1
 701 04fc 0821     		mov	r1, #8
 702 04fe 8946     		mov	r9, r1
 703 0500 B944     		add	r9, r9, r7
 704 0502 C844     		add	r8, r8, r9
 705 0504 C444     		add	ip, ip, r8
 706 0506 6244     		add	r2, r2, ip
 707 0508 1360     		str	r3, [r2]
 708              	.L4:
ARM GAS  C:\Users\fneves\AppData\Local\Temp\cc8Kqy5I.s 			page 16


 138:Source\FilteringFunctions/arm_conv_opt_q15.c ****   {
 709              		.loc 1 138 0
 710 050a 8E23     		mov	r3, #142
 711 050c 5B00     		lsl	r3, r3, #1
 712 050e 9822     		mov	r2, #152
 713 0510 9446     		mov	ip, r2
 714 0512 0822     		mov	r2, #8
 715 0514 9046     		mov	r8, r2
 716 0516 0822     		mov	r2, #8
 717 0518 9146     		mov	r9, r2
 718 051a B944     		add	r9, r9, r7
 719 051c C844     		add	r8, r8, r9
 720 051e C444     		add	ip, ip, r8
 721 0520 6344     		add	r3, r3, ip
 722 0522 1B68     		ldr	r3, [r3]
 723 0524 002B     		cmp	r3, #0
 724 0526 00D0     		beq	.LCB687
 725 0528 F4E6     		b	.L5	@long jump
 726              	.LCB687:
 148:Source\FilteringFunctions/arm_conv_opt_q15.c ****   }
 149:Source\FilteringFunctions/arm_conv_opt_q15.c **** 
 150:Source\FilteringFunctions/arm_conv_opt_q15.c ****   /* If the count is not a multiple of 4, copy remaining samples here.
 151:Source\FilteringFunctions/arm_conv_opt_q15.c ****    ** No loop unrolling is used. */
 152:Source\FilteringFunctions/arm_conv_opt_q15.c ****   k = srcBLen % 0x4u;
 727              		.loc 1 152 0
 728 052a 9823     		mov	r3, #152
 729 052c 0822     		mov	r2, #8
 730 052e 9446     		mov	ip, r2
 731 0530 0822     		mov	r2, #8
 732 0532 9046     		mov	r8, r2
 733 0534 B844     		add	r8, r8, r7
 734 0536 C444     		add	ip, ip, r8
 735 0538 6344     		add	r3, r3, ip
 736 053a 1A68     		ldr	r2, [r3]
 737 053c 0323     		mov	r3, #3
 738 053e 1340     		and	r3, r2
 739 0540 8E22     		mov	r2, #142
 740 0542 5200     		lsl	r2, r2, #1
 741 0544 9821     		mov	r1, #152
 742 0546 8C46     		mov	ip, r1
 743 0548 0821     		mov	r1, #8
 744 054a 8846     		mov	r8, r1
 745 054c 0821     		mov	r1, #8
 746 054e 8946     		mov	r9, r1
 747 0550 B944     		add	r9, r9, r7
 748 0552 C844     		add	r8, r8, r9
 749 0554 C444     		add	ip, ip, r8
 750 0556 6244     		add	r2, r2, ip
 751 0558 1360     		str	r3, [r2]
 153:Source\FilteringFunctions/arm_conv_opt_q15.c **** 
 154:Source\FilteringFunctions/arm_conv_opt_q15.c ****   while (k > 0u)
 752              		.loc 1 154 0
 753 055a 52E0     		b	.L6
 754              	.L7:
 155:Source\FilteringFunctions/arm_conv_opt_q15.c ****   {
 156:Source\FilteringFunctions/arm_conv_opt_q15.c ****     /* copy second buffer in reversal manner for remaining samples */
 157:Source\FilteringFunctions/arm_conv_opt_q15.c ****     *pScr2-- = *px++;
ARM GAS  C:\Users\fneves\AppData\Local\Temp\cc8Kqy5I.s 			page 17


 755              		.loc 1 157 0
 756 055c 9623     		mov	r3, #150
 757 055e 5B00     		lsl	r3, r3, #1
 758 0560 9822     		mov	r2, #152
 759 0562 9446     		mov	ip, r2
 760 0564 0822     		mov	r2, #8
 761 0566 9046     		mov	r8, r2
 762 0568 0822     		mov	r2, #8
 763 056a 9146     		mov	r9, r2
 764 056c B944     		add	r9, r9, r7
 765 056e C844     		add	r8, r8, r9
 766 0570 C444     		add	ip, ip, r8
 767 0572 6344     		add	r3, r3, ip
 768 0574 1968     		ldr	r1, [r3]
 769 0576 8B1E     		sub	r3, r1, #2
 770 0578 9622     		mov	r2, #150
 771 057a 5200     		lsl	r2, r2, #1
 772 057c 9820     		mov	r0, #152
 773 057e 8446     		mov	ip, r0
 774 0580 0820     		mov	r0, #8
 775 0582 8046     		mov	r8, r0
 776 0584 0820     		mov	r0, #8
 777 0586 8146     		mov	r9, r0
 778 0588 B944     		add	r9, r9, r7
 779 058a C844     		add	r8, r8, r9
 780 058c C444     		add	ip, ip, r8
 781 058e 6244     		add	r2, r2, ip
 782 0590 1360     		str	r3, [r2]
 783 0592 9023     		mov	r3, #144
 784 0594 5B00     		lsl	r3, r3, #1
 785 0596 9822     		mov	r2, #152
 786 0598 9446     		mov	ip, r2
 787 059a 0822     		mov	r2, #8
 788 059c 9046     		mov	r8, r2
 789 059e 0822     		mov	r2, #8
 790 05a0 9146     		mov	r9, r2
 791 05a2 B944     		add	r9, r9, r7
 792 05a4 C844     		add	r8, r8, r9
 793 05a6 C444     		add	ip, ip, r8
 794 05a8 6344     		add	r3, r3, ip
 795 05aa 1A68     		ldr	r2, [r3]
 796 05ac 931C     		add	r3, r2, #2
 797 05ae 9020     		mov	r0, #144
 798 05b0 4000     		lsl	r0, r0, #1
 799 05b2 9824     		mov	r4, #152
 800 05b4 A446     		mov	ip, r4
 801 05b6 0824     		mov	r4, #8
 802 05b8 A046     		mov	r8, r4
 803 05ba 0824     		mov	r4, #8
 804 05bc A146     		mov	r9, r4
 805 05be B944     		add	r9, r9, r7
 806 05c0 C844     		add	r8, r8, r9
 807 05c2 C444     		add	ip, ip, r8
 808 05c4 6044     		add	r0, r0, ip
 809 05c6 0360     		str	r3, [r0]
 810 05c8 1388     		ldrh	r3, [r2]
 811 05ca 0B80     		strh	r3, [r1]
ARM GAS  C:\Users\fneves\AppData\Local\Temp\cc8Kqy5I.s 			page 18


 158:Source\FilteringFunctions/arm_conv_opt_q15.c **** 
 159:Source\FilteringFunctions/arm_conv_opt_q15.c ****     /* Decrement the loop counter */
 160:Source\FilteringFunctions/arm_conv_opt_q15.c ****     k--;
 812              		.loc 1 160 0
 813 05cc 8E23     		mov	r3, #142
 814 05ce 5B00     		lsl	r3, r3, #1
 815 05d0 9822     		mov	r2, #152
 816 05d2 9446     		mov	ip, r2
 817 05d4 0822     		mov	r2, #8
 818 05d6 9046     		mov	r8, r2
 819 05d8 0822     		mov	r2, #8
 820 05da 9146     		mov	r9, r2
 821 05dc B944     		add	r9, r9, r7
 822 05de C844     		add	r8, r8, r9
 823 05e0 C444     		add	ip, ip, r8
 824 05e2 6344     		add	r3, r3, ip
 825 05e4 1B68     		ldr	r3, [r3]
 826 05e6 013B     		sub	r3, r3, #1
 827 05e8 8E22     		mov	r2, #142
 828 05ea 5200     		lsl	r2, r2, #1
 829 05ec 9821     		mov	r1, #152
 830 05ee 8C46     		mov	ip, r1
 831 05f0 0821     		mov	r1, #8
 832 05f2 8846     		mov	r8, r1
 833 05f4 0821     		mov	r1, #8
 834 05f6 8946     		mov	r9, r1
 835 05f8 B944     		add	r9, r9, r7
 836 05fa C844     		add	r8, r8, r9
 837 05fc C444     		add	ip, ip, r8
 838 05fe 6244     		add	r2, r2, ip
 839 0600 1360     		str	r3, [r2]
 840              	.L6:
 154:Source\FilteringFunctions/arm_conv_opt_q15.c ****   {
 841              		.loc 1 154 0
 842 0602 8E23     		mov	r3, #142
 843 0604 5B00     		lsl	r3, r3, #1
 844 0606 9822     		mov	r2, #152
 845 0608 9446     		mov	ip, r2
 846 060a 0822     		mov	r2, #8
 847 060c 9046     		mov	r8, r2
 848 060e 0822     		mov	r2, #8
 849 0610 9146     		mov	r9, r2
 850 0612 B944     		add	r9, r9, r7
 851 0614 C844     		add	r8, r8, r9
 852 0616 C444     		add	ip, ip, r8
 853 0618 6344     		add	r3, r3, ip
 854 061a 1B68     		ldr	r3, [r3]
 855 061c 002B     		cmp	r3, #0
 856 061e 9DD1     		bne	.L7
 161:Source\FilteringFunctions/arm_conv_opt_q15.c ****   }
 162:Source\FilteringFunctions/arm_conv_opt_q15.c **** 
 163:Source\FilteringFunctions/arm_conv_opt_q15.c ****   /* Initialze temporary scratch pointer */
 164:Source\FilteringFunctions/arm_conv_opt_q15.c ****   pScr1 = pScratch1;
 857              		.loc 1 164 0
 858 0620 BA23     		mov	r3, #186
 859 0622 5B00     		lsl	r3, r3, #1
 860 0624 9822     		mov	r2, #152
ARM GAS  C:\Users\fneves\AppData\Local\Temp\cc8Kqy5I.s 			page 19


 861 0626 9446     		mov	ip, r2
 862 0628 0822     		mov	r2, #8
 863 062a 9046     		mov	r8, r2
 864 062c 0822     		mov	r2, #8
 865 062e 9146     		mov	r9, r2
 866 0630 0822     		mov	r2, #8
 867 0632 9246     		mov	r10, r2
 868 0634 BA44     		add	r10, r10, r7
 869 0636 D144     		add	r9, r9, r10
 870 0638 C844     		add	r8, r8, r9
 871 063a C444     		add	ip, ip, r8
 872 063c 6344     		add	r3, r3, ip
 873 063e 1B68     		ldr	r3, [r3]
 874 0640 AC22     		mov	r2, #172
 875 0642 0821     		mov	r1, #8
 876 0644 8C46     		mov	ip, r1
 877 0646 0821     		mov	r1, #8
 878 0648 8846     		mov	r8, r1
 879 064a B844     		add	r8, r8, r7
 880 064c C444     		add	ip, ip, r8
 881 064e 6244     		add	r2, r2, ip
 882 0650 1360     		str	r3, [r2]
 165:Source\FilteringFunctions/arm_conv_opt_q15.c **** 
 166:Source\FilteringFunctions/arm_conv_opt_q15.c ****   /* Assuming scratch1 buffer is aligned by 32-bit */
 167:Source\FilteringFunctions/arm_conv_opt_q15.c ****   /* Fill (srcBLen - 1u) zeros in scratch buffer */
 168:Source\FilteringFunctions/arm_conv_opt_q15.c ****   arm_fill_q15(0, pScr1, (srcBLen - 1u));
 883              		.loc 1 168 0
 884 0652 AC23     		mov	r3, #172
 885 0654 0822     		mov	r2, #8
 886 0656 9446     		mov	ip, r2
 887 0658 0822     		mov	r2, #8
 888 065a 9046     		mov	r8, r2
 889 065c B844     		add	r8, r8, r7
 890 065e C444     		add	ip, ip, r8
 891 0660 6344     		add	r3, r3, ip
 892 0662 1A68     		ldr	r2, [r3]
 893 0664 9823     		mov	r3, #152
 894 0666 0821     		mov	r1, #8
 895 0668 8C46     		mov	ip, r1
 896 066a 0821     		mov	r1, #8
 897 066c 8846     		mov	r8, r1
 898 066e B844     		add	r8, r8, r7
 899 0670 C444     		add	ip, ip, r8
 900 0672 6344     		add	r3, r3, ip
 901 0674 1B68     		ldr	r3, [r3]
 902 0676 013B     		sub	r3, r3, #1
 903 0678 0020     		mov	r0, #0
 904 067a 111C     		mov	r1, r2
 905 067c 1A1C     		mov	r2, r3
 906 067e FFF7FEFF 		bl	arm_fill_q15
 169:Source\FilteringFunctions/arm_conv_opt_q15.c **** 
 170:Source\FilteringFunctions/arm_conv_opt_q15.c ****   /* Update temporary scratch pointer */
 171:Source\FilteringFunctions/arm_conv_opt_q15.c ****   pScr1 += (srcBLen - 1u);
 907              		.loc 1 171 0
 908 0682 AC23     		mov	r3, #172
 909 0684 0822     		mov	r2, #8
 910 0686 9446     		mov	ip, r2
ARM GAS  C:\Users\fneves\AppData\Local\Temp\cc8Kqy5I.s 			page 20


 911 0688 0822     		mov	r2, #8
 912 068a 9046     		mov	r8, r2
 913 068c B844     		add	r8, r8, r7
 914 068e C444     		add	ip, ip, r8
 915 0690 6344     		add	r3, r3, ip
 916 0692 1A68     		ldr	r2, [r3]
 917 0694 9823     		mov	r3, #152
 918 0696 0821     		mov	r1, #8
 919 0698 8C46     		mov	ip, r1
 920 069a 0821     		mov	r1, #8
 921 069c 8846     		mov	r8, r1
 922 069e B844     		add	r8, r8, r7
 923 06a0 C444     		add	ip, ip, r8
 924 06a2 6344     		add	r3, r3, ip
 925 06a4 1B68     		ldr	r3, [r3]
 926 06a6 C449     		ldr	r1, .L65
 927 06a8 8C46     		mov	ip, r1
 928 06aa 6344     		add	r3, r3, ip
 929 06ac 5B00     		lsl	r3, r3, #1
 930 06ae D318     		add	r3, r2, r3
 931 06b0 AC22     		mov	r2, #172
 932 06b2 0821     		mov	r1, #8
 933 06b4 8C46     		mov	ip, r1
 934 06b6 0821     		mov	r1, #8
 935 06b8 8846     		mov	r8, r1
 936 06ba B844     		add	r8, r8, r7
 937 06bc C444     		add	ip, ip, r8
 938 06be 6244     		add	r2, r2, ip
 939 06c0 1360     		str	r3, [r2]
 172:Source\FilteringFunctions/arm_conv_opt_q15.c **** 
 173:Source\FilteringFunctions/arm_conv_opt_q15.c ****   /* Copy bigger length sequence(srcALen) samples in scratch1 buffer */
 174:Source\FilteringFunctions/arm_conv_opt_q15.c **** 
 175:Source\FilteringFunctions/arm_conv_opt_q15.c **** #ifndef UNALIGNED_SUPPORT_DISABLE
 176:Source\FilteringFunctions/arm_conv_opt_q15.c **** 
 177:Source\FilteringFunctions/arm_conv_opt_q15.c ****   /* Copy (srcALen) samples in scratch buffer */
 178:Source\FilteringFunctions/arm_conv_opt_q15.c ****   arm_copy_q15(pIn1, pScr1, srcALen);
 940              		.loc 1 178 0
 941 06c2 AC23     		mov	r3, #172
 942 06c4 0822     		mov	r2, #8
 943 06c6 9446     		mov	ip, r2
 944 06c8 0822     		mov	r2, #8
 945 06ca 9046     		mov	r8, r2
 946 06cc B844     		add	r8, r8, r7
 947 06ce C444     		add	ip, ip, r8
 948 06d0 6344     		add	r3, r3, ip
 949 06d2 1968     		ldr	r1, [r3]
 950 06d4 9423     		mov	r3, #148
 951 06d6 5B00     		lsl	r3, r3, #1
 952 06d8 9822     		mov	r2, #152
 953 06da 9446     		mov	ip, r2
 954 06dc 0822     		mov	r2, #8
 955 06de 9046     		mov	r8, r2
 956 06e0 0822     		mov	r2, #8
 957 06e2 9146     		mov	r9, r2
 958 06e4 B944     		add	r9, r9, r7
 959 06e6 C844     		add	r8, r8, r9
 960 06e8 C444     		add	ip, ip, r8
ARM GAS  C:\Users\fneves\AppData\Local\Temp\cc8Kqy5I.s 			page 21


 961 06ea 6344     		add	r3, r3, ip
 962 06ec 1B68     		ldr	r3, [r3]
 963 06ee A022     		mov	r2, #160
 964 06f0 0820     		mov	r0, #8
 965 06f2 8446     		mov	ip, r0
 966 06f4 0820     		mov	r0, #8
 967 06f6 8046     		mov	r8, r0
 968 06f8 B844     		add	r8, r8, r7
 969 06fa C444     		add	ip, ip, r8
 970 06fc 6244     		add	r2, r2, ip
 971 06fe 1268     		ldr	r2, [r2]
 972 0700 181C     		mov	r0, r3
 973 0702 FFF7FEFF 		bl	arm_copy_q15
 179:Source\FilteringFunctions/arm_conv_opt_q15.c **** 
 180:Source\FilteringFunctions/arm_conv_opt_q15.c ****   /* Update pointers */
 181:Source\FilteringFunctions/arm_conv_opt_q15.c ****   pScr1 += srcALen;
 974              		.loc 1 181 0
 975 0706 AC23     		mov	r3, #172
 976 0708 0822     		mov	r2, #8
 977 070a 9446     		mov	ip, r2
 978 070c 0822     		mov	r2, #8
 979 070e 9046     		mov	r8, r2
 980 0710 B844     		add	r8, r8, r7
 981 0712 C444     		add	ip, ip, r8
 982 0714 6344     		add	r3, r3, ip
 983 0716 1A68     		ldr	r2, [r3]
 984 0718 A023     		mov	r3, #160
 985 071a 0821     		mov	r1, #8
 986 071c 8C46     		mov	ip, r1
 987 071e 0821     		mov	r1, #8
 988 0720 8846     		mov	r8, r1
 989 0722 B844     		add	r8, r8, r7
 990 0724 C444     		add	ip, ip, r8
 991 0726 6344     		add	r3, r3, ip
 992 0728 1B68     		ldr	r3, [r3]
 993 072a 5B00     		lsl	r3, r3, #1
 994 072c D318     		add	r3, r2, r3
 995 072e AC22     		mov	r2, #172
 996 0730 0821     		mov	r1, #8
 997 0732 8C46     		mov	ip, r1
 998 0734 0821     		mov	r1, #8
 999 0736 8846     		mov	r8, r1
 1000 0738 B844     		add	r8, r8, r7
 1001 073a C444     		add	ip, ip, r8
 1002 073c 6244     		add	r2, r2, ip
 1003 073e 1360     		str	r3, [r2]
 182:Source\FilteringFunctions/arm_conv_opt_q15.c **** 
 183:Source\FilteringFunctions/arm_conv_opt_q15.c **** #else
 184:Source\FilteringFunctions/arm_conv_opt_q15.c **** 
 185:Source\FilteringFunctions/arm_conv_opt_q15.c ****   /* Apply loop unrolling and do 4 Copies simultaneously. */
 186:Source\FilteringFunctions/arm_conv_opt_q15.c ****   k = srcALen >> 2u;
 187:Source\FilteringFunctions/arm_conv_opt_q15.c **** 
 188:Source\FilteringFunctions/arm_conv_opt_q15.c ****   /* First part of the processing with loop unrolling copies 4 data points at a time.
 189:Source\FilteringFunctions/arm_conv_opt_q15.c ****    ** a second loop below copies for the remaining 1 to 3 samples. */
 190:Source\FilteringFunctions/arm_conv_opt_q15.c ****   while (k > 0u)
 191:Source\FilteringFunctions/arm_conv_opt_q15.c ****   {
 192:Source\FilteringFunctions/arm_conv_opt_q15.c ****     /* copy second buffer in reversal manner */
ARM GAS  C:\Users\fneves\AppData\Local\Temp\cc8Kqy5I.s 			page 22


 193:Source\FilteringFunctions/arm_conv_opt_q15.c ****     *pScr1++ = *pIn1++;
 194:Source\FilteringFunctions/arm_conv_opt_q15.c ****     *pScr1++ = *pIn1++;
 195:Source\FilteringFunctions/arm_conv_opt_q15.c ****     *pScr1++ = *pIn1++;
 196:Source\FilteringFunctions/arm_conv_opt_q15.c ****     *pScr1++ = *pIn1++;
 197:Source\FilteringFunctions/arm_conv_opt_q15.c **** 
 198:Source\FilteringFunctions/arm_conv_opt_q15.c ****     /* Decrement the loop counter */
 199:Source\FilteringFunctions/arm_conv_opt_q15.c ****     k--;
 200:Source\FilteringFunctions/arm_conv_opt_q15.c ****   }
 201:Source\FilteringFunctions/arm_conv_opt_q15.c **** 
 202:Source\FilteringFunctions/arm_conv_opt_q15.c ****   /* If the count is not a multiple of 4, copy remaining samples here.
 203:Source\FilteringFunctions/arm_conv_opt_q15.c ****    ** No loop unrolling is used. */
 204:Source\FilteringFunctions/arm_conv_opt_q15.c ****   k = srcALen % 0x4u;
 205:Source\FilteringFunctions/arm_conv_opt_q15.c **** 
 206:Source\FilteringFunctions/arm_conv_opt_q15.c ****   while (k > 0u)
 207:Source\FilteringFunctions/arm_conv_opt_q15.c ****   {
 208:Source\FilteringFunctions/arm_conv_opt_q15.c ****     /* copy second buffer in reversal manner for remaining samples */
 209:Source\FilteringFunctions/arm_conv_opt_q15.c ****     *pScr1++ = *pIn1++;
 210:Source\FilteringFunctions/arm_conv_opt_q15.c **** 
 211:Source\FilteringFunctions/arm_conv_opt_q15.c ****     /* Decrement the loop counter */
 212:Source\FilteringFunctions/arm_conv_opt_q15.c ****     k--;
 213:Source\FilteringFunctions/arm_conv_opt_q15.c ****   }
 214:Source\FilteringFunctions/arm_conv_opt_q15.c **** 
 215:Source\FilteringFunctions/arm_conv_opt_q15.c **** #endif
 216:Source\FilteringFunctions/arm_conv_opt_q15.c **** 
 217:Source\FilteringFunctions/arm_conv_opt_q15.c **** 
 218:Source\FilteringFunctions/arm_conv_opt_q15.c **** #ifndef UNALIGNED_SUPPORT_DISABLE
 219:Source\FilteringFunctions/arm_conv_opt_q15.c **** 
 220:Source\FilteringFunctions/arm_conv_opt_q15.c ****   /* Fill (srcBLen - 1u) zeros at end of scratch buffer */
 221:Source\FilteringFunctions/arm_conv_opt_q15.c ****   arm_fill_q15(0, pScr1, (srcBLen - 1u));
 1004              		.loc 1 221 0
 1005 0740 AC23     		mov	r3, #172
 1006 0742 0822     		mov	r2, #8
 1007 0744 9446     		mov	ip, r2
 1008 0746 0822     		mov	r2, #8
 1009 0748 9046     		mov	r8, r2
 1010 074a B844     		add	r8, r8, r7
 1011 074c C444     		add	ip, ip, r8
 1012 074e 6344     		add	r3, r3, ip
 1013 0750 1A68     		ldr	r2, [r3]
 1014 0752 9823     		mov	r3, #152
 1015 0754 0821     		mov	r1, #8
 1016 0756 8C46     		mov	ip, r1
 1017 0758 0821     		mov	r1, #8
 1018 075a 8846     		mov	r8, r1
 1019 075c B844     		add	r8, r8, r7
 1020 075e C444     		add	ip, ip, r8
 1021 0760 6344     		add	r3, r3, ip
 1022 0762 1B68     		ldr	r3, [r3]
 1023 0764 013B     		sub	r3, r3, #1
 1024 0766 0020     		mov	r0, #0
 1025 0768 111C     		mov	r1, r2
 1026 076a 1A1C     		mov	r2, r3
 1027 076c FFF7FEFF 		bl	arm_fill_q15
 222:Source\FilteringFunctions/arm_conv_opt_q15.c **** 
 223:Source\FilteringFunctions/arm_conv_opt_q15.c ****   /* Update pointer */
 224:Source\FilteringFunctions/arm_conv_opt_q15.c ****   pScr1 += (srcBLen - 1u);
 1028              		.loc 1 224 0
ARM GAS  C:\Users\fneves\AppData\Local\Temp\cc8Kqy5I.s 			page 23


 1029 0770 AC23     		mov	r3, #172
 1030 0772 0822     		mov	r2, #8
 1031 0774 9446     		mov	ip, r2
 1032 0776 0822     		mov	r2, #8
 1033 0778 9046     		mov	r8, r2
 1034 077a B844     		add	r8, r8, r7
 1035 077c C444     		add	ip, ip, r8
 1036 077e 6344     		add	r3, r3, ip
 1037 0780 1A68     		ldr	r2, [r3]
 1038 0782 9823     		mov	r3, #152
 1039 0784 0821     		mov	r1, #8
 1040 0786 8C46     		mov	ip, r1
 1041 0788 0821     		mov	r1, #8
 1042 078a 8846     		mov	r8, r1
 1043 078c B844     		add	r8, r8, r7
 1044 078e C444     		add	ip, ip, r8
 1045 0790 6344     		add	r3, r3, ip
 1046 0792 1B68     		ldr	r3, [r3]
 1047 0794 8849     		ldr	r1, .L65
 1048 0796 8C46     		mov	ip, r1
 1049 0798 6344     		add	r3, r3, ip
 1050 079a 5B00     		lsl	r3, r3, #1
 1051 079c D318     		add	r3, r2, r3
 1052 079e AC22     		mov	r2, #172
 1053 07a0 0821     		mov	r1, #8
 1054 07a2 8C46     		mov	ip, r1
 1055 07a4 0821     		mov	r1, #8
 1056 07a6 8846     		mov	r8, r1
 1057 07a8 B844     		add	r8, r8, r7
 1058 07aa C444     		add	ip, ip, r8
 1059 07ac 6244     		add	r2, r2, ip
 1060 07ae 1360     		str	r3, [r2]
 225:Source\FilteringFunctions/arm_conv_opt_q15.c **** 
 226:Source\FilteringFunctions/arm_conv_opt_q15.c **** #else
 227:Source\FilteringFunctions/arm_conv_opt_q15.c **** 
 228:Source\FilteringFunctions/arm_conv_opt_q15.c ****   /* Apply loop unrolling and do 4 Copies simultaneously. */
 229:Source\FilteringFunctions/arm_conv_opt_q15.c ****   k = (srcBLen - 1u) >> 2u;
 230:Source\FilteringFunctions/arm_conv_opt_q15.c **** 
 231:Source\FilteringFunctions/arm_conv_opt_q15.c ****   /* First part of the processing with loop unrolling copies 4 data points at a time.
 232:Source\FilteringFunctions/arm_conv_opt_q15.c ****    ** a second loop below copies for the remaining 1 to 3 samples. */
 233:Source\FilteringFunctions/arm_conv_opt_q15.c ****   while (k > 0u)
 234:Source\FilteringFunctions/arm_conv_opt_q15.c ****   {
 235:Source\FilteringFunctions/arm_conv_opt_q15.c ****     /* copy second buffer in reversal manner */
 236:Source\FilteringFunctions/arm_conv_opt_q15.c ****     *pScr1++ = 0;
 237:Source\FilteringFunctions/arm_conv_opt_q15.c ****     *pScr1++ = 0;
 238:Source\FilteringFunctions/arm_conv_opt_q15.c ****     *pScr1++ = 0;
 239:Source\FilteringFunctions/arm_conv_opt_q15.c ****     *pScr1++ = 0;
 240:Source\FilteringFunctions/arm_conv_opt_q15.c **** 
 241:Source\FilteringFunctions/arm_conv_opt_q15.c ****     /* Decrement the loop counter */
 242:Source\FilteringFunctions/arm_conv_opt_q15.c ****     k--;
 243:Source\FilteringFunctions/arm_conv_opt_q15.c ****   }
 244:Source\FilteringFunctions/arm_conv_opt_q15.c **** 
 245:Source\FilteringFunctions/arm_conv_opt_q15.c ****   /* If the count is not a multiple of 4, copy remaining samples here.
 246:Source\FilteringFunctions/arm_conv_opt_q15.c ****    ** No loop unrolling is used. */
 247:Source\FilteringFunctions/arm_conv_opt_q15.c ****   k = (srcBLen - 1u) % 0x4u;
 248:Source\FilteringFunctions/arm_conv_opt_q15.c **** 
 249:Source\FilteringFunctions/arm_conv_opt_q15.c ****   while (k > 0u)
ARM GAS  C:\Users\fneves\AppData\Local\Temp\cc8Kqy5I.s 			page 24


 250:Source\FilteringFunctions/arm_conv_opt_q15.c ****   {
 251:Source\FilteringFunctions/arm_conv_opt_q15.c ****     /* copy second buffer in reversal manner for remaining samples */
 252:Source\FilteringFunctions/arm_conv_opt_q15.c ****     *pScr1++ = 0;
 253:Source\FilteringFunctions/arm_conv_opt_q15.c **** 
 254:Source\FilteringFunctions/arm_conv_opt_q15.c ****     /* Decrement the loop counter */
 255:Source\FilteringFunctions/arm_conv_opt_q15.c ****     k--;
 256:Source\FilteringFunctions/arm_conv_opt_q15.c ****   }
 257:Source\FilteringFunctions/arm_conv_opt_q15.c **** 
 258:Source\FilteringFunctions/arm_conv_opt_q15.c **** #endif
 259:Source\FilteringFunctions/arm_conv_opt_q15.c **** 
 260:Source\FilteringFunctions/arm_conv_opt_q15.c ****   /* Temporary pointer for scratch2 */
 261:Source\FilteringFunctions/arm_conv_opt_q15.c ****   py = pScratch2;
 1061              		.loc 1 261 0
 1062 07b0 BC23     		mov	r3, #188
 1063 07b2 5B00     		lsl	r3, r3, #1
 1064 07b4 9822     		mov	r2, #152
 1065 07b6 9446     		mov	ip, r2
 1066 07b8 0822     		mov	r2, #8
 1067 07ba 9046     		mov	r8, r2
 1068 07bc 0822     		mov	r2, #8
 1069 07be 9146     		mov	r9, r2
 1070 07c0 0822     		mov	r2, #8
 1071 07c2 9246     		mov	r10, r2
 1072 07c4 BA44     		add	r10, r10, r7
 1073 07c6 D144     		add	r9, r9, r10
 1074 07c8 C844     		add	r8, r8, r9
 1075 07ca C444     		add	ip, ip, r8
 1076 07cc 6344     		add	r3, r3, ip
 1077 07ce 1B68     		ldr	r3, [r3]
 1078 07d0 8622     		mov	r2, #134
 1079 07d2 5200     		lsl	r2, r2, #1
 1080 07d4 9821     		mov	r1, #152
 1081 07d6 8C46     		mov	ip, r1
 1082 07d8 0821     		mov	r1, #8
 1083 07da 8846     		mov	r8, r1
 1084 07dc 0821     		mov	r1, #8
 1085 07de 8946     		mov	r9, r1
 1086 07e0 B944     		add	r9, r9, r7
 1087 07e2 C844     		add	r8, r8, r9
 1088 07e4 C444     		add	ip, ip, r8
 1089 07e6 6244     		add	r2, r2, ip
 1090 07e8 1360     		str	r3, [r2]
 262:Source\FilteringFunctions/arm_conv_opt_q15.c **** 
 263:Source\FilteringFunctions/arm_conv_opt_q15.c **** 
 264:Source\FilteringFunctions/arm_conv_opt_q15.c ****   /* Initialization of pIn2 pointer */
 265:Source\FilteringFunctions/arm_conv_opt_q15.c ****   pIn2 = py;
 1091              		.loc 1 265 0
 1092 07ea 8623     		mov	r3, #134
 1093 07ec 5B00     		lsl	r3, r3, #1
 1094 07ee 9822     		mov	r2, #152
 1095 07f0 9446     		mov	ip, r2
 1096 07f2 0822     		mov	r2, #8
 1097 07f4 9046     		mov	r8, r2
 1098 07f6 0822     		mov	r2, #8
 1099 07f8 9146     		mov	r9, r2
 1100 07fa B944     		add	r9, r9, r7
 1101 07fc C844     		add	r8, r8, r9
ARM GAS  C:\Users\fneves\AppData\Local\Temp\cc8Kqy5I.s 			page 25


 1102 07fe C444     		add	ip, ip, r8
 1103 0800 6344     		add	r3, r3, ip
 1104 0802 1B68     		ldr	r3, [r3]
 1105 0804 9222     		mov	r2, #146
 1106 0806 5200     		lsl	r2, r2, #1
 1107 0808 9821     		mov	r1, #152
 1108 080a 8C46     		mov	ip, r1
 1109 080c 0821     		mov	r1, #8
 1110 080e 8846     		mov	r8, r1
 1111 0810 0821     		mov	r1, #8
 1112 0812 8946     		mov	r9, r1
 1113 0814 B944     		add	r9, r9, r7
 1114 0816 C844     		add	r8, r8, r9
 1115 0818 C444     		add	ip, ip, r8
 1116 081a 6244     		add	r2, r2, ip
 1117 081c 1360     		str	r3, [r2]
 266:Source\FilteringFunctions/arm_conv_opt_q15.c **** 
 267:Source\FilteringFunctions/arm_conv_opt_q15.c ****   /* First part of the processing with loop unrolling process 4 data points at a time.
 268:Source\FilteringFunctions/arm_conv_opt_q15.c ****    ** a second loop below process for the remaining 1 to 3 samples. */
 269:Source\FilteringFunctions/arm_conv_opt_q15.c **** 
 270:Source\FilteringFunctions/arm_conv_opt_q15.c ****   /* Actual convolution process starts here */
 271:Source\FilteringFunctions/arm_conv_opt_q15.c ****   blkCnt = (srcALen + srcBLen - 1u) >> 2;
 1118              		.loc 1 271 0
 1119 081e A023     		mov	r3, #160
 1120 0820 0822     		mov	r2, #8
 1121 0822 9446     		mov	ip, r2
 1122 0824 0822     		mov	r2, #8
 1123 0826 9046     		mov	r8, r2
 1124 0828 B844     		add	r8, r8, r7
 1125 082a C444     		add	ip, ip, r8
 1126 082c 6344     		add	r3, r3, ip
 1127 082e 1A68     		ldr	r2, [r3]
 1128 0830 9823     		mov	r3, #152
 1129 0832 0821     		mov	r1, #8
 1130 0834 8C46     		mov	ip, r1
 1131 0836 0821     		mov	r1, #8
 1132 0838 8846     		mov	r8, r1
 1133 083a B844     		add	r8, r8, r7
 1134 083c C444     		add	ip, ip, r8
 1135 083e 6344     		add	r3, r3, ip
 1136 0840 1B68     		ldr	r3, [r3]
 1137 0842 D318     		add	r3, r2, r3
 1138 0844 013B     		sub	r3, r3, #1
 1139 0846 9B08     		lsr	r3, r3, #2
 1140 0848 8C22     		mov	r2, #140
 1141 084a 5200     		lsl	r2, r2, #1
 1142 084c 9821     		mov	r1, #152
 1143 084e 8C46     		mov	ip, r1
 1144 0850 0821     		mov	r1, #8
 1145 0852 8846     		mov	r8, r1
 1146 0854 0821     		mov	r1, #8
 1147 0856 8946     		mov	r9, r1
 1148 0858 B944     		add	r9, r9, r7
 1149 085a C844     		add	r8, r8, r9
 1150 085c C444     		add	ip, ip, r8
 1151 085e 6244     		add	r2, r2, ip
 1152 0860 1360     		str	r3, [r2]
ARM GAS  C:\Users\fneves\AppData\Local\Temp\cc8Kqy5I.s 			page 26


 272:Source\FilteringFunctions/arm_conv_opt_q15.c **** 
 273:Source\FilteringFunctions/arm_conv_opt_q15.c ****   while (blkCnt > 0)
 1153              		.loc 1 273 0
 1154 0862 01F04FFE 		bl	.L8	@ far jump
 1155              	.L45:
 274:Source\FilteringFunctions/arm_conv_opt_q15.c ****   {
 275:Source\FilteringFunctions/arm_conv_opt_q15.c ****     /* Initialze temporary scratch pointer as scratch1 */
 276:Source\FilteringFunctions/arm_conv_opt_q15.c ****     pScr1 = pScratch1;
 1156              		.loc 1 276 0
 1157 0866 BA23     		mov	r3, #186
 1158 0868 5B00     		lsl	r3, r3, #1
 1159 086a 9822     		mov	r2, #152
 1160 086c 9446     		mov	ip, r2
 1161 086e 0822     		mov	r2, #8
 1162 0870 9046     		mov	r8, r2
 1163 0872 0822     		mov	r2, #8
 1164 0874 9146     		mov	r9, r2
 1165 0876 0822     		mov	r2, #8
 1166 0878 9246     		mov	r10, r2
 1167 087a BA44     		add	r10, r10, r7
 1168 087c D144     		add	r9, r9, r10
 1169 087e C844     		add	r8, r8, r9
 1170 0880 C444     		add	ip, ip, r8
 1171 0882 6344     		add	r3, r3, ip
 1172 0884 1B68     		ldr	r3, [r3]
 1173 0886 AC22     		mov	r2, #172
 1174 0888 0821     		mov	r1, #8
 1175 088a 8C46     		mov	ip, r1
 1176 088c 0821     		mov	r1, #8
 1177 088e 8846     		mov	r8, r1
 1178 0890 B844     		add	r8, r8, r7
 1179 0892 C444     		add	ip, ip, r8
 1180 0894 6244     		add	r2, r2, ip
 1181 0896 1360     		str	r3, [r2]
 277:Source\FilteringFunctions/arm_conv_opt_q15.c **** 
 278:Source\FilteringFunctions/arm_conv_opt_q15.c ****     /* Clear Accumlators */
 279:Source\FilteringFunctions/arm_conv_opt_q15.c ****     acc0 = 0;
 1182              		.loc 1 279 0
 1183 0898 0023     		mov	r3, #0
 1184 089a 0024     		mov	r4, #0
 1185 089c A822     		mov	r2, #168
 1186 089e 5200     		lsl	r2, r2, #1
 1187 08a0 9821     		mov	r1, #152
 1188 08a2 8C46     		mov	ip, r1
 1189 08a4 0821     		mov	r1, #8
 1190 08a6 8846     		mov	r8, r1
 1191 08a8 0821     		mov	r1, #8
 1192 08aa 8946     		mov	r9, r1
 1193 08ac B944     		add	r9, r9, r7
 1194 08ae C844     		add	r8, r8, r9
 1195 08b0 C444     		add	ip, ip, r8
 1196 08b2 6244     		add	r2, r2, ip
 1197 08b4 1360     		str	r3, [r2]
 1198 08b6 5460     		str	r4, [r2, #4]
 280:Source\FilteringFunctions/arm_conv_opt_q15.c ****     acc1 = 0;
 1199              		.loc 1 280 0
 1200 08b8 0023     		mov	r3, #0
ARM GAS  C:\Users\fneves\AppData\Local\Temp\cc8Kqy5I.s 			page 27


 1201 08ba 0024     		mov	r4, #0
 1202 08bc A422     		mov	r2, #164
 1203 08be 5200     		lsl	r2, r2, #1
 1204 08c0 9821     		mov	r1, #152
 1205 08c2 8C46     		mov	ip, r1
 1206 08c4 0821     		mov	r1, #8
 1207 08c6 8846     		mov	r8, r1
 1208 08c8 0821     		mov	r1, #8
 1209 08ca 8946     		mov	r9, r1
 1210 08cc B944     		add	r9, r9, r7
 1211 08ce C844     		add	r8, r8, r9
 1212 08d0 C444     		add	ip, ip, r8
 1213 08d2 6244     		add	r2, r2, ip
 1214 08d4 1360     		str	r3, [r2]
 1215 08d6 5460     		str	r4, [r2, #4]
 281:Source\FilteringFunctions/arm_conv_opt_q15.c ****     acc2 = 0;
 1216              		.loc 1 281 0
 1217 08d8 0023     		mov	r3, #0
 1218 08da 0024     		mov	r4, #0
 1219 08dc A022     		mov	r2, #160
 1220 08de 5200     		lsl	r2, r2, #1
 1221 08e0 9821     		mov	r1, #152
 1222 08e2 8C46     		mov	ip, r1
 1223 08e4 0821     		mov	r1, #8
 1224 08e6 8846     		mov	r8, r1
 1225 08e8 0821     		mov	r1, #8
 1226 08ea 8946     		mov	r9, r1
 1227 08ec B944     		add	r9, r9, r7
 1228 08ee C844     		add	r8, r8, r9
 1229 08f0 C444     		add	ip, ip, r8
 1230 08f2 6244     		add	r2, r2, ip
 1231 08f4 1360     		str	r3, [r2]
 1232 08f6 5460     		str	r4, [r2, #4]
 282:Source\FilteringFunctions/arm_conv_opt_q15.c ****     acc3 = 0;
 1233              		.loc 1 282 0
 1234 08f8 0023     		mov	r3, #0
 1235 08fa 0024     		mov	r4, #0
 1236 08fc 9C22     		mov	r2, #156
 1237 08fe 5200     		lsl	r2, r2, #1
 1238 0900 9821     		mov	r1, #152
 1239 0902 8C46     		mov	ip, r1
 1240 0904 0821     		mov	r1, #8
 1241 0906 8846     		mov	r8, r1
 1242 0908 0821     		mov	r1, #8
 1243 090a 8946     		mov	r9, r1
 1244 090c B944     		add	r9, r9, r7
 1245 090e C844     		add	r8, r8, r9
 1246 0910 C444     		add	ip, ip, r8
 1247 0912 6244     		add	r2, r2, ip
 1248 0914 1360     		str	r3, [r2]
 1249 0916 5460     		str	r4, [r2, #4]
 283:Source\FilteringFunctions/arm_conv_opt_q15.c **** 
 284:Source\FilteringFunctions/arm_conv_opt_q15.c ****     /* Read two samples from scratch1 buffer */
 285:Source\FilteringFunctions/arm_conv_opt_q15.c ****     x1 = *__SIMD32(pScr1)++;
 1250              		.loc 1 285 0
 1251 0918 1423     		mov	r3, #20
 1252 091a 9822     		mov	r2, #152
ARM GAS  C:\Users\fneves\AppData\Local\Temp\cc8Kqy5I.s 			page 28


 1253 091c 0821     		mov	r1, #8
 1254 091e 8C46     		mov	ip, r1
 1255 0920 0821     		mov	r1, #8
 1256 0922 8846     		mov	r8, r1
 1257 0924 B844     		add	r8, r8, r7
 1258 0926 C444     		add	ip, ip, r8
 1259 0928 6244     		add	r2, r2, ip
 1260 092a D218     		add	r2, r2, r3
 1261 092c 1168     		ldr	r1, [r2]
 1262 092e 0B1D     		add	r3, r1, #4
 1263 0930 1360     		str	r3, [r2]
 1264 0932 0B68     		ldr	r3, [r1]
 1265 0934 9A22     		mov	r2, #154
 1266 0936 5200     		lsl	r2, r2, #1
 1267 0938 9821     		mov	r1, #152
 1268 093a 8C46     		mov	ip, r1
 1269 093c 0821     		mov	r1, #8
 1270 093e 8846     		mov	r8, r1
 1271 0940 0821     		mov	r1, #8
 1272 0942 8946     		mov	r9, r1
 1273 0944 B944     		add	r9, r9, r7
 1274 0946 C844     		add	r8, r8, r9
 1275 0948 C444     		add	ip, ip, r8
 1276 094a 6244     		add	r2, r2, ip
 1277 094c 1360     		str	r3, [r2]
 286:Source\FilteringFunctions/arm_conv_opt_q15.c **** 
 287:Source\FilteringFunctions/arm_conv_opt_q15.c ****     /* Read next two samples from scratch1 buffer */
 288:Source\FilteringFunctions/arm_conv_opt_q15.c ****     x2 = *__SIMD32(pScr1)++;
 1278              		.loc 1 288 0
 1279 094e 1423     		mov	r3, #20
 1280 0950 9822     		mov	r2, #152
 1281 0952 0821     		mov	r1, #8
 1282 0954 8C46     		mov	ip, r1
 1283 0956 0821     		mov	r1, #8
 1284 0958 8846     		mov	r8, r1
 1285 095a B844     		add	r8, r8, r7
 1286 095c C444     		add	ip, ip, r8
 1287 095e 6244     		add	r2, r2, ip
 1288 0960 D218     		add	r2, r2, r3
 1289 0962 1168     		ldr	r1, [r2]
 1290 0964 0B1D     		add	r3, r1, #4
 1291 0966 1360     		str	r3, [r2]
 1292 0968 0B68     		ldr	r3, [r1]
 1293 096a 9822     		mov	r2, #152
 1294 096c 5200     		lsl	r2, r2, #1
 1295 096e 9821     		mov	r1, #152
 1296 0970 8C46     		mov	ip, r1
 1297 0972 0821     		mov	r1, #8
 1298 0974 8846     		mov	r8, r1
 1299 0976 0821     		mov	r1, #8
 1300 0978 8946     		mov	r9, r1
 1301 097a B944     		add	r9, r9, r7
 1302 097c C844     		add	r8, r8, r9
 1303 097e C444     		add	ip, ip, r8
 1304 0980 6244     		add	r2, r2, ip
 1305 0982 1360     		str	r3, [r2]
 289:Source\FilteringFunctions/arm_conv_opt_q15.c **** 
ARM GAS  C:\Users\fneves\AppData\Local\Temp\cc8Kqy5I.s 			page 29


 290:Source\FilteringFunctions/arm_conv_opt_q15.c ****     tapCnt = (srcBLen) >> 2u;
 1306              		.loc 1 290 0
 1307 0984 9823     		mov	r3, #152
 1308 0986 0822     		mov	r2, #8
 1309 0988 9446     		mov	ip, r2
 1310 098a 0822     		mov	r2, #8
 1311 098c 9046     		mov	r8, r2
 1312 098e B844     		add	r8, r8, r7
 1313 0990 C444     		add	ip, ip, r8
 1314 0992 6344     		add	r3, r3, ip
 1315 0994 1B68     		ldr	r3, [r3]
 1316 0996 9B08     		lsr	r3, r3, #2
 1317 0998 8A22     		mov	r2, #138
 1318 099a 5200     		lsl	r2, r2, #1
 1319 099c 9821     		mov	r1, #152
 1320 099e 8C46     		mov	ip, r1
 1321 09a0 0821     		mov	r1, #8
 1322 09a2 8846     		mov	r8, r1
 1323 09a4 0821     		mov	r1, #8
 1324 09a6 8946     		mov	r9, r1
 1325 09a8 B944     		add	r9, r9, r7
 1326 09aa C844     		add	r8, r8, r9
 1327 09ac C444     		add	ip, ip, r8
 1328 09ae 6244     		add	r2, r2, ip
 1329 09b0 1360     		str	r3, [r2]
 291:Source\FilteringFunctions/arm_conv_opt_q15.c **** 
 292:Source\FilteringFunctions/arm_conv_opt_q15.c ****     while (tapCnt > 0u)
 1330              		.loc 1 292 0
 1331 09b2 00F078FE 		bl	.L9	@ far jump
 1332              	.L66:
 1333 09b6 C046     		.align	2
 1334              	.L65:
 1335 09b8 FFFFFF7F 		.word	2147483647
 1336              	.L18:
 293:Source\FilteringFunctions/arm_conv_opt_q15.c ****     {
 294:Source\FilteringFunctions/arm_conv_opt_q15.c **** 
 295:Source\FilteringFunctions/arm_conv_opt_q15.c **** #ifndef UNALIGNED_SUPPORT_DISABLE
 296:Source\FilteringFunctions/arm_conv_opt_q15.c **** 
 297:Source\FilteringFunctions/arm_conv_opt_q15.c ****       /* Read four samples from smaller buffer */
 298:Source\FilteringFunctions/arm_conv_opt_q15.c ****       y1 = _SIMD32_OFFSET(pIn2);
 1337              		.loc 1 298 0
 1338 09bc 9223     		mov	r3, #146
 1339 09be 5B00     		lsl	r3, r3, #1
 1340 09c0 9822     		mov	r2, #152
 1341 09c2 9446     		mov	ip, r2
 1342 09c4 0822     		mov	r2, #8
 1343 09c6 9046     		mov	r8, r2
 1344 09c8 0822     		mov	r2, #8
 1345 09ca 9146     		mov	r9, r2
 1346 09cc B944     		add	r9, r9, r7
 1347 09ce C844     		add	r8, r8, r9
 1348 09d0 C444     		add	ip, ip, r8
 1349 09d2 6344     		add	r3, r3, ip
 1350 09d4 1B68     		ldr	r3, [r3]
 1351 09d6 1B68     		ldr	r3, [r3]
 1352 09d8 8422     		mov	r2, #132
 1353 09da 5200     		lsl	r2, r2, #1
ARM GAS  C:\Users\fneves\AppData\Local\Temp\cc8Kqy5I.s 			page 30


 1354 09dc 9821     		mov	r1, #152
 1355 09de 8C46     		mov	ip, r1
 1356 09e0 0821     		mov	r1, #8
 1357 09e2 8846     		mov	r8, r1
 1358 09e4 0821     		mov	r1, #8
 1359 09e6 8946     		mov	r9, r1
 1360 09e8 B944     		add	r9, r9, r7
 1361 09ea C844     		add	r8, r8, r9
 1362 09ec C444     		add	ip, ip, r8
 1363 09ee 6244     		add	r2, r2, ip
 1364 09f0 1360     		str	r3, [r2]
 299:Source\FilteringFunctions/arm_conv_opt_q15.c ****       y2 = _SIMD32_OFFSET(pIn2 + 2u);
 1365              		.loc 1 299 0
 1366 09f2 9223     		mov	r3, #146
 1367 09f4 5B00     		lsl	r3, r3, #1
 1368 09f6 9822     		mov	r2, #152
 1369 09f8 9446     		mov	ip, r2
 1370 09fa 0822     		mov	r2, #8
 1371 09fc 9046     		mov	r8, r2
 1372 09fe 0822     		mov	r2, #8
 1373 0a00 9146     		mov	r9, r2
 1374 0a02 B944     		add	r9, r9, r7
 1375 0a04 C844     		add	r8, r8, r9
 1376 0a06 C444     		add	ip, ip, r8
 1377 0a08 6344     		add	r3, r3, ip
 1378 0a0a 1B68     		ldr	r3, [r3]
 1379 0a0c 5B68     		ldr	r3, [r3, #4]
 1380 0a0e CE22     		mov	r2, #206
 1381 0a10 5200     		lsl	r2, r2, #1
 1382 0a12 0821     		mov	r1, #8
 1383 0a14 8C46     		mov	ip, r1
 1384 0a16 0821     		mov	r1, #8
 1385 0a18 8846     		mov	r8, r1
 1386 0a1a B844     		add	r8, r8, r7
 1387 0a1c C444     		add	ip, ip, r8
 1388 0a1e 6244     		add	r2, r2, ip
 1389 0a20 1360     		str	r3, [r2]
 300:Source\FilteringFunctions/arm_conv_opt_q15.c **** 
 301:Source\FilteringFunctions/arm_conv_opt_q15.c ****       /* multiply and accumlate */
 302:Source\FilteringFunctions/arm_conv_opt_q15.c ****       acc0 = __SMLALD(x1, y1, acc0);
 1390              		.loc 1 302 0
 1391 0a22 9A23     		mov	r3, #154
 1392 0a24 5B00     		lsl	r3, r3, #1
 1393 0a26 9822     		mov	r2, #152
 1394 0a28 9446     		mov	ip, r2
 1395 0a2a 0822     		mov	r2, #8
 1396 0a2c 9046     		mov	r8, r2
 1397 0a2e 0822     		mov	r2, #8
 1398 0a30 9146     		mov	r9, r2
 1399 0a32 B944     		add	r9, r9, r7
 1400 0a34 C844     		add	r8, r8, r9
 1401 0a36 C444     		add	ip, ip, r8
 1402 0a38 6344     		add	r3, r3, ip
 1403 0a3a 1968     		ldr	r1, [r3]
 1404 0a3c 8423     		mov	r3, #132
 1405 0a3e 5B00     		lsl	r3, r3, #1
 1406 0a40 9822     		mov	r2, #152
ARM GAS  C:\Users\fneves\AppData\Local\Temp\cc8Kqy5I.s 			page 31


 1407 0a42 9446     		mov	ip, r2
 1408 0a44 0822     		mov	r2, #8
 1409 0a46 9046     		mov	r8, r2
 1410 0a48 0822     		mov	r2, #8
 1411 0a4a 9146     		mov	r9, r2
 1412 0a4c B944     		add	r9, r9, r7
 1413 0a4e C844     		add	r8, r8, r9
 1414 0a50 C444     		add	ip, ip, r8
 1415 0a52 6344     		add	r3, r3, ip
 1416 0a54 1A68     		ldr	r2, [r3]
 1417 0a56 A823     		mov	r3, #168
 1418 0a58 5B00     		lsl	r3, r3, #1
 1419 0a5a 9820     		mov	r0, #152
 1420 0a5c 8446     		mov	ip, r0
 1421 0a5e 0820     		mov	r0, #8
 1422 0a60 8046     		mov	r8, r0
 1423 0a62 0820     		mov	r0, #8
 1424 0a64 8146     		mov	r9, r0
 1425 0a66 B944     		add	r9, r9, r7
 1426 0a68 C844     		add	r8, r8, r9
 1427 0a6a C444     		add	ip, ip, r8
 1428 0a6c 6344     		add	r3, r3, ip
 1429 0a6e 5C68     		ldr	r4, [r3, #4]
 1430 0a70 1B68     		ldr	r3, [r3]
 1431 0a72 BB60     		str	r3, [r7, #8]
 1432 0a74 FC60     		str	r4, [r7, #12]
 1433 0a76 FC20     		mov	r0, #252
 1434 0a78 9823     		mov	r3, #152
 1435 0a7a 9C46     		mov	ip, r3
 1436 0a7c 0823     		mov	r3, #8
 1437 0a7e 9846     		mov	r8, r3
 1438 0a80 0823     		mov	r3, #8
 1439 0a82 9946     		mov	r9, r3
 1440 0a84 B944     		add	r9, r9, r7
 1441 0a86 C844     		add	r8, r8, r9
 1442 0a88 C444     		add	ip, ip, r8
 1443 0a8a 6044     		add	r0, r0, ip
 1444 0a8c 0160     		str	r1, [r0]
 1445 0a8e F821     		mov	r1, #248
 1446 0a90 9820     		mov	r0, #152
 1447 0a92 8446     		mov	ip, r0
 1448 0a94 0823     		mov	r3, #8
 1449 0a96 9846     		mov	r8, r3
 1450 0a98 0823     		mov	r3, #8
 1451 0a9a 9946     		mov	r9, r3
 1452 0a9c B944     		add	r9, r9, r7
 1453 0a9e C844     		add	r8, r8, r9
 1454 0aa0 C444     		add	ip, ip, r8
 1455 0aa2 6144     		add	r1, r1, ip
 1456 0aa4 0A60     		str	r2, [r1]
 1457 0aa6 F022     		mov	r2, #240
 1458 0aa8 9821     		mov	r1, #152
 1459 0aaa 8C46     		mov	ip, r1
 1460 0aac 0823     		mov	r3, #8
 1461 0aae 9846     		mov	r8, r3
 1462 0ab0 0823     		mov	r3, #8
 1463 0ab2 9946     		mov	r9, r3
ARM GAS  C:\Users\fneves\AppData\Local\Temp\cc8Kqy5I.s 			page 32


 1464 0ab4 B944     		add	r9, r9, r7
 1465 0ab6 C844     		add	r8, r8, r9
 1466 0ab8 C444     		add	ip, ip, r8
 1467 0aba 6244     		add	r2, r2, ip
 1468 0abc BB68     		ldr	r3, [r7, #8]
 1469 0abe FC68     		ldr	r4, [r7, #12]
 1470 0ac0 1360     		str	r3, [r2]
 1471 0ac2 5460     		str	r4, [r2, #4]
 1472              	.LBB28:
 1473              	.LBB29:
 1474              		.file 2 ".\\Include/arm_math.h"
   1:.\Include/arm_math.h **** /* ----------------------------------------------------------------------
   2:.\Include/arm_math.h ****  * Project:      CMSIS DSP Library
   3:.\Include/arm_math.h ****  * Title:        arm_math.h
   4:.\Include/arm_math.h ****  * Description:  Public header file for CMSIS DSP Library
   5:.\Include/arm_math.h ****  *
   6:.\Include/arm_math.h ****  * $Date:        27. January 2017
   7:.\Include/arm_math.h ****  * $Revision:    V.1.5.1
   8:.\Include/arm_math.h ****  *
   9:.\Include/arm_math.h ****  * Target Processor: Cortex-M cores
  10:.\Include/arm_math.h ****  * -------------------------------------------------------------------- */
  11:.\Include/arm_math.h **** /*
  12:.\Include/arm_math.h ****  * Copyright (C) 2010-2017 ARM Limited or its affiliates. All rights reserved.
  13:.\Include/arm_math.h ****  *
  14:.\Include/arm_math.h ****  * SPDX-License-Identifier: Apache-2.0
  15:.\Include/arm_math.h ****  *
  16:.\Include/arm_math.h ****  * Licensed under the Apache License, Version 2.0 (the License); you may
  17:.\Include/arm_math.h ****  * not use this file except in compliance with the License.
  18:.\Include/arm_math.h ****  * You may obtain a copy of the License at
  19:.\Include/arm_math.h ****  *
  20:.\Include/arm_math.h ****  * www.apache.org/licenses/LICENSE-2.0
  21:.\Include/arm_math.h ****  *
  22:.\Include/arm_math.h ****  * Unless required by applicable law or agreed to in writing, software
  23:.\Include/arm_math.h ****  * distributed under the License is distributed on an AS IS BASIS, WITHOUT
  24:.\Include/arm_math.h ****  * WARRANTIES OR CONDITIONS OF ANY KIND, either express or implied.
  25:.\Include/arm_math.h ****  * See the License for the specific language governing permissions and
  26:.\Include/arm_math.h ****  * limitations under the License.
  27:.\Include/arm_math.h ****  */
  28:.\Include/arm_math.h **** 
  29:.\Include/arm_math.h **** /**
  30:.\Include/arm_math.h ****    \mainpage CMSIS DSP Software Library
  31:.\Include/arm_math.h ****    *
  32:.\Include/arm_math.h ****    * Introduction
  33:.\Include/arm_math.h ****    * ------------
  34:.\Include/arm_math.h ****    *
  35:.\Include/arm_math.h ****    * This user manual describes the CMSIS DSP software library,
  36:.\Include/arm_math.h ****    * a suite of common signal processing functions for use on Cortex-M processor based devices.
  37:.\Include/arm_math.h ****    *
  38:.\Include/arm_math.h ****    * The library is divided into a number of functions each covering a specific category:
  39:.\Include/arm_math.h ****    * - Basic math functions
  40:.\Include/arm_math.h ****    * - Fast math functions
  41:.\Include/arm_math.h ****    * - Complex math functions
  42:.\Include/arm_math.h ****    * - Filters
  43:.\Include/arm_math.h ****    * - Matrix functions
  44:.\Include/arm_math.h ****    * - Transforms
  45:.\Include/arm_math.h ****    * - Motor control functions
  46:.\Include/arm_math.h ****    * - Statistical functions
ARM GAS  C:\Users\fneves\AppData\Local\Temp\cc8Kqy5I.s 			page 33


  47:.\Include/arm_math.h ****    * - Support functions
  48:.\Include/arm_math.h ****    * - Interpolation functions
  49:.\Include/arm_math.h ****    *
  50:.\Include/arm_math.h ****    * The library has separate functions for operating on 8-bit integers, 16-bit integers,
  51:.\Include/arm_math.h ****    * 32-bit integer and 32-bit floating-point values.
  52:.\Include/arm_math.h ****    *
  53:.\Include/arm_math.h ****    * Using the Library
  54:.\Include/arm_math.h ****    * ------------
  55:.\Include/arm_math.h ****    *
  56:.\Include/arm_math.h ****    * The library installer contains prebuilt versions of the libraries in the <code>Lib</code> fold
  57:.\Include/arm_math.h ****    * - arm_cortexM7lfdp_math.lib (Cortex-M7, Little endian, Double Precision Floating Point Unit)
  58:.\Include/arm_math.h ****    * - arm_cortexM7bfdp_math.lib (Cortex-M7, Big endian, Double Precision Floating Point Unit)
  59:.\Include/arm_math.h ****    * - arm_cortexM7lfsp_math.lib (Cortex-M7, Little endian, Single Precision Floating Point Unit)
  60:.\Include/arm_math.h ****    * - arm_cortexM7bfsp_math.lib (Cortex-M7, Big endian and Single Precision Floating Point Unit on
  61:.\Include/arm_math.h ****    * - arm_cortexM7l_math.lib (Cortex-M7, Little endian)
  62:.\Include/arm_math.h ****    * - arm_cortexM7b_math.lib (Cortex-M7, Big endian)
  63:.\Include/arm_math.h ****    * - arm_cortexM4lf_math.lib (Cortex-M4, Little endian, Floating Point Unit)
  64:.\Include/arm_math.h ****    * - arm_cortexM4bf_math.lib (Cortex-M4, Big endian, Floating Point Unit)
  65:.\Include/arm_math.h ****    * - arm_cortexM4l_math.lib (Cortex-M4, Little endian)
  66:.\Include/arm_math.h ****    * - arm_cortexM4b_math.lib (Cortex-M4, Big endian)
  67:.\Include/arm_math.h ****    * - arm_cortexM3l_math.lib (Cortex-M3, Little endian)
  68:.\Include/arm_math.h ****    * - arm_cortexM3b_math.lib (Cortex-M3, Big endian)
  69:.\Include/arm_math.h ****    * - arm_cortexM0l_math.lib (Cortex-M0 / Cortex-M0+, Little endian)
  70:.\Include/arm_math.h ****    * - arm_cortexM0b_math.lib (Cortex-M0 / Cortex-M0+, Big endian)
  71:.\Include/arm_math.h ****    * - arm_ARMv8MBLl_math.lib (ARMv8M Baseline, Little endian)
  72:.\Include/arm_math.h ****    * - arm_ARMv8MMLl_math.lib (ARMv8M Mainline, Little endian)
  73:.\Include/arm_math.h ****    * - arm_ARMv8MMLlfsp_math.lib (ARMv8M Mainline, Little endian, Single Precision Floating Point U
  74:.\Include/arm_math.h ****    * - arm_ARMv8MMLld_math.lib (ARMv8M Mainline, Little endian, DSP instructions)
  75:.\Include/arm_math.h ****    * - arm_ARMv8MMLldfsp_math.lib (ARMv8M Mainline, Little endian, DSP instructions, Single Precisi
  76:.\Include/arm_math.h ****    *
  77:.\Include/arm_math.h ****    * The library functions are declared in the public file <code>arm_math.h</code> which is placed 
  78:.\Include/arm_math.h ****    * Simply include this file and link the appropriate library in the application and begin calling
  79:.\Include/arm_math.h ****    * public header file <code> arm_math.h</code> for Cortex-M cores with little endian and big endi
  80:.\Include/arm_math.h ****    * Define the appropriate pre processor MACRO ARM_MATH_CM7 or ARM_MATH_CM4 or  ARM_MATH_CM3 or
  81:.\Include/arm_math.h ****    * ARM_MATH_CM0 or ARM_MATH_CM0PLUS depending on the target processor in the application.
  82:.\Include/arm_math.h ****    * For ARMv8M cores define pre processor MACRO ARM_MATH_ARMV8MBL or ARM_MATH_ARMV8MML.
  83:.\Include/arm_math.h ****    * Set Pre processor MACRO __DSP_PRESENT if ARMv8M Mainline core supports DSP instructions.
  84:.\Include/arm_math.h ****    * 
  85:.\Include/arm_math.h ****    *
  86:.\Include/arm_math.h ****    * Examples
  87:.\Include/arm_math.h ****    * --------
  88:.\Include/arm_math.h ****    *
  89:.\Include/arm_math.h ****    * The library ships with a number of examples which demonstrate how to use the library functions
  90:.\Include/arm_math.h ****    *
  91:.\Include/arm_math.h ****    * Toolchain Support
  92:.\Include/arm_math.h ****    * ------------
  93:.\Include/arm_math.h ****    *
  94:.\Include/arm_math.h ****    * The library has been developed and tested with MDK-ARM version 5.14.0.0
  95:.\Include/arm_math.h ****    * The library is being tested in GCC and IAR toolchains and updates on this activity will be mad
  96:.\Include/arm_math.h ****    *
  97:.\Include/arm_math.h ****    * Building the Library
  98:.\Include/arm_math.h ****    * ------------
  99:.\Include/arm_math.h ****    *
 100:.\Include/arm_math.h ****    * The library installer contains a project file to re build libraries on MDK-ARM Tool chain in t
 101:.\Include/arm_math.h ****    * - arm_cortexM_math.uvprojx
 102:.\Include/arm_math.h ****    *
 103:.\Include/arm_math.h ****    *
ARM GAS  C:\Users\fneves\AppData\Local\Temp\cc8Kqy5I.s 			page 34


 104:.\Include/arm_math.h ****    * The libraries can be built by opening the arm_cortexM_math.uvprojx project in MDK-ARM, selecti
 105:.\Include/arm_math.h ****    *
 106:.\Include/arm_math.h ****    * Pre-processor Macros
 107:.\Include/arm_math.h ****    * ------------
 108:.\Include/arm_math.h ****    *
 109:.\Include/arm_math.h ****    * Each library project have differant pre-processor macros.
 110:.\Include/arm_math.h ****    *
 111:.\Include/arm_math.h ****    * - UNALIGNED_SUPPORT_DISABLE:
 112:.\Include/arm_math.h ****    *
 113:.\Include/arm_math.h ****    * Define macro UNALIGNED_SUPPORT_DISABLE, If the silicon does not support unaligned memory acces
 114:.\Include/arm_math.h ****    *
 115:.\Include/arm_math.h ****    * - ARM_MATH_BIG_ENDIAN:
 116:.\Include/arm_math.h ****    *
 117:.\Include/arm_math.h ****    * Define macro ARM_MATH_BIG_ENDIAN to build the library for big endian targets. By default libra
 118:.\Include/arm_math.h ****    *
 119:.\Include/arm_math.h ****    * - ARM_MATH_MATRIX_CHECK:
 120:.\Include/arm_math.h ****    *
 121:.\Include/arm_math.h ****    * Define macro ARM_MATH_MATRIX_CHECK for checking on the input and output sizes of matrices
 122:.\Include/arm_math.h ****    *
 123:.\Include/arm_math.h ****    * - ARM_MATH_ROUNDING:
 124:.\Include/arm_math.h ****    *
 125:.\Include/arm_math.h ****    * Define macro ARM_MATH_ROUNDING for rounding on support functions
 126:.\Include/arm_math.h ****    *
 127:.\Include/arm_math.h ****    * - ARM_MATH_CMx:
 128:.\Include/arm_math.h ****    *
 129:.\Include/arm_math.h ****    * Define macro ARM_MATH_CM4 for building the library on Cortex-M4 target, ARM_MATH_CM3 for build
 130:.\Include/arm_math.h ****    * and ARM_MATH_CM0 for building library on Cortex-M0 target, ARM_MATH_CM0PLUS for building libra
 131:.\Include/arm_math.h ****    * ARM_MATH_CM7 for building the library on cortex-M7.
 132:.\Include/arm_math.h ****    *
 133:.\Include/arm_math.h ****    * - ARM_MATH_ARMV8MxL:
 134:.\Include/arm_math.h ****    *
 135:.\Include/arm_math.h ****    * Define macro ARM_MATH_ARMV8MBL for building the library on ARMv8M Baseline target, ARM_MATH_AR
 136:.\Include/arm_math.h ****    * on ARMv8M Mainline target.
 137:.\Include/arm_math.h ****    *
 138:.\Include/arm_math.h ****    * - __FPU_PRESENT:
 139:.\Include/arm_math.h ****    *
 140:.\Include/arm_math.h ****    * Initialize macro __FPU_PRESENT = 1 when building on FPU supported Targets. Enable this macro f
 141:.\Include/arm_math.h ****    *
 142:.\Include/arm_math.h ****    * - __DSP_PRESENT:
 143:.\Include/arm_math.h ****    *
 144:.\Include/arm_math.h ****    * Initialize macro __DSP_PRESENT = 1 when ARMv8M Mainline core supports DSP instructions.
 145:.\Include/arm_math.h ****    *
 146:.\Include/arm_math.h ****    * <hr>
 147:.\Include/arm_math.h ****    * CMSIS-DSP in ARM::CMSIS Pack
 148:.\Include/arm_math.h ****    * -----------------------------
 149:.\Include/arm_math.h ****    *
 150:.\Include/arm_math.h ****    * The following files relevant to CMSIS-DSP are present in the <b>ARM::CMSIS</b> Pack directorie
 151:.\Include/arm_math.h ****    * |File/Folder                   |Content                                                       
 152:.\Include/arm_math.h ****    * |------------------------------|--------------------------------------------------------------
 153:.\Include/arm_math.h ****    * |\b CMSIS\\Documentation\\DSP  | This documentation                                           
 154:.\Include/arm_math.h ****    * |\b CMSIS\\DSP_Lib             | Software license agreement (license.txt)                     
 155:.\Include/arm_math.h ****    * |\b CMSIS\\DSP_Lib\\Examples   | Example projects demonstrating the usage of the library funct
 156:.\Include/arm_math.h ****    * |\b CMSIS\\DSP_Lib\\Source     | Source files for rebuilding the library                      
 157:.\Include/arm_math.h ****    *
 158:.\Include/arm_math.h ****    * <hr>
 159:.\Include/arm_math.h ****    * Revision History of CMSIS-DSP
 160:.\Include/arm_math.h ****    * ------------
ARM GAS  C:\Users\fneves\AppData\Local\Temp\cc8Kqy5I.s 			page 35


 161:.\Include/arm_math.h ****    * Please refer to \ref ChangeLog_pg.
 162:.\Include/arm_math.h ****    *
 163:.\Include/arm_math.h ****    * Copyright Notice
 164:.\Include/arm_math.h ****    * ------------
 165:.\Include/arm_math.h ****    *
 166:.\Include/arm_math.h ****    * Copyright (C) 2010-2015 ARM Limited. All rights reserved.
 167:.\Include/arm_math.h ****    */
 168:.\Include/arm_math.h **** 
 169:.\Include/arm_math.h **** 
 170:.\Include/arm_math.h **** /**
 171:.\Include/arm_math.h ****  * @defgroup groupMath Basic Math Functions
 172:.\Include/arm_math.h ****  */
 173:.\Include/arm_math.h **** 
 174:.\Include/arm_math.h **** /**
 175:.\Include/arm_math.h ****  * @defgroup groupFastMath Fast Math Functions
 176:.\Include/arm_math.h ****  * This set of functions provides a fast approximation to sine, cosine, and square root.
 177:.\Include/arm_math.h ****  * As compared to most of the other functions in the CMSIS math library, the fast math functions
 178:.\Include/arm_math.h ****  * operate on individual values and not arrays.
 179:.\Include/arm_math.h ****  * There are separate functions for Q15, Q31, and floating-point data.
 180:.\Include/arm_math.h ****  *
 181:.\Include/arm_math.h ****  */
 182:.\Include/arm_math.h **** 
 183:.\Include/arm_math.h **** /**
 184:.\Include/arm_math.h ****  * @defgroup groupCmplxMath Complex Math Functions
 185:.\Include/arm_math.h ****  * This set of functions operates on complex data vectors.
 186:.\Include/arm_math.h ****  * The data in the complex arrays is stored in an interleaved fashion
 187:.\Include/arm_math.h ****  * (real, imag, real, imag, ...).
 188:.\Include/arm_math.h ****  * In the API functions, the number of samples in a complex array refers
 189:.\Include/arm_math.h ****  * to the number of complex values; the array contains twice this number of
 190:.\Include/arm_math.h ****  * real values.
 191:.\Include/arm_math.h ****  */
 192:.\Include/arm_math.h **** 
 193:.\Include/arm_math.h **** /**
 194:.\Include/arm_math.h ****  * @defgroup groupFilters Filtering Functions
 195:.\Include/arm_math.h ****  */
 196:.\Include/arm_math.h **** 
 197:.\Include/arm_math.h **** /**
 198:.\Include/arm_math.h ****  * @defgroup groupMatrix Matrix Functions
 199:.\Include/arm_math.h ****  *
 200:.\Include/arm_math.h ****  * This set of functions provides basic matrix math operations.
 201:.\Include/arm_math.h ****  * The functions operate on matrix data structures.  For example,
 202:.\Include/arm_math.h ****  * the type
 203:.\Include/arm_math.h ****  * definition for the floating-point matrix structure is shown
 204:.\Include/arm_math.h ****  * below:
 205:.\Include/arm_math.h ****  * <pre>
 206:.\Include/arm_math.h ****  *     typedef struct
 207:.\Include/arm_math.h ****  *     {
 208:.\Include/arm_math.h ****  *       uint16_t numRows;     // number of rows of the matrix.
 209:.\Include/arm_math.h ****  *       uint16_t numCols;     // number of columns of the matrix.
 210:.\Include/arm_math.h ****  *       float32_t *pData;     // points to the data of the matrix.
 211:.\Include/arm_math.h ****  *     } arm_matrix_instance_f32;
 212:.\Include/arm_math.h ****  * </pre>
 213:.\Include/arm_math.h ****  * There are similar definitions for Q15 and Q31 data types.
 214:.\Include/arm_math.h ****  *
 215:.\Include/arm_math.h ****  * The structure specifies the size of the matrix and then points to
 216:.\Include/arm_math.h ****  * an array of data.  The array is of size <code>numRows X numCols</code>
 217:.\Include/arm_math.h ****  * and the values are arranged in row order.  That is, the
ARM GAS  C:\Users\fneves\AppData\Local\Temp\cc8Kqy5I.s 			page 36


 218:.\Include/arm_math.h ****  * matrix element (i, j) is stored at:
 219:.\Include/arm_math.h ****  * <pre>
 220:.\Include/arm_math.h ****  *     pData[i*numCols + j]
 221:.\Include/arm_math.h ****  * </pre>
 222:.\Include/arm_math.h ****  *
 223:.\Include/arm_math.h ****  * \par Init Functions
 224:.\Include/arm_math.h ****  * There is an associated initialization function for each type of matrix
 225:.\Include/arm_math.h ****  * data structure.
 226:.\Include/arm_math.h ****  * The initialization function sets the values of the internal structure fields.
 227:.\Include/arm_math.h ****  * Refer to the function <code>arm_mat_init_f32()</code>, <code>arm_mat_init_q31()</code>
 228:.\Include/arm_math.h ****  * and <code>arm_mat_init_q15()</code> for floating-point, Q31 and Q15 types,  respectively.
 229:.\Include/arm_math.h ****  *
 230:.\Include/arm_math.h ****  * \par
 231:.\Include/arm_math.h ****  * Use of the initialization function is optional. However, if initialization function is used
 232:.\Include/arm_math.h ****  * then the instance structure cannot be placed into a const data section.
 233:.\Include/arm_math.h ****  * To place the instance structure in a const data
 234:.\Include/arm_math.h ****  * section, manually initialize the data structure.  For example:
 235:.\Include/arm_math.h ****  * <pre>
 236:.\Include/arm_math.h ****  * <code>arm_matrix_instance_f32 S = {nRows, nColumns, pData};</code>
 237:.\Include/arm_math.h ****  * <code>arm_matrix_instance_q31 S = {nRows, nColumns, pData};</code>
 238:.\Include/arm_math.h ****  * <code>arm_matrix_instance_q15 S = {nRows, nColumns, pData};</code>
 239:.\Include/arm_math.h ****  * </pre>
 240:.\Include/arm_math.h ****  * where <code>nRows</code> specifies the number of rows, <code>nColumns</code>
 241:.\Include/arm_math.h ****  * specifies the number of columns, and <code>pData</code> points to the
 242:.\Include/arm_math.h ****  * data array.
 243:.\Include/arm_math.h ****  *
 244:.\Include/arm_math.h ****  * \par Size Checking
 245:.\Include/arm_math.h ****  * By default all of the matrix functions perform size checking on the input and
 246:.\Include/arm_math.h ****  * output matrices.  For example, the matrix addition function verifies that the
 247:.\Include/arm_math.h ****  * two input matrices and the output matrix all have the same number of rows and
 248:.\Include/arm_math.h ****  * columns.  If the size check fails the functions return:
 249:.\Include/arm_math.h ****  * <pre>
 250:.\Include/arm_math.h ****  *     ARM_MATH_SIZE_MISMATCH
 251:.\Include/arm_math.h ****  * </pre>
 252:.\Include/arm_math.h ****  * Otherwise the functions return
 253:.\Include/arm_math.h ****  * <pre>
 254:.\Include/arm_math.h ****  *     ARM_MATH_SUCCESS
 255:.\Include/arm_math.h ****  * </pre>
 256:.\Include/arm_math.h ****  * There is some overhead associated with this matrix size checking.
 257:.\Include/arm_math.h ****  * The matrix size checking is enabled via the \#define
 258:.\Include/arm_math.h ****  * <pre>
 259:.\Include/arm_math.h ****  *     ARM_MATH_MATRIX_CHECK
 260:.\Include/arm_math.h ****  * </pre>
 261:.\Include/arm_math.h ****  * within the library project settings.  By default this macro is defined
 262:.\Include/arm_math.h ****  * and size checking is enabled.  By changing the project settings and
 263:.\Include/arm_math.h ****  * undefining this macro size checking is eliminated and the functions
 264:.\Include/arm_math.h ****  * run a bit faster.  With size checking disabled the functions always
 265:.\Include/arm_math.h ****  * return <code>ARM_MATH_SUCCESS</code>.
 266:.\Include/arm_math.h ****  */
 267:.\Include/arm_math.h **** 
 268:.\Include/arm_math.h **** /**
 269:.\Include/arm_math.h ****  * @defgroup groupTransforms Transform Functions
 270:.\Include/arm_math.h ****  */
 271:.\Include/arm_math.h **** 
 272:.\Include/arm_math.h **** /**
 273:.\Include/arm_math.h ****  * @defgroup groupController Controller Functions
 274:.\Include/arm_math.h ****  */
ARM GAS  C:\Users\fneves\AppData\Local\Temp\cc8Kqy5I.s 			page 37


 275:.\Include/arm_math.h **** 
 276:.\Include/arm_math.h **** /**
 277:.\Include/arm_math.h ****  * @defgroup groupStats Statistics Functions
 278:.\Include/arm_math.h ****  */
 279:.\Include/arm_math.h **** /**
 280:.\Include/arm_math.h ****  * @defgroup groupSupport Support Functions
 281:.\Include/arm_math.h ****  */
 282:.\Include/arm_math.h **** 
 283:.\Include/arm_math.h **** /**
 284:.\Include/arm_math.h ****  * @defgroup groupInterpolation Interpolation Functions
 285:.\Include/arm_math.h ****  * These functions perform 1- and 2-dimensional interpolation of data.
 286:.\Include/arm_math.h ****  * Linear interpolation is used for 1-dimensional data and
 287:.\Include/arm_math.h ****  * bilinear interpolation is used for 2-dimensional data.
 288:.\Include/arm_math.h ****  */
 289:.\Include/arm_math.h **** 
 290:.\Include/arm_math.h **** /**
 291:.\Include/arm_math.h ****  * @defgroup groupExamples Examples
 292:.\Include/arm_math.h ****  */
 293:.\Include/arm_math.h **** #ifndef _ARM_MATH_H
 294:.\Include/arm_math.h **** #define _ARM_MATH_H
 295:.\Include/arm_math.h **** 
 296:.\Include/arm_math.h **** /* ignore some GCC warnings */
 297:.\Include/arm_math.h **** #if defined ( __GNUC__ )
 298:.\Include/arm_math.h **** #pragma GCC diagnostic push
 299:.\Include/arm_math.h **** #pragma GCC diagnostic ignored "-Wsign-conversion"
 300:.\Include/arm_math.h **** #pragma GCC diagnostic ignored "-Wconversion"
 301:.\Include/arm_math.h **** #pragma GCC diagnostic ignored "-Wunused-parameter"
 302:.\Include/arm_math.h **** #endif
 303:.\Include/arm_math.h **** 
 304:.\Include/arm_math.h **** #define __CMSIS_GENERIC         /* disable NVIC and Systick functions */
 305:.\Include/arm_math.h **** 
 306:.\Include/arm_math.h **** #if defined(ARM_MATH_CM7)
 307:.\Include/arm_math.h ****   #include "core_cm7.h"
 308:.\Include/arm_math.h ****   #define ARM_MATH_DSP
 309:.\Include/arm_math.h **** #elif defined (ARM_MATH_CM4)
 310:.\Include/arm_math.h ****   #include "core_cm4.h"
 311:.\Include/arm_math.h ****   #define ARM_MATH_DSP
 312:.\Include/arm_math.h **** #elif defined (ARM_MATH_CM3)
 313:.\Include/arm_math.h ****   #include "core_cm3.h"
 314:.\Include/arm_math.h **** #elif defined (ARM_MATH_CM0)
 315:.\Include/arm_math.h ****   #include "core_cm0.h"
 316:.\Include/arm_math.h ****   #define ARM_MATH_CM0_FAMILY
 317:.\Include/arm_math.h **** #elif defined (ARM_MATH_CM0PLUS)
 318:.\Include/arm_math.h ****   #include "core_cm0plus.h"
 319:.\Include/arm_math.h ****   #define ARM_MATH_CM0_FAMILY
 320:.\Include/arm_math.h **** #elif defined (ARM_MATH_ARMV8MBL)
 321:.\Include/arm_math.h ****   #include "core_armv8mbl.h"
 322:.\Include/arm_math.h ****   #define ARM_MATH_CM0_FAMILY
 323:.\Include/arm_math.h **** #elif defined (ARM_MATH_ARMV8MML)
 324:.\Include/arm_math.h ****   #include "core_armv8mml.h"
 325:.\Include/arm_math.h ****   #if (defined (__DSP_PRESENT) && (__DSP_PRESENT == 1))
 326:.\Include/arm_math.h ****     #define ARM_MATH_DSP
 327:.\Include/arm_math.h ****   #endif
 328:.\Include/arm_math.h **** #else
 329:.\Include/arm_math.h ****   #error "Define according the used Cortex core ARM_MATH_CM7, ARM_MATH_CM4, ARM_MATH_CM3, ARM_MATH_
 330:.\Include/arm_math.h **** #endif
 331:.\Include/arm_math.h **** 
ARM GAS  C:\Users\fneves\AppData\Local\Temp\cc8Kqy5I.s 			page 38


 332:.\Include/arm_math.h **** #undef  __CMSIS_GENERIC         /* enable NVIC and Systick functions */
 333:.\Include/arm_math.h **** #include "string.h"
 334:.\Include/arm_math.h **** #include "math.h"
 335:.\Include/arm_math.h **** #ifdef   __cplusplus
 336:.\Include/arm_math.h **** extern "C"
 337:.\Include/arm_math.h **** {
 338:.\Include/arm_math.h **** #endif
 339:.\Include/arm_math.h **** 
 340:.\Include/arm_math.h **** 
 341:.\Include/arm_math.h ****   /**
 342:.\Include/arm_math.h ****    * @brief Macros required for reciprocal calculation in Normalized LMS
 343:.\Include/arm_math.h ****    */
 344:.\Include/arm_math.h **** 
 345:.\Include/arm_math.h **** #define DELTA_Q31          (0x100)
 346:.\Include/arm_math.h **** #define DELTA_Q15          0x5
 347:.\Include/arm_math.h **** #define INDEX_MASK         0x0000003F
 348:.\Include/arm_math.h **** #ifndef PI
 349:.\Include/arm_math.h ****   #define PI               3.14159265358979f
 350:.\Include/arm_math.h **** #endif
 351:.\Include/arm_math.h **** 
 352:.\Include/arm_math.h ****   /**
 353:.\Include/arm_math.h ****    * @brief Macros required for SINE and COSINE Fast math approximations
 354:.\Include/arm_math.h ****    */
 355:.\Include/arm_math.h **** 
 356:.\Include/arm_math.h **** #define FAST_MATH_TABLE_SIZE  512
 357:.\Include/arm_math.h **** #define FAST_MATH_Q31_SHIFT   (32 - 10)
 358:.\Include/arm_math.h **** #define FAST_MATH_Q15_SHIFT   (16 - 10)
 359:.\Include/arm_math.h **** #define CONTROLLER_Q31_SHIFT  (32 - 9)
 360:.\Include/arm_math.h **** #define TABLE_SPACING_Q31     0x400000
 361:.\Include/arm_math.h **** #define TABLE_SPACING_Q15     0x80
 362:.\Include/arm_math.h **** 
 363:.\Include/arm_math.h ****   /**
 364:.\Include/arm_math.h ****    * @brief Macros required for SINE and COSINE Controller functions
 365:.\Include/arm_math.h ****    */
 366:.\Include/arm_math.h ****   /* 1.31(q31) Fixed value of 2/360 */
 367:.\Include/arm_math.h ****   /* -1 to +1 is divided into 360 values so total spacing is (2/360) */
 368:.\Include/arm_math.h **** #define INPUT_SPACING         0xB60B61
 369:.\Include/arm_math.h **** 
 370:.\Include/arm_math.h ****   /**
 371:.\Include/arm_math.h ****    * @brief Macro for Unaligned Support
 372:.\Include/arm_math.h ****    */
 373:.\Include/arm_math.h **** #ifndef UNALIGNED_SUPPORT_DISABLE
 374:.\Include/arm_math.h ****     #define ALIGN4
 375:.\Include/arm_math.h **** #else
 376:.\Include/arm_math.h ****   #if defined  (__GNUC__)
 377:.\Include/arm_math.h ****     #define ALIGN4 __attribute__((aligned(4)))
 378:.\Include/arm_math.h ****   #else
 379:.\Include/arm_math.h ****     #define ALIGN4 __align(4)
 380:.\Include/arm_math.h ****   #endif
 381:.\Include/arm_math.h **** #endif   /* #ifndef UNALIGNED_SUPPORT_DISABLE */
 382:.\Include/arm_math.h **** 
 383:.\Include/arm_math.h ****   /**
 384:.\Include/arm_math.h ****    * @brief Error status returned by some functions in the library.
 385:.\Include/arm_math.h ****    */
 386:.\Include/arm_math.h **** 
 387:.\Include/arm_math.h ****   typedef enum
 388:.\Include/arm_math.h ****   {
ARM GAS  C:\Users\fneves\AppData\Local\Temp\cc8Kqy5I.s 			page 39


 389:.\Include/arm_math.h ****     ARM_MATH_SUCCESS = 0,                /**< No error */
 390:.\Include/arm_math.h ****     ARM_MATH_ARGUMENT_ERROR = -1,        /**< One or more arguments are incorrect */
 391:.\Include/arm_math.h ****     ARM_MATH_LENGTH_ERROR = -2,          /**< Length of data buffer is incorrect */
 392:.\Include/arm_math.h ****     ARM_MATH_SIZE_MISMATCH = -3,         /**< Size of matrices is not compatible with the operation
 393:.\Include/arm_math.h ****     ARM_MATH_NANINF = -4,                /**< Not-a-number (NaN) or infinity is generated */
 394:.\Include/arm_math.h ****     ARM_MATH_SINGULAR = -5,              /**< Generated by matrix inversion if the input matrix is 
 395:.\Include/arm_math.h ****     ARM_MATH_TEST_FAILURE = -6           /**< Test Failed  */
 396:.\Include/arm_math.h ****   } arm_status;
 397:.\Include/arm_math.h **** 
 398:.\Include/arm_math.h ****   /**
 399:.\Include/arm_math.h ****    * @brief 8-bit fractional data type in 1.7 format.
 400:.\Include/arm_math.h ****    */
 401:.\Include/arm_math.h ****   typedef int8_t q7_t;
 402:.\Include/arm_math.h **** 
 403:.\Include/arm_math.h ****   /**
 404:.\Include/arm_math.h ****    * @brief 16-bit fractional data type in 1.15 format.
 405:.\Include/arm_math.h ****    */
 406:.\Include/arm_math.h ****   typedef int16_t q15_t;
 407:.\Include/arm_math.h **** 
 408:.\Include/arm_math.h ****   /**
 409:.\Include/arm_math.h ****    * @brief 32-bit fractional data type in 1.31 format.
 410:.\Include/arm_math.h ****    */
 411:.\Include/arm_math.h ****   typedef int32_t q31_t;
 412:.\Include/arm_math.h **** 
 413:.\Include/arm_math.h ****   /**
 414:.\Include/arm_math.h ****    * @brief 64-bit fractional data type in 1.63 format.
 415:.\Include/arm_math.h ****    */
 416:.\Include/arm_math.h ****   typedef int64_t q63_t;
 417:.\Include/arm_math.h **** 
 418:.\Include/arm_math.h ****   /**
 419:.\Include/arm_math.h ****    * @brief 32-bit floating-point type definition.
 420:.\Include/arm_math.h ****    */
 421:.\Include/arm_math.h ****   typedef float float32_t;
 422:.\Include/arm_math.h **** 
 423:.\Include/arm_math.h ****   /**
 424:.\Include/arm_math.h ****    * @brief 64-bit floating-point type definition.
 425:.\Include/arm_math.h ****    */
 426:.\Include/arm_math.h ****   typedef double float64_t;
 427:.\Include/arm_math.h **** 
 428:.\Include/arm_math.h ****   /**
 429:.\Include/arm_math.h ****    * @brief definition to read/write two 16 bit values.
 430:.\Include/arm_math.h ****    */
 431:.\Include/arm_math.h **** #if   defined ( __CC_ARM )
 432:.\Include/arm_math.h ****   #define __SIMD32_TYPE int32_t __packed
 433:.\Include/arm_math.h ****   #define CMSIS_UNUSED __attribute__((unused))
 434:.\Include/arm_math.h ****   #define CMSIS_INLINE __attribute__((always_inline))
 435:.\Include/arm_math.h **** 
 436:.\Include/arm_math.h **** #elif defined ( __ARMCC_VERSION ) && ( __ARMCC_VERSION >= 6010050 )
 437:.\Include/arm_math.h ****   #define __SIMD32_TYPE int32_t
 438:.\Include/arm_math.h ****   #define CMSIS_UNUSED __attribute__((unused))
 439:.\Include/arm_math.h ****   #define CMSIS_INLINE __attribute__((always_inline))
 440:.\Include/arm_math.h **** 
 441:.\Include/arm_math.h **** #elif defined ( __GNUC__ )
 442:.\Include/arm_math.h ****   #define __SIMD32_TYPE int32_t
 443:.\Include/arm_math.h ****   #define CMSIS_UNUSED __attribute__((unused))
 444:.\Include/arm_math.h ****   #define CMSIS_INLINE __attribute__((always_inline))
 445:.\Include/arm_math.h **** 
ARM GAS  C:\Users\fneves\AppData\Local\Temp\cc8Kqy5I.s 			page 40


 446:.\Include/arm_math.h **** #elif defined ( __ICCARM__ )
 447:.\Include/arm_math.h ****   #define __SIMD32_TYPE int32_t __packed
 448:.\Include/arm_math.h ****   #define CMSIS_UNUSED
 449:.\Include/arm_math.h ****   #define CMSIS_INLINE
 450:.\Include/arm_math.h **** 
 451:.\Include/arm_math.h **** #elif defined ( __TI_ARM__ )
 452:.\Include/arm_math.h ****   #define __SIMD32_TYPE int32_t
 453:.\Include/arm_math.h ****   #define CMSIS_UNUSED __attribute__((unused))
 454:.\Include/arm_math.h ****   #define CMSIS_INLINE
 455:.\Include/arm_math.h **** 
 456:.\Include/arm_math.h **** #elif defined ( __CSMC__ )
 457:.\Include/arm_math.h ****   #define __SIMD32_TYPE int32_t
 458:.\Include/arm_math.h ****   #define CMSIS_UNUSED
 459:.\Include/arm_math.h ****   #define CMSIS_INLINE
 460:.\Include/arm_math.h **** 
 461:.\Include/arm_math.h **** #elif defined ( __TASKING__ )
 462:.\Include/arm_math.h ****   #define __SIMD32_TYPE __unaligned int32_t
 463:.\Include/arm_math.h ****   #define CMSIS_UNUSED
 464:.\Include/arm_math.h ****   #define CMSIS_INLINE
 465:.\Include/arm_math.h **** 
 466:.\Include/arm_math.h **** #else
 467:.\Include/arm_math.h ****   #error Unknown compiler
 468:.\Include/arm_math.h **** #endif
 469:.\Include/arm_math.h **** 
 470:.\Include/arm_math.h **** #define __SIMD32(addr)        (*(__SIMD32_TYPE **) & (addr))
 471:.\Include/arm_math.h **** #define __SIMD32_CONST(addr)  ((__SIMD32_TYPE *)(addr))
 472:.\Include/arm_math.h **** #define _SIMD32_OFFSET(addr)  (*(__SIMD32_TYPE *)  (addr))
 473:.\Include/arm_math.h **** #define __SIMD64(addr)        (*(int64_t **) & (addr))
 474:.\Include/arm_math.h **** 
 475:.\Include/arm_math.h **** /* #if defined (ARM_MATH_CM3) || defined (ARM_MATH_CM0_FAMILY) */
 476:.\Include/arm_math.h **** #if !defined (ARM_MATH_DSP)
 477:.\Include/arm_math.h ****   /**
 478:.\Include/arm_math.h ****    * @brief definition to pack two 16 bit values.
 479:.\Include/arm_math.h ****    */
 480:.\Include/arm_math.h **** #define __PKHBT(ARG1, ARG2, ARG3) ( (((int32_t)(ARG1) <<    0) & (int32_t)0x0000FFFF) | \
 481:.\Include/arm_math.h ****                                     (((int32_t)(ARG2) << ARG3) & (int32_t)0xFFFF0000)  )
 482:.\Include/arm_math.h **** #define __PKHTB(ARG1, ARG2, ARG3) ( (((int32_t)(ARG1) <<    0) & (int32_t)0xFFFF0000) | \
 483:.\Include/arm_math.h ****                                     (((int32_t)(ARG2) >> ARG3) & (int32_t)0x0000FFFF)  )
 484:.\Include/arm_math.h **** 
 485:.\Include/arm_math.h **** /* #endif // defined (ARM_MATH_CM3) || defined (ARM_MATH_CM0_FAMILY) */
 486:.\Include/arm_math.h **** #endif /* !defined (ARM_MATH_DSP) */
 487:.\Include/arm_math.h **** 
 488:.\Include/arm_math.h ****    /**
 489:.\Include/arm_math.h ****    * @brief definition to pack four 8 bit values.
 490:.\Include/arm_math.h ****    */
 491:.\Include/arm_math.h **** #ifndef ARM_MATH_BIG_ENDIAN
 492:.\Include/arm_math.h **** 
 493:.\Include/arm_math.h **** #define __PACKq7(v0,v1,v2,v3) ( (((int32_t)(v0) <<  0) & (int32_t)0x000000FF) | \
 494:.\Include/arm_math.h ****                                 (((int32_t)(v1) <<  8) & (int32_t)0x0000FF00) | \
 495:.\Include/arm_math.h ****                                 (((int32_t)(v2) << 16) & (int32_t)0x00FF0000) | \
 496:.\Include/arm_math.h ****                                 (((int32_t)(v3) << 24) & (int32_t)0xFF000000)  )
 497:.\Include/arm_math.h **** #else
 498:.\Include/arm_math.h **** 
 499:.\Include/arm_math.h **** #define __PACKq7(v0,v1,v2,v3) ( (((int32_t)(v3) <<  0) & (int32_t)0x000000FF) | \
 500:.\Include/arm_math.h ****                                 (((int32_t)(v2) <<  8) & (int32_t)0x0000FF00) | \
 501:.\Include/arm_math.h ****                                 (((int32_t)(v1) << 16) & (int32_t)0x00FF0000) | \
 502:.\Include/arm_math.h ****                                 (((int32_t)(v0) << 24) & (int32_t)0xFF000000)  )
ARM GAS  C:\Users\fneves\AppData\Local\Temp\cc8Kqy5I.s 			page 41


 503:.\Include/arm_math.h **** 
 504:.\Include/arm_math.h **** #endif
 505:.\Include/arm_math.h **** 
 506:.\Include/arm_math.h **** 
 507:.\Include/arm_math.h ****   /**
 508:.\Include/arm_math.h ****    * @brief Clips Q63 to Q31 values.
 509:.\Include/arm_math.h ****    */
 510:.\Include/arm_math.h ****   CMSIS_INLINE __STATIC_INLINE q31_t clip_q63_to_q31(
 511:.\Include/arm_math.h ****   q63_t x)
 512:.\Include/arm_math.h ****   {
 513:.\Include/arm_math.h ****     return ((q31_t) (x >> 32) != ((q31_t) x >> 31)) ?
 514:.\Include/arm_math.h ****       ((0x7FFFFFFF ^ ((q31_t) (x >> 63)))) : (q31_t) x;
 515:.\Include/arm_math.h ****   }
 516:.\Include/arm_math.h **** 
 517:.\Include/arm_math.h ****   /**
 518:.\Include/arm_math.h ****    * @brief Clips Q63 to Q15 values.
 519:.\Include/arm_math.h ****    */
 520:.\Include/arm_math.h ****   CMSIS_INLINE __STATIC_INLINE q15_t clip_q63_to_q15(
 521:.\Include/arm_math.h ****   q63_t x)
 522:.\Include/arm_math.h ****   {
 523:.\Include/arm_math.h ****     return ((q31_t) (x >> 32) != ((q31_t) x >> 31)) ?
 524:.\Include/arm_math.h ****       ((0x7FFF ^ ((q15_t) (x >> 63)))) : (q15_t) (x >> 15);
 525:.\Include/arm_math.h ****   }
 526:.\Include/arm_math.h **** 
 527:.\Include/arm_math.h ****   /**
 528:.\Include/arm_math.h ****    * @brief Clips Q31 to Q7 values.
 529:.\Include/arm_math.h ****    */
 530:.\Include/arm_math.h ****   CMSIS_INLINE __STATIC_INLINE q7_t clip_q31_to_q7(
 531:.\Include/arm_math.h ****   q31_t x)
 532:.\Include/arm_math.h ****   {
 533:.\Include/arm_math.h ****     return ((q31_t) (x >> 24) != ((q31_t) x >> 23)) ?
 534:.\Include/arm_math.h ****       ((0x7F ^ ((q7_t) (x >> 31)))) : (q7_t) x;
 535:.\Include/arm_math.h ****   }
 536:.\Include/arm_math.h **** 
 537:.\Include/arm_math.h ****   /**
 538:.\Include/arm_math.h ****    * @brief Clips Q31 to Q15 values.
 539:.\Include/arm_math.h ****    */
 540:.\Include/arm_math.h ****   CMSIS_INLINE __STATIC_INLINE q15_t clip_q31_to_q15(
 541:.\Include/arm_math.h ****   q31_t x)
 542:.\Include/arm_math.h ****   {
 543:.\Include/arm_math.h ****     return ((q31_t) (x >> 16) != ((q31_t) x >> 15)) ?
 544:.\Include/arm_math.h ****       ((0x7FFF ^ ((q15_t) (x >> 31)))) : (q15_t) x;
 545:.\Include/arm_math.h ****   }
 546:.\Include/arm_math.h **** 
 547:.\Include/arm_math.h ****   /**
 548:.\Include/arm_math.h ****    * @brief Multiplies 32 X 64 and returns 32 bit result in 2.30 format.
 549:.\Include/arm_math.h ****    */
 550:.\Include/arm_math.h **** 
 551:.\Include/arm_math.h ****   CMSIS_INLINE __STATIC_INLINE q63_t mult32x64(
 552:.\Include/arm_math.h ****   q63_t x,
 553:.\Include/arm_math.h ****   q31_t y)
 554:.\Include/arm_math.h ****   {
 555:.\Include/arm_math.h ****     return ((((q63_t) (x & 0x00000000FFFFFFFF) * y) >> 32) +
 556:.\Include/arm_math.h ****             (((q63_t) (x >> 32) * y)));
 557:.\Include/arm_math.h ****   }
 558:.\Include/arm_math.h **** 
 559:.\Include/arm_math.h **** /*
ARM GAS  C:\Users\fneves\AppData\Local\Temp\cc8Kqy5I.s 			page 42


 560:.\Include/arm_math.h ****   #if defined (ARM_MATH_CM0_FAMILY) && defined ( __CC_ARM   )
 561:.\Include/arm_math.h ****   #define __CLZ __clz
 562:.\Include/arm_math.h ****   #endif
 563:.\Include/arm_math.h ****  */
 564:.\Include/arm_math.h **** /* note: function can be removed when all toolchain support __CLZ for Cortex-M0 */
 565:.\Include/arm_math.h **** #if defined (ARM_MATH_CM0_FAMILY) && ((defined (__ICCARM__))  )
 566:.\Include/arm_math.h ****   CMSIS_INLINE __STATIC_INLINE uint32_t __CLZ(
 567:.\Include/arm_math.h ****   q31_t data);
 568:.\Include/arm_math.h **** 
 569:.\Include/arm_math.h ****   CMSIS_INLINE __STATIC_INLINE uint32_t __CLZ(
 570:.\Include/arm_math.h ****   q31_t data)
 571:.\Include/arm_math.h ****   {
 572:.\Include/arm_math.h ****     uint32_t count = 0;
 573:.\Include/arm_math.h ****     uint32_t mask = 0x80000000;
 574:.\Include/arm_math.h **** 
 575:.\Include/arm_math.h ****     while ((data & mask) == 0)
 576:.\Include/arm_math.h ****     {
 577:.\Include/arm_math.h ****       count += 1u;
 578:.\Include/arm_math.h ****       mask = mask >> 1u;
 579:.\Include/arm_math.h ****     }
 580:.\Include/arm_math.h **** 
 581:.\Include/arm_math.h ****     return (count);
 582:.\Include/arm_math.h ****   }
 583:.\Include/arm_math.h **** #endif
 584:.\Include/arm_math.h **** 
 585:.\Include/arm_math.h ****   /**
 586:.\Include/arm_math.h ****    * @brief Function to Calculates 1/in (reciprocal) value of Q31 Data type.
 587:.\Include/arm_math.h ****    */
 588:.\Include/arm_math.h **** 
 589:.\Include/arm_math.h ****   CMSIS_INLINE __STATIC_INLINE uint32_t arm_recip_q31(
 590:.\Include/arm_math.h ****   q31_t in,
 591:.\Include/arm_math.h ****   q31_t * dst,
 592:.\Include/arm_math.h ****   q31_t * pRecipTable)
 593:.\Include/arm_math.h ****   {
 594:.\Include/arm_math.h ****     q31_t out;
 595:.\Include/arm_math.h ****     uint32_t tempVal;
 596:.\Include/arm_math.h ****     uint32_t index, i;
 597:.\Include/arm_math.h ****     uint32_t signBits;
 598:.\Include/arm_math.h **** 
 599:.\Include/arm_math.h ****     if (in > 0)
 600:.\Include/arm_math.h ****     {
 601:.\Include/arm_math.h ****       signBits = ((uint32_t) (__CLZ( in) - 1));
 602:.\Include/arm_math.h ****     }
 603:.\Include/arm_math.h ****     else
 604:.\Include/arm_math.h ****     {
 605:.\Include/arm_math.h ****       signBits = ((uint32_t) (__CLZ(-in) - 1));
 606:.\Include/arm_math.h ****     }
 607:.\Include/arm_math.h **** 
 608:.\Include/arm_math.h ****     /* Convert input sample to 1.31 format */
 609:.\Include/arm_math.h ****     in = (in << signBits);
 610:.\Include/arm_math.h **** 
 611:.\Include/arm_math.h ****     /* calculation of index for initial approximated Val */
 612:.\Include/arm_math.h ****     index = (uint32_t)(in >> 24);
 613:.\Include/arm_math.h ****     index = (index & INDEX_MASK);
 614:.\Include/arm_math.h **** 
 615:.\Include/arm_math.h ****     /* 1.31 with exp 1 */
 616:.\Include/arm_math.h ****     out = pRecipTable[index];
ARM GAS  C:\Users\fneves\AppData\Local\Temp\cc8Kqy5I.s 			page 43


 617:.\Include/arm_math.h **** 
 618:.\Include/arm_math.h ****     /* calculation of reciprocal value */
 619:.\Include/arm_math.h ****     /* running approximation for two iterations */
 620:.\Include/arm_math.h ****     for (i = 0u; i < 2u; i++)
 621:.\Include/arm_math.h ****     {
 622:.\Include/arm_math.h ****       tempVal = (uint32_t) (((q63_t) in * out) >> 31);
 623:.\Include/arm_math.h ****       tempVal = 0x7FFFFFFFu - tempVal;
 624:.\Include/arm_math.h ****       /*      1.31 with exp 1 */
 625:.\Include/arm_math.h ****       /* out = (q31_t) (((q63_t) out * tempVal) >> 30); */
 626:.\Include/arm_math.h ****       out = clip_q63_to_q31(((q63_t) out * tempVal) >> 30);
 627:.\Include/arm_math.h ****     }
 628:.\Include/arm_math.h **** 
 629:.\Include/arm_math.h ****     /* write output */
 630:.\Include/arm_math.h ****     *dst = out;
 631:.\Include/arm_math.h **** 
 632:.\Include/arm_math.h ****     /* return num of signbits of out = 1/in value */
 633:.\Include/arm_math.h ****     return (signBits + 1u);
 634:.\Include/arm_math.h ****   }
 635:.\Include/arm_math.h **** 
 636:.\Include/arm_math.h **** 
 637:.\Include/arm_math.h ****   /**
 638:.\Include/arm_math.h ****    * @brief Function to Calculates 1/in (reciprocal) value of Q15 Data type.
 639:.\Include/arm_math.h ****    */
 640:.\Include/arm_math.h ****   CMSIS_INLINE __STATIC_INLINE uint32_t arm_recip_q15(
 641:.\Include/arm_math.h ****   q15_t in,
 642:.\Include/arm_math.h ****   q15_t * dst,
 643:.\Include/arm_math.h ****   q15_t * pRecipTable)
 644:.\Include/arm_math.h ****   {
 645:.\Include/arm_math.h ****     q15_t out = 0;
 646:.\Include/arm_math.h ****     uint32_t tempVal = 0;
 647:.\Include/arm_math.h ****     uint32_t index = 0, i = 0;
 648:.\Include/arm_math.h ****     uint32_t signBits = 0;
 649:.\Include/arm_math.h **** 
 650:.\Include/arm_math.h ****     if (in > 0)
 651:.\Include/arm_math.h ****     {
 652:.\Include/arm_math.h ****       signBits = ((uint32_t)(__CLZ( in) - 17));
 653:.\Include/arm_math.h ****     }
 654:.\Include/arm_math.h ****     else
 655:.\Include/arm_math.h ****     {
 656:.\Include/arm_math.h ****       signBits = ((uint32_t)(__CLZ(-in) - 17));
 657:.\Include/arm_math.h ****     }
 658:.\Include/arm_math.h **** 
 659:.\Include/arm_math.h ****     /* Convert input sample to 1.15 format */
 660:.\Include/arm_math.h ****     in = (in << signBits);
 661:.\Include/arm_math.h **** 
 662:.\Include/arm_math.h ****     /* calculation of index for initial approximated Val */
 663:.\Include/arm_math.h ****     index = (uint32_t)(in >>  8);
 664:.\Include/arm_math.h ****     index = (index & INDEX_MASK);
 665:.\Include/arm_math.h **** 
 666:.\Include/arm_math.h ****     /*      1.15 with exp 1  */
 667:.\Include/arm_math.h ****     out = pRecipTable[index];
 668:.\Include/arm_math.h **** 
 669:.\Include/arm_math.h ****     /* calculation of reciprocal value */
 670:.\Include/arm_math.h ****     /* running approximation for two iterations */
 671:.\Include/arm_math.h ****     for (i = 0u; i < 2u; i++)
 672:.\Include/arm_math.h ****     {
 673:.\Include/arm_math.h ****       tempVal = (uint32_t) (((q31_t) in * out) >> 15);
ARM GAS  C:\Users\fneves\AppData\Local\Temp\cc8Kqy5I.s 			page 44


 674:.\Include/arm_math.h ****       tempVal = 0x7FFFu - tempVal;
 675:.\Include/arm_math.h ****       /*      1.15 with exp 1 */
 676:.\Include/arm_math.h ****       out = (q15_t) (((q31_t) out * tempVal) >> 14);
 677:.\Include/arm_math.h ****       /* out = clip_q31_to_q15(((q31_t) out * tempVal) >> 14); */
 678:.\Include/arm_math.h ****     }
 679:.\Include/arm_math.h **** 
 680:.\Include/arm_math.h ****     /* write output */
 681:.\Include/arm_math.h ****     *dst = out;
 682:.\Include/arm_math.h **** 
 683:.\Include/arm_math.h ****     /* return num of signbits of out = 1/in value */
 684:.\Include/arm_math.h ****     return (signBits + 1);
 685:.\Include/arm_math.h ****   }
 686:.\Include/arm_math.h **** 
 687:.\Include/arm_math.h **** 
 688:.\Include/arm_math.h ****   /*
 689:.\Include/arm_math.h ****    * @brief C custom defined intrinisic function for only M0 processors
 690:.\Include/arm_math.h ****    */
 691:.\Include/arm_math.h **** #if defined(ARM_MATH_CM0_FAMILY)
 692:.\Include/arm_math.h ****   CMSIS_INLINE __STATIC_INLINE q31_t __SSAT(
 693:.\Include/arm_math.h ****   q31_t x,
 694:.\Include/arm_math.h ****   uint32_t y)
 695:.\Include/arm_math.h ****   {
 696:.\Include/arm_math.h ****     int32_t posMax, negMin;
 697:.\Include/arm_math.h ****     uint32_t i;
 698:.\Include/arm_math.h **** 
 699:.\Include/arm_math.h ****     posMax = 1;
 700:.\Include/arm_math.h ****     for (i = 0; i < (y - 1); i++)
 701:.\Include/arm_math.h ****     {
 702:.\Include/arm_math.h ****       posMax = posMax * 2;
 703:.\Include/arm_math.h ****     }
 704:.\Include/arm_math.h **** 
 705:.\Include/arm_math.h ****     if (x > 0)
 706:.\Include/arm_math.h ****     {
 707:.\Include/arm_math.h ****       posMax = (posMax - 1);
 708:.\Include/arm_math.h **** 
 709:.\Include/arm_math.h ****       if (x > posMax)
 710:.\Include/arm_math.h ****       {
 711:.\Include/arm_math.h ****         x = posMax;
 712:.\Include/arm_math.h ****       }
 713:.\Include/arm_math.h ****     }
 714:.\Include/arm_math.h ****     else
 715:.\Include/arm_math.h ****     {
 716:.\Include/arm_math.h ****       negMin = -posMax;
 717:.\Include/arm_math.h **** 
 718:.\Include/arm_math.h ****       if (x < negMin)
 719:.\Include/arm_math.h ****       {
 720:.\Include/arm_math.h ****         x = negMin;
 721:.\Include/arm_math.h ****       }
 722:.\Include/arm_math.h ****     }
 723:.\Include/arm_math.h ****     return (x);
 724:.\Include/arm_math.h ****   }
 725:.\Include/arm_math.h **** #endif /* end of ARM_MATH_CM0_FAMILY */
 726:.\Include/arm_math.h **** 
 727:.\Include/arm_math.h **** 
 728:.\Include/arm_math.h ****   /*
 729:.\Include/arm_math.h ****    * @brief C custom defined intrinsic function for M3 and M0 processors
 730:.\Include/arm_math.h ****    */
ARM GAS  C:\Users\fneves\AppData\Local\Temp\cc8Kqy5I.s 			page 45


 731:.\Include/arm_math.h **** /* #if defined (ARM_MATH_CM3) || defined (ARM_MATH_CM0_FAMILY) */
 732:.\Include/arm_math.h **** #if !defined (ARM_MATH_DSP)
 733:.\Include/arm_math.h **** 
 734:.\Include/arm_math.h ****   /*
 735:.\Include/arm_math.h ****    * @brief C custom defined QADD8 for M3 and M0 processors
 736:.\Include/arm_math.h ****    */
 737:.\Include/arm_math.h ****   CMSIS_INLINE __STATIC_INLINE uint32_t __QADD8(
 738:.\Include/arm_math.h ****   uint32_t x,
 739:.\Include/arm_math.h ****   uint32_t y)
 740:.\Include/arm_math.h ****   {
 741:.\Include/arm_math.h ****     q31_t r, s, t, u;
 742:.\Include/arm_math.h **** 
 743:.\Include/arm_math.h ****     r = __SSAT(((((q31_t)x << 24) >> 24) + (((q31_t)y << 24) >> 24)), 8) & (int32_t)0x000000FF;
 744:.\Include/arm_math.h ****     s = __SSAT(((((q31_t)x << 16) >> 24) + (((q31_t)y << 16) >> 24)), 8) & (int32_t)0x000000FF;
 745:.\Include/arm_math.h ****     t = __SSAT(((((q31_t)x <<  8) >> 24) + (((q31_t)y <<  8) >> 24)), 8) & (int32_t)0x000000FF;
 746:.\Include/arm_math.h ****     u = __SSAT(((((q31_t)x      ) >> 24) + (((q31_t)y      ) >> 24)), 8) & (int32_t)0x000000FF;
 747:.\Include/arm_math.h **** 
 748:.\Include/arm_math.h ****     return ((uint32_t)((u << 24) | (t << 16) | (s <<  8) | (r      )));
 749:.\Include/arm_math.h ****   }
 750:.\Include/arm_math.h **** 
 751:.\Include/arm_math.h **** 
 752:.\Include/arm_math.h ****   /*
 753:.\Include/arm_math.h ****    * @brief C custom defined QSUB8 for M3 and M0 processors
 754:.\Include/arm_math.h ****    */
 755:.\Include/arm_math.h ****   CMSIS_INLINE __STATIC_INLINE uint32_t __QSUB8(
 756:.\Include/arm_math.h ****   uint32_t x,
 757:.\Include/arm_math.h ****   uint32_t y)
 758:.\Include/arm_math.h ****   {
 759:.\Include/arm_math.h ****     q31_t r, s, t, u;
 760:.\Include/arm_math.h **** 
 761:.\Include/arm_math.h ****     r = __SSAT(((((q31_t)x << 24) >> 24) - (((q31_t)y << 24) >> 24)), 8) & (int32_t)0x000000FF;
 762:.\Include/arm_math.h ****     s = __SSAT(((((q31_t)x << 16) >> 24) - (((q31_t)y << 16) >> 24)), 8) & (int32_t)0x000000FF;
 763:.\Include/arm_math.h ****     t = __SSAT(((((q31_t)x <<  8) >> 24) - (((q31_t)y <<  8) >> 24)), 8) & (int32_t)0x000000FF;
 764:.\Include/arm_math.h ****     u = __SSAT(((((q31_t)x      ) >> 24) - (((q31_t)y      ) >> 24)), 8) & (int32_t)0x000000FF;
 765:.\Include/arm_math.h **** 
 766:.\Include/arm_math.h ****     return ((uint32_t)((u << 24) | (t << 16) | (s <<  8) | (r      )));
 767:.\Include/arm_math.h ****   }
 768:.\Include/arm_math.h **** 
 769:.\Include/arm_math.h **** 
 770:.\Include/arm_math.h ****   /*
 771:.\Include/arm_math.h ****    * @brief C custom defined QADD16 for M3 and M0 processors
 772:.\Include/arm_math.h ****    */
 773:.\Include/arm_math.h ****   CMSIS_INLINE __STATIC_INLINE uint32_t __QADD16(
 774:.\Include/arm_math.h ****   uint32_t x,
 775:.\Include/arm_math.h ****   uint32_t y)
 776:.\Include/arm_math.h ****   {
 777:.\Include/arm_math.h **** /*  q31_t r,     s;  without initialisation 'arm_offset_q15 test' fails  but 'intrinsic' tests pass
 778:.\Include/arm_math.h ****     q31_t r = 0, s = 0;
 779:.\Include/arm_math.h **** 
 780:.\Include/arm_math.h ****     r = __SSAT(((((q31_t)x << 16) >> 16) + (((q31_t)y << 16) >> 16)), 16) & (int32_t)0x0000FFFF;
 781:.\Include/arm_math.h ****     s = __SSAT(((((q31_t)x      ) >> 16) + (((q31_t)y      ) >> 16)), 16) & (int32_t)0x0000FFFF;
 782:.\Include/arm_math.h **** 
 783:.\Include/arm_math.h ****     return ((uint32_t)((s << 16) | (r      )));
 784:.\Include/arm_math.h ****   }
 785:.\Include/arm_math.h **** 
 786:.\Include/arm_math.h **** 
 787:.\Include/arm_math.h ****   /*
ARM GAS  C:\Users\fneves\AppData\Local\Temp\cc8Kqy5I.s 			page 46


 788:.\Include/arm_math.h ****    * @brief C custom defined SHADD16 for M3 and M0 processors
 789:.\Include/arm_math.h ****    */
 790:.\Include/arm_math.h ****   CMSIS_INLINE __STATIC_INLINE uint32_t __SHADD16(
 791:.\Include/arm_math.h ****   uint32_t x,
 792:.\Include/arm_math.h ****   uint32_t y)
 793:.\Include/arm_math.h ****   {
 794:.\Include/arm_math.h ****     q31_t r, s;
 795:.\Include/arm_math.h **** 
 796:.\Include/arm_math.h ****     r = (((((q31_t)x << 16) >> 16) + (((q31_t)y << 16) >> 16)) >> 1) & (int32_t)0x0000FFFF;
 797:.\Include/arm_math.h ****     s = (((((q31_t)x      ) >> 16) + (((q31_t)y      ) >> 16)) >> 1) & (int32_t)0x0000FFFF;
 798:.\Include/arm_math.h **** 
 799:.\Include/arm_math.h ****     return ((uint32_t)((s << 16) | (r      )));
 800:.\Include/arm_math.h ****   }
 801:.\Include/arm_math.h **** 
 802:.\Include/arm_math.h **** 
 803:.\Include/arm_math.h ****   /*
 804:.\Include/arm_math.h ****    * @brief C custom defined QSUB16 for M3 and M0 processors
 805:.\Include/arm_math.h ****    */
 806:.\Include/arm_math.h ****   CMSIS_INLINE __STATIC_INLINE uint32_t __QSUB16(
 807:.\Include/arm_math.h ****   uint32_t x,
 808:.\Include/arm_math.h ****   uint32_t y)
 809:.\Include/arm_math.h ****   {
 810:.\Include/arm_math.h ****     q31_t r, s;
 811:.\Include/arm_math.h **** 
 812:.\Include/arm_math.h ****     r = __SSAT(((((q31_t)x << 16) >> 16) - (((q31_t)y << 16) >> 16)), 16) & (int32_t)0x0000FFFF;
 813:.\Include/arm_math.h ****     s = __SSAT(((((q31_t)x      ) >> 16) - (((q31_t)y      ) >> 16)), 16) & (int32_t)0x0000FFFF;
 814:.\Include/arm_math.h **** 
 815:.\Include/arm_math.h ****     return ((uint32_t)((s << 16) | (r      )));
 816:.\Include/arm_math.h ****   }
 817:.\Include/arm_math.h **** 
 818:.\Include/arm_math.h **** 
 819:.\Include/arm_math.h ****   /*
 820:.\Include/arm_math.h ****    * @brief C custom defined SHSUB16 for M3 and M0 processors
 821:.\Include/arm_math.h ****    */
 822:.\Include/arm_math.h ****   CMSIS_INLINE __STATIC_INLINE uint32_t __SHSUB16(
 823:.\Include/arm_math.h ****   uint32_t x,
 824:.\Include/arm_math.h ****   uint32_t y)
 825:.\Include/arm_math.h ****   {
 826:.\Include/arm_math.h ****     q31_t r, s;
 827:.\Include/arm_math.h **** 
 828:.\Include/arm_math.h ****     r = (((((q31_t)x << 16) >> 16) - (((q31_t)y << 16) >> 16)) >> 1) & (int32_t)0x0000FFFF;
 829:.\Include/arm_math.h ****     s = (((((q31_t)x      ) >> 16) - (((q31_t)y      ) >> 16)) >> 1) & (int32_t)0x0000FFFF;
 830:.\Include/arm_math.h **** 
 831:.\Include/arm_math.h ****     return ((uint32_t)((s << 16) | (r      )));
 832:.\Include/arm_math.h ****   }
 833:.\Include/arm_math.h **** 
 834:.\Include/arm_math.h **** 
 835:.\Include/arm_math.h ****   /*
 836:.\Include/arm_math.h ****    * @brief C custom defined QASX for M3 and M0 processors
 837:.\Include/arm_math.h ****    */
 838:.\Include/arm_math.h ****   CMSIS_INLINE __STATIC_INLINE uint32_t __QASX(
 839:.\Include/arm_math.h ****   uint32_t x,
 840:.\Include/arm_math.h ****   uint32_t y)
 841:.\Include/arm_math.h ****   {
 842:.\Include/arm_math.h ****     q31_t r, s;
 843:.\Include/arm_math.h **** 
 844:.\Include/arm_math.h ****     r = __SSAT(((((q31_t)x << 16) >> 16) - (((q31_t)y      ) >> 16)), 16) & (int32_t)0x0000FFFF;
ARM GAS  C:\Users\fneves\AppData\Local\Temp\cc8Kqy5I.s 			page 47


 845:.\Include/arm_math.h ****     s = __SSAT(((((q31_t)x      ) >> 16) + (((q31_t)y << 16) >> 16)), 16) & (int32_t)0x0000FFFF;
 846:.\Include/arm_math.h **** 
 847:.\Include/arm_math.h ****     return ((uint32_t)((s << 16) | (r      )));
 848:.\Include/arm_math.h ****   }
 849:.\Include/arm_math.h **** 
 850:.\Include/arm_math.h **** 
 851:.\Include/arm_math.h ****   /*
 852:.\Include/arm_math.h ****    * @brief C custom defined SHASX for M3 and M0 processors
 853:.\Include/arm_math.h ****    */
 854:.\Include/arm_math.h ****   CMSIS_INLINE __STATIC_INLINE uint32_t __SHASX(
 855:.\Include/arm_math.h ****   uint32_t x,
 856:.\Include/arm_math.h ****   uint32_t y)
 857:.\Include/arm_math.h ****   {
 858:.\Include/arm_math.h ****     q31_t r, s;
 859:.\Include/arm_math.h **** 
 860:.\Include/arm_math.h ****     r = (((((q31_t)x << 16) >> 16) - (((q31_t)y      ) >> 16)) >> 1) & (int32_t)0x0000FFFF;
 861:.\Include/arm_math.h ****     s = (((((q31_t)x      ) >> 16) + (((q31_t)y << 16) >> 16)) >> 1) & (int32_t)0x0000FFFF;
 862:.\Include/arm_math.h **** 
 863:.\Include/arm_math.h ****     return ((uint32_t)((s << 16) | (r      )));
 864:.\Include/arm_math.h ****   }
 865:.\Include/arm_math.h **** 
 866:.\Include/arm_math.h **** 
 867:.\Include/arm_math.h ****   /*
 868:.\Include/arm_math.h ****    * @brief C custom defined QSAX for M3 and M0 processors
 869:.\Include/arm_math.h ****    */
 870:.\Include/arm_math.h ****   CMSIS_INLINE __STATIC_INLINE uint32_t __QSAX(
 871:.\Include/arm_math.h ****   uint32_t x,
 872:.\Include/arm_math.h ****   uint32_t y)
 873:.\Include/arm_math.h ****   {
 874:.\Include/arm_math.h ****     q31_t r, s;
 875:.\Include/arm_math.h **** 
 876:.\Include/arm_math.h ****     r = __SSAT(((((q31_t)x << 16) >> 16) + (((q31_t)y      ) >> 16)), 16) & (int32_t)0x0000FFFF;
 877:.\Include/arm_math.h ****     s = __SSAT(((((q31_t)x      ) >> 16) - (((q31_t)y << 16) >> 16)), 16) & (int32_t)0x0000FFFF;
 878:.\Include/arm_math.h **** 
 879:.\Include/arm_math.h ****     return ((uint32_t)((s << 16) | (r      )));
 880:.\Include/arm_math.h ****   }
 881:.\Include/arm_math.h **** 
 882:.\Include/arm_math.h **** 
 883:.\Include/arm_math.h ****   /*
 884:.\Include/arm_math.h ****    * @brief C custom defined SHSAX for M3 and M0 processors
 885:.\Include/arm_math.h ****    */
 886:.\Include/arm_math.h ****   CMSIS_INLINE __STATIC_INLINE uint32_t __SHSAX(
 887:.\Include/arm_math.h ****   uint32_t x,
 888:.\Include/arm_math.h ****   uint32_t y)
 889:.\Include/arm_math.h ****   {
 890:.\Include/arm_math.h ****     q31_t r, s;
 891:.\Include/arm_math.h **** 
 892:.\Include/arm_math.h ****     r = (((((q31_t)x << 16) >> 16) + (((q31_t)y      ) >> 16)) >> 1) & (int32_t)0x0000FFFF;
 893:.\Include/arm_math.h ****     s = (((((q31_t)x      ) >> 16) - (((q31_t)y << 16) >> 16)) >> 1) & (int32_t)0x0000FFFF;
 894:.\Include/arm_math.h **** 
 895:.\Include/arm_math.h ****     return ((uint32_t)((s << 16) | (r      )));
 896:.\Include/arm_math.h ****   }
 897:.\Include/arm_math.h **** 
 898:.\Include/arm_math.h **** 
 899:.\Include/arm_math.h ****   /*
 900:.\Include/arm_math.h ****    * @brief C custom defined SMUSDX for M3 and M0 processors
 901:.\Include/arm_math.h ****    */
ARM GAS  C:\Users\fneves\AppData\Local\Temp\cc8Kqy5I.s 			page 48


 902:.\Include/arm_math.h ****   CMSIS_INLINE __STATIC_INLINE uint32_t __SMUSDX(
 903:.\Include/arm_math.h ****   uint32_t x,
 904:.\Include/arm_math.h ****   uint32_t y)
 905:.\Include/arm_math.h ****   {
 906:.\Include/arm_math.h ****     return ((uint32_t)(((((q31_t)x << 16) >> 16) * (((q31_t)y      ) >> 16)) -
 907:.\Include/arm_math.h ****                        ((((q31_t)x      ) >> 16) * (((q31_t)y << 16) >> 16))   ));
 908:.\Include/arm_math.h ****   }
 909:.\Include/arm_math.h **** 
 910:.\Include/arm_math.h ****   /*
 911:.\Include/arm_math.h ****    * @brief C custom defined SMUADX for M3 and M0 processors
 912:.\Include/arm_math.h ****    */
 913:.\Include/arm_math.h ****   CMSIS_INLINE __STATIC_INLINE uint32_t __SMUADX(
 914:.\Include/arm_math.h ****   uint32_t x,
 915:.\Include/arm_math.h ****   uint32_t y)
 916:.\Include/arm_math.h ****   {
 917:.\Include/arm_math.h ****     return ((uint32_t)(((((q31_t)x << 16) >> 16) * (((q31_t)y      ) >> 16)) +
 918:.\Include/arm_math.h ****                        ((((q31_t)x      ) >> 16) * (((q31_t)y << 16) >> 16))   ));
 919:.\Include/arm_math.h ****   }
 920:.\Include/arm_math.h **** 
 921:.\Include/arm_math.h **** 
 922:.\Include/arm_math.h ****   /*
 923:.\Include/arm_math.h ****    * @brief C custom defined QADD for M3 and M0 processors
 924:.\Include/arm_math.h ****    */
 925:.\Include/arm_math.h ****   CMSIS_INLINE __STATIC_INLINE int32_t __QADD(
 926:.\Include/arm_math.h ****   int32_t x,
 927:.\Include/arm_math.h ****   int32_t y)
 928:.\Include/arm_math.h ****   {
 929:.\Include/arm_math.h ****     return ((int32_t)(clip_q63_to_q31((q63_t)x + (q31_t)y)));
 930:.\Include/arm_math.h ****   }
 931:.\Include/arm_math.h **** 
 932:.\Include/arm_math.h **** 
 933:.\Include/arm_math.h ****   /*
 934:.\Include/arm_math.h ****    * @brief C custom defined QSUB for M3 and M0 processors
 935:.\Include/arm_math.h ****    */
 936:.\Include/arm_math.h ****   CMSIS_INLINE __STATIC_INLINE int32_t __QSUB(
 937:.\Include/arm_math.h ****   int32_t x,
 938:.\Include/arm_math.h ****   int32_t y)
 939:.\Include/arm_math.h ****   {
 940:.\Include/arm_math.h ****     return ((int32_t)(clip_q63_to_q31((q63_t)x - (q31_t)y)));
 941:.\Include/arm_math.h ****   }
 942:.\Include/arm_math.h **** 
 943:.\Include/arm_math.h **** 
 944:.\Include/arm_math.h ****   /*
 945:.\Include/arm_math.h ****    * @brief C custom defined SMLAD for M3 and M0 processors
 946:.\Include/arm_math.h ****    */
 947:.\Include/arm_math.h ****   CMSIS_INLINE __STATIC_INLINE uint32_t __SMLAD(
 948:.\Include/arm_math.h ****   uint32_t x,
 949:.\Include/arm_math.h ****   uint32_t y,
 950:.\Include/arm_math.h ****   uint32_t sum)
 951:.\Include/arm_math.h ****   {
 952:.\Include/arm_math.h ****     return ((uint32_t)(((((q31_t)x << 16) >> 16) * (((q31_t)y << 16) >> 16)) +
 953:.\Include/arm_math.h ****                        ((((q31_t)x      ) >> 16) * (((q31_t)y      ) >> 16)) +
 954:.\Include/arm_math.h ****                        ( ((q31_t)sum    )                                  )   ));
 955:.\Include/arm_math.h ****   }
 956:.\Include/arm_math.h **** 
 957:.\Include/arm_math.h **** 
 958:.\Include/arm_math.h ****   /*
ARM GAS  C:\Users\fneves\AppData\Local\Temp\cc8Kqy5I.s 			page 49


 959:.\Include/arm_math.h ****    * @brief C custom defined SMLADX for M3 and M0 processors
 960:.\Include/arm_math.h ****    */
 961:.\Include/arm_math.h ****   CMSIS_INLINE __STATIC_INLINE uint32_t __SMLADX(
 962:.\Include/arm_math.h ****   uint32_t x,
 963:.\Include/arm_math.h ****   uint32_t y,
 964:.\Include/arm_math.h ****   uint32_t sum)
 965:.\Include/arm_math.h ****   {
 966:.\Include/arm_math.h ****     return ((uint32_t)(((((q31_t)x << 16) >> 16) * (((q31_t)y      ) >> 16)) +
 967:.\Include/arm_math.h ****                        ((((q31_t)x      ) >> 16) * (((q31_t)y << 16) >> 16)) +
 968:.\Include/arm_math.h ****                        ( ((q31_t)sum    )                                  )   ));
 969:.\Include/arm_math.h ****   }
 970:.\Include/arm_math.h **** 
 971:.\Include/arm_math.h **** 
 972:.\Include/arm_math.h ****   /*
 973:.\Include/arm_math.h ****    * @brief C custom defined SMLSDX for M3 and M0 processors
 974:.\Include/arm_math.h ****    */
 975:.\Include/arm_math.h ****   CMSIS_INLINE __STATIC_INLINE uint32_t __SMLSDX(
 976:.\Include/arm_math.h ****   uint32_t x,
 977:.\Include/arm_math.h ****   uint32_t y,
 978:.\Include/arm_math.h ****   uint32_t sum)
 979:.\Include/arm_math.h ****   {
 980:.\Include/arm_math.h ****     return ((uint32_t)(((((q31_t)x << 16) >> 16) * (((q31_t)y      ) >> 16)) -
 981:.\Include/arm_math.h ****                        ((((q31_t)x      ) >> 16) * (((q31_t)y << 16) >> 16)) +
 982:.\Include/arm_math.h ****                        ( ((q31_t)sum    )                                  )   ));
 983:.\Include/arm_math.h ****   }
 984:.\Include/arm_math.h **** 
 985:.\Include/arm_math.h **** 
 986:.\Include/arm_math.h ****   /*
 987:.\Include/arm_math.h ****    * @brief C custom defined SMLALD for M3 and M0 processors
 988:.\Include/arm_math.h ****    */
 989:.\Include/arm_math.h ****   CMSIS_INLINE __STATIC_INLINE uint64_t __SMLALD(
 990:.\Include/arm_math.h ****   uint32_t x,
 991:.\Include/arm_math.h ****   uint32_t y,
 992:.\Include/arm_math.h ****   uint64_t sum)
 993:.\Include/arm_math.h ****   {
 994:.\Include/arm_math.h **** /*  return (sum + ((q15_t) (x >> 16) * (q15_t) (y >> 16)) + ((q15_t) x * (q15_t) y)); */
 995:.\Include/arm_math.h ****     return ((uint64_t)(((((q31_t)x << 16) >> 16) * (((q31_t)y << 16) >> 16)) +
 1475              		.loc 2 995 0
 1476 0ac4 FC23     		mov	r3, #252
 1477 0ac6 9822     		mov	r2, #152
 1478 0ac8 9446     		mov	ip, r2
 1479 0aca 0822     		mov	r2, #8
 1480 0acc 9046     		mov	r8, r2
 1481 0ace 0822     		mov	r2, #8
 1482 0ad0 9146     		mov	r9, r2
 1483 0ad2 B944     		add	r9, r9, r7
 1484 0ad4 C844     		add	r8, r8, r9
 1485 0ad6 C444     		add	ip, ip, r8
 1486 0ad8 6344     		add	r3, r3, ip
 1487 0ada 1B68     		ldr	r3, [r3]
 1488 0adc 1B04     		lsl	r3, r3, #16
 1489 0ade 1A14     		asr	r2, r3, #16
 1490 0ae0 F823     		mov	r3, #248
 1491 0ae2 9821     		mov	r1, #152
 1492 0ae4 8C46     		mov	ip, r1
 1493 0ae6 0821     		mov	r1, #8
 1494 0ae8 8846     		mov	r8, r1
ARM GAS  C:\Users\fneves\AppData\Local\Temp\cc8Kqy5I.s 			page 50


 1495 0aea 0821     		mov	r1, #8
 1496 0aec 8946     		mov	r9, r1
 1497 0aee B944     		add	r9, r9, r7
 1498 0af0 C844     		add	r8, r8, r9
 1499 0af2 C444     		add	ip, ip, r8
 1500 0af4 6344     		add	r3, r3, ip
 1501 0af6 1B68     		ldr	r3, [r3]
 1502 0af8 1B04     		lsl	r3, r3, #16
 1503 0afa 1B14     		asr	r3, r3, #16
 1504 0afc 5343     		mul	r3, r2
 1505 0afe 191C     		mov	r1, r3
 996:.\Include/arm_math.h ****                        ((((q31_t)x      ) >> 16) * (((q31_t)y      ) >> 16)) +
 1506              		.loc 2 996 0
 1507 0b00 FC23     		mov	r3, #252
 1508 0b02 9822     		mov	r2, #152
 1509 0b04 9446     		mov	ip, r2
 1510 0b06 0822     		mov	r2, #8
 1511 0b08 9046     		mov	r8, r2
 1512 0b0a 0822     		mov	r2, #8
 1513 0b0c 9146     		mov	r9, r2
 1514 0b0e B944     		add	r9, r9, r7
 1515 0b10 C844     		add	r8, r8, r9
 1516 0b12 C444     		add	ip, ip, r8
 1517 0b14 6344     		add	r3, r3, ip
 1518 0b16 1B68     		ldr	r3, [r3]
 1519 0b18 1A14     		asr	r2, r3, #16
 1520 0b1a F823     		mov	r3, #248
 1521 0b1c 9820     		mov	r0, #152
 1522 0b1e 8446     		mov	ip, r0
 1523 0b20 0820     		mov	r0, #8
 1524 0b22 8046     		mov	r8, r0
 1525 0b24 0820     		mov	r0, #8
 1526 0b26 8146     		mov	r9, r0
 1527 0b28 B944     		add	r9, r9, r7
 1528 0b2a C844     		add	r8, r8, r9
 1529 0b2c C444     		add	ip, ip, r8
 1530 0b2e 6344     		add	r3, r3, ip
 1531 0b30 1B68     		ldr	r3, [r3]
 1532 0b32 1B14     		asr	r3, r3, #16
 1533 0b34 5343     		mul	r3, r2
 995:.\Include/arm_math.h ****                        ((((q31_t)x      ) >> 16) * (((q31_t)y      ) >> 16)) +
 1534              		.loc 2 995 0
 1535 0b36 CB18     		add	r3, r1, r3
 1536              		.loc 2 996 0
 1537 0b38 BB64     		str	r3, [r7, #72]
 1538 0b3a DB17     		asr	r3, r3, #31
 1539 0b3c FB64     		str	r3, [r7, #76]
 997:.\Include/arm_math.h ****                        ( ((q63_t)sum    )                                  )   ));
 1540              		.loc 2 997 0
 1541 0b3e F023     		mov	r3, #240
 1542 0b40 9822     		mov	r2, #152
 1543 0b42 9446     		mov	ip, r2
 1544 0b44 0822     		mov	r2, #8
 1545 0b46 9046     		mov	r8, r2
 1546 0b48 0822     		mov	r2, #8
 1547 0b4a 9146     		mov	r9, r2
 1548 0b4c B944     		add	r9, r9, r7
ARM GAS  C:\Users\fneves\AppData\Local\Temp\cc8Kqy5I.s 			page 51


 1549 0b4e C844     		add	r8, r8, r9
 1550 0b50 C444     		add	ip, ip, r8
 1551 0b52 6344     		add	r3, r3, ip
 1552 0b54 5C68     		ldr	r4, [r3, #4]
 1553 0b56 1B68     		ldr	r3, [r3]
 996:.\Include/arm_math.h ****                        ((((q31_t)x      ) >> 16) * (((q31_t)y      ) >> 16)) +
 1554              		.loc 2 996 0
 1555 0b58 B96C     		ldr	r1, [r7, #72]
 1556 0b5a FA6C     		ldr	r2, [r7, #76]
 1557 0b5c 5B18     		add	r3, r3, r1
 1558 0b5e 5441     		adc	r4, r4, r2
 1559              	.LBE29:
 1560              	.LBE28:
 1561              		.loc 1 302 0
 1562 0b60 A822     		mov	r2, #168
 1563 0b62 5200     		lsl	r2, r2, #1
 1564 0b64 9821     		mov	r1, #152
 1565 0b66 8C46     		mov	ip, r1
 1566 0b68 0821     		mov	r1, #8
 1567 0b6a 8846     		mov	r8, r1
 1568 0b6c 0821     		mov	r1, #8
 1569 0b6e 8946     		mov	r9, r1
 1570 0b70 B944     		add	r9, r9, r7
 1571 0b72 C844     		add	r8, r8, r9
 1572 0b74 C444     		add	ip, ip, r8
 1573 0b76 6244     		add	r2, r2, ip
 1574 0b78 1360     		str	r3, [r2]
 1575 0b7a 5460     		str	r4, [r2, #4]
 303:Source\FilteringFunctions/arm_conv_opt_q15.c ****       acc2 = __SMLALD(x2, y1, acc2);
 1576              		.loc 1 303 0
 1577 0b7c 9823     		mov	r3, #152
 1578 0b7e 5B00     		lsl	r3, r3, #1
 1579 0b80 9822     		mov	r2, #152
 1580 0b82 9446     		mov	ip, r2
 1581 0b84 0822     		mov	r2, #8
 1582 0b86 9046     		mov	r8, r2
 1583 0b88 0822     		mov	r2, #8
 1584 0b8a 9146     		mov	r9, r2
 1585 0b8c B944     		add	r9, r9, r7
 1586 0b8e C844     		add	r8, r8, r9
 1587 0b90 C444     		add	ip, ip, r8
 1588 0b92 6344     		add	r3, r3, ip
 1589 0b94 1968     		ldr	r1, [r3]
 1590 0b96 8423     		mov	r3, #132
 1591 0b98 5B00     		lsl	r3, r3, #1
 1592 0b9a 9822     		mov	r2, #152
 1593 0b9c 9446     		mov	ip, r2
 1594 0b9e 0822     		mov	r2, #8
 1595 0ba0 9046     		mov	r8, r2
 1596 0ba2 0822     		mov	r2, #8
 1597 0ba4 9146     		mov	r9, r2
 1598 0ba6 B944     		add	r9, r9, r7
 1599 0ba8 C844     		add	r8, r8, r9
 1600 0baa C444     		add	ip, ip, r8
 1601 0bac 6344     		add	r3, r3, ip
 1602 0bae 1A68     		ldr	r2, [r3]
 1603 0bb0 A023     		mov	r3, #160
ARM GAS  C:\Users\fneves\AppData\Local\Temp\cc8Kqy5I.s 			page 52


 1604 0bb2 5B00     		lsl	r3, r3, #1
 1605 0bb4 9820     		mov	r0, #152
 1606 0bb6 8446     		mov	ip, r0
 1607 0bb8 0820     		mov	r0, #8
 1608 0bba 8046     		mov	r8, r0
 1609 0bbc 0820     		mov	r0, #8
 1610 0bbe 8146     		mov	r9, r0
 1611 0bc0 B944     		add	r9, r9, r7
 1612 0bc2 C844     		add	r8, r8, r9
 1613 0bc4 C444     		add	ip, ip, r8
 1614 0bc6 6344     		add	r3, r3, ip
 1615 0bc8 5C68     		ldr	r4, [r3, #4]
 1616 0bca 1B68     		ldr	r3, [r3]
 1617 0bcc BB60     		str	r3, [r7, #8]
 1618 0bce FC60     		str	r4, [r7, #12]
 1619 0bd0 EC20     		mov	r0, #236
 1620 0bd2 9823     		mov	r3, #152
 1621 0bd4 9C46     		mov	ip, r3
 1622 0bd6 0823     		mov	r3, #8
 1623 0bd8 9846     		mov	r8, r3
 1624 0bda 0823     		mov	r3, #8
 1625 0bdc 9946     		mov	r9, r3
 1626 0bde B944     		add	r9, r9, r7
 1627 0be0 C844     		add	r8, r8, r9
 1628 0be2 C444     		add	ip, ip, r8
 1629 0be4 6044     		add	r0, r0, ip
 1630 0be6 0160     		str	r1, [r0]
 1631 0be8 E821     		mov	r1, #232
 1632 0bea 9820     		mov	r0, #152
 1633 0bec 8446     		mov	ip, r0
 1634 0bee 0823     		mov	r3, #8
 1635 0bf0 9846     		mov	r8, r3
 1636 0bf2 0823     		mov	r3, #8
 1637 0bf4 9946     		mov	r9, r3
 1638 0bf6 B944     		add	r9, r9, r7
 1639 0bf8 C844     		add	r8, r8, r9
 1640 0bfa C444     		add	ip, ip, r8
 1641 0bfc 6144     		add	r1, r1, ip
 1642 0bfe 0A60     		str	r2, [r1]
 1643 0c00 E022     		mov	r2, #224
 1644 0c02 9821     		mov	r1, #152
 1645 0c04 8C46     		mov	ip, r1
 1646 0c06 0823     		mov	r3, #8
 1647 0c08 9846     		mov	r8, r3
 1648 0c0a 0823     		mov	r3, #8
 1649 0c0c 9946     		mov	r9, r3
 1650 0c0e B944     		add	r9, r9, r7
 1651 0c10 C844     		add	r8, r8, r9
 1652 0c12 C444     		add	ip, ip, r8
 1653 0c14 6244     		add	r2, r2, ip
 1654 0c16 BB68     		ldr	r3, [r7, #8]
 1655 0c18 FC68     		ldr	r4, [r7, #12]
 1656 0c1a 1360     		str	r3, [r2]
 1657 0c1c 5460     		str	r4, [r2, #4]
 1658              	.LBB30:
 1659              	.LBB31:
 995:.\Include/arm_math.h ****                        ((((q31_t)x      ) >> 16) * (((q31_t)y      ) >> 16)) +
ARM GAS  C:\Users\fneves\AppData\Local\Temp\cc8Kqy5I.s 			page 53


 1660              		.loc 2 995 0
 1661 0c1e EC23     		mov	r3, #236
 1662 0c20 9822     		mov	r2, #152
 1663 0c22 9446     		mov	ip, r2
 1664 0c24 0822     		mov	r2, #8
 1665 0c26 9046     		mov	r8, r2
 1666 0c28 0822     		mov	r2, #8
 1667 0c2a 9146     		mov	r9, r2
 1668 0c2c B944     		add	r9, r9, r7
 1669 0c2e C844     		add	r8, r8, r9
 1670 0c30 C444     		add	ip, ip, r8
 1671 0c32 6344     		add	r3, r3, ip
 1672 0c34 1B68     		ldr	r3, [r3]
 1673 0c36 1B04     		lsl	r3, r3, #16
 1674 0c38 1A14     		asr	r2, r3, #16
 1675 0c3a E823     		mov	r3, #232
 1676 0c3c 9821     		mov	r1, #152
 1677 0c3e 8C46     		mov	ip, r1
 1678 0c40 0821     		mov	r1, #8
 1679 0c42 8846     		mov	r8, r1
 1680 0c44 0821     		mov	r1, #8
 1681 0c46 8946     		mov	r9, r1
 1682 0c48 B944     		add	r9, r9, r7
 1683 0c4a C844     		add	r8, r8, r9
 1684 0c4c C444     		add	ip, ip, r8
 1685 0c4e 6344     		add	r3, r3, ip
 1686 0c50 1B68     		ldr	r3, [r3]
 1687 0c52 1B04     		lsl	r3, r3, #16
 1688 0c54 1B14     		asr	r3, r3, #16
 1689 0c56 5343     		mul	r3, r2
 1690 0c58 191C     		mov	r1, r3
 996:.\Include/arm_math.h ****                        ( ((q63_t)sum    )                                  )   ));
 1691              		.loc 2 996 0
 1692 0c5a EC23     		mov	r3, #236
 1693 0c5c 9822     		mov	r2, #152
 1694 0c5e 9446     		mov	ip, r2
 1695 0c60 0822     		mov	r2, #8
 1696 0c62 9046     		mov	r8, r2
 1697 0c64 0822     		mov	r2, #8
 1698 0c66 9146     		mov	r9, r2
 1699 0c68 B944     		add	r9, r9, r7
 1700 0c6a C844     		add	r8, r8, r9
 1701 0c6c C444     		add	ip, ip, r8
 1702 0c6e 6344     		add	r3, r3, ip
 1703 0c70 1B68     		ldr	r3, [r3]
 1704 0c72 1A14     		asr	r2, r3, #16
 1705 0c74 E823     		mov	r3, #232
 1706 0c76 9820     		mov	r0, #152
 1707 0c78 8446     		mov	ip, r0
 1708 0c7a 0820     		mov	r0, #8
 1709 0c7c 8046     		mov	r8, r0
 1710 0c7e 0820     		mov	r0, #8
 1711 0c80 8146     		mov	r9, r0
 1712 0c82 B944     		add	r9, r9, r7
 1713 0c84 C844     		add	r8, r8, r9
 1714 0c86 C444     		add	ip, ip, r8
 1715 0c88 6344     		add	r3, r3, ip
ARM GAS  C:\Users\fneves\AppData\Local\Temp\cc8Kqy5I.s 			page 54


 1716 0c8a 1B68     		ldr	r3, [r3]
 1717 0c8c 1B14     		asr	r3, r3, #16
 1718 0c8e 5343     		mul	r3, r2
 995:.\Include/arm_math.h ****                        ((((q31_t)x      ) >> 16) * (((q31_t)y      ) >> 16)) +
 1719              		.loc 2 995 0
 1720 0c90 CB18     		add	r3, r1, r3
 996:.\Include/arm_math.h ****                        ( ((q63_t)sum    )                                  )   ));
 1721              		.loc 2 996 0
 1722 0c92 3B64     		str	r3, [r7, #64]
 1723 0c94 DB17     		asr	r3, r3, #31
 1724 0c96 7B64     		str	r3, [r7, #68]
 1725              		.loc 2 997 0
 1726 0c98 E023     		mov	r3, #224
 1727 0c9a 9822     		mov	r2, #152
 1728 0c9c 9446     		mov	ip, r2
 1729 0c9e 0822     		mov	r2, #8
 1730 0ca0 9046     		mov	r8, r2
 1731 0ca2 0822     		mov	r2, #8
 1732 0ca4 9146     		mov	r9, r2
 1733 0ca6 B944     		add	r9, r9, r7
 1734 0ca8 C844     		add	r8, r8, r9
 1735 0caa C444     		add	ip, ip, r8
 1736 0cac 6344     		add	r3, r3, ip
 1737 0cae 5C68     		ldr	r4, [r3, #4]
 1738 0cb0 1B68     		ldr	r3, [r3]
 996:.\Include/arm_math.h ****                        ( ((q63_t)sum    )                                  )   ));
 1739              		.loc 2 996 0
 1740 0cb2 396C     		ldr	r1, [r7, #64]
 1741 0cb4 7A6C     		ldr	r2, [r7, #68]
 1742 0cb6 5B18     		add	r3, r3, r1
 1743 0cb8 5441     		adc	r4, r4, r2
 1744              	.LBE31:
 1745              	.LBE30:
 1746              		.loc 1 303 0
 1747 0cba A022     		mov	r2, #160
 1748 0cbc 5200     		lsl	r2, r2, #1
 1749 0cbe 9821     		mov	r1, #152
 1750 0cc0 8C46     		mov	ip, r1
 1751 0cc2 0821     		mov	r1, #8
 1752 0cc4 8846     		mov	r8, r1
 1753 0cc6 0821     		mov	r1, #8
 1754 0cc8 8946     		mov	r9, r1
 1755 0cca B944     		add	r9, r9, r7
 1756 0ccc C844     		add	r8, r8, r9
 1757 0cce C444     		add	ip, ip, r8
 1758 0cd0 6244     		add	r2, r2, ip
 1759 0cd2 1360     		str	r3, [r2]
 1760 0cd4 5460     		str	r4, [r2, #4]
 304:Source\FilteringFunctions/arm_conv_opt_q15.c **** 
 305:Source\FilteringFunctions/arm_conv_opt_q15.c ****       /* pack input data */
 306:Source\FilteringFunctions/arm_conv_opt_q15.c **** #ifndef ARM_MATH_BIG_ENDIAN
 307:Source\FilteringFunctions/arm_conv_opt_q15.c ****       x3 = __PKHBT(x2, x1, 0);
 1761              		.loc 1 307 0
 1762 0cd6 9823     		mov	r3, #152
 1763 0cd8 5B00     		lsl	r3, r3, #1
 1764 0cda 9822     		mov	r2, #152
 1765 0cdc 9446     		mov	ip, r2
ARM GAS  C:\Users\fneves\AppData\Local\Temp\cc8Kqy5I.s 			page 55


 1766 0cde 0822     		mov	r2, #8
 1767 0ce0 9046     		mov	r8, r2
 1768 0ce2 0822     		mov	r2, #8
 1769 0ce4 9146     		mov	r9, r2
 1770 0ce6 B944     		add	r9, r9, r7
 1771 0ce8 C844     		add	r8, r8, r9
 1772 0cea C444     		add	ip, ip, r8
 1773 0cec 6344     		add	r3, r3, ip
 1774 0cee 1B68     		ldr	r3, [r3]
 1775 0cf0 1B04     		lsl	r3, r3, #16
 1776 0cf2 1A0C     		lsr	r2, r3, #16
 1777 0cf4 9A23     		mov	r3, #154
 1778 0cf6 5B00     		lsl	r3, r3, #1
 1779 0cf8 9821     		mov	r1, #152
 1780 0cfa 8C46     		mov	ip, r1
 1781 0cfc 0821     		mov	r1, #8
 1782 0cfe 8846     		mov	r8, r1
 1783 0d00 0821     		mov	r1, #8
 1784 0d02 8946     		mov	r9, r1
 1785 0d04 B944     		add	r9, r9, r7
 1786 0d06 C844     		add	r8, r8, r9
 1787 0d08 C444     		add	ip, ip, r8
 1788 0d0a 6344     		add	r3, r3, ip
 1789 0d0c 1B68     		ldr	r3, [r3]
 1790 0d0e 1B0C     		lsr	r3, r3, #16
 1791 0d10 1B04     		lsl	r3, r3, #16
 1792 0d12 1343     		orr	r3, r2
 1793 0d14 CC22     		mov	r2, #204
 1794 0d16 5200     		lsl	r2, r2, #1
 1795 0d18 0821     		mov	r1, #8
 1796 0d1a 8C46     		mov	ip, r1
 1797 0d1c 0821     		mov	r1, #8
 1798 0d1e 8846     		mov	r8, r1
 1799 0d20 B844     		add	r8, r8, r7
 1800 0d22 C444     		add	ip, ip, r8
 1801 0d24 6244     		add	r2, r2, ip
 1802 0d26 1360     		str	r3, [r2]
 308:Source\FilteringFunctions/arm_conv_opt_q15.c **** #else
 309:Source\FilteringFunctions/arm_conv_opt_q15.c ****       x3 = __PKHBT(x1, x2, 0);
 310:Source\FilteringFunctions/arm_conv_opt_q15.c **** #endif
 311:Source\FilteringFunctions/arm_conv_opt_q15.c **** 
 312:Source\FilteringFunctions/arm_conv_opt_q15.c ****       /* multiply and accumlate */
 313:Source\FilteringFunctions/arm_conv_opt_q15.c ****       acc1 = __SMLALDX(x3, y1, acc1);
 1803              		.loc 1 313 0
 1804 0d28 CC23     		mov	r3, #204
 1805 0d2a 5B00     		lsl	r3, r3, #1
 1806 0d2c 0822     		mov	r2, #8
 1807 0d2e 9446     		mov	ip, r2
 1808 0d30 0822     		mov	r2, #8
 1809 0d32 9046     		mov	r8, r2
 1810 0d34 B844     		add	r8, r8, r7
 1811 0d36 C444     		add	ip, ip, r8
 1812 0d38 6344     		add	r3, r3, ip
 1813 0d3a 1968     		ldr	r1, [r3]
 1814 0d3c 8423     		mov	r3, #132
 1815 0d3e 5B00     		lsl	r3, r3, #1
 1816 0d40 9822     		mov	r2, #152
ARM GAS  C:\Users\fneves\AppData\Local\Temp\cc8Kqy5I.s 			page 56


 1817 0d42 9446     		mov	ip, r2
 1818 0d44 0822     		mov	r2, #8
 1819 0d46 9046     		mov	r8, r2
 1820 0d48 0822     		mov	r2, #8
 1821 0d4a 9146     		mov	r9, r2
 1822 0d4c B944     		add	r9, r9, r7
 1823 0d4e C844     		add	r8, r8, r9
 1824 0d50 C444     		add	ip, ip, r8
 1825 0d52 6344     		add	r3, r3, ip
 1826 0d54 1A68     		ldr	r2, [r3]
 1827 0d56 A423     		mov	r3, #164
 1828 0d58 5B00     		lsl	r3, r3, #1
 1829 0d5a 9820     		mov	r0, #152
 1830 0d5c 8446     		mov	ip, r0
 1831 0d5e 0820     		mov	r0, #8
 1832 0d60 8046     		mov	r8, r0
 1833 0d62 0820     		mov	r0, #8
 1834 0d64 8146     		mov	r9, r0
 1835 0d66 B944     		add	r9, r9, r7
 1836 0d68 C844     		add	r8, r8, r9
 1837 0d6a C444     		add	ip, ip, r8
 1838 0d6c 6344     		add	r3, r3, ip
 1839 0d6e 5C68     		ldr	r4, [r3, #4]
 1840 0d70 1B68     		ldr	r3, [r3]
 1841 0d72 BB60     		str	r3, [r7, #8]
 1842 0d74 FC60     		str	r4, [r7, #12]
 1843 0d76 DC20     		mov	r0, #220
 1844 0d78 9823     		mov	r3, #152
 1845 0d7a 9C46     		mov	ip, r3
 1846 0d7c 0823     		mov	r3, #8
 1847 0d7e 9846     		mov	r8, r3
 1848 0d80 0823     		mov	r3, #8
 1849 0d82 9946     		mov	r9, r3
 1850 0d84 B944     		add	r9, r9, r7
 1851 0d86 C844     		add	r8, r8, r9
 1852 0d88 C444     		add	ip, ip, r8
 1853 0d8a 6044     		add	r0, r0, ip
 1854 0d8c 0160     		str	r1, [r0]
 1855 0d8e D821     		mov	r1, #216
 1856 0d90 9820     		mov	r0, #152
 1857 0d92 8446     		mov	ip, r0
 1858 0d94 0823     		mov	r3, #8
 1859 0d96 9846     		mov	r8, r3
 1860 0d98 0823     		mov	r3, #8
 1861 0d9a 9946     		mov	r9, r3
 1862 0d9c B944     		add	r9, r9, r7
 1863 0d9e C844     		add	r8, r8, r9
 1864 0da0 C444     		add	ip, ip, r8
 1865 0da2 6144     		add	r1, r1, ip
 1866 0da4 0A60     		str	r2, [r1]
 1867 0da6 D022     		mov	r2, #208
 1868 0da8 9821     		mov	r1, #152
 1869 0daa 8C46     		mov	ip, r1
 1870 0dac 0823     		mov	r3, #8
 1871 0dae 9846     		mov	r8, r3
 1872 0db0 0823     		mov	r3, #8
 1873 0db2 9946     		mov	r9, r3
ARM GAS  C:\Users\fneves\AppData\Local\Temp\cc8Kqy5I.s 			page 57


 1874 0db4 B944     		add	r9, r9, r7
 1875 0db6 C844     		add	r8, r8, r9
 1876 0db8 C444     		add	ip, ip, r8
 1877 0dba 6244     		add	r2, r2, ip
 1878 0dbc BB68     		ldr	r3, [r7, #8]
 1879 0dbe FC68     		ldr	r4, [r7, #12]
 1880 0dc0 1360     		str	r3, [r2]
 1881 0dc2 5460     		str	r4, [r2, #4]
 1882              	.LBB32:
 1883              	.LBB33:
 998:.\Include/arm_math.h ****   }
 999:.\Include/arm_math.h **** 
1000:.\Include/arm_math.h **** 
1001:.\Include/arm_math.h ****   /*
1002:.\Include/arm_math.h ****    * @brief C custom defined SMLALDX for M3 and M0 processors
1003:.\Include/arm_math.h ****    */
1004:.\Include/arm_math.h ****   CMSIS_INLINE __STATIC_INLINE uint64_t __SMLALDX(
1005:.\Include/arm_math.h ****   uint32_t x,
1006:.\Include/arm_math.h ****   uint32_t y,
1007:.\Include/arm_math.h ****   uint64_t sum)
1008:.\Include/arm_math.h ****   {
1009:.\Include/arm_math.h **** /*  return (sum + ((q15_t) (x >> 16) * (q15_t) y)) + ((q15_t) x * (q15_t) (y >> 16)); */
1010:.\Include/arm_math.h ****     return ((uint64_t)(((((q31_t)x << 16) >> 16) * (((q31_t)y      ) >> 16)) +
 1884              		.loc 2 1010 0
 1885 0dc4 DC23     		mov	r3, #220
 1886 0dc6 9822     		mov	r2, #152
 1887 0dc8 9446     		mov	ip, r2
 1888 0dca 0822     		mov	r2, #8
 1889 0dcc 9046     		mov	r8, r2
 1890 0dce 0822     		mov	r2, #8
 1891 0dd0 9146     		mov	r9, r2
 1892 0dd2 B944     		add	r9, r9, r7
 1893 0dd4 C844     		add	r8, r8, r9
 1894 0dd6 C444     		add	ip, ip, r8
 1895 0dd8 6344     		add	r3, r3, ip
 1896 0dda 1B68     		ldr	r3, [r3]
 1897 0ddc 1B04     		lsl	r3, r3, #16
 1898 0dde 1A14     		asr	r2, r3, #16
 1899 0de0 D823     		mov	r3, #216
 1900 0de2 9821     		mov	r1, #152
 1901 0de4 8C46     		mov	ip, r1
 1902 0de6 0821     		mov	r1, #8
 1903 0de8 8846     		mov	r8, r1
 1904 0dea 0821     		mov	r1, #8
 1905 0dec 8946     		mov	r9, r1
 1906 0dee B944     		add	r9, r9, r7
 1907 0df0 C844     		add	r8, r8, r9
 1908 0df2 C444     		add	ip, ip, r8
 1909 0df4 6344     		add	r3, r3, ip
 1910 0df6 1B68     		ldr	r3, [r3]
 1911 0df8 1B14     		asr	r3, r3, #16
 1912 0dfa 5343     		mul	r3, r2
 1913 0dfc 191C     		mov	r1, r3
1011:.\Include/arm_math.h ****                        ((((q31_t)x      ) >> 16) * (((q31_t)y << 16) >> 16)) +
 1914              		.loc 2 1011 0
 1915 0dfe DC23     		mov	r3, #220
 1916 0e00 9822     		mov	r2, #152
ARM GAS  C:\Users\fneves\AppData\Local\Temp\cc8Kqy5I.s 			page 58


 1917 0e02 9446     		mov	ip, r2
 1918 0e04 0822     		mov	r2, #8
 1919 0e06 9046     		mov	r8, r2
 1920 0e08 0822     		mov	r2, #8
 1921 0e0a 9146     		mov	r9, r2
 1922 0e0c B944     		add	r9, r9, r7
 1923 0e0e C844     		add	r8, r8, r9
 1924 0e10 C444     		add	ip, ip, r8
 1925 0e12 6344     		add	r3, r3, ip
 1926 0e14 1B68     		ldr	r3, [r3]
 1927 0e16 1A14     		asr	r2, r3, #16
 1928 0e18 D823     		mov	r3, #216
 1929 0e1a 9820     		mov	r0, #152
 1930 0e1c 8446     		mov	ip, r0
 1931 0e1e 0820     		mov	r0, #8
 1932 0e20 8046     		mov	r8, r0
 1933 0e22 0820     		mov	r0, #8
 1934 0e24 8146     		mov	r9, r0
 1935 0e26 B944     		add	r9, r9, r7
 1936 0e28 C844     		add	r8, r8, r9
 1937 0e2a C444     		add	ip, ip, r8
 1938 0e2c 6344     		add	r3, r3, ip
 1939 0e2e 1B68     		ldr	r3, [r3]
 1940 0e30 1B04     		lsl	r3, r3, #16
 1941 0e32 1B14     		asr	r3, r3, #16
 1942 0e34 5343     		mul	r3, r2
1010:.\Include/arm_math.h ****                        ((((q31_t)x      ) >> 16) * (((q31_t)y << 16) >> 16)) +
 1943              		.loc 2 1010 0
 1944 0e36 CB18     		add	r3, r1, r3
 1945              		.loc 2 1011 0
 1946 0e38 BB63     		str	r3, [r7, #56]
 1947 0e3a DB17     		asr	r3, r3, #31
 1948 0e3c FB63     		str	r3, [r7, #60]
1012:.\Include/arm_math.h ****                        ( ((q63_t)sum    )                                  )   ));
 1949              		.loc 2 1012 0
 1950 0e3e D023     		mov	r3, #208
 1951 0e40 9822     		mov	r2, #152
 1952 0e42 9446     		mov	ip, r2
 1953 0e44 0822     		mov	r2, #8
 1954 0e46 9046     		mov	r8, r2
 1955 0e48 0822     		mov	r2, #8
 1956 0e4a 9146     		mov	r9, r2
 1957 0e4c B944     		add	r9, r9, r7
 1958 0e4e C844     		add	r8, r8, r9
 1959 0e50 C444     		add	ip, ip, r8
 1960 0e52 6344     		add	r3, r3, ip
 1961 0e54 5C68     		ldr	r4, [r3, #4]
 1962 0e56 1B68     		ldr	r3, [r3]
1011:.\Include/arm_math.h ****                        ((((q31_t)x      ) >> 16) * (((q31_t)y << 16) >> 16)) +
 1963              		.loc 2 1011 0
 1964 0e58 B96B     		ldr	r1, [r7, #56]
 1965 0e5a FA6B     		ldr	r2, [r7, #60]
 1966 0e5c 5B18     		add	r3, r3, r1
 1967 0e5e 5441     		adc	r4, r4, r2
 1968              	.LBE33:
 1969              	.LBE32:
 1970              		.loc 1 313 0
ARM GAS  C:\Users\fneves\AppData\Local\Temp\cc8Kqy5I.s 			page 59


 1971 0e60 A422     		mov	r2, #164
 1972 0e62 5200     		lsl	r2, r2, #1
 1973 0e64 9821     		mov	r1, #152
 1974 0e66 8C46     		mov	ip, r1
 1975 0e68 0821     		mov	r1, #8
 1976 0e6a 8846     		mov	r8, r1
 1977 0e6c 0821     		mov	r1, #8
 1978 0e6e 8946     		mov	r9, r1
 1979 0e70 B944     		add	r9, r9, r7
 1980 0e72 C844     		add	r8, r8, r9
 1981 0e74 C444     		add	ip, ip, r8
 1982 0e76 6244     		add	r2, r2, ip
 1983 0e78 1360     		str	r3, [r2]
 1984 0e7a 5460     		str	r4, [r2, #4]
 314:Source\FilteringFunctions/arm_conv_opt_q15.c **** 
 315:Source\FilteringFunctions/arm_conv_opt_q15.c ****       /* Read next two samples from scratch1 buffer */
 316:Source\FilteringFunctions/arm_conv_opt_q15.c ****       x1 = _SIMD32_OFFSET(pScr1);
 1985              		.loc 1 316 0
 1986 0e7c AC23     		mov	r3, #172
 1987 0e7e 0822     		mov	r2, #8
 1988 0e80 9446     		mov	ip, r2
 1989 0e82 0822     		mov	r2, #8
 1990 0e84 9046     		mov	r8, r2
 1991 0e86 B844     		add	r8, r8, r7
 1992 0e88 C444     		add	ip, ip, r8
 1993 0e8a 6344     		add	r3, r3, ip
 1994 0e8c 1B68     		ldr	r3, [r3]
 1995 0e8e 1B68     		ldr	r3, [r3]
 1996 0e90 9A22     		mov	r2, #154
 1997 0e92 5200     		lsl	r2, r2, #1
 1998 0e94 9821     		mov	r1, #152
 1999 0e96 8C46     		mov	ip, r1
 2000 0e98 0821     		mov	r1, #8
 2001 0e9a 8846     		mov	r8, r1
 2002 0e9c 0821     		mov	r1, #8
 2003 0e9e 8946     		mov	r9, r1
 2004 0ea0 B944     		add	r9, r9, r7
 2005 0ea2 C844     		add	r8, r8, r9
 2006 0ea4 C444     		add	ip, ip, r8
 2007 0ea6 6244     		add	r2, r2, ip
 2008 0ea8 1360     		str	r3, [r2]
 317:Source\FilteringFunctions/arm_conv_opt_q15.c **** 
 318:Source\FilteringFunctions/arm_conv_opt_q15.c ****       /* multiply and accumlate */
 319:Source\FilteringFunctions/arm_conv_opt_q15.c ****       acc0 = __SMLALD(x2, y2, acc0);
 2009              		.loc 1 319 0
 2010 0eaa 9823     		mov	r3, #152
 2011 0eac 5B00     		lsl	r3, r3, #1
 2012 0eae 9822     		mov	r2, #152
 2013 0eb0 9446     		mov	ip, r2
 2014 0eb2 0822     		mov	r2, #8
 2015 0eb4 9046     		mov	r8, r2
 2016 0eb6 0822     		mov	r2, #8
 2017 0eb8 9146     		mov	r9, r2
 2018 0eba B944     		add	r9, r9, r7
 2019 0ebc C844     		add	r8, r8, r9
 2020 0ebe C444     		add	ip, ip, r8
 2021 0ec0 6344     		add	r3, r3, ip
ARM GAS  C:\Users\fneves\AppData\Local\Temp\cc8Kqy5I.s 			page 60


 2022 0ec2 1968     		ldr	r1, [r3]
 2023 0ec4 CE23     		mov	r3, #206
 2024 0ec6 5B00     		lsl	r3, r3, #1
 2025 0ec8 0822     		mov	r2, #8
 2026 0eca 9446     		mov	ip, r2
 2027 0ecc 0822     		mov	r2, #8
 2028 0ece 9046     		mov	r8, r2
 2029 0ed0 B844     		add	r8, r8, r7
 2030 0ed2 C444     		add	ip, ip, r8
 2031 0ed4 6344     		add	r3, r3, ip
 2032 0ed6 1A68     		ldr	r2, [r3]
 2033 0ed8 A823     		mov	r3, #168
 2034 0eda 5B00     		lsl	r3, r3, #1
 2035 0edc 9820     		mov	r0, #152
 2036 0ede 8446     		mov	ip, r0
 2037 0ee0 0820     		mov	r0, #8
 2038 0ee2 8046     		mov	r8, r0
 2039 0ee4 0820     		mov	r0, #8
 2040 0ee6 8146     		mov	r9, r0
 2041 0ee8 B944     		add	r9, r9, r7
 2042 0eea C844     		add	r8, r8, r9
 2043 0eec C444     		add	ip, ip, r8
 2044 0eee 6344     		add	r3, r3, ip
 2045 0ef0 5C68     		ldr	r4, [r3, #4]
 2046 0ef2 1B68     		ldr	r3, [r3]
 2047 0ef4 BB60     		str	r3, [r7, #8]
 2048 0ef6 FC60     		str	r4, [r7, #12]
 2049 0ef8 CC20     		mov	r0, #204
 2050 0efa 9823     		mov	r3, #152
 2051 0efc 9C46     		mov	ip, r3
 2052 0efe 0823     		mov	r3, #8
 2053 0f00 9846     		mov	r8, r3
 2054 0f02 0823     		mov	r3, #8
 2055 0f04 9946     		mov	r9, r3
 2056 0f06 B944     		add	r9, r9, r7
 2057 0f08 C844     		add	r8, r8, r9
 2058 0f0a C444     		add	ip, ip, r8
 2059 0f0c 6044     		add	r0, r0, ip
 2060 0f0e 0160     		str	r1, [r0]
 2061 0f10 C821     		mov	r1, #200
 2062 0f12 9820     		mov	r0, #152
 2063 0f14 8446     		mov	ip, r0
 2064 0f16 0823     		mov	r3, #8
 2065 0f18 9846     		mov	r8, r3
 2066 0f1a 0823     		mov	r3, #8
 2067 0f1c 9946     		mov	r9, r3
 2068 0f1e B944     		add	r9, r9, r7
 2069 0f20 C844     		add	r8, r8, r9
 2070 0f22 C444     		add	ip, ip, r8
 2071 0f24 6144     		add	r1, r1, ip
 2072 0f26 0A60     		str	r2, [r1]
 2073 0f28 C022     		mov	r2, #192
 2074 0f2a 9821     		mov	r1, #152
 2075 0f2c 8C46     		mov	ip, r1
 2076 0f2e 0823     		mov	r3, #8
 2077 0f30 9846     		mov	r8, r3
 2078 0f32 0823     		mov	r3, #8
ARM GAS  C:\Users\fneves\AppData\Local\Temp\cc8Kqy5I.s 			page 61


 2079 0f34 9946     		mov	r9, r3
 2080 0f36 B944     		add	r9, r9, r7
 2081 0f38 C844     		add	r8, r8, r9
 2082 0f3a C444     		add	ip, ip, r8
 2083 0f3c 6244     		add	r2, r2, ip
 2084 0f3e BB68     		ldr	r3, [r7, #8]
 2085 0f40 FC68     		ldr	r4, [r7, #12]
 2086 0f42 1360     		str	r3, [r2]
 2087 0f44 5460     		str	r4, [r2, #4]
 2088              	.LBB34:
 2089              	.LBB35:
 995:.\Include/arm_math.h ****                        ((((q31_t)x      ) >> 16) * (((q31_t)y      ) >> 16)) +
 2090              		.loc 2 995 0
 2091 0f46 CC23     		mov	r3, #204
 2092 0f48 9822     		mov	r2, #152
 2093 0f4a 9446     		mov	ip, r2
 2094 0f4c 0822     		mov	r2, #8
 2095 0f4e 9046     		mov	r8, r2
 2096 0f50 0822     		mov	r2, #8
 2097 0f52 9146     		mov	r9, r2
 2098 0f54 B944     		add	r9, r9, r7
 2099 0f56 C844     		add	r8, r8, r9
 2100 0f58 C444     		add	ip, ip, r8
 2101 0f5a 6344     		add	r3, r3, ip
 2102 0f5c 1B68     		ldr	r3, [r3]
 2103 0f5e 1B04     		lsl	r3, r3, #16
 2104 0f60 1A14     		asr	r2, r3, #16
 2105 0f62 C823     		mov	r3, #200
 2106 0f64 9821     		mov	r1, #152
 2107 0f66 8C46     		mov	ip, r1
 2108 0f68 0821     		mov	r1, #8
 2109 0f6a 8846     		mov	r8, r1
 2110 0f6c 0821     		mov	r1, #8
 2111 0f6e 8946     		mov	r9, r1
 2112 0f70 B944     		add	r9, r9, r7
 2113 0f72 C844     		add	r8, r8, r9
 2114 0f74 C444     		add	ip, ip, r8
 2115 0f76 6344     		add	r3, r3, ip
 2116 0f78 1B68     		ldr	r3, [r3]
 2117 0f7a 1B04     		lsl	r3, r3, #16
 2118 0f7c 1B14     		asr	r3, r3, #16
 2119 0f7e 5343     		mul	r3, r2
 2120 0f80 191C     		mov	r1, r3
 996:.\Include/arm_math.h ****                        ( ((q63_t)sum    )                                  )   ));
 2121              		.loc 2 996 0
 2122 0f82 CC23     		mov	r3, #204
 2123 0f84 9822     		mov	r2, #152
 2124 0f86 9446     		mov	ip, r2
 2125 0f88 0822     		mov	r2, #8
 2126 0f8a 9046     		mov	r8, r2
 2127 0f8c 0822     		mov	r2, #8
 2128 0f8e 9146     		mov	r9, r2
 2129 0f90 B944     		add	r9, r9, r7
 2130 0f92 C844     		add	r8, r8, r9
 2131 0f94 C444     		add	ip, ip, r8
 2132 0f96 6344     		add	r3, r3, ip
 2133 0f98 1B68     		ldr	r3, [r3]
ARM GAS  C:\Users\fneves\AppData\Local\Temp\cc8Kqy5I.s 			page 62


 2134 0f9a 1A14     		asr	r2, r3, #16
 2135 0f9c C823     		mov	r3, #200
 2136 0f9e 9820     		mov	r0, #152
 2137 0fa0 8446     		mov	ip, r0
 2138 0fa2 0820     		mov	r0, #8
 2139 0fa4 8046     		mov	r8, r0
 2140 0fa6 0820     		mov	r0, #8
 2141 0fa8 8146     		mov	r9, r0
 2142 0faa B944     		add	r9, r9, r7
 2143 0fac C844     		add	r8, r8, r9
 2144 0fae C444     		add	ip, ip, r8
 2145 0fb0 6344     		add	r3, r3, ip
 2146 0fb2 1B68     		ldr	r3, [r3]
 2147 0fb4 1B14     		asr	r3, r3, #16
 2148 0fb6 5343     		mul	r3, r2
 995:.\Include/arm_math.h ****                        ((((q31_t)x      ) >> 16) * (((q31_t)y      ) >> 16)) +
 2149              		.loc 2 995 0
 2150 0fb8 CB18     		add	r3, r1, r3
 996:.\Include/arm_math.h ****                        ( ((q63_t)sum    )                                  )   ));
 2151              		.loc 2 996 0
 2152 0fba 3B63     		str	r3, [r7, #48]
 2153 0fbc DB17     		asr	r3, r3, #31
 2154 0fbe 7B63     		str	r3, [r7, #52]
 997:.\Include/arm_math.h ****   }
 2155              		.loc 2 997 0
 2156 0fc0 C023     		mov	r3, #192
 2157 0fc2 9822     		mov	r2, #152
 2158 0fc4 9446     		mov	ip, r2
 2159 0fc6 0822     		mov	r2, #8
 2160 0fc8 9046     		mov	r8, r2
 2161 0fca 0822     		mov	r2, #8
 2162 0fcc 9146     		mov	r9, r2
 2163 0fce B944     		add	r9, r9, r7
 2164 0fd0 C844     		add	r8, r8, r9
 2165 0fd2 C444     		add	ip, ip, r8
 2166 0fd4 6344     		add	r3, r3, ip
 2167 0fd6 5C68     		ldr	r4, [r3, #4]
 2168 0fd8 1B68     		ldr	r3, [r3]
 996:.\Include/arm_math.h ****                        ( ((q63_t)sum    )                                  )   ));
 2169              		.loc 2 996 0
 2170 0fda 396B     		ldr	r1, [r7, #48]
 2171 0fdc 7A6B     		ldr	r2, [r7, #52]
 2172 0fde 5B18     		add	r3, r3, r1
 2173 0fe0 5441     		adc	r4, r4, r2
 2174              	.LBE35:
 2175              	.LBE34:
 2176              		.loc 1 319 0
 2177 0fe2 A822     		mov	r2, #168
 2178 0fe4 5200     		lsl	r2, r2, #1
 2179 0fe6 9821     		mov	r1, #152
 2180 0fe8 8C46     		mov	ip, r1
 2181 0fea 0821     		mov	r1, #8
 2182 0fec 8846     		mov	r8, r1
 2183 0fee 0821     		mov	r1, #8
 2184 0ff0 8946     		mov	r9, r1
 2185 0ff2 B944     		add	r9, r9, r7
 2186 0ff4 C844     		add	r8, r8, r9
ARM GAS  C:\Users\fneves\AppData\Local\Temp\cc8Kqy5I.s 			page 63


 2187 0ff6 C444     		add	ip, ip, r8
 2188 0ff8 6244     		add	r2, r2, ip
 2189 0ffa 1360     		str	r3, [r2]
 2190 0ffc 5460     		str	r4, [r2, #4]
 320:Source\FilteringFunctions/arm_conv_opt_q15.c ****       acc2 = __SMLALD(x1, y2, acc2);
 2191              		.loc 1 320 0
 2192 0ffe 9A23     		mov	r3, #154
 2193 1000 5B00     		lsl	r3, r3, #1
 2194 1002 9822     		mov	r2, #152
 2195 1004 9446     		mov	ip, r2
 2196 1006 0822     		mov	r2, #8
 2197 1008 9046     		mov	r8, r2
 2198 100a 0822     		mov	r2, #8
 2199 100c 9146     		mov	r9, r2
 2200 100e B944     		add	r9, r9, r7
 2201 1010 C844     		add	r8, r8, r9
 2202 1012 C444     		add	ip, ip, r8
 2203 1014 6344     		add	r3, r3, ip
 2204 1016 1968     		ldr	r1, [r3]
 2205 1018 CE23     		mov	r3, #206
 2206 101a 5B00     		lsl	r3, r3, #1
 2207 101c 0822     		mov	r2, #8
 2208 101e 9446     		mov	ip, r2
 2209 1020 0822     		mov	r2, #8
 2210 1022 9046     		mov	r8, r2
 2211 1024 B844     		add	r8, r8, r7
 2212 1026 C444     		add	ip, ip, r8
 2213 1028 6344     		add	r3, r3, ip
 2214 102a 1A68     		ldr	r2, [r3]
 2215 102c A023     		mov	r3, #160
 2216 102e 5B00     		lsl	r3, r3, #1
 2217 1030 9820     		mov	r0, #152
 2218 1032 8446     		mov	ip, r0
 2219 1034 0820     		mov	r0, #8
 2220 1036 8046     		mov	r8, r0
 2221 1038 0820     		mov	r0, #8
 2222 103a 8146     		mov	r9, r0
 2223 103c B944     		add	r9, r9, r7
 2224 103e C844     		add	r8, r8, r9
 2225 1040 C444     		add	ip, ip, r8
 2226 1042 6344     		add	r3, r3, ip
 2227 1044 5C68     		ldr	r4, [r3, #4]
 2228 1046 1B68     		ldr	r3, [r3]
 2229 1048 BB60     		str	r3, [r7, #8]
 2230 104a FC60     		str	r4, [r7, #12]
 2231 104c BC20     		mov	r0, #188
 2232 104e 9823     		mov	r3, #152
 2233 1050 9C46     		mov	ip, r3
 2234 1052 0823     		mov	r3, #8
 2235 1054 9846     		mov	r8, r3
 2236 1056 0823     		mov	r3, #8
 2237 1058 9946     		mov	r9, r3
 2238 105a B944     		add	r9, r9, r7
 2239 105c C844     		add	r8, r8, r9
 2240 105e C444     		add	ip, ip, r8
 2241 1060 6044     		add	r0, r0, ip
 2242 1062 0160     		str	r1, [r0]
ARM GAS  C:\Users\fneves\AppData\Local\Temp\cc8Kqy5I.s 			page 64


 2243 1064 B821     		mov	r1, #184
 2244 1066 9820     		mov	r0, #152
 2245 1068 8446     		mov	ip, r0
 2246 106a 0823     		mov	r3, #8
 2247 106c 9846     		mov	r8, r3
 2248 106e 0823     		mov	r3, #8
 2249 1070 9946     		mov	r9, r3
 2250 1072 B944     		add	r9, r9, r7
 2251 1074 C844     		add	r8, r8, r9
 2252 1076 C444     		add	ip, ip, r8
 2253 1078 6144     		add	r1, r1, ip
 2254 107a 0A60     		str	r2, [r1]
 2255 107c B022     		mov	r2, #176
 2256 107e 9821     		mov	r1, #152
 2257 1080 8C46     		mov	ip, r1
 2258 1082 0823     		mov	r3, #8
 2259 1084 9846     		mov	r8, r3
 2260 1086 0823     		mov	r3, #8
 2261 1088 9946     		mov	r9, r3
 2262 108a B944     		add	r9, r9, r7
 2263 108c C844     		add	r8, r8, r9
 2264 108e C444     		add	ip, ip, r8
 2265 1090 6244     		add	r2, r2, ip
 2266 1092 BB68     		ldr	r3, [r7, #8]
 2267 1094 FC68     		ldr	r4, [r7, #12]
 2268 1096 1360     		str	r3, [r2]
 2269 1098 5460     		str	r4, [r2, #4]
 2270              	.LBB36:
 2271              	.LBB37:
 995:.\Include/arm_math.h ****                        ((((q31_t)x      ) >> 16) * (((q31_t)y      ) >> 16)) +
 2272              		.loc 2 995 0
 2273 109a BC23     		mov	r3, #188
 2274 109c 9822     		mov	r2, #152
 2275 109e 9446     		mov	ip, r2
 2276 10a0 0822     		mov	r2, #8
 2277 10a2 9046     		mov	r8, r2
 2278 10a4 0822     		mov	r2, #8
 2279 10a6 9146     		mov	r9, r2
 2280 10a8 B944     		add	r9, r9, r7
 2281 10aa C844     		add	r8, r8, r9
 2282 10ac C444     		add	ip, ip, r8
 2283 10ae 6344     		add	r3, r3, ip
 2284 10b0 1B68     		ldr	r3, [r3]
 2285 10b2 1B04     		lsl	r3, r3, #16
 2286 10b4 1A14     		asr	r2, r3, #16
 2287 10b6 B823     		mov	r3, #184
 2288 10b8 9821     		mov	r1, #152
 2289 10ba 8C46     		mov	ip, r1
 2290 10bc 0821     		mov	r1, #8
 2291 10be 8846     		mov	r8, r1
 2292 10c0 0821     		mov	r1, #8
 2293 10c2 8946     		mov	r9, r1
 2294 10c4 B944     		add	r9, r9, r7
 2295 10c6 C844     		add	r8, r8, r9
 2296 10c8 C444     		add	ip, ip, r8
 2297 10ca 6344     		add	r3, r3, ip
 2298 10cc 1B68     		ldr	r3, [r3]
ARM GAS  C:\Users\fneves\AppData\Local\Temp\cc8Kqy5I.s 			page 65


 2299 10ce 1B04     		lsl	r3, r3, #16
 2300 10d0 1B14     		asr	r3, r3, #16
 2301 10d2 5343     		mul	r3, r2
 2302 10d4 191C     		mov	r1, r3
 996:.\Include/arm_math.h ****                        ( ((q63_t)sum    )                                  )   ));
 2303              		.loc 2 996 0
 2304 10d6 BC23     		mov	r3, #188
 2305 10d8 9822     		mov	r2, #152
 2306 10da 9446     		mov	ip, r2
 2307 10dc 0822     		mov	r2, #8
 2308 10de 9046     		mov	r8, r2
 2309 10e0 0822     		mov	r2, #8
 2310 10e2 9146     		mov	r9, r2
 2311 10e4 B944     		add	r9, r9, r7
 2312 10e6 C844     		add	r8, r8, r9
 2313 10e8 C444     		add	ip, ip, r8
 2314 10ea 6344     		add	r3, r3, ip
 2315 10ec 1B68     		ldr	r3, [r3]
 2316 10ee 1A14     		asr	r2, r3, #16
 2317 10f0 B823     		mov	r3, #184
 2318 10f2 9820     		mov	r0, #152
 2319 10f4 8446     		mov	ip, r0
 2320 10f6 0820     		mov	r0, #8
 2321 10f8 8046     		mov	r8, r0
 2322 10fa 0820     		mov	r0, #8
 2323 10fc 8146     		mov	r9, r0
 2324 10fe B944     		add	r9, r9, r7
 2325 1100 C844     		add	r8, r8, r9
 2326 1102 C444     		add	ip, ip, r8
 2327 1104 6344     		add	r3, r3, ip
 2328 1106 1B68     		ldr	r3, [r3]
 2329 1108 1B14     		asr	r3, r3, #16
 2330 110a 5343     		mul	r3, r2
 995:.\Include/arm_math.h ****                        ((((q31_t)x      ) >> 16) * (((q31_t)y      ) >> 16)) +
 2331              		.loc 2 995 0
 2332 110c CB18     		add	r3, r1, r3
 996:.\Include/arm_math.h ****                        ( ((q63_t)sum    )                                  )   ));
 2333              		.loc 2 996 0
 2334 110e BB62     		str	r3, [r7, #40]
 2335 1110 DB17     		asr	r3, r3, #31
 2336 1112 FB62     		str	r3, [r7, #44]
 997:.\Include/arm_math.h ****   }
 2337              		.loc 2 997 0
 2338 1114 B023     		mov	r3, #176
 2339 1116 9822     		mov	r2, #152
 2340 1118 9446     		mov	ip, r2
 2341 111a 0822     		mov	r2, #8
 2342 111c 9046     		mov	r8, r2
 2343 111e 0822     		mov	r2, #8
 2344 1120 9146     		mov	r9, r2
 2345 1122 B944     		add	r9, r9, r7
 2346 1124 C844     		add	r8, r8, r9
 2347 1126 C444     		add	ip, ip, r8
 2348 1128 6344     		add	r3, r3, ip
 2349 112a 5C68     		ldr	r4, [r3, #4]
 2350 112c 1B68     		ldr	r3, [r3]
 996:.\Include/arm_math.h ****                        ( ((q63_t)sum    )                                  )   ));
ARM GAS  C:\Users\fneves\AppData\Local\Temp\cc8Kqy5I.s 			page 66


 2351              		.loc 2 996 0
 2352 112e B96A     		ldr	r1, [r7, #40]
 2353 1130 FA6A     		ldr	r2, [r7, #44]
 2354 1132 5B18     		add	r3, r3, r1
 2355 1134 5441     		adc	r4, r4, r2
 2356              	.LBE37:
 2357              	.LBE36:
 2358              		.loc 1 320 0
 2359 1136 A022     		mov	r2, #160
 2360 1138 5200     		lsl	r2, r2, #1
 2361 113a 9821     		mov	r1, #152
 2362 113c 8C46     		mov	ip, r1
 2363 113e 0821     		mov	r1, #8
 2364 1140 8846     		mov	r8, r1
 2365 1142 0821     		mov	r1, #8
 2366 1144 8946     		mov	r9, r1
 2367 1146 B944     		add	r9, r9, r7
 2368 1148 C844     		add	r8, r8, r9
 2369 114a C444     		add	ip, ip, r8
 2370 114c 6244     		add	r2, r2, ip
 2371 114e 1360     		str	r3, [r2]
 2372 1150 5460     		str	r4, [r2, #4]
 321:Source\FilteringFunctions/arm_conv_opt_q15.c **** 
 322:Source\FilteringFunctions/arm_conv_opt_q15.c ****       /* pack input data */
 323:Source\FilteringFunctions/arm_conv_opt_q15.c **** #ifndef ARM_MATH_BIG_ENDIAN
 324:Source\FilteringFunctions/arm_conv_opt_q15.c ****       x3 = __PKHBT(x1, x2, 0);
 2373              		.loc 1 324 0
 2374 1152 9A23     		mov	r3, #154
 2375 1154 5B00     		lsl	r3, r3, #1
 2376 1156 9822     		mov	r2, #152
 2377 1158 9446     		mov	ip, r2
 2378 115a 0822     		mov	r2, #8
 2379 115c 9046     		mov	r8, r2
 2380 115e 0822     		mov	r2, #8
 2381 1160 9146     		mov	r9, r2
 2382 1162 B944     		add	r9, r9, r7
 2383 1164 C844     		add	r8, r8, r9
 2384 1166 C444     		add	ip, ip, r8
 2385 1168 6344     		add	r3, r3, ip
 2386 116a 1B68     		ldr	r3, [r3]
 2387 116c 1B04     		lsl	r3, r3, #16
 2388 116e 1A0C     		lsr	r2, r3, #16
 2389 1170 9823     		mov	r3, #152
 2390 1172 5B00     		lsl	r3, r3, #1
 2391 1174 9821     		mov	r1, #152
 2392 1176 8C46     		mov	ip, r1
 2393 1178 0821     		mov	r1, #8
 2394 117a 8846     		mov	r8, r1
 2395 117c 0821     		mov	r1, #8
 2396 117e 8946     		mov	r9, r1
 2397 1180 B944     		add	r9, r9, r7
 2398 1182 C844     		add	r8, r8, r9
 2399 1184 C444     		add	ip, ip, r8
 2400 1186 6344     		add	r3, r3, ip
 2401 1188 1B68     		ldr	r3, [r3]
 2402 118a 1B0C     		lsr	r3, r3, #16
 2403 118c 1B04     		lsl	r3, r3, #16
ARM GAS  C:\Users\fneves\AppData\Local\Temp\cc8Kqy5I.s 			page 67


 2404 118e 1343     		orr	r3, r2
 2405 1190 CC22     		mov	r2, #204
 2406 1192 5200     		lsl	r2, r2, #1
 2407 1194 0821     		mov	r1, #8
 2408 1196 8C46     		mov	ip, r1
 2409 1198 0821     		mov	r1, #8
 2410 119a 8846     		mov	r8, r1
 2411 119c B844     		add	r8, r8, r7
 2412 119e C444     		add	ip, ip, r8
 2413 11a0 6244     		add	r2, r2, ip
 2414 11a2 1360     		str	r3, [r2]
 325:Source\FilteringFunctions/arm_conv_opt_q15.c **** #else
 326:Source\FilteringFunctions/arm_conv_opt_q15.c ****       x3 = __PKHBT(x2, x1, 0);
 327:Source\FilteringFunctions/arm_conv_opt_q15.c **** #endif
 328:Source\FilteringFunctions/arm_conv_opt_q15.c **** 
 329:Source\FilteringFunctions/arm_conv_opt_q15.c ****       acc3 = __SMLALDX(x3, y1, acc3);
 2415              		.loc 1 329 0
 2416 11a4 CC23     		mov	r3, #204
 2417 11a6 5B00     		lsl	r3, r3, #1
 2418 11a8 0822     		mov	r2, #8
 2419 11aa 9446     		mov	ip, r2
 2420 11ac 0822     		mov	r2, #8
 2421 11ae 9046     		mov	r8, r2
 2422 11b0 B844     		add	r8, r8, r7
 2423 11b2 C444     		add	ip, ip, r8
 2424 11b4 6344     		add	r3, r3, ip
 2425 11b6 1968     		ldr	r1, [r3]
 2426 11b8 8423     		mov	r3, #132
 2427 11ba 5B00     		lsl	r3, r3, #1
 2428 11bc 9822     		mov	r2, #152
 2429 11be 9446     		mov	ip, r2
 2430 11c0 0822     		mov	r2, #8
 2431 11c2 9046     		mov	r8, r2
 2432 11c4 0822     		mov	r2, #8
 2433 11c6 9146     		mov	r9, r2
 2434 11c8 B944     		add	r9, r9, r7
 2435 11ca C844     		add	r8, r8, r9
 2436 11cc C444     		add	ip, ip, r8
 2437 11ce 6344     		add	r3, r3, ip
 2438 11d0 1A68     		ldr	r2, [r3]
 2439 11d2 9C23     		mov	r3, #156
 2440 11d4 5B00     		lsl	r3, r3, #1
 2441 11d6 9820     		mov	r0, #152
 2442 11d8 8446     		mov	ip, r0
 2443 11da 0820     		mov	r0, #8
 2444 11dc 8046     		mov	r8, r0
 2445 11de 0820     		mov	r0, #8
 2446 11e0 8146     		mov	r9, r0
 2447 11e2 B944     		add	r9, r9, r7
 2448 11e4 C844     		add	r8, r8, r9
 2449 11e6 C444     		add	ip, ip, r8
 2450 11e8 6344     		add	r3, r3, ip
 2451 11ea 5C68     		ldr	r4, [r3, #4]
 2452 11ec 1B68     		ldr	r3, [r3]
 2453 11ee BB60     		str	r3, [r7, #8]
 2454 11f0 FC60     		str	r4, [r7, #12]
 2455 11f2 AC20     		mov	r0, #172
ARM GAS  C:\Users\fneves\AppData\Local\Temp\cc8Kqy5I.s 			page 68


 2456 11f4 9823     		mov	r3, #152
 2457 11f6 9C46     		mov	ip, r3
 2458 11f8 0823     		mov	r3, #8
 2459 11fa 9846     		mov	r8, r3
 2460 11fc 0823     		mov	r3, #8
 2461 11fe 9946     		mov	r9, r3
 2462 1200 B944     		add	r9, r9, r7
 2463 1202 C844     		add	r8, r8, r9
 2464 1204 C444     		add	ip, ip, r8
 2465 1206 6044     		add	r0, r0, ip
 2466 1208 0160     		str	r1, [r0]
 2467 120a A821     		mov	r1, #168
 2468 120c 9820     		mov	r0, #152
 2469 120e 8446     		mov	ip, r0
 2470 1210 0823     		mov	r3, #8
 2471 1212 9846     		mov	r8, r3
 2472 1214 0823     		mov	r3, #8
 2473 1216 9946     		mov	r9, r3
 2474 1218 B944     		add	r9, r9, r7
 2475 121a C844     		add	r8, r8, r9
 2476 121c C444     		add	ip, ip, r8
 2477 121e 6144     		add	r1, r1, ip
 2478 1220 0A60     		str	r2, [r1]
 2479 1222 A022     		mov	r2, #160
 2480 1224 9821     		mov	r1, #152
 2481 1226 8C46     		mov	ip, r1
 2482 1228 0823     		mov	r3, #8
 2483 122a 9846     		mov	r8, r3
 2484 122c 0823     		mov	r3, #8
 2485 122e 9946     		mov	r9, r3
 2486 1230 B944     		add	r9, r9, r7
 2487 1232 C844     		add	r8, r8, r9
 2488 1234 C444     		add	ip, ip, r8
 2489 1236 6244     		add	r2, r2, ip
 2490 1238 BB68     		ldr	r3, [r7, #8]
 2491 123a FC68     		ldr	r4, [r7, #12]
 2492 123c 1360     		str	r3, [r2]
 2493 123e 5460     		str	r4, [r2, #4]
 2494              	.LBB38:
 2495              	.LBB39:
1010:.\Include/arm_math.h ****                        ((((q31_t)x      ) >> 16) * (((q31_t)y << 16) >> 16)) +
 2496              		.loc 2 1010 0
 2497 1240 AC23     		mov	r3, #172
 2498 1242 9822     		mov	r2, #152
 2499 1244 9446     		mov	ip, r2
 2500 1246 0822     		mov	r2, #8
 2501 1248 9046     		mov	r8, r2
 2502 124a 0822     		mov	r2, #8
 2503 124c 9146     		mov	r9, r2
 2504 124e B944     		add	r9, r9, r7
 2505 1250 C844     		add	r8, r8, r9
 2506 1252 C444     		add	ip, ip, r8
 2507 1254 6344     		add	r3, r3, ip
 2508 1256 1B68     		ldr	r3, [r3]
 2509 1258 1B04     		lsl	r3, r3, #16
 2510 125a 1A14     		asr	r2, r3, #16
 2511 125c A823     		mov	r3, #168
ARM GAS  C:\Users\fneves\AppData\Local\Temp\cc8Kqy5I.s 			page 69


 2512 125e 9821     		mov	r1, #152
 2513 1260 8C46     		mov	ip, r1
 2514 1262 0821     		mov	r1, #8
 2515 1264 8846     		mov	r8, r1
 2516 1266 0821     		mov	r1, #8
 2517 1268 8946     		mov	r9, r1
 2518 126a B944     		add	r9, r9, r7
 2519 126c C844     		add	r8, r8, r9
 2520 126e C444     		add	ip, ip, r8
 2521 1270 6344     		add	r3, r3, ip
 2522 1272 1B68     		ldr	r3, [r3]
 2523 1274 1B14     		asr	r3, r3, #16
 2524 1276 5343     		mul	r3, r2
 2525 1278 191C     		mov	r1, r3
1011:.\Include/arm_math.h ****                        ( ((q63_t)sum    )                                  )   ));
 2526              		.loc 2 1011 0
 2527 127a AC23     		mov	r3, #172
 2528 127c 9822     		mov	r2, #152
 2529 127e 9446     		mov	ip, r2
 2530 1280 0822     		mov	r2, #8
 2531 1282 9046     		mov	r8, r2
 2532 1284 0822     		mov	r2, #8
 2533 1286 9146     		mov	r9, r2
 2534 1288 B944     		add	r9, r9, r7
 2535 128a C844     		add	r8, r8, r9
 2536 128c C444     		add	ip, ip, r8
 2537 128e 6344     		add	r3, r3, ip
 2538 1290 1B68     		ldr	r3, [r3]
 2539 1292 1A14     		asr	r2, r3, #16
 2540 1294 A823     		mov	r3, #168
 2541 1296 9820     		mov	r0, #152
 2542 1298 8446     		mov	ip, r0
 2543 129a 0820     		mov	r0, #8
 2544 129c 8046     		mov	r8, r0
 2545 129e 0820     		mov	r0, #8
 2546 12a0 8146     		mov	r9, r0
 2547 12a2 B944     		add	r9, r9, r7
 2548 12a4 C844     		add	r8, r8, r9
 2549 12a6 C444     		add	ip, ip, r8
 2550 12a8 6344     		add	r3, r3, ip
 2551 12aa 1B68     		ldr	r3, [r3]
 2552 12ac 1B04     		lsl	r3, r3, #16
 2553 12ae 1B14     		asr	r3, r3, #16
 2554 12b0 5343     		mul	r3, r2
1010:.\Include/arm_math.h ****                        ((((q31_t)x      ) >> 16) * (((q31_t)y << 16) >> 16)) +
 2555              		.loc 2 1010 0
 2556 12b2 CB18     		add	r3, r1, r3
1011:.\Include/arm_math.h ****                        ( ((q63_t)sum    )                                  )   ));
 2557              		.loc 2 1011 0
 2558 12b4 3B62     		str	r3, [r7, #32]
 2559 12b6 DB17     		asr	r3, r3, #31
 2560 12b8 7B62     		str	r3, [r7, #36]
 2561              		.loc 2 1012 0
 2562 12ba A023     		mov	r3, #160
 2563 12bc 9822     		mov	r2, #152
 2564 12be 9446     		mov	ip, r2
 2565 12c0 0822     		mov	r2, #8
ARM GAS  C:\Users\fneves\AppData\Local\Temp\cc8Kqy5I.s 			page 70


 2566 12c2 9046     		mov	r8, r2
 2567 12c4 0822     		mov	r2, #8
 2568 12c6 9146     		mov	r9, r2
 2569 12c8 B944     		add	r9, r9, r7
 2570 12ca C844     		add	r8, r8, r9
 2571 12cc C444     		add	ip, ip, r8
 2572 12ce 6344     		add	r3, r3, ip
 2573 12d0 5C68     		ldr	r4, [r3, #4]
 2574 12d2 1B68     		ldr	r3, [r3]
1011:.\Include/arm_math.h ****                        ( ((q63_t)sum    )                                  )   ));
 2575              		.loc 2 1011 0
 2576 12d4 396A     		ldr	r1, [r7, #32]
 2577 12d6 7A6A     		ldr	r2, [r7, #36]
 2578 12d8 5B18     		add	r3, r3, r1
 2579 12da 5441     		adc	r4, r4, r2
 2580              	.LBE39:
 2581              	.LBE38:
 2582              		.loc 1 329 0
 2583 12dc 9C22     		mov	r2, #156
 2584 12de 5200     		lsl	r2, r2, #1
 2585 12e0 9821     		mov	r1, #152
 2586 12e2 8C46     		mov	ip, r1
 2587 12e4 0821     		mov	r1, #8
 2588 12e6 8846     		mov	r8, r1
 2589 12e8 0821     		mov	r1, #8
 2590 12ea 8946     		mov	r9, r1
 2591 12ec B944     		add	r9, r9, r7
 2592 12ee C844     		add	r8, r8, r9
 2593 12f0 C444     		add	ip, ip, r8
 2594 12f2 6244     		add	r2, r2, ip
 2595 12f4 1360     		str	r3, [r2]
 2596 12f6 5460     		str	r4, [r2, #4]
 330:Source\FilteringFunctions/arm_conv_opt_q15.c ****       acc1 = __SMLALDX(x3, y2, acc1);
 2597              		.loc 1 330 0
 2598 12f8 CC23     		mov	r3, #204
 2599 12fa 5B00     		lsl	r3, r3, #1
 2600 12fc 0822     		mov	r2, #8
 2601 12fe 9446     		mov	ip, r2
 2602 1300 0822     		mov	r2, #8
 2603 1302 9046     		mov	r8, r2
 2604 1304 B844     		add	r8, r8, r7
 2605 1306 C444     		add	ip, ip, r8
 2606 1308 6344     		add	r3, r3, ip
 2607 130a 1968     		ldr	r1, [r3]
 2608 130c CE23     		mov	r3, #206
 2609 130e 5B00     		lsl	r3, r3, #1
 2610 1310 0822     		mov	r2, #8
 2611 1312 9446     		mov	ip, r2
 2612 1314 0822     		mov	r2, #8
 2613 1316 9046     		mov	r8, r2
 2614 1318 B844     		add	r8, r8, r7
 2615 131a C444     		add	ip, ip, r8
 2616 131c 6344     		add	r3, r3, ip
 2617 131e 1A68     		ldr	r2, [r3]
 2618 1320 A423     		mov	r3, #164
 2619 1322 5B00     		lsl	r3, r3, #1
 2620 1324 9820     		mov	r0, #152
ARM GAS  C:\Users\fneves\AppData\Local\Temp\cc8Kqy5I.s 			page 71


 2621 1326 8446     		mov	ip, r0
 2622 1328 0820     		mov	r0, #8
 2623 132a 8046     		mov	r8, r0
 2624 132c 0820     		mov	r0, #8
 2625 132e 8146     		mov	r9, r0
 2626 1330 B944     		add	r9, r9, r7
 2627 1332 C844     		add	r8, r8, r9
 2628 1334 C444     		add	ip, ip, r8
 2629 1336 6344     		add	r3, r3, ip
 2630 1338 5C68     		ldr	r4, [r3, #4]
 2631 133a 1B68     		ldr	r3, [r3]
 2632 133c BB60     		str	r3, [r7, #8]
 2633 133e FC60     		str	r4, [r7, #12]
 2634 1340 9C20     		mov	r0, #156
 2635 1342 9823     		mov	r3, #152
 2636 1344 9C46     		mov	ip, r3
 2637 1346 0823     		mov	r3, #8
 2638 1348 9846     		mov	r8, r3
 2639 134a 0823     		mov	r3, #8
 2640 134c 9946     		mov	r9, r3
 2641 134e B944     		add	r9, r9, r7
 2642 1350 C844     		add	r8, r8, r9
 2643 1352 C444     		add	ip, ip, r8
 2644 1354 6044     		add	r0, r0, ip
 2645 1356 0160     		str	r1, [r0]
 2646 1358 9821     		mov	r1, #152
 2647 135a 9820     		mov	r0, #152
 2648 135c 8446     		mov	ip, r0
 2649 135e 0823     		mov	r3, #8
 2650 1360 9846     		mov	r8, r3
 2651 1362 0823     		mov	r3, #8
 2652 1364 9946     		mov	r9, r3
 2653 1366 B944     		add	r9, r9, r7
 2654 1368 C844     		add	r8, r8, r9
 2655 136a C444     		add	ip, ip, r8
 2656 136c 6144     		add	r1, r1, ip
 2657 136e 0A60     		str	r2, [r1]
 2658 1370 9022     		mov	r2, #144
 2659 1372 9821     		mov	r1, #152
 2660 1374 8C46     		mov	ip, r1
 2661 1376 0823     		mov	r3, #8
 2662 1378 9846     		mov	r8, r3
 2663 137a 0823     		mov	r3, #8
 2664 137c 9946     		mov	r9, r3
 2665 137e B944     		add	r9, r9, r7
 2666 1380 C844     		add	r8, r8, r9
 2667 1382 C444     		add	ip, ip, r8
 2668 1384 6244     		add	r2, r2, ip
 2669 1386 BB68     		ldr	r3, [r7, #8]
 2670 1388 FC68     		ldr	r4, [r7, #12]
 2671 138a 1360     		str	r3, [r2]
 2672 138c 5460     		str	r4, [r2, #4]
 2673              	.LBB40:
 2674              	.LBB41:
1010:.\Include/arm_math.h ****                        ((((q31_t)x      ) >> 16) * (((q31_t)y << 16) >> 16)) +
 2675              		.loc 2 1010 0
 2676 138e 9C23     		mov	r3, #156
ARM GAS  C:\Users\fneves\AppData\Local\Temp\cc8Kqy5I.s 			page 72


 2677 1390 9822     		mov	r2, #152
 2678 1392 9446     		mov	ip, r2
 2679 1394 0822     		mov	r2, #8
 2680 1396 9046     		mov	r8, r2
 2681 1398 0822     		mov	r2, #8
 2682 139a 9146     		mov	r9, r2
 2683 139c B944     		add	r9, r9, r7
 2684 139e C844     		add	r8, r8, r9
 2685 13a0 C444     		add	ip, ip, r8
 2686 13a2 6344     		add	r3, r3, ip
 2687 13a4 1B68     		ldr	r3, [r3]
 2688 13a6 1B04     		lsl	r3, r3, #16
 2689 13a8 1A14     		asr	r2, r3, #16
 2690 13aa 9823     		mov	r3, #152
 2691 13ac 9821     		mov	r1, #152
 2692 13ae 8C46     		mov	ip, r1
 2693 13b0 0821     		mov	r1, #8
 2694 13b2 8846     		mov	r8, r1
 2695 13b4 0821     		mov	r1, #8
 2696 13b6 8946     		mov	r9, r1
 2697 13b8 B944     		add	r9, r9, r7
 2698 13ba C844     		add	r8, r8, r9
 2699 13bc C444     		add	ip, ip, r8
 2700 13be 6344     		add	r3, r3, ip
 2701 13c0 1B68     		ldr	r3, [r3]
 2702 13c2 1B14     		asr	r3, r3, #16
 2703 13c4 5343     		mul	r3, r2
 2704 13c6 191C     		mov	r1, r3
1011:.\Include/arm_math.h ****                        ( ((q63_t)sum    )                                  )   ));
 2705              		.loc 2 1011 0
 2706 13c8 9C23     		mov	r3, #156
 2707 13ca 9822     		mov	r2, #152
 2708 13cc 9446     		mov	ip, r2
 2709 13ce 0822     		mov	r2, #8
 2710 13d0 9046     		mov	r8, r2
 2711 13d2 0822     		mov	r2, #8
 2712 13d4 9146     		mov	r9, r2
 2713 13d6 B944     		add	r9, r9, r7
 2714 13d8 C844     		add	r8, r8, r9
 2715 13da C444     		add	ip, ip, r8
 2716 13dc 6344     		add	r3, r3, ip
 2717 13de 1B68     		ldr	r3, [r3]
 2718 13e0 1A14     		asr	r2, r3, #16
 2719 13e2 9823     		mov	r3, #152
 2720 13e4 9820     		mov	r0, #152
 2721 13e6 8446     		mov	ip, r0
 2722 13e8 0820     		mov	r0, #8
 2723 13ea 8046     		mov	r8, r0
 2724 13ec 0820     		mov	r0, #8
 2725 13ee 8146     		mov	r9, r0
 2726 13f0 B944     		add	r9, r9, r7
 2727 13f2 C844     		add	r8, r8, r9
 2728 13f4 C444     		add	ip, ip, r8
 2729 13f6 6344     		add	r3, r3, ip
 2730 13f8 1B68     		ldr	r3, [r3]
 2731 13fa 1B04     		lsl	r3, r3, #16
 2732 13fc 1B14     		asr	r3, r3, #16
ARM GAS  C:\Users\fneves\AppData\Local\Temp\cc8Kqy5I.s 			page 73


 2733 13fe 5343     		mul	r3, r2
1010:.\Include/arm_math.h ****                        ((((q31_t)x      ) >> 16) * (((q31_t)y << 16) >> 16)) +
 2734              		.loc 2 1010 0
 2735 1400 CB18     		add	r3, r1, r3
1011:.\Include/arm_math.h ****                        ( ((q63_t)sum    )                                  )   ));
 2736              		.loc 2 1011 0
 2737 1402 BB61     		str	r3, [r7, #24]
 2738 1404 DB17     		asr	r3, r3, #31
 2739 1406 FB61     		str	r3, [r7, #28]
 2740              		.loc 2 1012 0
 2741 1408 9023     		mov	r3, #144
 2742 140a 9822     		mov	r2, #152
 2743 140c 9446     		mov	ip, r2
 2744 140e 0822     		mov	r2, #8
 2745 1410 9046     		mov	r8, r2
 2746 1412 0822     		mov	r2, #8
 2747 1414 9146     		mov	r9, r2
 2748 1416 B944     		add	r9, r9, r7
 2749 1418 C844     		add	r8, r8, r9
 2750 141a C444     		add	ip, ip, r8
 2751 141c 6344     		add	r3, r3, ip
 2752 141e 5C68     		ldr	r4, [r3, #4]
 2753 1420 1B68     		ldr	r3, [r3]
1011:.\Include/arm_math.h ****                        ( ((q63_t)sum    )                                  )   ));
 2754              		.loc 2 1011 0
 2755 1422 B969     		ldr	r1, [r7, #24]
 2756 1424 FA69     		ldr	r2, [r7, #28]
 2757 1426 5B18     		add	r3, r3, r1
 2758 1428 5441     		adc	r4, r4, r2
 2759              	.LBE41:
 2760              	.LBE40:
 2761              		.loc 1 330 0
 2762 142a A422     		mov	r2, #164
 2763 142c 5200     		lsl	r2, r2, #1
 2764 142e 9821     		mov	r1, #152
 2765 1430 8C46     		mov	ip, r1
 2766 1432 0821     		mov	r1, #8
 2767 1434 8846     		mov	r8, r1
 2768 1436 0821     		mov	r1, #8
 2769 1438 8946     		mov	r9, r1
 2770 143a B944     		add	r9, r9, r7
 2771 143c C844     		add	r8, r8, r9
 2772 143e C444     		add	ip, ip, r8
 2773 1440 6244     		add	r2, r2, ip
 2774 1442 1360     		str	r3, [r2]
 2775 1444 5460     		str	r4, [r2, #4]
 331:Source\FilteringFunctions/arm_conv_opt_q15.c **** 
 332:Source\FilteringFunctions/arm_conv_opt_q15.c ****       x2 = _SIMD32_OFFSET(pScr1 + 2u);
 2776              		.loc 1 332 0
 2777 1446 AC23     		mov	r3, #172
 2778 1448 0822     		mov	r2, #8
 2779 144a 9446     		mov	ip, r2
 2780 144c 0822     		mov	r2, #8
 2781 144e 9046     		mov	r8, r2
 2782 1450 B844     		add	r8, r8, r7
 2783 1452 C444     		add	ip, ip, r8
 2784 1454 6344     		add	r3, r3, ip
ARM GAS  C:\Users\fneves\AppData\Local\Temp\cc8Kqy5I.s 			page 74


 2785 1456 1B68     		ldr	r3, [r3]
 2786 1458 5B68     		ldr	r3, [r3, #4]
 2787 145a 9822     		mov	r2, #152
 2788 145c 5200     		lsl	r2, r2, #1
 2789 145e 9821     		mov	r1, #152
 2790 1460 8C46     		mov	ip, r1
 2791 1462 0821     		mov	r1, #8
 2792 1464 8846     		mov	r8, r1
 2793 1466 0821     		mov	r1, #8
 2794 1468 8946     		mov	r9, r1
 2795 146a B944     		add	r9, r9, r7
 2796 146c C844     		add	r8, r8, r9
 2797 146e C444     		add	ip, ip, r8
 2798 1470 6244     		add	r2, r2, ip
 2799 1472 1360     		str	r3, [r2]
 333:Source\FilteringFunctions/arm_conv_opt_q15.c **** 
 334:Source\FilteringFunctions/arm_conv_opt_q15.c **** #ifndef ARM_MATH_BIG_ENDIAN
 335:Source\FilteringFunctions/arm_conv_opt_q15.c ****       x3 = __PKHBT(x2, x1, 0);
 2800              		.loc 1 335 0
 2801 1474 9823     		mov	r3, #152
 2802 1476 5B00     		lsl	r3, r3, #1
 2803 1478 9822     		mov	r2, #152
 2804 147a 9446     		mov	ip, r2
 2805 147c 0822     		mov	r2, #8
 2806 147e 9046     		mov	r8, r2
 2807 1480 0822     		mov	r2, #8
 2808 1482 9146     		mov	r9, r2
 2809 1484 B944     		add	r9, r9, r7
 2810 1486 C844     		add	r8, r8, r9
 2811 1488 C444     		add	ip, ip, r8
 2812 148a 6344     		add	r3, r3, ip
 2813 148c 1B68     		ldr	r3, [r3]
 2814 148e 1B04     		lsl	r3, r3, #16
 2815 1490 1A0C     		lsr	r2, r3, #16
 2816 1492 9A23     		mov	r3, #154
 2817 1494 5B00     		lsl	r3, r3, #1
 2818 1496 9821     		mov	r1, #152
 2819 1498 8C46     		mov	ip, r1
 2820 149a 0821     		mov	r1, #8
 2821 149c 8846     		mov	r8, r1
 2822 149e 0821     		mov	r1, #8
 2823 14a0 8946     		mov	r9, r1
 2824 14a2 B944     		add	r9, r9, r7
 2825 14a4 C844     		add	r8, r8, r9
 2826 14a6 C444     		add	ip, ip, r8
 2827 14a8 6344     		add	r3, r3, ip
 2828 14aa 1B68     		ldr	r3, [r3]
 2829 14ac 1B0C     		lsr	r3, r3, #16
 2830 14ae 1B04     		lsl	r3, r3, #16
 2831 14b0 1343     		orr	r3, r2
 2832 14b2 CC22     		mov	r2, #204
 2833 14b4 5200     		lsl	r2, r2, #1
 2834 14b6 0821     		mov	r1, #8
 2835 14b8 8C46     		mov	ip, r1
 2836 14ba 0821     		mov	r1, #8
 2837 14bc 8846     		mov	r8, r1
 2838 14be B844     		add	r8, r8, r7
ARM GAS  C:\Users\fneves\AppData\Local\Temp\cc8Kqy5I.s 			page 75


 2839 14c0 C444     		add	ip, ip, r8
 2840 14c2 6244     		add	r2, r2, ip
 2841 14c4 1360     		str	r3, [r2]
 336:Source\FilteringFunctions/arm_conv_opt_q15.c **** #else
 337:Source\FilteringFunctions/arm_conv_opt_q15.c ****       x3 = __PKHBT(x1, x2, 0);
 338:Source\FilteringFunctions/arm_conv_opt_q15.c **** #endif
 339:Source\FilteringFunctions/arm_conv_opt_q15.c **** 
 340:Source\FilteringFunctions/arm_conv_opt_q15.c ****       acc3 = __SMLALDX(x3, y2, acc3);
 2842              		.loc 1 340 0
 2843 14c6 CC23     		mov	r3, #204
 2844 14c8 5B00     		lsl	r3, r3, #1
 2845 14ca 0822     		mov	r2, #8
 2846 14cc 9446     		mov	ip, r2
 2847 14ce 0822     		mov	r2, #8
 2848 14d0 9046     		mov	r8, r2
 2849 14d2 B844     		add	r8, r8, r7
 2850 14d4 C444     		add	ip, ip, r8
 2851 14d6 6344     		add	r3, r3, ip
 2852 14d8 1968     		ldr	r1, [r3]
 2853 14da CE23     		mov	r3, #206
 2854 14dc 5B00     		lsl	r3, r3, #1
 2855 14de 0822     		mov	r2, #8
 2856 14e0 9446     		mov	ip, r2
 2857 14e2 0822     		mov	r2, #8
 2858 14e4 9046     		mov	r8, r2
 2859 14e6 B844     		add	r8, r8, r7
 2860 14e8 C444     		add	ip, ip, r8
 2861 14ea 6344     		add	r3, r3, ip
 2862 14ec 1A68     		ldr	r2, [r3]
 2863 14ee 9C23     		mov	r3, #156
 2864 14f0 5B00     		lsl	r3, r3, #1
 2865 14f2 9820     		mov	r0, #152
 2866 14f4 8446     		mov	ip, r0
 2867 14f6 0820     		mov	r0, #8
 2868 14f8 8046     		mov	r8, r0
 2869 14fa 0820     		mov	r0, #8
 2870 14fc 8146     		mov	r9, r0
 2871 14fe B944     		add	r9, r9, r7
 2872 1500 C844     		add	r8, r8, r9
 2873 1502 C444     		add	ip, ip, r8
 2874 1504 6344     		add	r3, r3, ip
 2875 1506 5C68     		ldr	r4, [r3, #4]
 2876 1508 1B68     		ldr	r3, [r3]
 2877 150a BB60     		str	r3, [r7, #8]
 2878 150c FC60     		str	r4, [r7, #12]
 2879 150e 8C20     		mov	r0, #140
 2880 1510 9823     		mov	r3, #152
 2881 1512 9C46     		mov	ip, r3
 2882 1514 0823     		mov	r3, #8
 2883 1516 9846     		mov	r8, r3
 2884 1518 0823     		mov	r3, #8
 2885 151a 9946     		mov	r9, r3
 2886 151c B944     		add	r9, r9, r7
 2887 151e C844     		add	r8, r8, r9
 2888 1520 C444     		add	ip, ip, r8
 2889 1522 6044     		add	r0, r0, ip
 2890 1524 0160     		str	r1, [r0]
ARM GAS  C:\Users\fneves\AppData\Local\Temp\cc8Kqy5I.s 			page 76


 2891 1526 8821     		mov	r1, #136
 2892 1528 9820     		mov	r0, #152
 2893 152a 8446     		mov	ip, r0
 2894 152c 0823     		mov	r3, #8
 2895 152e 9846     		mov	r8, r3
 2896 1530 0823     		mov	r3, #8
 2897 1532 9946     		mov	r9, r3
 2898 1534 B944     		add	r9, r9, r7
 2899 1536 C844     		add	r8, r8, r9
 2900 1538 C444     		add	ip, ip, r8
 2901 153a 6144     		add	r1, r1, ip
 2902 153c 0A60     		str	r2, [r1]
 2903 153e 8022     		mov	r2, #128
 2904 1540 9821     		mov	r1, #152
 2905 1542 8C46     		mov	ip, r1
 2906 1544 0823     		mov	r3, #8
 2907 1546 9846     		mov	r8, r3
 2908 1548 0823     		mov	r3, #8
 2909 154a 9946     		mov	r9, r3
 2910 154c B944     		add	r9, r9, r7
 2911 154e C844     		add	r8, r8, r9
 2912 1550 C444     		add	ip, ip, r8
 2913 1552 6244     		add	r2, r2, ip
 2914 1554 BB68     		ldr	r3, [r7, #8]
 2915 1556 FC68     		ldr	r4, [r7, #12]
 2916 1558 1360     		str	r3, [r2]
 2917 155a 5460     		str	r4, [r2, #4]
 2918              	.LBB42:
 2919              	.LBB43:
1010:.\Include/arm_math.h ****                        ((((q31_t)x      ) >> 16) * (((q31_t)y << 16) >> 16)) +
 2920              		.loc 2 1010 0
 2921 155c 8C23     		mov	r3, #140
 2922 155e 9822     		mov	r2, #152
 2923 1560 9446     		mov	ip, r2
 2924 1562 0822     		mov	r2, #8
 2925 1564 9046     		mov	r8, r2
 2926 1566 0822     		mov	r2, #8
 2927 1568 9146     		mov	r9, r2
 2928 156a B944     		add	r9, r9, r7
 2929 156c C844     		add	r8, r8, r9
 2930 156e C444     		add	ip, ip, r8
 2931 1570 6344     		add	r3, r3, ip
 2932 1572 1B68     		ldr	r3, [r3]
 2933 1574 1B04     		lsl	r3, r3, #16
 2934 1576 1A14     		asr	r2, r3, #16
 2935 1578 8823     		mov	r3, #136
 2936 157a 9821     		mov	r1, #152
 2937 157c 8C46     		mov	ip, r1
 2938 157e 0821     		mov	r1, #8
 2939 1580 8846     		mov	r8, r1
 2940 1582 0821     		mov	r1, #8
 2941 1584 8946     		mov	r9, r1
 2942 1586 B944     		add	r9, r9, r7
 2943 1588 C844     		add	r8, r8, r9
 2944 158a C444     		add	ip, ip, r8
 2945 158c 6344     		add	r3, r3, ip
 2946 158e 1B68     		ldr	r3, [r3]
ARM GAS  C:\Users\fneves\AppData\Local\Temp\cc8Kqy5I.s 			page 77


 2947 1590 1B14     		asr	r3, r3, #16
 2948 1592 5343     		mul	r3, r2
 2949 1594 191C     		mov	r1, r3
1011:.\Include/arm_math.h ****                        ( ((q63_t)sum    )                                  )   ));
 2950              		.loc 2 1011 0
 2951 1596 8C23     		mov	r3, #140
 2952 1598 9822     		mov	r2, #152
 2953 159a 9446     		mov	ip, r2
 2954 159c 0822     		mov	r2, #8
 2955 159e 9046     		mov	r8, r2
 2956 15a0 0822     		mov	r2, #8
 2957 15a2 9146     		mov	r9, r2
 2958 15a4 B944     		add	r9, r9, r7
 2959 15a6 C844     		add	r8, r8, r9
 2960 15a8 C444     		add	ip, ip, r8
 2961 15aa 6344     		add	r3, r3, ip
 2962 15ac 1B68     		ldr	r3, [r3]
 2963 15ae 1A14     		asr	r2, r3, #16
 2964 15b0 8823     		mov	r3, #136
 2965 15b2 9820     		mov	r0, #152
 2966 15b4 8446     		mov	ip, r0
 2967 15b6 0820     		mov	r0, #8
 2968 15b8 8046     		mov	r8, r0
 2969 15ba 0820     		mov	r0, #8
 2970 15bc 8146     		mov	r9, r0
 2971 15be B944     		add	r9, r9, r7
 2972 15c0 C844     		add	r8, r8, r9
 2973 15c2 C444     		add	ip, ip, r8
 2974 15c4 6344     		add	r3, r3, ip
 2975 15c6 1B68     		ldr	r3, [r3]
 2976 15c8 1B04     		lsl	r3, r3, #16
 2977 15ca 1B14     		asr	r3, r3, #16
 2978 15cc 5343     		mul	r3, r2
1010:.\Include/arm_math.h ****                        ((((q31_t)x      ) >> 16) * (((q31_t)y << 16) >> 16)) +
 2979              		.loc 2 1010 0
 2980 15ce CB18     		add	r3, r1, r3
1011:.\Include/arm_math.h ****                        ( ((q63_t)sum    )                                  )   ));
 2981              		.loc 2 1011 0
 2982 15d0 3B61     		str	r3, [r7, #16]
 2983 15d2 DB17     		asr	r3, r3, #31
 2984 15d4 7B61     		str	r3, [r7, #20]
 2985              		.loc 2 1012 0
 2986 15d6 8023     		mov	r3, #128
 2987 15d8 9822     		mov	r2, #152
 2988 15da 9446     		mov	ip, r2
 2989 15dc 0822     		mov	r2, #8
 2990 15de 9046     		mov	r8, r2
 2991 15e0 0822     		mov	r2, #8
 2992 15e2 9146     		mov	r9, r2
 2993 15e4 B944     		add	r9, r9, r7
 2994 15e6 C844     		add	r8, r8, r9
 2995 15e8 C444     		add	ip, ip, r8
 2996 15ea 6344     		add	r3, r3, ip
 2997 15ec 5C68     		ldr	r4, [r3, #4]
 2998 15ee 1B68     		ldr	r3, [r3]
1011:.\Include/arm_math.h ****                        ( ((q63_t)sum    )                                  )   ));
 2999              		.loc 2 1011 0
ARM GAS  C:\Users\fneves\AppData\Local\Temp\cc8Kqy5I.s 			page 78


 3000 15f0 3969     		ldr	r1, [r7, #16]
 3001 15f2 7A69     		ldr	r2, [r7, #20]
 3002 15f4 5B18     		add	r3, r3, r1
 3003 15f6 5441     		adc	r4, r4, r2
 3004              	.LBE43:
 3005              	.LBE42:
 3006              		.loc 1 340 0
 3007 15f8 9C22     		mov	r2, #156
 3008 15fa 5200     		lsl	r2, r2, #1
 3009 15fc 9821     		mov	r1, #152
 3010 15fe 8C46     		mov	ip, r1
 3011 1600 0821     		mov	r1, #8
 3012 1602 8846     		mov	r8, r1
 3013 1604 0821     		mov	r1, #8
 3014 1606 8946     		mov	r9, r1
 3015 1608 B944     		add	r9, r9, r7
 3016 160a C844     		add	r8, r8, r9
 3017 160c C444     		add	ip, ip, r8
 3018 160e 6244     		add	r2, r2, ip
 3019 1610 1360     		str	r3, [r2]
 3020 1612 5460     		str	r4, [r2, #4]
 341:Source\FilteringFunctions/arm_conv_opt_q15.c **** 
 342:Source\FilteringFunctions/arm_conv_opt_q15.c **** #else
 343:Source\FilteringFunctions/arm_conv_opt_q15.c **** 
 344:Source\FilteringFunctions/arm_conv_opt_q15.c ****       /* Read four samples from smaller buffer */
 345:Source\FilteringFunctions/arm_conv_opt_q15.c **** 	  a = *pIn2;
 346:Source\FilteringFunctions/arm_conv_opt_q15.c **** 	  b = *(pIn2 + 1);
 347:Source\FilteringFunctions/arm_conv_opt_q15.c **** 
 348:Source\FilteringFunctions/arm_conv_opt_q15.c **** #ifndef ARM_MATH_BIG_ENDIAN
 349:Source\FilteringFunctions/arm_conv_opt_q15.c ****       y1 = __PKHBT(a, b, 16);
 350:Source\FilteringFunctions/arm_conv_opt_q15.c **** #else
 351:Source\FilteringFunctions/arm_conv_opt_q15.c ****       y1 = __PKHBT(b, a, 16);
 352:Source\FilteringFunctions/arm_conv_opt_q15.c **** #endif
 353:Source\FilteringFunctions/arm_conv_opt_q15.c **** 
 354:Source\FilteringFunctions/arm_conv_opt_q15.c **** 	  a = *(pIn2 + 2);
 355:Source\FilteringFunctions/arm_conv_opt_q15.c **** 	  b = *(pIn2 + 3);
 356:Source\FilteringFunctions/arm_conv_opt_q15.c **** #ifndef ARM_MATH_BIG_ENDIAN
 357:Source\FilteringFunctions/arm_conv_opt_q15.c ****       y2 = __PKHBT(a, b, 16);
 358:Source\FilteringFunctions/arm_conv_opt_q15.c **** #else
 359:Source\FilteringFunctions/arm_conv_opt_q15.c ****       y2 = __PKHBT(b, a, 16);
 360:Source\FilteringFunctions/arm_conv_opt_q15.c **** #endif
 361:Source\FilteringFunctions/arm_conv_opt_q15.c **** 
 362:Source\FilteringFunctions/arm_conv_opt_q15.c ****       acc0 = __SMLALD(x1, y1, acc0);
 363:Source\FilteringFunctions/arm_conv_opt_q15.c **** 
 364:Source\FilteringFunctions/arm_conv_opt_q15.c ****       acc2 = __SMLALD(x2, y1, acc2);
 365:Source\FilteringFunctions/arm_conv_opt_q15.c **** 
 366:Source\FilteringFunctions/arm_conv_opt_q15.c **** #ifndef ARM_MATH_BIG_ENDIAN
 367:Source\FilteringFunctions/arm_conv_opt_q15.c ****       x3 = __PKHBT(x2, x1, 0);
 368:Source\FilteringFunctions/arm_conv_opt_q15.c **** #else
 369:Source\FilteringFunctions/arm_conv_opt_q15.c ****       x3 = __PKHBT(x1, x2, 0);
 370:Source\FilteringFunctions/arm_conv_opt_q15.c **** #endif
 371:Source\FilteringFunctions/arm_conv_opt_q15.c **** 
 372:Source\FilteringFunctions/arm_conv_opt_q15.c ****       acc1 = __SMLALDX(x3, y1, acc1);
 373:Source\FilteringFunctions/arm_conv_opt_q15.c **** 
 374:Source\FilteringFunctions/arm_conv_opt_q15.c **** 	  a = *pScr1;
 375:Source\FilteringFunctions/arm_conv_opt_q15.c **** 	  b = *(pScr1 + 1);
 376:Source\FilteringFunctions/arm_conv_opt_q15.c **** 
ARM GAS  C:\Users\fneves\AppData\Local\Temp\cc8Kqy5I.s 			page 79


 377:Source\FilteringFunctions/arm_conv_opt_q15.c **** #ifndef ARM_MATH_BIG_ENDIAN
 378:Source\FilteringFunctions/arm_conv_opt_q15.c ****       x1 = __PKHBT(a, b, 16);
 379:Source\FilteringFunctions/arm_conv_opt_q15.c **** #else
 380:Source\FilteringFunctions/arm_conv_opt_q15.c ****       x1 = __PKHBT(b, a, 16);
 381:Source\FilteringFunctions/arm_conv_opt_q15.c **** #endif
 382:Source\FilteringFunctions/arm_conv_opt_q15.c **** 
 383:Source\FilteringFunctions/arm_conv_opt_q15.c ****       acc0 = __SMLALD(x2, y2, acc0);
 384:Source\FilteringFunctions/arm_conv_opt_q15.c **** 
 385:Source\FilteringFunctions/arm_conv_opt_q15.c ****       acc2 = __SMLALD(x1, y2, acc2);
 386:Source\FilteringFunctions/arm_conv_opt_q15.c **** 
 387:Source\FilteringFunctions/arm_conv_opt_q15.c **** #ifndef ARM_MATH_BIG_ENDIAN
 388:Source\FilteringFunctions/arm_conv_opt_q15.c ****       x3 = __PKHBT(x1, x2, 0);
 389:Source\FilteringFunctions/arm_conv_opt_q15.c **** #else
 390:Source\FilteringFunctions/arm_conv_opt_q15.c ****       x3 = __PKHBT(x2, x1, 0);
 391:Source\FilteringFunctions/arm_conv_opt_q15.c **** #endif
 392:Source\FilteringFunctions/arm_conv_opt_q15.c **** 
 393:Source\FilteringFunctions/arm_conv_opt_q15.c ****       acc3 = __SMLALDX(x3, y1, acc3);
 394:Source\FilteringFunctions/arm_conv_opt_q15.c **** 
 395:Source\FilteringFunctions/arm_conv_opt_q15.c ****       acc1 = __SMLALDX(x3, y2, acc1);
 396:Source\FilteringFunctions/arm_conv_opt_q15.c **** 
 397:Source\FilteringFunctions/arm_conv_opt_q15.c **** 	  a = *(pScr1 + 2);
 398:Source\FilteringFunctions/arm_conv_opt_q15.c **** 	  b = *(pScr1 + 3);
 399:Source\FilteringFunctions/arm_conv_opt_q15.c **** 
 400:Source\FilteringFunctions/arm_conv_opt_q15.c **** #ifndef ARM_MATH_BIG_ENDIAN
 401:Source\FilteringFunctions/arm_conv_opt_q15.c ****       x2 = __PKHBT(a, b, 16);
 402:Source\FilteringFunctions/arm_conv_opt_q15.c **** #else
 403:Source\FilteringFunctions/arm_conv_opt_q15.c ****       x2 = __PKHBT(b, a, 16);
 404:Source\FilteringFunctions/arm_conv_opt_q15.c **** #endif
 405:Source\FilteringFunctions/arm_conv_opt_q15.c **** 
 406:Source\FilteringFunctions/arm_conv_opt_q15.c **** #ifndef ARM_MATH_BIG_ENDIAN
 407:Source\FilteringFunctions/arm_conv_opt_q15.c ****       x3 = __PKHBT(x2, x1, 0);
 408:Source\FilteringFunctions/arm_conv_opt_q15.c **** #else
 409:Source\FilteringFunctions/arm_conv_opt_q15.c ****       x3 = __PKHBT(x1, x2, 0);
 410:Source\FilteringFunctions/arm_conv_opt_q15.c **** #endif
 411:Source\FilteringFunctions/arm_conv_opt_q15.c **** 
 412:Source\FilteringFunctions/arm_conv_opt_q15.c ****       acc3 = __SMLALDX(x3, y2, acc3);
 413:Source\FilteringFunctions/arm_conv_opt_q15.c **** 
 414:Source\FilteringFunctions/arm_conv_opt_q15.c **** #endif	/*	#ifndef UNALIGNED_SUPPORT_DISABLE	*/
 415:Source\FilteringFunctions/arm_conv_opt_q15.c **** 
 416:Source\FilteringFunctions/arm_conv_opt_q15.c ****       pIn2 += 4u;
 3021              		.loc 1 416 0
 3022 1614 9223     		mov	r3, #146
 3023 1616 5B00     		lsl	r3, r3, #1
 3024 1618 9822     		mov	r2, #152
 3025 161a 9446     		mov	ip, r2
 3026 161c 0822     		mov	r2, #8
 3027 161e 9046     		mov	r8, r2
 3028 1620 0822     		mov	r2, #8
 3029 1622 9146     		mov	r9, r2
 3030 1624 B944     		add	r9, r9, r7
 3031 1626 C844     		add	r8, r8, r9
 3032 1628 C444     		add	ip, ip, r8
 3033 162a 6344     		add	r3, r3, ip
 3034 162c 1B68     		ldr	r3, [r3]
 3035 162e 0833     		add	r3, r3, #8
 3036 1630 9222     		mov	r2, #146
 3037 1632 5200     		lsl	r2, r2, #1
ARM GAS  C:\Users\fneves\AppData\Local\Temp\cc8Kqy5I.s 			page 80


 3038 1634 9821     		mov	r1, #152
 3039 1636 8C46     		mov	ip, r1
 3040 1638 0821     		mov	r1, #8
 3041 163a 8846     		mov	r8, r1
 3042 163c 0821     		mov	r1, #8
 3043 163e 8946     		mov	r9, r1
 3044 1640 B944     		add	r9, r9, r7
 3045 1642 C844     		add	r8, r8, r9
 3046 1644 C444     		add	ip, ip, r8
 3047 1646 6244     		add	r2, r2, ip
 3048 1648 1360     		str	r3, [r2]
 417:Source\FilteringFunctions/arm_conv_opt_q15.c ****       pScr1 += 4u;
 3049              		.loc 1 417 0
 3050 164a AC23     		mov	r3, #172
 3051 164c 0822     		mov	r2, #8
 3052 164e 9446     		mov	ip, r2
 3053 1650 0822     		mov	r2, #8
 3054 1652 9046     		mov	r8, r2
 3055 1654 B844     		add	r8, r8, r7
 3056 1656 C444     		add	ip, ip, r8
 3057 1658 6344     		add	r3, r3, ip
 3058 165a 1B68     		ldr	r3, [r3]
 3059 165c 0833     		add	r3, r3, #8
 3060 165e AC22     		mov	r2, #172
 3061 1660 0821     		mov	r1, #8
 3062 1662 8C46     		mov	ip, r1
 3063 1664 0821     		mov	r1, #8
 3064 1666 8846     		mov	r8, r1
 3065 1668 B844     		add	r8, r8, r7
 3066 166a C444     		add	ip, ip, r8
 3067 166c 6244     		add	r2, r2, ip
 3068 166e 1360     		str	r3, [r2]
 418:Source\FilteringFunctions/arm_conv_opt_q15.c **** 
 419:Source\FilteringFunctions/arm_conv_opt_q15.c **** 
 420:Source\FilteringFunctions/arm_conv_opt_q15.c ****       /* Decrement the loop counter */
 421:Source\FilteringFunctions/arm_conv_opt_q15.c ****       tapCnt--;
 3069              		.loc 1 421 0
 3070 1670 8A23     		mov	r3, #138
 3071 1672 5B00     		lsl	r3, r3, #1
 3072 1674 9822     		mov	r2, #152
 3073 1676 9446     		mov	ip, r2
 3074 1678 0822     		mov	r2, #8
 3075 167a 9046     		mov	r8, r2
 3076 167c 0822     		mov	r2, #8
 3077 167e 9146     		mov	r9, r2
 3078 1680 B944     		add	r9, r9, r7
 3079 1682 C844     		add	r8, r8, r9
 3080 1684 C444     		add	ip, ip, r8
 3081 1686 6344     		add	r3, r3, ip
 3082 1688 1B68     		ldr	r3, [r3]
 3083 168a 013B     		sub	r3, r3, #1
 3084 168c 8A22     		mov	r2, #138
 3085 168e 5200     		lsl	r2, r2, #1
 3086 1690 9821     		mov	r1, #152
 3087 1692 8C46     		mov	ip, r1
 3088 1694 0821     		mov	r1, #8
 3089 1696 8846     		mov	r8, r1
ARM GAS  C:\Users\fneves\AppData\Local\Temp\cc8Kqy5I.s 			page 81


 3090 1698 0821     		mov	r1, #8
 3091 169a 8946     		mov	r9, r1
 3092 169c B944     		add	r9, r9, r7
 3093 169e C844     		add	r8, r8, r9
 3094 16a0 C444     		add	ip, ip, r8
 3095 16a2 6244     		add	r2, r2, ip
 3096 16a4 1360     		str	r3, [r2]
 3097              	.L9:
 292:Source\FilteringFunctions/arm_conv_opt_q15.c ****     {
 3098              		.loc 1 292 0
 3099 16a6 8A23     		mov	r3, #138
 3100 16a8 5B00     		lsl	r3, r3, #1
 3101 16aa 9822     		mov	r2, #152
 3102 16ac 9446     		mov	ip, r2
 3103 16ae 0822     		mov	r2, #8
 3104 16b0 9046     		mov	r8, r2
 3105 16b2 0822     		mov	r2, #8
 3106 16b4 9146     		mov	r9, r2
 3107 16b6 B944     		add	r9, r9, r7
 3108 16b8 C844     		add	r8, r8, r9
 3109 16ba C444     		add	ip, ip, r8
 3110 16bc 6344     		add	r3, r3, ip
 3111 16be 1B68     		ldr	r3, [r3]
 3112 16c0 002B     		cmp	r3, #0
 3113 16c2 01D0     		beq	.LCB2915
 3114 16c4 FFF77AF9 		bl	.L18	@far jump
 3115              	.LCB2915:
 422:Source\FilteringFunctions/arm_conv_opt_q15.c ****     }
 423:Source\FilteringFunctions/arm_conv_opt_q15.c **** 
 424:Source\FilteringFunctions/arm_conv_opt_q15.c ****     /* Update scratch pointer for remaining samples of smaller length sequence */
 425:Source\FilteringFunctions/arm_conv_opt_q15.c ****     pScr1 -= 4u;
 3116              		.loc 1 425 0
 3117 16c8 AC23     		mov	r3, #172
 3118 16ca 0822     		mov	r2, #8
 3119 16cc 9446     		mov	ip, r2
 3120 16ce 0822     		mov	r2, #8
 3121 16d0 9046     		mov	r8, r2
 3122 16d2 B844     		add	r8, r8, r7
 3123 16d4 C444     		add	ip, ip, r8
 3124 16d6 6344     		add	r3, r3, ip
 3125 16d8 1B68     		ldr	r3, [r3]
 3126 16da 083B     		sub	r3, r3, #8
 3127 16dc AC22     		mov	r2, #172
 3128 16de 0821     		mov	r1, #8
 3129 16e0 8C46     		mov	ip, r1
 3130 16e2 0821     		mov	r1, #8
 3131 16e4 8846     		mov	r8, r1
 3132 16e6 B844     		add	r8, r8, r7
 3133 16e8 C444     		add	ip, ip, r8
 3134 16ea 6244     		add	r2, r2, ip
 3135 16ec 1360     		str	r3, [r2]
 426:Source\FilteringFunctions/arm_conv_opt_q15.c **** 
 427:Source\FilteringFunctions/arm_conv_opt_q15.c ****     /* apply same above for remaining samples of smaller length sequence */
 428:Source\FilteringFunctions/arm_conv_opt_q15.c ****     tapCnt = (srcBLen) & 3u;
 3136              		.loc 1 428 0
 3137 16ee 9823     		mov	r3, #152
 3138 16f0 0822     		mov	r2, #8
ARM GAS  C:\Users\fneves\AppData\Local\Temp\cc8Kqy5I.s 			page 82


 3139 16f2 9446     		mov	ip, r2
 3140 16f4 0822     		mov	r2, #8
 3141 16f6 9046     		mov	r8, r2
 3142 16f8 B844     		add	r8, r8, r7
 3143 16fa C444     		add	ip, ip, r8
 3144 16fc 6344     		add	r3, r3, ip
 3145 16fe 1A68     		ldr	r2, [r3]
 3146 1700 0323     		mov	r3, #3
 3147 1702 1340     		and	r3, r2
 3148 1704 8A22     		mov	r2, #138
 3149 1706 5200     		lsl	r2, r2, #1
 3150 1708 9821     		mov	r1, #152
 3151 170a 8C46     		mov	ip, r1
 3152 170c 0821     		mov	r1, #8
 3153 170e 8846     		mov	r8, r1
 3154 1710 0821     		mov	r1, #8
 3155 1712 8946     		mov	r9, r1
 3156 1714 B944     		add	r9, r9, r7
 3157 1716 C844     		add	r8, r8, r9
 3158 1718 C444     		add	ip, ip, r8
 3159 171a 6244     		add	r2, r2, ip
 3160 171c 1360     		str	r3, [r2]
 429:Source\FilteringFunctions/arm_conv_opt_q15.c **** 
 430:Source\FilteringFunctions/arm_conv_opt_q15.c ****     while (tapCnt > 0u)
 3161              		.loc 1 430 0
 3162 171e 61E1     		b	.L19
 3163              	.L20:
 431:Source\FilteringFunctions/arm_conv_opt_q15.c ****     {
 432:Source\FilteringFunctions/arm_conv_opt_q15.c **** 
 433:Source\FilteringFunctions/arm_conv_opt_q15.c ****       /* accumlate the results */
 434:Source\FilteringFunctions/arm_conv_opt_q15.c ****       acc0 += (*pScr1++ * *pIn2);
 3164              		.loc 1 434 0
 3165 1720 AC23     		mov	r3, #172
 3166 1722 0822     		mov	r2, #8
 3167 1724 9446     		mov	ip, r2
 3168 1726 0822     		mov	r2, #8
 3169 1728 9046     		mov	r8, r2
 3170 172a B844     		add	r8, r8, r7
 3171 172c C444     		add	ip, ip, r8
 3172 172e 6344     		add	r3, r3, ip
 3173 1730 1A68     		ldr	r2, [r3]
 3174 1732 931C     		add	r3, r2, #2
 3175 1734 AC21     		mov	r1, #172
 3176 1736 0820     		mov	r0, #8
 3177 1738 8446     		mov	ip, r0
 3178 173a 0820     		mov	r0, #8
 3179 173c 8046     		mov	r8, r0
 3180 173e B844     		add	r8, r8, r7
 3181 1740 C444     		add	ip, ip, r8
 3182 1742 6144     		add	r1, r1, ip
 3183 1744 0B60     		str	r3, [r1]
 3184 1746 1388     		ldrh	r3, [r2]
 3185 1748 1AB2     		sxth	r2, r3
 3186 174a 9223     		mov	r3, #146
 3187 174c 5B00     		lsl	r3, r3, #1
 3188 174e 9821     		mov	r1, #152
 3189 1750 8C46     		mov	ip, r1
ARM GAS  C:\Users\fneves\AppData\Local\Temp\cc8Kqy5I.s 			page 83


 3190 1752 0821     		mov	r1, #8
 3191 1754 8846     		mov	r8, r1
 3192 1756 0821     		mov	r1, #8
 3193 1758 8946     		mov	r9, r1
 3194 175a B944     		add	r9, r9, r7
 3195 175c C844     		add	r8, r8, r9
 3196 175e C444     		add	ip, ip, r8
 3197 1760 6344     		add	r3, r3, ip
 3198 1762 1B68     		ldr	r3, [r3]
 3199 1764 1B88     		ldrh	r3, [r3]
 3200 1766 1BB2     		sxth	r3, r3
 3201 1768 5343     		mul	r3, r2
 3202 176a 8022     		mov	r2, #128
 3203 176c BA18     		add	r2, r7, r2
 3204 176e 1360     		str	r3, [r2]
 3205 1770 DB17     		asr	r3, r3, #31
 3206 1772 8422     		mov	r2, #132
 3207 1774 BA18     		add	r2, r7, r2
 3208 1776 1360     		str	r3, [r2]
 3209 1778 A823     		mov	r3, #168
 3210 177a 5B00     		lsl	r3, r3, #1
 3211 177c 9822     		mov	r2, #152
 3212 177e 9446     		mov	ip, r2
 3213 1780 0822     		mov	r2, #8
 3214 1782 9046     		mov	r8, r2
 3215 1784 0822     		mov	r2, #8
 3216 1786 9146     		mov	r9, r2
 3217 1788 B944     		add	r9, r9, r7
 3218 178a C844     		add	r8, r8, r9
 3219 178c C444     		add	ip, ip, r8
 3220 178e 6344     		add	r3, r3, ip
 3221 1790 5C68     		ldr	r4, [r3, #4]
 3222 1792 1B68     		ldr	r3, [r3]
 3223 1794 8022     		mov	r2, #128
 3224 1796 BA18     		add	r2, r7, r2
 3225 1798 1168     		ldr	r1, [r2]
 3226 179a 5268     		ldr	r2, [r2, #4]
 3227 179c 5B18     		add	r3, r3, r1
 3228 179e 5441     		adc	r4, r4, r2
 3229 17a0 A822     		mov	r2, #168
 3230 17a2 5200     		lsl	r2, r2, #1
 3231 17a4 9821     		mov	r1, #152
 3232 17a6 8C46     		mov	ip, r1
 3233 17a8 0821     		mov	r1, #8
 3234 17aa 8846     		mov	r8, r1
 3235 17ac 0821     		mov	r1, #8
 3236 17ae 8946     		mov	r9, r1
 3237 17b0 B944     		add	r9, r9, r7
 3238 17b2 C844     		add	r8, r8, r9
 3239 17b4 C444     		add	ip, ip, r8
 3240 17b6 6244     		add	r2, r2, ip
 3241 17b8 1360     		str	r3, [r2]
 3242 17ba 5460     		str	r4, [r2, #4]
 435:Source\FilteringFunctions/arm_conv_opt_q15.c ****       acc1 += (*pScr1++ * *pIn2);
 3243              		.loc 1 435 0
 3244 17bc AC23     		mov	r3, #172
 3245 17be 0822     		mov	r2, #8
ARM GAS  C:\Users\fneves\AppData\Local\Temp\cc8Kqy5I.s 			page 84


 3246 17c0 9446     		mov	ip, r2
 3247 17c2 0822     		mov	r2, #8
 3248 17c4 9046     		mov	r8, r2
 3249 17c6 B844     		add	r8, r8, r7
 3250 17c8 C444     		add	ip, ip, r8
 3251 17ca 6344     		add	r3, r3, ip
 3252 17cc 1A68     		ldr	r2, [r3]
 3253 17ce 931C     		add	r3, r2, #2
 3254 17d0 AC21     		mov	r1, #172
 3255 17d2 0820     		mov	r0, #8
 3256 17d4 8446     		mov	ip, r0
 3257 17d6 0820     		mov	r0, #8
 3258 17d8 8046     		mov	r8, r0
 3259 17da B844     		add	r8, r8, r7
 3260 17dc C444     		add	ip, ip, r8
 3261 17de 6144     		add	r1, r1, ip
 3262 17e0 0B60     		str	r3, [r1]
 3263 17e2 1388     		ldrh	r3, [r2]
 3264 17e4 1AB2     		sxth	r2, r3
 3265 17e6 9223     		mov	r3, #146
 3266 17e8 5B00     		lsl	r3, r3, #1
 3267 17ea 9821     		mov	r1, #152
 3268 17ec 8C46     		mov	ip, r1
 3269 17ee 0821     		mov	r1, #8
 3270 17f0 8846     		mov	r8, r1
 3271 17f2 0821     		mov	r1, #8
 3272 17f4 8946     		mov	r9, r1
 3273 17f6 B944     		add	r9, r9, r7
 3274 17f8 C844     		add	r8, r8, r9
 3275 17fa C444     		add	ip, ip, r8
 3276 17fc 6344     		add	r3, r3, ip
 3277 17fe 1B68     		ldr	r3, [r3]
 3278 1800 1B88     		ldrh	r3, [r3]
 3279 1802 1BB2     		sxth	r3, r3
 3280 1804 5343     		mul	r3, r2
 3281 1806 BB67     		str	r3, [r7, #120]
 3282 1808 DB17     		asr	r3, r3, #31
 3283 180a FB67     		str	r3, [r7, #124]
 3284 180c A423     		mov	r3, #164
 3285 180e 5B00     		lsl	r3, r3, #1
 3286 1810 9822     		mov	r2, #152
 3287 1812 9446     		mov	ip, r2
 3288 1814 0822     		mov	r2, #8
 3289 1816 9046     		mov	r8, r2
 3290 1818 0822     		mov	r2, #8
 3291 181a 9146     		mov	r9, r2
 3292 181c B944     		add	r9, r9, r7
 3293 181e C844     		add	r8, r8, r9
 3294 1820 C444     		add	ip, ip, r8
 3295 1822 6344     		add	r3, r3, ip
 3296 1824 5C68     		ldr	r4, [r3, #4]
 3297 1826 1B68     		ldr	r3, [r3]
 3298 1828 B96F     		ldr	r1, [r7, #120]
 3299 182a FA6F     		ldr	r2, [r7, #124]
 3300 182c 5B18     		add	r3, r3, r1
 3301 182e 5441     		adc	r4, r4, r2
 3302 1830 A422     		mov	r2, #164
ARM GAS  C:\Users\fneves\AppData\Local\Temp\cc8Kqy5I.s 			page 85


 3303 1832 5200     		lsl	r2, r2, #1
 3304 1834 9821     		mov	r1, #152
 3305 1836 8C46     		mov	ip, r1
 3306 1838 0821     		mov	r1, #8
 3307 183a 8846     		mov	r8, r1
 3308 183c 0821     		mov	r1, #8
 3309 183e 8946     		mov	r9, r1
 3310 1840 B944     		add	r9, r9, r7
 3311 1842 C844     		add	r8, r8, r9
 3312 1844 C444     		add	ip, ip, r8
 3313 1846 6244     		add	r2, r2, ip
 3314 1848 1360     		str	r3, [r2]
 3315 184a 5460     		str	r4, [r2, #4]
 436:Source\FilteringFunctions/arm_conv_opt_q15.c ****       acc2 += (*pScr1++ * *pIn2);
 3316              		.loc 1 436 0
 3317 184c AC23     		mov	r3, #172
 3318 184e 0822     		mov	r2, #8
 3319 1850 9446     		mov	ip, r2
 3320 1852 0822     		mov	r2, #8
 3321 1854 9046     		mov	r8, r2
 3322 1856 B844     		add	r8, r8, r7
 3323 1858 C444     		add	ip, ip, r8
 3324 185a 6344     		add	r3, r3, ip
 3325 185c 1A68     		ldr	r2, [r3]
 3326 185e 931C     		add	r3, r2, #2
 3327 1860 AC21     		mov	r1, #172
 3328 1862 0820     		mov	r0, #8
 3329 1864 8446     		mov	ip, r0
 3330 1866 0820     		mov	r0, #8
 3331 1868 8046     		mov	r8, r0
 3332 186a B844     		add	r8, r8, r7
 3333 186c C444     		add	ip, ip, r8
 3334 186e 6144     		add	r1, r1, ip
 3335 1870 0B60     		str	r3, [r1]
 3336 1872 1388     		ldrh	r3, [r2]
 3337 1874 1AB2     		sxth	r2, r3
 3338 1876 9223     		mov	r3, #146
 3339 1878 5B00     		lsl	r3, r3, #1
 3340 187a 9821     		mov	r1, #152
 3341 187c 8C46     		mov	ip, r1
 3342 187e 0821     		mov	r1, #8
 3343 1880 8846     		mov	r8, r1
 3344 1882 0821     		mov	r1, #8
 3345 1884 8946     		mov	r9, r1
 3346 1886 B944     		add	r9, r9, r7
 3347 1888 C844     		add	r8, r8, r9
 3348 188a C444     		add	ip, ip, r8
 3349 188c 6344     		add	r3, r3, ip
 3350 188e 1B68     		ldr	r3, [r3]
 3351 1890 1B88     		ldrh	r3, [r3]
 3352 1892 1BB2     		sxth	r3, r3
 3353 1894 5343     		mul	r3, r2
 3354 1896 3B67     		str	r3, [r7, #112]
 3355 1898 DB17     		asr	r3, r3, #31
 3356 189a 7B67     		str	r3, [r7, #116]
 3357 189c A023     		mov	r3, #160
 3358 189e 5B00     		lsl	r3, r3, #1
ARM GAS  C:\Users\fneves\AppData\Local\Temp\cc8Kqy5I.s 			page 86


 3359 18a0 9822     		mov	r2, #152
 3360 18a2 9446     		mov	ip, r2
 3361 18a4 0822     		mov	r2, #8
 3362 18a6 9046     		mov	r8, r2
 3363 18a8 0822     		mov	r2, #8
 3364 18aa 9146     		mov	r9, r2
 3365 18ac B944     		add	r9, r9, r7
 3366 18ae C844     		add	r8, r8, r9
 3367 18b0 C444     		add	ip, ip, r8
 3368 18b2 6344     		add	r3, r3, ip
 3369 18b4 5C68     		ldr	r4, [r3, #4]
 3370 18b6 1B68     		ldr	r3, [r3]
 3371 18b8 396F     		ldr	r1, [r7, #112]
 3372 18ba 7A6F     		ldr	r2, [r7, #116]
 3373 18bc 5B18     		add	r3, r3, r1
 3374 18be 5441     		adc	r4, r4, r2
 3375 18c0 A022     		mov	r2, #160
 3376 18c2 5200     		lsl	r2, r2, #1
 3377 18c4 9821     		mov	r1, #152
 3378 18c6 8C46     		mov	ip, r1
 3379 18c8 0821     		mov	r1, #8
 3380 18ca 8846     		mov	r8, r1
 3381 18cc 0821     		mov	r1, #8
 3382 18ce 8946     		mov	r9, r1
 3383 18d0 B944     		add	r9, r9, r7
 3384 18d2 C844     		add	r8, r8, r9
 3385 18d4 C444     		add	ip, ip, r8
 3386 18d6 6244     		add	r2, r2, ip
 3387 18d8 1360     		str	r3, [r2]
 3388 18da 5460     		str	r4, [r2, #4]
 437:Source\FilteringFunctions/arm_conv_opt_q15.c ****       acc3 += (*pScr1++ * *pIn2++);
 3389              		.loc 1 437 0
 3390 18dc AC23     		mov	r3, #172
 3391 18de 0822     		mov	r2, #8
 3392 18e0 9446     		mov	ip, r2
 3393 18e2 0822     		mov	r2, #8
 3394 18e4 9046     		mov	r8, r2
 3395 18e6 B844     		add	r8, r8, r7
 3396 18e8 C444     		add	ip, ip, r8
 3397 18ea 6344     		add	r3, r3, ip
 3398 18ec 1A68     		ldr	r2, [r3]
 3399 18ee 931C     		add	r3, r2, #2
 3400 18f0 AC21     		mov	r1, #172
 3401 18f2 0820     		mov	r0, #8
 3402 18f4 8446     		mov	ip, r0
 3403 18f6 0820     		mov	r0, #8
 3404 18f8 8046     		mov	r8, r0
 3405 18fa B844     		add	r8, r8, r7
 3406 18fc C444     		add	ip, ip, r8
 3407 18fe 6144     		add	r1, r1, ip
 3408 1900 0B60     		str	r3, [r1]
 3409 1902 1388     		ldrh	r3, [r2]
 3410 1904 19B2     		sxth	r1, r3
 3411 1906 9223     		mov	r3, #146
 3412 1908 5B00     		lsl	r3, r3, #1
 3413 190a 9822     		mov	r2, #152
 3414 190c 9446     		mov	ip, r2
ARM GAS  C:\Users\fneves\AppData\Local\Temp\cc8Kqy5I.s 			page 87


 3415 190e 0822     		mov	r2, #8
 3416 1910 9046     		mov	r8, r2
 3417 1912 0822     		mov	r2, #8
 3418 1914 9146     		mov	r9, r2
 3419 1916 B944     		add	r9, r9, r7
 3420 1918 C844     		add	r8, r8, r9
 3421 191a C444     		add	ip, ip, r8
 3422 191c 6344     		add	r3, r3, ip
 3423 191e 1A68     		ldr	r2, [r3]
 3424 1920 931C     		add	r3, r2, #2
 3425 1922 9220     		mov	r0, #146
 3426 1924 4000     		lsl	r0, r0, #1
 3427 1926 9824     		mov	r4, #152
 3428 1928 A446     		mov	ip, r4
 3429 192a 0824     		mov	r4, #8
 3430 192c A046     		mov	r8, r4
 3431 192e 0824     		mov	r4, #8
 3432 1930 A146     		mov	r9, r4
 3433 1932 B944     		add	r9, r9, r7
 3434 1934 C844     		add	r8, r8, r9
 3435 1936 C444     		add	ip, ip, r8
 3436 1938 6044     		add	r0, r0, ip
 3437 193a 0360     		str	r3, [r0]
 3438 193c 1388     		ldrh	r3, [r2]
 3439 193e 1BB2     		sxth	r3, r3
 3440 1940 4B43     		mul	r3, r1
 3441 1942 BB66     		str	r3, [r7, #104]
 3442 1944 DB17     		asr	r3, r3, #31
 3443 1946 FB66     		str	r3, [r7, #108]
 3444 1948 9C23     		mov	r3, #156
 3445 194a 5B00     		lsl	r3, r3, #1
 3446 194c 9822     		mov	r2, #152
 3447 194e 9446     		mov	ip, r2
 3448 1950 0822     		mov	r2, #8
 3449 1952 9046     		mov	r8, r2
 3450 1954 0822     		mov	r2, #8
 3451 1956 9146     		mov	r9, r2
 3452 1958 B944     		add	r9, r9, r7
 3453 195a C844     		add	r8, r8, r9
 3454 195c C444     		add	ip, ip, r8
 3455 195e 6344     		add	r3, r3, ip
 3456 1960 5C68     		ldr	r4, [r3, #4]
 3457 1962 1B68     		ldr	r3, [r3]
 3458 1964 B96E     		ldr	r1, [r7, #104]
 3459 1966 FA6E     		ldr	r2, [r7, #108]
 3460 1968 5B18     		add	r3, r3, r1
 3461 196a 5441     		adc	r4, r4, r2
 3462 196c 9C22     		mov	r2, #156
 3463 196e 5200     		lsl	r2, r2, #1
 3464 1970 9821     		mov	r1, #152
 3465 1972 8C46     		mov	ip, r1
 3466 1974 0821     		mov	r1, #8
 3467 1976 8846     		mov	r8, r1
 3468 1978 0821     		mov	r1, #8
 3469 197a 8946     		mov	r9, r1
 3470 197c B944     		add	r9, r9, r7
 3471 197e C844     		add	r8, r8, r9
ARM GAS  C:\Users\fneves\AppData\Local\Temp\cc8Kqy5I.s 			page 88


 3472 1980 C444     		add	ip, ip, r8
 3473 1982 6244     		add	r2, r2, ip
 3474 1984 1360     		str	r3, [r2]
 3475 1986 5460     		str	r4, [r2, #4]
 438:Source\FilteringFunctions/arm_conv_opt_q15.c **** 
 439:Source\FilteringFunctions/arm_conv_opt_q15.c ****       pScr1 -= 3u;
 3476              		.loc 1 439 0
 3477 1988 AC23     		mov	r3, #172
 3478 198a 0822     		mov	r2, #8
 3479 198c 9446     		mov	ip, r2
 3480 198e 0822     		mov	r2, #8
 3481 1990 9046     		mov	r8, r2
 3482 1992 B844     		add	r8, r8, r7
 3483 1994 C444     		add	ip, ip, r8
 3484 1996 6344     		add	r3, r3, ip
 3485 1998 1B68     		ldr	r3, [r3]
 3486 199a 063B     		sub	r3, r3, #6
 3487 199c AC22     		mov	r2, #172
 3488 199e 0821     		mov	r1, #8
 3489 19a0 8C46     		mov	ip, r1
 3490 19a2 0821     		mov	r1, #8
 3491 19a4 8846     		mov	r8, r1
 3492 19a6 B844     		add	r8, r8, r7
 3493 19a8 C444     		add	ip, ip, r8
 3494 19aa 6244     		add	r2, r2, ip
 3495 19ac 1360     		str	r3, [r2]
 440:Source\FilteringFunctions/arm_conv_opt_q15.c **** 
 441:Source\FilteringFunctions/arm_conv_opt_q15.c ****       /* Decrement the loop counter */
 442:Source\FilteringFunctions/arm_conv_opt_q15.c ****       tapCnt--;
 3496              		.loc 1 442 0
 3497 19ae 8A23     		mov	r3, #138
 3498 19b0 5B00     		lsl	r3, r3, #1
 3499 19b2 9822     		mov	r2, #152
 3500 19b4 9446     		mov	ip, r2
 3501 19b6 0822     		mov	r2, #8
 3502 19b8 9046     		mov	r8, r2
 3503 19ba 0822     		mov	r2, #8
 3504 19bc 9146     		mov	r9, r2
 3505 19be B944     		add	r9, r9, r7
 3506 19c0 C844     		add	r8, r8, r9
 3507 19c2 C444     		add	ip, ip, r8
 3508 19c4 6344     		add	r3, r3, ip
 3509 19c6 1B68     		ldr	r3, [r3]
 3510 19c8 013B     		sub	r3, r3, #1
 3511 19ca 8A22     		mov	r2, #138
 3512 19cc 5200     		lsl	r2, r2, #1
 3513 19ce 9821     		mov	r1, #152
 3514 19d0 8C46     		mov	ip, r1
 3515 19d2 0821     		mov	r1, #8
 3516 19d4 8846     		mov	r8, r1
 3517 19d6 0821     		mov	r1, #8
 3518 19d8 8946     		mov	r9, r1
 3519 19da B944     		add	r9, r9, r7
 3520 19dc C844     		add	r8, r8, r9
 3521 19de C444     		add	ip, ip, r8
 3522 19e0 6244     		add	r2, r2, ip
 3523 19e2 1360     		str	r3, [r2]
ARM GAS  C:\Users\fneves\AppData\Local\Temp\cc8Kqy5I.s 			page 89


 3524              	.L19:
 430:Source\FilteringFunctions/arm_conv_opt_q15.c ****     {
 3525              		.loc 1 430 0
 3526 19e4 8A23     		mov	r3, #138
 3527 19e6 5B00     		lsl	r3, r3, #1
 3528 19e8 9822     		mov	r2, #152
 3529 19ea 9446     		mov	ip, r2
 3530 19ec 0822     		mov	r2, #8
 3531 19ee 9046     		mov	r8, r2
 3532 19f0 0822     		mov	r2, #8
 3533 19f2 9146     		mov	r9, r2
 3534 19f4 B944     		add	r9, r9, r7
 3535 19f6 C844     		add	r8, r8, r9
 3536 19f8 C444     		add	ip, ip, r8
 3537 19fa 6344     		add	r3, r3, ip
 3538 19fc 1B68     		ldr	r3, [r3]
 3539 19fe 002B     		cmp	r3, #0
 3540 1a00 00D0     		beq	.LCB3317
 3541 1a02 8DE6     		b	.L20	@long jump
 3542              	.LCB3317:
 443:Source\FilteringFunctions/arm_conv_opt_q15.c ****     }
 444:Source\FilteringFunctions/arm_conv_opt_q15.c **** 
 445:Source\FilteringFunctions/arm_conv_opt_q15.c ****     blkCnt--;
 3543              		.loc 1 445 0
 3544 1a04 8C23     		mov	r3, #140
 3545 1a06 5B00     		lsl	r3, r3, #1
 3546 1a08 9822     		mov	r2, #152
 3547 1a0a 9446     		mov	ip, r2
 3548 1a0c 0822     		mov	r2, #8
 3549 1a0e 9046     		mov	r8, r2
 3550 1a10 0822     		mov	r2, #8
 3551 1a12 9146     		mov	r9, r2
 3552 1a14 B944     		add	r9, r9, r7
 3553 1a16 C844     		add	r8, r8, r9
 3554 1a18 C444     		add	ip, ip, r8
 3555 1a1a 6344     		add	r3, r3, ip
 3556 1a1c 1B68     		ldr	r3, [r3]
 3557 1a1e 013B     		sub	r3, r3, #1
 3558 1a20 8C22     		mov	r2, #140
 3559 1a22 5200     		lsl	r2, r2, #1
 3560 1a24 9821     		mov	r1, #152
 3561 1a26 8C46     		mov	ip, r1
 3562 1a28 0821     		mov	r1, #8
 3563 1a2a 8846     		mov	r8, r1
 3564 1a2c 0821     		mov	r1, #8
 3565 1a2e 8946     		mov	r9, r1
 3566 1a30 B944     		add	r9, r9, r7
 3567 1a32 C844     		add	r8, r8, r9
 3568 1a34 C444     		add	ip, ip, r8
 3569 1a36 6244     		add	r2, r2, ip
 3570 1a38 1360     		str	r3, [r2]
 446:Source\FilteringFunctions/arm_conv_opt_q15.c **** 
 447:Source\FilteringFunctions/arm_conv_opt_q15.c **** 
 448:Source\FilteringFunctions/arm_conv_opt_q15.c ****     /* Store the results in the accumulators in the destination buffer. */
 449:Source\FilteringFunctions/arm_conv_opt_q15.c **** 
 450:Source\FilteringFunctions/arm_conv_opt_q15.c **** #ifndef ARM_MATH_BIG_ENDIAN
 451:Source\FilteringFunctions/arm_conv_opt_q15.c **** 
ARM GAS  C:\Users\fneves\AppData\Local\Temp\cc8Kqy5I.s 			page 90


 452:Source\FilteringFunctions/arm_conv_opt_q15.c ****     *__SIMD32(pOut)++ =
 3571              		.loc 1 452 0
 3572 1a3a 1823     		mov	r3, #24
 3573 1a3c 9822     		mov	r2, #152
 3574 1a3e 0821     		mov	r1, #8
 3575 1a40 8C46     		mov	ip, r1
 3576 1a42 0821     		mov	r1, #8
 3577 1a44 8846     		mov	r8, r1
 3578 1a46 B844     		add	r8, r8, r7
 3579 1a48 C444     		add	ip, ip, r8
 3580 1a4a 6244     		add	r2, r2, ip
 3581 1a4c D218     		add	r2, r2, r3
 3582 1a4e 1068     		ldr	r0, [r2]
 3583 1a50 031D     		add	r3, r0, #4
 3584 1a52 1360     		str	r3, [r2]
 453:Source\FilteringFunctions/arm_conv_opt_q15.c ****       __PKHBT(__SSAT((acc0 >> 15), 16), __SSAT((acc1 >> 15), 16), 16);
 3585              		.loc 1 453 0
 3586 1a54 AA23     		mov	r3, #170
 3587 1a56 5B00     		lsl	r3, r3, #1
 3588 1a58 9822     		mov	r2, #152
 3589 1a5a 9446     		mov	ip, r2
 3590 1a5c 0822     		mov	r2, #8
 3591 1a5e 9046     		mov	r8, r2
 3592 1a60 0822     		mov	r2, #8
 3593 1a62 9146     		mov	r9, r2
 3594 1a64 B944     		add	r9, r9, r7
 3595 1a66 C844     		add	r8, r8, r9
 3596 1a68 C444     		add	ip, ip, r8
 3597 1a6a 6344     		add	r3, r3, ip
 3598 1a6c 1B68     		ldr	r3, [r3]
 3599 1a6e 5A04     		lsl	r2, r3, #17
 3600 1a70 A823     		mov	r3, #168
 3601 1a72 5B00     		lsl	r3, r3, #1
 3602 1a74 9821     		mov	r1, #152
 3603 1a76 8C46     		mov	ip, r1
 3604 1a78 0821     		mov	r1, #8
 3605 1a7a 8846     		mov	r8, r1
 3606 1a7c 0821     		mov	r1, #8
 3607 1a7e 8946     		mov	r9, r1
 3608 1a80 B944     		add	r9, r9, r7
 3609 1a82 C844     		add	r8, r8, r9
 3610 1a84 C444     		add	ip, ip, r8
 3611 1a86 6344     		add	r3, r3, ip
 3612 1a88 1B68     		ldr	r3, [r3]
 3613 1a8a DB0B     		lsr	r3, r3, #15
 3614 1a8c 9021     		mov	r1, #144
 3615 1a8e 0824     		mov	r4, #8
 3616 1a90 A446     		mov	ip, r4
 3617 1a92 0824     		mov	r4, #8
 3618 1a94 A046     		mov	r8, r4
 3619 1a96 B844     		add	r8, r8, r7
 3620 1a98 C444     		add	ip, ip, r8
 3621 1a9a 6144     		add	r1, r1, ip
 3622 1a9c 0B60     		str	r3, [r1]
 3623 1a9e 9023     		mov	r3, #144
 3624 1aa0 0821     		mov	r1, #8
 3625 1aa2 8C46     		mov	ip, r1
ARM GAS  C:\Users\fneves\AppData\Local\Temp\cc8Kqy5I.s 			page 91


 3626 1aa4 0821     		mov	r1, #8
 3627 1aa6 8846     		mov	r8, r1
 3628 1aa8 B844     		add	r8, r8, r7
 3629 1aaa C444     		add	ip, ip, r8
 3630 1aac 6344     		add	r3, r3, ip
 3631 1aae 1B68     		ldr	r3, [r3]
 3632 1ab0 1343     		orr	r3, r2
 3633 1ab2 9022     		mov	r2, #144
 3634 1ab4 0821     		mov	r1, #8
 3635 1ab6 8C46     		mov	ip, r1
 3636 1ab8 0821     		mov	r1, #8
 3637 1aba 8846     		mov	r8, r1
 3638 1abc B844     		add	r8, r8, r7
 3639 1abe C444     		add	ip, ip, r8
 3640 1ac0 6244     		add	r2, r2, ip
 3641 1ac2 1360     		str	r3, [r2]
 3642 1ac4 AA23     		mov	r3, #170
 3643 1ac6 5B00     		lsl	r3, r3, #1
 3644 1ac8 9822     		mov	r2, #152
 3645 1aca 9446     		mov	ip, r2
 3646 1acc 0822     		mov	r2, #8
 3647 1ace 9046     		mov	r8, r2
 3648 1ad0 0822     		mov	r2, #8
 3649 1ad2 9146     		mov	r9, r2
 3650 1ad4 B944     		add	r9, r9, r7
 3651 1ad6 C844     		add	r8, r8, r9
 3652 1ad8 C444     		add	ip, ip, r8
 3653 1ada 6344     		add	r3, r3, ip
 3654 1adc 1B68     		ldr	r3, [r3]
 3655 1ade DB13     		asr	r3, r3, #15
 3656 1ae0 9422     		mov	r2, #148
 3657 1ae2 0821     		mov	r1, #8
 3658 1ae4 8C46     		mov	ip, r1
 3659 1ae6 0821     		mov	r1, #8
 3660 1ae8 8846     		mov	r8, r1
 3661 1aea B844     		add	r8, r8, r7
 3662 1aec C444     		add	ip, ip, r8
 3663 1aee 6244     		add	r2, r2, ip
 3664 1af0 1360     		str	r3, [r2]
 3665 1af2 9023     		mov	r3, #144
 3666 1af4 0822     		mov	r2, #8
 3667 1af6 9446     		mov	ip, r2
 3668 1af8 0822     		mov	r2, #8
 3669 1afa 9046     		mov	r8, r2
 3670 1afc B844     		add	r8, r8, r7
 3671 1afe C444     		add	ip, ip, r8
 3672 1b00 6344     		add	r3, r3, ip
 3673 1b02 1B68     		ldr	r3, [r3]
 3674 1b04 8A22     		mov	r2, #138
 3675 1b06 5200     		lsl	r2, r2, #1
 3676 1b08 0821     		mov	r1, #8
 3677 1b0a 8C46     		mov	ip, r1
 3678 1b0c 0821     		mov	r1, #8
 3679 1b0e 8846     		mov	r8, r1
 3680 1b10 B844     		add	r8, r8, r7
 3681 1b12 C444     		add	ip, ip, r8
 3682 1b14 6244     		add	r2, r2, ip
ARM GAS  C:\Users\fneves\AppData\Local\Temp\cc8Kqy5I.s 			page 92


 3683 1b16 1360     		str	r3, [r2]
 3684 1b18 1023     		mov	r3, #16
 3685 1b1a 8822     		mov	r2, #136
 3686 1b1c 5200     		lsl	r2, r2, #1
 3687 1b1e 0821     		mov	r1, #8
 3688 1b20 8C46     		mov	ip, r1
 3689 1b22 0821     		mov	r1, #8
 3690 1b24 8846     		mov	r8, r1
 3691 1b26 B844     		add	r8, r8, r7
 3692 1b28 C444     		add	ip, ip, r8
 3693 1b2a 6244     		add	r2, r2, ip
 3694 1b2c 1360     		str	r3, [r2]
 3695              	.LBB44:
 3696              	.LBB45:
 699:.\Include/arm_math.h ****     for (i = 0; i < (y - 1); i++)
 3697              		.loc 2 699 0
 3698 1b2e 0123     		mov	r3, #1
 3699 1b30 8622     		mov	r2, #134
 3700 1b32 5200     		lsl	r2, r2, #1
 3701 1b34 0821     		mov	r1, #8
 3702 1b36 8C46     		mov	ip, r1
 3703 1b38 0821     		mov	r1, #8
 3704 1b3a 8846     		mov	r8, r1
 3705 1b3c B844     		add	r8, r8, r7
 3706 1b3e C444     		add	ip, ip, r8
 3707 1b40 6244     		add	r2, r2, ip
 3708 1b42 1360     		str	r3, [r2]
 700:.\Include/arm_math.h ****     {
 3709              		.loc 2 700 0
 3710 1b44 0023     		mov	r3, #0
 3711 1b46 8422     		mov	r2, #132
 3712 1b48 5200     		lsl	r2, r2, #1
 3713 1b4a 0821     		mov	r1, #8
 3714 1b4c 8C46     		mov	ip, r1
 3715 1b4e 0821     		mov	r1, #8
 3716 1b50 8846     		mov	r8, r1
 3717 1b52 B844     		add	r8, r8, r7
 3718 1b54 C444     		add	ip, ip, r8
 3719 1b56 6244     		add	r2, r2, ip
 3720 1b58 1360     		str	r3, [r2]
 3721 1b5a 29E0     		b	.L21
 3722              	.L22:
 702:.\Include/arm_math.h ****     }
 3723              		.loc 2 702 0
 3724 1b5c 8623     		mov	r3, #134
 3725 1b5e 5B00     		lsl	r3, r3, #1
 3726 1b60 0822     		mov	r2, #8
 3727 1b62 9446     		mov	ip, r2
 3728 1b64 0822     		mov	r2, #8
 3729 1b66 9046     		mov	r8, r2
 3730 1b68 B844     		add	r8, r8, r7
 3731 1b6a C444     		add	ip, ip, r8
 3732 1b6c 6344     		add	r3, r3, ip
 3733 1b6e 1B68     		ldr	r3, [r3]
 3734 1b70 5B00     		lsl	r3, r3, #1
 3735 1b72 8622     		mov	r2, #134
 3736 1b74 5200     		lsl	r2, r2, #1
ARM GAS  C:\Users\fneves\AppData\Local\Temp\cc8Kqy5I.s 			page 93


 3737 1b76 0821     		mov	r1, #8
 3738 1b78 8C46     		mov	ip, r1
 3739 1b7a 0821     		mov	r1, #8
 3740 1b7c 8846     		mov	r8, r1
 3741 1b7e B844     		add	r8, r8, r7
 3742 1b80 C444     		add	ip, ip, r8
 3743 1b82 6244     		add	r2, r2, ip
 3744 1b84 1360     		str	r3, [r2]
 700:.\Include/arm_math.h ****     {
 3745              		.loc 2 700 0
 3746 1b86 8423     		mov	r3, #132
 3747 1b88 5B00     		lsl	r3, r3, #1
 3748 1b8a 0822     		mov	r2, #8
 3749 1b8c 9446     		mov	ip, r2
 3750 1b8e 0822     		mov	r2, #8
 3751 1b90 9046     		mov	r8, r2
 3752 1b92 B844     		add	r8, r8, r7
 3753 1b94 C444     		add	ip, ip, r8
 3754 1b96 6344     		add	r3, r3, ip
 3755 1b98 1B68     		ldr	r3, [r3]
 3756 1b9a 0133     		add	r3, r3, #1
 3757 1b9c 8422     		mov	r2, #132
 3758 1b9e 5200     		lsl	r2, r2, #1
 3759 1ba0 0821     		mov	r1, #8
 3760 1ba2 8C46     		mov	ip, r1
 3761 1ba4 0821     		mov	r1, #8
 3762 1ba6 8846     		mov	r8, r1
 3763 1ba8 B844     		add	r8, r8, r7
 3764 1baa C444     		add	ip, ip, r8
 3765 1bac 6244     		add	r2, r2, ip
 3766 1bae 1360     		str	r3, [r2]
 3767              	.L21:
 3768 1bb0 8823     		mov	r3, #136
 3769 1bb2 5B00     		lsl	r3, r3, #1
 3770 1bb4 0822     		mov	r2, #8
 3771 1bb6 9446     		mov	ip, r2
 3772 1bb8 0822     		mov	r2, #8
 3773 1bba 9046     		mov	r8, r2
 3774 1bbc B844     		add	r8, r8, r7
 3775 1bbe C444     		add	ip, ip, r8
 3776 1bc0 6344     		add	r3, r3, ip
 3777 1bc2 1B68     		ldr	r3, [r3]
 3778 1bc4 5A1E     		sub	r2, r3, #1
 3779 1bc6 8423     		mov	r3, #132
 3780 1bc8 5B00     		lsl	r3, r3, #1
 3781 1bca 0821     		mov	r1, #8
 3782 1bcc 8C46     		mov	ip, r1
 3783 1bce 0821     		mov	r1, #8
 3784 1bd0 8846     		mov	r8, r1
 3785 1bd2 B844     		add	r8, r8, r7
 3786 1bd4 C444     		add	ip, ip, r8
 3787 1bd6 6344     		add	r3, r3, ip
 3788 1bd8 1B68     		ldr	r3, [r3]
 3789 1bda 9342     		cmp	r3, r2
 3790 1bdc BED3     		bcc	.L22
 705:.\Include/arm_math.h ****     {
 3791              		.loc 2 705 0
ARM GAS  C:\Users\fneves\AppData\Local\Temp\cc8Kqy5I.s 			page 94


 3792 1bde 8A23     		mov	r3, #138
 3793 1be0 5B00     		lsl	r3, r3, #1
 3794 1be2 0822     		mov	r2, #8
 3795 1be4 9446     		mov	ip, r2
 3796 1be6 0822     		mov	r2, #8
 3797 1be8 9046     		mov	r8, r2
 3798 1bea B844     		add	r8, r8, r7
 3799 1bec C444     		add	ip, ip, r8
 3800 1bee 6344     		add	r3, r3, ip
 3801 1bf0 1B68     		ldr	r3, [r3]
 3802 1bf2 002B     		cmp	r3, #0
 3803 1bf4 3FDD     		ble	.L23
 707:.\Include/arm_math.h **** 
 3804              		.loc 2 707 0
 3805 1bf6 8623     		mov	r3, #134
 3806 1bf8 5B00     		lsl	r3, r3, #1
 3807 1bfa 0822     		mov	r2, #8
 3808 1bfc 9446     		mov	ip, r2
 3809 1bfe 0822     		mov	r2, #8
 3810 1c00 9046     		mov	r8, r2
 3811 1c02 B844     		add	r8, r8, r7
 3812 1c04 C444     		add	ip, ip, r8
 3813 1c06 6344     		add	r3, r3, ip
 3814 1c08 1B68     		ldr	r3, [r3]
 3815 1c0a 013B     		sub	r3, r3, #1
 3816 1c0c 8622     		mov	r2, #134
 3817 1c0e 5200     		lsl	r2, r2, #1
 3818 1c10 0821     		mov	r1, #8
 3819 1c12 8C46     		mov	ip, r1
 3820 1c14 0821     		mov	r1, #8
 3821 1c16 8846     		mov	r8, r1
 3822 1c18 B844     		add	r8, r8, r7
 3823 1c1a C444     		add	ip, ip, r8
 3824 1c1c 6244     		add	r2, r2, ip
 3825 1c1e 1360     		str	r3, [r2]
 709:.\Include/arm_math.h ****       {
 3826              		.loc 2 709 0
 3827 1c20 8A23     		mov	r3, #138
 3828 1c22 5B00     		lsl	r3, r3, #1
 3829 1c24 0822     		mov	r2, #8
 3830 1c26 9446     		mov	ip, r2
 3831 1c28 0822     		mov	r2, #8
 3832 1c2a 9046     		mov	r8, r2
 3833 1c2c B844     		add	r8, r8, r7
 3834 1c2e C444     		add	ip, ip, r8
 3835 1c30 6344     		add	r3, r3, ip
 3836 1c32 1A68     		ldr	r2, [r3]
 3837 1c34 8623     		mov	r3, #134
 3838 1c36 5B00     		lsl	r3, r3, #1
 3839 1c38 0821     		mov	r1, #8
 3840 1c3a 8C46     		mov	ip, r1
 3841 1c3c 0821     		mov	r1, #8
 3842 1c3e 8846     		mov	r8, r1
 3843 1c40 B844     		add	r8, r8, r7
 3844 1c42 C444     		add	ip, ip, r8
 3845 1c44 6344     		add	r3, r3, ip
 3846 1c46 1B68     		ldr	r3, [r3]
ARM GAS  C:\Users\fneves\AppData\Local\Temp\cc8Kqy5I.s 			page 95


 3847 1c48 9A42     		cmp	r2, r3
 3848 1c4a 4BDD     		ble	.L58
 711:.\Include/arm_math.h ****       }
 3849              		.loc 2 711 0
 3850 1c4c 8623     		mov	r3, #134
 3851 1c4e 5B00     		lsl	r3, r3, #1
 3852 1c50 0822     		mov	r2, #8
 3853 1c52 9446     		mov	ip, r2
 3854 1c54 0822     		mov	r2, #8
 3855 1c56 9046     		mov	r8, r2
 3856 1c58 B844     		add	r8, r8, r7
 3857 1c5a C444     		add	ip, ip, r8
 3858 1c5c 6344     		add	r3, r3, ip
 3859 1c5e 1B68     		ldr	r3, [r3]
 3860 1c60 8A22     		mov	r2, #138
 3861 1c62 5200     		lsl	r2, r2, #1
 3862 1c64 0821     		mov	r1, #8
 3863 1c66 8C46     		mov	ip, r1
 3864 1c68 0821     		mov	r1, #8
 3865 1c6a 8846     		mov	r8, r1
 3866 1c6c B844     		add	r8, r8, r7
 3867 1c6e C444     		add	ip, ip, r8
 3868 1c70 6244     		add	r2, r2, ip
 3869 1c72 1360     		str	r3, [r2]
 3870 1c74 37E0     		b	.L25
 3871              	.L23:
 716:.\Include/arm_math.h **** 
 3872              		.loc 2 716 0
