ARM GAS  C:\Users\fneves\AppData\Local\Temp\cceCpJ17.s 			page 1


   1              		.cpu cortex-m0plus
   2              		.fpu softvfp
   3              		.eabi_attribute 20, 1
   4              		.eabi_attribute 21, 1
   5              		.eabi_attribute 23, 3
   6              		.eabi_attribute 24, 1
   7              		.eabi_attribute 25, 1
   8              		.eabi_attribute 26, 1
   9              		.eabi_attribute 30, 6
  10              		.eabi_attribute 34, 0
  11              		.eabi_attribute 18, 4
  12              		.code	16
  13              		.file	"arm_lms_norm_init_q15.c"
  14              		.text
  15              	.Ltext0:
  16              		.cfi_sections	.debug_frame
  17              		.section	.text.arm_lms_norm_init_q15,"ax",%progbits
  18              		.align	2
  19              		.global	arm_lms_norm_init_q15
  20              		.code	16
  21              		.thumb_func
  22              		.type	arm_lms_norm_init_q15, %function
  23              	arm_lms_norm_init_q15:
  24              	.LFB82:
  25              		.file 1 "Source\\FilteringFunctions\\arm_lms_norm_init_q15.c"
   1:Source\FilteringFunctions/arm_lms_norm_init_q15.c **** /* ----------------------------------------------------------------------
   2:Source\FilteringFunctions/arm_lms_norm_init_q15.c ****  * Project:      CMSIS DSP Library
   3:Source\FilteringFunctions/arm_lms_norm_init_q15.c ****  * Title:        arm_lms_norm_init_q15.c
   4:Source\FilteringFunctions/arm_lms_norm_init_q15.c ****  * Description:  Q15 NLMS initialization function
   5:Source\FilteringFunctions/arm_lms_norm_init_q15.c ****  *
   6:Source\FilteringFunctions/arm_lms_norm_init_q15.c ****  * $Date:        27. January 2017
   7:Source\FilteringFunctions/arm_lms_norm_init_q15.c ****  * $Revision:    V.1.5.1
   8:Source\FilteringFunctions/arm_lms_norm_init_q15.c ****  *
   9:Source\FilteringFunctions/arm_lms_norm_init_q15.c ****  * Target Processor: Cortex-M cores
  10:Source\FilteringFunctions/arm_lms_norm_init_q15.c ****  * -------------------------------------------------------------------- */
  11:Source\FilteringFunctions/arm_lms_norm_init_q15.c **** /*
  12:Source\FilteringFunctions/arm_lms_norm_init_q15.c ****  * Copyright (C) 2010-2017 ARM Limited or its affiliates. All rights reserved.
  13:Source\FilteringFunctions/arm_lms_norm_init_q15.c ****  *
  14:Source\FilteringFunctions/arm_lms_norm_init_q15.c ****  * SPDX-License-Identifier: Apache-2.0
  15:Source\FilteringFunctions/arm_lms_norm_init_q15.c ****  *
  16:Source\FilteringFunctions/arm_lms_norm_init_q15.c ****  * Licensed under the Apache License, Version 2.0 (the License); you may
  17:Source\FilteringFunctions/arm_lms_norm_init_q15.c ****  * not use this file except in compliance with the License.
  18:Source\FilteringFunctions/arm_lms_norm_init_q15.c ****  * You may obtain a copy of the License at
  19:Source\FilteringFunctions/arm_lms_norm_init_q15.c ****  *
  20:Source\FilteringFunctions/arm_lms_norm_init_q15.c ****  * www.apache.org/licenses/LICENSE-2.0
  21:Source\FilteringFunctions/arm_lms_norm_init_q15.c ****  *
  22:Source\FilteringFunctions/arm_lms_norm_init_q15.c ****  * Unless required by applicable law or agreed to in writing, software
  23:Source\FilteringFunctions/arm_lms_norm_init_q15.c ****  * distributed under the License is distributed on an AS IS BASIS, WITHOUT
  24:Source\FilteringFunctions/arm_lms_norm_init_q15.c ****  * WARRANTIES OR CONDITIONS OF ANY KIND, either express or implied.
  25:Source\FilteringFunctions/arm_lms_norm_init_q15.c ****  * See the License for the specific language governing permissions and
  26:Source\FilteringFunctions/arm_lms_norm_init_q15.c ****  * limitations under the License.
  27:Source\FilteringFunctions/arm_lms_norm_init_q15.c ****  */
  28:Source\FilteringFunctions/arm_lms_norm_init_q15.c **** 
  29:Source\FilteringFunctions/arm_lms_norm_init_q15.c **** #include "arm_math.h"
  30:Source\FilteringFunctions/arm_lms_norm_init_q15.c **** #include "arm_common_tables.h"
  31:Source\FilteringFunctions/arm_lms_norm_init_q15.c **** 
  32:Source\FilteringFunctions/arm_lms_norm_init_q15.c **** /**
ARM GAS  C:\Users\fneves\AppData\Local\Temp\cceCpJ17.s 			page 2


  33:Source\FilteringFunctions/arm_lms_norm_init_q15.c ****  * @addtogroup LMS_NORM
  34:Source\FilteringFunctions/arm_lms_norm_init_q15.c ****  * @{
  35:Source\FilteringFunctions/arm_lms_norm_init_q15.c ****  */
  36:Source\FilteringFunctions/arm_lms_norm_init_q15.c **** 
  37:Source\FilteringFunctions/arm_lms_norm_init_q15.c ****   /**
  38:Source\FilteringFunctions/arm_lms_norm_init_q15.c ****    * @brief Initialization function for Q15 normalized LMS filter.
  39:Source\FilteringFunctions/arm_lms_norm_init_q15.c ****    * @param[in] *S points to an instance of the Q15 normalized LMS filter structure.
  40:Source\FilteringFunctions/arm_lms_norm_init_q15.c ****    * @param[in] numTaps  number of filter coefficients.
  41:Source\FilteringFunctions/arm_lms_norm_init_q15.c ****    * @param[in] *pCoeffs points to coefficient buffer.
  42:Source\FilteringFunctions/arm_lms_norm_init_q15.c ****    * @param[in] *pState points to state buffer.
  43:Source\FilteringFunctions/arm_lms_norm_init_q15.c ****    * @param[in] mu step size that controls filter coefficient updates.
  44:Source\FilteringFunctions/arm_lms_norm_init_q15.c ****    * @param[in] blockSize number of samples to process.
  45:Source\FilteringFunctions/arm_lms_norm_init_q15.c ****    * @param[in] postShift bit shift applied to coefficients.
  46:Source\FilteringFunctions/arm_lms_norm_init_q15.c ****    * @return none.
  47:Source\FilteringFunctions/arm_lms_norm_init_q15.c ****  *
  48:Source\FilteringFunctions/arm_lms_norm_init_q15.c ****  * <b>Description:</b>
  49:Source\FilteringFunctions/arm_lms_norm_init_q15.c ****  * \par
  50:Source\FilteringFunctions/arm_lms_norm_init_q15.c ****  * <code>pCoeffs</code> points to the array of filter coefficients stored in time reversed order:
  51:Source\FilteringFunctions/arm_lms_norm_init_q15.c ****  * <pre>
  52:Source\FilteringFunctions/arm_lms_norm_init_q15.c ****  *    {b[numTaps-1], b[numTaps-2], b[N-2], ..., b[1], b[0]}
  53:Source\FilteringFunctions/arm_lms_norm_init_q15.c ****  * </pre>
  54:Source\FilteringFunctions/arm_lms_norm_init_q15.c ****  * The initial filter coefficients serve as a starting point for the adaptive filter.
  55:Source\FilteringFunctions/arm_lms_norm_init_q15.c ****  * <code>pState</code> points to the array of state variables and size of array is
  56:Source\FilteringFunctions/arm_lms_norm_init_q15.c ****  * <code>numTaps+blockSize-1</code> samples, where <code>blockSize</code> is the number of input sa
  57:Source\FilteringFunctions/arm_lms_norm_init_q15.c ****  * by each call to <code>arm_lms_norm_q15()</code>.
  58:Source\FilteringFunctions/arm_lms_norm_init_q15.c ****  */
  59:Source\FilteringFunctions/arm_lms_norm_init_q15.c **** 
  60:Source\FilteringFunctions/arm_lms_norm_init_q15.c **** void arm_lms_norm_init_q15(
  61:Source\FilteringFunctions/arm_lms_norm_init_q15.c ****   arm_lms_norm_instance_q15 * S,
  62:Source\FilteringFunctions/arm_lms_norm_init_q15.c ****   uint16_t numTaps,
  63:Source\FilteringFunctions/arm_lms_norm_init_q15.c ****   q15_t * pCoeffs,
  64:Source\FilteringFunctions/arm_lms_norm_init_q15.c ****   q15_t * pState,
  65:Source\FilteringFunctions/arm_lms_norm_init_q15.c ****   q15_t mu,
  66:Source\FilteringFunctions/arm_lms_norm_init_q15.c ****   uint32_t blockSize,
  67:Source\FilteringFunctions/arm_lms_norm_init_q15.c ****   uint8_t postShift)
  68:Source\FilteringFunctions/arm_lms_norm_init_q15.c **** {
  26              		.loc 1 68 0
  27              		.cfi_startproc
  28 0000 80B5     		push	{r7, lr}
  29              		.cfi_def_cfa_offset 8
  30              		.cfi_offset 7, -8
  31              		.cfi_offset 14, -4
  32 0002 84B0     		sub	sp, sp, #16
  33              		.cfi_def_cfa_offset 24
  34 0004 00AF     		add	r7, sp, #0
  35              		.cfi_def_cfa_register 7
  36 0006 F860     		str	r0, [r7, #12]
  37 0008 7A60     		str	r2, [r7, #4]
  38 000a 3B60     		str	r3, [r7]
  39 000c 0A23     		mov	r3, #10
  40 000e FB18     		add	r3, r7, r3
  41 0010 0A1C     		add	r2, r1, #0
  42 0012 1A80     		strh	r2, [r3]
  69:Source\FilteringFunctions/arm_lms_norm_init_q15.c ****   /* Assign filter taps */
  70:Source\FilteringFunctions/arm_lms_norm_init_q15.c ****   S->numTaps = numTaps;
  43              		.loc 1 70 0
  44 0014 FB68     		ldr	r3, [r7, #12]
ARM GAS  C:\Users\fneves\AppData\Local\Temp\cceCpJ17.s 			page 3


  45 0016 0A22     		mov	r2, #10
  46 0018 BA18     		add	r2, r7, r2
  47 001a 1288     		ldrh	r2, [r2]
  48 001c 1A80     		strh	r2, [r3]
  71:Source\FilteringFunctions/arm_lms_norm_init_q15.c **** 
  72:Source\FilteringFunctions/arm_lms_norm_init_q15.c ****   /* Assign coefficient pointer */
  73:Source\FilteringFunctions/arm_lms_norm_init_q15.c ****   S->pCoeffs = pCoeffs;
  49              		.loc 1 73 0
  50 001e FB68     		ldr	r3, [r7, #12]
  51 0020 7A68     		ldr	r2, [r7, #4]
  52 0022 9A60     		str	r2, [r3, #8]
  74:Source\FilteringFunctions/arm_lms_norm_init_q15.c **** 
  75:Source\FilteringFunctions/arm_lms_norm_init_q15.c ****   /* Clear state buffer and size is always blockSize + numTaps - 1 */
  76:Source\FilteringFunctions/arm_lms_norm_init_q15.c ****   memset(pState, 0, (numTaps + (blockSize - 1u)) * sizeof(q15_t));
  53              		.loc 1 76 0
  54 0024 0A23     		mov	r3, #10
  55 0026 FB18     		add	r3, r7, r3
  56 0028 1A88     		ldrh	r2, [r3]
  57 002a FB69     		ldr	r3, [r7, #28]
  58 002c D318     		add	r3, r2, r3
  59 002e 114A     		ldr	r2, .L2
  60 0030 9446     		mov	ip, r2
  61 0032 6344     		add	r3, r3, ip
  62 0034 5B00     		lsl	r3, r3, #1
  63 0036 3A68     		ldr	r2, [r7]
  64 0038 101C     		mov	r0, r2
  65 003a 0021     		mov	r1, #0
  66 003c 1A1C     		mov	r2, r3
  67 003e FFF7FEFF 		bl	memset
  77:Source\FilteringFunctions/arm_lms_norm_init_q15.c **** 
  78:Source\FilteringFunctions/arm_lms_norm_init_q15.c ****   /* Assign post Shift value applied to coefficients */
  79:Source\FilteringFunctions/arm_lms_norm_init_q15.c ****   S->postShift = postShift;
  68              		.loc 1 79 0
  69 0042 FB68     		ldr	r3, [r7, #12]
  70 0044 2022     		mov	r2, #32
  71 0046 BA18     		add	r2, r7, r2
  72 0048 1278     		ldrb	r2, [r2]
  73 004a 9A73     		strb	r2, [r3, #14]
  80:Source\FilteringFunctions/arm_lms_norm_init_q15.c **** 
  81:Source\FilteringFunctions/arm_lms_norm_init_q15.c ****   /* Assign state pointer */
  82:Source\FilteringFunctions/arm_lms_norm_init_q15.c ****   S->pState = pState;
  74              		.loc 1 82 0
  75 004c FB68     		ldr	r3, [r7, #12]
  76 004e 3A68     		ldr	r2, [r7]
  77 0050 5A60     		str	r2, [r3, #4]
  83:Source\FilteringFunctions/arm_lms_norm_init_q15.c **** 
  84:Source\FilteringFunctions/arm_lms_norm_init_q15.c ****   /* Assign Step size value */
  85:Source\FilteringFunctions/arm_lms_norm_init_q15.c ****   S->mu = mu;
  78              		.loc 1 85 0
  79 0052 FB68     		ldr	r3, [r7, #12]
  80 0054 1822     		mov	r2, #24
  81 0056 BA18     		add	r2, r7, r2
  82 0058 1288     		ldrh	r2, [r2]
  83 005a 9A81     		strh	r2, [r3, #12]
  86:Source\FilteringFunctions/arm_lms_norm_init_q15.c **** 
  87:Source\FilteringFunctions/arm_lms_norm_init_q15.c ****   /* Initialize reciprocal pointer table */
  88:Source\FilteringFunctions/arm_lms_norm_init_q15.c ****   S->recipTable = (q15_t *) armRecipTableQ15;
ARM GAS  C:\Users\fneves\AppData\Local\Temp\cceCpJ17.s 			page 4


  84              		.loc 1 88 0
  85 005c FB68     		ldr	r3, [r7, #12]
  86 005e 064A     		ldr	r2, .L2+4
  87 0060 1A61     		str	r2, [r3, #16]
  89:Source\FilteringFunctions/arm_lms_norm_init_q15.c **** 
  90:Source\FilteringFunctions/arm_lms_norm_init_q15.c ****   /* Initialise Energy to zero */
  91:Source\FilteringFunctions/arm_lms_norm_init_q15.c ****   S->energy = 0;
  88              		.loc 1 91 0
  89 0062 FB68     		ldr	r3, [r7, #12]
  90 0064 0022     		mov	r2, #0
  91 0066 9A82     		strh	r2, [r3, #20]
  92:Source\FilteringFunctions/arm_lms_norm_init_q15.c **** 
  93:Source\FilteringFunctions/arm_lms_norm_init_q15.c ****   /* Initialise x0 to zero */
  94:Source\FilteringFunctions/arm_lms_norm_init_q15.c ****   S->x0 = 0;
  92              		.loc 1 94 0
  93 0068 FB68     		ldr	r3, [r7, #12]
  94 006a 0022     		mov	r2, #0
  95 006c DA82     		strh	r2, [r3, #22]
  95:Source\FilteringFunctions/arm_lms_norm_init_q15.c **** 
  96:Source\FilteringFunctions/arm_lms_norm_init_q15.c **** }
  96              		.loc 1 96 0
  97 006e BD46     		mov	sp, r7
  98 0070 04B0     		add	sp, sp, #16
  99              		@ sp needed
 100 0072 80BD     		pop	{r7, pc}
 101              	.L3:
 102              		.align	2
 103              	.L2:
 104 0074 FFFFFF7F 		.word	2147483647
 105 0078 00000000 		.word	armRecipTableQ15
 106              		.cfi_endproc
 107              	.LFE82:
 108              		.size	arm_lms_norm_init_q15, .-arm_lms_norm_init_q15
 109              		.text
 110              	.Letext0:
 111              		.file 2 "c:\\program files (x86)\\cypress\\psoc creator\\4.0\\psoc creator\\import\\gnu\\arm\\4.9.
 112              		.file 3 "c:\\program files (x86)\\cypress\\psoc creator\\4.0\\psoc creator\\import\\gnu\\arm\\4.9.
 113              		.file 4 ".\\Include/arm_math.h"
 114              		.file 5 ".\\Include/arm_common_tables.h"