ARM GAS  C:\Users\fneves\AppData\Local\Temp\ccD0n2wo.s 			page 1


   1              		.cpu cortex-m0plus
   2              		.fpu softvfp
   3              		.eabi_attribute 20, 1
   4              		.eabi_attribute 21, 1
   5              		.eabi_attribute 23, 3
   6              		.eabi_attribute 24, 1
   7              		.eabi_attribute 25, 1
   8              		.eabi_attribute 26, 1
   9              		.eabi_attribute 30, 6
  10              		.eabi_attribute 34, 0
  11              		.eabi_attribute 18, 4
  12              		.code	16
  13              		.file	"arm_cfft_radix4_q31.c"
  14              		.text
  15              	.Ltext0:
  16              		.cfi_sections	.debug_frame
  17              		.section	.text.arm_cfft_radix4_q31,"ax",%progbits
  18              		.align	2
  19              		.global	arm_cfft_radix4_q31
  20              		.code	16
  21              		.thumb_func
  22              		.type	arm_cfft_radix4_q31, %function
  23              	arm_cfft_radix4_q31:
  24              	.LFB82:
  25              		.file 1 "Source\\TransformFunctions\\arm_cfft_radix4_q31.c"
   1:Source\TransformFunctions/arm_cfft_radix4_q31.c **** /* ----------------------------------------------------------------------
   2:Source\TransformFunctions/arm_cfft_radix4_q31.c ****  * Project:      CMSIS DSP Library
   3:Source\TransformFunctions/arm_cfft_radix4_q31.c ****  * Title:        arm_cfft_radix4_q31.c
   4:Source\TransformFunctions/arm_cfft_radix4_q31.c ****  * Description:  This file has function definition of Radix-4 FFT & IFFT function and
   5:Source\TransformFunctions/arm_cfft_radix4_q31.c ****  *               In-place bit reversal using bit reversal table
   6:Source\TransformFunctions/arm_cfft_radix4_q31.c ****  *
   7:Source\TransformFunctions/arm_cfft_radix4_q31.c ****  * $Date:        27. January 2017
   8:Source\TransformFunctions/arm_cfft_radix4_q31.c ****  * $Revision:    V.1.5.1
   9:Source\TransformFunctions/arm_cfft_radix4_q31.c ****  *
  10:Source\TransformFunctions/arm_cfft_radix4_q31.c ****  * Target Processor: Cortex-M cores
  11:Source\TransformFunctions/arm_cfft_radix4_q31.c ****  * -------------------------------------------------------------------- */
  12:Source\TransformFunctions/arm_cfft_radix4_q31.c **** /*
  13:Source\TransformFunctions/arm_cfft_radix4_q31.c ****  * Copyright (C) 2010-2017 ARM Limited or its affiliates. All rights reserved.
  14:Source\TransformFunctions/arm_cfft_radix4_q31.c ****  *
  15:Source\TransformFunctions/arm_cfft_radix4_q31.c ****  * SPDX-License-Identifier: Apache-2.0
  16:Source\TransformFunctions/arm_cfft_radix4_q31.c ****  *
  17:Source\TransformFunctions/arm_cfft_radix4_q31.c ****  * Licensed under the Apache License, Version 2.0 (the License); you may
  18:Source\TransformFunctions/arm_cfft_radix4_q31.c ****  * not use this file except in compliance with the License.
  19:Source\TransformFunctions/arm_cfft_radix4_q31.c ****  * You may obtain a copy of the License at
  20:Source\TransformFunctions/arm_cfft_radix4_q31.c ****  *
  21:Source\TransformFunctions/arm_cfft_radix4_q31.c ****  * www.apache.org/licenses/LICENSE-2.0
  22:Source\TransformFunctions/arm_cfft_radix4_q31.c ****  *
  23:Source\TransformFunctions/arm_cfft_radix4_q31.c ****  * Unless required by applicable law or agreed to in writing, software
  24:Source\TransformFunctions/arm_cfft_radix4_q31.c ****  * distributed under the License is distributed on an AS IS BASIS, WITHOUT
  25:Source\TransformFunctions/arm_cfft_radix4_q31.c ****  * WARRANTIES OR CONDITIONS OF ANY KIND, either express or implied.
  26:Source\TransformFunctions/arm_cfft_radix4_q31.c ****  * See the License for the specific language governing permissions and
  27:Source\TransformFunctions/arm_cfft_radix4_q31.c ****  * limitations under the License.
  28:Source\TransformFunctions/arm_cfft_radix4_q31.c ****  */
  29:Source\TransformFunctions/arm_cfft_radix4_q31.c **** 
  30:Source\TransformFunctions/arm_cfft_radix4_q31.c **** #include "arm_math.h"
  31:Source\TransformFunctions/arm_cfft_radix4_q31.c **** 
  32:Source\TransformFunctions/arm_cfft_radix4_q31.c **** void arm_radix4_butterfly_inverse_q31(
ARM GAS  C:\Users\fneves\AppData\Local\Temp\ccD0n2wo.s 			page 2


  33:Source\TransformFunctions/arm_cfft_radix4_q31.c **** q31_t * pSrc,
  34:Source\TransformFunctions/arm_cfft_radix4_q31.c **** uint32_t fftLen,
  35:Source\TransformFunctions/arm_cfft_radix4_q31.c **** q31_t * pCoef,
  36:Source\TransformFunctions/arm_cfft_radix4_q31.c **** uint32_t twidCoefModifier);
  37:Source\TransformFunctions/arm_cfft_radix4_q31.c **** 
  38:Source\TransformFunctions/arm_cfft_radix4_q31.c **** void arm_radix4_butterfly_q31(
  39:Source\TransformFunctions/arm_cfft_radix4_q31.c **** q31_t * pSrc,
  40:Source\TransformFunctions/arm_cfft_radix4_q31.c **** uint32_t fftLen,
  41:Source\TransformFunctions/arm_cfft_radix4_q31.c **** q31_t * pCoef,
  42:Source\TransformFunctions/arm_cfft_radix4_q31.c **** uint32_t twidCoefModifier);
  43:Source\TransformFunctions/arm_cfft_radix4_q31.c **** 
  44:Source\TransformFunctions/arm_cfft_radix4_q31.c **** void arm_bitreversal_q31(
  45:Source\TransformFunctions/arm_cfft_radix4_q31.c **** q31_t * pSrc,
  46:Source\TransformFunctions/arm_cfft_radix4_q31.c **** uint32_t fftLen,
  47:Source\TransformFunctions/arm_cfft_radix4_q31.c **** uint16_t bitRevFactor,
  48:Source\TransformFunctions/arm_cfft_radix4_q31.c **** uint16_t * pBitRevTab);
  49:Source\TransformFunctions/arm_cfft_radix4_q31.c **** 
  50:Source\TransformFunctions/arm_cfft_radix4_q31.c **** /**
  51:Source\TransformFunctions/arm_cfft_radix4_q31.c ****  * @ingroup groupTransforms
  52:Source\TransformFunctions/arm_cfft_radix4_q31.c ****  */
  53:Source\TransformFunctions/arm_cfft_radix4_q31.c **** 
  54:Source\TransformFunctions/arm_cfft_radix4_q31.c **** /**
  55:Source\TransformFunctions/arm_cfft_radix4_q31.c ****  * @addtogroup ComplexFFT
  56:Source\TransformFunctions/arm_cfft_radix4_q31.c ****  * @{
  57:Source\TransformFunctions/arm_cfft_radix4_q31.c ****  */
  58:Source\TransformFunctions/arm_cfft_radix4_q31.c **** 
  59:Source\TransformFunctions/arm_cfft_radix4_q31.c **** /**
  60:Source\TransformFunctions/arm_cfft_radix4_q31.c ****  * @details
  61:Source\TransformFunctions/arm_cfft_radix4_q31.c ****  * @brief Processing function for the Q31 CFFT/CIFFT.
  62:Source\TransformFunctions/arm_cfft_radix4_q31.c ****  * @deprecated Do not use this function.  It has been superseded by \ref arm_cfft_q31 and will be r
  63:Source\TransformFunctions/arm_cfft_radix4_q31.c ****  * @param[in]      *S    points to an instance of the Q31 CFFT/CIFFT structure.
  64:Source\TransformFunctions/arm_cfft_radix4_q31.c ****  * @param[in, out] *pSrc points to the complex data buffer of size <code>2*fftLen</code>. Processin
  65:Source\TransformFunctions/arm_cfft_radix4_q31.c ****  * @return none.
  66:Source\TransformFunctions/arm_cfft_radix4_q31.c ****  *
  67:Source\TransformFunctions/arm_cfft_radix4_q31.c ****  * \par Input and output formats:
  68:Source\TransformFunctions/arm_cfft_radix4_q31.c ****  * \par
  69:Source\TransformFunctions/arm_cfft_radix4_q31.c ****  * Internally input is downscaled by 2 for every stage to avoid saturations inside CFFT/CIFFT proce
  70:Source\TransformFunctions/arm_cfft_radix4_q31.c ****  * Hence the output format is different for different FFT sizes.
  71:Source\TransformFunctions/arm_cfft_radix4_q31.c ****  * The input and output formats for different FFT sizes and number of bits to upscale are mentioned
  72:Source\TransformFunctions/arm_cfft_radix4_q31.c ****  * \par
  73:Source\TransformFunctions/arm_cfft_radix4_q31.c ****  * \image html CFFTQ31.gif "Input and Output Formats for Q31 CFFT"
  74:Source\TransformFunctions/arm_cfft_radix4_q31.c ****  * \image html CIFFTQ31.gif "Input and Output Formats for Q31 CIFFT"
  75:Source\TransformFunctions/arm_cfft_radix4_q31.c ****  *
  76:Source\TransformFunctions/arm_cfft_radix4_q31.c ****  */
  77:Source\TransformFunctions/arm_cfft_radix4_q31.c **** 
  78:Source\TransformFunctions/arm_cfft_radix4_q31.c **** void arm_cfft_radix4_q31(
  79:Source\TransformFunctions/arm_cfft_radix4_q31.c ****   const arm_cfft_radix4_instance_q31 * S,
  80:Source\TransformFunctions/arm_cfft_radix4_q31.c ****   q31_t * pSrc)
  81:Source\TransformFunctions/arm_cfft_radix4_q31.c **** {
  26              		.loc 1 81 0
  27              		.cfi_startproc
  28 0000 90B5     		push	{r4, r7, lr}
  29              		.cfi_def_cfa_offset 12
  30              		.cfi_offset 4, -12
  31              		.cfi_offset 7, -8
  32              		.cfi_offset 14, -4
  33 0002 83B0     		sub	sp, sp, #12
ARM GAS  C:\Users\fneves\AppData\Local\Temp\ccD0n2wo.s 			page 3


  34              		.cfi_def_cfa_offset 24
  35 0004 00AF     		add	r7, sp, #0
  36              		.cfi_def_cfa_register 7
  37 0006 7860     		str	r0, [r7, #4]
  38 0008 3960     		str	r1, [r7]
  82:Source\TransformFunctions/arm_cfft_radix4_q31.c ****   if (S->ifftFlag == 1u)
  39              		.loc 1 82 0
  40 000a 7B68     		ldr	r3, [r7, #4]
  41 000c 9B78     		ldrb	r3, [r3, #2]
  42 000e 012B     		cmp	r3, #1
  43 0010 0DD1     		bne	.L2
  83:Source\TransformFunctions/arm_cfft_radix4_q31.c ****   {
  84:Source\TransformFunctions/arm_cfft_radix4_q31.c ****     /* Complex IFFT radix-4 */
  85:Source\TransformFunctions/arm_cfft_radix4_q31.c ****     arm_radix4_butterfly_inverse_q31(pSrc, S->fftLen, S->pTwiddle, S->twidCoefModifier);
  44              		.loc 1 85 0
  45 0012 7B68     		ldr	r3, [r7, #4]
  46 0014 1B88     		ldrh	r3, [r3]
  47 0016 191C     		mov	r1, r3
  48 0018 7B68     		ldr	r3, [r7, #4]
  49 001a 5A68     		ldr	r2, [r3, #4]
  50 001c 7B68     		ldr	r3, [r7, #4]
  51 001e 9B89     		ldrh	r3, [r3, #12]
  52 0020 1C1C     		mov	r4, r3
  53 0022 3B68     		ldr	r3, [r7]
  54 0024 181C     		mov	r0, r3
  55 0026 231C     		mov	r3, r4
  56 0028 FFF7FEFF 		bl	arm_radix4_butterfly_inverse_q31
  57 002c 0CE0     		b	.L3
  58              	.L2:
  86:Source\TransformFunctions/arm_cfft_radix4_q31.c ****   }
  87:Source\TransformFunctions/arm_cfft_radix4_q31.c ****   else
  88:Source\TransformFunctions/arm_cfft_radix4_q31.c ****   {
  89:Source\TransformFunctions/arm_cfft_radix4_q31.c ****     /* Complex FFT radix-4 */
  90:Source\TransformFunctions/arm_cfft_radix4_q31.c ****     arm_radix4_butterfly_q31(pSrc, S->fftLen, S->pTwiddle, S->twidCoefModifier);
  59              		.loc 1 90 0
  60 002e 7B68     		ldr	r3, [r7, #4]
  61 0030 1B88     		ldrh	r3, [r3]
  62 0032 191C     		mov	r1, r3
  63 0034 7B68     		ldr	r3, [r7, #4]
  64 0036 5A68     		ldr	r2, [r3, #4]
  65 0038 7B68     		ldr	r3, [r7, #4]
  66 003a 9B89     		ldrh	r3, [r3, #12]
  67 003c 1C1C     		mov	r4, r3
  68 003e 3B68     		ldr	r3, [r7]
  69 0040 181C     		mov	r0, r3
  70 0042 231C     		mov	r3, r4
  71 0044 FFF7FEFF 		bl	arm_radix4_butterfly_q31
  72              	.L3:
  91:Source\TransformFunctions/arm_cfft_radix4_q31.c ****   }
  92:Source\TransformFunctions/arm_cfft_radix4_q31.c **** 
  93:Source\TransformFunctions/arm_cfft_radix4_q31.c ****   if (S->bitReverseFlag == 1u)
  73              		.loc 1 93 0
  74 0048 7B68     		ldr	r3, [r7, #4]
  75 004a DB78     		ldrb	r3, [r3, #3]
  76 004c 012B     		cmp	r3, #1
  77 004e 0BD1     		bne	.L1
  94:Source\TransformFunctions/arm_cfft_radix4_q31.c ****   {
ARM GAS  C:\Users\fneves\AppData\Local\Temp\ccD0n2wo.s 			page 4


  95:Source\TransformFunctions/arm_cfft_radix4_q31.c ****     /*  Bit Reversal */
  96:Source\TransformFunctions/arm_cfft_radix4_q31.c ****     arm_bitreversal_q31(pSrc, S->fftLen, S->bitRevFactor, S->pBitRevTable);
  78              		.loc 1 96 0
  79 0050 7B68     		ldr	r3, [r7, #4]
  80 0052 1B88     		ldrh	r3, [r3]
  81 0054 1C1C     		mov	r4, r3
  82 0056 7B68     		ldr	r3, [r7, #4]
  83 0058 DA89     		ldrh	r2, [r3, #14]
  84 005a 7B68     		ldr	r3, [r7, #4]
  85 005c 9B68     		ldr	r3, [r3, #8]
  86 005e 3968     		ldr	r1, [r7]
  87 0060 081C     		mov	r0, r1
  88 0062 211C     		mov	r1, r4
  89 0064 FFF7FEFF 		bl	arm_bitreversal_q31
  90              	.L1:
  97:Source\TransformFunctions/arm_cfft_radix4_q31.c ****   }
  98:Source\TransformFunctions/arm_cfft_radix4_q31.c **** 
  99:Source\TransformFunctions/arm_cfft_radix4_q31.c **** }
  91              		.loc 1 99 0
  92 0068 BD46     		mov	sp, r7
  93 006a 03B0     		add	sp, sp, #12
  94              		@ sp needed
  95 006c 90BD     		pop	{r4, r7, pc}
  96              		.cfi_endproc
  97              	.LFE82:
  98              		.size	arm_cfft_radix4_q31, .-arm_cfft_radix4_q31
  99              		.global	__aeabi_lmul
 100 006e C046     		.section	.text.arm_radix4_butterfly_q31,"ax",%progbits
 101              		.align	2
 102              		.global	arm_radix4_butterfly_q31
 103              		.code	16
 104              		.thumb_func
 105              		.type	arm_radix4_butterfly_q31, %function
 106              	arm_radix4_butterfly_q31:
 107              	.LFB83:
 100:Source\TransformFunctions/arm_cfft_radix4_q31.c **** 
 101:Source\TransformFunctions/arm_cfft_radix4_q31.c **** /**
 102:Source\TransformFunctions/arm_cfft_radix4_q31.c ****  * @} end of ComplexFFT group
 103:Source\TransformFunctions/arm_cfft_radix4_q31.c ****  */
 104:Source\TransformFunctions/arm_cfft_radix4_q31.c **** 
 105:Source\TransformFunctions/arm_cfft_radix4_q31.c **** /*
 106:Source\TransformFunctions/arm_cfft_radix4_q31.c **** * Radix-4 FFT algorithm used is :
 107:Source\TransformFunctions/arm_cfft_radix4_q31.c **** *
 108:Source\TransformFunctions/arm_cfft_radix4_q31.c **** * Input real and imaginary data:
 109:Source\TransformFunctions/arm_cfft_radix4_q31.c **** * x(n) = xa + j * ya
 110:Source\TransformFunctions/arm_cfft_radix4_q31.c **** * x(n+N/4 ) = xb + j * yb
 111:Source\TransformFunctions/arm_cfft_radix4_q31.c **** * x(n+N/2 ) = xc + j * yc
 112:Source\TransformFunctions/arm_cfft_radix4_q31.c **** * x(n+3N 4) = xd + j * yd
 113:Source\TransformFunctions/arm_cfft_radix4_q31.c **** *
 114:Source\TransformFunctions/arm_cfft_radix4_q31.c **** *
 115:Source\TransformFunctions/arm_cfft_radix4_q31.c **** * Output real and imaginary data:
 116:Source\TransformFunctions/arm_cfft_radix4_q31.c **** * x(4r) = xa'+ j * ya'
 117:Source\TransformFunctions/arm_cfft_radix4_q31.c **** * x(4r+1) = xb'+ j * yb'
 118:Source\TransformFunctions/arm_cfft_radix4_q31.c **** * x(4r+2) = xc'+ j * yc'
 119:Source\TransformFunctions/arm_cfft_radix4_q31.c **** * x(4r+3) = xd'+ j * yd'
 120:Source\TransformFunctions/arm_cfft_radix4_q31.c **** *
 121:Source\TransformFunctions/arm_cfft_radix4_q31.c **** *
ARM GAS  C:\Users\fneves\AppData\Local\Temp\ccD0n2wo.s 			page 5


 122:Source\TransformFunctions/arm_cfft_radix4_q31.c **** * Twiddle factors for radix-4 FFT:
 123:Source\TransformFunctions/arm_cfft_radix4_q31.c **** * Wn = co1 + j * (- si1)
 124:Source\TransformFunctions/arm_cfft_radix4_q31.c **** * W2n = co2 + j * (- si2)
 125:Source\TransformFunctions/arm_cfft_radix4_q31.c **** * W3n = co3 + j * (- si3)
 126:Source\TransformFunctions/arm_cfft_radix4_q31.c **** *
 127:Source\TransformFunctions/arm_cfft_radix4_q31.c **** *  Butterfly implementation:
 128:Source\TransformFunctions/arm_cfft_radix4_q31.c **** * xa' = xa + xb + xc + xd
 129:Source\TransformFunctions/arm_cfft_radix4_q31.c **** * ya' = ya + yb + yc + yd
 130:Source\TransformFunctions/arm_cfft_radix4_q31.c **** * xb' = (xa+yb-xc-yd)* co1 + (ya-xb-yc+xd)* (si1)
 131:Source\TransformFunctions/arm_cfft_radix4_q31.c **** * yb' = (ya-xb-yc+xd)* co1 - (xa+yb-xc-yd)* (si1)
 132:Source\TransformFunctions/arm_cfft_radix4_q31.c **** * xc' = (xa-xb+xc-xd)* co2 + (ya-yb+yc-yd)* (si2)
 133:Source\TransformFunctions/arm_cfft_radix4_q31.c **** * yc' = (ya-yb+yc-yd)* co2 - (xa-xb+xc-xd)* (si2)
 134:Source\TransformFunctions/arm_cfft_radix4_q31.c **** * xd' = (xa-yb-xc+yd)* co3 + (ya+xb-yc-xd)* (si3)
 135:Source\TransformFunctions/arm_cfft_radix4_q31.c **** * yd' = (ya+xb-yc-xd)* co3 - (xa-yb-xc+yd)* (si3)
 136:Source\TransformFunctions/arm_cfft_radix4_q31.c **** *
 137:Source\TransformFunctions/arm_cfft_radix4_q31.c **** */
 138:Source\TransformFunctions/arm_cfft_radix4_q31.c **** 
 139:Source\TransformFunctions/arm_cfft_radix4_q31.c **** /**
 140:Source\TransformFunctions/arm_cfft_radix4_q31.c ****  * @brief  Core function for the Q31 CFFT butterfly process.
 141:Source\TransformFunctions/arm_cfft_radix4_q31.c ****  * @param[in, out] *pSrc            points to the in-place buffer of Q31 data type.
 142:Source\TransformFunctions/arm_cfft_radix4_q31.c ****  * @param[in]      fftLen           length of the FFT.
 143:Source\TransformFunctions/arm_cfft_radix4_q31.c ****  * @param[in]      *pCoef           points to twiddle coefficient buffer.
 144:Source\TransformFunctions/arm_cfft_radix4_q31.c ****  * @param[in]      twidCoefModifier twiddle coefficient modifier that supports different size FFTs 
 145:Source\TransformFunctions/arm_cfft_radix4_q31.c ****  * @return none.
 146:Source\TransformFunctions/arm_cfft_radix4_q31.c ****  */
 147:Source\TransformFunctions/arm_cfft_radix4_q31.c **** 
 148:Source\TransformFunctions/arm_cfft_radix4_q31.c **** void arm_radix4_butterfly_q31(
 149:Source\TransformFunctions/arm_cfft_radix4_q31.c ****   q31_t * pSrc,
 150:Source\TransformFunctions/arm_cfft_radix4_q31.c ****   uint32_t fftLen,
 151:Source\TransformFunctions/arm_cfft_radix4_q31.c ****   q31_t * pCoef,
 152:Source\TransformFunctions/arm_cfft_radix4_q31.c ****   uint32_t twidCoefModifier)
 153:Source\TransformFunctions/arm_cfft_radix4_q31.c **** {
 108              		.loc 1 153 0
 109              		.cfi_startproc
 110 0000 F0B5     		push	{r4, r5, r6, r7, lr}
 111              		.cfi_def_cfa_offset 20
 112              		.cfi_offset 4, -20
 113              		.cfi_offset 5, -16
 114              		.cfi_offset 6, -12
 115              		.cfi_offset 7, -8
 116              		.cfi_offset 14, -4
 117 0002 514C     		ldr	r4, .L14
 118 0004 A544     		add	sp, sp, r4
 119              		.cfi_def_cfa_offset 848
 120 0006 00AF     		add	r7, sp, #0
 121              		.cfi_def_cfa_register 7
 122 0008 9B24     		mov	r4, #155
 123 000a A400     		lsl	r4, r4, #2
 124 000c 3C19     		add	r4, r7, r4
 125 000e 2060     		str	r0, [r4]
 126 0010 9A20     		mov	r0, #154
 127 0012 8000     		lsl	r0, r0, #2
 128 0014 3818     		add	r0, r7, r0
 129 0016 0160     		str	r1, [r0]
 130 0018 9921     		mov	r1, #153
 131 001a 8900     		lsl	r1, r1, #2
 132 001c 7918     		add	r1, r7, r1
ARM GAS  C:\Users\fneves\AppData\Local\Temp\ccD0n2wo.s 			page 6


 133 001e 0A60     		str	r2, [r1]
 134 0020 9822     		mov	r2, #152
 135 0022 9200     		lsl	r2, r2, #2
 136 0024 BA18     		add	r2, r7, r2
 137 0026 1360     		str	r3, [r2]
 154:Source\TransformFunctions/arm_cfft_radix4_q31.c **** #if defined(ARM_MATH_CM7)
 155:Source\TransformFunctions/arm_cfft_radix4_q31.c ****   uint32_t n1, n2, ia1, ia2, ia3, i0, i1, i2, i3, j, k;
 156:Source\TransformFunctions/arm_cfft_radix4_q31.c ****   q31_t t1, t2, r1, r2, s1, s2, co1, co2, co3, si1, si2, si3;
 157:Source\TransformFunctions/arm_cfft_radix4_q31.c **** 
 158:Source\TransformFunctions/arm_cfft_radix4_q31.c ****   q31_t xa, xb, xc, xd;
 159:Source\TransformFunctions/arm_cfft_radix4_q31.c ****   q31_t ya, yb, yc, yd;
 160:Source\TransformFunctions/arm_cfft_radix4_q31.c ****   q31_t xa_out, xb_out, xc_out, xd_out;
 161:Source\TransformFunctions/arm_cfft_radix4_q31.c ****   q31_t ya_out, yb_out, yc_out, yd_out;
 162:Source\TransformFunctions/arm_cfft_radix4_q31.c **** 
 163:Source\TransformFunctions/arm_cfft_radix4_q31.c ****   q31_t *ptr1;
 164:Source\TransformFunctions/arm_cfft_radix4_q31.c ****   q63_t xaya, xbyb, xcyc, xdyd;
 165:Source\TransformFunctions/arm_cfft_radix4_q31.c ****   /* Total process is divided into three stages */
 166:Source\TransformFunctions/arm_cfft_radix4_q31.c **** 
 167:Source\TransformFunctions/arm_cfft_radix4_q31.c ****   /* process first stage, middle stages, & last stage */
 168:Source\TransformFunctions/arm_cfft_radix4_q31.c **** 
 169:Source\TransformFunctions/arm_cfft_radix4_q31.c **** 
 170:Source\TransformFunctions/arm_cfft_radix4_q31.c ****   /* start of first stage process */
 171:Source\TransformFunctions/arm_cfft_radix4_q31.c **** 
 172:Source\TransformFunctions/arm_cfft_radix4_q31.c ****   /*  Initializations for the first stage */
 173:Source\TransformFunctions/arm_cfft_radix4_q31.c ****   n2 = fftLen;
 174:Source\TransformFunctions/arm_cfft_radix4_q31.c ****   n1 = n2;
 175:Source\TransformFunctions/arm_cfft_radix4_q31.c ****   /* n2 = fftLen/4 */
 176:Source\TransformFunctions/arm_cfft_radix4_q31.c ****   n2 >>= 2u;
 177:Source\TransformFunctions/arm_cfft_radix4_q31.c ****   i0 = 0u;
 178:Source\TransformFunctions/arm_cfft_radix4_q31.c ****   ia1 = 0u;
 179:Source\TransformFunctions/arm_cfft_radix4_q31.c **** 
 180:Source\TransformFunctions/arm_cfft_radix4_q31.c ****   j = n2;
 181:Source\TransformFunctions/arm_cfft_radix4_q31.c **** 
 182:Source\TransformFunctions/arm_cfft_radix4_q31.c ****   /*  Calculation of first stage */
 183:Source\TransformFunctions/arm_cfft_radix4_q31.c ****   do
 184:Source\TransformFunctions/arm_cfft_radix4_q31.c ****   {
 185:Source\TransformFunctions/arm_cfft_radix4_q31.c ****     /*  index calculation for the input as, */
 186:Source\TransformFunctions/arm_cfft_radix4_q31.c ****     /*  pSrc[i0 + 0], pSrc[i0 + fftLen/4], pSrc[i0 + fftLen/2u], pSrc[i0 + 3fftLen/4] */
 187:Source\TransformFunctions/arm_cfft_radix4_q31.c ****     i1 = i0 + n2;
 188:Source\TransformFunctions/arm_cfft_radix4_q31.c ****     i2 = i1 + n2;
 189:Source\TransformFunctions/arm_cfft_radix4_q31.c ****     i3 = i2 + n2;
 190:Source\TransformFunctions/arm_cfft_radix4_q31.c **** 
 191:Source\TransformFunctions/arm_cfft_radix4_q31.c ****     /* input is in 1.31(q31) format and provide 4 guard bits for the input */
 192:Source\TransformFunctions/arm_cfft_radix4_q31.c **** 
 193:Source\TransformFunctions/arm_cfft_radix4_q31.c ****     /*  Butterfly implementation */
 194:Source\TransformFunctions/arm_cfft_radix4_q31.c ****     /* xa + xc */
 195:Source\TransformFunctions/arm_cfft_radix4_q31.c ****     r1 = (pSrc[(2u * i0)] >> 4u) + (pSrc[(2u * i2)] >> 4u);
 196:Source\TransformFunctions/arm_cfft_radix4_q31.c ****     /* xa - xc */
 197:Source\TransformFunctions/arm_cfft_radix4_q31.c ****     r2 = (pSrc[2u * i0] >> 4u) - (pSrc[2u * i2] >> 4u);
 198:Source\TransformFunctions/arm_cfft_radix4_q31.c **** 
 199:Source\TransformFunctions/arm_cfft_radix4_q31.c ****     /* xb + xd */
 200:Source\TransformFunctions/arm_cfft_radix4_q31.c ****     t1 = (pSrc[2u * i1] >> 4u) + (pSrc[2u * i3] >> 4u);
 201:Source\TransformFunctions/arm_cfft_radix4_q31.c **** 
 202:Source\TransformFunctions/arm_cfft_radix4_q31.c ****     /* ya + yc */
 203:Source\TransformFunctions/arm_cfft_radix4_q31.c ****     s1 = (pSrc[(2u * i0) + 1u] >> 4u) + (pSrc[(2u * i2) + 1u] >> 4u);
 204:Source\TransformFunctions/arm_cfft_radix4_q31.c ****     /* ya - yc */
 205:Source\TransformFunctions/arm_cfft_radix4_q31.c ****     s2 = (pSrc[(2u * i0) + 1u] >> 4u) - (pSrc[(2u * i2) + 1u] >> 4u);
ARM GAS  C:\Users\fneves\AppData\Local\Temp\ccD0n2wo.s 			page 7


 206:Source\TransformFunctions/arm_cfft_radix4_q31.c **** 
 207:Source\TransformFunctions/arm_cfft_radix4_q31.c ****     /* xa' = xa + xb + xc + xd */
 208:Source\TransformFunctions/arm_cfft_radix4_q31.c ****     pSrc[2u * i0] = (r1 + t1);
 209:Source\TransformFunctions/arm_cfft_radix4_q31.c ****     /* (xa + xc) - (xb + xd) */
 210:Source\TransformFunctions/arm_cfft_radix4_q31.c ****     r1 = r1 - t1;
 211:Source\TransformFunctions/arm_cfft_radix4_q31.c ****     /* yb + yd */
 212:Source\TransformFunctions/arm_cfft_radix4_q31.c ****     t2 = (pSrc[(2u * i1) + 1u] >> 4u) + (pSrc[(2u * i3) + 1u] >> 4u);
 213:Source\TransformFunctions/arm_cfft_radix4_q31.c **** 
 214:Source\TransformFunctions/arm_cfft_radix4_q31.c ****     /* ya' = ya + yb + yc + yd */
 215:Source\TransformFunctions/arm_cfft_radix4_q31.c ****     pSrc[(2u * i0) + 1u] = (s1 + t2);
 216:Source\TransformFunctions/arm_cfft_radix4_q31.c **** 
 217:Source\TransformFunctions/arm_cfft_radix4_q31.c ****     /* (ya + yc) - (yb + yd) */
 218:Source\TransformFunctions/arm_cfft_radix4_q31.c ****     s1 = s1 - t2;
 219:Source\TransformFunctions/arm_cfft_radix4_q31.c **** 
 220:Source\TransformFunctions/arm_cfft_radix4_q31.c ****     /* yb - yd */
 221:Source\TransformFunctions/arm_cfft_radix4_q31.c ****     t1 = (pSrc[(2u * i1) + 1u] >> 4u) - (pSrc[(2u * i3) + 1u] >> 4u);
 222:Source\TransformFunctions/arm_cfft_radix4_q31.c ****     /* xb - xd */
 223:Source\TransformFunctions/arm_cfft_radix4_q31.c ****     t2 = (pSrc[2u * i1] >> 4u) - (pSrc[2u * i3] >> 4u);
 224:Source\TransformFunctions/arm_cfft_radix4_q31.c **** 
 225:Source\TransformFunctions/arm_cfft_radix4_q31.c ****     /*  index calculation for the coefficients */
 226:Source\TransformFunctions/arm_cfft_radix4_q31.c ****     ia2 = 2u * ia1;
 227:Source\TransformFunctions/arm_cfft_radix4_q31.c ****     co2 = pCoef[ia2 * 2u];
 228:Source\TransformFunctions/arm_cfft_radix4_q31.c ****     si2 = pCoef[(ia2 * 2u) + 1u];
 229:Source\TransformFunctions/arm_cfft_radix4_q31.c **** 
 230:Source\TransformFunctions/arm_cfft_radix4_q31.c ****     /* xc' = (xa-xb+xc-xd)co2 + (ya-yb+yc-yd)(si2) */
 231:Source\TransformFunctions/arm_cfft_radix4_q31.c ****     pSrc[2u * i1] = (((int32_t) (((q63_t) r1 * co2) >> 32)) +
 232:Source\TransformFunctions/arm_cfft_radix4_q31.c ****                      ((int32_t) (((q63_t) s1 * si2) >> 32))) << 1u;
 233:Source\TransformFunctions/arm_cfft_radix4_q31.c **** 
 234:Source\TransformFunctions/arm_cfft_radix4_q31.c ****     /* yc' = (ya-yb+yc-yd)co2 - (xa-xb+xc-xd)(si2) */
 235:Source\TransformFunctions/arm_cfft_radix4_q31.c ****     pSrc[(2u * i1) + 1u] = (((int32_t) (((q63_t) s1 * co2) >> 32)) -
 236:Source\TransformFunctions/arm_cfft_radix4_q31.c ****                             ((int32_t) (((q63_t) r1 * si2) >> 32))) << 1u;
 237:Source\TransformFunctions/arm_cfft_radix4_q31.c **** 
 238:Source\TransformFunctions/arm_cfft_radix4_q31.c ****     /* (xa - xc) + (yb - yd) */
 239:Source\TransformFunctions/arm_cfft_radix4_q31.c ****     r1 = r2 + t1;
 240:Source\TransformFunctions/arm_cfft_radix4_q31.c ****     /* (xa - xc) - (yb - yd) */
 241:Source\TransformFunctions/arm_cfft_radix4_q31.c ****     r2 = r2 - t1;
 242:Source\TransformFunctions/arm_cfft_radix4_q31.c **** 
 243:Source\TransformFunctions/arm_cfft_radix4_q31.c ****     /* (ya - yc) - (xb - xd) */
 244:Source\TransformFunctions/arm_cfft_radix4_q31.c ****     s1 = s2 - t2;
 245:Source\TransformFunctions/arm_cfft_radix4_q31.c ****     /* (ya - yc) + (xb - xd) */
 246:Source\TransformFunctions/arm_cfft_radix4_q31.c ****     s2 = s2 + t2;
 247:Source\TransformFunctions/arm_cfft_radix4_q31.c **** 
 248:Source\TransformFunctions/arm_cfft_radix4_q31.c ****     co1 = pCoef[ia1 * 2u];
 249:Source\TransformFunctions/arm_cfft_radix4_q31.c ****     si1 = pCoef[(ia1 * 2u) + 1u];
 250:Source\TransformFunctions/arm_cfft_radix4_q31.c **** 
 251:Source\TransformFunctions/arm_cfft_radix4_q31.c ****     /* xb' = (xa+yb-xc-yd)co1 + (ya-xb-yc+xd)(si1) */
 252:Source\TransformFunctions/arm_cfft_radix4_q31.c ****     pSrc[2u * i2] = (((int32_t) (((q63_t) r1 * co1) >> 32)) +
 253:Source\TransformFunctions/arm_cfft_radix4_q31.c ****                      ((int32_t) (((q63_t) s1 * si1) >> 32))) << 1u;
 254:Source\TransformFunctions/arm_cfft_radix4_q31.c **** 
 255:Source\TransformFunctions/arm_cfft_radix4_q31.c ****     /* yb' = (ya-xb-yc+xd)co1 - (xa+yb-xc-yd)(si1) */
 256:Source\TransformFunctions/arm_cfft_radix4_q31.c ****     pSrc[(2u * i2) + 1u] = (((int32_t) (((q63_t) s1 * co1) >> 32)) -
 257:Source\TransformFunctions/arm_cfft_radix4_q31.c ****                             ((int32_t) (((q63_t) r1 * si1) >> 32))) << 1u;
 258:Source\TransformFunctions/arm_cfft_radix4_q31.c **** 
 259:Source\TransformFunctions/arm_cfft_radix4_q31.c ****     /*  index calculation for the coefficients */
 260:Source\TransformFunctions/arm_cfft_radix4_q31.c ****     ia3 = 3u * ia1;
 261:Source\TransformFunctions/arm_cfft_radix4_q31.c ****     co3 = pCoef[ia3 * 2u];
 262:Source\TransformFunctions/arm_cfft_radix4_q31.c ****     si3 = pCoef[(ia3 * 2u) + 1u];
ARM GAS  C:\Users\fneves\AppData\Local\Temp\ccD0n2wo.s 			page 8


 263:Source\TransformFunctions/arm_cfft_radix4_q31.c **** 
 264:Source\TransformFunctions/arm_cfft_radix4_q31.c ****     /* xd' = (xa-yb-xc+yd)co3 + (ya+xb-yc-xd)(si3) */
 265:Source\TransformFunctions/arm_cfft_radix4_q31.c ****     pSrc[2u * i3] = (((int32_t) (((q63_t) r2 * co3) >> 32)) +
 266:Source\TransformFunctions/arm_cfft_radix4_q31.c ****                      ((int32_t) (((q63_t) s2 * si3) >> 32))) << 1u;
 267:Source\TransformFunctions/arm_cfft_radix4_q31.c **** 
 268:Source\TransformFunctions/arm_cfft_radix4_q31.c ****     /* yd' = (ya+xb-yc-xd)co3 - (xa-yb-xc+yd)(si3) */
 269:Source\TransformFunctions/arm_cfft_radix4_q31.c ****     pSrc[(2u * i3) + 1u] = (((int32_t) (((q63_t) s2 * co3) >> 32)) -
 270:Source\TransformFunctions/arm_cfft_radix4_q31.c ****                             ((int32_t) (((q63_t) r2 * si3) >> 32))) << 1u;
 271:Source\TransformFunctions/arm_cfft_radix4_q31.c **** 
 272:Source\TransformFunctions/arm_cfft_radix4_q31.c ****     /*  Twiddle coefficients index modifier */
 273:Source\TransformFunctions/arm_cfft_radix4_q31.c ****     ia1 = ia1 + twidCoefModifier;
 274:Source\TransformFunctions/arm_cfft_radix4_q31.c **** 
 275:Source\TransformFunctions/arm_cfft_radix4_q31.c ****     /*  Updating input index */
 276:Source\TransformFunctions/arm_cfft_radix4_q31.c ****     i0 = i0 + 1u;
 277:Source\TransformFunctions/arm_cfft_radix4_q31.c **** 
 278:Source\TransformFunctions/arm_cfft_radix4_q31.c ****   } while (--j);
 279:Source\TransformFunctions/arm_cfft_radix4_q31.c **** 
 280:Source\TransformFunctions/arm_cfft_radix4_q31.c ****   /* end of first stage process */
 281:Source\TransformFunctions/arm_cfft_radix4_q31.c **** 
 282:Source\TransformFunctions/arm_cfft_radix4_q31.c ****   /* data is in 5.27(q27) format */
 283:Source\TransformFunctions/arm_cfft_radix4_q31.c **** 
 284:Source\TransformFunctions/arm_cfft_radix4_q31.c **** 
 285:Source\TransformFunctions/arm_cfft_radix4_q31.c ****   /* start of Middle stages process */
 286:Source\TransformFunctions/arm_cfft_radix4_q31.c **** 
 287:Source\TransformFunctions/arm_cfft_radix4_q31.c **** 
 288:Source\TransformFunctions/arm_cfft_radix4_q31.c ****   /* each stage in middle stages provides two down scaling of the input */
 289:Source\TransformFunctions/arm_cfft_radix4_q31.c **** 
 290:Source\TransformFunctions/arm_cfft_radix4_q31.c ****   twidCoefModifier <<= 2u;
 291:Source\TransformFunctions/arm_cfft_radix4_q31.c **** 
 292:Source\TransformFunctions/arm_cfft_radix4_q31.c **** 
 293:Source\TransformFunctions/arm_cfft_radix4_q31.c ****   for (k = fftLen / 4u; k > 4u; k >>= 2u)
 294:Source\TransformFunctions/arm_cfft_radix4_q31.c ****   {
 295:Source\TransformFunctions/arm_cfft_radix4_q31.c ****     /*  Initializations for the first stage */
 296:Source\TransformFunctions/arm_cfft_radix4_q31.c ****     n1 = n2;
 297:Source\TransformFunctions/arm_cfft_radix4_q31.c ****     n2 >>= 2u;
 298:Source\TransformFunctions/arm_cfft_radix4_q31.c ****     ia1 = 0u;
 299:Source\TransformFunctions/arm_cfft_radix4_q31.c **** 
 300:Source\TransformFunctions/arm_cfft_radix4_q31.c ****     /*  Calculation of first stage */
 301:Source\TransformFunctions/arm_cfft_radix4_q31.c ****     for (j = 0u; j <= (n2 - 1u); j++)
 302:Source\TransformFunctions/arm_cfft_radix4_q31.c ****     {
 303:Source\TransformFunctions/arm_cfft_radix4_q31.c ****       /*  index calculation for the coefficients */
 304:Source\TransformFunctions/arm_cfft_radix4_q31.c ****       ia2 = ia1 + ia1;
 305:Source\TransformFunctions/arm_cfft_radix4_q31.c ****       ia3 = ia2 + ia1;
 306:Source\TransformFunctions/arm_cfft_radix4_q31.c ****       co1 = pCoef[ia1 * 2u];
 307:Source\TransformFunctions/arm_cfft_radix4_q31.c ****       si1 = pCoef[(ia1 * 2u) + 1u];
 308:Source\TransformFunctions/arm_cfft_radix4_q31.c ****       co2 = pCoef[ia2 * 2u];
 309:Source\TransformFunctions/arm_cfft_radix4_q31.c ****       si2 = pCoef[(ia2 * 2u) + 1u];
 310:Source\TransformFunctions/arm_cfft_radix4_q31.c ****       co3 = pCoef[ia3 * 2u];
 311:Source\TransformFunctions/arm_cfft_radix4_q31.c ****       si3 = pCoef[(ia3 * 2u) + 1u];
 312:Source\TransformFunctions/arm_cfft_radix4_q31.c ****       /*  Twiddle coefficients index modifier */
 313:Source\TransformFunctions/arm_cfft_radix4_q31.c ****       ia1 = ia1 + twidCoefModifier;
 314:Source\TransformFunctions/arm_cfft_radix4_q31.c **** 
 315:Source\TransformFunctions/arm_cfft_radix4_q31.c ****       for (i0 = j; i0 < fftLen; i0 += n1)
 316:Source\TransformFunctions/arm_cfft_radix4_q31.c ****       {
 317:Source\TransformFunctions/arm_cfft_radix4_q31.c ****         /*  index calculation for the input as, */
 318:Source\TransformFunctions/arm_cfft_radix4_q31.c ****         /*  pSrc[i0 + 0], pSrc[i0 + fftLen/4], pSrc[i0 + fftLen/2u], pSrc[i0 + 3fftLen/4] */
 319:Source\TransformFunctions/arm_cfft_radix4_q31.c ****         i1 = i0 + n2;
ARM GAS  C:\Users\fneves\AppData\Local\Temp\ccD0n2wo.s 			page 9


 320:Source\TransformFunctions/arm_cfft_radix4_q31.c ****         i2 = i1 + n2;
 321:Source\TransformFunctions/arm_cfft_radix4_q31.c ****         i3 = i2 + n2;
 322:Source\TransformFunctions/arm_cfft_radix4_q31.c **** 
 323:Source\TransformFunctions/arm_cfft_radix4_q31.c ****         /*  Butterfly implementation */
 324:Source\TransformFunctions/arm_cfft_radix4_q31.c ****         /* xa + xc */
 325:Source\TransformFunctions/arm_cfft_radix4_q31.c ****         r1 = pSrc[2u * i0] + pSrc[2u * i2];
 326:Source\TransformFunctions/arm_cfft_radix4_q31.c ****         /* xa - xc */
 327:Source\TransformFunctions/arm_cfft_radix4_q31.c ****         r2 = pSrc[2u * i0] - pSrc[2u * i2];
 328:Source\TransformFunctions/arm_cfft_radix4_q31.c **** 
 329:Source\TransformFunctions/arm_cfft_radix4_q31.c ****         /* ya + yc */
 330:Source\TransformFunctions/arm_cfft_radix4_q31.c ****         s1 = pSrc[(2u * i0) + 1u] + pSrc[(2u * i2) + 1u];
 331:Source\TransformFunctions/arm_cfft_radix4_q31.c ****         /* ya - yc */
 332:Source\TransformFunctions/arm_cfft_radix4_q31.c ****         s2 = pSrc[(2u * i0) + 1u] - pSrc[(2u * i2) + 1u];
 333:Source\TransformFunctions/arm_cfft_radix4_q31.c **** 
 334:Source\TransformFunctions/arm_cfft_radix4_q31.c ****         /* xb + xd */
 335:Source\TransformFunctions/arm_cfft_radix4_q31.c ****         t1 = pSrc[2u * i1] + pSrc[2u * i3];
 336:Source\TransformFunctions/arm_cfft_radix4_q31.c **** 
 337:Source\TransformFunctions/arm_cfft_radix4_q31.c ****         /* xa' = xa + xb + xc + xd */
 338:Source\TransformFunctions/arm_cfft_radix4_q31.c ****         pSrc[2u * i0] = (r1 + t1) >> 2u;
 339:Source\TransformFunctions/arm_cfft_radix4_q31.c ****         /* xa + xc -(xb + xd) */
 340:Source\TransformFunctions/arm_cfft_radix4_q31.c ****         r1 = r1 - t1;
 341:Source\TransformFunctions/arm_cfft_radix4_q31.c **** 
 342:Source\TransformFunctions/arm_cfft_radix4_q31.c ****         /* yb + yd */
 343:Source\TransformFunctions/arm_cfft_radix4_q31.c ****         t2 = pSrc[(2u * i1) + 1u] + pSrc[(2u * i3) + 1u];
 344:Source\TransformFunctions/arm_cfft_radix4_q31.c ****         /* ya' = ya + yb + yc + yd */
 345:Source\TransformFunctions/arm_cfft_radix4_q31.c ****         pSrc[(2u * i0) + 1u] = (s1 + t2) >> 2u;
 346:Source\TransformFunctions/arm_cfft_radix4_q31.c **** 
 347:Source\TransformFunctions/arm_cfft_radix4_q31.c ****         /* (ya + yc) - (yb + yd) */
 348:Source\TransformFunctions/arm_cfft_radix4_q31.c ****         s1 = s1 - t2;
 349:Source\TransformFunctions/arm_cfft_radix4_q31.c **** 
 350:Source\TransformFunctions/arm_cfft_radix4_q31.c ****         /* (yb - yd) */
 351:Source\TransformFunctions/arm_cfft_radix4_q31.c ****         t1 = pSrc[(2u * i1) + 1u] - pSrc[(2u * i3) + 1u];
 352:Source\TransformFunctions/arm_cfft_radix4_q31.c ****         /* (xb - xd) */
 353:Source\TransformFunctions/arm_cfft_radix4_q31.c ****         t2 = pSrc[2u * i1] - pSrc[2u * i3];
 354:Source\TransformFunctions/arm_cfft_radix4_q31.c **** 
 355:Source\TransformFunctions/arm_cfft_radix4_q31.c ****         /* xc' = (xa-xb+xc-xd)co2 + (ya-yb+yc-yd)(si2) */
 356:Source\TransformFunctions/arm_cfft_radix4_q31.c ****         pSrc[2u * i1] = (((int32_t) (((q63_t) r1 * co2) >> 32)) +
 357:Source\TransformFunctions/arm_cfft_radix4_q31.c ****                          ((int32_t) (((q63_t) s1 * si2) >> 32))) >> 1u;
 358:Source\TransformFunctions/arm_cfft_radix4_q31.c **** 
 359:Source\TransformFunctions/arm_cfft_radix4_q31.c ****         /* yc' = (ya-yb+yc-yd)co2 - (xa-xb+xc-xd)(si2) */
 360:Source\TransformFunctions/arm_cfft_radix4_q31.c ****         pSrc[(2u * i1) + 1u] = (((int32_t) (((q63_t) s1 * co2) >> 32)) -
 361:Source\TransformFunctions/arm_cfft_radix4_q31.c ****                                 ((int32_t) (((q63_t) r1 * si2) >> 32))) >> 1u;
 362:Source\TransformFunctions/arm_cfft_radix4_q31.c **** 
 363:Source\TransformFunctions/arm_cfft_radix4_q31.c ****         /* (xa - xc) + (yb - yd) */
 364:Source\TransformFunctions/arm_cfft_radix4_q31.c ****         r1 = r2 + t1;
 365:Source\TransformFunctions/arm_cfft_radix4_q31.c ****         /* (xa - xc) - (yb - yd) */
 366:Source\TransformFunctions/arm_cfft_radix4_q31.c ****         r2 = r2 - t1;
 367:Source\TransformFunctions/arm_cfft_radix4_q31.c **** 
 368:Source\TransformFunctions/arm_cfft_radix4_q31.c ****         /* (ya - yc) -  (xb - xd) */
 369:Source\TransformFunctions/arm_cfft_radix4_q31.c ****         s1 = s2 - t2;
 370:Source\TransformFunctions/arm_cfft_radix4_q31.c ****         /* (ya - yc) +  (xb - xd) */
 371:Source\TransformFunctions/arm_cfft_radix4_q31.c ****         s2 = s2 + t2;
 372:Source\TransformFunctions/arm_cfft_radix4_q31.c **** 
 373:Source\TransformFunctions/arm_cfft_radix4_q31.c ****         /* xb' = (xa+yb-xc-yd)co1 + (ya-xb-yc+xd)(si1) */
 374:Source\TransformFunctions/arm_cfft_radix4_q31.c ****         pSrc[2u * i2] = (((int32_t) (((q63_t) r1 * co1) >> 32)) +
 375:Source\TransformFunctions/arm_cfft_radix4_q31.c ****                          ((int32_t) (((q63_t) s1 * si1) >> 32))) >> 1u;
 376:Source\TransformFunctions/arm_cfft_radix4_q31.c **** 
ARM GAS  C:\Users\fneves\AppData\Local\Temp\ccD0n2wo.s 			page 10


 377:Source\TransformFunctions/arm_cfft_radix4_q31.c ****         /* yb' = (ya-xb-yc+xd)co1 - (xa+yb-xc-yd)(si1) */
 378:Source\TransformFunctions/arm_cfft_radix4_q31.c ****         pSrc[(2u * i2) + 1u] = (((int32_t) (((q63_t) s1 * co1) >> 32)) -
 379:Source\TransformFunctions/arm_cfft_radix4_q31.c ****                                 ((int32_t) (((q63_t) r1 * si1) >> 32))) >> 1u;
 380:Source\TransformFunctions/arm_cfft_radix4_q31.c **** 
 381:Source\TransformFunctions/arm_cfft_radix4_q31.c ****         /* xd' = (xa-yb-xc+yd)co3 + (ya+xb-yc-xd)(si3) */
 382:Source\TransformFunctions/arm_cfft_radix4_q31.c ****         pSrc[2u * i3] = (((int32_t) (((q63_t) r2 * co3) >> 32)) +
 383:Source\TransformFunctions/arm_cfft_radix4_q31.c ****                          ((int32_t) (((q63_t) s2 * si3) >> 32))) >> 1u;
 384:Source\TransformFunctions/arm_cfft_radix4_q31.c **** 
 385:Source\TransformFunctions/arm_cfft_radix4_q31.c ****         /* yd' = (ya+xb-yc-xd)co3 - (xa-yb-xc+yd)(si3) */
 386:Source\TransformFunctions/arm_cfft_radix4_q31.c ****         pSrc[(2u * i3) + 1u] = (((int32_t) (((q63_t) s2 * co3) >> 32)) -
 387:Source\TransformFunctions/arm_cfft_radix4_q31.c ****                                 ((int32_t) (((q63_t) r2 * si3) >> 32))) >> 1u;
 388:Source\TransformFunctions/arm_cfft_radix4_q31.c ****       }
 389:Source\TransformFunctions/arm_cfft_radix4_q31.c ****     }
 390:Source\TransformFunctions/arm_cfft_radix4_q31.c ****     twidCoefModifier <<= 2u;
 391:Source\TransformFunctions/arm_cfft_radix4_q31.c ****   }
 392:Source\TransformFunctions/arm_cfft_radix4_q31.c **** #else
 393:Source\TransformFunctions/arm_cfft_radix4_q31.c ****   uint32_t n1, n2, ia1, ia2, ia3, i0, j, k;
 394:Source\TransformFunctions/arm_cfft_radix4_q31.c ****   q31_t t1, t2, r1, r2, s1, s2, co1, co2, co3, si1, si2, si3;
 395:Source\TransformFunctions/arm_cfft_radix4_q31.c **** 
 396:Source\TransformFunctions/arm_cfft_radix4_q31.c ****   q31_t xa, xb, xc, xd;
 397:Source\TransformFunctions/arm_cfft_radix4_q31.c ****   q31_t ya, yb, yc, yd;
 398:Source\TransformFunctions/arm_cfft_radix4_q31.c ****   q31_t xa_out, xb_out, xc_out, xd_out;
 399:Source\TransformFunctions/arm_cfft_radix4_q31.c ****   q31_t ya_out, yb_out, yc_out, yd_out;
 400:Source\TransformFunctions/arm_cfft_radix4_q31.c **** 
 401:Source\TransformFunctions/arm_cfft_radix4_q31.c ****   q31_t *ptr1;
 402:Source\TransformFunctions/arm_cfft_radix4_q31.c ****   q31_t *pSi0;
 403:Source\TransformFunctions/arm_cfft_radix4_q31.c ****   q31_t *pSi1;
 404:Source\TransformFunctions/arm_cfft_radix4_q31.c ****   q31_t *pSi2;
 405:Source\TransformFunctions/arm_cfft_radix4_q31.c ****   q31_t *pSi3;
 406:Source\TransformFunctions/arm_cfft_radix4_q31.c ****   q63_t xaya, xbyb, xcyc, xdyd;
 407:Source\TransformFunctions/arm_cfft_radix4_q31.c ****   /* Total process is divided into three stages */
 408:Source\TransformFunctions/arm_cfft_radix4_q31.c **** 
 409:Source\TransformFunctions/arm_cfft_radix4_q31.c ****   /* process first stage, middle stages, & last stage */
 410:Source\TransformFunctions/arm_cfft_radix4_q31.c **** 
 411:Source\TransformFunctions/arm_cfft_radix4_q31.c **** 
 412:Source\TransformFunctions/arm_cfft_radix4_q31.c ****   /* start of first stage process */
 413:Source\TransformFunctions/arm_cfft_radix4_q31.c **** 
 414:Source\TransformFunctions/arm_cfft_radix4_q31.c ****   /*  Initializations for the first stage */
 415:Source\TransformFunctions/arm_cfft_radix4_q31.c ****   n2 = fftLen;
 138              		.loc 1 415 0
 139 0028 9A23     		mov	r3, #154
 140 002a 9B00     		lsl	r3, r3, #2
 141 002c FB18     		add	r3, r7, r3
 142 002e 1B68     		ldr	r3, [r3]
 143 0030 D422     		mov	r2, #212
 144 0032 9821     		mov	r1, #152
 145 0034 8900     		lsl	r1, r1, #2
 146 0036 8C46     		mov	ip, r1
 147 0038 BC44     		add	ip, ip, r7
 148 003a 6244     		add	r2, r2, ip
 149 003c 1360     		str	r3, [r2]
 416:Source\TransformFunctions/arm_cfft_radix4_q31.c ****   n1 = n2;
 150              		.loc 1 416 0
 151 003e D423     		mov	r3, #212
 152 0040 9822     		mov	r2, #152
 153 0042 9200     		lsl	r2, r2, #2
 154 0044 9446     		mov	ip, r2
ARM GAS  C:\Users\fneves\AppData\Local\Temp\ccD0n2wo.s 			page 11


 155 0046 BC44     		add	ip, ip, r7
 156 0048 6344     		add	r3, r3, ip
 157 004a 1B68     		ldr	r3, [r3]
 158 004c B022     		mov	r2, #176
 159 004e 9821     		mov	r1, #152
 160 0050 8900     		lsl	r1, r1, #2
 161 0052 8C46     		mov	ip, r1
 162 0054 BC44     		add	ip, ip, r7
 163 0056 6244     		add	r2, r2, ip
 164 0058 1360     		str	r3, [r2]
 417:Source\TransformFunctions/arm_cfft_radix4_q31.c ****   /* n2 = fftLen/4 */
 418:Source\TransformFunctions/arm_cfft_radix4_q31.c ****   n2 >>= 2u;
 165              		.loc 1 418 0
 166 005a D423     		mov	r3, #212
 167 005c 9822     		mov	r2, #152
 168 005e 9200     		lsl	r2, r2, #2
 169 0060 9446     		mov	ip, r2
 170 0062 BC44     		add	ip, ip, r7
 171 0064 6344     		add	r3, r3, ip
 172 0066 1B68     		ldr	r3, [r3]
 173 0068 9B08     		lsr	r3, r3, #2
 174 006a D422     		mov	r2, #212
 175 006c 9821     		mov	r1, #152
 176 006e 8900     		lsl	r1, r1, #2
 177 0070 8C46     		mov	ip, r1
 178 0072 BC44     		add	ip, ip, r7
 179 0074 6244     		add	r2, r2, ip
 180 0076 1360     		str	r3, [r2]
 419:Source\TransformFunctions/arm_cfft_radix4_q31.c **** 
 420:Source\TransformFunctions/arm_cfft_radix4_q31.c ****   ia1 = 0u;
 181              		.loc 1 420 0
 182 0078 0023     		mov	r3, #0
 183 007a D022     		mov	r2, #208
 184 007c 9821     		mov	r1, #152
 185 007e 8900     		lsl	r1, r1, #2
 186 0080 8C46     		mov	ip, r1
 187 0082 BC44     		add	ip, ip, r7
 188 0084 6244     		add	r2, r2, ip
 189 0086 1360     		str	r3, [r2]
 421:Source\TransformFunctions/arm_cfft_radix4_q31.c **** 
 422:Source\TransformFunctions/arm_cfft_radix4_q31.c ****   j = n2;
 190              		.loc 1 422 0
 191 0088 D423     		mov	r3, #212
 192 008a 9822     		mov	r2, #152
 193 008c 9200     		lsl	r2, r2, #2
 194 008e 9446     		mov	ip, r2
 195 0090 BC44     		add	ip, ip, r7
 196 0092 6344     		add	r3, r3, ip
 197 0094 1B68     		ldr	r3, [r3]
 198 0096 C822     		mov	r2, #200
 199 0098 9821     		mov	r1, #152
 200 009a 8900     		lsl	r1, r1, #2
 201 009c 8C46     		mov	ip, r1
 202 009e BC44     		add	ip, ip, r7
 203 00a0 6244     		add	r2, r2, ip
 204 00a2 1360     		str	r3, [r2]
 423:Source\TransformFunctions/arm_cfft_radix4_q31.c **** 
ARM GAS  C:\Users\fneves\AppData\Local\Temp\ccD0n2wo.s 			page 12


 424:Source\TransformFunctions/arm_cfft_radix4_q31.c ****   pSi0 = pSrc;
 205              		.loc 1 424 0
 206 00a4 9B23     		mov	r3, #155
 207 00a6 9B00     		lsl	r3, r3, #2
 208 00a8 FB18     		add	r3, r7, r3
 209 00aa 1B68     		ldr	r3, [r3]
 210 00ac C022     		mov	r2, #192
 211 00ae 9821     		mov	r1, #152
 212 00b0 8900     		lsl	r1, r1, #2
 213 00b2 8C46     		mov	ip, r1
 214 00b4 BC44     		add	ip, ip, r7
 215 00b6 6244     		add	r2, r2, ip
 216 00b8 1360     		str	r3, [r2]
 425:Source\TransformFunctions/arm_cfft_radix4_q31.c ****   pSi1 = pSi0 + 2 * n2;
 217              		.loc 1 425 0
 218 00ba D423     		mov	r3, #212
 219 00bc 9822     		mov	r2, #152
 220 00be 9200     		lsl	r2, r2, #2
 221 00c0 9446     		mov	ip, r2
 222 00c2 BC44     		add	ip, ip, r7
 223 00c4 6344     		add	r3, r3, ip
 224 00c6 1B68     		ldr	r3, [r3]
 225 00c8 DA00     		lsl	r2, r3, #3
 226 00ca C023     		mov	r3, #192
 227 00cc 9821     		mov	r1, #152
 228 00ce 8900     		lsl	r1, r1, #2
 229 00d0 8C46     		mov	ip, r1
 230 00d2 BC44     		add	ip, ip, r7
 231 00d4 6344     		add	r3, r3, ip
 232 00d6 1B68     		ldr	r3, [r3]
 233 00d8 9B18     		add	r3, r3, r2
 234 00da BC22     		mov	r2, #188
 235 00dc 9821     		mov	r1, #152
 236 00de 8900     		lsl	r1, r1, #2
 237 00e0 8C46     		mov	ip, r1
 238 00e2 BC44     		add	ip, ip, r7
 239 00e4 6244     		add	r2, r2, ip
 240 00e6 1360     		str	r3, [r2]
 426:Source\TransformFunctions/arm_cfft_radix4_q31.c ****   pSi2 = pSi1 + 2 * n2;
 241              		.loc 1 426 0
 242 00e8 D423     		mov	r3, #212
 243 00ea 9822     		mov	r2, #152
 244 00ec 9200     		lsl	r2, r2, #2
 245 00ee 9446     		mov	ip, r2
 246 00f0 BC44     		add	ip, ip, r7
 247 00f2 6344     		add	r3, r3, ip
 248 00f4 1B68     		ldr	r3, [r3]
 249 00f6 DA00     		lsl	r2, r3, #3
 250 00f8 BC23     		mov	r3, #188
 251 00fa 9821     		mov	r1, #152
 252 00fc 8900     		lsl	r1, r1, #2
 253 00fe 8C46     		mov	ip, r1
 254 0100 BC44     		add	ip, ip, r7
 255 0102 6344     		add	r3, r3, ip
 256 0104 1B68     		ldr	r3, [r3]
 257 0106 9B18     		add	r3, r3, r2
 258 0108 B822     		mov	r2, #184
ARM GAS  C:\Users\fneves\AppData\Local\Temp\ccD0n2wo.s 			page 13


 259 010a 9821     		mov	r1, #152
 260 010c 8900     		lsl	r1, r1, #2
 261 010e 8C46     		mov	ip, r1
 262 0110 BC44     		add	ip, ip, r7
 263 0112 6244     		add	r2, r2, ip
 264 0114 1360     		str	r3, [r2]
 427:Source\TransformFunctions/arm_cfft_radix4_q31.c ****   pSi3 = pSi2 + 2 * n2;
 265              		.loc 1 427 0
 266 0116 D423     		mov	r3, #212
 267 0118 9822     		mov	r2, #152
 268 011a 9200     		lsl	r2, r2, #2
 269 011c 9446     		mov	ip, r2
 270 011e BC44     		add	ip, ip, r7
 271 0120 6344     		add	r3, r3, ip
 272 0122 1B68     		ldr	r3, [r3]
 273 0124 DA00     		lsl	r2, r3, #3
 274 0126 B823     		mov	r3, #184
 275 0128 9821     		mov	r1, #152
 276 012a 8900     		lsl	r1, r1, #2
 277 012c 8C46     		mov	ip, r1
 278 012e BC44     		add	ip, ip, r7
 279 0130 6344     		add	r3, r3, ip
 280 0132 1B68     		ldr	r3, [r3]
 281 0134 9B18     		add	r3, r3, r2
 282 0136 B422     		mov	r2, #180
 283 0138 9821     		mov	r1, #152
 284 013a 8900     		lsl	r1, r1, #2
 285 013c 8C46     		mov	ip, r1
 286 013e BC44     		add	ip, ip, r7
 287 0140 6244     		add	r2, r2, ip
 288 0142 1360     		str	r3, [r2]
 289 0144 02E0     		b	.L15
 290              	.L16:
 291 0146 C046     		.align	2
 292              	.L14:
 293 0148 C4FCFFFF 		.word	-828
 294              	.L15:
 295              	.L6:
 428:Source\TransformFunctions/arm_cfft_radix4_q31.c **** 
 429:Source\TransformFunctions/arm_cfft_radix4_q31.c ****   /*  Calculation of first stage */
 430:Source\TransformFunctions/arm_cfft_radix4_q31.c ****   do
 431:Source\TransformFunctions/arm_cfft_radix4_q31.c ****   {
 432:Source\TransformFunctions/arm_cfft_radix4_q31.c ****     /* input is in 1.31(q31) format and provide 4 guard bits for the input */
 433:Source\TransformFunctions/arm_cfft_radix4_q31.c **** 
 434:Source\TransformFunctions/arm_cfft_radix4_q31.c ****     /*  Butterfly implementation */
 435:Source\TransformFunctions/arm_cfft_radix4_q31.c ****     /* xa + xc */
 436:Source\TransformFunctions/arm_cfft_radix4_q31.c ****     r1 = (pSi0[0] >> 4u) + (pSi2[0] >> 4u);
 296              		.loc 1 436 0 discriminator 1
 297 014c C023     		mov	r3, #192
 298 014e 9822     		mov	r2, #152
 299 0150 9200     		lsl	r2, r2, #2
 300 0152 9446     		mov	ip, r2
 301 0154 BC44     		add	ip, ip, r7
 302 0156 6344     		add	r3, r3, ip
 303 0158 1B68     		ldr	r3, [r3]
 304 015a 1B68     		ldr	r3, [r3]
 305 015c 1A11     		asr	r2, r3, #4
ARM GAS  C:\Users\fneves\AppData\Local\Temp\ccD0n2wo.s 			page 14


 306 015e B823     		mov	r3, #184
 307 0160 9821     		mov	r1, #152
 308 0162 8900     		lsl	r1, r1, #2
 309 0164 8C46     		mov	ip, r1
 310 0166 BC44     		add	ip, ip, r7
 311 0168 6344     		add	r3, r3, ip
 312 016a 1B68     		ldr	r3, [r3]
 313 016c 1B68     		ldr	r3, [r3]
 314 016e 1B11     		asr	r3, r3, #4
 315 0170 D318     		add	r3, r2, r3
 316 0172 AC22     		mov	r2, #172
 317 0174 9821     		mov	r1, #152
 318 0176 8900     		lsl	r1, r1, #2
 319 0178 8C46     		mov	ip, r1
 320 017a BC44     		add	ip, ip, r7
 321 017c 6244     		add	r2, r2, ip
 322 017e 1360     		str	r3, [r2]
 437:Source\TransformFunctions/arm_cfft_radix4_q31.c ****     /* xa - xc */
 438:Source\TransformFunctions/arm_cfft_radix4_q31.c ****     r2 = (pSi0[0] >> 4u) - (pSi2[0] >> 4u);
 323              		.loc 1 438 0 discriminator 1
 324 0180 C023     		mov	r3, #192
 325 0182 9822     		mov	r2, #152
 326 0184 9200     		lsl	r2, r2, #2
 327 0186 9446     		mov	ip, r2
 328 0188 BC44     		add	ip, ip, r7
 329 018a 6344     		add	r3, r3, ip
 330 018c 1B68     		ldr	r3, [r3]
 331 018e 1B68     		ldr	r3, [r3]
 332 0190 1A11     		asr	r2, r3, #4
 333 0192 B823     		mov	r3, #184
 334 0194 9821     		mov	r1, #152
 335 0196 8900     		lsl	r1, r1, #2
 336 0198 8C46     		mov	ip, r1
 337 019a BC44     		add	ip, ip, r7
 338 019c 6344     		add	r3, r3, ip
 339 019e 1B68     		ldr	r3, [r3]
 340 01a0 1B68     		ldr	r3, [r3]
 341 01a2 1B11     		asr	r3, r3, #4
 342 01a4 D31A     		sub	r3, r2, r3
 343 01a6 A822     		mov	r2, #168
 344 01a8 9821     		mov	r1, #152
 345 01aa 8900     		lsl	r1, r1, #2
 346 01ac 8C46     		mov	ip, r1
 347 01ae BC44     		add	ip, ip, r7
 348 01b0 6244     		add	r2, r2, ip
 349 01b2 1360     		str	r3, [r2]
 439:Source\TransformFunctions/arm_cfft_radix4_q31.c **** 
 440:Source\TransformFunctions/arm_cfft_radix4_q31.c ****     /* xb + xd */
 441:Source\TransformFunctions/arm_cfft_radix4_q31.c ****     t1 = (pSi1[0] >> 4u) + (pSi3[0] >> 4u);
 350              		.loc 1 441 0 discriminator 1
 351 01b4 BC23     		mov	r3, #188
 352 01b6 9822     		mov	r2, #152
 353 01b8 9200     		lsl	r2, r2, #2
 354 01ba 9446     		mov	ip, r2
 355 01bc BC44     		add	ip, ip, r7
 356 01be 6344     		add	r3, r3, ip
 357 01c0 1B68     		ldr	r3, [r3]
ARM GAS  C:\Users\fneves\AppData\Local\Temp\ccD0n2wo.s 			page 15


 358 01c2 1B68     		ldr	r3, [r3]
 359 01c4 1A11     		asr	r2, r3, #4
 360 01c6 B423     		mov	r3, #180
 361 01c8 9821     		mov	r1, #152
 362 01ca 8900     		lsl	r1, r1, #2
 363 01cc 8C46     		mov	ip, r1
 364 01ce BC44     		add	ip, ip, r7
 365 01d0 6344     		add	r3, r3, ip
 366 01d2 1B68     		ldr	r3, [r3]
 367 01d4 1B68     		ldr	r3, [r3]
 368 01d6 1B11     		asr	r3, r3, #4
 369 01d8 D318     		add	r3, r2, r3
 370 01da A422     		mov	r2, #164
 371 01dc 9821     		mov	r1, #152
 372 01de 8900     		lsl	r1, r1, #2
 373 01e0 8C46     		mov	ip, r1
 374 01e2 BC44     		add	ip, ip, r7
 375 01e4 6244     		add	r2, r2, ip
 376 01e6 1360     		str	r3, [r2]
 442:Source\TransformFunctions/arm_cfft_radix4_q31.c **** 
 443:Source\TransformFunctions/arm_cfft_radix4_q31.c ****     /* ya + yc */
 444:Source\TransformFunctions/arm_cfft_radix4_q31.c ****     s1 = (pSi0[1] >> 4u) + (pSi2[1] >> 4u);
 377              		.loc 1 444 0 discriminator 1
 378 01e8 C023     		mov	r3, #192
 379 01ea 9822     		mov	r2, #152
 380 01ec 9200     		lsl	r2, r2, #2
 381 01ee 9446     		mov	ip, r2
 382 01f0 BC44     		add	ip, ip, r7
 383 01f2 6344     		add	r3, r3, ip
 384 01f4 1B68     		ldr	r3, [r3]
 385 01f6 0433     		add	r3, r3, #4
 386 01f8 1B68     		ldr	r3, [r3]
 387 01fa 1A11     		asr	r2, r3, #4
 388 01fc B823     		mov	r3, #184
 389 01fe 9821     		mov	r1, #152
 390 0200 8900     		lsl	r1, r1, #2
 391 0202 8C46     		mov	ip, r1
 392 0204 BC44     		add	ip, ip, r7
 393 0206 6344     		add	r3, r3, ip
 394 0208 1B68     		ldr	r3, [r3]
 395 020a 0433     		add	r3, r3, #4
 396 020c 1B68     		ldr	r3, [r3]
 397 020e 1B11     		asr	r3, r3, #4
 398 0210 D318     		add	r3, r2, r3
 399 0212 A022     		mov	r2, #160
 400 0214 9821     		mov	r1, #152
 401 0216 8900     		lsl	r1, r1, #2
 402 0218 8C46     		mov	ip, r1
 403 021a BC44     		add	ip, ip, r7
 404 021c 6244     		add	r2, r2, ip
 405 021e 1360     		str	r3, [r2]
 445:Source\TransformFunctions/arm_cfft_radix4_q31.c ****     /* ya - yc */
 446:Source\TransformFunctions/arm_cfft_radix4_q31.c ****     s2 = (pSi0[1] >> 4u) - (pSi2[1] >> 4u);
 406              		.loc 1 446 0 discriminator 1
 407 0220 C023     		mov	r3, #192
 408 0222 9822     		mov	r2, #152
 409 0224 9200     		lsl	r2, r2, #2
ARM GAS  C:\Users\fneves\AppData\Local\Temp\ccD0n2wo.s 			page 16


 410 0226 9446     		mov	ip, r2
 411 0228 BC44     		add	ip, ip, r7
 412 022a 6344     		add	r3, r3, ip
 413 022c 1B68     		ldr	r3, [r3]
 414 022e 0433     		add	r3, r3, #4
 415 0230 1B68     		ldr	r3, [r3]
 416 0232 1A11     		asr	r2, r3, #4
 417 0234 B823     		mov	r3, #184
 418 0236 9821     		mov	r1, #152
 419 0238 8900     		lsl	r1, r1, #2
 420 023a 8C46     		mov	ip, r1
 421 023c BC44     		add	ip, ip, r7
 422 023e 6344     		add	r3, r3, ip
 423 0240 1B68     		ldr	r3, [r3]
 424 0242 0433     		add	r3, r3, #4
 425 0244 1B68     		ldr	r3, [r3]
 426 0246 1B11     		asr	r3, r3, #4
 427 0248 D31A     		sub	r3, r2, r3
 428 024a 9C22     		mov	r2, #156
 429 024c 9821     		mov	r1, #152
 430 024e 8900     		lsl	r1, r1, #2
 431 0250 8C46     		mov	ip, r1
 432 0252 BC44     		add	ip, ip, r7
 433 0254 6244     		add	r2, r2, ip
 434 0256 1360     		str	r3, [r2]
 447:Source\TransformFunctions/arm_cfft_radix4_q31.c **** 
 448:Source\TransformFunctions/arm_cfft_radix4_q31.c ****     /* xa' = xa + xb + xc + xd */
 449:Source\TransformFunctions/arm_cfft_radix4_q31.c ****     *pSi0++ = (r1 + t1);
 435              		.loc 1 449 0 discriminator 1
 436 0258 C023     		mov	r3, #192
 437 025a 9822     		mov	r2, #152
 438 025c 9200     		lsl	r2, r2, #2
 439 025e 9446     		mov	ip, r2
 440 0260 BC44     		add	ip, ip, r7
 441 0262 6344     		add	r3, r3, ip
 442 0264 1968     		ldr	r1, [r3]
 443 0266 0B1D     		add	r3, r1, #4
 444 0268 C022     		mov	r2, #192
 445 026a 9820     		mov	r0, #152
 446 026c 8000     		lsl	r0, r0, #2
 447 026e 8446     		mov	ip, r0
 448 0270 BC44     		add	ip, ip, r7
 449 0272 6244     		add	r2, r2, ip
 450 0274 1360     		str	r3, [r2]
 451 0276 AC23     		mov	r3, #172
 452 0278 9822     		mov	r2, #152
 453 027a 9200     		lsl	r2, r2, #2
 454 027c 9446     		mov	ip, r2
 455 027e BC44     		add	ip, ip, r7
 456 0280 6344     		add	r3, r3, ip
 457 0282 1A68     		ldr	r2, [r3]
 458 0284 A423     		mov	r3, #164
 459 0286 9820     		mov	r0, #152
 460 0288 8000     		lsl	r0, r0, #2
 461 028a 8446     		mov	ip, r0
 462 028c BC44     		add	ip, ip, r7
 463 028e 6344     		add	r3, r3, ip
ARM GAS  C:\Users\fneves\AppData\Local\Temp\ccD0n2wo.s 			page 17


 464 0290 1B68     		ldr	r3, [r3]
 465 0292 D318     		add	r3, r2, r3
 466 0294 0B60     		str	r3, [r1]
 450:Source\TransformFunctions/arm_cfft_radix4_q31.c ****     /* (xa + xc) - (xb + xd) */
 451:Source\TransformFunctions/arm_cfft_radix4_q31.c ****     r1 = r1 - t1;
 467              		.loc 1 451 0 discriminator 1
 468 0296 AC23     		mov	r3, #172
 469 0298 9822     		mov	r2, #152
 470 029a 9200     		lsl	r2, r2, #2
 471 029c 9446     		mov	ip, r2
 472 029e BC44     		add	ip, ip, r7
 473 02a0 6344     		add	r3, r3, ip
 474 02a2 1A68     		ldr	r2, [r3]
 475 02a4 A423     		mov	r3, #164
 476 02a6 9821     		mov	r1, #152
 477 02a8 8900     		lsl	r1, r1, #2
 478 02aa 8C46     		mov	ip, r1
 479 02ac BC44     		add	ip, ip, r7
 480 02ae 6344     		add	r3, r3, ip
 481 02b0 1B68     		ldr	r3, [r3]
 482 02b2 D31A     		sub	r3, r2, r3
 483 02b4 AC22     		mov	r2, #172
 484 02b6 9821     		mov	r1, #152
 485 02b8 8900     		lsl	r1, r1, #2
 486 02ba 8C46     		mov	ip, r1
 487 02bc BC44     		add	ip, ip, r7
 488 02be 6244     		add	r2, r2, ip
 489 02c0 1360     		str	r3, [r2]
 452:Source\TransformFunctions/arm_cfft_radix4_q31.c ****     /* yb + yd */
 453:Source\TransformFunctions/arm_cfft_radix4_q31.c ****     t2 = (pSi1[1] >> 4u) + (pSi3[1] >> 4u);
 490              		.loc 1 453 0 discriminator 1
 491 02c2 BC23     		mov	r3, #188
 492 02c4 9822     		mov	r2, #152
 493 02c6 9200     		lsl	r2, r2, #2
 494 02c8 9446     		mov	ip, r2
 495 02ca BC44     		add	ip, ip, r7
 496 02cc 6344     		add	r3, r3, ip
 497 02ce 1B68     		ldr	r3, [r3]
 498 02d0 0433     		add	r3, r3, #4
 499 02d2 1B68     		ldr	r3, [r3]
 500 02d4 1A11     		asr	r2, r3, #4
 501 02d6 B423     		mov	r3, #180
 502 02d8 9821     		mov	r1, #152
 503 02da 8900     		lsl	r1, r1, #2
 504 02dc 8C46     		mov	ip, r1
 505 02de BC44     		add	ip, ip, r7
 506 02e0 6344     		add	r3, r3, ip
 507 02e2 1B68     		ldr	r3, [r3]
 508 02e4 0433     		add	r3, r3, #4
 509 02e6 1B68     		ldr	r3, [r3]
 510 02e8 1B11     		asr	r3, r3, #4
 511 02ea D318     		add	r3, r2, r3
 512 02ec 9822     		mov	r2, #152
 513 02ee 9821     		mov	r1, #152
 514 02f0 8900     		lsl	r1, r1, #2
 515 02f2 8C46     		mov	ip, r1
 516 02f4 BC44     		add	ip, ip, r7
ARM GAS  C:\Users\fneves\AppData\Local\Temp\ccD0n2wo.s 			page 18


 517 02f6 6244     		add	r2, r2, ip
 518 02f8 1360     		str	r3, [r2]
 454:Source\TransformFunctions/arm_cfft_radix4_q31.c **** 
 455:Source\TransformFunctions/arm_cfft_radix4_q31.c ****     /* ya' = ya + yb + yc + yd */
 456:Source\TransformFunctions/arm_cfft_radix4_q31.c ****     *pSi0++ = (s1 + t2);
 519              		.loc 1 456 0 discriminator 1
 520 02fa C023     		mov	r3, #192
 521 02fc 9822     		mov	r2, #152
 522 02fe 9200     		lsl	r2, r2, #2
 523 0300 9446     		mov	ip, r2
 524 0302 BC44     		add	ip, ip, r7
 525 0304 6344     		add	r3, r3, ip
 526 0306 1968     		ldr	r1, [r3]
 527 0308 0B1D     		add	r3, r1, #4
 528 030a C022     		mov	r2, #192
 529 030c 9820     		mov	r0, #152
 530 030e 8000     		lsl	r0, r0, #2
 531 0310 8446     		mov	ip, r0
 532 0312 BC44     		add	ip, ip, r7
 533 0314 6244     		add	r2, r2, ip
 534 0316 1360     		str	r3, [r2]
 535 0318 A023     		mov	r3, #160
 536 031a 9822     		mov	r2, #152
 537 031c 9200     		lsl	r2, r2, #2
 538 031e 9446     		mov	ip, r2
 539 0320 BC44     		add	ip, ip, r7
 540 0322 6344     		add	r3, r3, ip
 541 0324 1A68     		ldr	r2, [r3]
 542 0326 9823     		mov	r3, #152
 543 0328 9820     		mov	r0, #152
 544 032a 8000     		lsl	r0, r0, #2
 545 032c 8446     		mov	ip, r0
 546 032e BC44     		add	ip, ip, r7
 547 0330 6344     		add	r3, r3, ip
 548 0332 1B68     		ldr	r3, [r3]
 549 0334 D318     		add	r3, r2, r3
 550 0336 0B60     		str	r3, [r1]
 457:Source\TransformFunctions/arm_cfft_radix4_q31.c **** 
 458:Source\TransformFunctions/arm_cfft_radix4_q31.c ****     /* (ya + yc) - (yb + yd) */
 459:Source\TransformFunctions/arm_cfft_radix4_q31.c ****     s1 = s1 - t2;
 551              		.loc 1 459 0 discriminator 1
 552 0338 A023     		mov	r3, #160
 553 033a 9822     		mov	r2, #152
 554 033c 9200     		lsl	r2, r2, #2
 555 033e 9446     		mov	ip, r2
 556 0340 BC44     		add	ip, ip, r7
 557 0342 6344     		add	r3, r3, ip
 558 0344 1A68     		ldr	r2, [r3]
 559 0346 9823     		mov	r3, #152
 560 0348 9821     		mov	r1, #152
 561 034a 8900     		lsl	r1, r1, #2
 562 034c 8C46     		mov	ip, r1
 563 034e BC44     		add	ip, ip, r7
 564 0350 6344     		add	r3, r3, ip
 565 0352 1B68     		ldr	r3, [r3]
 566 0354 D31A     		sub	r3, r2, r3
 567 0356 A022     		mov	r2, #160
ARM GAS  C:\Users\fneves\AppData\Local\Temp\ccD0n2wo.s 			page 19


 568 0358 9821     		mov	r1, #152
 569 035a 8900     		lsl	r1, r1, #2
 570 035c 8C46     		mov	ip, r1
 571 035e BC44     		add	ip, ip, r7
 572 0360 6244     		add	r2, r2, ip
 573 0362 1360     		str	r3, [r2]
 460:Source\TransformFunctions/arm_cfft_radix4_q31.c **** 
 461:Source\TransformFunctions/arm_cfft_radix4_q31.c ****     /* yb - yd */
 462:Source\TransformFunctions/arm_cfft_radix4_q31.c ****     t1 = (pSi1[1] >> 4u) - (pSi3[1] >> 4u);
 574              		.loc 1 462 0 discriminator 1
 575 0364 BC23     		mov	r3, #188
 576 0366 9822     		mov	r2, #152
 577 0368 9200     		lsl	r2, r2, #2
 578 036a 9446     		mov	ip, r2
 579 036c BC44     		add	ip, ip, r7
 580 036e 6344     		add	r3, r3, ip
 581 0370 1B68     		ldr	r3, [r3]
 582 0372 0433     		add	r3, r3, #4
 583 0374 1B68     		ldr	r3, [r3]
 584 0376 1A11     		asr	r2, r3, #4
 585 0378 B423     		mov	r3, #180
 586 037a 9821     		mov	r1, #152
 587 037c 8900     		lsl	r1, r1, #2
 588 037e 8C46     		mov	ip, r1
 589 0380 BC44     		add	ip, ip, r7
 590 0382 6344     		add	r3, r3, ip
 591 0384 1B68     		ldr	r3, [r3]
 592 0386 0433     		add	r3, r3, #4
 593 0388 1B68     		ldr	r3, [r3]
 594 038a 1B11     		asr	r3, r3, #4
 595 038c D31A     		sub	r3, r2, r3
 596 038e A422     		mov	r2, #164
 597 0390 9821     		mov	r1, #152
 598 0392 8900     		lsl	r1, r1, #2
 599 0394 8C46     		mov	ip, r1
 600 0396 BC44     		add	ip, ip, r7
 601 0398 6244     		add	r2, r2, ip
 602 039a 1360     		str	r3, [r2]
 463:Source\TransformFunctions/arm_cfft_radix4_q31.c ****     /* xb - xd */
 464:Source\TransformFunctions/arm_cfft_radix4_q31.c ****     t2 = (pSi1[0] >> 4u) - (pSi3[0] >> 4u);
 603              		.loc 1 464 0 discriminator 1
 604 039c BC23     		mov	r3, #188
 605 039e 9822     		mov	r2, #152
 606 03a0 9200     		lsl	r2, r2, #2
 607 03a2 9446     		mov	ip, r2
 608 03a4 BC44     		add	ip, ip, r7
 609 03a6 6344     		add	r3, r3, ip
 610 03a8 1B68     		ldr	r3, [r3]
 611 03aa 1B68     		ldr	r3, [r3]
 612 03ac 1A11     		asr	r2, r3, #4
 613 03ae B423     		mov	r3, #180
 614 03b0 9821     		mov	r1, #152
 615 03b2 8900     		lsl	r1, r1, #2
 616 03b4 8C46     		mov	ip, r1
 617 03b6 BC44     		add	ip, ip, r7
 618 03b8 6344     		add	r3, r3, ip
 619 03ba 1B68     		ldr	r3, [r3]
ARM GAS  C:\Users\fneves\AppData\Local\Temp\ccD0n2wo.s 			page 20


 620 03bc 1B68     		ldr	r3, [r3]
 621 03be 1B11     		asr	r3, r3, #4
 622 03c0 D31A     		sub	r3, r2, r3
 623 03c2 9822     		mov	r2, #152
 624 03c4 9821     		mov	r1, #152
 625 03c6 8900     		lsl	r1, r1, #2
 626 03c8 8C46     		mov	ip, r1
 627 03ca BC44     		add	ip, ip, r7
 628 03cc 6244     		add	r2, r2, ip
 629 03ce 1360     		str	r3, [r2]
 465:Source\TransformFunctions/arm_cfft_radix4_q31.c **** 
 466:Source\TransformFunctions/arm_cfft_radix4_q31.c ****     /*  index calculation for the coefficients */
 467:Source\TransformFunctions/arm_cfft_radix4_q31.c ****     ia2 = 2u * ia1;
 630              		.loc 1 467 0 discriminator 1
 631 03d0 D023     		mov	r3, #208
 632 03d2 9822     		mov	r2, #152
 633 03d4 9200     		lsl	r2, r2, #2
 634 03d6 9446     		mov	ip, r2
 635 03d8 BC44     		add	ip, ip, r7
 636 03da 6344     		add	r3, r3, ip
 637 03dc 1B68     		ldr	r3, [r3]
 638 03de 5B00     		lsl	r3, r3, #1
 639 03e0 9422     		mov	r2, #148
 640 03e2 9821     		mov	r1, #152
 641 03e4 8900     		lsl	r1, r1, #2
 642 03e6 8C46     		mov	ip, r1
 643 03e8 BC44     		add	ip, ip, r7
 644 03ea 6244     		add	r2, r2, ip
 645 03ec 1360     		str	r3, [r2]
 468:Source\TransformFunctions/arm_cfft_radix4_q31.c ****     co2 = pCoef[ia2 * 2u];
 646              		.loc 1 468 0 discriminator 1
 647 03ee 9423     		mov	r3, #148
 648 03f0 9822     		mov	r2, #152
 649 03f2 9200     		lsl	r2, r2, #2
 650 03f4 9446     		mov	ip, r2
 651 03f6 BC44     		add	ip, ip, r7
 652 03f8 6344     		add	r3, r3, ip
 653 03fa 1B68     		ldr	r3, [r3]
 654 03fc DA00     		lsl	r2, r3, #3
 655 03fe 9923     		mov	r3, #153
 656 0400 9B00     		lsl	r3, r3, #2
 657 0402 FB18     		add	r3, r7, r3
 658 0404 1B68     		ldr	r3, [r3]
 659 0406 9B18     		add	r3, r3, r2
 660 0408 1B68     		ldr	r3, [r3]
 661 040a 9022     		mov	r2, #144
 662 040c 9821     		mov	r1, #152
 663 040e 8900     		lsl	r1, r1, #2
 664 0410 8C46     		mov	ip, r1
 665 0412 BC44     		add	ip, ip, r7
 666 0414 6244     		add	r2, r2, ip
 667 0416 1360     		str	r3, [r2]
 469:Source\TransformFunctions/arm_cfft_radix4_q31.c ****     si2 = pCoef[(ia2 * 2u) + 1u];
 668              		.loc 1 469 0 discriminator 1
 669 0418 9423     		mov	r3, #148
 670 041a 9822     		mov	r2, #152
 671 041c 9200     		lsl	r2, r2, #2
ARM GAS  C:\Users\fneves\AppData\Local\Temp\ccD0n2wo.s 			page 21


 672 041e 9446     		mov	ip, r2
 673 0420 BC44     		add	ip, ip, r7
 674 0422 6344     		add	r3, r3, ip
 675 0424 1B68     		ldr	r3, [r3]
 676 0426 DB00     		lsl	r3, r3, #3
 677 0428 1A1D     		add	r2, r3, #4
 678 042a 9923     		mov	r3, #153
 679 042c 9B00     		lsl	r3, r3, #2
 680 042e FB18     		add	r3, r7, r3
 681 0430 1B68     		ldr	r3, [r3]
 682 0432 9B18     		add	r3, r3, r2
 683 0434 1B68     		ldr	r3, [r3]
 684 0436 8C22     		mov	r2, #140
 685 0438 9821     		mov	r1, #152
 686 043a 8900     		lsl	r1, r1, #2
 687 043c 8C46     		mov	ip, r1
 688 043e BC44     		add	ip, ip, r7
 689 0440 6244     		add	r2, r2, ip
 690 0442 1360     		str	r3, [r2]
 470:Source\TransformFunctions/arm_cfft_radix4_q31.c **** 
 471:Source\TransformFunctions/arm_cfft_radix4_q31.c ****     /* xc' = (xa-xb+xc-xd)co2 + (ya-yb+yc-yd)(si2) */
 472:Source\TransformFunctions/arm_cfft_radix4_q31.c ****     *pSi1++ = (((int32_t) (((q63_t) r1 * co2) >> 32)) +
 691              		.loc 1 472 0 discriminator 1
 692 0444 BC23     		mov	r3, #188
 693 0446 9822     		mov	r2, #152
 694 0448 9200     		lsl	r2, r2, #2
 695 044a 9446     		mov	ip, r2
 696 044c BC44     		add	ip, ip, r7
 697 044e 6344     		add	r3, r3, ip
 698 0450 1D68     		ldr	r5, [r3]
 699 0452 2B1D     		add	r3, r5, #4
 700 0454 BC22     		mov	r2, #188
 701 0456 9821     		mov	r1, #152
 702 0458 8900     		lsl	r1, r1, #2
 703 045a 8C46     		mov	ip, r1
 704 045c BC44     		add	ip, ip, r7
 705 045e 6244     		add	r2, r2, ip
 706 0460 1360     		str	r3, [r2]
 707 0462 AC23     		mov	r3, #172
 708 0464 9822     		mov	r2, #152
 709 0466 9200     		lsl	r2, r2, #2
 710 0468 9446     		mov	ip, r2
 711 046a BC44     		add	ip, ip, r7
 712 046c 6344     		add	r3, r3, ip
 713 046e 1B68     		ldr	r3, [r3]
 714 0470 9622     		mov	r2, #150
 715 0472 9200     		lsl	r2, r2, #2
 716 0474 BA18     		add	r2, r7, r2
 717 0476 1360     		str	r3, [r2]
 718 0478 DB17     		asr	r3, r3, #31
 719 047a 9722     		mov	r2, #151
 720 047c 9200     		lsl	r2, r2, #2
 721 047e BA18     		add	r2, r7, r2
 722 0480 1360     		str	r3, [r2]
 723 0482 9023     		mov	r3, #144
 724 0484 9822     		mov	r2, #152
 725 0486 9200     		lsl	r2, r2, #2
ARM GAS  C:\Users\fneves\AppData\Local\Temp\ccD0n2wo.s 			page 22


 726 0488 9446     		mov	ip, r2
 727 048a BC44     		add	ip, ip, r7
 728 048c 6344     		add	r3, r3, ip
 729 048e 1B68     		ldr	r3, [r3]
 730 0490 9422     		mov	r2, #148
 731 0492 9200     		lsl	r2, r2, #2
 732 0494 BA18     		add	r2, r7, r2
 733 0496 1360     		str	r3, [r2]
 734 0498 DB17     		asr	r3, r3, #31
 735 049a 9522     		mov	r2, #149
 736 049c 9200     		lsl	r2, r2, #2
 737 049e BA18     		add	r2, r7, r2
 738 04a0 1360     		str	r3, [r2]
 739 04a2 9623     		mov	r3, #150
 740 04a4 9B00     		lsl	r3, r3, #2
 741 04a6 FB18     		add	r3, r7, r3
 742 04a8 1868     		ldr	r0, [r3]
 743 04aa 5968     		ldr	r1, [r3, #4]
 744 04ac 9423     		mov	r3, #148
 745 04ae 9B00     		lsl	r3, r3, #2
 746 04b0 FB18     		add	r3, r7, r3
 747 04b2 1A68     		ldr	r2, [r3]
 748 04b4 5B68     		ldr	r3, [r3, #4]
 749 04b6 FFF7FEFF 		bl	__aeabi_lmul
 750 04ba 031C     		mov	r3, r0
 751 04bc 0C1C     		mov	r4, r1
 752 04be 2200     		asr	r2, r4, #0
 753 04c0 9221     		mov	r1, #146
 754 04c2 8900     		lsl	r1, r1, #2
 755 04c4 7918     		add	r1, r7, r1
 756 04c6 0A60     		str	r2, [r1]
 757 04c8 E317     		asr	r3, r4, #31
 758 04ca 9322     		mov	r2, #147
 759 04cc 9200     		lsl	r2, r2, #2
 760 04ce BA18     		add	r2, r7, r2
 761 04d0 1360     		str	r3, [r2]
 762 04d2 9223     		mov	r3, #146
 763 04d4 9B00     		lsl	r3, r3, #2
 764 04d6 FB18     		add	r3, r7, r3
 765 04d8 1E68     		ldr	r6, [r3]
 473:Source\TransformFunctions/arm_cfft_radix4_q31.c ****                      ((int32_t) (((q63_t) s1 * si2) >> 32))) << 1u;
 766              		.loc 1 473 0 discriminator 1
 767 04da A023     		mov	r3, #160
 768 04dc 9822     		mov	r2, #152
 769 04de 9200     		lsl	r2, r2, #2
 770 04e0 9446     		mov	ip, r2
 771 04e2 BC44     		add	ip, ip, r7
 772 04e4 6344     		add	r3, r3, ip
 773 04e6 1B68     		ldr	r3, [r3]
 774 04e8 9022     		mov	r2, #144
 775 04ea 9200     		lsl	r2, r2, #2
 776 04ec BA18     		add	r2, r7, r2
 777 04ee 1360     		str	r3, [r2]
 778 04f0 DB17     		asr	r3, r3, #31
 779 04f2 9122     		mov	r2, #145
 780 04f4 9200     		lsl	r2, r2, #2
 781 04f6 BA18     		add	r2, r7, r2
ARM GAS  C:\Users\fneves\AppData\Local\Temp\ccD0n2wo.s 			page 23


 782 04f8 1360     		str	r3, [r2]
 783 04fa 8C23     		mov	r3, #140
 784 04fc 9822     		mov	r2, #152
 785 04fe 9200     		lsl	r2, r2, #2
 786 0500 9446     		mov	ip, r2
 787 0502 BC44     		add	ip, ip, r7
 788 0504 6344     		add	r3, r3, ip
 789 0506 1B68     		ldr	r3, [r3]
 790 0508 8E22     		mov	r2, #142
 791 050a 9200     		lsl	r2, r2, #2
 792 050c BA18     		add	r2, r7, r2
 793 050e 1360     		str	r3, [r2]
 794 0510 DB17     		asr	r3, r3, #31
 795 0512 8F22     		mov	r2, #143
 796 0514 9200     		lsl	r2, r2, #2
 797 0516 BA18     		add	r2, r7, r2
 798 0518 1360     		str	r3, [r2]
 799 051a 9023     		mov	r3, #144
 800 051c 9B00     		lsl	r3, r3, #2
 801 051e FB18     		add	r3, r7, r3
 802 0520 1868     		ldr	r0, [r3]
 803 0522 5968     		ldr	r1, [r3, #4]
 804 0524 8E23     		mov	r3, #142
 805 0526 9B00     		lsl	r3, r3, #2
 806 0528 FB18     		add	r3, r7, r3
 807 052a 1A68     		ldr	r2, [r3]
 808 052c 5B68     		ldr	r3, [r3, #4]
 809 052e FFF7FEFF 		bl	__aeabi_lmul
 810 0532 031C     		mov	r3, r0
 811 0534 0C1C     		mov	r4, r1
 812 0536 2200     		asr	r2, r4, #0
 813 0538 8C21     		mov	r1, #140
 814 053a 8900     		lsl	r1, r1, #2
 815 053c 7918     		add	r1, r7, r1
 816 053e 0A60     		str	r2, [r1]
 817 0540 E317     		asr	r3, r4, #31
 818 0542 8D22     		mov	r2, #141
 819 0544 9200     		lsl	r2, r2, #2
 820 0546 BA18     		add	r2, r7, r2
 821 0548 1360     		str	r3, [r2]
 822 054a 8C23     		mov	r3, #140
 823 054c 9B00     		lsl	r3, r3, #2
 824 054e FB18     		add	r3, r7, r3
 825 0550 1B68     		ldr	r3, [r3]
 472:Source\TransformFunctions/arm_cfft_radix4_q31.c ****                      ((int32_t) (((q63_t) s1 * si2) >> 32))) << 1u;
 826              		.loc 1 472 0 discriminator 1
 827 0552 F318     		add	r3, r6, r3
 828              		.loc 1 473 0 discriminator 1
 829 0554 5B00     		lsl	r3, r3, #1
 472:Source\TransformFunctions/arm_cfft_radix4_q31.c ****                      ((int32_t) (((q63_t) s1 * si2) >> 32))) << 1u;
 830              		.loc 1 472 0 discriminator 1
 831 0556 2B60     		str	r3, [r5]
 474:Source\TransformFunctions/arm_cfft_radix4_q31.c **** 
 475:Source\TransformFunctions/arm_cfft_radix4_q31.c ****     /* yc' = (ya-yb+yc-yd)co2 - (xa-xb+xc-xd)(si2) */
 476:Source\TransformFunctions/arm_cfft_radix4_q31.c ****     *pSi1++ = (((int32_t) (((q63_t) s1 * co2) >> 32)) -
 832              		.loc 1 476 0 discriminator 1
 833 0558 BC23     		mov	r3, #188
ARM GAS  C:\Users\fneves\AppData\Local\Temp\ccD0n2wo.s 			page 24


 834 055a 9822     		mov	r2, #152
 835 055c 9200     		lsl	r2, r2, #2
 836 055e 9446     		mov	ip, r2
 837 0560 BC44     		add	ip, ip, r7
 838 0562 6344     		add	r3, r3, ip
 839 0564 1D68     		ldr	r5, [r3]
 840 0566 2B1D     		add	r3, r5, #4
 841 0568 BC22     		mov	r2, #188
 842 056a 9821     		mov	r1, #152
 843 056c 8900     		lsl	r1, r1, #2
 844 056e 8C46     		mov	ip, r1
 845 0570 BC44     		add	ip, ip, r7
 846 0572 6244     		add	r2, r2, ip
 847 0574 1360     		str	r3, [r2]
 848 0576 A023     		mov	r3, #160
 849 0578 9822     		mov	r2, #152
 850 057a 9200     		lsl	r2, r2, #2
 851 057c 9446     		mov	ip, r2
 852 057e BC44     		add	ip, ip, r7
 853 0580 6344     		add	r3, r3, ip
 854 0582 1B68     		ldr	r3, [r3]
 855 0584 8A22     		mov	r2, #138
 856 0586 9200     		lsl	r2, r2, #2
 857 0588 BA18     		add	r2, r7, r2
 858 058a 1360     		str	r3, [r2]
 859 058c DB17     		asr	r3, r3, #31
 860 058e 8B22     		mov	r2, #139
 861 0590 9200     		lsl	r2, r2, #2
 862 0592 BA18     		add	r2, r7, r2
 863 0594 1360     		str	r3, [r2]
 864 0596 9023     		mov	r3, #144
 865 0598 9822     		mov	r2, #152
 866 059a 9200     		lsl	r2, r2, #2
 867 059c 9446     		mov	ip, r2
 868 059e BC44     		add	ip, ip, r7
 869 05a0 6344     		add	r3, r3, ip
 870 05a2 1B68     		ldr	r3, [r3]
 871 05a4 8822     		mov	r2, #136
 872 05a6 9200     		lsl	r2, r2, #2
 873 05a8 BA18     		add	r2, r7, r2
 874 05aa 1360     		str	r3, [r2]
 875 05ac DB17     		asr	r3, r3, #31
 876 05ae 8922     		mov	r2, #137
 877 05b0 9200     		lsl	r2, r2, #2
 878 05b2 BA18     		add	r2, r7, r2
 879 05b4 1360     		str	r3, [r2]
 880 05b6 8A23     		mov	r3, #138
 881 05b8 9B00     		lsl	r3, r3, #2
 882 05ba FB18     		add	r3, r7, r3
 883 05bc 1868     		ldr	r0, [r3]
 884 05be 5968     		ldr	r1, [r3, #4]
 885 05c0 8823     		mov	r3, #136
 886 05c2 9B00     		lsl	r3, r3, #2
 887 05c4 FB18     		add	r3, r7, r3
 888 05c6 1A68     		ldr	r2, [r3]
 889 05c8 5B68     		ldr	r3, [r3, #4]
 890 05ca FFF7FEFF 		bl	__aeabi_lmul
ARM GAS  C:\Users\fneves\AppData\Local\Temp\ccD0n2wo.s 			page 25


 891 05ce 031C     		mov	r3, r0
 892 05d0 0C1C     		mov	r4, r1
 893 05d2 2200     		asr	r2, r4, #0
 894 05d4 8621     		mov	r1, #134
 895 05d6 8900     		lsl	r1, r1, #2
 896 05d8 7918     		add	r1, r7, r1
 897 05da 0A60     		str	r2, [r1]
 898 05dc E317     		asr	r3, r4, #31
 899 05de 8722     		mov	r2, #135
 900 05e0 9200     		lsl	r2, r2, #2
 901 05e2 BA18     		add	r2, r7, r2
 902 05e4 1360     		str	r3, [r2]
 903 05e6 8623     		mov	r3, #134
 904 05e8 9B00     		lsl	r3, r3, #2
 905 05ea FB18     		add	r3, r7, r3
 906 05ec 1E68     		ldr	r6, [r3]
 477:Source\TransformFunctions/arm_cfft_radix4_q31.c ****                             ((int32_t) (((q63_t) r1 * si2) >> 32))) << 1u;
 907              		.loc 1 477 0 discriminator 1
 908 05ee AC23     		mov	r3, #172
 909 05f0 9822     		mov	r2, #152
 910 05f2 9200     		lsl	r2, r2, #2
 911 05f4 9446     		mov	ip, r2
 912 05f6 BC44     		add	ip, ip, r7
 913 05f8 6344     		add	r3, r3, ip
 914 05fa 1B68     		ldr	r3, [r3]
 915 05fc 8422     		mov	r2, #132
 916 05fe 9200     		lsl	r2, r2, #2
 917 0600 BA18     		add	r2, r7, r2
 918 0602 1360     		str	r3, [r2]
 919 0604 DB17     		asr	r3, r3, #31
 920 0606 8522     		mov	r2, #133
 921 0608 9200     		lsl	r2, r2, #2
 922 060a BA18     		add	r2, r7, r2
 923 060c 1360     		str	r3, [r2]
 924 060e 8C23     		mov	r3, #140
 925 0610 9822     		mov	r2, #152
 926 0612 9200     		lsl	r2, r2, #2
 927 0614 9446     		mov	ip, r2
 928 0616 BC44     		add	ip, ip, r7
 929 0618 6344     		add	r3, r3, ip
 930 061a 1B68     		ldr	r3, [r3]
 931 061c 8222     		mov	r2, #130
 932 061e 9200     		lsl	r2, r2, #2
 933 0620 BA18     		add	r2, r7, r2
 934 0622 1360     		str	r3, [r2]
 935 0624 DB17     		asr	r3, r3, #31
 936 0626 8322     		mov	r2, #131
 937 0628 9200     		lsl	r2, r2, #2
 938 062a BA18     		add	r2, r7, r2
 939 062c 1360     		str	r3, [r2]
 940 062e 8423     		mov	r3, #132
 941 0630 9B00     		lsl	r3, r3, #2
 942 0632 FB18     		add	r3, r7, r3
 943 0634 1868     		ldr	r0, [r3]
 944 0636 5968     		ldr	r1, [r3, #4]
 945 0638 8223     		mov	r3, #130
 946 063a 9B00     		lsl	r3, r3, #2
ARM GAS  C:\Users\fneves\AppData\Local\Temp\ccD0n2wo.s 			page 26


 947 063c FB18     		add	r3, r7, r3
 948 063e 1A68     		ldr	r2, [r3]
 949 0640 5B68     		ldr	r3, [r3, #4]
 950 0642 FFF7FEFF 		bl	__aeabi_lmul
 951 0646 031C     		mov	r3, r0
 952 0648 0C1C     		mov	r4, r1
 953 064a 2200     		asr	r2, r4, #0
 954 064c 8021     		mov	r1, #128
 955 064e 8900     		lsl	r1, r1, #2
 956 0650 7918     		add	r1, r7, r1
 957 0652 0A60     		str	r2, [r1]
 958 0654 E317     		asr	r3, r4, #31
 959 0656 8122     		mov	r2, #129
 960 0658 9200     		lsl	r2, r2, #2
 961 065a BA18     		add	r2, r7, r2
 962 065c 1360     		str	r3, [r2]
 963 065e 8023     		mov	r3, #128
 964 0660 9B00     		lsl	r3, r3, #2
 965 0662 FB18     		add	r3, r7, r3
 966 0664 1B68     		ldr	r3, [r3]
 476:Source\TransformFunctions/arm_cfft_radix4_q31.c ****                             ((int32_t) (((q63_t) r1 * si2) >> 32))) << 1u;
 967              		.loc 1 476 0 discriminator 1
 968 0666 F31A     		sub	r3, r6, r3
 969              		.loc 1 477 0 discriminator 1
 970 0668 5B00     		lsl	r3, r3, #1
 476:Source\TransformFunctions/arm_cfft_radix4_q31.c ****                             ((int32_t) (((q63_t) r1 * si2) >> 32))) << 1u;
 971              		.loc 1 476 0 discriminator 1
 972 066a 2B60     		str	r3, [r5]
 478:Source\TransformFunctions/arm_cfft_radix4_q31.c **** 
 479:Source\TransformFunctions/arm_cfft_radix4_q31.c ****     /* (xa - xc) + (yb - yd) */
 480:Source\TransformFunctions/arm_cfft_radix4_q31.c ****     r1 = r2 + t1;
 973              		.loc 1 480 0 discriminator 1
 974 066c A823     		mov	r3, #168
 975 066e 9822     		mov	r2, #152
 976 0670 9200     		lsl	r2, r2, #2
 977 0672 9446     		mov	ip, r2
 978 0674 BC44     		add	ip, ip, r7
 979 0676 6344     		add	r3, r3, ip
 980 0678 1A68     		ldr	r2, [r3]
 981 067a A423     		mov	r3, #164
 982 067c 9821     		mov	r1, #152
 983 067e 8900     		lsl	r1, r1, #2
 984 0680 8C46     		mov	ip, r1
 985 0682 BC44     		add	ip, ip, r7
 986 0684 6344     		add	r3, r3, ip
 987 0686 1B68     		ldr	r3, [r3]
 988 0688 D318     		add	r3, r2, r3
 989 068a AC22     		mov	r2, #172
 990 068c 9821     		mov	r1, #152
 991 068e 8900     		lsl	r1, r1, #2
 992 0690 8C46     		mov	ip, r1
 993 0692 BC44     		add	ip, ip, r7
 994 0694 6244     		add	r2, r2, ip
 995 0696 1360     		str	r3, [r2]
 481:Source\TransformFunctions/arm_cfft_radix4_q31.c ****     /* (xa - xc) - (yb - yd) */
 482:Source\TransformFunctions/arm_cfft_radix4_q31.c ****     r2 = r2 - t1;
 996              		.loc 1 482 0 discriminator 1
ARM GAS  C:\Users\fneves\AppData\Local\Temp\ccD0n2wo.s 			page 27


 997 0698 A823     		mov	r3, #168
 998 069a 9822     		mov	r2, #152
 999 069c 9200     		lsl	r2, r2, #2
 1000 069e 9446     		mov	ip, r2
 1001 06a0 BC44     		add	ip, ip, r7
 1002 06a2 6344     		add	r3, r3, ip
 1003 06a4 1A68     		ldr	r2, [r3]
 1004 06a6 A423     		mov	r3, #164
 1005 06a8 9821     		mov	r1, #152
 1006 06aa 8900     		lsl	r1, r1, #2
 1007 06ac 8C46     		mov	ip, r1
 1008 06ae BC44     		add	ip, ip, r7
 1009 06b0 6344     		add	r3, r3, ip
 1010 06b2 1B68     		ldr	r3, [r3]
 1011 06b4 D31A     		sub	r3, r2, r3
 1012 06b6 A822     		mov	r2, #168
 1013 06b8 9821     		mov	r1, #152
 1014 06ba 8900     		lsl	r1, r1, #2
 1015 06bc 8C46     		mov	ip, r1
 1016 06be BC44     		add	ip, ip, r7
 1017 06c0 6244     		add	r2, r2, ip
 1018 06c2 1360     		str	r3, [r2]
 483:Source\TransformFunctions/arm_cfft_radix4_q31.c **** 
 484:Source\TransformFunctions/arm_cfft_radix4_q31.c ****     /* (ya - yc) - (xb - xd) */
 485:Source\TransformFunctions/arm_cfft_radix4_q31.c ****     s1 = s2 - t2;
 1019              		.loc 1 485 0 discriminator 1
 1020 06c4 9C23     		mov	r3, #156
 1021 06c6 9822     		mov	r2, #152
 1022 06c8 9200     		lsl	r2, r2, #2
 1023 06ca 9446     		mov	ip, r2
 1024 06cc BC44     		add	ip, ip, r7
 1025 06ce 6344     		add	r3, r3, ip
 1026 06d0 1A68     		ldr	r2, [r3]
 1027 06d2 9823     		mov	r3, #152
 1028 06d4 9821     		mov	r1, #152
 1029 06d6 8900     		lsl	r1, r1, #2
 1030 06d8 8C46     		mov	ip, r1
 1031 06da BC44     		add	ip, ip, r7
 1032 06dc 6344     		add	r3, r3, ip
 1033 06de 1B68     		ldr	r3, [r3]
 1034 06e0 D31A     		sub	r3, r2, r3
 1035 06e2 A022     		mov	r2, #160
 1036 06e4 9821     		mov	r1, #152
 1037 06e6 8900     		lsl	r1, r1, #2
 1038 06e8 8C46     		mov	ip, r1
 1039 06ea BC44     		add	ip, ip, r7
 1040 06ec 6244     		add	r2, r2, ip
 1041 06ee 1360     		str	r3, [r2]
 486:Source\TransformFunctions/arm_cfft_radix4_q31.c ****     /* (ya - yc) + (xb - xd) */
 487:Source\TransformFunctions/arm_cfft_radix4_q31.c ****     s2 = s2 + t2;
 1042              		.loc 1 487 0 discriminator 1
 1043 06f0 9C23     		mov	r3, #156
 1044 06f2 9822     		mov	r2, #152
 1045 06f4 9200     		lsl	r2, r2, #2
 1046 06f6 9446     		mov	ip, r2
 1047 06f8 BC44     		add	ip, ip, r7
 1048 06fa 6344     		add	r3, r3, ip
ARM GAS  C:\Users\fneves\AppData\Local\Temp\ccD0n2wo.s 			page 28


 1049 06fc 1A68     		ldr	r2, [r3]
 1050 06fe 9823     		mov	r3, #152
 1051 0700 9821     		mov	r1, #152
 1052 0702 8900     		lsl	r1, r1, #2
 1053 0704 8C46     		mov	ip, r1
 1054 0706 BC44     		add	ip, ip, r7
 1055 0708 6344     		add	r3, r3, ip
 1056 070a 1B68     		ldr	r3, [r3]
 1057 070c D318     		add	r3, r2, r3
 1058 070e 9C22     		mov	r2, #156
 1059 0710 9821     		mov	r1, #152
 1060 0712 8900     		lsl	r1, r1, #2
 1061 0714 8C46     		mov	ip, r1
 1062 0716 BC44     		add	ip, ip, r7
 1063 0718 6244     		add	r2, r2, ip
 1064 071a 1360     		str	r3, [r2]
 488:Source\TransformFunctions/arm_cfft_radix4_q31.c **** 
 489:Source\TransformFunctions/arm_cfft_radix4_q31.c ****     co1 = pCoef[ia1 * 2u];
 1065              		.loc 1 489 0 discriminator 1
 1066 071c D023     		mov	r3, #208
 1067 071e 9822     		mov	r2, #152
 1068 0720 9200     		lsl	r2, r2, #2
 1069 0722 9446     		mov	ip, r2
 1070 0724 BC44     		add	ip, ip, r7
 1071 0726 6344     		add	r3, r3, ip
 1072 0728 1B68     		ldr	r3, [r3]
 1073 072a DA00     		lsl	r2, r3, #3
 1074 072c 9923     		mov	r3, #153
 1075 072e 9B00     		lsl	r3, r3, #2
 1076 0730 FB18     		add	r3, r7, r3
 1077 0732 1B68     		ldr	r3, [r3]
 1078 0734 9B18     		add	r3, r3, r2
 1079 0736 1B68     		ldr	r3, [r3]
 1080 0738 8822     		mov	r2, #136
 1081 073a 9821     		mov	r1, #152
 1082 073c 8900     		lsl	r1, r1, #2
 1083 073e 8C46     		mov	ip, r1
 1084 0740 BC44     		add	ip, ip, r7
 1085 0742 6244     		add	r2, r2, ip
 1086 0744 1360     		str	r3, [r2]
 490:Source\TransformFunctions/arm_cfft_radix4_q31.c ****     si1 = pCoef[(ia1 * 2u) + 1u];
 1087              		.loc 1 490 0 discriminator 1
 1088 0746 D023     		mov	r3, #208
 1089 0748 9822     		mov	r2, #152
 1090 074a 9200     		lsl	r2, r2, #2
 1091 074c 9446     		mov	ip, r2
 1092 074e BC44     		add	ip, ip, r7
 1093 0750 6344     		add	r3, r3, ip
 1094 0752 1B68     		ldr	r3, [r3]
 1095 0754 DB00     		lsl	r3, r3, #3
 1096 0756 1A1D     		add	r2, r3, #4
 1097 0758 9923     		mov	r3, #153
 1098 075a 9B00     		lsl	r3, r3, #2
 1099 075c FB18     		add	r3, r7, r3
 1100 075e 1B68     		ldr	r3, [r3]
 1101 0760 9B18     		add	r3, r3, r2
 1102 0762 1B68     		ldr	r3, [r3]
ARM GAS  C:\Users\fneves\AppData\Local\Temp\ccD0n2wo.s 			page 29


 1103 0764 8422     		mov	r2, #132
 1104 0766 9821     		mov	r1, #152
 1105 0768 8900     		lsl	r1, r1, #2
 1106 076a 8C46     		mov	ip, r1
 1107 076c BC44     		add	ip, ip, r7
 1108 076e 6244     		add	r2, r2, ip
 1109 0770 1360     		str	r3, [r2]
 491:Source\TransformFunctions/arm_cfft_radix4_q31.c **** 
 492:Source\TransformFunctions/arm_cfft_radix4_q31.c ****     /* xb' = (xa+yb-xc-yd)co1 + (ya-xb-yc+xd)(si1) */
 493:Source\TransformFunctions/arm_cfft_radix4_q31.c ****     *pSi2++ = (((int32_t) (((q63_t) r1 * co1) >> 32)) +
 1110              		.loc 1 493 0 discriminator 1
 1111 0772 B823     		mov	r3, #184
 1112 0774 9822     		mov	r2, #152
 1113 0776 9200     		lsl	r2, r2, #2
 1114 0778 9446     		mov	ip, r2
 1115 077a BC44     		add	ip, ip, r7
 1116 077c 6344     		add	r3, r3, ip
 1117 077e 1D68     		ldr	r5, [r3]
 1118 0780 2B1D     		add	r3, r5, #4
 1119 0782 B822     		mov	r2, #184
 1120 0784 9821     		mov	r1, #152
 1121 0786 8900     		lsl	r1, r1, #2
 1122 0788 8C46     		mov	ip, r1
 1123 078a BC44     		add	ip, ip, r7
 1124 078c 6244     		add	r2, r2, ip
 1125 078e 1360     		str	r3, [r2]
 1126 0790 AC23     		mov	r3, #172
 1127 0792 9822     		mov	r2, #152
 1128 0794 9200     		lsl	r2, r2, #2
 1129 0796 9446     		mov	ip, r2
 1130 0798 BC44     		add	ip, ip, r7
 1131 079a 6344     		add	r3, r3, ip
 1132 079c 1B68     		ldr	r3, [r3]
 1133 079e FC22     		mov	r2, #252
 1134 07a0 5200     		lsl	r2, r2, #1
 1135 07a2 BA18     		add	r2, r7, r2
 1136 07a4 1360     		str	r3, [r2]
 1137 07a6 DB17     		asr	r3, r3, #31
 1138 07a8 FE22     		mov	r2, #254
 1139 07aa 5200     		lsl	r2, r2, #1
 1140 07ac BA18     		add	r2, r7, r2
 1141 07ae 1360     		str	r3, [r2]
 1142 07b0 8823     		mov	r3, #136
 1143 07b2 9822     		mov	r2, #152
 1144 07b4 9200     		lsl	r2, r2, #2
 1145 07b6 9446     		mov	ip, r2
 1146 07b8 BC44     		add	ip, ip, r7
 1147 07ba 6344     		add	r3, r3, ip
 1148 07bc 1B68     		ldr	r3, [r3]
 1149 07be F822     		mov	r2, #248
 1150 07c0 5200     		lsl	r2, r2, #1
 1151 07c2 BA18     		add	r2, r7, r2
 1152 07c4 1360     		str	r3, [r2]
 1153 07c6 DB17     		asr	r3, r3, #31
 1154 07c8 FA22     		mov	r2, #250
 1155 07ca 5200     		lsl	r2, r2, #1
 1156 07cc BA18     		add	r2, r7, r2
ARM GAS  C:\Users\fneves\AppData\Local\Temp\ccD0n2wo.s 			page 30


 1157 07ce 1360     		str	r3, [r2]
 1158 07d0 FC23     		mov	r3, #252
 1159 07d2 5B00     		lsl	r3, r3, #1
 1160 07d4 FB18     		add	r3, r7, r3
 1161 07d6 1868     		ldr	r0, [r3]
 1162 07d8 5968     		ldr	r1, [r3, #4]
 1163 07da F823     		mov	r3, #248
 1164 07dc 5B00     		lsl	r3, r3, #1
 1165 07de FB18     		add	r3, r7, r3
 1166 07e0 1A68     		ldr	r2, [r3]
 1167 07e2 5B68     		ldr	r3, [r3, #4]
 1168 07e4 FFF7FEFF 		bl	__aeabi_lmul
 1169 07e8 031C     		mov	r3, r0
 1170 07ea 0C1C     		mov	r4, r1
 1171 07ec 2200     		asr	r2, r4, #0
 1172 07ee F421     		mov	r1, #244
 1173 07f0 4900     		lsl	r1, r1, #1
 1174 07f2 7918     		add	r1, r7, r1
 1175 07f4 0A60     		str	r2, [r1]
 1176 07f6 E317     		asr	r3, r4, #31
 1177 07f8 F622     		mov	r2, #246
 1178 07fa 5200     		lsl	r2, r2, #1
 1179 07fc BA18     		add	r2, r7, r2
 1180 07fe 1360     		str	r3, [r2]
 1181 0800 F423     		mov	r3, #244
 1182 0802 5B00     		lsl	r3, r3, #1
 1183 0804 FB18     		add	r3, r7, r3
 1184 0806 1E68     		ldr	r6, [r3]
 494:Source\TransformFunctions/arm_cfft_radix4_q31.c ****                      ((int32_t) (((q63_t) s1 * si1) >> 32))) << 1u;
 1185              		.loc 1 494 0 discriminator 1
 1186 0808 A023     		mov	r3, #160
 1187 080a 9822     		mov	r2, #152
 1188 080c 9200     		lsl	r2, r2, #2
 1189 080e 9446     		mov	ip, r2
 1190 0810 BC44     		add	ip, ip, r7
 1191 0812 6344     		add	r3, r3, ip
 1192 0814 1B68     		ldr	r3, [r3]
 1193 0816 F022     		mov	r2, #240
 1194 0818 5200     		lsl	r2, r2, #1
 1195 081a BA18     		add	r2, r7, r2
 1196 081c 1360     		str	r3, [r2]
 1197 081e DB17     		asr	r3, r3, #31
 1198 0820 F222     		mov	r2, #242
 1199 0822 5200     		lsl	r2, r2, #1
 1200 0824 BA18     		add	r2, r7, r2
 1201 0826 1360     		str	r3, [r2]
 1202 0828 8423     		mov	r3, #132
 1203 082a 9822     		mov	r2, #152
 1204 082c 9200     		lsl	r2, r2, #2
 1205 082e 9446     		mov	ip, r2
 1206 0830 BC44     		add	ip, ip, r7
 1207 0832 6344     		add	r3, r3, ip
 1208 0834 1B68     		ldr	r3, [r3]
 1209 0836 EC22     		mov	r2, #236
 1210 0838 5200     		lsl	r2, r2, #1
 1211 083a BA18     		add	r2, r7, r2
 1212 083c 1360     		str	r3, [r2]
ARM GAS  C:\Users\fneves\AppData\Local\Temp\ccD0n2wo.s 			page 31


 1213 083e DB17     		asr	r3, r3, #31
 1214 0840 EE22     		mov	r2, #238
 1215 0842 5200     		lsl	r2, r2, #1
 1216 0844 BA18     		add	r2, r7, r2
 1217 0846 1360     		str	r3, [r2]
 1218 0848 F023     		mov	r3, #240
 1219 084a 5B00     		lsl	r3, r3, #1
 1220 084c FB18     		add	r3, r7, r3
 1221 084e 1868     		ldr	r0, [r3]
 1222 0850 5968     		ldr	r1, [r3, #4]
 1223 0852 EC23     		mov	r3, #236
 1224 0854 5B00     		lsl	r3, r3, #1
 1225 0856 FB18     		add	r3, r7, r3
 1226 0858 1A68     		ldr	r2, [r3]
 1227 085a 5B68     		ldr	r3, [r3, #4]
 1228 085c FFF7FEFF 		bl	__aeabi_lmul
 1229 0860 031C     		mov	r3, r0
 1230 0862 0C1C     		mov	r4, r1
 1231 0864 2200     		asr	r2, r4, #0
 1232 0866 E821     		mov	r1, #232
 1233 0868 4900     		lsl	r1, r1, #1
 1234 086a 7918     		add	r1, r7, r1
 1235 086c 0A60     		str	r2, [r1]
 1236 086e E317     		asr	r3, r4, #31
 1237 0870 EA22     		mov	r2, #234
 1238 0872 5200     		lsl	r2, r2, #1
 1239 0874 BA18     		add	r2, r7, r2
 1240 0876 1360     		str	r3, [r2]
 1241 0878 E823     		mov	r3, #232
 1242 087a 5B00     		lsl	r3, r3, #1
 1243 087c FB18     		add	r3, r7, r3
 1244 087e 1B68     		ldr	r3, [r3]
 493:Source\TransformFunctions/arm_cfft_radix4_q31.c ****                      ((int32_t) (((q63_t) s1 * si1) >> 32))) << 1u;
 1245              		.loc 1 493 0 discriminator 1
 1246 0880 F318     		add	r3, r6, r3
 1247              		.loc 1 494 0 discriminator 1
 1248 0882 5B00     		lsl	r3, r3, #1
 493:Source\TransformFunctions/arm_cfft_radix4_q31.c ****                      ((int32_t) (((q63_t) s1 * si1) >> 32))) << 1u;
 1249              		.loc 1 493 0 discriminator 1
 1250 0884 2B60     		str	r3, [r5]
 495:Source\TransformFunctions/arm_cfft_radix4_q31.c **** 
 496:Source\TransformFunctions/arm_cfft_radix4_q31.c ****     /* yb' = (ya-xb-yc+xd)co1 - (xa+yb-xc-yd)(si1) */
 497:Source\TransformFunctions/arm_cfft_radix4_q31.c ****     *pSi2++ = (((int32_t) (((q63_t) s1 * co1) >> 32)) -
 1251              		.loc 1 497 0 discriminator 1
 1252 0886 B823     		mov	r3, #184
 1253 0888 9822     		mov	r2, #152
 1254 088a 9200     		lsl	r2, r2, #2
 1255 088c 9446     		mov	ip, r2
 1256 088e BC44     		add	ip, ip, r7
 1257 0890 6344     		add	r3, r3, ip
 1258 0892 1D68     		ldr	r5, [r3]
 1259 0894 2B1D     		add	r3, r5, #4
 1260 0896 B822     		mov	r2, #184
 1261 0898 9821     		mov	r1, #152
 1262 089a 8900     		lsl	r1, r1, #2
 1263 089c 8C46     		mov	ip, r1
 1264 089e BC44     		add	ip, ip, r7
ARM GAS  C:\Users\fneves\AppData\Local\Temp\ccD0n2wo.s 			page 32


 1265 08a0 6244     		add	r2, r2, ip
 1266 08a2 1360     		str	r3, [r2]
 1267 08a4 A023     		mov	r3, #160
 1268 08a6 9822     		mov	r2, #152
 1269 08a8 9200     		lsl	r2, r2, #2
 1270 08aa 9446     		mov	ip, r2
 1271 08ac BC44     		add	ip, ip, r7
 1272 08ae 6344     		add	r3, r3, ip
 1273 08b0 1B68     		ldr	r3, [r3]
 1274 08b2 E422     		mov	r2, #228
 1275 08b4 5200     		lsl	r2, r2, #1
 1276 08b6 BA18     		add	r2, r7, r2
 1277 08b8 1360     		str	r3, [r2]
 1278 08ba DB17     		asr	r3, r3, #31
 1279 08bc E622     		mov	r2, #230
 1280 08be 5200     		lsl	r2, r2, #1
 1281 08c0 BA18     		add	r2, r7, r2
 1282 08c2 1360     		str	r3, [r2]
 1283 08c4 8823     		mov	r3, #136
 1284 08c6 9822     		mov	r2, #152
 1285 08c8 9200     		lsl	r2, r2, #2
 1286 08ca 9446     		mov	ip, r2
 1287 08cc BC44     		add	ip, ip, r7
 1288 08ce 6344     		add	r3, r3, ip
 1289 08d0 1B68     		ldr	r3, [r3]
 1290 08d2 E022     		mov	r2, #224
 1291 08d4 5200     		lsl	r2, r2, #1
 1292 08d6 BA18     		add	r2, r7, r2
 1293 08d8 1360     		str	r3, [r2]
 1294 08da DB17     		asr	r3, r3, #31
 1295 08dc E222     		mov	r2, #226
 1296 08de 5200     		lsl	r2, r2, #1
 1297 08e0 BA18     		add	r2, r7, r2
 1298 08e2 1360     		str	r3, [r2]
 1299 08e4 E423     		mov	r3, #228
 1300 08e6 5B00     		lsl	r3, r3, #1
 1301 08e8 FB18     		add	r3, r7, r3
 1302 08ea 1868     		ldr	r0, [r3]
 1303 08ec 5968     		ldr	r1, [r3, #4]
 1304 08ee E023     		mov	r3, #224
 1305 08f0 5B00     		lsl	r3, r3, #1
 1306 08f2 FB18     		add	r3, r7, r3
 1307 08f4 1A68     		ldr	r2, [r3]
 1308 08f6 5B68     		ldr	r3, [r3, #4]
 1309 08f8 FFF7FEFF 		bl	__aeabi_lmul
 1310 08fc 031C     		mov	r3, r0
 1311 08fe 0C1C     		mov	r4, r1
 1312 0900 2200     		asr	r2, r4, #0
 1313 0902 DC21     		mov	r1, #220
 1314 0904 4900     		lsl	r1, r1, #1
 1315 0906 7918     		add	r1, r7, r1
 1316 0908 0A60     		str	r2, [r1]
 1317 090a E317     		asr	r3, r4, #31
 1318 090c DE22     		mov	r2, #222
 1319 090e 5200     		lsl	r2, r2, #1
 1320 0910 BA18     		add	r2, r7, r2
 1321 0912 1360     		str	r3, [r2]
ARM GAS  C:\Users\fneves\AppData\Local\Temp\ccD0n2wo.s 			page 33


 1322 0914 DC23     		mov	r3, #220
 1323 0916 5B00     		lsl	r3, r3, #1
 1324 0918 FB18     		add	r3, r7, r3
 1325 091a 1E68     		ldr	r6, [r3]
 498:Source\TransformFunctions/arm_cfft_radix4_q31.c ****                             ((int32_t) (((q63_t) r1 * si1) >> 32))) << 1u;
 1326              		.loc 1 498 0 discriminator 1
 1327 091c AC23     		mov	r3, #172
 1328 091e 9822     		mov	r2, #152
 1329 0920 9200     		lsl	r2, r2, #2
 1330 0922 9446     		mov	ip, r2
 1331 0924 BC44     		add	ip, ip, r7
 1332 0926 6344     		add	r3, r3, ip
 1333 0928 1B68     		ldr	r3, [r3]
 1334 092a D822     		mov	r2, #216
 1335 092c 5200     		lsl	r2, r2, #1
 1336 092e BA18     		add	r2, r7, r2
 1337 0930 1360     		str	r3, [r2]
 1338 0932 DB17     		asr	r3, r3, #31
 1339 0934 DA22     		mov	r2, #218
 1340 0936 5200     		lsl	r2, r2, #1
 1341 0938 BA18     		add	r2, r7, r2
 1342 093a 1360     		str	r3, [r2]
 1343 093c 8423     		mov	r3, #132
 1344 093e 9822     		mov	r2, #152
 1345 0940 9200     		lsl	r2, r2, #2
 1346 0942 9446     		mov	ip, r2
 1347 0944 BC44     		add	ip, ip, r7
 1348 0946 6344     		add	r3, r3, ip
 1349 0948 1B68     		ldr	r3, [r3]
 1350 094a D422     		mov	r2, #212
 1351 094c 5200     		lsl	r2, r2, #1
 1352 094e BA18     		add	r2, r7, r2
 1353 0950 1360     		str	r3, [r2]
 1354 0952 DB17     		asr	r3, r3, #31
 1355 0954 D622     		mov	r2, #214
 1356 0956 5200     		lsl	r2, r2, #1
 1357 0958 BA18     		add	r2, r7, r2
 1358 095a 1360     		str	r3, [r2]
 1359 095c D823     		mov	r3, #216
 1360 095e 5B00     		lsl	r3, r3, #1
 1361 0960 FB18     		add	r3, r7, r3
 1362 0962 1868     		ldr	r0, [r3]
 1363 0964 5968     		ldr	r1, [r3, #4]
 1364 0966 D423     		mov	r3, #212
 1365 0968 5B00     		lsl	r3, r3, #1
 1366 096a FB18     		add	r3, r7, r3
 1367 096c 1A68     		ldr	r2, [r3]
 1368 096e 5B68     		ldr	r3, [r3, #4]
 1369 0970 FFF7FEFF 		bl	__aeabi_lmul
 1370 0974 031C     		mov	r3, r0
 1371 0976 0C1C     		mov	r4, r1
 1372 0978 2200     		asr	r2, r4, #0
 1373 097a D021     		mov	r1, #208
 1374 097c 4900     		lsl	r1, r1, #1
 1375 097e 7918     		add	r1, r7, r1
 1376 0980 0A60     		str	r2, [r1]
 1377 0982 E317     		asr	r3, r4, #31
ARM GAS  C:\Users\fneves\AppData\Local\Temp\ccD0n2wo.s 			page 34


 1378 0984 D222     		mov	r2, #210
 1379 0986 5200     		lsl	r2, r2, #1
 1380 0988 BA18     		add	r2, r7, r2
 1381 098a 1360     		str	r3, [r2]
 1382 098c D023     		mov	r3, #208
 1383 098e 5B00     		lsl	r3, r3, #1
 1384 0990 FB18     		add	r3, r7, r3
 1385 0992 1B68     		ldr	r3, [r3]
 497:Source\TransformFunctions/arm_cfft_radix4_q31.c ****                             ((int32_t) (((q63_t) r1 * si1) >> 32))) << 1u;
 1386              		.loc 1 497 0 discriminator 1
 1387 0994 F31A     		sub	r3, r6, r3
 1388              		.loc 1 498 0 discriminator 1
 1389 0996 5B00     		lsl	r3, r3, #1
 497:Source\TransformFunctions/arm_cfft_radix4_q31.c ****                             ((int32_t) (((q63_t) r1 * si1) >> 32))) << 1u;
 1390              		.loc 1 497 0 discriminator 1
 1391 0998 2B60     		str	r3, [r5]
 499:Source\TransformFunctions/arm_cfft_radix4_q31.c **** 
 500:Source\TransformFunctions/arm_cfft_radix4_q31.c ****     /*  index calculation for the coefficients */
 501:Source\TransformFunctions/arm_cfft_radix4_q31.c ****     ia3 = 3u * ia1;
 1392              		.loc 1 501 0 discriminator 1
 1393 099a D023     		mov	r3, #208
 1394 099c 9822     		mov	r2, #152
 1395 099e 9200     		lsl	r2, r2, #2
 1396 09a0 9446     		mov	ip, r2
 1397 09a2 BC44     		add	ip, ip, r7
 1398 09a4 6344     		add	r3, r3, ip
 1399 09a6 1A68     		ldr	r2, [r3]
 1400 09a8 131C     		mov	r3, r2
 1401 09aa 5B00     		lsl	r3, r3, #1
 1402 09ac 9B18     		add	r3, r3, r2
 1403 09ae 8022     		mov	r2, #128
 1404 09b0 9821     		mov	r1, #152
 1405 09b2 8900     		lsl	r1, r1, #2
 1406 09b4 8C46     		mov	ip, r1
 1407 09b6 BC44     		add	ip, ip, r7
 1408 09b8 6244     		add	r2, r2, ip
 1409 09ba 1360     		str	r3, [r2]
 502:Source\TransformFunctions/arm_cfft_radix4_q31.c ****     co3 = pCoef[ia3 * 2u];
 1410              		.loc 1 502 0 discriminator 1
 1411 09bc 8023     		mov	r3, #128
 1412 09be 9822     		mov	r2, #152
 1413 09c0 9200     		lsl	r2, r2, #2
 1414 09c2 9446     		mov	ip, r2
 1415 09c4 BC44     		add	ip, ip, r7
 1416 09c6 6344     		add	r3, r3, ip
 1417 09c8 1B68     		ldr	r3, [r3]
 1418 09ca DA00     		lsl	r2, r3, #3
 1419 09cc 9923     		mov	r3, #153
 1420 09ce 9B00     		lsl	r3, r3, #2
 1421 09d0 FB18     		add	r3, r7, r3
 1422 09d2 1B68     		ldr	r3, [r3]
 1423 09d4 9B18     		add	r3, r3, r2
 1424 09d6 1B68     		ldr	r3, [r3]
 1425 09d8 B722     		mov	r2, #183
 1426 09da 9200     		lsl	r2, r2, #2
 1427 09dc BA18     		add	r2, r7, r2
 1428 09de 1360     		str	r3, [r2]
ARM GAS  C:\Users\fneves\AppData\Local\Temp\ccD0n2wo.s 			page 35


 503:Source\TransformFunctions/arm_cfft_radix4_q31.c ****     si3 = pCoef[(ia3 * 2u) + 1u];
 1429              		.loc 1 503 0 discriminator 1
 1430 09e0 8023     		mov	r3, #128
 1431 09e2 9822     		mov	r2, #152
 1432 09e4 9200     		lsl	r2, r2, #2
 1433 09e6 9446     		mov	ip, r2
 1434 09e8 BC44     		add	ip, ip, r7
 1435 09ea 6344     		add	r3, r3, ip
 1436 09ec 1B68     		ldr	r3, [r3]
 1437 09ee DB00     		lsl	r3, r3, #3
 1438 09f0 1A1D     		add	r2, r3, #4
 1439 09f2 9923     		mov	r3, #153
 1440 09f4 9B00     		lsl	r3, r3, #2
 1441 09f6 FB18     		add	r3, r7, r3
 1442 09f8 1B68     		ldr	r3, [r3]
 1443 09fa 9B18     		add	r3, r3, r2
 1444 09fc 1B68     		ldr	r3, [r3]
 1445 09fe B622     		mov	r2, #182
 1446 0a00 9200     		lsl	r2, r2, #2
 1447 0a02 BA18     		add	r2, r7, r2
 1448 0a04 1360     		str	r3, [r2]
 504:Source\TransformFunctions/arm_cfft_radix4_q31.c **** 
 505:Source\TransformFunctions/arm_cfft_radix4_q31.c ****     /* xd' = (xa-yb-xc+yd)co3 + (ya+xb-yc-xd)(si3) */
 506:Source\TransformFunctions/arm_cfft_radix4_q31.c ****     *pSi3++ = (((int32_t) (((q63_t) r2 * co3) >> 32)) +
 1449              		.loc 1 506 0 discriminator 1
 1450 0a06 B423     		mov	r3, #180
 1451 0a08 9822     		mov	r2, #152
 1452 0a0a 9200     		lsl	r2, r2, #2
 1453 0a0c 9446     		mov	ip, r2
 1454 0a0e BC44     		add	ip, ip, r7
 1455 0a10 6344     		add	r3, r3, ip
 1456 0a12 1D68     		ldr	r5, [r3]
 1457 0a14 2B1D     		add	r3, r5, #4
 1458 0a16 B422     		mov	r2, #180
 1459 0a18 9821     		mov	r1, #152
 1460 0a1a 8900     		lsl	r1, r1, #2
 1461 0a1c 8C46     		mov	ip, r1
 1462 0a1e BC44     		add	ip, ip, r7
 1463 0a20 6244     		add	r2, r2, ip
 1464 0a22 1360     		str	r3, [r2]
 1465 0a24 A823     		mov	r3, #168
 1466 0a26 9822     		mov	r2, #152
 1467 0a28 9200     		lsl	r2, r2, #2
 1468 0a2a 9446     		mov	ip, r2
 1469 0a2c BC44     		add	ip, ip, r7
 1470 0a2e 6344     		add	r3, r3, ip
 1471 0a30 1B68     		ldr	r3, [r3]
 1472 0a32 CC22     		mov	r2, #204
 1473 0a34 5200     		lsl	r2, r2, #1
 1474 0a36 BA18     		add	r2, r7, r2
 1475 0a38 1360     		str	r3, [r2]
 1476 0a3a DB17     		asr	r3, r3, #31
 1477 0a3c CE22     		mov	r2, #206
 1478 0a3e 5200     		lsl	r2, r2, #1
 1479 0a40 BA18     		add	r2, r7, r2
 1480 0a42 1360     		str	r3, [r2]
 1481 0a44 B723     		mov	r3, #183
ARM GAS  C:\Users\fneves\AppData\Local\Temp\ccD0n2wo.s 			page 36


 1482 0a46 9B00     		lsl	r3, r3, #2
 1483 0a48 FB18     		add	r3, r7, r3
 1484 0a4a 1B68     		ldr	r3, [r3]
 1485 0a4c C822     		mov	r2, #200
 1486 0a4e 5200     		lsl	r2, r2, #1
 1487 0a50 BA18     		add	r2, r7, r2
 1488 0a52 1360     		str	r3, [r2]
 1489 0a54 DB17     		asr	r3, r3, #31
 1490 0a56 CA22     		mov	r2, #202
 1491 0a58 5200     		lsl	r2, r2, #1
 1492 0a5a BA18     		add	r2, r7, r2
 1493 0a5c 1360     		str	r3, [r2]
 1494 0a5e CC23     		mov	r3, #204
 1495 0a60 5B00     		lsl	r3, r3, #1
 1496 0a62 FB18     		add	r3, r7, r3
 1497 0a64 1868     		ldr	r0, [r3]
 1498 0a66 5968     		ldr	r1, [r3, #4]
 1499 0a68 C823     		mov	r3, #200
 1500 0a6a 5B00     		lsl	r3, r3, #1
 1501 0a6c FB18     		add	r3, r7, r3
 1502 0a6e 1A68     		ldr	r2, [r3]
 1503 0a70 5B68     		ldr	r3, [r3, #4]
 1504 0a72 FFF7FEFF 		bl	__aeabi_lmul
 1505 0a76 031C     		mov	r3, r0
 1506 0a78 0C1C     		mov	r4, r1
 1507 0a7a 2200     		asr	r2, r4, #0
 1508 0a7c C421     		mov	r1, #196
 1509 0a7e 4900     		lsl	r1, r1, #1
 1510 0a80 7918     		add	r1, r7, r1
 1511 0a82 0A60     		str	r2, [r1]
 1512 0a84 E317     		asr	r3, r4, #31
 1513 0a86 C622     		mov	r2, #198
 1514 0a88 5200     		lsl	r2, r2, #1
 1515 0a8a BA18     		add	r2, r7, r2
 1516 0a8c 1360     		str	r3, [r2]
 1517 0a8e C423     		mov	r3, #196
 1518 0a90 5B00     		lsl	r3, r3, #1
 1519 0a92 FB18     		add	r3, r7, r3
 1520 0a94 1E68     		ldr	r6, [r3]
 507:Source\TransformFunctions/arm_cfft_radix4_q31.c ****                      ((int32_t) (((q63_t) s2 * si3) >> 32))) << 1u;
 1521              		.loc 1 507 0 discriminator 1
 1522 0a96 9C23     		mov	r3, #156
 1523 0a98 9822     		mov	r2, #152
 1524 0a9a 9200     		lsl	r2, r2, #2
 1525 0a9c 9446     		mov	ip, r2
 1526 0a9e BC44     		add	ip, ip, r7
 1527 0aa0 6344     		add	r3, r3, ip
 1528 0aa2 1B68     		ldr	r3, [r3]
 1529 0aa4 C022     		mov	r2, #192
 1530 0aa6 5200     		lsl	r2, r2, #1
 1531 0aa8 BA18     		add	r2, r7, r2
 1532 0aaa 1360     		str	r3, [r2]
 1533 0aac DB17     		asr	r3, r3, #31
 1534 0aae C222     		mov	r2, #194
 1535 0ab0 5200     		lsl	r2, r2, #1
 1536 0ab2 BA18     		add	r2, r7, r2
 1537 0ab4 1360     		str	r3, [r2]
ARM GAS  C:\Users\fneves\AppData\Local\Temp\ccD0n2wo.s 			page 37


 1538 0ab6 B623     		mov	r3, #182
 1539 0ab8 9B00     		lsl	r3, r3, #2
 1540 0aba FB18     		add	r3, r7, r3
 1541 0abc 1B68     		ldr	r3, [r3]
 1542 0abe BC22     		mov	r2, #188
 1543 0ac0 5200     		lsl	r2, r2, #1
 1544 0ac2 BA18     		add	r2, r7, r2
 1545 0ac4 1360     		str	r3, [r2]
 1546 0ac6 DB17     		asr	r3, r3, #31
 1547 0ac8 BE22     		mov	r2, #190
 1548 0aca 5200     		lsl	r2, r2, #1
 1549 0acc BA18     		add	r2, r7, r2
 1550 0ace 1360     		str	r3, [r2]
 1551 0ad0 C023     		mov	r3, #192
 1552 0ad2 5B00     		lsl	r3, r3, #1
 1553 0ad4 FB18     		add	r3, r7, r3
 1554 0ad6 1868     		ldr	r0, [r3]
 1555 0ad8 5968     		ldr	r1, [r3, #4]
 1556 0ada BC23     		mov	r3, #188
 1557 0adc 5B00     		lsl	r3, r3, #1
 1558 0ade FB18     		add	r3, r7, r3
 1559 0ae0 1A68     		ldr	r2, [r3]
 1560 0ae2 5B68     		ldr	r3, [r3, #4]
 1561 0ae4 FFF7FEFF 		bl	__aeabi_lmul
 1562 0ae8 031C     		mov	r3, r0
 1563 0aea 0C1C     		mov	r4, r1
 1564 0aec 2200     		asr	r2, r4, #0
 1565 0aee B821     		mov	r1, #184
 1566 0af0 4900     		lsl	r1, r1, #1
 1567 0af2 7918     		add	r1, r7, r1
 1568 0af4 0A60     		str	r2, [r1]
 1569 0af6 E317     		asr	r3, r4, #31
 1570 0af8 BA22     		mov	r2, #186
 1571 0afa 5200     		lsl	r2, r2, #1
 1572 0afc BA18     		add	r2, r7, r2
 1573 0afe 1360     		str	r3, [r2]
 1574 0b00 B823     		mov	r3, #184
 1575 0b02 5B00     		lsl	r3, r3, #1
 1576 0b04 FB18     		add	r3, r7, r3
 1577 0b06 1B68     		ldr	r3, [r3]
 506:Source\TransformFunctions/arm_cfft_radix4_q31.c ****                      ((int32_t) (((q63_t) s2 * si3) >> 32))) << 1u;
 1578              		.loc 1 506 0 discriminator 1
 1579 0b08 F318     		add	r3, r6, r3
 1580              		.loc 1 507 0 discriminator 1
 1581 0b0a 5B00     		lsl	r3, r3, #1
 506:Source\TransformFunctions/arm_cfft_radix4_q31.c ****                      ((int32_t) (((q63_t) s2 * si3) >> 32))) << 1u;
 1582              		.loc 1 506 0 discriminator 1
 1583 0b0c 2B60     		str	r3, [r5]
 508:Source\TransformFunctions/arm_cfft_radix4_q31.c **** 
 509:Source\TransformFunctions/arm_cfft_radix4_q31.c ****     /* yd' = (ya+xb-yc-xd)co3 - (xa-yb-xc+yd)(si3) */
 510:Source\TransformFunctions/arm_cfft_radix4_q31.c ****     *pSi3++ = (((int32_t) (((q63_t) s2 * co3) >> 32)) -
 1584              		.loc 1 510 0 discriminator 1
 1585 0b0e B423     		mov	r3, #180
 1586 0b10 9822     		mov	r2, #152
 1587 0b12 9200     		lsl	r2, r2, #2
 1588 0b14 9446     		mov	ip, r2
 1589 0b16 BC44     		add	ip, ip, r7
ARM GAS  C:\Users\fneves\AppData\Local\Temp\ccD0n2wo.s 			page 38


 1590 0b18 6344     		add	r3, r3, ip
 1591 0b1a 1D68     		ldr	r5, [r3]
 1592 0b1c 2B1D     		add	r3, r5, #4
 1593 0b1e B422     		mov	r2, #180
 1594 0b20 9821     		mov	r1, #152
 1595 0b22 8900     		lsl	r1, r1, #2
 1596 0b24 8C46     		mov	ip, r1
 1597 0b26 BC44     		add	ip, ip, r7
 1598 0b28 6244     		add	r2, r2, ip
 1599 0b2a 1360     		str	r3, [r2]
 1600 0b2c 9C23     		mov	r3, #156
 1601 0b2e 9822     		mov	r2, #152
 1602 0b30 9200     		lsl	r2, r2, #2
 1603 0b32 9446     		mov	ip, r2
 1604 0b34 BC44     		add	ip, ip, r7
 1605 0b36 6344     		add	r3, r3, ip
 1606 0b38 1B68     		ldr	r3, [r3]
 1607 0b3a B422     		mov	r2, #180
 1608 0b3c 5200     		lsl	r2, r2, #1
 1609 0b3e BA18     		add	r2, r7, r2
 1610 0b40 1360     		str	r3, [r2]
 1611 0b42 DB17     		asr	r3, r3, #31
 1612 0b44 B622     		mov	r2, #182
 1613 0b46 5200     		lsl	r2, r2, #1
 1614 0b48 BA18     		add	r2, r7, r2
 1615 0b4a 1360     		str	r3, [r2]
 1616 0b4c B723     		mov	r3, #183
 1617 0b4e 9B00     		lsl	r3, r3, #2
 1618 0b50 FB18     		add	r3, r7, r3
 1619 0b52 1B68     		ldr	r3, [r3]
 1620 0b54 B022     		mov	r2, #176
 1621 0b56 5200     		lsl	r2, r2, #1
 1622 0b58 BA18     		add	r2, r7, r2
 1623 0b5a 1360     		str	r3, [r2]
 1624 0b5c DB17     		asr	r3, r3, #31
 1625 0b5e B222     		mov	r2, #178
 1626 0b60 5200     		lsl	r2, r2, #1
 1627 0b62 BA18     		add	r2, r7, r2
 1628 0b64 1360     		str	r3, [r2]
 1629 0b66 B423     		mov	r3, #180
 1630 0b68 5B00     		lsl	r3, r3, #1
 1631 0b6a FB18     		add	r3, r7, r3
 1632 0b6c 1868     		ldr	r0, [r3]
 1633 0b6e 5968     		ldr	r1, [r3, #4]
 1634 0b70 B023     		mov	r3, #176
 1635 0b72 5B00     		lsl	r3, r3, #1
 1636 0b74 FB18     		add	r3, r7, r3
 1637 0b76 1A68     		ldr	r2, [r3]
 1638 0b78 5B68     		ldr	r3, [r3, #4]
 1639 0b7a FFF7FEFF 		bl	__aeabi_lmul
 1640 0b7e 031C     		mov	r3, r0
 1641 0b80 0C1C     		mov	r4, r1
 1642 0b82 2200     		asr	r2, r4, #0
 1643 0b84 AC21     		mov	r1, #172
 1644 0b86 4900     		lsl	r1, r1, #1
 1645 0b88 7918     		add	r1, r7, r1
 1646 0b8a 0A60     		str	r2, [r1]
ARM GAS  C:\Users\fneves\AppData\Local\Temp\ccD0n2wo.s 			page 39


 1647 0b8c E317     		asr	r3, r4, #31
 1648 0b8e AE22     		mov	r2, #174
 1649 0b90 5200     		lsl	r2, r2, #1
 1650 0b92 BA18     		add	r2, r7, r2
 1651 0b94 1360     		str	r3, [r2]
 1652 0b96 AC23     		mov	r3, #172
 1653 0b98 5B00     		lsl	r3, r3, #1
 1654 0b9a FB18     		add	r3, r7, r3
 1655 0b9c 1E68     		ldr	r6, [r3]
 511:Source\TransformFunctions/arm_cfft_radix4_q31.c ****                             ((int32_t) (((q63_t) r2 * si3) >> 32))) << 1u;
 1656              		.loc 1 511 0 discriminator 1
 1657 0b9e A823     		mov	r3, #168
 1658 0ba0 9822     		mov	r2, #152
 1659 0ba2 9200     		lsl	r2, r2, #2
 1660 0ba4 9446     		mov	ip, r2
 1661 0ba6 BC44     		add	ip, ip, r7
 1662 0ba8 6344     		add	r3, r3, ip
 1663 0baa 1B68     		ldr	r3, [r3]
 1664 0bac A822     		mov	r2, #168
 1665 0bae 5200     		lsl	r2, r2, #1
 1666 0bb0 BA18     		add	r2, r7, r2
 1667 0bb2 1360     		str	r3, [r2]
 1668 0bb4 DB17     		asr	r3, r3, #31
 1669 0bb6 AA22     		mov	r2, #170
 1670 0bb8 5200     		lsl	r2, r2, #1
 1671 0bba BA18     		add	r2, r7, r2
 1672 0bbc 1360     		str	r3, [r2]
 1673 0bbe B623     		mov	r3, #182
 1674 0bc0 9B00     		lsl	r3, r3, #2
 1675 0bc2 FB18     		add	r3, r7, r3
 1676 0bc4 1B68     		ldr	r3, [r3]
 1677 0bc6 A422     		mov	r2, #164
 1678 0bc8 5200     		lsl	r2, r2, #1
 1679 0bca BA18     		add	r2, r7, r2
 1680 0bcc 1360     		str	r3, [r2]
 1681 0bce DB17     		asr	r3, r3, #31
 1682 0bd0 A622     		mov	r2, #166
 1683 0bd2 5200     		lsl	r2, r2, #1
 1684 0bd4 BA18     		add	r2, r7, r2
 1685 0bd6 1360     		str	r3, [r2]
 1686 0bd8 A823     		mov	r3, #168
 1687 0bda 5B00     		lsl	r3, r3, #1
 1688 0bdc FB18     		add	r3, r7, r3
 1689 0bde 1868     		ldr	r0, [r3]
 1690 0be0 5968     		ldr	r1, [r3, #4]
 1691 0be2 A423     		mov	r3, #164
 1692 0be4 5B00     		lsl	r3, r3, #1
 1693 0be6 FB18     		add	r3, r7, r3
 1694 0be8 1A68     		ldr	r2, [r3]
 1695 0bea 5B68     		ldr	r3, [r3, #4]
 1696 0bec FFF7FEFF 		bl	__aeabi_lmul
 1697 0bf0 031C     		mov	r3, r0
 1698 0bf2 0C1C     		mov	r4, r1
 1699 0bf4 2200     		asr	r2, r4, #0
 1700 0bf6 A021     		mov	r1, #160
 1701 0bf8 4900     		lsl	r1, r1, #1
 1702 0bfa 7918     		add	r1, r7, r1
ARM GAS  C:\Users\fneves\AppData\Local\Temp\ccD0n2wo.s 			page 40


 1703 0bfc 0A60     		str	r2, [r1]
 1704 0bfe E317     		asr	r3, r4, #31
 1705 0c00 A222     		mov	r2, #162
 1706 0c02 5200     		lsl	r2, r2, #1
 1707 0c04 BA18     		add	r2, r7, r2
 1708 0c06 1360     		str	r3, [r2]
 1709 0c08 A023     		mov	r3, #160
 1710 0c0a 5B00     		lsl	r3, r3, #1
 1711 0c0c FB18     		add	r3, r7, r3
 1712 0c0e 1B68     		ldr	r3, [r3]
 510:Source\TransformFunctions/arm_cfft_radix4_q31.c ****                             ((int32_t) (((q63_t) r2 * si3) >> 32))) << 1u;
 1713              		.loc 1 510 0 discriminator 1
 1714 0c10 F31A     		sub	r3, r6, r3
 1715              		.loc 1 511 0 discriminator 1
 1716 0c12 5B00     		lsl	r3, r3, #1
 510:Source\TransformFunctions/arm_cfft_radix4_q31.c ****                             ((int32_t) (((q63_t) r2 * si3) >> 32))) << 1u;
 1717              		.loc 1 510 0 discriminator 1
 1718 0c14 2B60     		str	r3, [r5]
 512:Source\TransformFunctions/arm_cfft_radix4_q31.c **** 
 513:Source\TransformFunctions/arm_cfft_radix4_q31.c ****     /*  Twiddle coefficients index modifier */
 514:Source\TransformFunctions/arm_cfft_radix4_q31.c ****     ia1 = ia1 + twidCoefModifier;
 1719              		.loc 1 514 0 discriminator 1
 1720 0c16 D023     		mov	r3, #208
 1721 0c18 9822     		mov	r2, #152
 1722 0c1a 9200     		lsl	r2, r2, #2
 1723 0c1c 9446     		mov	ip, r2
 1724 0c1e BC44     		add	ip, ip, r7
 1725 0c20 6344     		add	r3, r3, ip
 1726 0c22 1A68     		ldr	r2, [r3]
 1727 0c24 9823     		mov	r3, #152
 1728 0c26 9B00     		lsl	r3, r3, #2
 1729 0c28 FB18     		add	r3, r7, r3
 1730 0c2a 1B68     		ldr	r3, [r3]
 1731 0c2c D318     		add	r3, r2, r3
 1732 0c2e D022     		mov	r2, #208
 1733 0c30 9821     		mov	r1, #152
 1734 0c32 8900     		lsl	r1, r1, #2
 1735 0c34 8C46     		mov	ip, r1
 1736 0c36 BC44     		add	ip, ip, r7
 1737 0c38 6244     		add	r2, r2, ip
 1738 0c3a 1360     		str	r3, [r2]
 515:Source\TransformFunctions/arm_cfft_radix4_q31.c **** 
 516:Source\TransformFunctions/arm_cfft_radix4_q31.c ****   } while (--j);
 1739              		.loc 1 516 0 discriminator 1
 1740 0c3c C823     		mov	r3, #200
 1741 0c3e 9822     		mov	r2, #152
 1742 0c40 9200     		lsl	r2, r2, #2
 1743 0c42 9446     		mov	ip, r2
 1744 0c44 BC44     		add	ip, ip, r7
 1745 0c46 6344     		add	r3, r3, ip
 1746 0c48 1B68     		ldr	r3, [r3]
 1747 0c4a 013B     		sub	r3, r3, #1
 1748 0c4c C822     		mov	r2, #200
 1749 0c4e 9821     		mov	r1, #152
 1750 0c50 8900     		lsl	r1, r1, #2
 1751 0c52 8C46     		mov	ip, r1
 1752 0c54 BC44     		add	ip, ip, r7
ARM GAS  C:\Users\fneves\AppData\Local\Temp\ccD0n2wo.s 			page 41


 1753 0c56 6244     		add	r2, r2, ip
 1754 0c58 1360     		str	r3, [r2]
 1755 0c5a C823     		mov	r3, #200
 1756 0c5c 9822     		mov	r2, #152
 1757 0c5e 9200     		lsl	r2, r2, #2
 1758 0c60 9446     		mov	ip, r2
 1759 0c62 BC44     		add	ip, ip, r7
 1760 0c64 6344     		add	r3, r3, ip
 1761 0c66 1B68     		ldr	r3, [r3]
 1762 0c68 002B     		cmp	r3, #0
 1763 0c6a 01D0     		beq	.LCB1648
 1764 0c6c FFF76EFA 		bl	.L6	@far jump
 1765              	.LCB1648:
 517:Source\TransformFunctions/arm_cfft_radix4_q31.c **** 
 518:Source\TransformFunctions/arm_cfft_radix4_q31.c ****   /* end of first stage process */
 519:Source\TransformFunctions/arm_cfft_radix4_q31.c **** 
 520:Source\TransformFunctions/arm_cfft_radix4_q31.c ****   /* data is in 5.27(q27) format */
 521:Source\TransformFunctions/arm_cfft_radix4_q31.c **** 
 522:Source\TransformFunctions/arm_cfft_radix4_q31.c **** 
 523:Source\TransformFunctions/arm_cfft_radix4_q31.c ****   /* start of Middle stages process */
 524:Source\TransformFunctions/arm_cfft_radix4_q31.c **** 
 525:Source\TransformFunctions/arm_cfft_radix4_q31.c **** 
 526:Source\TransformFunctions/arm_cfft_radix4_q31.c ****   /* each stage in middle stages provides two down scaling of the input */
 527:Source\TransformFunctions/arm_cfft_radix4_q31.c **** 
 528:Source\TransformFunctions/arm_cfft_radix4_q31.c ****   twidCoefModifier <<= 2u;
 1766              		.loc 1 528 0
 1767 0c70 9823     		mov	r3, #152
 1768 0c72 9B00     		lsl	r3, r3, #2
 1769 0c74 FB18     		add	r3, r7, r3
 1770 0c76 1B68     		ldr	r3, [r3]
 1771 0c78 9B00     		lsl	r3, r3, #2
 1772 0c7a 9822     		mov	r2, #152
 1773 0c7c 9200     		lsl	r2, r2, #2
 1774 0c7e BA18     		add	r2, r7, r2
 1775 0c80 1360     		str	r3, [r2]
 529:Source\TransformFunctions/arm_cfft_radix4_q31.c **** 
 530:Source\TransformFunctions/arm_cfft_radix4_q31.c **** 
 531:Source\TransformFunctions/arm_cfft_radix4_q31.c ****   for (k = fftLen / 4u; k > 4u; k >>= 2u)
 1776              		.loc 1 531 0
 1777 0c82 9A23     		mov	r3, #154
 1778 0c84 9B00     		lsl	r3, r3, #2
 1779 0c86 FB18     		add	r3, r7, r3
 1780 0c88 1B68     		ldr	r3, [r3]
 1781 0c8a 9B08     		lsr	r3, r3, #2
 1782 0c8c C422     		mov	r2, #196
 1783 0c8e 9821     		mov	r1, #152
 1784 0c90 8900     		lsl	r1, r1, #2
 1785 0c92 8C46     		mov	ip, r1
 1786 0c94 BC44     		add	ip, ip, r7
 1787 0c96 6244     		add	r2, r2, ip
 1788 0c98 1360     		str	r3, [r2]
 1789 0c9a 00F0EEFD 		bl	.L7	@ far jump
 1790              	.L12:
 532:Source\TransformFunctions/arm_cfft_radix4_q31.c ****   {
 533:Source\TransformFunctions/arm_cfft_radix4_q31.c ****     /*  Initializations for the first stage */
 534:Source\TransformFunctions/arm_cfft_radix4_q31.c ****     n1 = n2;
 1791              		.loc 1 534 0
ARM GAS  C:\Users\fneves\AppData\Local\Temp\ccD0n2wo.s 			page 42


 1792 0c9e D423     		mov	r3, #212
 1793 0ca0 9822     		mov	r2, #152
 1794 0ca2 9200     		lsl	r2, r2, #2
 1795 0ca4 9446     		mov	ip, r2
 1796 0ca6 BC44     		add	ip, ip, r7
 1797 0ca8 6344     		add	r3, r3, ip
 1798 0caa 1B68     		ldr	r3, [r3]
 1799 0cac B022     		mov	r2, #176
 1800 0cae 9821     		mov	r1, #152
 1801 0cb0 8900     		lsl	r1, r1, #2
 1802 0cb2 8C46     		mov	ip, r1
 1803 0cb4 BC44     		add	ip, ip, r7
 1804 0cb6 6244     		add	r2, r2, ip
 1805 0cb8 1360     		str	r3, [r2]
 535:Source\TransformFunctions/arm_cfft_radix4_q31.c ****     n2 >>= 2u;
 1806              		.loc 1 535 0
 1807 0cba D423     		mov	r3, #212
 1808 0cbc 9822     		mov	r2, #152
 1809 0cbe 9200     		lsl	r2, r2, #2
 1810 0cc0 9446     		mov	ip, r2
 1811 0cc2 BC44     		add	ip, ip, r7
 1812 0cc4 6344     		add	r3, r3, ip
 1813 0cc6 1B68     		ldr	r3, [r3]
 1814 0cc8 9B08     		lsr	r3, r3, #2
 1815 0cca D422     		mov	r2, #212
 1816 0ccc 9821     		mov	r1, #152
 1817 0cce 8900     		lsl	r1, r1, #2
 1818 0cd0 8C46     		mov	ip, r1
 1819 0cd2 BC44     		add	ip, ip, r7
 1820 0cd4 6244     		add	r2, r2, ip
 1821 0cd6 1360     		str	r3, [r2]
 536:Source\TransformFunctions/arm_cfft_radix4_q31.c ****     ia1 = 0u;
 1822              		.loc 1 536 0
 1823 0cd8 0023     		mov	r3, #0
 1824 0cda D022     		mov	r2, #208
 1825 0cdc 9821     		mov	r1, #152
 1826 0cde 8900     		lsl	r1, r1, #2
 1827 0ce0 8C46     		mov	ip, r1
 1828 0ce2 BC44     		add	ip, ip, r7
 1829 0ce4 6244     		add	r2, r2, ip
 1830 0ce6 1360     		str	r3, [r2]
 537:Source\TransformFunctions/arm_cfft_radix4_q31.c **** 
 538:Source\TransformFunctions/arm_cfft_radix4_q31.c ****     /*  Calculation of first stage */
 539:Source\TransformFunctions/arm_cfft_radix4_q31.c ****     for (j = 0u; j <= (n2 - 1u); j++)
 1831              		.loc 1 539 0
 1832 0ce8 0023     		mov	r3, #0
 1833 0cea C822     		mov	r2, #200
 1834 0cec 9821     		mov	r1, #152
 1835 0cee 8900     		lsl	r1, r1, #2
 1836 0cf0 8C46     		mov	ip, r1
 1837 0cf2 BC44     		add	ip, ip, r7
 1838 0cf4 6244     		add	r2, r2, ip
 1839 0cf6 1360     		str	r3, [r2]
 1840 0cf8 00F094FD 		bl	.L8	@ far jump
 1841              	.L11:
 540:Source\TransformFunctions/arm_cfft_radix4_q31.c ****     {
 541:Source\TransformFunctions/arm_cfft_radix4_q31.c ****       /*  index calculation for the coefficients */
ARM GAS  C:\Users\fneves\AppData\Local\Temp\ccD0n2wo.s 			page 43


 542:Source\TransformFunctions/arm_cfft_radix4_q31.c ****       ia2 = ia1 + ia1;
 1842              		.loc 1 542 0
 1843 0cfc D023     		mov	r3, #208
 1844 0cfe 9822     		mov	r2, #152
 1845 0d00 9200     		lsl	r2, r2, #2
 1846 0d02 9446     		mov	ip, r2
 1847 0d04 BC44     		add	ip, ip, r7
 1848 0d06 6344     		add	r3, r3, ip
 1849 0d08 1A68     		ldr	r2, [r3]
 1850 0d0a D023     		mov	r3, #208
 1851 0d0c 9821     		mov	r1, #152
 1852 0d0e 8900     		lsl	r1, r1, #2
 1853 0d10 8C46     		mov	ip, r1
 1854 0d12 BC44     		add	ip, ip, r7
 1855 0d14 6344     		add	r3, r3, ip
 1856 0d16 1B68     		ldr	r3, [r3]
 1857 0d18 D318     		add	r3, r2, r3
 1858 0d1a 9422     		mov	r2, #148
 1859 0d1c 9821     		mov	r1, #152
 1860 0d1e 8900     		lsl	r1, r1, #2
 1861 0d20 8C46     		mov	ip, r1
 1862 0d22 BC44     		add	ip, ip, r7
 1863 0d24 6244     		add	r2, r2, ip
 1864 0d26 1360     		str	r3, [r2]
 543:Source\TransformFunctions/arm_cfft_radix4_q31.c ****       ia3 = ia2 + ia1;
 1865              		.loc 1 543 0
 1866 0d28 9423     		mov	r3, #148
 1867 0d2a 9822     		mov	r2, #152
 1868 0d2c 9200     		lsl	r2, r2, #2
 1869 0d2e 9446     		mov	ip, r2
 1870 0d30 BC44     		add	ip, ip, r7
 1871 0d32 6344     		add	r3, r3, ip
 1872 0d34 1A68     		ldr	r2, [r3]
 1873 0d36 D023     		mov	r3, #208
 1874 0d38 9821     		mov	r1, #152
 1875 0d3a 8900     		lsl	r1, r1, #2
 1876 0d3c 8C46     		mov	ip, r1
 1877 0d3e BC44     		add	ip, ip, r7
 1878 0d40 6344     		add	r3, r3, ip
 1879 0d42 1B68     		ldr	r3, [r3]
 1880 0d44 D318     		add	r3, r2, r3
 1881 0d46 8022     		mov	r2, #128
 1882 0d48 9821     		mov	r1, #152
 1883 0d4a 8900     		lsl	r1, r1, #2
 1884 0d4c 8C46     		mov	ip, r1
 1885 0d4e BC44     		add	ip, ip, r7
 1886 0d50 6244     		add	r2, r2, ip
 1887 0d52 1360     		str	r3, [r2]
 544:Source\TransformFunctions/arm_cfft_radix4_q31.c ****       co1 = pCoef[ia1 * 2u];
 1888              		.loc 1 544 0
 1889 0d54 D023     		mov	r3, #208
 1890 0d56 9822     		mov	r2, #152
 1891 0d58 9200     		lsl	r2, r2, #2
 1892 0d5a 9446     		mov	ip, r2
 1893 0d5c BC44     		add	ip, ip, r7
 1894 0d5e 6344     		add	r3, r3, ip
 1895 0d60 1B68     		ldr	r3, [r3]
ARM GAS  C:\Users\fneves\AppData\Local\Temp\ccD0n2wo.s 			page 44


 1896 0d62 DA00     		lsl	r2, r3, #3
 1897 0d64 9923     		mov	r3, #153
 1898 0d66 9B00     		lsl	r3, r3, #2
 1899 0d68 FB18     		add	r3, r7, r3
 1900 0d6a 1B68     		ldr	r3, [r3]
 1901 0d6c 9B18     		add	r3, r3, r2
 1902 0d6e 1B68     		ldr	r3, [r3]
 1903 0d70 8822     		mov	r2, #136
 1904 0d72 9821     		mov	r1, #152
 1905 0d74 8900     		lsl	r1, r1, #2
 1906 0d76 8C46     		mov	ip, r1
 1907 0d78 BC44     		add	ip, ip, r7
 1908 0d7a 6244     		add	r2, r2, ip
 1909 0d7c 1360     		str	r3, [r2]
 545:Source\TransformFunctions/arm_cfft_radix4_q31.c ****       si1 = pCoef[(ia1 * 2u) + 1u];
 1910              		.loc 1 545 0
 1911 0d7e D023     		mov	r3, #208
 1912 0d80 9822     		mov	r2, #152
 1913 0d82 9200     		lsl	r2, r2, #2
 1914 0d84 9446     		mov	ip, r2
 1915 0d86 BC44     		add	ip, ip, r7
 1916 0d88 6344     		add	r3, r3, ip
 1917 0d8a 1B68     		ldr	r3, [r3]
 1918 0d8c DB00     		lsl	r3, r3, #3
 1919 0d8e 1A1D     		add	r2, r3, #4
 1920 0d90 9923     		mov	r3, #153
 1921 0d92 9B00     		lsl	r3, r3, #2
 1922 0d94 FB18     		add	r3, r7, r3
 1923 0d96 1B68     		ldr	r3, [r3]
 1924 0d98 9B18     		add	r3, r3, r2
 1925 0d9a 1B68     		ldr	r3, [r3]
 1926 0d9c 8422     		mov	r2, #132
 1927 0d9e 9821     		mov	r1, #152
 1928 0da0 8900     		lsl	r1, r1, #2
 1929 0da2 8C46     		mov	ip, r1
 1930 0da4 BC44     		add	ip, ip, r7
 1931 0da6 6244     		add	r2, r2, ip
 1932 0da8 1360     		str	r3, [r2]
 546:Source\TransformFunctions/arm_cfft_radix4_q31.c ****       co2 = pCoef[ia2 * 2u];
 1933              		.loc 1 546 0
 1934 0daa 9423     		mov	r3, #148
 1935 0dac 9822     		mov	r2, #152
 1936 0dae 9200     		lsl	r2, r2, #2
 1937 0db0 9446     		mov	ip, r2
 1938 0db2 BC44     		add	ip, ip, r7
 1939 0db4 6344     		add	r3, r3, ip
 1940 0db6 1B68     		ldr	r3, [r3]
 1941 0db8 DA00     		lsl	r2, r3, #3
 1942 0dba 9923     		mov	r3, #153
 1943 0dbc 9B00     		lsl	r3, r3, #2
 1944 0dbe FB18     		add	r3, r7, r3
 1945 0dc0 1B68     		ldr	r3, [r3]
 1946 0dc2 9B18     		add	r3, r3, r2
 1947 0dc4 1B68     		ldr	r3, [r3]
 1948 0dc6 9022     		mov	r2, #144
 1949 0dc8 9821     		mov	r1, #152
 1950 0dca 8900     		lsl	r1, r1, #2
ARM GAS  C:\Users\fneves\AppData\Local\Temp\ccD0n2wo.s 			page 45


 1951 0dcc 8C46     		mov	ip, r1
 1952 0dce BC44     		add	ip, ip, r7
 1953 0dd0 6244     		add	r2, r2, ip
 1954 0dd2 1360     		str	r3, [r2]
 547:Source\TransformFunctions/arm_cfft_radix4_q31.c ****       si2 = pCoef[(ia2 * 2u) + 1u];
 1955              		.loc 1 547 0
 1956 0dd4 9423     		mov	r3, #148
 1957 0dd6 9822     		mov	r2, #152
 1958 0dd8 9200     		lsl	r2, r2, #2
 1959 0dda 9446     		mov	ip, r2
 1960 0ddc BC44     		add	ip, ip, r7
 1961 0dde 6344     		add	r3, r3, ip
 1962 0de0 1B68     		ldr	r3, [r3]
 1963 0de2 DB00     		lsl	r3, r3, #3
 1964 0de4 1A1D     		add	r2, r3, #4
 1965 0de6 9923     		mov	r3, #153
 1966 0de8 9B00     		lsl	r3, r3, #2
 1967 0dea FB18     		add	r3, r7, r3
 1968 0dec 1B68     		ldr	r3, [r3]
 1969 0dee 9B18     		add	r3, r3, r2
 1970 0df0 1B68     		ldr	r3, [r3]
 1971 0df2 8C22     		mov	r2, #140
 1972 0df4 9821     		mov	r1, #152
 1973 0df6 8900     		lsl	r1, r1, #2
 1974 0df8 8C46     		mov	ip, r1
 1975 0dfa BC44     		add	ip, ip, r7
 1976 0dfc 6244     		add	r2, r2, ip
 1977 0dfe 1360     		str	r3, [r2]
 548:Source\TransformFunctions/arm_cfft_radix4_q31.c ****       co3 = pCoef[ia3 * 2u];
 1978              		.loc 1 548 0
 1979 0e00 8023     		mov	r3, #128
 1980 0e02 9822     		mov	r2, #152
 1981 0e04 9200     		lsl	r2, r2, #2
 1982 0e06 9446     		mov	ip, r2
 1983 0e08 BC44     		add	ip, ip, r7
 1984 0e0a 6344     		add	r3, r3, ip
 1985 0e0c 1B68     		ldr	r3, [r3]
 1986 0e0e DA00     		lsl	r2, r3, #3
 1987 0e10 9923     		mov	r3, #153
 1988 0e12 9B00     		lsl	r3, r3, #2
 1989 0e14 FB18     		add	r3, r7, r3
 1990 0e16 1B68     		ldr	r3, [r3]
 1991 0e18 9B18     		add	r3, r3, r2
 1992 0e1a 1B68     		ldr	r3, [r3]
 1993 0e1c B722     		mov	r2, #183
 1994 0e1e 9200     		lsl	r2, r2, #2
 1995 0e20 BA18     		add	r2, r7, r2
 1996 0e22 1360     		str	r3, [r2]
 549:Source\TransformFunctions/arm_cfft_radix4_q31.c ****       si3 = pCoef[(ia3 * 2u) + 1u];
 1997              		.loc 1 549 0
 1998 0e24 8023     		mov	r3, #128
 1999 0e26 9822     		mov	r2, #152
 2000 0e28 9200     		lsl	r2, r2, #2
 2001 0e2a 9446     		mov	ip, r2
 2002 0e2c BC44     		add	ip, ip, r7
 2003 0e2e 6344     		add	r3, r3, ip
 2004 0e30 1B68     		ldr	r3, [r3]
ARM GAS  C:\Users\fneves\AppData\Local\Temp\ccD0n2wo.s 			page 46


 2005 0e32 DB00     		lsl	r3, r3, #3
 2006 0e34 1A1D     		add	r2, r3, #4
 2007 0e36 9923     		mov	r3, #153
 2008 0e38 9B00     		lsl	r3, r3, #2
 2009 0e3a FB18     		add	r3, r7, r3
 2010 0e3c 1B68     		ldr	r3, [r3]
 2011 0e3e 9B18     		add	r3, r3, r2
 2012 0e40 1B68     		ldr	r3, [r3]
 2013 0e42 B622     		mov	r2, #182
 2014 0e44 9200     		lsl	r2, r2, #2
 2015 0e46 BA18     		add	r2, r7, r2
 2016 0e48 1360     		str	r3, [r2]
 550:Source\TransformFunctions/arm_cfft_radix4_q31.c ****       /*  Twiddle coefficients index modifier */
 551:Source\TransformFunctions/arm_cfft_radix4_q31.c ****       ia1 = ia1 + twidCoefModifier;
 2017              		.loc 1 551 0
 2018 0e4a D023     		mov	r3, #208
 2019 0e4c 9822     		mov	r2, #152
 2020 0e4e 9200     		lsl	r2, r2, #2
 2021 0e50 9446     		mov	ip, r2
 2022 0e52 BC44     		add	ip, ip, r7
 2023 0e54 6344     		add	r3, r3, ip
 2024 0e56 1A68     		ldr	r2, [r3]
 2025 0e58 9823     		mov	r3, #152
 2026 0e5a 9B00     		lsl	r3, r3, #2
 2027 0e5c FB18     		add	r3, r7, r3
 2028 0e5e 1B68     		ldr	r3, [r3]
 2029 0e60 D318     		add	r3, r2, r3
 2030 0e62 D022     		mov	r2, #208
 2031 0e64 9821     		mov	r1, #152
 2032 0e66 8900     		lsl	r1, r1, #2
 2033 0e68 8C46     		mov	ip, r1
 2034 0e6a BC44     		add	ip, ip, r7
 2035 0e6c 6244     		add	r2, r2, ip
 2036 0e6e 1360     		str	r3, [r2]
 552:Source\TransformFunctions/arm_cfft_radix4_q31.c **** 
 553:Source\TransformFunctions/arm_cfft_radix4_q31.c ****       pSi0 = pSrc + 2 * j;
 2037              		.loc 1 553 0
 2038 0e70 C823     		mov	r3, #200
 2039 0e72 9822     		mov	r2, #152
 2040 0e74 9200     		lsl	r2, r2, #2
 2041 0e76 9446     		mov	ip, r2
 2042 0e78 BC44     		add	ip, ip, r7
 2043 0e7a 6344     		add	r3, r3, ip
 2044 0e7c 1B68     		ldr	r3, [r3]
 2045 0e7e DA00     		lsl	r2, r3, #3
 2046 0e80 9B23     		mov	r3, #155
 2047 0e82 9B00     		lsl	r3, r3, #2
 2048 0e84 FB18     		add	r3, r7, r3
 2049 0e86 1B68     		ldr	r3, [r3]
 2050 0e88 9B18     		add	r3, r3, r2
 2051 0e8a C022     		mov	r2, #192
 2052 0e8c 9821     		mov	r1, #152
 2053 0e8e 8900     		lsl	r1, r1, #2
 2054 0e90 8C46     		mov	ip, r1
 2055 0e92 BC44     		add	ip, ip, r7
 2056 0e94 6244     		add	r2, r2, ip
 2057 0e96 1360     		str	r3, [r2]
ARM GAS  C:\Users\fneves\AppData\Local\Temp\ccD0n2wo.s 			page 47


 554:Source\TransformFunctions/arm_cfft_radix4_q31.c ****       pSi1 = pSi0 + 2 * n2;
 2058              		.loc 1 554 0
 2059 0e98 D423     		mov	r3, #212
 2060 0e9a 9822     		mov	r2, #152
 2061 0e9c 9200     		lsl	r2, r2, #2
 2062 0e9e 9446     		mov	ip, r2
 2063 0ea0 BC44     		add	ip, ip, r7
 2064 0ea2 6344     		add	r3, r3, ip
 2065 0ea4 1B68     		ldr	r3, [r3]
 2066 0ea6 DA00     		lsl	r2, r3, #3
 2067 0ea8 C023     		mov	r3, #192
 2068 0eaa 9821     		mov	r1, #152
 2069 0eac 8900     		lsl	r1, r1, #2
 2070 0eae 8C46     		mov	ip, r1
 2071 0eb0 BC44     		add	ip, ip, r7
 2072 0eb2 6344     		add	r3, r3, ip
 2073 0eb4 1B68     		ldr	r3, [r3]
 2074 0eb6 9B18     		add	r3, r3, r2
 2075 0eb8 BC22     		mov	r2, #188
 2076 0eba 9821     		mov	r1, #152
 2077 0ebc 8900     		lsl	r1, r1, #2
 2078 0ebe 8C46     		mov	ip, r1
 2079 0ec0 BC44     		add	ip, ip, r7
 2080 0ec2 6244     		add	r2, r2, ip
 2081 0ec4 1360     		str	r3, [r2]
 555:Source\TransformFunctions/arm_cfft_radix4_q31.c ****       pSi2 = pSi1 + 2 * n2;
 2082              		.loc 1 555 0
 2083 0ec6 D423     		mov	r3, #212
 2084 0ec8 9822     		mov	r2, #152
 2085 0eca 9200     		lsl	r2, r2, #2
 2086 0ecc 9446     		mov	ip, r2
 2087 0ece BC44     		add	ip, ip, r7
 2088 0ed0 6344     		add	r3, r3, ip
 2089 0ed2 1B68     		ldr	r3, [r3]
 2090 0ed4 DA00     		lsl	r2, r3, #3
 2091 0ed6 BC23     		mov	r3, #188
 2092 0ed8 9821     		mov	r1, #152
 2093 0eda 8900     		lsl	r1, r1, #2
 2094 0edc 8C46     		mov	ip, r1
 2095 0ede BC44     		add	ip, ip, r7
 2096 0ee0 6344     		add	r3, r3, ip
 2097 0ee2 1B68     		ldr	r3, [r3]
 2098 0ee4 9B18     		add	r3, r3, r2
 2099 0ee6 B822     		mov	r2, #184
 2100 0ee8 9821     		mov	r1, #152
 2101 0eea 8900     		lsl	r1, r1, #2
 2102 0eec 8C46     		mov	ip, r1
 2103 0eee BC44     		add	ip, ip, r7
 2104 0ef0 6244     		add	r2, r2, ip
 2105 0ef2 1360     		str	r3, [r2]
 556:Source\TransformFunctions/arm_cfft_radix4_q31.c ****       pSi3 = pSi2 + 2 * n2;
 2106              		.loc 1 556 0
 2107 0ef4 D423     		mov	r3, #212
 2108 0ef6 9822     		mov	r2, #152
 2109 0ef8 9200     		lsl	r2, r2, #2
 2110 0efa 9446     		mov	ip, r2
 2111 0efc BC44     		add	ip, ip, r7
ARM GAS  C:\Users\fneves\AppData\Local\Temp\ccD0n2wo.s 			page 48


 2112 0efe 6344     		add	r3, r3, ip
 2113 0f00 1B68     		ldr	r3, [r3]
 2114 0f02 DA00     		lsl	r2, r3, #3
 2115 0f04 B823     		mov	r3, #184
 2116 0f06 9821     		mov	r1, #152
 2117 0f08 8900     		lsl	r1, r1, #2
 2118 0f0a 8C46     		mov	ip, r1
 2119 0f0c BC44     		add	ip, ip, r7
 2120 0f0e 6344     		add	r3, r3, ip
 2121 0f10 1B68     		ldr	r3, [r3]
 2122 0f12 9B18     		add	r3, r3, r2
 2123 0f14 B422     		mov	r2, #180
 2124 0f16 9821     		mov	r1, #152
 2125 0f18 8900     		lsl	r1, r1, #2
 2126 0f1a 8C46     		mov	ip, r1
 2127 0f1c BC44     		add	ip, ip, r7
 2128 0f1e 6244     		add	r2, r2, ip
 2129 0f20 1360     		str	r3, [r2]
 557:Source\TransformFunctions/arm_cfft_radix4_q31.c **** 
 558:Source\TransformFunctions/arm_cfft_radix4_q31.c ****       for (i0 = j; i0 < fftLen; i0 += n1)
 2130              		.loc 1 558 0
 2131 0f22 C823     		mov	r3, #200
 2132 0f24 9822     		mov	r2, #152
 2133 0f26 9200     		lsl	r2, r2, #2
 2134 0f28 9446     		mov	ip, r2
 2135 0f2a BC44     		add	ip, ip, r7
 2136 0f2c 6344     		add	r3, r3, ip
 2137 0f2e 1B68     		ldr	r3, [r3]
 2138 0f30 CC22     		mov	r2, #204
 2139 0f32 9821     		mov	r1, #152
 2140 0f34 8900     		lsl	r1, r1, #2
 2141 0f36 8C46     		mov	ip, r1
 2142 0f38 BC44     		add	ip, ip, r7
 2143 0f3a 6244     		add	r2, r2, ip
 2144 0f3c 1360     		str	r3, [r2]
 2145 0f3e 00F053FC 		bl	.L9	@ far jump
 2146              	.L10:
 559:Source\TransformFunctions/arm_cfft_radix4_q31.c ****       {
 560:Source\TransformFunctions/arm_cfft_radix4_q31.c ****         /*  Butterfly implementation */
 561:Source\TransformFunctions/arm_cfft_radix4_q31.c ****         /* xa + xc */
 562:Source\TransformFunctions/arm_cfft_radix4_q31.c ****         r1 = pSi0[0] + pSi2[0];
 2147              		.loc 1 562 0 discriminator 3
 2148 0f42 C023     		mov	r3, #192
 2149 0f44 9822     		mov	r2, #152
 2150 0f46 9200     		lsl	r2, r2, #2
 2151 0f48 9446     		mov	ip, r2
 2152 0f4a BC44     		add	ip, ip, r7
 2153 0f4c 6344     		add	r3, r3, ip
 2154 0f4e 1B68     		ldr	r3, [r3]
 2155 0f50 1A68     		ldr	r2, [r3]
 2156 0f52 B823     		mov	r3, #184
 2157 0f54 9821     		mov	r1, #152
 2158 0f56 8900     		lsl	r1, r1, #2
 2159 0f58 8C46     		mov	ip, r1
 2160 0f5a BC44     		add	ip, ip, r7
 2161 0f5c 6344     		add	r3, r3, ip
 2162 0f5e 1B68     		ldr	r3, [r3]
ARM GAS  C:\Users\fneves\AppData\Local\Temp\ccD0n2wo.s 			page 49


 2163 0f60 1B68     		ldr	r3, [r3]
 2164 0f62 D318     		add	r3, r2, r3
 2165 0f64 AC22     		mov	r2, #172
 2166 0f66 9821     		mov	r1, #152
 2167 0f68 8900     		lsl	r1, r1, #2
 2168 0f6a 8C46     		mov	ip, r1
 2169 0f6c BC44     		add	ip, ip, r7
 2170 0f6e 6244     		add	r2, r2, ip
 2171 0f70 1360     		str	r3, [r2]
 563:Source\TransformFunctions/arm_cfft_radix4_q31.c **** 
 564:Source\TransformFunctions/arm_cfft_radix4_q31.c ****         /* xa - xc */
 565:Source\TransformFunctions/arm_cfft_radix4_q31.c ****         r2 = pSi0[0] - pSi2[0];
 2172              		.loc 1 565 0 discriminator 3
 2173 0f72 C023     		mov	r3, #192
 2174 0f74 9822     		mov	r2, #152
 2175 0f76 9200     		lsl	r2, r2, #2
 2176 0f78 9446     		mov	ip, r2
 2177 0f7a BC44     		add	ip, ip, r7
 2178 0f7c 6344     		add	r3, r3, ip
 2179 0f7e 1B68     		ldr	r3, [r3]
 2180 0f80 1A68     		ldr	r2, [r3]
 2181 0f82 B823     		mov	r3, #184
 2182 0f84 9821     		mov	r1, #152
 2183 0f86 8900     		lsl	r1, r1, #2
 2184 0f88 8C46     		mov	ip, r1
 2185 0f8a BC44     		add	ip, ip, r7
 2186 0f8c 6344     		add	r3, r3, ip
 2187 0f8e 1B68     		ldr	r3, [r3]
 2188 0f90 1B68     		ldr	r3, [r3]
 2189 0f92 D31A     		sub	r3, r2, r3
 2190 0f94 A822     		mov	r2, #168
 2191 0f96 9821     		mov	r1, #152
 2192 0f98 8900     		lsl	r1, r1, #2
 2193 0f9a 8C46     		mov	ip, r1
 2194 0f9c BC44     		add	ip, ip, r7
 2195 0f9e 6244     		add	r2, r2, ip
 2196 0fa0 1360     		str	r3, [r2]
 566:Source\TransformFunctions/arm_cfft_radix4_q31.c **** 
 567:Source\TransformFunctions/arm_cfft_radix4_q31.c **** 
 568:Source\TransformFunctions/arm_cfft_radix4_q31.c ****         /* ya + yc */
 569:Source\TransformFunctions/arm_cfft_radix4_q31.c ****         s1 = pSi0[1] + pSi2[1];
 2197              		.loc 1 569 0 discriminator 3
 2198 0fa2 C023     		mov	r3, #192
 2199 0fa4 9822     		mov	r2, #152
 2200 0fa6 9200     		lsl	r2, r2, #2
 2201 0fa8 9446     		mov	ip, r2
 2202 0faa BC44     		add	ip, ip, r7
 2203 0fac 6344     		add	r3, r3, ip
 2204 0fae 1B68     		ldr	r3, [r3]
 2205 0fb0 0433     		add	r3, r3, #4
 2206 0fb2 1A68     		ldr	r2, [r3]
 2207 0fb4 B823     		mov	r3, #184
 2208 0fb6 9821     		mov	r1, #152
 2209 0fb8 8900     		lsl	r1, r1, #2
 2210 0fba 8C46     		mov	ip, r1
 2211 0fbc BC44     		add	ip, ip, r7
 2212 0fbe 6344     		add	r3, r3, ip
ARM GAS  C:\Users\fneves\AppData\Local\Temp\ccD0n2wo.s 			page 50


 2213 0fc0 1B68     		ldr	r3, [r3]
 2214 0fc2 0433     		add	r3, r3, #4
 2215 0fc4 1B68     		ldr	r3, [r3]
 2216 0fc6 D318     		add	r3, r2, r3
 2217 0fc8 A022     		mov	r2, #160
 2218 0fca 9821     		mov	r1, #152
 2219 0fcc 8900     		lsl	r1, r1, #2
 2220 0fce 8C46     		mov	ip, r1
 2221 0fd0 BC44     		add	ip, ip, r7
 2222 0fd2 6244     		add	r2, r2, ip
 2223 0fd4 1360     		str	r3, [r2]
 570:Source\TransformFunctions/arm_cfft_radix4_q31.c **** 
 571:Source\TransformFunctions/arm_cfft_radix4_q31.c ****         /* ya - yc */
 572:Source\TransformFunctions/arm_cfft_radix4_q31.c ****         s2 = pSi0[1] - pSi2[1];
 2224              		.loc 1 572 0 discriminator 3
 2225 0fd6 C023     		mov	r3, #192
 2226 0fd8 9822     		mov	r2, #152
 2227 0fda 9200     		lsl	r2, r2, #2
 2228 0fdc 9446     		mov	ip, r2
 2229 0fde BC44     		add	ip, ip, r7
 2230 0fe0 6344     		add	r3, r3, ip
 2231 0fe2 1B68     		ldr	r3, [r3]
 2232 0fe4 0433     		add	r3, r3, #4
 2233 0fe6 1A68     		ldr	r2, [r3]
 2234 0fe8 B823     		mov	r3, #184
 2235 0fea 9821     		mov	r1, #152
 2236 0fec 8900     		lsl	r1, r1, #2
 2237 0fee 8C46     		mov	ip, r1
 2238 0ff0 BC44     		add	ip, ip, r7
 2239 0ff2 6344     		add	r3, r3, ip
 2240 0ff4 1B68     		ldr	r3, [r3]
 2241 0ff6 0433     		add	r3, r3, #4
 2242 0ff8 1B68     		ldr	r3, [r3]
 2243 0ffa D31A     		sub	r3, r2, r3
 2244 0ffc 9C22     		mov	r2, #156
 2245 0ffe 9821     		mov	r1, #152
 2246 1000 8900     		lsl	r1, r1, #2
 2247 1002 8C46     		mov	ip, r1
 2248 1004 BC44     		add	ip, ip, r7
 2249 1006 6244     		add	r2, r2, ip
 2250 1008 1360     		str	r3, [r2]
 573:Source\TransformFunctions/arm_cfft_radix4_q31.c **** 
 574:Source\TransformFunctions/arm_cfft_radix4_q31.c **** 
 575:Source\TransformFunctions/arm_cfft_radix4_q31.c ****         /* xb + xd */
 576:Source\TransformFunctions/arm_cfft_radix4_q31.c ****         t1 = pSi1[0] + pSi3[0];
 2251              		.loc 1 576 0 discriminator 3
 2252 100a BC23     		mov	r3, #188
 2253 100c 9822     		mov	r2, #152
 2254 100e 9200     		lsl	r2, r2, #2
 2255 1010 9446     		mov	ip, r2
 2256 1012 BC44     		add	ip, ip, r7
 2257 1014 6344     		add	r3, r3, ip
 2258 1016 1B68     		ldr	r3, [r3]
 2259 1018 1A68     		ldr	r2, [r3]
 2260 101a B423     		mov	r3, #180
 2261 101c 9821     		mov	r1, #152
 2262 101e 8900     		lsl	r1, r1, #2
ARM GAS  C:\Users\fneves\AppData\Local\Temp\ccD0n2wo.s 			page 51


 2263 1020 8C46     		mov	ip, r1
 2264 1022 BC44     		add	ip, ip, r7
 2265 1024 6344     		add	r3, r3, ip
 2266 1026 1B68     		ldr	r3, [r3]
 2267 1028 1B68     		ldr	r3, [r3]
 2268 102a D318     		add	r3, r2, r3
 2269 102c A422     		mov	r2, #164
 2270 102e 9821     		mov	r1, #152
 2271 1030 8900     		lsl	r1, r1, #2
 2272 1032 8C46     		mov	ip, r1
 2273 1034 BC44     		add	ip, ip, r7
 2274 1036 6244     		add	r2, r2, ip
 2275 1038 1360     		str	r3, [r2]
 577:Source\TransformFunctions/arm_cfft_radix4_q31.c **** 
 578:Source\TransformFunctions/arm_cfft_radix4_q31.c **** 
 579:Source\TransformFunctions/arm_cfft_radix4_q31.c ****         /* xa' = xa + xb + xc + xd */
 580:Source\TransformFunctions/arm_cfft_radix4_q31.c ****         pSi0[0] = (r1 + t1) >> 2u;
 2276              		.loc 1 580 0 discriminator 3
 2277 103a AC23     		mov	r3, #172
 2278 103c 9822     		mov	r2, #152
 2279 103e 9200     		lsl	r2, r2, #2
 2280 1040 9446     		mov	ip, r2
 2281 1042 BC44     		add	ip, ip, r7
 2282 1044 6344     		add	r3, r3, ip
 2283 1046 1A68     		ldr	r2, [r3]
 2284 1048 A423     		mov	r3, #164
 2285 104a 9821     		mov	r1, #152
 2286 104c 8900     		lsl	r1, r1, #2
 2287 104e 8C46     		mov	ip, r1
 2288 1050 BC44     		add	ip, ip, r7
 2289 1052 6344     		add	r3, r3, ip
 2290 1054 1B68     		ldr	r3, [r3]
 2291 1056 D318     		add	r3, r2, r3
 2292 1058 9A10     		asr	r2, r3, #2
 2293 105a C023     		mov	r3, #192
 2294 105c 9821     		mov	r1, #152
 2295 105e 8900     		lsl	r1, r1, #2
 2296 1060 8C46     		mov	ip, r1
 2297 1062 BC44     		add	ip, ip, r7
 2298 1064 6344     		add	r3, r3, ip
 2299 1066 1B68     		ldr	r3, [r3]
 2300 1068 1A60     		str	r2, [r3]
 581:Source\TransformFunctions/arm_cfft_radix4_q31.c ****         /* xa + xc -(xb + xd) */
 582:Source\TransformFunctions/arm_cfft_radix4_q31.c ****         r1 = r1 - t1;
 2301              		.loc 1 582 0 discriminator 3
 2302 106a AC23     		mov	r3, #172
 2303 106c 9822     		mov	r2, #152
 2304 106e 9200     		lsl	r2, r2, #2
 2305 1070 9446     		mov	ip, r2
 2306 1072 BC44     		add	ip, ip, r7
 2307 1074 6344     		add	r3, r3, ip
 2308 1076 1A68     		ldr	r2, [r3]
 2309 1078 A423     		mov	r3, #164
 2310 107a 9821     		mov	r1, #152
 2311 107c 8900     		lsl	r1, r1, #2
 2312 107e 8C46     		mov	ip, r1
 2313 1080 BC44     		add	ip, ip, r7
ARM GAS  C:\Users\fneves\AppData\Local\Temp\ccD0n2wo.s 			page 52


 2314 1082 6344     		add	r3, r3, ip
 2315 1084 1B68     		ldr	r3, [r3]
 2316 1086 D31A     		sub	r3, r2, r3
 2317 1088 AC22     		mov	r2, #172
 2318 108a 9821     		mov	r1, #152
 2319 108c 8900     		lsl	r1, r1, #2
 2320 108e 8C46     		mov	ip, r1
 2321 1090 BC44     		add	ip, ip, r7
 2322 1092 6244     		add	r2, r2, ip
 2323 1094 1360     		str	r3, [r2]
 583:Source\TransformFunctions/arm_cfft_radix4_q31.c **** 
 584:Source\TransformFunctions/arm_cfft_radix4_q31.c ****         /* yb + yd */
 585:Source\TransformFunctions/arm_cfft_radix4_q31.c ****         t2 = pSi1[1] + pSi3[1];
 2324              		.loc 1 585 0 discriminator 3
 2325 1096 BC23     		mov	r3, #188
 2326 1098 9822     		mov	r2, #152
 2327 109a 9200     		lsl	r2, r2, #2
 2328 109c 9446     		mov	ip, r2
 2329 109e BC44     		add	ip, ip, r7
 2330 10a0 6344     		add	r3, r3, ip
 2331 10a2 1B68     		ldr	r3, [r3]
 2332 10a4 0433     		add	r3, r3, #4
 2333 10a6 1A68     		ldr	r2, [r3]
 2334 10a8 B423     		mov	r3, #180
 2335 10aa 9821     		mov	r1, #152
 2336 10ac 8900     		lsl	r1, r1, #2
 2337 10ae 8C46     		mov	ip, r1
 2338 10b0 BC44     		add	ip, ip, r7
 2339 10b2 6344     		add	r3, r3, ip
 2340 10b4 1B68     		ldr	r3, [r3]
 2341 10b6 0433     		add	r3, r3, #4
 2342 10b8 1B68     		ldr	r3, [r3]
 2343 10ba D318     		add	r3, r2, r3
 2344 10bc 9822     		mov	r2, #152
 2345 10be 9821     		mov	r1, #152
 2346 10c0 8900     		lsl	r1, r1, #2
 2347 10c2 8C46     		mov	ip, r1
 2348 10c4 BC44     		add	ip, ip, r7
 2349 10c6 6244     		add	r2, r2, ip
 2350 10c8 1360     		str	r3, [r2]
 586:Source\TransformFunctions/arm_cfft_radix4_q31.c **** 
 587:Source\TransformFunctions/arm_cfft_radix4_q31.c ****         /* ya' = ya + yb + yc + yd */
 588:Source\TransformFunctions/arm_cfft_radix4_q31.c ****         pSi0[1] = (s1 + t2) >> 2u;
 2351              		.loc 1 588 0 discriminator 3
 2352 10ca C023     		mov	r3, #192
 2353 10cc 9822     		mov	r2, #152
 2354 10ce 9200     		lsl	r2, r2, #2
 2355 10d0 9446     		mov	ip, r2
 2356 10d2 BC44     		add	ip, ip, r7
 2357 10d4 6344     		add	r3, r3, ip
 2358 10d6 1B68     		ldr	r3, [r3]
 2359 10d8 191D     		add	r1, r3, #4
 2360 10da A023     		mov	r3, #160
 2361 10dc 9822     		mov	r2, #152
 2362 10de 9200     		lsl	r2, r2, #2
 2363 10e0 9446     		mov	ip, r2
 2364 10e2 BC44     		add	ip, ip, r7
ARM GAS  C:\Users\fneves\AppData\Local\Temp\ccD0n2wo.s 			page 53


 2365 10e4 6344     		add	r3, r3, ip
 2366 10e6 1A68     		ldr	r2, [r3]
 2367 10e8 9823     		mov	r3, #152
 2368 10ea 9820     		mov	r0, #152
 2369 10ec 8000     		lsl	r0, r0, #2
 2370 10ee 8446     		mov	ip, r0
 2371 10f0 BC44     		add	ip, ip, r7
 2372 10f2 6344     		add	r3, r3, ip
 2373 10f4 1B68     		ldr	r3, [r3]
 2374 10f6 D318     		add	r3, r2, r3
 2375 10f8 9B10     		asr	r3, r3, #2
 2376 10fa 0B60     		str	r3, [r1]
 589:Source\TransformFunctions/arm_cfft_radix4_q31.c ****         pSi0 += 2 * n1;
 2377              		.loc 1 589 0 discriminator 3
 2378 10fc B023     		mov	r3, #176
 2379 10fe 9822     		mov	r2, #152
 2380 1100 9200     		lsl	r2, r2, #2
 2381 1102 9446     		mov	ip, r2
 2382 1104 BC44     		add	ip, ip, r7
 2383 1106 6344     		add	r3, r3, ip
 2384 1108 1B68     		ldr	r3, [r3]
 2385 110a DA00     		lsl	r2, r3, #3
 2386 110c C023     		mov	r3, #192
 2387 110e 9821     		mov	r1, #152
 2388 1110 8900     		lsl	r1, r1, #2
 2389 1112 8C46     		mov	ip, r1
 2390 1114 BC44     		add	ip, ip, r7
 2391 1116 6344     		add	r3, r3, ip
 2392 1118 1B68     		ldr	r3, [r3]
 2393 111a 9B18     		add	r3, r3, r2
 2394 111c C022     		mov	r2, #192
 2395 111e 9821     		mov	r1, #152
 2396 1120 8900     		lsl	r1, r1, #2
 2397 1122 8C46     		mov	ip, r1
 2398 1124 BC44     		add	ip, ip, r7
 2399 1126 6244     		add	r2, r2, ip
 2400 1128 1360     		str	r3, [r2]
 590:Source\TransformFunctions/arm_cfft_radix4_q31.c **** 
 591:Source\TransformFunctions/arm_cfft_radix4_q31.c ****         /* (ya + yc) - (yb + yd) */
 592:Source\TransformFunctions/arm_cfft_radix4_q31.c ****         s1 = s1 - t2;
 2401              		.loc 1 592 0 discriminator 3
 2402 112a A023     		mov	r3, #160
 2403 112c 9822     		mov	r2, #152
 2404 112e 9200     		lsl	r2, r2, #2
 2405 1130 9446     		mov	ip, r2
 2406 1132 BC44     		add	ip, ip, r7
 2407 1134 6344     		add	r3, r3, ip
 2408 1136 1A68     		ldr	r2, [r3]
 2409 1138 9823     		mov	r3, #152
 2410 113a 9821     		mov	r1, #152
 2411 113c 8900     		lsl	r1, r1, #2
 2412 113e 8C46     		mov	ip, r1
 2413 1140 BC44     		add	ip, ip, r7
 2414 1142 6344     		add	r3, r3, ip
 2415 1144 1B68     		ldr	r3, [r3]
 2416 1146 D31A     		sub	r3, r2, r3
 2417 1148 A022     		mov	r2, #160
ARM GAS  C:\Users\fneves\AppData\Local\Temp\ccD0n2wo.s 			page 54


 2418 114a 9821     		mov	r1, #152
 2419 114c 8900     		lsl	r1, r1, #2
 2420 114e 8C46     		mov	ip, r1
 2421 1150 BC44     		add	ip, ip, r7
 2422 1152 6244     		add	r2, r2, ip
 2423 1154 1360     		str	r3, [r2]
 593:Source\TransformFunctions/arm_cfft_radix4_q31.c **** 
 594:Source\TransformFunctions/arm_cfft_radix4_q31.c ****         /* (yb - yd) */
 595:Source\TransformFunctions/arm_cfft_radix4_q31.c ****         t1 = pSi1[1] - pSi3[1];
 2424              		.loc 1 595 0 discriminator 3
 2425 1156 BC23     		mov	r3, #188
 2426 1158 9822     		mov	r2, #152
 2427 115a 9200     		lsl	r2, r2, #2
 2428 115c 9446     		mov	ip, r2
 2429 115e BC44     		add	ip, ip, r7
 2430 1160 6344     		add	r3, r3, ip
 2431 1162 1B68     		ldr	r3, [r3]
 2432 1164 0433     		add	r3, r3, #4
 2433 1166 1A68     		ldr	r2, [r3]
 2434 1168 B423     		mov	r3, #180
 2435 116a 9821     		mov	r1, #152
 2436 116c 8900     		lsl	r1, r1, #2
 2437 116e 8C46     		mov	ip, r1
 2438 1170 BC44     		add	ip, ip, r7
 2439 1172 6344     		add	r3, r3, ip
 2440 1174 1B68     		ldr	r3, [r3]
 2441 1176 0433     		add	r3, r3, #4
 2442 1178 1B68     		ldr	r3, [r3]
 2443 117a D31A     		sub	r3, r2, r3
 2444 117c A422     		mov	r2, #164
 2445 117e 9821     		mov	r1, #152
 2446 1180 8900     		lsl	r1, r1, #2
 2447 1182 8C46     		mov	ip, r1
 2448 1184 BC44     		add	ip, ip, r7
 2449 1186 6244     		add	r2, r2, ip
 2450 1188 1360     		str	r3, [r2]
 596:Source\TransformFunctions/arm_cfft_radix4_q31.c **** 
 597:Source\TransformFunctions/arm_cfft_radix4_q31.c ****         /* (xb - xd) */
 598:Source\TransformFunctions/arm_cfft_radix4_q31.c ****         t2 = pSi1[0] - pSi3[0];
 2451              		.loc 1 598 0 discriminator 3
 2452 118a BC23     		mov	r3, #188
 2453 118c 9822     		mov	r2, #152
 2454 118e 9200     		lsl	r2, r2, #2
 2455 1190 9446     		mov	ip, r2
 2456 1192 BC44     		add	ip, ip, r7
 2457 1194 6344     		add	r3, r3, ip
 2458 1196 1B68     		ldr	r3, [r3]
 2459 1198 1A68     		ldr	r2, [r3]
 2460 119a B423     		mov	r3, #180
 2461 119c 9821     		mov	r1, #152
 2462 119e 8900     		lsl	r1, r1, #2
 2463 11a0 8C46     		mov	ip, r1
 2464 11a2 BC44     		add	ip, ip, r7
 2465 11a4 6344     		add	r3, r3, ip
 2466 11a6 1B68     		ldr	r3, [r3]
 2467 11a8 1B68     		ldr	r3, [r3]
 2468 11aa D31A     		sub	r3, r2, r3
ARM GAS  C:\Users\fneves\AppData\Local\Temp\ccD0n2wo.s 			page 55


 2469 11ac 9822     		mov	r2, #152
 2470 11ae 9821     		mov	r1, #152
 2471 11b0 8900     		lsl	r1, r1, #2
 2472 11b2 8C46     		mov	ip, r1
 2473 11b4 BC44     		add	ip, ip, r7
 2474 11b6 6244     		add	r2, r2, ip
 2475 11b8 1360     		str	r3, [r2]
 599:Source\TransformFunctions/arm_cfft_radix4_q31.c **** 
 600:Source\TransformFunctions/arm_cfft_radix4_q31.c **** 
 601:Source\TransformFunctions/arm_cfft_radix4_q31.c ****         /* xc' = (xa-xb+xc-xd)co2 + (ya-yb+yc-yd)(si2) */
 602:Source\TransformFunctions/arm_cfft_radix4_q31.c ****         pSi1[0] = (((int32_t) (((q63_t) r1 * co2) >> 32)) +
 2476              		.loc 1 602 0 discriminator 3
 2477 11ba AC23     		mov	r3, #172
 2478 11bc 9822     		mov	r2, #152
 2479 11be 9200     		lsl	r2, r2, #2
 2480 11c0 9446     		mov	ip, r2
 2481 11c2 BC44     		add	ip, ip, r7
 2482 11c4 6344     		add	r3, r3, ip
 2483 11c6 1B68     		ldr	r3, [r3]
 2484 11c8 9C22     		mov	r2, #156
 2485 11ca 5200     		lsl	r2, r2, #1
 2486 11cc BA18     		add	r2, r7, r2
 2487 11ce 1360     		str	r3, [r2]
 2488 11d0 DB17     		asr	r3, r3, #31
 2489 11d2 9E22     		mov	r2, #158
 2490 11d4 5200     		lsl	r2, r2, #1
 2491 11d6 BA18     		add	r2, r7, r2
 2492 11d8 1360     		str	r3, [r2]
 2493 11da 9023     		mov	r3, #144
 2494 11dc 9822     		mov	r2, #152
 2495 11de 9200     		lsl	r2, r2, #2
 2496 11e0 9446     		mov	ip, r2
 2497 11e2 BC44     		add	ip, ip, r7
 2498 11e4 6344     		add	r3, r3, ip
 2499 11e6 1B68     		ldr	r3, [r3]
 2500 11e8 9822     		mov	r2, #152
 2501 11ea 5200     		lsl	r2, r2, #1
 2502 11ec BA18     		add	r2, r7, r2
 2503 11ee 1360     		str	r3, [r2]
 2504 11f0 DB17     		asr	r3, r3, #31
 2505 11f2 9A22     		mov	r2, #154
 2506 11f4 5200     		lsl	r2, r2, #1
 2507 11f6 BA18     		add	r2, r7, r2
 2508 11f8 1360     		str	r3, [r2]
 2509 11fa 9C23     		mov	r3, #156
 2510 11fc 5B00     		lsl	r3, r3, #1
 2511 11fe FB18     		add	r3, r7, r3
 2512 1200 1868     		ldr	r0, [r3]
 2513 1202 5968     		ldr	r1, [r3, #4]
 2514 1204 9823     		mov	r3, #152
 2515 1206 5B00     		lsl	r3, r3, #1
 2516 1208 FB18     		add	r3, r7, r3
 2517 120a 1A68     		ldr	r2, [r3]
 2518 120c 5B68     		ldr	r3, [r3, #4]
 2519 120e FFF7FEFF 		bl	__aeabi_lmul
 2520 1212 031C     		mov	r3, r0
 2521 1214 0C1C     		mov	r4, r1
ARM GAS  C:\Users\fneves\AppData\Local\Temp\ccD0n2wo.s 			page 56


 2522 1216 2200     		asr	r2, r4, #0
 2523 1218 9421     		mov	r1, #148
 2524 121a 4900     		lsl	r1, r1, #1
 2525 121c 7918     		add	r1, r7, r1
 2526 121e 0A60     		str	r2, [r1]
 2527 1220 E317     		asr	r3, r4, #31
 2528 1222 9622     		mov	r2, #150
 2529 1224 5200     		lsl	r2, r2, #1
 2530 1226 BA18     		add	r2, r7, r2
 2531 1228 1360     		str	r3, [r2]
 2532 122a 9423     		mov	r3, #148
 2533 122c 5B00     		lsl	r3, r3, #1
 2534 122e FB18     		add	r3, r7, r3
 2535 1230 1D68     		ldr	r5, [r3]
 603:Source\TransformFunctions/arm_cfft_radix4_q31.c ****                          ((int32_t) (((q63_t) s1 * si2) >> 32))) >> 1u;
 2536              		.loc 1 603 0 discriminator 3
 2537 1232 A023     		mov	r3, #160
 2538 1234 9822     		mov	r2, #152
 2539 1236 9200     		lsl	r2, r2, #2
 2540 1238 9446     		mov	ip, r2
 2541 123a BC44     		add	ip, ip, r7
 2542 123c 6344     		add	r3, r3, ip
 2543 123e 1B68     		ldr	r3, [r3]
 2544 1240 9022     		mov	r2, #144
 2545 1242 5200     		lsl	r2, r2, #1
 2546 1244 BA18     		add	r2, r7, r2
 2547 1246 1360     		str	r3, [r2]
 2548 1248 DB17     		asr	r3, r3, #31
 2549 124a 9222     		mov	r2, #146
 2550 124c 5200     		lsl	r2, r2, #1
 2551 124e BA18     		add	r2, r7, r2
 2552 1250 1360     		str	r3, [r2]
 2553 1252 8C23     		mov	r3, #140
 2554 1254 9822     		mov	r2, #152
 2555 1256 9200     		lsl	r2, r2, #2
 2556 1258 9446     		mov	ip, r2
 2557 125a BC44     		add	ip, ip, r7
 2558 125c 6344     		add	r3, r3, ip
 2559 125e 1B68     		ldr	r3, [r3]
 2560 1260 8C22     		mov	r2, #140
 2561 1262 5200     		lsl	r2, r2, #1
 2562 1264 BA18     		add	r2, r7, r2
 2563 1266 1360     		str	r3, [r2]
 2564 1268 DB17     		asr	r3, r3, #31
 2565 126a 8E22     		mov	r2, #142
 2566 126c 5200     		lsl	r2, r2, #1
 2567 126e BA18     		add	r2, r7, r2
 2568 1270 1360     		str	r3, [r2]
 2569 1272 9023     		mov	r3, #144
 2570 1274 5B00     		lsl	r3, r3, #1
 2571 1276 FB18     		add	r3, r7, r3
 2572 1278 1868     		ldr	r0, [r3]
 2573 127a 5968     		ldr	r1, [r3, #4]
 2574 127c 8C23     		mov	r3, #140
 2575 127e 5B00     		lsl	r3, r3, #1
 2576 1280 FB18     		add	r3, r7, r3
 2577 1282 1A68     		ldr	r2, [r3]
ARM GAS  C:\Users\fneves\AppData\Local\Temp\ccD0n2wo.s 			page 57


 2578 1284 5B68     		ldr	r3, [r3, #4]
 2579 1286 FFF7FEFF 		bl	__aeabi_lmul
 2580 128a 031C     		mov	r3, r0
 2581 128c 0C1C     		mov	r4, r1
 2582 128e 2200     		asr	r2, r4, #0
 2583 1290 8821     		mov	r1, #136
 2584 1292 4900     		lsl	r1, r1, #1
 2585 1294 7918     		add	r1, r7, r1
 2586 1296 0A60     		str	r2, [r1]
 2587 1298 E317     		asr	r3, r4, #31
 2588 129a 8A22     		mov	r2, #138
 2589 129c 5200     		lsl	r2, r2, #1
 2590 129e BA18     		add	r2, r7, r2
 2591 12a0 1360     		str	r3, [r2]
 2592 12a2 8823     		mov	r3, #136
 2593 12a4 5B00     		lsl	r3, r3, #1
 2594 12a6 FB18     		add	r3, r7, r3
 2595 12a8 1B68     		ldr	r3, [r3]
 602:Source\TransformFunctions/arm_cfft_radix4_q31.c ****                          ((int32_t) (((q63_t) s1 * si2) >> 32))) >> 1u;
 2596              		.loc 1 602 0 discriminator 3
 2597 12aa EB18     		add	r3, r5, r3
 2598              		.loc 1 603 0 discriminator 3
 2599 12ac 5A10     		asr	r2, r3, #1
 602:Source\TransformFunctions/arm_cfft_radix4_q31.c ****                          ((int32_t) (((q63_t) s1 * si2) >> 32))) >> 1u;
 2600              		.loc 1 602 0 discriminator 3
 2601 12ae BC23     		mov	r3, #188
 2602 12b0 9821     		mov	r1, #152
 2603 12b2 8900     		lsl	r1, r1, #2
 2604 12b4 8C46     		mov	ip, r1
 2605 12b6 BC44     		add	ip, ip, r7
 2606 12b8 6344     		add	r3, r3, ip
 2607 12ba 1B68     		ldr	r3, [r3]
 2608 12bc 1A60     		str	r2, [r3]
 604:Source\TransformFunctions/arm_cfft_radix4_q31.c **** 
 605:Source\TransformFunctions/arm_cfft_radix4_q31.c ****         /* yc' = (ya-yb+yc-yd)co2 - (xa-xb+xc-xd)(si2) */
 606:Source\TransformFunctions/arm_cfft_radix4_q31.c ****         pSi1[1] = (((int32_t) (((q63_t) s1 * co2) >> 32)) -
 2609              		.loc 1 606 0 discriminator 3
 2610 12be BC23     		mov	r3, #188
 2611 12c0 9822     		mov	r2, #152
 2612 12c2 9200     		lsl	r2, r2, #2
 2613 12c4 9446     		mov	ip, r2
 2614 12c6 BC44     		add	ip, ip, r7
 2615 12c8 6344     		add	r3, r3, ip
 2616 12ca 1B68     		ldr	r3, [r3]
 2617 12cc 1D1D     		add	r5, r3, #4
 2618 12ce A023     		mov	r3, #160
 2619 12d0 9822     		mov	r2, #152
 2620 12d2 9200     		lsl	r2, r2, #2
 2621 12d4 9446     		mov	ip, r2
 2622 12d6 BC44     		add	ip, ip, r7
 2623 12d8 6344     		add	r3, r3, ip
 2624 12da 1B68     		ldr	r3, [r3]
 2625 12dc 8422     		mov	r2, #132
 2626 12de 5200     		lsl	r2, r2, #1
 2627 12e0 BA18     		add	r2, r7, r2
 2628 12e2 1360     		str	r3, [r2]
 2629 12e4 DB17     		asr	r3, r3, #31
ARM GAS  C:\Users\fneves\AppData\Local\Temp\ccD0n2wo.s 			page 58


 2630 12e6 8622     		mov	r2, #134
 2631 12e8 5200     		lsl	r2, r2, #1
 2632 12ea BA18     		add	r2, r7, r2
 2633 12ec 1360     		str	r3, [r2]
 2634 12ee 9023     		mov	r3, #144
 2635 12f0 9822     		mov	r2, #152
 2636 12f2 9200     		lsl	r2, r2, #2
 2637 12f4 9446     		mov	ip, r2
 2638 12f6 BC44     		add	ip, ip, r7
 2639 12f8 6344     		add	r3, r3, ip
 2640 12fa 1B68     		ldr	r3, [r3]
 2641 12fc 7A1C     		add	r2, r7, #1
 2642 12fe FF32     		add	r2, r2, #255
 2643 1300 1360     		str	r3, [r2]
 2644 1302 DB17     		asr	r3, r3, #31
 2645 1304 7A1D     		add	r2, r7, #5
 2646 1306 FF32     		add	r2, r2, #255
 2647 1308 1360     		str	r3, [r2]
 2648 130a 8423     		mov	r3, #132
 2649 130c 5B00     		lsl	r3, r3, #1
 2650 130e FB18     		add	r3, r7, r3
 2651 1310 1868     		ldr	r0, [r3]
 2652 1312 5968     		ldr	r1, [r3, #4]
 2653 1314 7B1C     		add	r3, r7, #1
 2654 1316 FF33     		add	r3, r3, #255
 2655 1318 1A68     		ldr	r2, [r3]
 2656 131a 5B68     		ldr	r3, [r3, #4]
 2657 131c FFF7FEFF 		bl	__aeabi_lmul
 2658 1320 031C     		mov	r3, r0
 2659 1322 0C1C     		mov	r4, r1
 2660 1324 2200     		asr	r2, r4, #0
 2661 1326 F821     		mov	r1, #248
 2662 1328 7918     		add	r1, r7, r1
 2663 132a 0A60     		str	r2, [r1]
 2664 132c E317     		asr	r3, r4, #31
 2665 132e FC22     		mov	r2, #252
 2666 1330 BA18     		add	r2, r7, r2
 2667 1332 1360     		str	r3, [r2]
 2668 1334 F823     		mov	r3, #248
 2669 1336 FB18     		add	r3, r7, r3
 2670 1338 1E68     		ldr	r6, [r3]
 607:Source\TransformFunctions/arm_cfft_radix4_q31.c ****                                 ((int32_t) (((q63_t) r1 * si2) >> 32))) >> 1u;
 2671              		.loc 1 607 0 discriminator 3
 2672 133a AC23     		mov	r3, #172
 2673 133c 9822     		mov	r2, #152
 2674 133e 9200     		lsl	r2, r2, #2
 2675 1340 9446     		mov	ip, r2
 2676 1342 BC44     		add	ip, ip, r7
 2677 1344 6344     		add	r3, r3, ip
 2678 1346 1B68     		ldr	r3, [r3]
 2679 1348 F022     		mov	r2, #240
 2680 134a BA18     		add	r2, r7, r2
 2681 134c 1360     		str	r3, [r2]
 2682 134e DB17     		asr	r3, r3, #31
 2683 1350 F422     		mov	r2, #244
 2684 1352 BA18     		add	r2, r7, r2
 2685 1354 1360     		str	r3, [r2]
ARM GAS  C:\Users\fneves\AppData\Local\Temp\ccD0n2wo.s 			page 59


 2686 1356 8C23     		mov	r3, #140
 2687 1358 9822     		mov	r2, #152
 2688 135a 9200     		lsl	r2, r2, #2
 2689 135c 9446     		mov	ip, r2
 2690 135e BC44     		add	ip, ip, r7
 2691 1360 6344     		add	r3, r3, ip
 2692 1362 1B68     		ldr	r3, [r3]
 2693 1364 E822     		mov	r2, #232
 2694 1366 BA18     		add	r2, r7, r2
 2695 1368 1360     		str	r3, [r2]
 2696 136a DB17     		asr	r3, r3, #31
 2697 136c EC22     		mov	r2, #236
 2698 136e BA18     		add	r2, r7, r2
 2699 1370 1360     		str	r3, [r2]
 2700 1372 F023     		mov	r3, #240
 2701 1374 FB18     		add	r3, r7, r3
 2702 1376 1868     		ldr	r0, [r3]
 2703 1378 5968     		ldr	r1, [r3, #4]
 2704 137a E823     		mov	r3, #232
 2705 137c FB18     		add	r3, r7, r3
 2706 137e 1A68     		ldr	r2, [r3]
 2707 1380 5B68     		ldr	r3, [r3, #4]
 2708 1382 FFF7FEFF 		bl	__aeabi_lmul
 2709 1386 031C     		mov	r3, r0
 2710 1388 0C1C     		mov	r4, r1
 2711 138a 2200     		asr	r2, r4, #0
 2712 138c E021     		mov	r1, #224
 2713 138e 7918     		add	r1, r7, r1
 2714 1390 0A60     		str	r2, [r1]
 2715 1392 E317     		asr	r3, r4, #31
 2716 1394 E422     		mov	r2, #228
 2717 1396 BA18     		add	r2, r7, r2
 2718 1398 1360     		str	r3, [r2]
 2719 139a E023     		mov	r3, #224
 2720 139c FB18     		add	r3, r7, r3
 2721 139e 1B68     		ldr	r3, [r3]
 606:Source\TransformFunctions/arm_cfft_radix4_q31.c ****                                 ((int32_t) (((q63_t) r1 * si2) >> 32))) >> 1u;
 2722              		.loc 1 606 0 discriminator 3
 2723 13a0 F31A     		sub	r3, r6, r3
 2724              		.loc 1 607 0 discriminator 3
 2725 13a2 5B10     		asr	r3, r3, #1
 606:Source\TransformFunctions/arm_cfft_radix4_q31.c ****                                 ((int32_t) (((q63_t) r1 * si2) >> 32))) >> 1u;
 2726              		.loc 1 606 0 discriminator 3
 2727 13a4 2B60     		str	r3, [r5]
 608:Source\TransformFunctions/arm_cfft_radix4_q31.c ****         pSi1 += 2 * n1;
 2728              		.loc 1 608 0 discriminator 3
 2729 13a6 B023     		mov	r3, #176
 2730 13a8 9822     		mov	r2, #152
 2731 13aa 9200     		lsl	r2, r2, #2
 2732 13ac 9446     		mov	ip, r2
 2733 13ae BC44     		add	ip, ip, r7
 2734 13b0 6344     		add	r3, r3, ip
 2735 13b2 1B68     		ldr	r3, [r3]
 2736 13b4 DA00     		lsl	r2, r3, #3
 2737 13b6 BC23     		mov	r3, #188
 2738 13b8 9821     		mov	r1, #152
 2739 13ba 8900     		lsl	r1, r1, #2
ARM GAS  C:\Users\fneves\AppData\Local\Temp\ccD0n2wo.s 			page 60


 2740 13bc 8C46     		mov	ip, r1
 2741 13be BC44     		add	ip, ip, r7
 2742 13c0 6344     		add	r3, r3, ip
 2743 13c2 1B68     		ldr	r3, [r3]
 2744 13c4 9B18     		add	r3, r3, r2
 2745 13c6 BC22     		mov	r2, #188
 2746 13c8 9821     		mov	r1, #152
 2747 13ca 8900     		lsl	r1, r1, #2
 2748 13cc 8C46     		mov	ip, r1
 2749 13ce BC44     		add	ip, ip, r7
 2750 13d0 6244     		add	r2, r2, ip
 2751 13d2 1360     		str	r3, [r2]
 609:Source\TransformFunctions/arm_cfft_radix4_q31.c **** 
 610:Source\TransformFunctions/arm_cfft_radix4_q31.c ****         /* (xa - xc) + (yb - yd) */
 611:Source\TransformFunctions/arm_cfft_radix4_q31.c ****         r1 = r2 + t1;
 2752              		.loc 1 611 0 discriminator 3
 2753 13d4 A823     		mov	r3, #168
 2754 13d6 9822     		mov	r2, #152
 2755 13d8 9200     		lsl	r2, r2, #2
 2756 13da 9446     		mov	ip, r2
 2757 13dc BC44     		add	ip, ip, r7
 2758 13de 6344     		add	r3, r3, ip
 2759 13e0 1A68     		ldr	r2, [r3]
 2760 13e2 A423     		mov	r3, #164
 2761 13e4 9821     		mov	r1, #152
 2762 13e6 8900     		lsl	r1, r1, #2
 2763 13e8 8C46     		mov	ip, r1
 2764 13ea BC44     		add	ip, ip, r7
 2765 13ec 6344     		add	r3, r3, ip
 2766 13ee 1B68     		ldr	r3, [r3]
 2767 13f0 D318     		add	r3, r2, r3
 2768 13f2 AC22     		mov	r2, #172
 2769 13f4 9821     		mov	r1, #152
 2770 13f6 8900     		lsl	r1, r1, #2
 2771 13f8 8C46     		mov	ip, r1
 2772 13fa BC44     		add	ip, ip, r7
 2773 13fc 6244     		add	r2, r2, ip
 2774 13fe 1360     		str	r3, [r2]
 612:Source\TransformFunctions/arm_cfft_radix4_q31.c ****         /* (xa - xc) - (yb - yd) */
 613:Source\TransformFunctions/arm_cfft_radix4_q31.c ****         r2 = r2 - t1;
 2775              		.loc 1 613 0 discriminator 3
 2776 1400 A823     		mov	r3, #168
 2777 1402 9822     		mov	r2, #152
 2778 1404 9200     		lsl	r2, r2, #2
 2779 1406 9446     		mov	ip, r2
 2780 1408 BC44     		add	ip, ip, r7
 2781 140a 6344     		add	r3, r3, ip
 2782 140c 1A68     		ldr	r2, [r3]
 2783 140e A423     		mov	r3, #164
 2784 1410 9821     		mov	r1, #152
 2785 1412 8900     		lsl	r1, r1, #2
 2786 1414 8C46     		mov	ip, r1
 2787 1416 BC44     		add	ip, ip, r7
 2788 1418 6344     		add	r3, r3, ip
 2789 141a 1B68     		ldr	r3, [r3]
 2790 141c D31A     		sub	r3, r2, r3
 2791 141e A822     		mov	r2, #168
ARM GAS  C:\Users\fneves\AppData\Local\Temp\ccD0n2wo.s 			page 61


 2792 1420 9821     		mov	r1, #152
 2793 1422 8900     		lsl	r1, r1, #2
 2794 1424 8C46     		mov	ip, r1
 2795 1426 BC44     		add	ip, ip, r7
 2796 1428 6244     		add	r2, r2, ip
 2797 142a 1360     		str	r3, [r2]
 614:Source\TransformFunctions/arm_cfft_radix4_q31.c **** 
 615:Source\TransformFunctions/arm_cfft_radix4_q31.c ****         /* (ya - yc) -  (xb - xd) */
 616:Source\TransformFunctions/arm_cfft_radix4_q31.c ****         s1 = s2 - t2;
 2798              		.loc 1 616 0 discriminator 3
 2799 142c 9C23     		mov	r3, #156
 2800 142e 9822     		mov	r2, #152
 2801 1430 9200     		lsl	r2, r2, #2
 2802 1432 9446     		mov	ip, r2
 2803 1434 BC44     		add	ip, ip, r7
 2804 1436 6344     		add	r3, r3, ip
 2805 1438 1A68     		ldr	r2, [r3]
 2806 143a 9823     		mov	r3, #152
 2807 143c 9821     		mov	r1, #152
 2808 143e 8900     		lsl	r1, r1, #2
 2809 1440 8C46     		mov	ip, r1
 2810 1442 BC44     		add	ip, ip, r7
 2811 1444 6344     		add	r3, r3, ip
 2812 1446 1B68     		ldr	r3, [r3]
 2813 1448 D31A     		sub	r3, r2, r3
 2814 144a A022     		mov	r2, #160
 2815 144c 9821     		mov	r1, #152
 2816 144e 8900     		lsl	r1, r1, #2
 2817 1450 8C46     		mov	ip, r1
 2818 1452 BC44     		add	ip, ip, r7
 2819 1454 6244     		add	r2, r2, ip
 2820 1456 1360     		str	r3, [r2]
 617:Source\TransformFunctions/arm_cfft_radix4_q31.c ****         /* (ya - yc) +  (xb - xd) */
 618:Source\TransformFunctions/arm_cfft_radix4_q31.c ****         s2 = s2 + t2;
 2821              		.loc 1 618 0 discriminator 3
 2822 1458 9C23     		mov	r3, #156
 2823 145a 9822     		mov	r2, #152
 2824 145c 9200     		lsl	r2, r2, #2
 2825 145e 9446     		mov	ip, r2
 2826 1460 BC44     		add	ip, ip, r7
 2827 1462 6344     		add	r3, r3, ip
 2828 1464 1A68     		ldr	r2, [r3]
 2829 1466 9823     		mov	r3, #152
 2830 1468 9821     		mov	r1, #152
 2831 146a 8900     		lsl	r1, r1, #2
 2832 146c 8C46     		mov	ip, r1
 2833 146e BC44     		add	ip, ip, r7
 2834 1470 6344     		add	r3, r3, ip
 2835 1472 1B68     		ldr	r3, [r3]
 2836 1474 D318     		add	r3, r2, r3
 2837 1476 9C22     		mov	r2, #156
 2838 1478 9821     		mov	r1, #152
 2839 147a 8900     		lsl	r1, r1, #2
 2840 147c 8C46     		mov	ip, r1
 2841 147e BC44     		add	ip, ip, r7
 2842 1480 6244     		add	r2, r2, ip
 2843 1482 1360     		str	r3, [r2]
ARM GAS  C:\Users\fneves\AppData\Local\Temp\ccD0n2wo.s 			page 62


 619:Source\TransformFunctions/arm_cfft_radix4_q31.c **** 
 620:Source\TransformFunctions/arm_cfft_radix4_q31.c ****         /* xb' = (xa+yb-xc-yd)co1 + (ya-xb-yc+xd)(si1) */
 621:Source\TransformFunctions/arm_cfft_radix4_q31.c ****         pSi2[0] = (((int32_t) (((q63_t) r1 * co1) >> 32)) +
 2844              		.loc 1 621 0 discriminator 3
 2845 1484 AC23     		mov	r3, #172
 2846 1486 9822     		mov	r2, #152
 2847 1488 9200     		lsl	r2, r2, #2
 2848 148a 9446     		mov	ip, r2
 2849 148c BC44     		add	ip, ip, r7
 2850 148e 6344     		add	r3, r3, ip
 2851 1490 1B68     		ldr	r3, [r3]
 2852 1492 D822     		mov	r2, #216
 2853 1494 BA18     		add	r2, r7, r2
 2854 1496 1360     		str	r3, [r2]
 2855 1498 DB17     		asr	r3, r3, #31
 2856 149a DC22     		mov	r2, #220
 2857 149c BA18     		add	r2, r7, r2
 2858 149e 1360     		str	r3, [r2]
 2859 14a0 8823     		mov	r3, #136
 2860 14a2 9822     		mov	r2, #152
 2861 14a4 9200     		lsl	r2, r2, #2
 2862 14a6 9446     		mov	ip, r2
 2863 14a8 BC44     		add	ip, ip, r7
 2864 14aa 6344     		add	r3, r3, ip
 2865 14ac 1B68     		ldr	r3, [r3]
 2866 14ae D022     		mov	r2, #208
 2867 14b0 BA18     		add	r2, r7, r2
 2868 14b2 1360     		str	r3, [r2]
 2869 14b4 DB17     		asr	r3, r3, #31
 2870 14b6 D422     		mov	r2, #212
 2871 14b8 BA18     		add	r2, r7, r2
 2872 14ba 1360     		str	r3, [r2]
 2873 14bc D823     		mov	r3, #216
 2874 14be FB18     		add	r3, r7, r3
 2875 14c0 1868     		ldr	r0, [r3]
 2876 14c2 5968     		ldr	r1, [r3, #4]
 2877 14c4 D023     		mov	r3, #208
 2878 14c6 FB18     		add	r3, r7, r3
 2879 14c8 1A68     		ldr	r2, [r3]
 2880 14ca 5B68     		ldr	r3, [r3, #4]
 2881 14cc FFF7FEFF 		bl	__aeabi_lmul
 2882 14d0 031C     		mov	r3, r0
 2883 14d2 0C1C     		mov	r4, r1
 2884 14d4 2200     		asr	r2, r4, #0
 2885 14d6 C821     		mov	r1, #200
 2886 14d8 7918     		add	r1, r7, r1
 2887 14da 0A60     		str	r2, [r1]
 2888 14dc E317     		asr	r3, r4, #31
 2889 14de CC22     		mov	r2, #204
 2890 14e0 BA18     		add	r2, r7, r2
 2891 14e2 1360     		str	r3, [r2]
 2892 14e4 C823     		mov	r3, #200
 2893 14e6 FB18     		add	r3, r7, r3
 2894 14e8 1D68     		ldr	r5, [r3]
 622:Source\TransformFunctions/arm_cfft_radix4_q31.c ****                          ((int32_t) (((q63_t) s1 * si1) >> 32))) >> 1u;
 2895              		.loc 1 622 0 discriminator 3
 2896 14ea A023     		mov	r3, #160
ARM GAS  C:\Users\fneves\AppData\Local\Temp\ccD0n2wo.s 			page 63


 2897 14ec 9822     		mov	r2, #152
 2898 14ee 9200     		lsl	r2, r2, #2
 2899 14f0 9446     		mov	ip, r2
 2900 14f2 BC44     		add	ip, ip, r7
 2901 14f4 6344     		add	r3, r3, ip
 2902 14f6 1B68     		ldr	r3, [r3]
 2903 14f8 C022     		mov	r2, #192
 2904 14fa BA18     		add	r2, r7, r2
 2905 14fc 1360     		str	r3, [r2]
 2906 14fe DB17     		asr	r3, r3, #31
 2907 1500 C422     		mov	r2, #196
 2908 1502 BA18     		add	r2, r7, r2
 2909 1504 1360     		str	r3, [r2]
 2910 1506 8423     		mov	r3, #132
 2911 1508 9822     		mov	r2, #152
 2912 150a 9200     		lsl	r2, r2, #2
 2913 150c 9446     		mov	ip, r2
 2914 150e BC44     		add	ip, ip, r7
 2915 1510 6344     		add	r3, r3, ip
 2916 1512 1B68     		ldr	r3, [r3]
 2917 1514 B822     		mov	r2, #184
 2918 1516 BA18     		add	r2, r7, r2
 2919 1518 1360     		str	r3, [r2]
 2920 151a DB17     		asr	r3, r3, #31
 2921 151c BC22     		mov	r2, #188
 2922 151e BA18     		add	r2, r7, r2
 2923 1520 1360     		str	r3, [r2]
 2924 1522 C023     		mov	r3, #192
 2925 1524 FB18     		add	r3, r7, r3
 2926 1526 1868     		ldr	r0, [r3]
 2927 1528 5968     		ldr	r1, [r3, #4]
 2928 152a B823     		mov	r3, #184
 2929 152c FB18     		add	r3, r7, r3
 2930 152e 1A68     		ldr	r2, [r3]
 2931 1530 5B68     		ldr	r3, [r3, #4]
 2932 1532 FFF7FEFF 		bl	__aeabi_lmul
 2933 1536 031C     		mov	r3, r0
 2934 1538 0C1C     		mov	r4, r1
 2935 153a 2200     		asr	r2, r4, #0
 2936 153c B021     		mov	r1, #176
 2937 153e 7918     		add	r1, r7, r1
 2938 1540 0A60     		str	r2, [r1]
 2939 1542 E317     		asr	r3, r4, #31
 2940 1544 B422     		mov	r2, #180
 2941 1546 BA18     		add	r2, r7, r2
 2942 1548 1360     		str	r3, [r2]
 2943 154a B023     		mov	r3, #176
 2944 154c FB18     		add	r3, r7, r3
 2945 154e 1B68     		ldr	r3, [r3]
 621:Source\TransformFunctions/arm_cfft_radix4_q31.c ****                          ((int32_t) (((q63_t) s1 * si1) >> 32))) >> 1u;
 2946              		.loc 1 621 0 discriminator 3
 2947 1550 EB18     		add	r3, r5, r3
 2948              		.loc 1 622 0 discriminator 3
 2949 1552 5A10     		asr	r2, r3, #1
 621:Source\TransformFunctions/arm_cfft_radix4_q31.c ****                          ((int32_t) (((q63_t) s1 * si1) >> 32))) >> 1u;
 2950              		.loc 1 621 0 discriminator 3
 2951 1554 B823     		mov	r3, #184
ARM GAS  C:\Users\fneves\AppData\Local\Temp\ccD0n2wo.s 			page 64


 2952 1556 9821     		mov	r1, #152
 2953 1558 8900     		lsl	r1, r1, #2
 2954 155a 8C46     		mov	ip, r1
 2955 155c BC44     		add	ip, ip, r7
 2956 155e 6344     		add	r3, r3, ip
 2957 1560 1B68     		ldr	r3, [r3]
 2958 1562 1A60     		str	r2, [r3]
 623:Source\TransformFunctions/arm_cfft_radix4_q31.c **** 
 624:Source\TransformFunctions/arm_cfft_radix4_q31.c ****         /* yb' = (ya-xb-yc+xd)co1 - (xa+yb-xc-yd)(si1) */
 625:Source\TransformFunctions/arm_cfft_radix4_q31.c ****         pSi2[1] = (((int32_t) (((q63_t) s1 * co1) >> 32)) -
 2959              		.loc 1 625 0 discriminator 3
 2960 1564 B823     		mov	r3, #184
 2961 1566 9822     		mov	r2, #152
 2962 1568 9200     		lsl	r2, r2, #2
 2963 156a 9446     		mov	ip, r2
 2964 156c BC44     		add	ip, ip, r7
 2965 156e 6344     		add	r3, r3, ip
 2966 1570 1B68     		ldr	r3, [r3]
 2967 1572 1D1D     		add	r5, r3, #4
 2968 1574 A023     		mov	r3, #160
 2969 1576 9822     		mov	r2, #152
 2970 1578 9200     		lsl	r2, r2, #2
 2971 157a 9446     		mov	ip, r2
 2972 157c BC44     		add	ip, ip, r7
 2973 157e 6344     		add	r3, r3, ip
 2974 1580 1B68     		ldr	r3, [r3]
 2975 1582 A822     		mov	r2, #168
 2976 1584 BA18     		add	r2, r7, r2
 2977 1586 1360     		str	r3, [r2]
 2978 1588 DB17     		asr	r3, r3, #31
 2979 158a AC22     		mov	r2, #172
 2980 158c BA18     		add	r2, r7, r2
 2981 158e 1360     		str	r3, [r2]
 2982 1590 8823     		mov	r3, #136
 2983 1592 9822     		mov	r2, #152
 2984 1594 9200     		lsl	r2, r2, #2
 2985 1596 9446     		mov	ip, r2
 2986 1598 BC44     		add	ip, ip, r7
 2987 159a 6344     		add	r3, r3, ip
 2988 159c 1B68     		ldr	r3, [r3]
 2989 159e A022     		mov	r2, #160
 2990 15a0 BA18     		add	r2, r7, r2
 2991 15a2 1360     		str	r3, [r2]
 2992 15a4 DB17     		asr	r3, r3, #31
 2993 15a6 A422     		mov	r2, #164
 2994 15a8 BA18     		add	r2, r7, r2
 2995 15aa 1360     		str	r3, [r2]
 2996 15ac A823     		mov	r3, #168
 2997 15ae FB18     		add	r3, r7, r3
 2998 15b0 1868     		ldr	r0, [r3]
 2999 15b2 5968     		ldr	r1, [r3, #4]
 3000 15b4 A023     		mov	r3, #160
 3001 15b6 FB18     		add	r3, r7, r3
 3002 15b8 1A68     		ldr	r2, [r3]
 3003 15ba 5B68     		ldr	r3, [r3, #4]
 3004 15bc FFF7FEFF 		bl	__aeabi_lmul
 3005 15c0 031C     		mov	r3, r0
ARM GAS  C:\Users\fneves\AppData\Local\Temp\ccD0n2wo.s 			page 65


 3006 15c2 0C1C     		mov	r4, r1
 3007 15c4 2200     		asr	r2, r4, #0
 3008 15c6 9821     		mov	r1, #152
 3009 15c8 7918     		add	r1, r7, r1
 3010 15ca 0A60     		str	r2, [r1]
 3011 15cc E317     		asr	r3, r4, #31
 3012 15ce 9C22     		mov	r2, #156
 3013 15d0 BA18     		add	r2, r7, r2
 3014 15d2 1360     		str	r3, [r2]
 3015 15d4 9823     		mov	r3, #152
 3016 15d6 FB18     		add	r3, r7, r3
 3017 15d8 1E68     		ldr	r6, [r3]
 626:Source\TransformFunctions/arm_cfft_radix4_q31.c ****                                 ((int32_t) (((q63_t) r1 * si1) >> 32))) >> 1u;
 3018              		.loc 1 626 0 discriminator 3
 3019 15da AC23     		mov	r3, #172
 3020 15dc 9822     		mov	r2, #152
 3021 15de 9200     		lsl	r2, r2, #2
 3022 15e0 9446     		mov	ip, r2
 3023 15e2 BC44     		add	ip, ip, r7
 3024 15e4 6344     		add	r3, r3, ip
 3025 15e6 1B68     		ldr	r3, [r3]
 3026 15e8 9022     		mov	r2, #144
 3027 15ea BA18     		add	r2, r7, r2
 3028 15ec 1360     		str	r3, [r2]
 3029 15ee DB17     		asr	r3, r3, #31
 3030 15f0 9422     		mov	r2, #148
 3031 15f2 BA18     		add	r2, r7, r2
 3032 15f4 1360     		str	r3, [r2]
 3033 15f6 8423     		mov	r3, #132
 3034 15f8 9822     		mov	r2, #152
 3035 15fa 9200     		lsl	r2, r2, #2
 3036 15fc 9446     		mov	ip, r2
 3037 15fe BC44     		add	ip, ip, r7
 3038 1600 6344     		add	r3, r3, ip
 3039 1602 1B68     		ldr	r3, [r3]
 3040 1604 8822     		mov	r2, #136
 3041 1606 BA18     		add	r2, r7, r2
 3042 1608 1360     		str	r3, [r2]
 3043 160a DB17     		asr	r3, r3, #31
 3044 160c 8C22     		mov	r2, #140
 3045 160e BA18     		add	r2, r7, r2
 3046 1610 1360     		str	r3, [r2]
 3047 1612 9023     		mov	r3, #144
 3048 1614 FB18     		add	r3, r7, r3
 3049 1616 1868     		ldr	r0, [r3]
 3050 1618 5968     		ldr	r1, [r3, #4]
 3051 161a 8823     		mov	r3, #136
 3052 161c FB18     		add	r3, r7, r3
 3053 161e 1A68     		ldr	r2, [r3]
 3054 1620 5B68     		ldr	r3, [r3, #4]
 3055 1622 FFF7FEFF 		bl	__aeabi_lmul
 3056 1626 031C     		mov	r3, r0
 3057 1628 0C1C     		mov	r4, r1
 3058 162a 2200     		asr	r2, r4, #0
 3059 162c 8021     		mov	r1, #128
 3060 162e 7918     		add	r1, r7, r1
 3061 1630 0A60     		str	r2, [r1]
ARM GAS  C:\Users\fneves\AppData\Local\Temp\ccD0n2wo.s 			page 66


 3062 1632 E317     		asr	r3, r4, #31
 3063 1634 8422     		mov	r2, #132
 3064 1636 BA18     		add	r2, r7, r2
 3065 1638 1360     		str	r3, [r2]
 3066 163a 8023     		mov	r3, #128
 3067 163c FB18     		add	r3, r7, r3
 3068 163e 1B68     		ldr	r3, [r3]
 625:Source\TransformFunctions/arm_cfft_radix4_q31.c ****                                 ((int32_t) (((q63_t) r1 * si1) >> 32))) >> 1u;
 3069              		.loc 1 625 0 discriminator 3
 3070 1640 F31A     		sub	r3, r6, r3
 3071              		.loc 1 626 0 discriminator 3
 3072 1642 5B10     		asr	r3, r3, #1
 625:Source\TransformFunctions/arm_cfft_radix4_q31.c ****                                 ((int32_t) (((q63_t) r1 * si1) >> 32))) >> 1u;
 3073              		.loc 1 625 0 discriminator 3
 3074 1644 2B60     		str	r3, [r5]
 627:Source\TransformFunctions/arm_cfft_radix4_q31.c ****         pSi2 += 2 * n1;
 3075              		.loc 1 627 0 discriminator 3
 3076 1646 B023     		mov	r3, #176
 3077 1648 9822     		mov	r2, #152
 3078 164a 9200     		lsl	r2, r2, #2
 3079 164c 9446     		mov	ip, r2
 3080 164e BC44     		add	ip, ip, r7
 3081 1650 6344     		add	r3, r3, ip
 3082 1652 1B68     		ldr	r3, [r3]
 3083 1654 DA00     		lsl	r2, r3, #3
 3084 1656 B823     		mov	r3, #184
 3085 1658 9821     		mov	r1, #152
 3086 165a 8900     		lsl	r1, r1, #2
 3087 165c 8C46     		mov	ip, r1
 3088 165e BC44     		add	ip, ip, r7
 3089 1660 6344     		add	r3, r3, ip
 3090 1662 1B68     		ldr	r3, [r3]
 3091 1664 9B18     		add	r3, r3, r2
 3092 1666 B822     		mov	r2, #184
 3093 1668 9821     		mov	r1, #152
 3094 166a 8900     		lsl	r1, r1, #2
 3095 166c 8C46     		mov	ip, r1
 3096 166e BC44     		add	ip, ip, r7
 3097 1670 6244     		add	r2, r2, ip
 3098 1672 1360     		str	r3, [r2]
 628:Source\TransformFunctions/arm_cfft_radix4_q31.c **** 
 629:Source\TransformFunctions/arm_cfft_radix4_q31.c ****         /* xd' = (xa-yb-xc+yd)co3 + (ya+xb-yc-xd)(si3) */
 630:Source\TransformFunctions/arm_cfft_radix4_q31.c ****         pSi3[0] = (((int32_t) (((q63_t) r2 * co3) >> 32)) +
 3099              		.loc 1 630 0 discriminator 3
 3100 1674 A823     		mov	r3, #168
 3101 1676 9822     		mov	r2, #152
 3102 1678 9200     		lsl	r2, r2, #2
 3103 167a 9446     		mov	ip, r2
 3104 167c BC44     		add	ip, ip, r7
 3105 167e 6344     		add	r3, r3, ip
 3106 1680 1B68     		ldr	r3, [r3]
 3107 1682 BB67     		str	r3, [r7, #120]
 3108 1684 DB17     		asr	r3, r3, #31
 3109 1686 FB67     		str	r3, [r7, #124]
 3110 1688 B723     		mov	r3, #183
 3111 168a 9B00     		lsl	r3, r3, #2
 3112 168c FB18     		add	r3, r7, r3
ARM GAS  C:\Users\fneves\AppData\Local\Temp\ccD0n2wo.s 			page 67


 3113 168e 1B68     		ldr	r3, [r3]
 3114 1690 3B67     		str	r3, [r7, #112]
 3115 1692 DB17     		asr	r3, r3, #31
 3116 1694 7B67     		str	r3, [r7, #116]
 3117 1696 B86F     		ldr	r0, [r7, #120]
 3118 1698 F96F     		ldr	r1, [r7, #124]
 3119 169a 3A6F     		ldr	r2, [r7, #112]
 3120 169c 7B6F     		ldr	r3, [r7, #116]
 3121 169e FFF7FEFF 		bl	__aeabi_lmul
 3122 16a2 031C     		mov	r3, r0
 3123 16a4 0C1C     		mov	r4, r1
 3124 16a6 2200     		asr	r2, r4, #0
 3125 16a8 BA66     		str	r2, [r7, #104]
 3126 16aa E317     		asr	r3, r4, #31
 3127 16ac FB66     		str	r3, [r7, #108]
 3128 16ae BD6E     		ldr	r5, [r7, #104]
 631:Source\TransformFunctions/arm_cfft_radix4_q31.c ****                          ((int32_t) (((q63_t) s2 * si3) >> 32))) >> 1u;
 3129              		.loc 1 631 0 discriminator 3
 3130 16b0 9C23     		mov	r3, #156
 3131 16b2 9822     		mov	r2, #152
 3132 16b4 9200     		lsl	r2, r2, #2
 3133 16b6 9446     		mov	ip, r2
 3134 16b8 BC44     		add	ip, ip, r7
 3135 16ba 6344     		add	r3, r3, ip
 3136 16bc 1B68     		ldr	r3, [r3]
 3137 16be 3B66     		str	r3, [r7, #96]
 3138 16c0 DB17     		asr	r3, r3, #31
 3139 16c2 7B66     		str	r3, [r7, #100]
 3140 16c4 B623     		mov	r3, #182
 3141 16c6 9B00     		lsl	r3, r3, #2
 3142 16c8 FB18     		add	r3, r7, r3
 3143 16ca 1B68     		ldr	r3, [r3]
 3144 16cc BB65     		str	r3, [r7, #88]
 3145 16ce DB17     		asr	r3, r3, #31
 3146 16d0 FB65     		str	r3, [r7, #92]
 3147 16d2 386E     		ldr	r0, [r7, #96]
 3148 16d4 796E     		ldr	r1, [r7, #100]
 3149 16d6 BA6D     		ldr	r2, [r7, #88]
 3150 16d8 FB6D     		ldr	r3, [r7, #92]
 3151 16da FFF7FEFF 		bl	__aeabi_lmul
 3152 16de 031C     		mov	r3, r0
 3153 16e0 0C1C     		mov	r4, r1
 3154 16e2 2200     		asr	r2, r4, #0
 3155 16e4 3A65     		str	r2, [r7, #80]
 3156 16e6 E317     		asr	r3, r4, #31
 3157 16e8 7B65     		str	r3, [r7, #84]
 3158 16ea 3B6D     		ldr	r3, [r7, #80]
 630:Source\TransformFunctions/arm_cfft_radix4_q31.c ****                          ((int32_t) (((q63_t) s2 * si3) >> 32))) >> 1u;
 3159              		.loc 1 630 0 discriminator 3
 3160 16ec EB18     		add	r3, r5, r3
 3161              		.loc 1 631 0 discriminator 3
 3162 16ee 5A10     		asr	r2, r3, #1
 630:Source\TransformFunctions/arm_cfft_radix4_q31.c ****                          ((int32_t) (((q63_t) s2 * si3) >> 32))) >> 1u;
 3163              		.loc 1 630 0 discriminator 3
 3164 16f0 B423     		mov	r3, #180
 3165 16f2 9821     		mov	r1, #152
 3166 16f4 8900     		lsl	r1, r1, #2
ARM GAS  C:\Users\fneves\AppData\Local\Temp\ccD0n2wo.s 			page 68


 3167 16f6 8C46     		mov	ip, r1
 3168 16f8 BC44     		add	ip, ip, r7
 3169 16fa 6344     		add	r3, r3, ip
 3170 16fc 1B68     		ldr	r3, [r3]
 3171 16fe 1A60     		str	r2, [r3]
 632:Source\TransformFunctions/arm_cfft_radix4_q31.c **** 
 633:Source\TransformFunctions/arm_cfft_radix4_q31.c ****         /* yd' = (ya+xb-yc-xd)co3 - (xa-yb-xc+yd)(si3) */
 634:Source\TransformFunctions/arm_cfft_radix4_q31.c ****         pSi3[1] = (((int32_t) (((q63_t) s2 * co3) >> 32)) -
 3172              		.loc 1 634 0 discriminator 3
 3173 1700 B423     		mov	r3, #180
 3174 1702 9822     		mov	r2, #152
 3175 1704 9200     		lsl	r2, r2, #2
 3176 1706 9446     		mov	ip, r2
 3177 1708 BC44     		add	ip, ip, r7
 3178 170a 6344     		add	r3, r3, ip
 3179 170c 1B68     		ldr	r3, [r3]
 3180 170e 1D1D     		add	r5, r3, #4
 3181 1710 9C23     		mov	r3, #156
 3182 1712 9822     		mov	r2, #152
 3183 1714 9200     		lsl	r2, r2, #2
 3184 1716 9446     		mov	ip, r2
 3185 1718 BC44     		add	ip, ip, r7
 3186 171a 6344     		add	r3, r3, ip
 3187 171c 1B68     		ldr	r3, [r3]
 3188 171e BB64     		str	r3, [r7, #72]
 3189 1720 DB17     		asr	r3, r3, #31
 3190 1722 FB64     		str	r3, [r7, #76]
 3191 1724 B723     		mov	r3, #183
 3192 1726 9B00     		lsl	r3, r3, #2
 3193 1728 FB18     		add	r3, r7, r3
 3194 172a 1B68     		ldr	r3, [r3]
 3195 172c 3B64     		str	r3, [r7, #64]
 3196 172e DB17     		asr	r3, r3, #31
 3197 1730 7B64     		str	r3, [r7, #68]
 3198 1732 B86C     		ldr	r0, [r7, #72]
 3199 1734 F96C     		ldr	r1, [r7, #76]
 3200 1736 3A6C     		ldr	r2, [r7, #64]
 3201 1738 7B6C     		ldr	r3, [r7, #68]
 3202 173a FFF7FEFF 		bl	__aeabi_lmul
 3203 173e 031C     		mov	r3, r0
 3204 1740 0C1C     		mov	r4, r1
 3205 1742 2200     		asr	r2, r4, #0
 3206 1744 BA63     		str	r2, [r7, #56]
 3207 1746 E317     		asr	r3, r4, #31
 3208 1748 FB63     		str	r3, [r7, #60]
 3209 174a BE6B     		ldr	r6, [r7, #56]
 635:Source\TransformFunctions/arm_cfft_radix4_q31.c ****                                 ((int32_t) (((q63_t) r2 * si3) >> 32))) >> 1u;
 3210              		.loc 1 635 0 discriminator 3
 3211 174c A823     		mov	r3, #168
 3212 174e 9822     		mov	r2, #152
 3213 1750 9200     		lsl	r2, r2, #2
 3214 1752 9446     		mov	ip, r2
 3215 1754 BC44     		add	ip, ip, r7
 3216 1756 6344     		add	r3, r3, ip
 3217 1758 1B68     		ldr	r3, [r3]
 3218 175a 3B63     		str	r3, [r7, #48]
 3219 175c DB17     		asr	r3, r3, #31
ARM GAS  C:\Users\fneves\AppData\Local\Temp\ccD0n2wo.s 			page 69


 3220 175e 7B63     		str	r3, [r7, #52]
 3221 1760 B623     		mov	r3, #182
 3222 1762 9B00     		lsl	r3, r3, #2
 3223 1764 FB18     		add	r3, r7, r3
 3224 1766 1B68     		ldr	r3, [r3]
 3225 1768 BB62     		str	r3, [r7, #40]
 3226 176a DB17     		asr	r3, r3, #31
 3227 176c FB62     		str	r3, [r7, #44]
 3228 176e 386B     		ldr	r0, [r7, #48]
 3229 1770 796B     		ldr	r1, [r7, #52]
 3230 1772 BA6A     		ldr	r2, [r7, #40]
 3231 1774 FB6A     		ldr	r3, [r7, #44]
 3232 1776 FFF7FEFF 		bl	__aeabi_lmul
 3233 177a 031C     		mov	r3, r0
 3234 177c 0C1C     		mov	r4, r1
 3235 177e 2200     		asr	r2, r4, #0
 3236 1780 3A62     		str	r2, [r7, #32]
 3237 1782 E317     		asr	r3, r4, #31
 3238 1784 7B62     		str	r3, [r7, #36]
 3239 1786 3B6A     		ldr	r3, [r7, #32]
 634:Source\TransformFunctions/arm_cfft_radix4_q31.c ****                                 ((int32_t) (((q63_t) r2 * si3) >> 32))) >> 1u;
 3240              		.loc 1 634 0 discriminator 3
 3241 1788 F31A     		sub	r3, r6, r3
 3242              		.loc 1 635 0 discriminator 3
 3243 178a 5B10     		asr	r3, r3, #1
 634:Source\TransformFunctions/arm_cfft_radix4_q31.c ****                                 ((int32_t) (((q63_t) r2 * si3) >> 32))) >> 1u;
 3244              		.loc 1 634 0 discriminator 3
 3245 178c 2B60     		str	r3, [r5]
 636:Source\TransformFunctions/arm_cfft_radix4_q31.c ****         pSi3 += 2 * n1;
 3246              		.loc 1 636 0 discriminator 3
 3247 178e B023     		mov	r3, #176
 3248 1790 9822     		mov	r2, #152
 3249 1792 9200     		lsl	r2, r2, #2
 3250 1794 9446     		mov	ip, r2
 3251 1796 BC44     		add	ip, ip, r7
 3252 1798 6344     		add	r3, r3, ip
 3253 179a 1B68     		ldr	r3, [r3]
 3254 179c DA00     		lsl	r2, r3, #3
 3255 179e B423     		mov	r3, #180
 3256 17a0 9821     		mov	r1, #152
 3257 17a2 8900     		lsl	r1, r1, #2
 3258 17a4 8C46     		mov	ip, r1
 3259 17a6 BC44     		add	ip, ip, r7
 3260 17a8 6344     		add	r3, r3, ip
 3261 17aa 1B68     		ldr	r3, [r3]
 3262 17ac 9B18     		add	r3, r3, r2
 3263 17ae B422     		mov	r2, #180
 3264 17b0 9821     		mov	r1, #152
 3265 17b2 8900     		lsl	r1, r1, #2
 3266 17b4 8C46     		mov	ip, r1
 3267 17b6 BC44     		add	ip, ip, r7
 3268 17b8 6244     		add	r2, r2, ip
 3269 17ba 1360     		str	r3, [r2]
 558:Source\TransformFunctions/arm_cfft_radix4_q31.c ****       {
 3270              		.loc 1 558 0 discriminator 3
 3271 17bc CC23     		mov	r3, #204
 3272 17be 9822     		mov	r2, #152
ARM GAS  C:\Users\fneves\AppData\Local\Temp\ccD0n2wo.s 			page 70


 3273 17c0 9200     		lsl	r2, r2, #2
 3274 17c2 9446     		mov	ip, r2
 3275 17c4 BC44     		add	ip, ip, r7
 3276 17c6 6344     		add	r3, r3, ip
 3277 17c8 1A68     		ldr	r2, [r3]
 3278 17ca B023     		mov	r3, #176
 3279 17cc 9821     		mov	r1, #152
 3280 17ce 8900     		lsl	r1, r1, #2
 3281 17d0 8C46     		mov	ip, r1
 3282 17d2 BC44     		add	ip, ip, r7
 3283 17d4 6344     		add	r3, r3, ip
 3284 17d6 1B68     		ldr	r3, [r3]
 3285 17d8 D318     		add	r3, r2, r3
 3286 17da CC22     		mov	r2, #204
 3287 17dc 9821     		mov	r1, #152
 3288 17de 8900     		lsl	r1, r1, #2
 3289 17e0 8C46     		mov	ip, r1
 3290 17e2 BC44     		add	ip, ip, r7
 3291 17e4 6244     		add	r2, r2, ip
 3292 17e6 1360     		str	r3, [r2]
 3293              	.L9:
 558:Source\TransformFunctions/arm_cfft_radix4_q31.c ****       {
 3294              		.loc 1 558 0 is_stmt 0 discriminator 1
 3295 17e8 CC23     		mov	r3, #204
 3296 17ea 9822     		mov	r2, #152
 3297 17ec 9200     		lsl	r2, r2, #2
 3298 17ee 9446     		mov	ip, r2
 3299 17f0 BC44     		add	ip, ip, r7
 3300 17f2 6344     		add	r3, r3, ip
 3301 17f4 1A68     		ldr	r2, [r3]
 3302 17f6 9A23     		mov	r3, #154
 3303 17f8 9B00     		lsl	r3, r3, #2
 3304 17fa FB18     		add	r3, r7, r3
 3305 17fc 1B68     		ldr	r3, [r3]
 3306 17fe 9A42     		cmp	r2, r3
 3307 1800 01D2     		bcs	.LCB3101
 3308 1802 FFF79EFB 		bl	.L10	@far jump
 3309              	.LCB3101:
 539:Source\TransformFunctions/arm_cfft_radix4_q31.c ****     {
 3310              		.loc 1 539 0 is_stmt 1 discriminator 2
 3311 1806 C823     		mov	r3, #200
 3312 1808 9822     		mov	r2, #152
 3313 180a 9200     		lsl	r2, r2, #2
 3314 180c 9446     		mov	ip, r2
 3315 180e BC44     		add	ip, ip, r7
 3316 1810 6344     		add	r3, r3, ip
 3317 1812 1B68     		ldr	r3, [r3]
 3318 1814 0133     		add	r3, r3, #1
 3319 1816 C822     		mov	r2, #200
 3320 1818 9821     		mov	r1, #152
 3321 181a 8900     		lsl	r1, r1, #2
 3322 181c 8C46     		mov	ip, r1
 3323 181e BC44     		add	ip, ip, r7
 3324 1820 6244     		add	r2, r2, ip
 3325 1822 1360     		str	r3, [r2]
 3326              	.L8:
 539:Source\TransformFunctions/arm_cfft_radix4_q31.c ****     {
ARM GAS  C:\Users\fneves\AppData\Local\Temp\ccD0n2wo.s 			page 71


 3327              		.loc 1 539 0 is_stmt 0 discriminator 1
 3328 1824 D423     		mov	r3, #212
 3329 1826 9822     		mov	r2, #152
 3330 1828 9200     		lsl	r2, r2, #2
 3331 182a 9446     		mov	ip, r2
 3332 182c BC44     		add	ip, ip, r7
 3333 182e 6344     		add	r3, r3, ip
 3334 1830 1B68     		ldr	r3, [r3]
 3335 1832 5A1E     		sub	r2, r3, #1
 3336 1834 C823     		mov	r3, #200
 3337 1836 9821     		mov	r1, #152
 3338 1838 8900     		lsl	r1, r1, #2
 3339 183a 8C46     		mov	ip, r1
 3340 183c BC44     		add	ip, ip, r7
 3341 183e 6344     		add	r3, r3, ip
 3342 1840 1B68     		ldr	r3, [r3]
 3343 1842 9A42     		cmp	r2, r3
 3344 1844 01D3     		bcc	.LCB3135
 3345 1846 FFF759FA 		bl	.L11	@far jump
 3346              	.LCB3135:
 637:Source\TransformFunctions/arm_cfft_radix4_q31.c ****       }
 638:Source\TransformFunctions/arm_cfft_radix4_q31.c ****     }
 639:Source\TransformFunctions/arm_cfft_radix4_q31.c ****     twidCoefModifier <<= 2u;
 3347              		.loc 1 639 0 is_stmt 1 discriminator 2
 3348 184a 9823     		mov	r3, #152
 3349 184c 9B00     		lsl	r3, r3, #2
 3350 184e FB18     		add	r3, r7, r3
 3351 1850 1B68     		ldr	r3, [r3]
 3352 1852 9B00     		lsl	r3, r3, #2
 3353 1854 9822     		mov	r2, #152
 3354 1856 9200     		lsl	r2, r2, #2
 3355 1858 BA18     		add	r2, r7, r2
 3356 185a 1360     		str	r3, [r2]
 531:Source\TransformFunctions/arm_cfft_radix4_q31.c ****   {
 3357              		.loc 1 531 0 discriminator 2
 3358 185c C423     		mov	r3, #196
 3359 185e 9822     		mov	r2, #152
 3360 1860 9200     		lsl	r2, r2, #2
 3361 1862 9446     		mov	ip, r2
 3362 1864 BC44     		add	ip, ip, r7
 3363 1866 6344     		add	r3, r3, ip
 3364 1868 1B68     		ldr	r3, [r3]
 3365 186a 9B08     		lsr	r3, r3, #2
 3366 186c C422     		mov	r2, #196
 3367 186e 9821     		mov	r1, #152
 3368 1870 8900     		lsl	r1, r1, #2
 3369 1872 8C46     		mov	ip, r1
 3370 1874 BC44     		add	ip, ip, r7
 3371 1876 6244     		add	r2, r2, ip
 3372 1878 1360     		str	r3, [r2]
 3373              	.L7:
 531:Source\TransformFunctions/arm_cfft_radix4_q31.c ****   {
 3374              		.loc 1 531 0 is_stmt 0 discriminator 1
 3375 187a C423     		mov	r3, #196
 3376 187c 9822     		mov	r2, #152
 3377 187e 9200     		lsl	r2, r2, #2
 3378 1880 9446     		mov	ip, r2
ARM GAS  C:\Users\fneves\AppData\Local\Temp\ccD0n2wo.s 			page 72


 3379 1882 BC44     		add	ip, ip, r7
 3380 1884 6344     		add	r3, r3, ip
 3381 1886 1B68     		ldr	r3, [r3]
 3382 1888 042B     		cmp	r3, #4
 3383 188a 01D9     		bls	.LCB3170
 3384 188c FFF707FA 		bl	.L12	@far jump
 3385              	.LCB3170:
 640:Source\TransformFunctions/arm_cfft_radix4_q31.c ****   }
 641:Source\TransformFunctions/arm_cfft_radix4_q31.c **** #endif
 642:Source\TransformFunctions/arm_cfft_radix4_q31.c **** 
 643:Source\TransformFunctions/arm_cfft_radix4_q31.c ****   /* End of Middle stages process */
 644:Source\TransformFunctions/arm_cfft_radix4_q31.c **** 
 645:Source\TransformFunctions/arm_cfft_radix4_q31.c ****   /* data is in 11.21(q21) format for the 1024 point as there are 3 middle stages */
 646:Source\TransformFunctions/arm_cfft_radix4_q31.c ****   /* data is in 9.23(q23) format for the 256 point as there are 2 middle stages */
 647:Source\TransformFunctions/arm_cfft_radix4_q31.c ****   /* data is in 7.25(q25) format for the 64 point as there are 1 middle stage */
 648:Source\TransformFunctions/arm_cfft_radix4_q31.c ****   /* data is in 5.27(q27) format for the 16 point as there are no middle stages */
 649:Source\TransformFunctions/arm_cfft_radix4_q31.c **** 
 650:Source\TransformFunctions/arm_cfft_radix4_q31.c **** 
 651:Source\TransformFunctions/arm_cfft_radix4_q31.c ****   /* start of Last stage process */
 652:Source\TransformFunctions/arm_cfft_radix4_q31.c ****   /*  Initializations for the last stage */
 653:Source\TransformFunctions/arm_cfft_radix4_q31.c ****   j = fftLen >> 2;
 3386              		.loc 1 653 0 is_stmt 1
 3387 1890 9A23     		mov	r3, #154
 3388 1892 9B00     		lsl	r3, r3, #2
 3389 1894 FB18     		add	r3, r7, r3
 3390 1896 1B68     		ldr	r3, [r3]
 3391 1898 9B08     		lsr	r3, r3, #2
 3392 189a C822     		mov	r2, #200
 3393 189c 9821     		mov	r1, #152
 3394 189e 8900     		lsl	r1, r1, #2
 3395 18a0 8C46     		mov	ip, r1
 3396 18a2 BC44     		add	ip, ip, r7
 3397 18a4 6244     		add	r2, r2, ip
 3398 18a6 1360     		str	r3, [r2]
 654:Source\TransformFunctions/arm_cfft_radix4_q31.c ****   ptr1 = &pSrc[0];
 3399              		.loc 1 654 0
 3400 18a8 9B23     		mov	r3, #155
 3401 18aa 9B00     		lsl	r3, r3, #2
 3402 18ac FB18     		add	r3, r7, r3
 3403 18ae 1B68     		ldr	r3, [r3]
 3404 18b0 9D22     		mov	r2, #157
 3405 18b2 9200     		lsl	r2, r2, #2
 3406 18b4 BA18     		add	r2, r7, r2
 3407 18b6 1360     		str	r3, [r2]
 3408              	.L13:
 655:Source\TransformFunctions/arm_cfft_radix4_q31.c **** 
 656:Source\TransformFunctions/arm_cfft_radix4_q31.c ****   /*  Calculations of last stage */
 657:Source\TransformFunctions/arm_cfft_radix4_q31.c ****   do
 658:Source\TransformFunctions/arm_cfft_radix4_q31.c ****   {
 659:Source\TransformFunctions/arm_cfft_radix4_q31.c **** 
 660:Source\TransformFunctions/arm_cfft_radix4_q31.c **** #ifndef ARM_MATH_BIG_ENDIAN
 661:Source\TransformFunctions/arm_cfft_radix4_q31.c **** 
 662:Source\TransformFunctions/arm_cfft_radix4_q31.c ****     /* Read xa (real), ya(imag) input */
 663:Source\TransformFunctions/arm_cfft_radix4_q31.c ****     xaya = *__SIMD64(ptr1)++;
 3409              		.loc 1 663 0 discriminator 1
 3410 18b8 1423     		mov	r3, #20
 3411 18ba 9822     		mov	r2, #152
ARM GAS  C:\Users\fneves\AppData\Local\Temp\ccD0n2wo.s 			page 73


 3412 18bc 9200     		lsl	r2, r2, #2
 3413 18be 9446     		mov	ip, r2
 3414 18c0 BC44     		add	ip, ip, r7
 3415 18c2 6344     		add	r3, r3, ip
 3416 18c4 1A68     		ldr	r2, [r3]
 3417 18c6 111C     		mov	r1, r2
 3418 18c8 0831     		add	r1, r1, #8
 3419 18ca 1960     		str	r1, [r3]
 3420 18cc 1368     		ldr	r3, [r2]
 3421 18ce 5468     		ldr	r4, [r2, #4]
 3422 18d0 B422     		mov	r2, #180
 3423 18d2 9200     		lsl	r2, r2, #2
 3424 18d4 BA18     		add	r2, r7, r2
 3425 18d6 1360     		str	r3, [r2]
 3426 18d8 5460     		str	r4, [r2, #4]
 664:Source\TransformFunctions/arm_cfft_radix4_q31.c ****     xa = (q31_t) xaya;
 3427              		.loc 1 664 0 discriminator 1
 3428 18da B423     		mov	r3, #180
 3429 18dc 9B00     		lsl	r3, r3, #2
 3430 18de FB18     		add	r3, r7, r3
 3431 18e0 1B68     		ldr	r3, [r3]
 3432 18e2 B322     		mov	r2, #179
 3433 18e4 9200     		lsl	r2, r2, #2
 3434 18e6 BA18     		add	r2, r7, r2
 3435 18e8 1360     		str	r3, [r2]
 665:Source\TransformFunctions/arm_cfft_radix4_q31.c ****     ya = (q31_t) (xaya >> 32);
 3436              		.loc 1 665 0 discriminator 1
 3437 18ea B523     		mov	r3, #181
 3438 18ec 9B00     		lsl	r3, r3, #2
 3439 18ee FB18     		add	r3, r7, r3
 3440 18f0 1B68     		ldr	r3, [r3]
 3441 18f2 1B00     		asr	r3, r3, #0
 3442 18f4 BB61     		str	r3, [r7, #24]
 3443 18f6 B523     		mov	r3, #181
 3444 18f8 9B00     		lsl	r3, r3, #2
 3445 18fa FB18     		add	r3, r7, r3
 3446 18fc 1B68     		ldr	r3, [r3]
 3447 18fe DB17     		asr	r3, r3, #31
 3448 1900 FB61     		str	r3, [r7, #28]
 3449 1902 BB69     		ldr	r3, [r7, #24]
 3450 1904 B222     		mov	r2, #178
 3451 1906 9200     		lsl	r2, r2, #2
 3452 1908 BA18     		add	r2, r7, r2
 3453 190a 1360     		str	r3, [r2]
 666:Source\TransformFunctions/arm_cfft_radix4_q31.c **** 
 667:Source\TransformFunctions/arm_cfft_radix4_q31.c ****     /* Read xb (real), yb(imag) input */
 668:Source\TransformFunctions/arm_cfft_radix4_q31.c ****     xbyb = *__SIMD64(ptr1)++;
 3454              		.loc 1 668 0 discriminator 1
 3455 190c 1423     		mov	r3, #20
 3456 190e 9822     		mov	r2, #152
 3457 1910 9200     		lsl	r2, r2, #2
 3458 1912 9446     		mov	ip, r2
 3459 1914 BC44     		add	ip, ip, r7
 3460 1916 6344     		add	r3, r3, ip
 3461 1918 1A68     		ldr	r2, [r3]
 3462 191a 111C     		mov	r1, r2
 3463 191c 0831     		add	r1, r1, #8
ARM GAS  C:\Users\fneves\AppData\Local\Temp\ccD0n2wo.s 			page 74


 3464 191e 1960     		str	r1, [r3]
 3465 1920 1368     		ldr	r3, [r2]
 3466 1922 5468     		ldr	r4, [r2, #4]
 3467 1924 B022     		mov	r2, #176
 3468 1926 9200     		lsl	r2, r2, #2
 3469 1928 BA18     		add	r2, r7, r2
 3470 192a 1360     		str	r3, [r2]
 3471 192c 5460     		str	r4, [r2, #4]
 669:Source\TransformFunctions/arm_cfft_radix4_q31.c ****     xb = (q31_t) xbyb;
 3472              		.loc 1 669 0 discriminator 1
 3473 192e B023     		mov	r3, #176
 3474 1930 9B00     		lsl	r3, r3, #2
 3475 1932 FB18     		add	r3, r7, r3
 3476 1934 1B68     		ldr	r3, [r3]
 3477 1936 AF22     		mov	r2, #175
 3478 1938 9200     		lsl	r2, r2, #2
 3479 193a BA18     		add	r2, r7, r2
 3480 193c 1360     		str	r3, [r2]
 670:Source\TransformFunctions/arm_cfft_radix4_q31.c ****     yb = (q31_t) (xbyb >> 32);
 3481              		.loc 1 670 0 discriminator 1
 3482 193e B123     		mov	r3, #177
 3483 1940 9B00     		lsl	r3, r3, #2
 3484 1942 FB18     		add	r3, r7, r3
 3485 1944 1B68     		ldr	r3, [r3]
 3486 1946 1B00     		asr	r3, r3, #0
 3487 1948 3B61     		str	r3, [r7, #16]
 3488 194a B123     		mov	r3, #177
 3489 194c 9B00     		lsl	r3, r3, #2
 3490 194e FB18     		add	r3, r7, r3
 3491 1950 1B68     		ldr	r3, [r3]
 3492 1952 DB17     		asr	r3, r3, #31
 3493 1954 7B61     		str	r3, [r7, #20]
 3494 1956 3B69     		ldr	r3, [r7, #16]
 3495 1958 AE22     		mov	r2, #174
 3496 195a 9200     		lsl	r2, r2, #2
 3497 195c BA18     		add	r2, r7, r2
 3498 195e 1360     		str	r3, [r2]
 671:Source\TransformFunctions/arm_cfft_radix4_q31.c **** 
 672:Source\TransformFunctions/arm_cfft_radix4_q31.c ****     /* Read xc (real), yc(imag) input */
 673:Source\TransformFunctions/arm_cfft_radix4_q31.c ****     xcyc = *__SIMD64(ptr1)++;
 3499              		.loc 1 673 0 discriminator 1
 3500 1960 1423     		mov	r3, #20
 3501 1962 9822     		mov	r2, #152
 3502 1964 9200     		lsl	r2, r2, #2
 3503 1966 9446     		mov	ip, r2
 3504 1968 BC44     		add	ip, ip, r7
 3505 196a 6344     		add	r3, r3, ip
 3506 196c 1A68     		ldr	r2, [r3]
 3507 196e 111C     		mov	r1, r2
 3508 1970 0831     		add	r1, r1, #8
 3509 1972 1960     		str	r1, [r3]
 3510 1974 1368     		ldr	r3, [r2]
 3511 1976 5468     		ldr	r4, [r2, #4]
 3512 1978 AC22     		mov	r2, #172
 3513 197a 9200     		lsl	r2, r2, #2
 3514 197c BA18     		add	r2, r7, r2
 3515 197e 1360     		str	r3, [r2]
ARM GAS  C:\Users\fneves\AppData\Local\Temp\ccD0n2wo.s 			page 75


 3516 1980 5460     		str	r4, [r2, #4]
 674:Source\TransformFunctions/arm_cfft_radix4_q31.c ****     xc = (q31_t) xcyc;
 3517              		.loc 1 674 0 discriminator 1
 3518 1982 AC23     		mov	r3, #172
 3519 1984 9B00     		lsl	r3, r3, #2
 3520 1986 FB18     		add	r3, r7, r3
 3521 1988 1B68     		ldr	r3, [r3]
 3522 198a AB22     		mov	r2, #171
 3523 198c 9200     		lsl	r2, r2, #2
 3524 198e BA18     		add	r2, r7, r2
 3525 1990 1360     		str	r3, [r2]
 675:Source\TransformFunctions/arm_cfft_radix4_q31.c ****     yc = (q31_t) (xcyc >> 32);
 3526              		.loc 1 675 0 discriminator 1
 3527 1992 AD23     		mov	r3, #173
 3528 1994 9B00     		lsl	r3, r3, #2
 3529 1996 FB18     		add	r3, r7, r3
 3530 1998 1B68     		ldr	r3, [r3]
 3531 199a 1B00     		asr	r3, r3, #0
 3532 199c BB60     		str	r3, [r7, #8]
 3533 199e AD23     		mov	r3, #173
 3534 19a0 9B00     		lsl	r3, r3, #2
 3535 19a2 FB18     		add	r3, r7, r3
 3536 19a4 1B68     		ldr	r3, [r3]
 3537 19a6 DB17     		asr	r3, r3, #31
 3538 19a8 FB60     		str	r3, [r7, #12]
 3539 19aa BB68     		ldr	r3, [r7, #8]
 3540 19ac AA22     		mov	r2, #170
 3541 19ae 9200     		lsl	r2, r2, #2
 3542 19b0 BA18     		add	r2, r7, r2
 3543 19b2 1360     		str	r3, [r2]
 676:Source\TransformFunctions/arm_cfft_radix4_q31.c **** 
 677:Source\TransformFunctions/arm_cfft_radix4_q31.c ****     /* Read xc (real), yc(imag) input */
 678:Source\TransformFunctions/arm_cfft_radix4_q31.c ****     xdyd = *__SIMD64(ptr1)++;
 3544              		.loc 1 678 0 discriminator 1
 3545 19b4 1423     		mov	r3, #20
 3546 19b6 9822     		mov	r2, #152
 3547 19b8 9200     		lsl	r2, r2, #2
 3548 19ba 9446     		mov	ip, r2
 3549 19bc BC44     		add	ip, ip, r7
 3550 19be 6344     		add	r3, r3, ip
 3551 19c0 1A68     		ldr	r2, [r3]
 3552 19c2 111C     		mov	r1, r2
 3553 19c4 0831     		add	r1, r1, #8
 3554 19c6 1960     		str	r1, [r3]
 3555 19c8 1368     		ldr	r3, [r2]
 3556 19ca 5468     		ldr	r4, [r2, #4]
 3557 19cc A822     		mov	r2, #168
 3558 19ce 9200     		lsl	r2, r2, #2
 3559 19d0 BA18     		add	r2, r7, r2
 3560 19d2 1360     		str	r3, [r2]
 3561 19d4 5460     		str	r4, [r2, #4]
 679:Source\TransformFunctions/arm_cfft_radix4_q31.c ****     xd = (q31_t) xdyd;
 3562              		.loc 1 679 0 discriminator 1
 3563 19d6 A823     		mov	r3, #168
 3564 19d8 9B00     		lsl	r3, r3, #2
 3565 19da FB18     		add	r3, r7, r3
 3566 19dc 1B68     		ldr	r3, [r3]
ARM GAS  C:\Users\fneves\AppData\Local\Temp\ccD0n2wo.s 			page 76


 3567 19de A722     		mov	r2, #167
 3568 19e0 9200     		lsl	r2, r2, #2
 3569 19e2 BA18     		add	r2, r7, r2
 3570 19e4 1360     		str	r3, [r2]
 680:Source\TransformFunctions/arm_cfft_radix4_q31.c ****     yd = (q31_t) (xdyd >> 32);
 3571              		.loc 1 680 0 discriminator 1
 3572 19e6 A923     		mov	r3, #169
 3573 19e8 9B00     		lsl	r3, r3, #2
 3574 19ea FB18     		add	r3, r7, r3
 3575 19ec 1B68     		ldr	r3, [r3]
 3576 19ee 1B00     		asr	r3, r3, #0
 3577 19f0 3B60     		str	r3, [r7]
 3578 19f2 A923     		mov	r3, #169
 3579 19f4 9B00     		lsl	r3, r3, #2
 3580 19f6 FB18     		add	r3, r7, r3
 3581 19f8 1B68     		ldr	r3, [r3]
 3582 19fa DB17     		asr	r3, r3, #31
 3583 19fc 7B60     		str	r3, [r7, #4]
 3584 19fe 3B68     		ldr	r3, [r7]
 3585 1a00 A622     		mov	r2, #166
 3586 1a02 9200     		lsl	r2, r2, #2
 3587 1a04 BA18     		add	r2, r7, r2
 3588 1a06 1360     		str	r3, [r2]
 681:Source\TransformFunctions/arm_cfft_radix4_q31.c **** 
 682:Source\TransformFunctions/arm_cfft_radix4_q31.c **** #else
 683:Source\TransformFunctions/arm_cfft_radix4_q31.c **** 
 684:Source\TransformFunctions/arm_cfft_radix4_q31.c ****     /* Read xa (real), ya(imag) input */
 685:Source\TransformFunctions/arm_cfft_radix4_q31.c ****     xaya = *__SIMD64(ptr1)++;
 686:Source\TransformFunctions/arm_cfft_radix4_q31.c ****     ya = (q31_t) xaya;
 687:Source\TransformFunctions/arm_cfft_radix4_q31.c ****     xa = (q31_t) (xaya >> 32);
 688:Source\TransformFunctions/arm_cfft_radix4_q31.c **** 
 689:Source\TransformFunctions/arm_cfft_radix4_q31.c ****     /* Read xb (real), yb(imag) input */
 690:Source\TransformFunctions/arm_cfft_radix4_q31.c ****     xbyb = *__SIMD64(ptr1)++;
 691:Source\TransformFunctions/arm_cfft_radix4_q31.c ****     yb = (q31_t) xbyb;
 692:Source\TransformFunctions/arm_cfft_radix4_q31.c ****     xb = (q31_t) (xbyb >> 32);
 693:Source\TransformFunctions/arm_cfft_radix4_q31.c **** 
 694:Source\TransformFunctions/arm_cfft_radix4_q31.c ****     /* Read xc (real), yc(imag) input */
 695:Source\TransformFunctions/arm_cfft_radix4_q31.c ****     xcyc = *__SIMD64(ptr1)++;
 696:Source\TransformFunctions/arm_cfft_radix4_q31.c ****     yc = (q31_t) xcyc;
 697:Source\TransformFunctions/arm_cfft_radix4_q31.c ****     xc = (q31_t) (xcyc >> 32);
 698:Source\TransformFunctions/arm_cfft_radix4_q31.c **** 
 699:Source\TransformFunctions/arm_cfft_radix4_q31.c ****     /* Read xc (real), yc(imag) input */
 700:Source\TransformFunctions/arm_cfft_radix4_q31.c ****     xdyd = *__SIMD64(ptr1)++;
 701:Source\TransformFunctions/arm_cfft_radix4_q31.c ****     yd = (q31_t) xdyd;
 702:Source\TransformFunctions/arm_cfft_radix4_q31.c ****     xd = (q31_t) (xdyd >> 32);
 703:Source\TransformFunctions/arm_cfft_radix4_q31.c **** 
 704:Source\TransformFunctions/arm_cfft_radix4_q31.c **** 
 705:Source\TransformFunctions/arm_cfft_radix4_q31.c **** #endif
 706:Source\TransformFunctions/arm_cfft_radix4_q31.c **** 
 707:Source\TransformFunctions/arm_cfft_radix4_q31.c ****     /* xa' = xa + xb + xc + xd */
 708:Source\TransformFunctions/arm_cfft_radix4_q31.c ****     xa_out = xa + xb + xc + xd;
 3589              		.loc 1 708 0 discriminator 1
 3590 1a08 B323     		mov	r3, #179
 3591 1a0a 9B00     		lsl	r3, r3, #2
 3592 1a0c FB18     		add	r3, r7, r3
 3593 1a0e 1A68     		ldr	r2, [r3]
 3594 1a10 AF23     		mov	r3, #175
ARM GAS  C:\Users\fneves\AppData\Local\Temp\ccD0n2wo.s 			page 77


 3595 1a12 9B00     		lsl	r3, r3, #2
 3596 1a14 FB18     		add	r3, r7, r3
 3597 1a16 1B68     		ldr	r3, [r3]
 3598 1a18 D218     		add	r2, r2, r3
 3599 1a1a AB23     		mov	r3, #171
 3600 1a1c 9B00     		lsl	r3, r3, #2
 3601 1a1e FB18     		add	r3, r7, r3
 3602 1a20 1B68     		ldr	r3, [r3]
 3603 1a22 D218     		add	r2, r2, r3
 3604 1a24 A723     		mov	r3, #167
 3605 1a26 9B00     		lsl	r3, r3, #2
 3606 1a28 FB18     		add	r3, r7, r3
 3607 1a2a 1B68     		ldr	r3, [r3]
 3608 1a2c D318     		add	r3, r2, r3
 3609 1a2e A522     		mov	r2, #165
 3610 1a30 9200     		lsl	r2, r2, #2
 3611 1a32 BA18     		add	r2, r7, r2
 3612 1a34 1360     		str	r3, [r2]
 709:Source\TransformFunctions/arm_cfft_radix4_q31.c **** 
 710:Source\TransformFunctions/arm_cfft_radix4_q31.c ****     /* ya' = ya + yb + yc + yd */
 711:Source\TransformFunctions/arm_cfft_radix4_q31.c ****     ya_out = ya + yb + yc + yd;
 3613              		.loc 1 711 0 discriminator 1
 3614 1a36 B223     		mov	r3, #178
 3615 1a38 9B00     		lsl	r3, r3, #2
 3616 1a3a FB18     		add	r3, r7, r3
 3617 1a3c 1A68     		ldr	r2, [r3]
 3618 1a3e AE23     		mov	r3, #174
 3619 1a40 9B00     		lsl	r3, r3, #2
 3620 1a42 FB18     		add	r3, r7, r3
 3621 1a44 1B68     		ldr	r3, [r3]
 3622 1a46 D218     		add	r2, r2, r3
 3623 1a48 AA23     		mov	r3, #170
 3624 1a4a 9B00     		lsl	r3, r3, #2
 3625 1a4c FB18     		add	r3, r7, r3
 3626 1a4e 1B68     		ldr	r3, [r3]
 3627 1a50 D218     		add	r2, r2, r3
 3628 1a52 A623     		mov	r3, #166
 3629 1a54 9B00     		lsl	r3, r3, #2
 3630 1a56 FB18     		add	r3, r7, r3
 3631 1a58 1B68     		ldr	r3, [r3]
 3632 1a5a D318     		add	r3, r2, r3
 3633 1a5c A422     		mov	r2, #164
 3634 1a5e 9200     		lsl	r2, r2, #2
 3635 1a60 BA18     		add	r2, r7, r2
 3636 1a62 1360     		str	r3, [r2]
 712:Source\TransformFunctions/arm_cfft_radix4_q31.c **** 
 713:Source\TransformFunctions/arm_cfft_radix4_q31.c ****     /* pointer updation for writing */
 714:Source\TransformFunctions/arm_cfft_radix4_q31.c ****     ptr1 = ptr1 - 8u;
 3637              		.loc 1 714 0 discriminator 1
 3638 1a64 9D23     		mov	r3, #157
 3639 1a66 9B00     		lsl	r3, r3, #2
 3640 1a68 FB18     		add	r3, r7, r3
 3641 1a6a 1B68     		ldr	r3, [r3]
 3642 1a6c 203B     		sub	r3, r3, #32
 3643 1a6e 9D22     		mov	r2, #157
 3644 1a70 9200     		lsl	r2, r2, #2
 3645 1a72 BA18     		add	r2, r7, r2
ARM GAS  C:\Users\fneves\AppData\Local\Temp\ccD0n2wo.s 			page 78


 3646 1a74 1360     		str	r3, [r2]
 715:Source\TransformFunctions/arm_cfft_radix4_q31.c **** 
 716:Source\TransformFunctions/arm_cfft_radix4_q31.c ****     /* writing xa' and ya' */
 717:Source\TransformFunctions/arm_cfft_radix4_q31.c ****     *ptr1++ = xa_out;
 3647              		.loc 1 717 0 discriminator 1
 3648 1a76 9D23     		mov	r3, #157
 3649 1a78 9B00     		lsl	r3, r3, #2
 3650 1a7a FB18     		add	r3, r7, r3
 3651 1a7c 1B68     		ldr	r3, [r3]
 3652 1a7e 1A1D     		add	r2, r3, #4
 3653 1a80 9D21     		mov	r1, #157
 3654 1a82 8900     		lsl	r1, r1, #2
 3655 1a84 7918     		add	r1, r7, r1
 3656 1a86 0A60     		str	r2, [r1]
 3657 1a88 A522     		mov	r2, #165
 3658 1a8a 9200     		lsl	r2, r2, #2
 3659 1a8c BA18     		add	r2, r7, r2
 3660 1a8e 1268     		ldr	r2, [r2]
 3661 1a90 1A60     		str	r2, [r3]
 718:Source\TransformFunctions/arm_cfft_radix4_q31.c ****     *ptr1++ = ya_out;
 3662              		.loc 1 718 0 discriminator 1
 3663 1a92 9D23     		mov	r3, #157
 3664 1a94 9B00     		lsl	r3, r3, #2
 3665 1a96 FB18     		add	r3, r7, r3
 3666 1a98 1B68     		ldr	r3, [r3]
 3667 1a9a 1A1D     		add	r2, r3, #4
 3668 1a9c 9D21     		mov	r1, #157
 3669 1a9e 8900     		lsl	r1, r1, #2
 3670 1aa0 7918     		add	r1, r7, r1
 3671 1aa2 0A60     		str	r2, [r1]
 3672 1aa4 A422     		mov	r2, #164
 3673 1aa6 9200     		lsl	r2, r2, #2
 3674 1aa8 BA18     		add	r2, r7, r2
 3675 1aaa 1268     		ldr	r2, [r2]
 3676 1aac 1A60     		str	r2, [r3]
 719:Source\TransformFunctions/arm_cfft_radix4_q31.c **** 
 720:Source\TransformFunctions/arm_cfft_radix4_q31.c ****     xc_out = (xa - xb + xc - xd);
 3677              		.loc 1 720 0 discriminator 1
 3678 1aae B323     		mov	r3, #179
 3679 1ab0 9B00     		lsl	r3, r3, #2
 3680 1ab2 FB18     		add	r3, r7, r3
 3681 1ab4 1A68     		ldr	r2, [r3]
 3682 1ab6 AF23     		mov	r3, #175
 3683 1ab8 9B00     		lsl	r3, r3, #2
 3684 1aba FB18     		add	r3, r7, r3
 3685 1abc 1B68     		ldr	r3, [r3]
 3686 1abe D21A     		sub	r2, r2, r3
 3687 1ac0 AB23     		mov	r3, #171
 3688 1ac2 9B00     		lsl	r3, r3, #2
 3689 1ac4 FB18     		add	r3, r7, r3
 3690 1ac6 1B68     		ldr	r3, [r3]
 3691 1ac8 D218     		add	r2, r2, r3
 3692 1aca A723     		mov	r3, #167
 3693 1acc 9B00     		lsl	r3, r3, #2
 3694 1ace FB18     		add	r3, r7, r3
 3695 1ad0 1B68     		ldr	r3, [r3]
 3696 1ad2 D31A     		sub	r3, r2, r3
ARM GAS  C:\Users\fneves\AppData\Local\Temp\ccD0n2wo.s 			page 79


 3697 1ad4 A322     		mov	r2, #163
 3698 1ad6 9200     		lsl	r2, r2, #2
 3699 1ad8 BA18     		add	r2, r7, r2
 3700 1ada 1360     		str	r3, [r2]
 721:Source\TransformFunctions/arm_cfft_radix4_q31.c ****     yc_out = (ya - yb + yc - yd);
 3701              		.loc 1 721 0 discriminator 1
 3702 1adc B223     		mov	r3, #178
 3703 1ade 9B00     		lsl	r3, r3, #2
 3704 1ae0 FB18     		add	r3, r7, r3
 3705 1ae2 1A68     		ldr	r2, [r3]
 3706 1ae4 AE23     		mov	r3, #174
 3707 1ae6 9B00     		lsl	r3, r3, #2
 3708 1ae8 FB18     		add	r3, r7, r3
 3709 1aea 1B68     		ldr	r3, [r3]
 3710 1aec D21A     		sub	r2, r2, r3
 3711 1aee AA23     		mov	r3, #170
 3712 1af0 9B00     		lsl	r3, r3, #2
 3713 1af2 FB18     		add	r3, r7, r3
 3714 1af4 1B68     		ldr	r3, [r3]
 3715 1af6 D218     		add	r2, r2, r3
 3716 1af8 A623     		mov	r3, #166
 3717 1afa 9B00     		lsl	r3, r3, #2
 3718 1afc FB18     		add	r3, r7, r3
 3719 1afe 1B68     		ldr	r3, [r3]
 3720 1b00 D31A     		sub	r3, r2, r3
 3721 1b02 A222     		mov	r2, #162
 3722 1b04 9200     		lsl	r2, r2, #2
 3723 1b06 BA18     		add	r2, r7, r2
 3724 1b08 1360     		str	r3, [r2]
 722:Source\TransformFunctions/arm_cfft_radix4_q31.c **** 
 723:Source\TransformFunctions/arm_cfft_radix4_q31.c ****     /* writing xc' and yc' */
 724:Source\TransformFunctions/arm_cfft_radix4_q31.c ****     *ptr1++ = xc_out;
 3725              		.loc 1 724 0 discriminator 1
 3726 1b0a 9D23     		mov	r3, #157
 3727 1b0c 9B00     		lsl	r3, r3, #2
 3728 1b0e FB18     		add	r3, r7, r3
 3729 1b10 1B68     		ldr	r3, [r3]
 3730 1b12 1A1D     		add	r2, r3, #4
 3731 1b14 9D21     		mov	r1, #157
 3732 1b16 8900     		lsl	r1, r1, #2
 3733 1b18 7918     		add	r1, r7, r1
 3734 1b1a 0A60     		str	r2, [r1]
 3735 1b1c A322     		mov	r2, #163
 3736 1b1e 9200     		lsl	r2, r2, #2
 3737 1b20 BA18     		add	r2, r7, r2
 3738 1b22 1268     		ldr	r2, [r2]
 3739 1b24 1A60     		str	r2, [r3]
 725:Source\TransformFunctions/arm_cfft_radix4_q31.c ****     *ptr1++ = yc_out;
 3740              		.loc 1 725 0 discriminator 1
 3741 1b26 9D23     		mov	r3, #157
 3742 1b28 9B00     		lsl	r3, r3, #2
 3743 1b2a FB18     		add	r3, r7, r3
 3744 1b2c 1B68     		ldr	r3, [r3]
 3745 1b2e 1A1D     		add	r2, r3, #4
 3746 1b30 9D21     		mov	r1, #157
 3747 1b32 8900     		lsl	r1, r1, #2
 3748 1b34 7918     		add	r1, r7, r1
ARM GAS  C:\Users\fneves\AppData\Local\Temp\ccD0n2wo.s 			page 80


 3749 1b36 0A60     		str	r2, [r1]
 3750 1b38 A222     		mov	r2, #162
 3751 1b3a 9200     		lsl	r2, r2, #2
 3752 1b3c BA18     		add	r2, r7, r2
 3753 1b3e 1268     		ldr	r2, [r2]
 3754 1b40 1A60     		str	r2, [r3]
 726:Source\TransformFunctions/arm_cfft_radix4_q31.c **** 
 727:Source\TransformFunctions/arm_cfft_radix4_q31.c ****     xb_out = (xa + yb - xc - yd);
 3755              		.loc 1 727 0 discriminator 1
 3756 1b42 B323     		mov	r3, #179
 3757 1b44 9B00     		lsl	r3, r3, #2
 3758 1b46 FB18     		add	r3, r7, r3
 3759 1b48 1A68     		ldr	r2, [r3]
 3760 1b4a AE23     		mov	r3, #174
 3761 1b4c 9B00     		lsl	r3, r3, #2
 3762 1b4e FB18     		add	r3, r7, r3
 3763 1b50 1B68     		ldr	r3, [r3]
 3764 1b52 D218     		add	r2, r2, r3
 3765 1b54 AB23     		mov	r3, #171
 3766 1b56 9B00     		lsl	r3, r3, #2
 3767 1b58 FB18     		add	r3, r7, r3
 3768 1b5a 1B68     		ldr	r3, [r3]
 3769 1b5c D21A     		sub	r2, r2, r3
 3770 1b5e A623     		mov	r3, #166
 3771 1b60 9B00     		lsl	r3, r3, #2
 3772 1b62 FB18     		add	r3, r7, r3
 3773 1b64 1B68     		ldr	r3, [r3]
 3774 1b66 D31A     		sub	r3, r2, r3
 3775 1b68 A122     		mov	r2, #161
 3776 1b6a 9200     		lsl	r2, r2, #2
 3777 1b6c BA18     		add	r2, r7, r2
 3778 1b6e 1360     		str	r3, [r2]
 728:Source\TransformFunctions/arm_cfft_radix4_q31.c ****     yb_out = (ya - xb - yc + xd);
 3779              		.loc 1 728 0 discriminator 1
 3780 1b70 B223     		mov	r3, #178
 3781 1b72 9B00     		lsl	r3, r3, #2
 3782 1b74 FB18     		add	r3, r7, r3
 3783 1b76 1A68     		ldr	r2, [r3]
 3784 1b78 AF23     		mov	r3, #175
 3785 1b7a 9B00     		lsl	r3, r3, #2
 3786 1b7c FB18     		add	r3, r7, r3
 3787 1b7e 1B68     		ldr	r3, [r3]
 3788 1b80 D21A     		sub	r2, r2, r3
 3789 1b82 AA23     		mov	r3, #170
 3790 1b84 9B00     		lsl	r3, r3, #2
 3791 1b86 FB18     		add	r3, r7, r3
 3792 1b88 1B68     		ldr	r3, [r3]
 3793 1b8a D21A     		sub	r2, r2, r3
 3794 1b8c A723     		mov	r3, #167
 3795 1b8e 9B00     		lsl	r3, r3, #2
 3796 1b90 FB18     		add	r3, r7, r3
 3797 1b92 1B68     		ldr	r3, [r3]
 3798 1b94 D318     		add	r3, r2, r3
 3799 1b96 A022     		mov	r2, #160
 3800 1b98 9200     		lsl	r2, r2, #2
 3801 1b9a BA18     		add	r2, r7, r2
 3802 1b9c 1360     		str	r3, [r2]
ARM GAS  C:\Users\fneves\AppData\Local\Temp\ccD0n2wo.s 			page 81


 729:Source\TransformFunctions/arm_cfft_radix4_q31.c **** 
 730:Source\TransformFunctions/arm_cfft_radix4_q31.c ****     /* writing xb' and yb' */
 731:Source\TransformFunctions/arm_cfft_radix4_q31.c ****     *ptr1++ = xb_out;
 3803              		.loc 1 731 0 discriminator 1
 3804 1b9e 9D23     		mov	r3, #157
 3805 1ba0 9B00     		lsl	r3, r3, #2
 3806 1ba2 FB18     		add	r3, r7, r3
 3807 1ba4 1B68     		ldr	r3, [r3]
 3808 1ba6 1A1D     		add	r2, r3, #4
 3809 1ba8 9D21     		mov	r1, #157
 3810 1baa 8900     		lsl	r1, r1, #2
 3811 1bac 7918     		add	r1, r7, r1
 3812 1bae 0A60     		str	r2, [r1]
 3813 1bb0 A122     		mov	r2, #161
 3814 1bb2 9200     		lsl	r2, r2, #2
 3815 1bb4 BA18     		add	r2, r7, r2
 3816 1bb6 1268     		ldr	r2, [r2]
 3817 1bb8 1A60     		str	r2, [r3]
 732:Source\TransformFunctions/arm_cfft_radix4_q31.c ****     *ptr1++ = yb_out;
 3818              		.loc 1 732 0 discriminator 1
 3819 1bba 9D23     		mov	r3, #157
 3820 1bbc 9B00     		lsl	r3, r3, #2
 3821 1bbe FB18     		add	r3, r7, r3
 3822 1bc0 1B68     		ldr	r3, [r3]
 3823 1bc2 1A1D     		add	r2, r3, #4
 3824 1bc4 9D21     		mov	r1, #157
 3825 1bc6 8900     		lsl	r1, r1, #2
 3826 1bc8 7918     		add	r1, r7, r1
 3827 1bca 0A60     		str	r2, [r1]
 3828 1bcc A022     		mov	r2, #160
 3829 1bce 9200     		lsl	r2, r2, #2
 3830 1bd0 BA18     		add	r2, r7, r2
 3831 1bd2 1268     		ldr	r2, [r2]
 3832 1bd4 1A60     		str	r2, [r3]
 733:Source\TransformFunctions/arm_cfft_radix4_q31.c **** 
 734:Source\TransformFunctions/arm_cfft_radix4_q31.c ****     xd_out = (xa - yb - xc + yd);
 3833              		.loc 1 734 0 discriminator 1
 3834 1bd6 B323     		mov	r3, #179
 3835 1bd8 9B00     		lsl	r3, r3, #2
 3836 1bda FB18     		add	r3, r7, r3
 3837 1bdc 1A68     		ldr	r2, [r3]
 3838 1bde AE23     		mov	r3, #174
 3839 1be0 9B00     		lsl	r3, r3, #2
 3840 1be2 FB18     		add	r3, r7, r3
 3841 1be4 1B68     		ldr	r3, [r3]
 3842 1be6 D21A     		sub	r2, r2, r3
 3843 1be8 AB23     		mov	r3, #171
 3844 1bea 9B00     		lsl	r3, r3, #2
 3845 1bec FB18     		add	r3, r7, r3
 3846 1bee 1B68     		ldr	r3, [r3]
 3847 1bf0 D21A     		sub	r2, r2, r3
 3848 1bf2 A623     		mov	r3, #166
 3849 1bf4 9B00     		lsl	r3, r3, #2
 3850 1bf6 FB18     		add	r3, r7, r3
 3851 1bf8 1B68     		ldr	r3, [r3]
 3852 1bfa D318     		add	r3, r2, r3
 3853 1bfc 9F22     		mov	r2, #159
ARM GAS  C:\Users\fneves\AppData\Local\Temp\ccD0n2wo.s 			page 82


 3854 1bfe 9200     		lsl	r2, r2, #2
 3855 1c00 BA18     		add	r2, r7, r2
 3856 1c02 1360     		str	r3, [r2]
 735:Source\TransformFunctions/arm_cfft_radix4_q31.c ****     yd_out = (ya + xb - yc - xd);
 3857              		.loc 1 735 0 discriminator 1
 3858 1c04 B223     		mov	r3, #178
 3859 1c06 9B00     		lsl	r3, r3, #2
 3860 1c08 FB18     		add	r3, r7, r3
 3861 1c0a 1A68     		ldr	r2, [r3]
 3862 1c0c AF23     		mov	r3, #175
 3863 1c0e 9B00     		lsl	r3, r3, #2
 3864 1c10 FB18     		add	r3, r7, r3
 3865 1c12 1B68     		ldr	r3, [r3]
 3866 1c14 D218     		add	r2, r2, r3
 3867 1c16 AA23     		mov	r3, #170
 3868 1c18 9B00     		lsl	r3, r3, #2
 3869 1c1a FB18     		add	r3, r7, r3
 3870 1c1c 1B68     		ldr	r3, [r3]
 3871 1c1e D21A     		sub	r2, r2, r3
 3872 1c20 A723     		mov	r3, #167
 3873 1c22 9B00     		lsl	r3, r3, #2
 3874 1c24 FB18     		add	r3, r7, r3
 3875 1c26 1B68     		ldr	r3, [r3]
 3876 1c28 D31A     		sub	r3, r2, r3
 3877 1c2a 9E22     		mov	r2, #158
 3878 1c2c 9200     		lsl	r2, r2, #2
 3879 1c2e BA18     		add	r2, r7, r2
 3880 1c30 1360     		str	r3, [r2]
 736:Source\TransformFunctions/arm_cfft_radix4_q31.c **** 
 737:Source\TransformFunctions/arm_cfft_radix4_q31.c ****     /* writing xd' and yd' */
 738:Source\TransformFunctions/arm_cfft_radix4_q31.c ****     *ptr1++ = xd_out;
 3881              		.loc 1 738 0 discriminator 1
 3882 1c32 9D23     		mov	r3, #157
 3883 1c34 9B00     		lsl	r3, r3, #2
 3884 1c36 FB18     		add	r3, r7, r3
 3885 1c38 1B68     		ldr	r3, [r3]
 3886 1c3a 1A1D     		add	r2, r3, #4
 3887 1c3c 9D21     		mov	r1, #157
 3888 1c3e 8900     		lsl	r1, r1, #2
 3889 1c40 7918     		add	r1, r7, r1
 3890 1c42 0A60     		str	r2, [r1]
 3891 1c44 9F22     		mov	r2, #159
 3892 1c46 9200     		lsl	r2, r2, #2
 3893 1c48 BA18     		add	r2, r7, r2
 3894 1c4a 1268     		ldr	r2, [r2]
 3895 1c4c 1A60     		str	r2, [r3]
 739:Source\TransformFunctions/arm_cfft_radix4_q31.c ****     *ptr1++ = yd_out;
 3896              		.loc 1 739 0 discriminator 1
 3897 1c4e 9D23     		mov	r3, #157
 3898 1c50 9B00     		lsl	r3, r3, #2
 3899 1c52 FB18     		add	r3, r7, r3
 3900 1c54 1B68     		ldr	r3, [r3]
 3901 1c56 1A1D     		add	r2, r3, #4
 3902 1c58 9D21     		mov	r1, #157
 3903 1c5a 8900     		lsl	r1, r1, #2
 3904 1c5c 7918     		add	r1, r7, r1
 3905 1c5e 0A60     		str	r2, [r1]
ARM GAS  C:\Users\fneves\AppData\Local\Temp\ccD0n2wo.s 			page 83


 3906 1c60 9E22     		mov	r2, #158
 3907 1c62 9200     		lsl	r2, r2, #2
 3908 1c64 BA18     		add	r2, r7, r2
 3909 1c66 1268     		ldr	r2, [r2]
 3910 1c68 1A60     		str	r2, [r3]
 740:Source\TransformFunctions/arm_cfft_radix4_q31.c **** 
 741:Source\TransformFunctions/arm_cfft_radix4_q31.c **** 
 742:Source\TransformFunctions/arm_cfft_radix4_q31.c ****   } while (--j);
 3911              		.loc 1 742 0 discriminator 1
 3912 1c6a C823     		mov	r3, #200
 3913 1c6c 9822     		mov	r2, #152
 3914 1c6e 9200     		lsl	r2, r2, #2
 3915 1c70 9446     		mov	ip, r2
 3916 1c72 BC44     		add	ip, ip, r7
 3917 1c74 6344     		add	r3, r3, ip
 3918 1c76 1B68     		ldr	r3, [r3]
 3919 1c78 013B     		sub	r3, r3, #1
 3920 1c7a C822     		mov	r2, #200
 3921 1c7c 9821     		mov	r1, #152
 3922 1c7e 8900     		lsl	r1, r1, #2
 3923 1c80 8C46     		mov	ip, r1
 3924 1c82 BC44     		add	ip, ip, r7
 3925 1c84 6244     		add	r2, r2, ip
 3926 1c86 1360     		str	r3, [r2]
 3927 1c88 C823     		mov	r3, #200
 3928 1c8a 9822     		mov	r2, #152
 3929 1c8c 9200     		lsl	r2, r2, #2
 3930 1c8e 9446     		mov	ip, r2
 3931 1c90 BC44     		add	ip, ip, r7
 3932 1c92 6344     		add	r3, r3, ip
 3933 1c94 1B68     		ldr	r3, [r3]
 3934 1c96 002B     		cmp	r3, #0
 3935 1c98 00D0     		beq	.LCB3681
 3936 1c9a 0DE6     		b	.L13	@long jump
 3937              	.LCB3681:
 743:Source\TransformFunctions/arm_cfft_radix4_q31.c **** 
 744:Source\TransformFunctions/arm_cfft_radix4_q31.c ****   /* output is in 11.21(q21) format for the 1024 point */
 745:Source\TransformFunctions/arm_cfft_radix4_q31.c ****   /* output is in 9.23(q23) format for the 256 point */
 746:Source\TransformFunctions/arm_cfft_radix4_q31.c ****   /* output is in 7.25(q25) format for the 64 point */
 747:Source\TransformFunctions/arm_cfft_radix4_q31.c ****   /* output is in 5.27(q27) format for the 16 point */
 748:Source\TransformFunctions/arm_cfft_radix4_q31.c **** 
 749:Source\TransformFunctions/arm_cfft_radix4_q31.c ****   /* End of last stage process */
 750:Source\TransformFunctions/arm_cfft_radix4_q31.c **** 
 751:Source\TransformFunctions/arm_cfft_radix4_q31.c **** }
 3938              		.loc 1 751 0
 3939 1c9c BD46     		mov	sp, r7
 3940 1c9e CF23     		mov	r3, #207
 3941 1ca0 9B00     		lsl	r3, r3, #2
 3942 1ca2 9D44     		add	sp, sp, r3
 3943              		@ sp needed
 3944 1ca4 F0BD     		pop	{r4, r5, r6, r7, pc}
 3945              		.cfi_endproc
 3946              	.LFE83:
 3947              		.size	arm_radix4_butterfly_q31, .-arm_radix4_butterfly_q31
 3948 1ca6 C046     		.section	.text.arm_radix4_butterfly_inverse_q31,"ax",%progbits
 3949              		.align	2
 3950              		.global	arm_radix4_butterfly_inverse_q31
ARM GAS  C:\Users\fneves\AppData\Local\Temp\ccD0n2wo.s 			page 84


 3951              		.code	16
 3952              		.thumb_func
 3953              		.type	arm_radix4_butterfly_inverse_q31, %function
 3954              	arm_radix4_butterfly_inverse_q31:
 3955              	.LFB84:
 752:Source\TransformFunctions/arm_cfft_radix4_q31.c **** 
 753:Source\TransformFunctions/arm_cfft_radix4_q31.c **** 
 754:Source\TransformFunctions/arm_cfft_radix4_q31.c **** /**
 755:Source\TransformFunctions/arm_cfft_radix4_q31.c ****  * @brief  Core function for the Q31 CIFFT butterfly process.
 756:Source\TransformFunctions/arm_cfft_radix4_q31.c ****  * @param[in, out] *pSrc            points to the in-place buffer of Q31 data type.
 757:Source\TransformFunctions/arm_cfft_radix4_q31.c ****  * @param[in]      fftLen           length of the FFT.
 758:Source\TransformFunctions/arm_cfft_radix4_q31.c ****  * @param[in]      *pCoef           points to twiddle coefficient buffer.
 759:Source\TransformFunctions/arm_cfft_radix4_q31.c ****  * @param[in]      twidCoefModifier twiddle coefficient modifier that supports different size FFTs 
 760:Source\TransformFunctions/arm_cfft_radix4_q31.c ****  * @return none.
 761:Source\TransformFunctions/arm_cfft_radix4_q31.c ****  */
 762:Source\TransformFunctions/arm_cfft_radix4_q31.c **** 
 763:Source\TransformFunctions/arm_cfft_radix4_q31.c **** 
 764:Source\TransformFunctions/arm_cfft_radix4_q31.c **** /*
 765:Source\TransformFunctions/arm_cfft_radix4_q31.c **** * Radix-4 IFFT algorithm used is :
 766:Source\TransformFunctions/arm_cfft_radix4_q31.c **** *
 767:Source\TransformFunctions/arm_cfft_radix4_q31.c **** * CIFFT uses same twiddle coefficients as CFFT Function
 768:Source\TransformFunctions/arm_cfft_radix4_q31.c **** *  x[k] = x[n] + (j)k * x[n + fftLen/4] + (-1)k * x[n+fftLen/2] + (-j)k * x[n+3*fftLen/4]
 769:Source\TransformFunctions/arm_cfft_radix4_q31.c **** *
 770:Source\TransformFunctions/arm_cfft_radix4_q31.c **** *
 771:Source\TransformFunctions/arm_cfft_radix4_q31.c **** * IFFT is implemented with following changes in equations from FFT
 772:Source\TransformFunctions/arm_cfft_radix4_q31.c **** *
 773:Source\TransformFunctions/arm_cfft_radix4_q31.c **** * Input real and imaginary data:
 774:Source\TransformFunctions/arm_cfft_radix4_q31.c **** * x(n) = xa + j * ya
 775:Source\TransformFunctions/arm_cfft_radix4_q31.c **** * x(n+N/4 ) = xb + j * yb
 776:Source\TransformFunctions/arm_cfft_radix4_q31.c **** * x(n+N/2 ) = xc + j * yc
 777:Source\TransformFunctions/arm_cfft_radix4_q31.c **** * x(n+3N 4) = xd + j * yd
 778:Source\TransformFunctions/arm_cfft_radix4_q31.c **** *
 779:Source\TransformFunctions/arm_cfft_radix4_q31.c **** *
 780:Source\TransformFunctions/arm_cfft_radix4_q31.c **** * Output real and imaginary data:
 781:Source\TransformFunctions/arm_cfft_radix4_q31.c **** * x(4r) = xa'+ j * ya'
 782:Source\TransformFunctions/arm_cfft_radix4_q31.c **** * x(4r+1) = xb'+ j * yb'
 783:Source\TransformFunctions/arm_cfft_radix4_q31.c **** * x(4r+2) = xc'+ j * yc'
 784:Source\TransformFunctions/arm_cfft_radix4_q31.c **** * x(4r+3) = xd'+ j * yd'
 785:Source\TransformFunctions/arm_cfft_radix4_q31.c **** *
 786:Source\TransformFunctions/arm_cfft_radix4_q31.c **** *
 787:Source\TransformFunctions/arm_cfft_radix4_q31.c **** * Twiddle factors for radix-4 IFFT:
 788:Source\TransformFunctions/arm_cfft_radix4_q31.c **** * Wn = co1 + j * (si1)
 789:Source\TransformFunctions/arm_cfft_radix4_q31.c **** * W2n = co2 + j * (si2)
 790:Source\TransformFunctions/arm_cfft_radix4_q31.c **** * W3n = co3 + j * (si3)
 791:Source\TransformFunctions/arm_cfft_radix4_q31.c **** 
 792:Source\TransformFunctions/arm_cfft_radix4_q31.c **** * The real and imaginary output values for the radix-4 butterfly are
 793:Source\TransformFunctions/arm_cfft_radix4_q31.c **** * xa' = xa + xb + xc + xd
 794:Source\TransformFunctions/arm_cfft_radix4_q31.c **** * ya' = ya + yb + yc + yd
 795:Source\TransformFunctions/arm_cfft_radix4_q31.c **** * xb' = (xa-yb-xc+yd)* co1 - (ya+xb-yc-xd)* (si1)
 796:Source\TransformFunctions/arm_cfft_radix4_q31.c **** * yb' = (ya+xb-yc-xd)* co1 + (xa-yb-xc+yd)* (si1)
 797:Source\TransformFunctions/arm_cfft_radix4_q31.c **** * xc' = (xa-xb+xc-xd)* co2 - (ya-yb+yc-yd)* (si2)
 798:Source\TransformFunctions/arm_cfft_radix4_q31.c **** * yc' = (ya-yb+yc-yd)* co2 + (xa-xb+xc-xd)* (si2)
 799:Source\TransformFunctions/arm_cfft_radix4_q31.c **** * xd' = (xa+yb-xc-yd)* co3 - (ya-xb-yc+xd)* (si3)
 800:Source\TransformFunctions/arm_cfft_radix4_q31.c **** * yd' = (ya-xb-yc+xd)* co3 + (xa+yb-xc-yd)* (si3)
 801:Source\TransformFunctions/arm_cfft_radix4_q31.c **** *
 802:Source\TransformFunctions/arm_cfft_radix4_q31.c **** */
 803:Source\TransformFunctions/arm_cfft_radix4_q31.c **** 
ARM GAS  C:\Users\fneves\AppData\Local\Temp\ccD0n2wo.s 			page 85


 804:Source\TransformFunctions/arm_cfft_radix4_q31.c **** void arm_radix4_butterfly_inverse_q31(
 805:Source\TransformFunctions/arm_cfft_radix4_q31.c ****   q31_t * pSrc,
 806:Source\TransformFunctions/arm_cfft_radix4_q31.c ****   uint32_t fftLen,
 807:Source\TransformFunctions/arm_cfft_radix4_q31.c ****   q31_t * pCoef,
 808:Source\TransformFunctions/arm_cfft_radix4_q31.c ****   uint32_t twidCoefModifier)
 809:Source\TransformFunctions/arm_cfft_radix4_q31.c **** {
 3956              		.loc 1 809 0
 3957              		.cfi_startproc
 3958 0000 F0B5     		push	{r4, r5, r6, r7, lr}
 3959              		.cfi_def_cfa_offset 20
 3960              		.cfi_offset 4, -20
 3961              		.cfi_offset 5, -16
 3962              		.cfi_offset 6, -12
 3963              		.cfi_offset 7, -8
 3964              		.cfi_offset 14, -4
 3965 0002 514C     		ldr	r4, .L26
 3966 0004 A544     		add	sp, sp, r4
 3967              		.cfi_def_cfa_offset 848
 3968 0006 00AF     		add	r7, sp, #0
 3969              		.cfi_def_cfa_register 7
 3970 0008 9B24     		mov	r4, #155
 3971 000a A400     		lsl	r4, r4, #2
 3972 000c 3C19     		add	r4, r7, r4
 3973 000e 2060     		str	r0, [r4]
 3974 0010 9A20     		mov	r0, #154
 3975 0012 8000     		lsl	r0, r0, #2
 3976 0014 3818     		add	r0, r7, r0
 3977 0016 0160     		str	r1, [r0]
 3978 0018 9921     		mov	r1, #153
 3979 001a 8900     		lsl	r1, r1, #2
 3980 001c 7918     		add	r1, r7, r1
 3981 001e 0A60     		str	r2, [r1]
 3982 0020 9822     		mov	r2, #152
 3983 0022 9200     		lsl	r2, r2, #2
 3984 0024 BA18     		add	r2, r7, r2
 3985 0026 1360     		str	r3, [r2]
 810:Source\TransformFunctions/arm_cfft_radix4_q31.c **** #if defined(ARM_MATH_CM7)
 811:Source\TransformFunctions/arm_cfft_radix4_q31.c ****   uint32_t n1, n2, ia1, ia2, ia3, i0, i1, i2, i3, j, k;
 812:Source\TransformFunctions/arm_cfft_radix4_q31.c ****   q31_t t1, t2, r1, r2, s1, s2, co1, co2, co3, si1, si2, si3;
 813:Source\TransformFunctions/arm_cfft_radix4_q31.c ****   q31_t xa, xb, xc, xd;
 814:Source\TransformFunctions/arm_cfft_radix4_q31.c ****   q31_t ya, yb, yc, yd;
 815:Source\TransformFunctions/arm_cfft_radix4_q31.c ****   q31_t xa_out, xb_out, xc_out, xd_out;
 816:Source\TransformFunctions/arm_cfft_radix4_q31.c ****   q31_t ya_out, yb_out, yc_out, yd_out;
 817:Source\TransformFunctions/arm_cfft_radix4_q31.c **** 
 818:Source\TransformFunctions/arm_cfft_radix4_q31.c ****   q31_t *ptr1;
 819:Source\TransformFunctions/arm_cfft_radix4_q31.c ****   q63_t xaya, xbyb, xcyc, xdyd;
 820:Source\TransformFunctions/arm_cfft_radix4_q31.c **** 
 821:Source\TransformFunctions/arm_cfft_radix4_q31.c ****   /* input is be 1.31(q31) format for all FFT sizes */
 822:Source\TransformFunctions/arm_cfft_radix4_q31.c ****   /* Total process is divided into three stages */
 823:Source\TransformFunctions/arm_cfft_radix4_q31.c ****   /* process first stage, middle stages, & last stage */
 824:Source\TransformFunctions/arm_cfft_radix4_q31.c **** 
 825:Source\TransformFunctions/arm_cfft_radix4_q31.c ****   /* Start of first stage process */
 826:Source\TransformFunctions/arm_cfft_radix4_q31.c **** 
 827:Source\TransformFunctions/arm_cfft_radix4_q31.c ****   /* Initializations for the first stage */
 828:Source\TransformFunctions/arm_cfft_radix4_q31.c ****   n2 = fftLen;
 829:Source\TransformFunctions/arm_cfft_radix4_q31.c ****   n1 = n2;
 830:Source\TransformFunctions/arm_cfft_radix4_q31.c ****   /* n2 = fftLen/4 */
ARM GAS  C:\Users\fneves\AppData\Local\Temp\ccD0n2wo.s 			page 86


 831:Source\TransformFunctions/arm_cfft_radix4_q31.c ****   n2 >>= 2u;
 832:Source\TransformFunctions/arm_cfft_radix4_q31.c ****   i0 = 0u;
 833:Source\TransformFunctions/arm_cfft_radix4_q31.c ****   ia1 = 0u;
 834:Source\TransformFunctions/arm_cfft_radix4_q31.c **** 
 835:Source\TransformFunctions/arm_cfft_radix4_q31.c ****   j = n2;
 836:Source\TransformFunctions/arm_cfft_radix4_q31.c **** 
 837:Source\TransformFunctions/arm_cfft_radix4_q31.c ****   do
 838:Source\TransformFunctions/arm_cfft_radix4_q31.c ****   {
 839:Source\TransformFunctions/arm_cfft_radix4_q31.c **** 
 840:Source\TransformFunctions/arm_cfft_radix4_q31.c ****     /* input is in 1.31(q31) format and provide 4 guard bits for the input */
 841:Source\TransformFunctions/arm_cfft_radix4_q31.c **** 
 842:Source\TransformFunctions/arm_cfft_radix4_q31.c ****     /*  index calculation for the input as, */
 843:Source\TransformFunctions/arm_cfft_radix4_q31.c ****     /*  pSrc[i0 + 0], pSrc[i0 + fftLen/4], pSrc[i0 + fftLen/2u], pSrc[i0 + 3fftLen/4] */
 844:Source\TransformFunctions/arm_cfft_radix4_q31.c ****     i1 = i0 + n2;
 845:Source\TransformFunctions/arm_cfft_radix4_q31.c ****     i2 = i1 + n2;
 846:Source\TransformFunctions/arm_cfft_radix4_q31.c ****     i3 = i2 + n2;
 847:Source\TransformFunctions/arm_cfft_radix4_q31.c **** 
 848:Source\TransformFunctions/arm_cfft_radix4_q31.c ****     /*  Butterfly implementation */
 849:Source\TransformFunctions/arm_cfft_radix4_q31.c ****     /* xa + xc */
 850:Source\TransformFunctions/arm_cfft_radix4_q31.c ****     r1 = (pSrc[2u * i0] >> 4u) + (pSrc[2u * i2] >> 4u);
 851:Source\TransformFunctions/arm_cfft_radix4_q31.c ****     /* xa - xc */
 852:Source\TransformFunctions/arm_cfft_radix4_q31.c ****     r2 = (pSrc[2u * i0] >> 4u) - (pSrc[2u * i2] >> 4u);
 853:Source\TransformFunctions/arm_cfft_radix4_q31.c **** 
 854:Source\TransformFunctions/arm_cfft_radix4_q31.c ****     /* xb + xd */
 855:Source\TransformFunctions/arm_cfft_radix4_q31.c ****     t1 = (pSrc[2u * i1] >> 4u) + (pSrc[2u * i3] >> 4u);
 856:Source\TransformFunctions/arm_cfft_radix4_q31.c **** 
 857:Source\TransformFunctions/arm_cfft_radix4_q31.c ****     /* ya + yc */
 858:Source\TransformFunctions/arm_cfft_radix4_q31.c ****     s1 = (pSrc[(2u * i0) + 1u] >> 4u) + (pSrc[(2u * i2) + 1u] >> 4u);
 859:Source\TransformFunctions/arm_cfft_radix4_q31.c ****     /* ya - yc */
 860:Source\TransformFunctions/arm_cfft_radix4_q31.c ****     s2 = (pSrc[(2u * i0) + 1u] >> 4u) - (pSrc[(2u * i2) + 1u] >> 4u);
 861:Source\TransformFunctions/arm_cfft_radix4_q31.c **** 
 862:Source\TransformFunctions/arm_cfft_radix4_q31.c ****     /* xa' = xa + xb + xc + xd */
 863:Source\TransformFunctions/arm_cfft_radix4_q31.c ****     pSrc[2u * i0] = (r1 + t1);
 864:Source\TransformFunctions/arm_cfft_radix4_q31.c ****     /* (xa + xc) - (xb + xd) */
 865:Source\TransformFunctions/arm_cfft_radix4_q31.c ****     r1 = r1 - t1;
 866:Source\TransformFunctions/arm_cfft_radix4_q31.c ****     /* yb + yd */
 867:Source\TransformFunctions/arm_cfft_radix4_q31.c ****     t2 = (pSrc[(2u * i1) + 1u] >> 4u) + (pSrc[(2u * i3) + 1u] >> 4u);
 868:Source\TransformFunctions/arm_cfft_radix4_q31.c ****     /* ya' = ya + yb + yc + yd */
 869:Source\TransformFunctions/arm_cfft_radix4_q31.c ****     pSrc[(2u * i0) + 1u] = (s1 + t2);
 870:Source\TransformFunctions/arm_cfft_radix4_q31.c **** 
 871:Source\TransformFunctions/arm_cfft_radix4_q31.c ****     /* (ya + yc) - (yb + yd) */
 872:Source\TransformFunctions/arm_cfft_radix4_q31.c ****     s1 = s1 - t2;
 873:Source\TransformFunctions/arm_cfft_radix4_q31.c **** 
 874:Source\TransformFunctions/arm_cfft_radix4_q31.c ****     /* yb - yd */
 875:Source\TransformFunctions/arm_cfft_radix4_q31.c ****     t1 = (pSrc[(2u * i1) + 1u] >> 4u) - (pSrc[(2u * i3) + 1u] >> 4u);
 876:Source\TransformFunctions/arm_cfft_radix4_q31.c ****     /* xb - xd */
 877:Source\TransformFunctions/arm_cfft_radix4_q31.c ****     t2 = (pSrc[2u * i1] >> 4u) - (pSrc[2u * i3] >> 4u);
 878:Source\TransformFunctions/arm_cfft_radix4_q31.c **** 
 879:Source\TransformFunctions/arm_cfft_radix4_q31.c ****     /*  index calculation for the coefficients */
 880:Source\TransformFunctions/arm_cfft_radix4_q31.c ****     ia2 = 2u * ia1;
 881:Source\TransformFunctions/arm_cfft_radix4_q31.c ****     co2 = pCoef[ia2 * 2u];
 882:Source\TransformFunctions/arm_cfft_radix4_q31.c ****     si2 = pCoef[(ia2 * 2u) + 1u];
 883:Source\TransformFunctions/arm_cfft_radix4_q31.c **** 
 884:Source\TransformFunctions/arm_cfft_radix4_q31.c ****     /* xc' = (xa-xb+xc-xd)co2 - (ya-yb+yc-yd)(si2) */
 885:Source\TransformFunctions/arm_cfft_radix4_q31.c ****     pSrc[2u * i1] = (((int32_t) (((q63_t) r1 * co2) >> 32)) -
 886:Source\TransformFunctions/arm_cfft_radix4_q31.c ****                      ((int32_t) (((q63_t) s1 * si2) >> 32))) << 1u;
 887:Source\TransformFunctions/arm_cfft_radix4_q31.c **** 
ARM GAS  C:\Users\fneves\AppData\Local\Temp\ccD0n2wo.s 			page 87


 888:Source\TransformFunctions/arm_cfft_radix4_q31.c ****     /* yc' = (ya-yb+yc-yd)co2 + (xa-xb+xc-xd)(si2) */
 889:Source\TransformFunctions/arm_cfft_radix4_q31.c ****     pSrc[2u * i1 + 1u] = (((int32_t) (((q63_t) s1 * co2) >> 32)) +
 890:Source\TransformFunctions/arm_cfft_radix4_q31.c ****                           ((int32_t) (((q63_t) r1 * si2) >> 32))) << 1u;
 891:Source\TransformFunctions/arm_cfft_radix4_q31.c **** 
 892:Source\TransformFunctions/arm_cfft_radix4_q31.c ****     /* (xa - xc) - (yb - yd) */
 893:Source\TransformFunctions/arm_cfft_radix4_q31.c ****     r1 = r2 - t1;
 894:Source\TransformFunctions/arm_cfft_radix4_q31.c ****     /* (xa - xc) + (yb - yd) */
 895:Source\TransformFunctions/arm_cfft_radix4_q31.c ****     r2 = r2 + t1;
 896:Source\TransformFunctions/arm_cfft_radix4_q31.c **** 
 897:Source\TransformFunctions/arm_cfft_radix4_q31.c ****     /* (ya - yc) + (xb - xd) */
 898:Source\TransformFunctions/arm_cfft_radix4_q31.c ****     s1 = s2 + t2;
 899:Source\TransformFunctions/arm_cfft_radix4_q31.c ****     /* (ya - yc) - (xb - xd) */
 900:Source\TransformFunctions/arm_cfft_radix4_q31.c ****     s2 = s2 - t2;
 901:Source\TransformFunctions/arm_cfft_radix4_q31.c **** 
 902:Source\TransformFunctions/arm_cfft_radix4_q31.c ****     co1 = pCoef[ia1 * 2u];
 903:Source\TransformFunctions/arm_cfft_radix4_q31.c ****     si1 = pCoef[(ia1 * 2u) + 1u];
 904:Source\TransformFunctions/arm_cfft_radix4_q31.c **** 
 905:Source\TransformFunctions/arm_cfft_radix4_q31.c ****     /* xb' = (xa+yb-xc-yd)co1 - (ya-xb-yc+xd)(si1) */
 906:Source\TransformFunctions/arm_cfft_radix4_q31.c ****     pSrc[2u * i2] = (((int32_t) (((q63_t) r1 * co1) >> 32)) -
 907:Source\TransformFunctions/arm_cfft_radix4_q31.c ****                      ((int32_t) (((q63_t) s1 * si1) >> 32))) << 1u;
 908:Source\TransformFunctions/arm_cfft_radix4_q31.c **** 
 909:Source\TransformFunctions/arm_cfft_radix4_q31.c ****     /* yb' = (ya-xb-yc+xd)co1 + (xa+yb-xc-yd)(si1) */
 910:Source\TransformFunctions/arm_cfft_radix4_q31.c ****     pSrc[(2u * i2) + 1u] = (((int32_t) (((q63_t) s1 * co1) >> 32)) +
 911:Source\TransformFunctions/arm_cfft_radix4_q31.c ****                             ((int32_t) (((q63_t) r1 * si1) >> 32))) << 1u;
 912:Source\TransformFunctions/arm_cfft_radix4_q31.c **** 
 913:Source\TransformFunctions/arm_cfft_radix4_q31.c ****     /*  index calculation for the coefficients */
 914:Source\TransformFunctions/arm_cfft_radix4_q31.c ****     ia3 = 3u * ia1;
 915:Source\TransformFunctions/arm_cfft_radix4_q31.c ****     co3 = pCoef[ia3 * 2u];
 916:Source\TransformFunctions/arm_cfft_radix4_q31.c ****     si3 = pCoef[(ia3 * 2u) + 1u];
 917:Source\TransformFunctions/arm_cfft_radix4_q31.c **** 
 918:Source\TransformFunctions/arm_cfft_radix4_q31.c ****     /* xd' = (xa-yb-xc+yd)co3 - (ya+xb-yc-xd)(si3) */
 919:Source\TransformFunctions/arm_cfft_radix4_q31.c ****     pSrc[2u * i3] = (((int32_t) (((q63_t) r2 * co3) >> 32)) -
 920:Source\TransformFunctions/arm_cfft_radix4_q31.c ****                      ((int32_t) (((q63_t) s2 * si3) >> 32))) << 1u;
 921:Source\TransformFunctions/arm_cfft_radix4_q31.c **** 
 922:Source\TransformFunctions/arm_cfft_radix4_q31.c ****     /* yd' = (ya+xb-yc-xd)co3 + (xa-yb-xc+yd)(si3) */
 923:Source\TransformFunctions/arm_cfft_radix4_q31.c ****     pSrc[(2u * i3) + 1u] = (((int32_t) (((q63_t) s2 * co3) >> 32)) +
 924:Source\TransformFunctions/arm_cfft_radix4_q31.c ****                             ((int32_t) (((q63_t) r2 * si3) >> 32))) << 1u;
 925:Source\TransformFunctions/arm_cfft_radix4_q31.c **** 
 926:Source\TransformFunctions/arm_cfft_radix4_q31.c ****     /*  Twiddle coefficients index modifier */
 927:Source\TransformFunctions/arm_cfft_radix4_q31.c ****     ia1 = ia1 + twidCoefModifier;
 928:Source\TransformFunctions/arm_cfft_radix4_q31.c **** 
 929:Source\TransformFunctions/arm_cfft_radix4_q31.c ****     /*  Updating input index */
 930:Source\TransformFunctions/arm_cfft_radix4_q31.c ****     i0 = i0 + 1u;
 931:Source\TransformFunctions/arm_cfft_radix4_q31.c **** 
 932:Source\TransformFunctions/arm_cfft_radix4_q31.c ****   } while (--j);
 933:Source\TransformFunctions/arm_cfft_radix4_q31.c **** 
 934:Source\TransformFunctions/arm_cfft_radix4_q31.c ****   /* data is in 5.27(q27) format */
 935:Source\TransformFunctions/arm_cfft_radix4_q31.c ****   /* each stage provides two down scaling of the input */
 936:Source\TransformFunctions/arm_cfft_radix4_q31.c **** 
 937:Source\TransformFunctions/arm_cfft_radix4_q31.c **** 
 938:Source\TransformFunctions/arm_cfft_radix4_q31.c ****   /* Start of Middle stages process */
 939:Source\TransformFunctions/arm_cfft_radix4_q31.c **** 
 940:Source\TransformFunctions/arm_cfft_radix4_q31.c ****   twidCoefModifier <<= 2u;
 941:Source\TransformFunctions/arm_cfft_radix4_q31.c **** 
 942:Source\TransformFunctions/arm_cfft_radix4_q31.c ****   /*  Calculation of second stage to excluding last stage */
 943:Source\TransformFunctions/arm_cfft_radix4_q31.c ****   for (k = fftLen / 4u; k > 4u; k >>= 2u)
 944:Source\TransformFunctions/arm_cfft_radix4_q31.c ****   {
ARM GAS  C:\Users\fneves\AppData\Local\Temp\ccD0n2wo.s 			page 88


 945:Source\TransformFunctions/arm_cfft_radix4_q31.c ****     /*  Initializations for the first stage */
 946:Source\TransformFunctions/arm_cfft_radix4_q31.c ****     n1 = n2;
 947:Source\TransformFunctions/arm_cfft_radix4_q31.c ****     n2 >>= 2u;
 948:Source\TransformFunctions/arm_cfft_radix4_q31.c ****     ia1 = 0u;
 949:Source\TransformFunctions/arm_cfft_radix4_q31.c **** 
 950:Source\TransformFunctions/arm_cfft_radix4_q31.c ****     for (j = 0; j <= (n2 - 1u); j++)
 951:Source\TransformFunctions/arm_cfft_radix4_q31.c ****     {
 952:Source\TransformFunctions/arm_cfft_radix4_q31.c ****       /*  index calculation for the coefficients */
 953:Source\TransformFunctions/arm_cfft_radix4_q31.c ****       ia2 = ia1 + ia1;
 954:Source\TransformFunctions/arm_cfft_radix4_q31.c ****       ia3 = ia2 + ia1;
 955:Source\TransformFunctions/arm_cfft_radix4_q31.c ****       co1 = pCoef[ia1 * 2u];
 956:Source\TransformFunctions/arm_cfft_radix4_q31.c ****       si1 = pCoef[(ia1 * 2u) + 1u];
 957:Source\TransformFunctions/arm_cfft_radix4_q31.c ****       co2 = pCoef[ia2 * 2u];
 958:Source\TransformFunctions/arm_cfft_radix4_q31.c ****       si2 = pCoef[(ia2 * 2u) + 1u];
 959:Source\TransformFunctions/arm_cfft_radix4_q31.c ****       co3 = pCoef[ia3 * 2u];
 960:Source\TransformFunctions/arm_cfft_radix4_q31.c ****       si3 = pCoef[(ia3 * 2u) + 1u];
 961:Source\TransformFunctions/arm_cfft_radix4_q31.c ****       /*  Twiddle coefficients index modifier */
 962:Source\TransformFunctions/arm_cfft_radix4_q31.c ****       ia1 = ia1 + twidCoefModifier;
 963:Source\TransformFunctions/arm_cfft_radix4_q31.c **** 
 964:Source\TransformFunctions/arm_cfft_radix4_q31.c ****       for (i0 = j; i0 < fftLen; i0 += n1)
 965:Source\TransformFunctions/arm_cfft_radix4_q31.c ****       {
 966:Source\TransformFunctions/arm_cfft_radix4_q31.c ****         /*  index calculation for the input as, */
 967:Source\TransformFunctions/arm_cfft_radix4_q31.c ****         /*  pSrc[i0 + 0], pSrc[i0 + fftLen/4], pSrc[i0 + fftLen/2u], pSrc[i0 + 3fftLen/4] */
 968:Source\TransformFunctions/arm_cfft_radix4_q31.c ****         i1 = i0 + n2;
 969:Source\TransformFunctions/arm_cfft_radix4_q31.c ****         i2 = i1 + n2;
 970:Source\TransformFunctions/arm_cfft_radix4_q31.c ****         i3 = i2 + n2;
 971:Source\TransformFunctions/arm_cfft_radix4_q31.c **** 
 972:Source\TransformFunctions/arm_cfft_radix4_q31.c ****         /*  Butterfly implementation */
 973:Source\TransformFunctions/arm_cfft_radix4_q31.c ****         /* xa + xc */
 974:Source\TransformFunctions/arm_cfft_radix4_q31.c ****         r1 = pSrc[2u * i0] + pSrc[2u * i2];
 975:Source\TransformFunctions/arm_cfft_radix4_q31.c ****         /* xa - xc */
 976:Source\TransformFunctions/arm_cfft_radix4_q31.c ****         r2 = pSrc[2u * i0] - pSrc[2u * i2];
 977:Source\TransformFunctions/arm_cfft_radix4_q31.c **** 
 978:Source\TransformFunctions/arm_cfft_radix4_q31.c ****         /* ya + yc */
 979:Source\TransformFunctions/arm_cfft_radix4_q31.c ****         s1 = pSrc[(2u * i0) + 1u] + pSrc[(2u * i2) + 1u];
 980:Source\TransformFunctions/arm_cfft_radix4_q31.c ****         /* ya - yc */
 981:Source\TransformFunctions/arm_cfft_radix4_q31.c ****         s2 = pSrc[(2u * i0) + 1u] - pSrc[(2u * i2) + 1u];
 982:Source\TransformFunctions/arm_cfft_radix4_q31.c **** 
 983:Source\TransformFunctions/arm_cfft_radix4_q31.c ****         /* xb + xd */
 984:Source\TransformFunctions/arm_cfft_radix4_q31.c ****         t1 = pSrc[2u * i1] + pSrc[2u * i3];
 985:Source\TransformFunctions/arm_cfft_radix4_q31.c **** 
 986:Source\TransformFunctions/arm_cfft_radix4_q31.c ****         /* xa' = xa + xb + xc + xd */
 987:Source\TransformFunctions/arm_cfft_radix4_q31.c ****         pSrc[2u * i0] = (r1 + t1) >> 2u;
 988:Source\TransformFunctions/arm_cfft_radix4_q31.c ****         /* xa + xc -(xb + xd) */
 989:Source\TransformFunctions/arm_cfft_radix4_q31.c ****         r1 = r1 - t1;
 990:Source\TransformFunctions/arm_cfft_radix4_q31.c ****         /* yb + yd */
 991:Source\TransformFunctions/arm_cfft_radix4_q31.c ****         t2 = pSrc[(2u * i1) + 1u] + pSrc[(2u * i3) + 1u];
 992:Source\TransformFunctions/arm_cfft_radix4_q31.c ****         /* ya' = ya + yb + yc + yd */
 993:Source\TransformFunctions/arm_cfft_radix4_q31.c ****         pSrc[(2u * i0) + 1u] = (s1 + t2) >> 2u;
 994:Source\TransformFunctions/arm_cfft_radix4_q31.c **** 
 995:Source\TransformFunctions/arm_cfft_radix4_q31.c ****         /* (ya + yc) - (yb + yd) */
 996:Source\TransformFunctions/arm_cfft_radix4_q31.c ****         s1 = s1 - t2;
 997:Source\TransformFunctions/arm_cfft_radix4_q31.c **** 
 998:Source\TransformFunctions/arm_cfft_radix4_q31.c ****         /* (yb - yd) */
 999:Source\TransformFunctions/arm_cfft_radix4_q31.c ****         t1 = pSrc[(2u * i1) + 1u] - pSrc[(2u * i3) + 1u];
1000:Source\TransformFunctions/arm_cfft_radix4_q31.c ****         /* (xb - xd) */
1001:Source\TransformFunctions/arm_cfft_radix4_q31.c ****         t2 = pSrc[2u * i1] - pSrc[2u * i3];
ARM GAS  C:\Users\fneves\AppData\Local\Temp\ccD0n2wo.s 			page 89


1002:Source\TransformFunctions/arm_cfft_radix4_q31.c **** 
1003:Source\TransformFunctions/arm_cfft_radix4_q31.c ****         /* xc' = (xa-xb+xc-xd)co2 - (ya-yb+yc-yd)(si2) */
1004:Source\TransformFunctions/arm_cfft_radix4_q31.c ****         pSrc[2u * i1] = (((int32_t) (((q63_t) r1 * co2) >> 32u)) -
1005:Source\TransformFunctions/arm_cfft_radix4_q31.c ****                          ((int32_t) (((q63_t) s1 * si2) >> 32u))) >> 1u;
1006:Source\TransformFunctions/arm_cfft_radix4_q31.c **** 
1007:Source\TransformFunctions/arm_cfft_radix4_q31.c ****         /* yc' = (ya-yb+yc-yd)co2 + (xa-xb+xc-xd)(si2) */
1008:Source\TransformFunctions/arm_cfft_radix4_q31.c ****         pSrc[(2u * i1) + 1u] =
1009:Source\TransformFunctions/arm_cfft_radix4_q31.c ****           (((int32_t) (((q63_t) s1 * co2) >> 32u)) +
1010:Source\TransformFunctions/arm_cfft_radix4_q31.c ****            ((int32_t) (((q63_t) r1 * si2) >> 32u))) >> 1u;
1011:Source\TransformFunctions/arm_cfft_radix4_q31.c **** 
1012:Source\TransformFunctions/arm_cfft_radix4_q31.c ****         /* (xa - xc) - (yb - yd) */
1013:Source\TransformFunctions/arm_cfft_radix4_q31.c ****         r1 = r2 - t1;
1014:Source\TransformFunctions/arm_cfft_radix4_q31.c ****         /* (xa - xc) + (yb - yd) */
1015:Source\TransformFunctions/arm_cfft_radix4_q31.c ****         r2 = r2 + t1;
1016:Source\TransformFunctions/arm_cfft_radix4_q31.c **** 
1017:Source\TransformFunctions/arm_cfft_radix4_q31.c ****         /* (ya - yc) +  (xb - xd) */
1018:Source\TransformFunctions/arm_cfft_radix4_q31.c ****         s1 = s2 + t2;
1019:Source\TransformFunctions/arm_cfft_radix4_q31.c ****         /* (ya - yc) -  (xb - xd) */
1020:Source\TransformFunctions/arm_cfft_radix4_q31.c ****         s2 = s2 - t2;
1021:Source\TransformFunctions/arm_cfft_radix4_q31.c **** 
1022:Source\TransformFunctions/arm_cfft_radix4_q31.c ****         /* xb' = (xa+yb-xc-yd)co1 - (ya-xb-yc+xd)(si1) */
1023:Source\TransformFunctions/arm_cfft_radix4_q31.c ****         pSrc[2u * i2] = (((int32_t) (((q63_t) r1 * co1) >> 32)) -
1024:Source\TransformFunctions/arm_cfft_radix4_q31.c ****                          ((int32_t) (((q63_t) s1 * si1) >> 32))) >> 1u;
1025:Source\TransformFunctions/arm_cfft_radix4_q31.c **** 
1026:Source\TransformFunctions/arm_cfft_radix4_q31.c ****         /* yb' = (ya-xb-yc+xd)co1 + (xa+yb-xc-yd)(si1) */
1027:Source\TransformFunctions/arm_cfft_radix4_q31.c ****         pSrc[(2u * i2) + 1u] = (((int32_t) (((q63_t) s1 * co1) >> 32)) +
1028:Source\TransformFunctions/arm_cfft_radix4_q31.c ****                                 ((int32_t) (((q63_t) r1 * si1) >> 32))) >> 1u;
1029:Source\TransformFunctions/arm_cfft_radix4_q31.c **** 
1030:Source\TransformFunctions/arm_cfft_radix4_q31.c ****         /* xd' = (xa-yb-xc+yd)co3 - (ya+xb-yc-xd)(si3) */
1031:Source\TransformFunctions/arm_cfft_radix4_q31.c ****         pSrc[(2u * i3)] = (((int32_t) (((q63_t) r2 * co3) >> 32)) -
1032:Source\TransformFunctions/arm_cfft_radix4_q31.c ****                            ((int32_t) (((q63_t) s2 * si3) >> 32))) >> 1u;
1033:Source\TransformFunctions/arm_cfft_radix4_q31.c **** 
1034:Source\TransformFunctions/arm_cfft_radix4_q31.c ****         /* yd' = (ya+xb-yc-xd)co3 + (xa-yb-xc+yd)(si3) */
1035:Source\TransformFunctions/arm_cfft_radix4_q31.c ****         pSrc[(2u * i3) + 1u] = (((int32_t) (((q63_t) s2 * co3) >> 32)) +
1036:Source\TransformFunctions/arm_cfft_radix4_q31.c ****                                 ((int32_t) (((q63_t) r2 * si3) >> 32))) >> 1u;
1037:Source\TransformFunctions/arm_cfft_radix4_q31.c ****       }
1038:Source\TransformFunctions/arm_cfft_radix4_q31.c ****     }
1039:Source\TransformFunctions/arm_cfft_radix4_q31.c ****     twidCoefModifier <<= 2u;
1040:Source\TransformFunctions/arm_cfft_radix4_q31.c ****   }
1041:Source\TransformFunctions/arm_cfft_radix4_q31.c **** #else
1042:Source\TransformFunctions/arm_cfft_radix4_q31.c ****   uint32_t n1, n2, ia1, ia2, ia3, i0, j, k;
1043:Source\TransformFunctions/arm_cfft_radix4_q31.c ****   q31_t t1, t2, r1, r2, s1, s2, co1, co2, co3, si1, si2, si3;
1044:Source\TransformFunctions/arm_cfft_radix4_q31.c ****   q31_t xa, xb, xc, xd;
1045:Source\TransformFunctions/arm_cfft_radix4_q31.c ****   q31_t ya, yb, yc, yd;
1046:Source\TransformFunctions/arm_cfft_radix4_q31.c ****   q31_t xa_out, xb_out, xc_out, xd_out;
1047:Source\TransformFunctions/arm_cfft_radix4_q31.c ****   q31_t ya_out, yb_out, yc_out, yd_out;
