ARM GAS  C:\Users\fneves\AppData\Local\Temp\cc7eJLfh.s 			page 1


   1              		.cpu cortex-m0plus
   2              		.fpu softvfp
   3              		.eabi_attribute 20, 1
   4              		.eabi_attribute 21, 1
   5              		.eabi_attribute 23, 3
   6              		.eabi_attribute 24, 1
   7              		.eabi_attribute 25, 1
   8              		.eabi_attribute 26, 1
   9              		.eabi_attribute 30, 6
  10              		.eabi_attribute 34, 0
  11              		.eabi_attribute 18, 4
  12              		.code	16
  13              		.file	"arm_conv_partial_q31.c"
  14              		.text
  15              	.Ltext0:
  16              		.cfi_sections	.debug_frame
  17              		.global	__aeabi_lmul
  18              		.section	.text.arm_conv_partial_q31,"ax",%progbits
  19              		.align	2
  20              		.global	arm_conv_partial_q31
  21              		.code	16
  22              		.thumb_func
  23              		.type	arm_conv_partial_q31, %function
  24              	arm_conv_partial_q31:
  25              	.LFB82:
  26              		.file 1 "Source\\FilteringFunctions\\arm_conv_partial_q31.c"
   1:Source\FilteringFunctions/arm_conv_partial_q31.c **** /* ----------------------------------------------------------------------
   2:Source\FilteringFunctions/arm_conv_partial_q31.c ****  * Project:      CMSIS DSP Library
   3:Source\FilteringFunctions/arm_conv_partial_q31.c ****  * Title:        arm_conv_partial_q31.c
   4:Source\FilteringFunctions/arm_conv_partial_q31.c ****  * Description:  Partial convolution of Q31 sequences
   5:Source\FilteringFunctions/arm_conv_partial_q31.c ****  *
   6:Source\FilteringFunctions/arm_conv_partial_q31.c ****  * $Date:        27. January 2017
   7:Source\FilteringFunctions/arm_conv_partial_q31.c ****  * $Revision:    V.1.5.1
   8:Source\FilteringFunctions/arm_conv_partial_q31.c ****  *
   9:Source\FilteringFunctions/arm_conv_partial_q31.c ****  * Target Processor: Cortex-M cores
  10:Source\FilteringFunctions/arm_conv_partial_q31.c ****  * -------------------------------------------------------------------- */
  11:Source\FilteringFunctions/arm_conv_partial_q31.c **** /*
  12:Source\FilteringFunctions/arm_conv_partial_q31.c ****  * Copyright (C) 2010-2017 ARM Limited or its affiliates. All rights reserved.
  13:Source\FilteringFunctions/arm_conv_partial_q31.c ****  *
  14:Source\FilteringFunctions/arm_conv_partial_q31.c ****  * SPDX-License-Identifier: Apache-2.0
  15:Source\FilteringFunctions/arm_conv_partial_q31.c ****  *
  16:Source\FilteringFunctions/arm_conv_partial_q31.c ****  * Licensed under the Apache License, Version 2.0 (the License); you may
  17:Source\FilteringFunctions/arm_conv_partial_q31.c ****  * not use this file except in compliance with the License.
  18:Source\FilteringFunctions/arm_conv_partial_q31.c ****  * You may obtain a copy of the License at
  19:Source\FilteringFunctions/arm_conv_partial_q31.c ****  *
  20:Source\FilteringFunctions/arm_conv_partial_q31.c ****  * www.apache.org/licenses/LICENSE-2.0
  21:Source\FilteringFunctions/arm_conv_partial_q31.c ****  *
  22:Source\FilteringFunctions/arm_conv_partial_q31.c ****  * Unless required by applicable law or agreed to in writing, software
  23:Source\FilteringFunctions/arm_conv_partial_q31.c ****  * distributed under the License is distributed on an AS IS BASIS, WITHOUT
  24:Source\FilteringFunctions/arm_conv_partial_q31.c ****  * WARRANTIES OR CONDITIONS OF ANY KIND, either express or implied.
  25:Source\FilteringFunctions/arm_conv_partial_q31.c ****  * See the License for the specific language governing permissions and
  26:Source\FilteringFunctions/arm_conv_partial_q31.c ****  * limitations under the License.
  27:Source\FilteringFunctions/arm_conv_partial_q31.c ****  */
  28:Source\FilteringFunctions/arm_conv_partial_q31.c **** 
  29:Source\FilteringFunctions/arm_conv_partial_q31.c **** #include "arm_math.h"
  30:Source\FilteringFunctions/arm_conv_partial_q31.c **** 
  31:Source\FilteringFunctions/arm_conv_partial_q31.c **** /**
ARM GAS  C:\Users\fneves\AppData\Local\Temp\cc7eJLfh.s 			page 2


  32:Source\FilteringFunctions/arm_conv_partial_q31.c ****  * @ingroup groupFilters
  33:Source\FilteringFunctions/arm_conv_partial_q31.c ****  */
  34:Source\FilteringFunctions/arm_conv_partial_q31.c **** 
  35:Source\FilteringFunctions/arm_conv_partial_q31.c **** /**
  36:Source\FilteringFunctions/arm_conv_partial_q31.c ****  * @addtogroup PartialConv
  37:Source\FilteringFunctions/arm_conv_partial_q31.c ****  * @{
  38:Source\FilteringFunctions/arm_conv_partial_q31.c ****  */
  39:Source\FilteringFunctions/arm_conv_partial_q31.c **** 
  40:Source\FilteringFunctions/arm_conv_partial_q31.c **** /**
  41:Source\FilteringFunctions/arm_conv_partial_q31.c ****  * @brief Partial convolution of Q31 sequences.
  42:Source\FilteringFunctions/arm_conv_partial_q31.c ****  * @param[in]       *pSrcA points to the first input sequence.
  43:Source\FilteringFunctions/arm_conv_partial_q31.c ****  * @param[in]       srcALen length of the first input sequence.
  44:Source\FilteringFunctions/arm_conv_partial_q31.c ****  * @param[in]       *pSrcB points to the second input sequence.
  45:Source\FilteringFunctions/arm_conv_partial_q31.c ****  * @param[in]       srcBLen length of the second input sequence.
  46:Source\FilteringFunctions/arm_conv_partial_q31.c ****  * @param[out]      *pDst points to the location where the output result is written.
  47:Source\FilteringFunctions/arm_conv_partial_q31.c ****  * @param[in]       firstIndex is the first output sample to start with.
  48:Source\FilteringFunctions/arm_conv_partial_q31.c ****  * @param[in]       numPoints is the number of output points to be computed.
  49:Source\FilteringFunctions/arm_conv_partial_q31.c ****  * @return Returns either ARM_MATH_SUCCESS if the function completed correctly or ARM_MATH_ARGUMENT
  50:Source\FilteringFunctions/arm_conv_partial_q31.c ****  *
  51:Source\FilteringFunctions/arm_conv_partial_q31.c ****  * See <code>arm_conv_partial_fast_q31()</code> for a faster but less precise implementation of thi
  52:Source\FilteringFunctions/arm_conv_partial_q31.c ****  */
  53:Source\FilteringFunctions/arm_conv_partial_q31.c **** 
  54:Source\FilteringFunctions/arm_conv_partial_q31.c **** arm_status arm_conv_partial_q31(
  55:Source\FilteringFunctions/arm_conv_partial_q31.c ****   q31_t * pSrcA,
  56:Source\FilteringFunctions/arm_conv_partial_q31.c ****   uint32_t srcALen,
  57:Source\FilteringFunctions/arm_conv_partial_q31.c ****   q31_t * pSrcB,
  58:Source\FilteringFunctions/arm_conv_partial_q31.c ****   uint32_t srcBLen,
  59:Source\FilteringFunctions/arm_conv_partial_q31.c ****   q31_t * pDst,
  60:Source\FilteringFunctions/arm_conv_partial_q31.c ****   uint32_t firstIndex,
  61:Source\FilteringFunctions/arm_conv_partial_q31.c ****   uint32_t numPoints)
  62:Source\FilteringFunctions/arm_conv_partial_q31.c **** {
  27              		.loc 1 62 0
  28              		.cfi_startproc
  29 0000 B0B5     		push	{r4, r5, r7, lr}
  30              		.cfi_def_cfa_offset 16
  31              		.cfi_offset 4, -16
  32              		.cfi_offset 5, -12
  33              		.cfi_offset 7, -8
  34              		.cfi_offset 14, -4
  35 0002 90B0     		sub	sp, sp, #64
  36              		.cfi_def_cfa_offset 80
  37 0004 00AF     		add	r7, sp, #0
  38              		.cfi_def_cfa_register 7
  39 0006 F861     		str	r0, [r7, #28]
  40 0008 B961     		str	r1, [r7, #24]
  41 000a 7A61     		str	r2, [r7, #20]
  42 000c 3B61     		str	r3, [r7, #16]
  63:Source\FilteringFunctions/arm_conv_partial_q31.c **** 
  64:Source\FilteringFunctions/arm_conv_partial_q31.c **** 
  65:Source\FilteringFunctions/arm_conv_partial_q31.c **** #if defined (ARM_MATH_DSP)
  66:Source\FilteringFunctions/arm_conv_partial_q31.c **** 
  67:Source\FilteringFunctions/arm_conv_partial_q31.c ****   /* Run the below code for Cortex-M4 and Cortex-M3 */
  68:Source\FilteringFunctions/arm_conv_partial_q31.c **** 
  69:Source\FilteringFunctions/arm_conv_partial_q31.c ****   q31_t *pIn1;                                   /* inputA pointer               */
  70:Source\FilteringFunctions/arm_conv_partial_q31.c ****   q31_t *pIn2;                                   /* inputB pointer               */
  71:Source\FilteringFunctions/arm_conv_partial_q31.c ****   q31_t *pOut = pDst;                            /* output pointer               */
  72:Source\FilteringFunctions/arm_conv_partial_q31.c ****   q31_t *px;                                     /* Intermediate inputA pointer  */
ARM GAS  C:\Users\fneves\AppData\Local\Temp\cc7eJLfh.s 			page 3


  73:Source\FilteringFunctions/arm_conv_partial_q31.c ****   q31_t *py;                                     /* Intermediate inputB pointer  */
  74:Source\FilteringFunctions/arm_conv_partial_q31.c ****   q31_t *pSrc1, *pSrc2;                          /* Intermediate pointers        */
  75:Source\FilteringFunctions/arm_conv_partial_q31.c ****   q63_t sum, acc0, acc1, acc2;                   /* Accumulator                  */
  76:Source\FilteringFunctions/arm_conv_partial_q31.c ****   q31_t x0, x1, x2, c0;
  77:Source\FilteringFunctions/arm_conv_partial_q31.c ****   uint32_t j, k, count, check, blkCnt;
  78:Source\FilteringFunctions/arm_conv_partial_q31.c ****   int32_t blockSize1, blockSize2, blockSize3;    /* loop counter                 */
  79:Source\FilteringFunctions/arm_conv_partial_q31.c ****   arm_status status;                             /* status of Partial convolution */
  80:Source\FilteringFunctions/arm_conv_partial_q31.c **** 
  81:Source\FilteringFunctions/arm_conv_partial_q31.c **** 
  82:Source\FilteringFunctions/arm_conv_partial_q31.c ****   /* Check for range of output samples to be calculated */
  83:Source\FilteringFunctions/arm_conv_partial_q31.c ****   if ((firstIndex + numPoints) > ((srcALen + (srcBLen - 1u))))
  84:Source\FilteringFunctions/arm_conv_partial_q31.c ****   {
  85:Source\FilteringFunctions/arm_conv_partial_q31.c ****     /* Set status as ARM_MATH_ARGUMENT_ERROR */
  86:Source\FilteringFunctions/arm_conv_partial_q31.c ****     status = ARM_MATH_ARGUMENT_ERROR;
  87:Source\FilteringFunctions/arm_conv_partial_q31.c ****   }
  88:Source\FilteringFunctions/arm_conv_partial_q31.c ****   else
  89:Source\FilteringFunctions/arm_conv_partial_q31.c ****   {
  90:Source\FilteringFunctions/arm_conv_partial_q31.c **** 
  91:Source\FilteringFunctions/arm_conv_partial_q31.c ****     /* The algorithm implementation is based on the lengths of the inputs. */
  92:Source\FilteringFunctions/arm_conv_partial_q31.c ****     /* srcB is always made to slide across srcA. */
  93:Source\FilteringFunctions/arm_conv_partial_q31.c ****     /* So srcBLen is always considered as shorter or equal to srcALen */
  94:Source\FilteringFunctions/arm_conv_partial_q31.c ****     if (srcALen >= srcBLen)
  95:Source\FilteringFunctions/arm_conv_partial_q31.c ****     {
  96:Source\FilteringFunctions/arm_conv_partial_q31.c ****       /* Initialization of inputA pointer */
  97:Source\FilteringFunctions/arm_conv_partial_q31.c ****       pIn1 = pSrcA;
  98:Source\FilteringFunctions/arm_conv_partial_q31.c **** 
  99:Source\FilteringFunctions/arm_conv_partial_q31.c ****       /* Initialization of inputB pointer */
 100:Source\FilteringFunctions/arm_conv_partial_q31.c ****       pIn2 = pSrcB;
 101:Source\FilteringFunctions/arm_conv_partial_q31.c ****     }
 102:Source\FilteringFunctions/arm_conv_partial_q31.c ****     else
 103:Source\FilteringFunctions/arm_conv_partial_q31.c ****     {
 104:Source\FilteringFunctions/arm_conv_partial_q31.c ****       /* Initialization of inputA pointer */
 105:Source\FilteringFunctions/arm_conv_partial_q31.c ****       pIn1 = pSrcB;
 106:Source\FilteringFunctions/arm_conv_partial_q31.c **** 
 107:Source\FilteringFunctions/arm_conv_partial_q31.c ****       /* Initialization of inputB pointer */
 108:Source\FilteringFunctions/arm_conv_partial_q31.c ****       pIn2 = pSrcA;
 109:Source\FilteringFunctions/arm_conv_partial_q31.c **** 
 110:Source\FilteringFunctions/arm_conv_partial_q31.c ****       /* srcBLen is always considered as shorter or equal to srcALen */
 111:Source\FilteringFunctions/arm_conv_partial_q31.c ****       j = srcBLen;
 112:Source\FilteringFunctions/arm_conv_partial_q31.c ****       srcBLen = srcALen;
 113:Source\FilteringFunctions/arm_conv_partial_q31.c ****       srcALen = j;
 114:Source\FilteringFunctions/arm_conv_partial_q31.c ****     }
 115:Source\FilteringFunctions/arm_conv_partial_q31.c **** 
 116:Source\FilteringFunctions/arm_conv_partial_q31.c ****     /* Conditions to check which loopCounter holds
 117:Source\FilteringFunctions/arm_conv_partial_q31.c ****      * the first and last indices of the output samples to be calculated. */
 118:Source\FilteringFunctions/arm_conv_partial_q31.c ****     check = firstIndex + numPoints;
 119:Source\FilteringFunctions/arm_conv_partial_q31.c ****     blockSize3 = ((int32_t)check > (int32_t)srcALen) ? (int32_t)check - (int32_t)srcALen : 0;
 120:Source\FilteringFunctions/arm_conv_partial_q31.c ****     blockSize3 = ((int32_t)firstIndex > (int32_t)srcALen - 1) ? blockSize3 - (int32_t)firstIndex + 
 121:Source\FilteringFunctions/arm_conv_partial_q31.c ****     blockSize1 = (((int32_t) srcBLen - 1) - (int32_t) firstIndex);
 122:Source\FilteringFunctions/arm_conv_partial_q31.c ****     blockSize1 = (blockSize1 > 0) ? ((check > (srcBLen - 1u)) ? blockSize1 :
 123:Source\FilteringFunctions/arm_conv_partial_q31.c ****                                      (int32_t) numPoints) : 0;
 124:Source\FilteringFunctions/arm_conv_partial_q31.c ****     blockSize2 = (int32_t) check - ((blockSize3 + blockSize1) +
 125:Source\FilteringFunctions/arm_conv_partial_q31.c ****                                     (int32_t) firstIndex);
 126:Source\FilteringFunctions/arm_conv_partial_q31.c ****     blockSize2 = (blockSize2 > 0) ? blockSize2 : 0;
 127:Source\FilteringFunctions/arm_conv_partial_q31.c **** 
 128:Source\FilteringFunctions/arm_conv_partial_q31.c ****     /* conv(x,y) at n = x[n] * y[0] + x[n-1] * y[1] + x[n-2] * y[2] + ...+ x[n-N+1] * y[N -1] */
 129:Source\FilteringFunctions/arm_conv_partial_q31.c ****     /* The function is internally
ARM GAS  C:\Users\fneves\AppData\Local\Temp\cc7eJLfh.s 			page 4


 130:Source\FilteringFunctions/arm_conv_partial_q31.c ****      * divided into three stages according to the number of multiplications that has to be
 131:Source\FilteringFunctions/arm_conv_partial_q31.c ****      * taken place between inputA samples and inputB samples. In the first stage of the
 132:Source\FilteringFunctions/arm_conv_partial_q31.c ****      * algorithm, the multiplications increase by one for every iteration.
 133:Source\FilteringFunctions/arm_conv_partial_q31.c ****      * In the second stage of the algorithm, srcBLen number of multiplications are done.
 134:Source\FilteringFunctions/arm_conv_partial_q31.c ****      * In the third stage of the algorithm, the multiplications decrease by one
 135:Source\FilteringFunctions/arm_conv_partial_q31.c ****      * for every iteration. */
 136:Source\FilteringFunctions/arm_conv_partial_q31.c **** 
 137:Source\FilteringFunctions/arm_conv_partial_q31.c ****     /* Set the output pointer to point to the firstIndex
 138:Source\FilteringFunctions/arm_conv_partial_q31.c ****      * of the output sample to be calculated. */
 139:Source\FilteringFunctions/arm_conv_partial_q31.c ****     pOut = pDst + firstIndex;
 140:Source\FilteringFunctions/arm_conv_partial_q31.c **** 
 141:Source\FilteringFunctions/arm_conv_partial_q31.c ****     /* --------------------------
 142:Source\FilteringFunctions/arm_conv_partial_q31.c ****      * Initializations of stage1
 143:Source\FilteringFunctions/arm_conv_partial_q31.c ****      * -------------------------*/
 144:Source\FilteringFunctions/arm_conv_partial_q31.c **** 
 145:Source\FilteringFunctions/arm_conv_partial_q31.c ****     /* sum = x[0] * y[0]
 146:Source\FilteringFunctions/arm_conv_partial_q31.c ****      * sum = x[0] * y[1] + x[1] * y[0]
 147:Source\FilteringFunctions/arm_conv_partial_q31.c ****      * ....
 148:Source\FilteringFunctions/arm_conv_partial_q31.c ****      * sum = x[0] * y[srcBlen - 1] + x[1] * y[srcBlen - 2] +...+ x[srcBLen - 1] * y[0]
 149:Source\FilteringFunctions/arm_conv_partial_q31.c ****      */
 150:Source\FilteringFunctions/arm_conv_partial_q31.c **** 
 151:Source\FilteringFunctions/arm_conv_partial_q31.c ****     /* In this stage the MAC operations are increased by 1 for every iteration.
 152:Source\FilteringFunctions/arm_conv_partial_q31.c ****        The count variable holds the number of MAC operations performed.
 153:Source\FilteringFunctions/arm_conv_partial_q31.c ****        Since the partial convolution starts from firstIndex
 154:Source\FilteringFunctions/arm_conv_partial_q31.c ****        Number of Macs to be performed is firstIndex + 1 */
 155:Source\FilteringFunctions/arm_conv_partial_q31.c ****     count = 1u + firstIndex;
 156:Source\FilteringFunctions/arm_conv_partial_q31.c **** 
 157:Source\FilteringFunctions/arm_conv_partial_q31.c ****     /* Working pointer of inputA */
 158:Source\FilteringFunctions/arm_conv_partial_q31.c ****     px = pIn1;
 159:Source\FilteringFunctions/arm_conv_partial_q31.c **** 
 160:Source\FilteringFunctions/arm_conv_partial_q31.c ****     /* Working pointer of inputB */
 161:Source\FilteringFunctions/arm_conv_partial_q31.c ****     pSrc2 = pIn2 + firstIndex;
 162:Source\FilteringFunctions/arm_conv_partial_q31.c ****     py = pSrc2;
 163:Source\FilteringFunctions/arm_conv_partial_q31.c **** 
 164:Source\FilteringFunctions/arm_conv_partial_q31.c ****     /* ------------------------
 165:Source\FilteringFunctions/arm_conv_partial_q31.c ****      * Stage1 process
 166:Source\FilteringFunctions/arm_conv_partial_q31.c ****      * ----------------------*/
 167:Source\FilteringFunctions/arm_conv_partial_q31.c **** 
 168:Source\FilteringFunctions/arm_conv_partial_q31.c ****     /* The first loop starts here */
 169:Source\FilteringFunctions/arm_conv_partial_q31.c ****     while (blockSize1 > 0)
 170:Source\FilteringFunctions/arm_conv_partial_q31.c ****     {
 171:Source\FilteringFunctions/arm_conv_partial_q31.c ****       /* Accumulator is made zero for every iteration */
 172:Source\FilteringFunctions/arm_conv_partial_q31.c ****       sum = 0;
 173:Source\FilteringFunctions/arm_conv_partial_q31.c **** 
 174:Source\FilteringFunctions/arm_conv_partial_q31.c ****       /* Apply loop unrolling and compute 4 MACs simultaneously. */
 175:Source\FilteringFunctions/arm_conv_partial_q31.c ****       k = count >> 2u;
 176:Source\FilteringFunctions/arm_conv_partial_q31.c **** 
 177:Source\FilteringFunctions/arm_conv_partial_q31.c ****       /* First part of the processing with loop unrolling.  Compute 4 MACs at a time.
 178:Source\FilteringFunctions/arm_conv_partial_q31.c ****        ** a second loop below computes MACs for the remaining 1 to 3 samples. */
 179:Source\FilteringFunctions/arm_conv_partial_q31.c ****       while (k > 0u)
 180:Source\FilteringFunctions/arm_conv_partial_q31.c ****       {
 181:Source\FilteringFunctions/arm_conv_partial_q31.c ****         /* x[0] * y[srcBLen - 1] */
 182:Source\FilteringFunctions/arm_conv_partial_q31.c ****         sum += (q63_t) * px++ * (*py--);
 183:Source\FilteringFunctions/arm_conv_partial_q31.c ****         /* x[1] * y[srcBLen - 2] */
 184:Source\FilteringFunctions/arm_conv_partial_q31.c ****         sum += (q63_t) * px++ * (*py--);
 185:Source\FilteringFunctions/arm_conv_partial_q31.c ****         /* x[2] * y[srcBLen - 3] */
 186:Source\FilteringFunctions/arm_conv_partial_q31.c ****         sum += (q63_t) * px++ * (*py--);
ARM GAS  C:\Users\fneves\AppData\Local\Temp\cc7eJLfh.s 			page 5


 187:Source\FilteringFunctions/arm_conv_partial_q31.c ****         /* x[3] * y[srcBLen - 4] */
 188:Source\FilteringFunctions/arm_conv_partial_q31.c ****         sum += (q63_t) * px++ * (*py--);
 189:Source\FilteringFunctions/arm_conv_partial_q31.c **** 
 190:Source\FilteringFunctions/arm_conv_partial_q31.c ****         /* Decrement the loop counter */
 191:Source\FilteringFunctions/arm_conv_partial_q31.c ****         k--;
 192:Source\FilteringFunctions/arm_conv_partial_q31.c ****       }
 193:Source\FilteringFunctions/arm_conv_partial_q31.c **** 
 194:Source\FilteringFunctions/arm_conv_partial_q31.c ****       /* If the count is not a multiple of 4, compute any remaining MACs here.
 195:Source\FilteringFunctions/arm_conv_partial_q31.c ****        ** No loop unrolling is used. */
 196:Source\FilteringFunctions/arm_conv_partial_q31.c ****       k = count % 0x4u;
 197:Source\FilteringFunctions/arm_conv_partial_q31.c **** 
 198:Source\FilteringFunctions/arm_conv_partial_q31.c ****       while (k > 0u)
 199:Source\FilteringFunctions/arm_conv_partial_q31.c ****       {
 200:Source\FilteringFunctions/arm_conv_partial_q31.c ****         /* Perform the multiply-accumulate */
 201:Source\FilteringFunctions/arm_conv_partial_q31.c ****         sum += (q63_t) * px++ * (*py--);
 202:Source\FilteringFunctions/arm_conv_partial_q31.c **** 
 203:Source\FilteringFunctions/arm_conv_partial_q31.c ****         /* Decrement the loop counter */
 204:Source\FilteringFunctions/arm_conv_partial_q31.c ****         k--;
 205:Source\FilteringFunctions/arm_conv_partial_q31.c ****       }
 206:Source\FilteringFunctions/arm_conv_partial_q31.c **** 
 207:Source\FilteringFunctions/arm_conv_partial_q31.c ****       /* Store the result in the accumulator in the destination buffer. */
 208:Source\FilteringFunctions/arm_conv_partial_q31.c ****       *pOut++ = (q31_t) (sum >> 31);
 209:Source\FilteringFunctions/arm_conv_partial_q31.c **** 
 210:Source\FilteringFunctions/arm_conv_partial_q31.c ****       /* Update the inputA and inputB pointers for next MAC calculation */
 211:Source\FilteringFunctions/arm_conv_partial_q31.c ****       py = ++pSrc2;
 212:Source\FilteringFunctions/arm_conv_partial_q31.c ****       px = pIn1;
 213:Source\FilteringFunctions/arm_conv_partial_q31.c **** 
 214:Source\FilteringFunctions/arm_conv_partial_q31.c ****       /* Increment the MAC count */
 215:Source\FilteringFunctions/arm_conv_partial_q31.c ****       count++;
 216:Source\FilteringFunctions/arm_conv_partial_q31.c **** 
 217:Source\FilteringFunctions/arm_conv_partial_q31.c ****       /* Decrement the loop counter */
 218:Source\FilteringFunctions/arm_conv_partial_q31.c ****       blockSize1--;
 219:Source\FilteringFunctions/arm_conv_partial_q31.c ****     }
 220:Source\FilteringFunctions/arm_conv_partial_q31.c **** 
 221:Source\FilteringFunctions/arm_conv_partial_q31.c ****     /* --------------------------
 222:Source\FilteringFunctions/arm_conv_partial_q31.c ****      * Initializations of stage2
 223:Source\FilteringFunctions/arm_conv_partial_q31.c ****      * ------------------------*/
 224:Source\FilteringFunctions/arm_conv_partial_q31.c **** 
 225:Source\FilteringFunctions/arm_conv_partial_q31.c ****     /* sum = x[0] * y[srcBLen-1] + x[1] * y[srcBLen-2] +...+ x[srcBLen-1] * y[0]
 226:Source\FilteringFunctions/arm_conv_partial_q31.c ****      * sum = x[1] * y[srcBLen-1] + x[2] * y[srcBLen-2] +...+ x[srcBLen] * y[0]
 227:Source\FilteringFunctions/arm_conv_partial_q31.c ****      * ....
 228:Source\FilteringFunctions/arm_conv_partial_q31.c ****      * sum = x[srcALen-srcBLen-2] * y[srcBLen-1] + x[srcALen] * y[srcBLen-2] +...+ x[srcALen-1] * y
 229:Source\FilteringFunctions/arm_conv_partial_q31.c ****      */
 230:Source\FilteringFunctions/arm_conv_partial_q31.c **** 
 231:Source\FilteringFunctions/arm_conv_partial_q31.c ****     /* Working pointer of inputA */
 232:Source\FilteringFunctions/arm_conv_partial_q31.c ****     if ((int32_t)firstIndex - (int32_t)srcBLen + 1 > 0)
 233:Source\FilteringFunctions/arm_conv_partial_q31.c ****     {
 234:Source\FilteringFunctions/arm_conv_partial_q31.c ****       px = pIn1 + firstIndex - srcBLen + 1;
 235:Source\FilteringFunctions/arm_conv_partial_q31.c ****     }
 236:Source\FilteringFunctions/arm_conv_partial_q31.c ****     else
 237:Source\FilteringFunctions/arm_conv_partial_q31.c ****     {
 238:Source\FilteringFunctions/arm_conv_partial_q31.c ****       px = pIn1;
 239:Source\FilteringFunctions/arm_conv_partial_q31.c ****     }
 240:Source\FilteringFunctions/arm_conv_partial_q31.c **** 
 241:Source\FilteringFunctions/arm_conv_partial_q31.c ****     /* Working pointer of inputB */
 242:Source\FilteringFunctions/arm_conv_partial_q31.c ****     pSrc2 = pIn2 + (srcBLen - 1u);
 243:Source\FilteringFunctions/arm_conv_partial_q31.c ****     py = pSrc2;
ARM GAS  C:\Users\fneves\AppData\Local\Temp\cc7eJLfh.s 			page 6


 244:Source\FilteringFunctions/arm_conv_partial_q31.c **** 
 245:Source\FilteringFunctions/arm_conv_partial_q31.c ****     /* count is index by which the pointer pIn1 to be incremented */
 246:Source\FilteringFunctions/arm_conv_partial_q31.c ****     count = 0u;
 247:Source\FilteringFunctions/arm_conv_partial_q31.c **** 
 248:Source\FilteringFunctions/arm_conv_partial_q31.c ****     /* -------------------
 249:Source\FilteringFunctions/arm_conv_partial_q31.c ****      * Stage2 process
 250:Source\FilteringFunctions/arm_conv_partial_q31.c ****      * ------------------*/
 251:Source\FilteringFunctions/arm_conv_partial_q31.c **** 
 252:Source\FilteringFunctions/arm_conv_partial_q31.c ****     /* Stage2 depends on srcBLen as in this stage srcBLen number of MACS are performed.
 253:Source\FilteringFunctions/arm_conv_partial_q31.c ****      * So, to loop unroll over blockSize2,
 254:Source\FilteringFunctions/arm_conv_partial_q31.c ****      * srcBLen should be greater than or equal to 4 */
 255:Source\FilteringFunctions/arm_conv_partial_q31.c ****     if (srcBLen >= 4u)
 256:Source\FilteringFunctions/arm_conv_partial_q31.c ****     {
 257:Source\FilteringFunctions/arm_conv_partial_q31.c ****       /* Loop unroll over blkCnt */
 258:Source\FilteringFunctions/arm_conv_partial_q31.c **** 
 259:Source\FilteringFunctions/arm_conv_partial_q31.c ****       blkCnt = blockSize2 / 3;
 260:Source\FilteringFunctions/arm_conv_partial_q31.c ****       while (blkCnt > 0u)
 261:Source\FilteringFunctions/arm_conv_partial_q31.c ****       {
 262:Source\FilteringFunctions/arm_conv_partial_q31.c ****         /* Set all accumulators to zero */
 263:Source\FilteringFunctions/arm_conv_partial_q31.c ****         acc0 = 0;
 264:Source\FilteringFunctions/arm_conv_partial_q31.c ****         acc1 = 0;
 265:Source\FilteringFunctions/arm_conv_partial_q31.c ****         acc2 = 0;
 266:Source\FilteringFunctions/arm_conv_partial_q31.c **** 
 267:Source\FilteringFunctions/arm_conv_partial_q31.c ****         /* read x[0], x[1] samples */
 268:Source\FilteringFunctions/arm_conv_partial_q31.c ****         x0 = *(px++);
 269:Source\FilteringFunctions/arm_conv_partial_q31.c ****         x1 = *(px++);
 270:Source\FilteringFunctions/arm_conv_partial_q31.c **** 
 271:Source\FilteringFunctions/arm_conv_partial_q31.c ****         /* Apply loop unrolling and compute 3 MACs simultaneously. */
 272:Source\FilteringFunctions/arm_conv_partial_q31.c ****         k = srcBLen / 3;
 273:Source\FilteringFunctions/arm_conv_partial_q31.c **** 
 274:Source\FilteringFunctions/arm_conv_partial_q31.c ****         /* First part of the processing with loop unrolling.  Compute 3 MACs at a time.
 275:Source\FilteringFunctions/arm_conv_partial_q31.c ****          ** a second loop below computes MACs for the remaining 1 to 2 samples. */
 276:Source\FilteringFunctions/arm_conv_partial_q31.c ****         do
 277:Source\FilteringFunctions/arm_conv_partial_q31.c ****         {
 278:Source\FilteringFunctions/arm_conv_partial_q31.c ****           /* Read y[srcBLen - 1] sample */
 279:Source\FilteringFunctions/arm_conv_partial_q31.c ****           c0 = *(py);
 280:Source\FilteringFunctions/arm_conv_partial_q31.c **** 
 281:Source\FilteringFunctions/arm_conv_partial_q31.c ****           /* Read x[2] sample */
 282:Source\FilteringFunctions/arm_conv_partial_q31.c ****           x2 = *(px);
 283:Source\FilteringFunctions/arm_conv_partial_q31.c **** 
 284:Source\FilteringFunctions/arm_conv_partial_q31.c ****           /* Perform the multiply-accumulates */
 285:Source\FilteringFunctions/arm_conv_partial_q31.c ****           /* acc0 +=  x[0] * y[srcBLen - 1] */
 286:Source\FilteringFunctions/arm_conv_partial_q31.c ****           acc0 += (q63_t) x0 *c0;
 287:Source\FilteringFunctions/arm_conv_partial_q31.c ****           /* acc1 +=  x[1] * y[srcBLen - 1] */
 288:Source\FilteringFunctions/arm_conv_partial_q31.c ****           acc1 += (q63_t) x1 *c0;
 289:Source\FilteringFunctions/arm_conv_partial_q31.c ****           /* acc2 +=  x[2] * y[srcBLen - 1] */
 290:Source\FilteringFunctions/arm_conv_partial_q31.c ****           acc2 += (q63_t) x2 *c0;
 291:Source\FilteringFunctions/arm_conv_partial_q31.c **** 
 292:Source\FilteringFunctions/arm_conv_partial_q31.c ****           /* Read y[srcBLen - 2] sample */
 293:Source\FilteringFunctions/arm_conv_partial_q31.c ****           c0 = *(py - 1u);
 294:Source\FilteringFunctions/arm_conv_partial_q31.c **** 
 295:Source\FilteringFunctions/arm_conv_partial_q31.c ****           /* Read x[3] sample */
 296:Source\FilteringFunctions/arm_conv_partial_q31.c ****           x0 = *(px + 1u);
 297:Source\FilteringFunctions/arm_conv_partial_q31.c **** 
 298:Source\FilteringFunctions/arm_conv_partial_q31.c ****           /* Perform the multiply-accumulate */
 299:Source\FilteringFunctions/arm_conv_partial_q31.c ****           /* acc0 +=  x[1] * y[srcBLen - 2] */
 300:Source\FilteringFunctions/arm_conv_partial_q31.c ****           acc0 += (q63_t) x1 *c0;
ARM GAS  C:\Users\fneves\AppData\Local\Temp\cc7eJLfh.s 			page 7


 301:Source\FilteringFunctions/arm_conv_partial_q31.c ****           /* acc1 +=  x[2] * y[srcBLen - 2] */
 302:Source\FilteringFunctions/arm_conv_partial_q31.c ****           acc1 += (q63_t) x2 *c0;
 303:Source\FilteringFunctions/arm_conv_partial_q31.c ****           /* acc2 +=  x[3] * y[srcBLen - 2] */
 304:Source\FilteringFunctions/arm_conv_partial_q31.c ****           acc2 += (q63_t) x0 *c0;
 305:Source\FilteringFunctions/arm_conv_partial_q31.c **** 
 306:Source\FilteringFunctions/arm_conv_partial_q31.c ****           /* Read y[srcBLen - 3] sample */
 307:Source\FilteringFunctions/arm_conv_partial_q31.c ****           c0 = *(py - 2u);
 308:Source\FilteringFunctions/arm_conv_partial_q31.c **** 
 309:Source\FilteringFunctions/arm_conv_partial_q31.c ****           /* Read x[4] sample */
 310:Source\FilteringFunctions/arm_conv_partial_q31.c ****           x1 = *(px + 2u);
 311:Source\FilteringFunctions/arm_conv_partial_q31.c **** 
 312:Source\FilteringFunctions/arm_conv_partial_q31.c ****           /* Perform the multiply-accumulates */
 313:Source\FilteringFunctions/arm_conv_partial_q31.c ****           /* acc0 +=  x[2] * y[srcBLen - 3] */
 314:Source\FilteringFunctions/arm_conv_partial_q31.c ****           acc0 += (q63_t) x2 *c0;
 315:Source\FilteringFunctions/arm_conv_partial_q31.c ****           /* acc1 +=  x[3] * y[srcBLen - 2] */
 316:Source\FilteringFunctions/arm_conv_partial_q31.c ****           acc1 += (q63_t) x0 *c0;
 317:Source\FilteringFunctions/arm_conv_partial_q31.c ****           /* acc2 +=  x[4] * y[srcBLen - 2] */
 318:Source\FilteringFunctions/arm_conv_partial_q31.c ****           acc2 += (q63_t) x1 *c0;
 319:Source\FilteringFunctions/arm_conv_partial_q31.c **** 
 320:Source\FilteringFunctions/arm_conv_partial_q31.c **** 
 321:Source\FilteringFunctions/arm_conv_partial_q31.c ****           px += 3u;
 322:Source\FilteringFunctions/arm_conv_partial_q31.c **** 
 323:Source\FilteringFunctions/arm_conv_partial_q31.c ****           py -= 3u;
 324:Source\FilteringFunctions/arm_conv_partial_q31.c **** 
 325:Source\FilteringFunctions/arm_conv_partial_q31.c ****         } while (--k);
 326:Source\FilteringFunctions/arm_conv_partial_q31.c **** 
 327:Source\FilteringFunctions/arm_conv_partial_q31.c ****         /* If the srcBLen is not a multiple of 3, compute any remaining MACs here.
 328:Source\FilteringFunctions/arm_conv_partial_q31.c ****          ** No loop unrolling is used. */
 329:Source\FilteringFunctions/arm_conv_partial_q31.c ****         k = srcBLen - (3 * (srcBLen / 3));
 330:Source\FilteringFunctions/arm_conv_partial_q31.c **** 
 331:Source\FilteringFunctions/arm_conv_partial_q31.c ****         while (k > 0u)
 332:Source\FilteringFunctions/arm_conv_partial_q31.c ****         {
 333:Source\FilteringFunctions/arm_conv_partial_q31.c ****           /* Read y[srcBLen - 5] sample */
 334:Source\FilteringFunctions/arm_conv_partial_q31.c ****           c0 = *(py--);
 335:Source\FilteringFunctions/arm_conv_partial_q31.c **** 
 336:Source\FilteringFunctions/arm_conv_partial_q31.c ****           /* Read x[7] sample */
 337:Source\FilteringFunctions/arm_conv_partial_q31.c ****           x2 = *(px++);
 338:Source\FilteringFunctions/arm_conv_partial_q31.c **** 
 339:Source\FilteringFunctions/arm_conv_partial_q31.c ****           /* Perform the multiply-accumulates */
 340:Source\FilteringFunctions/arm_conv_partial_q31.c ****           /* acc0 +=  x[4] * y[srcBLen - 5] */
 341:Source\FilteringFunctions/arm_conv_partial_q31.c ****           acc0 += (q63_t) x0 *c0;
 342:Source\FilteringFunctions/arm_conv_partial_q31.c ****           /* acc1 +=  x[5] * y[srcBLen - 5] */
 343:Source\FilteringFunctions/arm_conv_partial_q31.c ****           acc1 += (q63_t) x1 *c0;
 344:Source\FilteringFunctions/arm_conv_partial_q31.c ****           /* acc2 +=  x[6] * y[srcBLen - 5] */
 345:Source\FilteringFunctions/arm_conv_partial_q31.c ****           acc2 += (q63_t) x2 *c0;
 346:Source\FilteringFunctions/arm_conv_partial_q31.c **** 
 347:Source\FilteringFunctions/arm_conv_partial_q31.c ****           /* Reuse the present samples for the next MAC */
 348:Source\FilteringFunctions/arm_conv_partial_q31.c ****           x0 = x1;
 349:Source\FilteringFunctions/arm_conv_partial_q31.c ****           x1 = x2;
 350:Source\FilteringFunctions/arm_conv_partial_q31.c **** 
 351:Source\FilteringFunctions/arm_conv_partial_q31.c ****           /* Decrement the loop counter */
 352:Source\FilteringFunctions/arm_conv_partial_q31.c ****           k--;
 353:Source\FilteringFunctions/arm_conv_partial_q31.c ****         }
 354:Source\FilteringFunctions/arm_conv_partial_q31.c **** 
 355:Source\FilteringFunctions/arm_conv_partial_q31.c ****         /* Store the result in the accumulator in the destination buffer. */
 356:Source\FilteringFunctions/arm_conv_partial_q31.c ****         *pOut++ = (q31_t) (acc0 >> 31);
 357:Source\FilteringFunctions/arm_conv_partial_q31.c ****         *pOut++ = (q31_t) (acc1 >> 31);
ARM GAS  C:\Users\fneves\AppData\Local\Temp\cc7eJLfh.s 			page 8


 358:Source\FilteringFunctions/arm_conv_partial_q31.c ****         *pOut++ = (q31_t) (acc2 >> 31);
 359:Source\FilteringFunctions/arm_conv_partial_q31.c **** 
 360:Source\FilteringFunctions/arm_conv_partial_q31.c ****         /* Increment the pointer pIn1 index, count by 3 */
 361:Source\FilteringFunctions/arm_conv_partial_q31.c ****         count += 3u;
 362:Source\FilteringFunctions/arm_conv_partial_q31.c **** 
 363:Source\FilteringFunctions/arm_conv_partial_q31.c ****         /* Update the inputA and inputB pointers for next MAC calculation */
 364:Source\FilteringFunctions/arm_conv_partial_q31.c ****         px = pIn1 + count;
 365:Source\FilteringFunctions/arm_conv_partial_q31.c ****         py = pSrc2;
 366:Source\FilteringFunctions/arm_conv_partial_q31.c **** 
 367:Source\FilteringFunctions/arm_conv_partial_q31.c ****         /* Decrement the loop counter */
 368:Source\FilteringFunctions/arm_conv_partial_q31.c ****         blkCnt--;
 369:Source\FilteringFunctions/arm_conv_partial_q31.c ****       }
 370:Source\FilteringFunctions/arm_conv_partial_q31.c **** 
 371:Source\FilteringFunctions/arm_conv_partial_q31.c ****       /* If the blockSize2 is not a multiple of 3, compute any remaining output samples here.
 372:Source\FilteringFunctions/arm_conv_partial_q31.c ****        ** No loop unrolling is used. */
 373:Source\FilteringFunctions/arm_conv_partial_q31.c ****       blkCnt = blockSize2 - 3 * (blockSize2 / 3);
 374:Source\FilteringFunctions/arm_conv_partial_q31.c **** 
 375:Source\FilteringFunctions/arm_conv_partial_q31.c ****       while (blkCnt > 0u)
 376:Source\FilteringFunctions/arm_conv_partial_q31.c ****       {
 377:Source\FilteringFunctions/arm_conv_partial_q31.c ****         /* Accumulator is made zero for every iteration */
 378:Source\FilteringFunctions/arm_conv_partial_q31.c ****         sum = 0;
 379:Source\FilteringFunctions/arm_conv_partial_q31.c **** 
 380:Source\FilteringFunctions/arm_conv_partial_q31.c ****         /* Apply loop unrolling and compute 4 MACs simultaneously. */
 381:Source\FilteringFunctions/arm_conv_partial_q31.c ****         k = srcBLen >> 2u;
 382:Source\FilteringFunctions/arm_conv_partial_q31.c **** 
 383:Source\FilteringFunctions/arm_conv_partial_q31.c ****         /* First part of the processing with loop unrolling.  Compute 4 MACs at a time.
 384:Source\FilteringFunctions/arm_conv_partial_q31.c ****          ** a second loop below computes MACs for the remaining 1 to 3 samples. */
 385:Source\FilteringFunctions/arm_conv_partial_q31.c ****         while (k > 0u)
 386:Source\FilteringFunctions/arm_conv_partial_q31.c ****         {
 387:Source\FilteringFunctions/arm_conv_partial_q31.c ****           /* Perform the multiply-accumulates */
 388:Source\FilteringFunctions/arm_conv_partial_q31.c ****           sum += (q63_t) * px++ * (*py--);
 389:Source\FilteringFunctions/arm_conv_partial_q31.c ****           sum += (q63_t) * px++ * (*py--);
 390:Source\FilteringFunctions/arm_conv_partial_q31.c ****           sum += (q63_t) * px++ * (*py--);
 391:Source\FilteringFunctions/arm_conv_partial_q31.c ****           sum += (q63_t) * px++ * (*py--);
 392:Source\FilteringFunctions/arm_conv_partial_q31.c **** 
 393:Source\FilteringFunctions/arm_conv_partial_q31.c ****           /* Decrement the loop counter */
 394:Source\FilteringFunctions/arm_conv_partial_q31.c ****           k--;
 395:Source\FilteringFunctions/arm_conv_partial_q31.c ****         }
 396:Source\FilteringFunctions/arm_conv_partial_q31.c **** 
 397:Source\FilteringFunctions/arm_conv_partial_q31.c ****         /* If the srcBLen is not a multiple of 4, compute any remaining MACs here.
 398:Source\FilteringFunctions/arm_conv_partial_q31.c ****          ** No loop unrolling is used. */
 399:Source\FilteringFunctions/arm_conv_partial_q31.c ****         k = srcBLen % 0x4u;
 400:Source\FilteringFunctions/arm_conv_partial_q31.c **** 
 401:Source\FilteringFunctions/arm_conv_partial_q31.c ****         while (k > 0u)
 402:Source\FilteringFunctions/arm_conv_partial_q31.c ****         {
 403:Source\FilteringFunctions/arm_conv_partial_q31.c ****           /* Perform the multiply-accumulate */
 404:Source\FilteringFunctions/arm_conv_partial_q31.c ****           sum += (q63_t) * px++ * (*py--);
 405:Source\FilteringFunctions/arm_conv_partial_q31.c **** 
 406:Source\FilteringFunctions/arm_conv_partial_q31.c ****           /* Decrement the loop counter */
 407:Source\FilteringFunctions/arm_conv_partial_q31.c ****           k--;
 408:Source\FilteringFunctions/arm_conv_partial_q31.c ****         }
 409:Source\FilteringFunctions/arm_conv_partial_q31.c **** 
 410:Source\FilteringFunctions/arm_conv_partial_q31.c ****         /* Store the result in the accumulator in the destination buffer. */
 411:Source\FilteringFunctions/arm_conv_partial_q31.c ****         *pOut++ = (q31_t) (sum >> 31);
 412:Source\FilteringFunctions/arm_conv_partial_q31.c **** 
 413:Source\FilteringFunctions/arm_conv_partial_q31.c ****         /* Increment the MAC count */
 414:Source\FilteringFunctions/arm_conv_partial_q31.c ****         count++;
ARM GAS  C:\Users\fneves\AppData\Local\Temp\cc7eJLfh.s 			page 9


 415:Source\FilteringFunctions/arm_conv_partial_q31.c **** 
 416:Source\FilteringFunctions/arm_conv_partial_q31.c ****         /* Update the inputA and inputB pointers for next MAC calculation */
 417:Source\FilteringFunctions/arm_conv_partial_q31.c ****         px = pIn1 + count;
 418:Source\FilteringFunctions/arm_conv_partial_q31.c ****         py = pSrc2;
 419:Source\FilteringFunctions/arm_conv_partial_q31.c **** 
 420:Source\FilteringFunctions/arm_conv_partial_q31.c ****         /* Decrement the loop counter */
 421:Source\FilteringFunctions/arm_conv_partial_q31.c ****         blkCnt--;
 422:Source\FilteringFunctions/arm_conv_partial_q31.c ****       }
 423:Source\FilteringFunctions/arm_conv_partial_q31.c ****     }
 424:Source\FilteringFunctions/arm_conv_partial_q31.c ****     else
 425:Source\FilteringFunctions/arm_conv_partial_q31.c ****     {
 426:Source\FilteringFunctions/arm_conv_partial_q31.c ****       /* If the srcBLen is not a multiple of 4,
 427:Source\FilteringFunctions/arm_conv_partial_q31.c ****        * the blockSize2 loop cannot be unrolled by 4 */
 428:Source\FilteringFunctions/arm_conv_partial_q31.c ****       blkCnt = (uint32_t) blockSize2;
 429:Source\FilteringFunctions/arm_conv_partial_q31.c **** 
 430:Source\FilteringFunctions/arm_conv_partial_q31.c ****       while (blkCnt > 0u)
 431:Source\FilteringFunctions/arm_conv_partial_q31.c ****       {
 432:Source\FilteringFunctions/arm_conv_partial_q31.c ****         /* Accumulator is made zero for every iteration */
 433:Source\FilteringFunctions/arm_conv_partial_q31.c ****         sum = 0;
 434:Source\FilteringFunctions/arm_conv_partial_q31.c **** 
 435:Source\FilteringFunctions/arm_conv_partial_q31.c ****         /* srcBLen number of MACS should be performed */
 436:Source\FilteringFunctions/arm_conv_partial_q31.c ****         k = srcBLen;
 437:Source\FilteringFunctions/arm_conv_partial_q31.c **** 
 438:Source\FilteringFunctions/arm_conv_partial_q31.c ****         while (k > 0u)
 439:Source\FilteringFunctions/arm_conv_partial_q31.c ****         {
 440:Source\FilteringFunctions/arm_conv_partial_q31.c ****           /* Perform the multiply-accumulate */
 441:Source\FilteringFunctions/arm_conv_partial_q31.c ****           sum += (q63_t) * px++ * (*py--);
 442:Source\FilteringFunctions/arm_conv_partial_q31.c **** 
 443:Source\FilteringFunctions/arm_conv_partial_q31.c ****           /* Decrement the loop counter */
 444:Source\FilteringFunctions/arm_conv_partial_q31.c ****           k--;
 445:Source\FilteringFunctions/arm_conv_partial_q31.c ****         }
 446:Source\FilteringFunctions/arm_conv_partial_q31.c **** 
 447:Source\FilteringFunctions/arm_conv_partial_q31.c ****         /* Store the result in the accumulator in the destination buffer. */
 448:Source\FilteringFunctions/arm_conv_partial_q31.c ****         *pOut++ = (q31_t) (sum >> 31);
 449:Source\FilteringFunctions/arm_conv_partial_q31.c **** 
 450:Source\FilteringFunctions/arm_conv_partial_q31.c ****         /* Increment the MAC count */
 451:Source\FilteringFunctions/arm_conv_partial_q31.c ****         count++;
 452:Source\FilteringFunctions/arm_conv_partial_q31.c **** 
 453:Source\FilteringFunctions/arm_conv_partial_q31.c ****         /* Update the inputA and inputB pointers for next MAC calculation */
 454:Source\FilteringFunctions/arm_conv_partial_q31.c ****         px = pIn1 + count;
 455:Source\FilteringFunctions/arm_conv_partial_q31.c ****         py = pSrc2;
 456:Source\FilteringFunctions/arm_conv_partial_q31.c **** 
 457:Source\FilteringFunctions/arm_conv_partial_q31.c ****         /* Decrement the loop counter */
 458:Source\FilteringFunctions/arm_conv_partial_q31.c ****         blkCnt--;
 459:Source\FilteringFunctions/arm_conv_partial_q31.c ****       }
 460:Source\FilteringFunctions/arm_conv_partial_q31.c ****     }
 461:Source\FilteringFunctions/arm_conv_partial_q31.c **** 
 462:Source\FilteringFunctions/arm_conv_partial_q31.c **** 
 463:Source\FilteringFunctions/arm_conv_partial_q31.c ****     /* --------------------------
 464:Source\FilteringFunctions/arm_conv_partial_q31.c ****      * Initializations of stage3
 465:Source\FilteringFunctions/arm_conv_partial_q31.c ****      * -------------------------*/
 466:Source\FilteringFunctions/arm_conv_partial_q31.c **** 
 467:Source\FilteringFunctions/arm_conv_partial_q31.c ****     /* sum += x[srcALen-srcBLen+1] * y[srcBLen-1] + x[srcALen-srcBLen+2] * y[srcBLen-2] +...+ x[src
 468:Source\FilteringFunctions/arm_conv_partial_q31.c ****      * sum += x[srcALen-srcBLen+2] * y[srcBLen-1] + x[srcALen-srcBLen+3] * y[srcBLen-2] +...+ x[src
 469:Source\FilteringFunctions/arm_conv_partial_q31.c ****      * ....
 470:Source\FilteringFunctions/arm_conv_partial_q31.c ****      * sum +=  x[srcALen-2] * y[srcBLen-1] + x[srcALen-1] * y[srcBLen-2]
 471:Source\FilteringFunctions/arm_conv_partial_q31.c ****      * sum +=  x[srcALen-1] * y[srcBLen-1]
ARM GAS  C:\Users\fneves\AppData\Local\Temp\cc7eJLfh.s 			page 10


 472:Source\FilteringFunctions/arm_conv_partial_q31.c ****      */
 473:Source\FilteringFunctions/arm_conv_partial_q31.c **** 
 474:Source\FilteringFunctions/arm_conv_partial_q31.c ****     /* In this stage the MAC operations are decreased by 1 for every iteration.
 475:Source\FilteringFunctions/arm_conv_partial_q31.c ****        The blockSize3 variable holds the number of MAC operations performed */
 476:Source\FilteringFunctions/arm_conv_partial_q31.c ****     count = srcBLen - 1u;
 477:Source\FilteringFunctions/arm_conv_partial_q31.c **** 
 478:Source\FilteringFunctions/arm_conv_partial_q31.c ****     /* Working pointer of inputA */
 479:Source\FilteringFunctions/arm_conv_partial_q31.c ****     pSrc1 = (pIn1 + srcALen) - (srcBLen - 1u);
 480:Source\FilteringFunctions/arm_conv_partial_q31.c ****     px = pSrc1;
 481:Source\FilteringFunctions/arm_conv_partial_q31.c **** 
 482:Source\FilteringFunctions/arm_conv_partial_q31.c ****     /* Working pointer of inputB */
 483:Source\FilteringFunctions/arm_conv_partial_q31.c ****     pSrc2 = pIn2 + (srcBLen - 1u);
 484:Source\FilteringFunctions/arm_conv_partial_q31.c ****     py = pSrc2;
 485:Source\FilteringFunctions/arm_conv_partial_q31.c **** 
 486:Source\FilteringFunctions/arm_conv_partial_q31.c ****     /* -------------------
 487:Source\FilteringFunctions/arm_conv_partial_q31.c ****      * Stage3 process
 488:Source\FilteringFunctions/arm_conv_partial_q31.c ****      * ------------------*/
 489:Source\FilteringFunctions/arm_conv_partial_q31.c **** 
 490:Source\FilteringFunctions/arm_conv_partial_q31.c ****     while (blockSize3 > 0)
 491:Source\FilteringFunctions/arm_conv_partial_q31.c ****     {
 492:Source\FilteringFunctions/arm_conv_partial_q31.c ****       /* Accumulator is made zero for every iteration */
 493:Source\FilteringFunctions/arm_conv_partial_q31.c ****       sum = 0;
 494:Source\FilteringFunctions/arm_conv_partial_q31.c **** 
 495:Source\FilteringFunctions/arm_conv_partial_q31.c ****       /* Apply loop unrolling and compute 4 MACs simultaneously. */
 496:Source\FilteringFunctions/arm_conv_partial_q31.c ****       k = count >> 2u;
 497:Source\FilteringFunctions/arm_conv_partial_q31.c **** 
 498:Source\FilteringFunctions/arm_conv_partial_q31.c ****       /* First part of the processing with loop unrolling.  Compute 4 MACs at a time.
 499:Source\FilteringFunctions/arm_conv_partial_q31.c ****        ** a second loop below computes MACs for the remaining 1 to 3 samples. */
 500:Source\FilteringFunctions/arm_conv_partial_q31.c ****       while (k > 0u)
 501:Source\FilteringFunctions/arm_conv_partial_q31.c ****       {
 502:Source\FilteringFunctions/arm_conv_partial_q31.c ****         sum += (q63_t) * px++ * (*py--);
 503:Source\FilteringFunctions/arm_conv_partial_q31.c ****         sum += (q63_t) * px++ * (*py--);
 504:Source\FilteringFunctions/arm_conv_partial_q31.c ****         sum += (q63_t) * px++ * (*py--);
 505:Source\FilteringFunctions/arm_conv_partial_q31.c ****         sum += (q63_t) * px++ * (*py--);
 506:Source\FilteringFunctions/arm_conv_partial_q31.c **** 
 507:Source\FilteringFunctions/arm_conv_partial_q31.c ****         /* Decrement the loop counter */
 508:Source\FilteringFunctions/arm_conv_partial_q31.c ****         k--;
 509:Source\FilteringFunctions/arm_conv_partial_q31.c ****       }
 510:Source\FilteringFunctions/arm_conv_partial_q31.c **** 
 511:Source\FilteringFunctions/arm_conv_partial_q31.c ****       /* If the blockSize3 is not a multiple of 4, compute any remaining MACs here.
 512:Source\FilteringFunctions/arm_conv_partial_q31.c ****        ** No loop unrolling is used. */
 513:Source\FilteringFunctions/arm_conv_partial_q31.c ****       k = count % 0x4u;
 514:Source\FilteringFunctions/arm_conv_partial_q31.c **** 
 515:Source\FilteringFunctions/arm_conv_partial_q31.c ****       while (k > 0u)
 516:Source\FilteringFunctions/arm_conv_partial_q31.c ****       {
 517:Source\FilteringFunctions/arm_conv_partial_q31.c ****         /* Perform the multiply-accumulate */
 518:Source\FilteringFunctions/arm_conv_partial_q31.c ****         sum += (q63_t) * px++ * (*py--);
 519:Source\FilteringFunctions/arm_conv_partial_q31.c **** 
 520:Source\FilteringFunctions/arm_conv_partial_q31.c ****         /* Decrement the loop counter */
 521:Source\FilteringFunctions/arm_conv_partial_q31.c ****         k--;
 522:Source\FilteringFunctions/arm_conv_partial_q31.c ****       }
 523:Source\FilteringFunctions/arm_conv_partial_q31.c **** 
 524:Source\FilteringFunctions/arm_conv_partial_q31.c ****       /* Store the result in the accumulator in the destination buffer. */
 525:Source\FilteringFunctions/arm_conv_partial_q31.c ****       *pOut++ = (q31_t) (sum >> 31);
 526:Source\FilteringFunctions/arm_conv_partial_q31.c **** 
 527:Source\FilteringFunctions/arm_conv_partial_q31.c ****       /* Update the inputA and inputB pointers for next MAC calculation */
 528:Source\FilteringFunctions/arm_conv_partial_q31.c ****       px = ++pSrc1;
ARM GAS  C:\Users\fneves\AppData\Local\Temp\cc7eJLfh.s 			page 11


 529:Source\FilteringFunctions/arm_conv_partial_q31.c ****       py = pSrc2;
 530:Source\FilteringFunctions/arm_conv_partial_q31.c **** 
 531:Source\FilteringFunctions/arm_conv_partial_q31.c ****       /* Decrement the MAC count */
 532:Source\FilteringFunctions/arm_conv_partial_q31.c ****       count--;
 533:Source\FilteringFunctions/arm_conv_partial_q31.c **** 
 534:Source\FilteringFunctions/arm_conv_partial_q31.c ****       /* Decrement the loop counter */
 535:Source\FilteringFunctions/arm_conv_partial_q31.c ****       blockSize3--;
 536:Source\FilteringFunctions/arm_conv_partial_q31.c **** 
 537:Source\FilteringFunctions/arm_conv_partial_q31.c ****     }
 538:Source\FilteringFunctions/arm_conv_partial_q31.c **** 
 539:Source\FilteringFunctions/arm_conv_partial_q31.c ****     /* set status as ARM_MATH_SUCCESS */
 540:Source\FilteringFunctions/arm_conv_partial_q31.c ****     status = ARM_MATH_SUCCESS;
 541:Source\FilteringFunctions/arm_conv_partial_q31.c ****   }
 542:Source\FilteringFunctions/arm_conv_partial_q31.c **** 
 543:Source\FilteringFunctions/arm_conv_partial_q31.c ****   /* Return to application */
 544:Source\FilteringFunctions/arm_conv_partial_q31.c ****   return (status);
 545:Source\FilteringFunctions/arm_conv_partial_q31.c **** 
 546:Source\FilteringFunctions/arm_conv_partial_q31.c **** #else
 547:Source\FilteringFunctions/arm_conv_partial_q31.c **** 
 548:Source\FilteringFunctions/arm_conv_partial_q31.c ****   /* Run the below code for Cortex-M0 */
 549:Source\FilteringFunctions/arm_conv_partial_q31.c **** 
 550:Source\FilteringFunctions/arm_conv_partial_q31.c ****   q31_t *pIn1 = pSrcA;                           /* inputA pointer */
  43              		.loc 1 550 0
  44 000e FB69     		ldr	r3, [r7, #28]
  45 0010 BB62     		str	r3, [r7, #40]
 551:Source\FilteringFunctions/arm_conv_partial_q31.c ****   q31_t *pIn2 = pSrcB;                           /* inputB pointer */
  46              		.loc 1 551 0
  47 0012 7B69     		ldr	r3, [r7, #20]
  48 0014 7B62     		str	r3, [r7, #36]
 552:Source\FilteringFunctions/arm_conv_partial_q31.c ****   q63_t sum;                                     /* Accumulator */
 553:Source\FilteringFunctions/arm_conv_partial_q31.c ****   uint32_t i, j;                                 /* loop counters */
 554:Source\FilteringFunctions/arm_conv_partial_q31.c ****   arm_status status;                             /* status of Partial convolution */
 555:Source\FilteringFunctions/arm_conv_partial_q31.c **** 
 556:Source\FilteringFunctions/arm_conv_partial_q31.c ****   /* Check for range of output samples to be calculated */
 557:Source\FilteringFunctions/arm_conv_partial_q31.c ****   if ((firstIndex + numPoints) > ((srcALen + (srcBLen - 1u))))
  49              		.loc 1 557 0
  50 0016 7A6D     		ldr	r2, [r7, #84]
  51 0018 BB6D     		ldr	r3, [r7, #88]
  52 001a D218     		add	r2, r2, r3
  53 001c 3969     		ldr	r1, [r7, #16]
  54 001e BB69     		ldr	r3, [r7, #24]
  55 0020 CB18     		add	r3, r1, r3
  56 0022 013B     		sub	r3, r3, #1
  57 0024 9A42     		cmp	r2, r3
  58 0026 07D9     		bls	.L2
 558:Source\FilteringFunctions/arm_conv_partial_q31.c ****   {
 559:Source\FilteringFunctions/arm_conv_partial_q31.c ****     /* Set status as ARM_ARGUMENT_ERROR */
 560:Source\FilteringFunctions/arm_conv_partial_q31.c ****     status = ARM_MATH_ARGUMENT_ERROR;
  59              		.loc 1 560 0
  60 0028 1F23     		mov	r3, #31
  61 002a 1022     		mov	r2, #16
  62 002c 9446     		mov	ip, r2
  63 002e BC44     		add	ip, ip, r7
  64 0030 6344     		add	r3, r3, ip
  65 0032 FF22     		mov	r2, #255
  66 0034 1A70     		strb	r2, [r3]
  67 0036 5AE0     		b	.L3
ARM GAS  C:\Users\fneves\AppData\Local\Temp\cc7eJLfh.s 			page 12


  68              	.L2:
 561:Source\FilteringFunctions/arm_conv_partial_q31.c ****   }
 562:Source\FilteringFunctions/arm_conv_partial_q31.c ****   else
 563:Source\FilteringFunctions/arm_conv_partial_q31.c ****   {
 564:Source\FilteringFunctions/arm_conv_partial_q31.c ****     /* Loop to calculate convolution for output length number of values */
 565:Source\FilteringFunctions/arm_conv_partial_q31.c ****     for (i = firstIndex; i <= (firstIndex + numPoints - 1); i++)
  69              		.loc 1 565 0
  70 0038 7B6D     		ldr	r3, [r7, #84]
  71 003a 7B63     		str	r3, [r7, #52]
  72 003c 49E0     		b	.L4
  73              	.L8:
 566:Source\FilteringFunctions/arm_conv_partial_q31.c ****     {
 567:Source\FilteringFunctions/arm_conv_partial_q31.c ****       /* Initialize sum with zero to carry on MAC operations */
 568:Source\FilteringFunctions/arm_conv_partial_q31.c ****       sum = 0;
  74              		.loc 1 568 0
  75 003e 0022     		mov	r2, #0
  76 0040 0023     		mov	r3, #0
  77 0042 BA63     		str	r2, [r7, #56]
  78 0044 FB63     		str	r3, [r7, #60]
 569:Source\FilteringFunctions/arm_conv_partial_q31.c **** 
 570:Source\FilteringFunctions/arm_conv_partial_q31.c ****       /* Loop to perform MAC operations according to convolution equation */
 571:Source\FilteringFunctions/arm_conv_partial_q31.c ****       for (j = 0; j <= i; j++)
  79              		.loc 1 571 0
  80 0046 0023     		mov	r3, #0
  81 0048 3B63     		str	r3, [r7, #48]
  82 004a 2EE0     		b	.L5
  83              	.L7:
 572:Source\FilteringFunctions/arm_conv_partial_q31.c ****       {
 573:Source\FilteringFunctions/arm_conv_partial_q31.c ****         /* Check the array limitations */
 574:Source\FilteringFunctions/arm_conv_partial_q31.c ****         if (((i - j) < srcBLen) && (j < srcALen))
  84              		.loc 1 574 0
  85 004c 7A6B     		ldr	r2, [r7, #52]
  86 004e 3B6B     		ldr	r3, [r7, #48]
  87 0050 D21A     		sub	r2, r2, r3
  88 0052 3B69     		ldr	r3, [r7, #16]
  89 0054 9A42     		cmp	r2, r3
  90 0056 25D2     		bcs	.L6
  91              		.loc 1 574 0 is_stmt 0 discriminator 1
  92 0058 3A6B     		ldr	r2, [r7, #48]
  93 005a BB69     		ldr	r3, [r7, #24]
  94 005c 9A42     		cmp	r2, r3
  95 005e 21D2     		bcs	.L6
 575:Source\FilteringFunctions/arm_conv_partial_q31.c ****         {
 576:Source\FilteringFunctions/arm_conv_partial_q31.c ****           /* z[i] += x[i-j] * y[j] */
 577:Source\FilteringFunctions/arm_conv_partial_q31.c ****           sum += ((q63_t) pIn1[j] * (pIn2[i - j]));
  96              		.loc 1 577 0 is_stmt 1
  97 0060 3B6B     		ldr	r3, [r7, #48]
  98 0062 9B00     		lsl	r3, r3, #2
  99 0064 BA6A     		ldr	r2, [r7, #40]
 100 0066 D318     		add	r3, r2, r3
 101 0068 1B68     		ldr	r3, [r3]
 102 006a BB60     		str	r3, [r7, #8]
 103 006c DB17     		asr	r3, r3, #31
 104 006e FB60     		str	r3, [r7, #12]
 105 0070 7A6B     		ldr	r2, [r7, #52]
 106 0072 3B6B     		ldr	r3, [r7, #48]
 107 0074 D31A     		sub	r3, r2, r3
ARM GAS  C:\Users\fneves\AppData\Local\Temp\cc7eJLfh.s 			page 13


 108 0076 9B00     		lsl	r3, r3, #2
 109 0078 7A6A     		ldr	r2, [r7, #36]
 110 007a D318     		add	r3, r2, r3
 111 007c 1B68     		ldr	r3, [r3]
 112 007e 3B60     		str	r3, [r7]
 113 0080 DB17     		asr	r3, r3, #31
 114 0082 7B60     		str	r3, [r7, #4]
 115 0084 B868     		ldr	r0, [r7, #8]
 116 0086 F968     		ldr	r1, [r7, #12]
 117 0088 3A68     		ldr	r2, [r7]
 118 008a 7B68     		ldr	r3, [r7, #4]
 119 008c FFF7FEFF 		bl	__aeabi_lmul
 120 0090 021C     		mov	r2, r0
 121 0092 0B1C     		mov	r3, r1
 122 0094 101C     		mov	r0, r2
 123 0096 191C     		mov	r1, r3
 124 0098 BA6B     		ldr	r2, [r7, #56]
 125 009a FB6B     		ldr	r3, [r7, #60]
 126 009c 1218     		add	r2, r2, r0
 127 009e 4B41     		adc	r3, r3, r1
 128 00a0 BA63     		str	r2, [r7, #56]
 129 00a2 FB63     		str	r3, [r7, #60]
 130              	.L6:
 571:Source\FilteringFunctions/arm_conv_partial_q31.c ****       {
 131              		.loc 1 571 0 discriminator 2
 132 00a4 3B6B     		ldr	r3, [r7, #48]
 133 00a6 0133     		add	r3, r3, #1
 134 00a8 3B63     		str	r3, [r7, #48]
 135              	.L5:
 571:Source\FilteringFunctions/arm_conv_partial_q31.c ****       {
 136              		.loc 1 571 0 is_stmt 0 discriminator 1
 137 00aa 3A6B     		ldr	r2, [r7, #48]
 138 00ac 7B6B     		ldr	r3, [r7, #52]
 139 00ae 9A42     		cmp	r2, r3
 140 00b0 CCD9     		bls	.L7
 578:Source\FilteringFunctions/arm_conv_partial_q31.c ****         }
 579:Source\FilteringFunctions/arm_conv_partial_q31.c ****       }
 580:Source\FilteringFunctions/arm_conv_partial_q31.c **** 
 581:Source\FilteringFunctions/arm_conv_partial_q31.c ****       /* Store the output in the destination buffer */
 582:Source\FilteringFunctions/arm_conv_partial_q31.c ****       pDst[i] = (q31_t) (sum >> 31u);
 141              		.loc 1 582 0 is_stmt 1 discriminator 2
 142 00b2 7B6B     		ldr	r3, [r7, #52]
 143 00b4 9B00     		lsl	r3, r3, #2
 144 00b6 3A6D     		ldr	r2, [r7, #80]
 145 00b8 D318     		add	r3, r2, r3
 146 00ba FA6B     		ldr	r2, [r7, #60]
 147 00bc 5200     		lsl	r2, r2, #1
 148 00be B96B     		ldr	r1, [r7, #56]
 149 00c0 CC0F     		lsr	r4, r1, #31
 150 00c2 1443     		orr	r4, r2
 151 00c4 FA6B     		ldr	r2, [r7, #60]
 152 00c6 D517     		asr	r5, r2, #31
 153 00c8 221C     		mov	r2, r4
 154 00ca 1A60     		str	r2, [r3]
 565:Source\FilteringFunctions/arm_conv_partial_q31.c ****     {
 155              		.loc 1 565 0 discriminator 2
 156 00cc 7B6B     		ldr	r3, [r7, #52]
ARM GAS  C:\Users\fneves\AppData\Local\Temp\cc7eJLfh.s 			page 14


 157 00ce 0133     		add	r3, r3, #1
 158 00d0 7B63     		str	r3, [r7, #52]
 159              	.L4:
 565:Source\FilteringFunctions/arm_conv_partial_q31.c ****     {
 160              		.loc 1 565 0 is_stmt 0 discriminator 1
 161 00d2 7A6D     		ldr	r2, [r7, #84]
 162 00d4 BB6D     		ldr	r3, [r7, #88]
 163 00d6 D318     		add	r3, r2, r3
 164 00d8 5A1E     		sub	r2, r3, #1
 165 00da 7B6B     		ldr	r3, [r7, #52]
 166 00dc 9A42     		cmp	r2, r3
 167 00de AED2     		bcs	.L8
 583:Source\FilteringFunctions/arm_conv_partial_q31.c ****     }
 584:Source\FilteringFunctions/arm_conv_partial_q31.c ****     /* set status as ARM_SUCCESS as there are no argument errors */
 585:Source\FilteringFunctions/arm_conv_partial_q31.c ****     status = ARM_MATH_SUCCESS;
 168              		.loc 1 585 0 is_stmt 1
 169 00e0 1F23     		mov	r3, #31
 170 00e2 1022     		mov	r2, #16
 171 00e4 9446     		mov	ip, r2
 172 00e6 BC44     		add	ip, ip, r7
 173 00e8 6344     		add	r3, r3, ip
 174 00ea 0022     		mov	r2, #0
 175 00ec 1A70     		strb	r2, [r3]
 176              	.L3:
 586:Source\FilteringFunctions/arm_conv_partial_q31.c ****   }
 587:Source\FilteringFunctions/arm_conv_partial_q31.c ****   return (status);
 177              		.loc 1 587 0
 178 00ee 1F23     		mov	r3, #31
 179 00f0 1022     		mov	r2, #16
 180 00f2 9446     		mov	ip, r2
 181 00f4 BC44     		add	ip, ip, r7
 182 00f6 6344     		add	r3, r3, ip
 183 00f8 1B78     		ldrb	r3, [r3]
 184 00fa 5BB2     		sxtb	r3, r3
 588:Source\FilteringFunctions/arm_conv_partial_q31.c **** 
 589:Source\FilteringFunctions/arm_conv_partial_q31.c **** #endif /*    #if defined (ARM_MATH_DSP)      */
 590:Source\FilteringFunctions/arm_conv_partial_q31.c **** 
 591:Source\FilteringFunctions/arm_conv_partial_q31.c **** }
 185              		.loc 1 591 0
 186 00fc 181C     		mov	r0, r3
 187 00fe BD46     		mov	sp, r7
 188 0100 10B0     		add	sp, sp, #64
 189              		@ sp needed
 190 0102 B0BD     		pop	{r4, r5, r7, pc}
 191              		.cfi_endproc
 192              	.LFE82:
 193              		.size	arm_conv_partial_q31, .-arm_conv_partial_q31
 194              		.text
 195              	.Letext0:
 196              		.file 2 "c:\\program files (x86)\\cypress\\psoc creator\\4.0\\psoc creator\\import\\gnu\\arm\\4.9.
 197              		.file 3 "c:\\program files (x86)\\cypress\\psoc creator\\4.0\\psoc creator\\import\\gnu\\arm\\4.9.
 198              		.file 4 ".\\Include/arm_math.h"