ARM GAS  C:\Users\fneves\AppData\Local\Temp\ccEpfkzc.s 			page 1


   1              		.cpu cortex-m0plus
   2              		.fpu softvfp
   3              		.eabi_attribute 20, 1
   4              		.eabi_attribute 21, 1
   5              		.eabi_attribute 23, 3
   6              		.eabi_attribute 24, 1
   7              		.eabi_attribute 25, 1
   8              		.eabi_attribute 26, 1
   9              		.eabi_attribute 30, 6
  10              		.eabi_attribute 34, 0
  11              		.eabi_attribute 18, 4
  12              		.code	16
  13              		.file	"arm_fir_lattice_q31.c"
  14              		.text
  15              	.Ltext0:
  16              		.cfi_sections	.debug_frame
  17              		.global	__aeabi_lmul
  18              		.section	.text.arm_fir_lattice_q31,"ax",%progbits
  19              		.align	2
  20              		.global	arm_fir_lattice_q31
  21              		.code	16
  22              		.thumb_func
  23              		.type	arm_fir_lattice_q31, %function
  24              	arm_fir_lattice_q31:
  25              	.LFB82:
  26              		.file 1 "Source\\FilteringFunctions\\arm_fir_lattice_q31.c"
   1:Source\FilteringFunctions/arm_fir_lattice_q31.c **** /* ----------------------------------------------------------------------
   2:Source\FilteringFunctions/arm_fir_lattice_q31.c ****  * Project:      CMSIS DSP Library
   3:Source\FilteringFunctions/arm_fir_lattice_q31.c ****  * Title:        arm_fir_lattice_q31.c
   4:Source\FilteringFunctions/arm_fir_lattice_q31.c ****  * Description:  Q31 FIR lattice filter processing function
   5:Source\FilteringFunctions/arm_fir_lattice_q31.c ****  *
   6:Source\FilteringFunctions/arm_fir_lattice_q31.c ****  * $Date:        27. January 2017
   7:Source\FilteringFunctions/arm_fir_lattice_q31.c ****  * $Revision:    V.1.5.1
   8:Source\FilteringFunctions/arm_fir_lattice_q31.c ****  *
   9:Source\FilteringFunctions/arm_fir_lattice_q31.c ****  * Target Processor: Cortex-M cores
  10:Source\FilteringFunctions/arm_fir_lattice_q31.c ****  * -------------------------------------------------------------------- */
  11:Source\FilteringFunctions/arm_fir_lattice_q31.c **** /*
  12:Source\FilteringFunctions/arm_fir_lattice_q31.c ****  * Copyright (C) 2010-2017 ARM Limited or its affiliates. All rights reserved.
  13:Source\FilteringFunctions/arm_fir_lattice_q31.c ****  *
  14:Source\FilteringFunctions/arm_fir_lattice_q31.c ****  * SPDX-License-Identifier: Apache-2.0
  15:Source\FilteringFunctions/arm_fir_lattice_q31.c ****  *
  16:Source\FilteringFunctions/arm_fir_lattice_q31.c ****  * Licensed under the Apache License, Version 2.0 (the License); you may
  17:Source\FilteringFunctions/arm_fir_lattice_q31.c ****  * not use this file except in compliance with the License.
  18:Source\FilteringFunctions/arm_fir_lattice_q31.c ****  * You may obtain a copy of the License at
  19:Source\FilteringFunctions/arm_fir_lattice_q31.c ****  *
  20:Source\FilteringFunctions/arm_fir_lattice_q31.c ****  * www.apache.org/licenses/LICENSE-2.0
  21:Source\FilteringFunctions/arm_fir_lattice_q31.c ****  *
  22:Source\FilteringFunctions/arm_fir_lattice_q31.c ****  * Unless required by applicable law or agreed to in writing, software
  23:Source\FilteringFunctions/arm_fir_lattice_q31.c ****  * distributed under the License is distributed on an AS IS BASIS, WITHOUT
  24:Source\FilteringFunctions/arm_fir_lattice_q31.c ****  * WARRANTIES OR CONDITIONS OF ANY KIND, either express or implied.
  25:Source\FilteringFunctions/arm_fir_lattice_q31.c ****  * See the License for the specific language governing permissions and
  26:Source\FilteringFunctions/arm_fir_lattice_q31.c ****  * limitations under the License.
  27:Source\FilteringFunctions/arm_fir_lattice_q31.c ****  */
  28:Source\FilteringFunctions/arm_fir_lattice_q31.c **** 
  29:Source\FilteringFunctions/arm_fir_lattice_q31.c **** #include "arm_math.h"
  30:Source\FilteringFunctions/arm_fir_lattice_q31.c **** 
  31:Source\FilteringFunctions/arm_fir_lattice_q31.c **** /**
ARM GAS  C:\Users\fneves\AppData\Local\Temp\ccEpfkzc.s 			page 2


  32:Source\FilteringFunctions/arm_fir_lattice_q31.c ****  * @ingroup groupFilters
  33:Source\FilteringFunctions/arm_fir_lattice_q31.c ****  */
  34:Source\FilteringFunctions/arm_fir_lattice_q31.c **** 
  35:Source\FilteringFunctions/arm_fir_lattice_q31.c **** /**
  36:Source\FilteringFunctions/arm_fir_lattice_q31.c ****  * @addtogroup FIR_Lattice
  37:Source\FilteringFunctions/arm_fir_lattice_q31.c ****  * @{
  38:Source\FilteringFunctions/arm_fir_lattice_q31.c ****  */
  39:Source\FilteringFunctions/arm_fir_lattice_q31.c **** 
  40:Source\FilteringFunctions/arm_fir_lattice_q31.c **** 
  41:Source\FilteringFunctions/arm_fir_lattice_q31.c **** /**
  42:Source\FilteringFunctions/arm_fir_lattice_q31.c ****  * @brief Processing function for the Q31 FIR lattice filter.
  43:Source\FilteringFunctions/arm_fir_lattice_q31.c ****  * @param[in]  *S        points to an instance of the Q31 FIR lattice structure.
  44:Source\FilteringFunctions/arm_fir_lattice_q31.c ****  * @param[in]  *pSrc     points to the block of input data.
  45:Source\FilteringFunctions/arm_fir_lattice_q31.c ****  * @param[out] *pDst     points to the block of output data
  46:Source\FilteringFunctions/arm_fir_lattice_q31.c ****  * @param[in]  blockSize number of samples to process.
  47:Source\FilteringFunctions/arm_fir_lattice_q31.c ****  * @return none.
  48:Source\FilteringFunctions/arm_fir_lattice_q31.c ****  *
  49:Source\FilteringFunctions/arm_fir_lattice_q31.c ****  * @details
  50:Source\FilteringFunctions/arm_fir_lattice_q31.c ****  * <b>Scaling and Overflow Behavior:</b>
  51:Source\FilteringFunctions/arm_fir_lattice_q31.c ****  * In order to avoid overflows the input signal must be scaled down by 2*log2(numStages) bits.
  52:Source\FilteringFunctions/arm_fir_lattice_q31.c ****  */
  53:Source\FilteringFunctions/arm_fir_lattice_q31.c **** 
  54:Source\FilteringFunctions/arm_fir_lattice_q31.c **** #if defined (ARM_MATH_DSP)
  55:Source\FilteringFunctions/arm_fir_lattice_q31.c **** 
  56:Source\FilteringFunctions/arm_fir_lattice_q31.c ****   /* Run the below code for Cortex-M4 and Cortex-M3 */
  57:Source\FilteringFunctions/arm_fir_lattice_q31.c **** 
  58:Source\FilteringFunctions/arm_fir_lattice_q31.c **** void arm_fir_lattice_q31(
  59:Source\FilteringFunctions/arm_fir_lattice_q31.c ****   const arm_fir_lattice_instance_q31 * S,
  60:Source\FilteringFunctions/arm_fir_lattice_q31.c ****   q31_t * pSrc,
  61:Source\FilteringFunctions/arm_fir_lattice_q31.c ****   q31_t * pDst,
  62:Source\FilteringFunctions/arm_fir_lattice_q31.c ****   uint32_t blockSize)
  63:Source\FilteringFunctions/arm_fir_lattice_q31.c **** {
  64:Source\FilteringFunctions/arm_fir_lattice_q31.c ****   q31_t *pState;                                 /* State pointer */
  65:Source\FilteringFunctions/arm_fir_lattice_q31.c ****   q31_t *pCoeffs = S->pCoeffs;                   /* Coefficient pointer */
  66:Source\FilteringFunctions/arm_fir_lattice_q31.c ****   q31_t *px;                                     /* temporary state pointer */
  67:Source\FilteringFunctions/arm_fir_lattice_q31.c ****   q31_t *pk;                                     /* temporary coefficient pointer */
  68:Source\FilteringFunctions/arm_fir_lattice_q31.c ****   q31_t fcurr1, fnext1, gcurr1 = 0, gnext1;      /* temporary variables for first sample in loop un
  69:Source\FilteringFunctions/arm_fir_lattice_q31.c ****   q31_t fcurr2, fnext2, gnext2;                  /* temporary variables for second sample in loop u
  70:Source\FilteringFunctions/arm_fir_lattice_q31.c ****   uint32_t numStages = S->numStages;             /* Length of the filter */
  71:Source\FilteringFunctions/arm_fir_lattice_q31.c ****   uint32_t blkCnt, stageCnt;                     /* temporary variables for counts */
  72:Source\FilteringFunctions/arm_fir_lattice_q31.c ****   q31_t k;
  73:Source\FilteringFunctions/arm_fir_lattice_q31.c **** 
  74:Source\FilteringFunctions/arm_fir_lattice_q31.c ****   pState = &S->pState[0];
  75:Source\FilteringFunctions/arm_fir_lattice_q31.c **** 
  76:Source\FilteringFunctions/arm_fir_lattice_q31.c ****   blkCnt = blockSize >> 1u;
  77:Source\FilteringFunctions/arm_fir_lattice_q31.c **** 
  78:Source\FilteringFunctions/arm_fir_lattice_q31.c ****   /* First part of the processing with loop unrolling.  Compute 2 outputs at a time.
  79:Source\FilteringFunctions/arm_fir_lattice_q31.c ****      a second loop below computes the remaining 1 sample. */
  80:Source\FilteringFunctions/arm_fir_lattice_q31.c ****   while (blkCnt > 0u)
  81:Source\FilteringFunctions/arm_fir_lattice_q31.c ****   {
  82:Source\FilteringFunctions/arm_fir_lattice_q31.c ****     /* f0(n) = x(n) */
  83:Source\FilteringFunctions/arm_fir_lattice_q31.c ****     fcurr1 = *pSrc++;
  84:Source\FilteringFunctions/arm_fir_lattice_q31.c **** 
  85:Source\FilteringFunctions/arm_fir_lattice_q31.c ****     /* f0(n) = x(n) */
  86:Source\FilteringFunctions/arm_fir_lattice_q31.c ****     fcurr2 = *pSrc++;
  87:Source\FilteringFunctions/arm_fir_lattice_q31.c **** 
  88:Source\FilteringFunctions/arm_fir_lattice_q31.c ****     /* Initialize coeff pointer */
ARM GAS  C:\Users\fneves\AppData\Local\Temp\ccEpfkzc.s 			page 3


  89:Source\FilteringFunctions/arm_fir_lattice_q31.c ****     pk = (pCoeffs);
  90:Source\FilteringFunctions/arm_fir_lattice_q31.c **** 
  91:Source\FilteringFunctions/arm_fir_lattice_q31.c ****     /* Initialize state pointer */
  92:Source\FilteringFunctions/arm_fir_lattice_q31.c ****     px = pState;
  93:Source\FilteringFunctions/arm_fir_lattice_q31.c **** 
  94:Source\FilteringFunctions/arm_fir_lattice_q31.c ****     /* read g0(n - 1) from state buffer */
  95:Source\FilteringFunctions/arm_fir_lattice_q31.c ****     gcurr1 = *px;
  96:Source\FilteringFunctions/arm_fir_lattice_q31.c **** 
  97:Source\FilteringFunctions/arm_fir_lattice_q31.c ****     /* Read the reflection coefficient */
  98:Source\FilteringFunctions/arm_fir_lattice_q31.c ****     k = *pk++;
  99:Source\FilteringFunctions/arm_fir_lattice_q31.c **** 
 100:Source\FilteringFunctions/arm_fir_lattice_q31.c ****     /* for sample 1 processing */
 101:Source\FilteringFunctions/arm_fir_lattice_q31.c ****     /* f1(n) = f0(n) +  K1 * g0(n-1) */
 102:Source\FilteringFunctions/arm_fir_lattice_q31.c ****     fnext1 = (q31_t) (((q63_t) gcurr1 * k) >> 32);
 103:Source\FilteringFunctions/arm_fir_lattice_q31.c **** 
 104:Source\FilteringFunctions/arm_fir_lattice_q31.c ****     /* g1(n) = f0(n) * K1  +  g0(n-1) */
 105:Source\FilteringFunctions/arm_fir_lattice_q31.c ****     gnext1 = (q31_t) (((q63_t) fcurr1 * (k)) >> 32);
 106:Source\FilteringFunctions/arm_fir_lattice_q31.c ****     fnext1 = fcurr1 + (fnext1 << 1u);
 107:Source\FilteringFunctions/arm_fir_lattice_q31.c ****     gnext1 = gcurr1 + (gnext1 << 1u);
 108:Source\FilteringFunctions/arm_fir_lattice_q31.c **** 
 109:Source\FilteringFunctions/arm_fir_lattice_q31.c ****     /* for sample 1 processing */
 110:Source\FilteringFunctions/arm_fir_lattice_q31.c ****     /* f1(n) = f0(n) +  K1 * g0(n-1) */
 111:Source\FilteringFunctions/arm_fir_lattice_q31.c ****     fnext2 = (q31_t) (((q63_t) fcurr1 * k) >> 32);
 112:Source\FilteringFunctions/arm_fir_lattice_q31.c **** 
 113:Source\FilteringFunctions/arm_fir_lattice_q31.c ****     /* g1(n) = f0(n) * K1  +  g0(n-1) */
 114:Source\FilteringFunctions/arm_fir_lattice_q31.c ****     gnext2 = (q31_t) (((q63_t) fcurr2 * (k)) >> 32);
 115:Source\FilteringFunctions/arm_fir_lattice_q31.c ****     fnext2 = fcurr2 + (fnext2 << 1u);
 116:Source\FilteringFunctions/arm_fir_lattice_q31.c ****     gnext2 = fcurr1 + (gnext2 << 1u);
 117:Source\FilteringFunctions/arm_fir_lattice_q31.c **** 
 118:Source\FilteringFunctions/arm_fir_lattice_q31.c ****     /* save g1(n) in state buffer */
 119:Source\FilteringFunctions/arm_fir_lattice_q31.c ****     *px++ = fcurr2;
 120:Source\FilteringFunctions/arm_fir_lattice_q31.c **** 
 121:Source\FilteringFunctions/arm_fir_lattice_q31.c ****     /* f1(n) is saved in fcurr1
 122:Source\FilteringFunctions/arm_fir_lattice_q31.c ****        for next stage processing */
 123:Source\FilteringFunctions/arm_fir_lattice_q31.c ****     fcurr1 = fnext1;
 124:Source\FilteringFunctions/arm_fir_lattice_q31.c ****     fcurr2 = fnext2;
 125:Source\FilteringFunctions/arm_fir_lattice_q31.c **** 
 126:Source\FilteringFunctions/arm_fir_lattice_q31.c ****     stageCnt = (numStages - 1u);
 127:Source\FilteringFunctions/arm_fir_lattice_q31.c **** 
 128:Source\FilteringFunctions/arm_fir_lattice_q31.c ****     /* stage loop */
 129:Source\FilteringFunctions/arm_fir_lattice_q31.c ****     while (stageCnt > 0u)
 130:Source\FilteringFunctions/arm_fir_lattice_q31.c ****     {
 131:Source\FilteringFunctions/arm_fir_lattice_q31.c **** 
 132:Source\FilteringFunctions/arm_fir_lattice_q31.c ****       /* Read the reflection coefficient */
 133:Source\FilteringFunctions/arm_fir_lattice_q31.c ****       k = *pk++;
 134:Source\FilteringFunctions/arm_fir_lattice_q31.c **** 
 135:Source\FilteringFunctions/arm_fir_lattice_q31.c ****       /* read g2(n) from state buffer */
 136:Source\FilteringFunctions/arm_fir_lattice_q31.c ****       gcurr1 = *px;
 137:Source\FilteringFunctions/arm_fir_lattice_q31.c **** 
 138:Source\FilteringFunctions/arm_fir_lattice_q31.c ****       /* save g1(n) in state buffer */
 139:Source\FilteringFunctions/arm_fir_lattice_q31.c ****       *px++ = gnext2;
 140:Source\FilteringFunctions/arm_fir_lattice_q31.c **** 
 141:Source\FilteringFunctions/arm_fir_lattice_q31.c ****       /* Sample processing for K2, K3.... */
 142:Source\FilteringFunctions/arm_fir_lattice_q31.c ****       /* f2(n) = f1(n) +  K2 * g1(n-1) */
 143:Source\FilteringFunctions/arm_fir_lattice_q31.c ****       fnext1 = (q31_t) (((q63_t) gcurr1 * k) >> 32);
 144:Source\FilteringFunctions/arm_fir_lattice_q31.c ****       fnext2 = (q31_t) (((q63_t) gnext1 * k) >> 32);
 145:Source\FilteringFunctions/arm_fir_lattice_q31.c **** 
ARM GAS  C:\Users\fneves\AppData\Local\Temp\ccEpfkzc.s 			page 4


 146:Source\FilteringFunctions/arm_fir_lattice_q31.c ****       fnext1 = fcurr1 + (fnext1 << 1u);
 147:Source\FilteringFunctions/arm_fir_lattice_q31.c ****       fnext2 = fcurr2 + (fnext2 << 1u);
 148:Source\FilteringFunctions/arm_fir_lattice_q31.c **** 
 149:Source\FilteringFunctions/arm_fir_lattice_q31.c ****       /* g2(n) = f1(n) * K2  +  g1(n-1) */
 150:Source\FilteringFunctions/arm_fir_lattice_q31.c ****       gnext2 = (q31_t) (((q63_t) fcurr2 * (k)) >> 32);
 151:Source\FilteringFunctions/arm_fir_lattice_q31.c ****       gnext2 = gnext1 + (gnext2 << 1u);
 152:Source\FilteringFunctions/arm_fir_lattice_q31.c **** 
 153:Source\FilteringFunctions/arm_fir_lattice_q31.c ****       /* g2(n) = f1(n) * K2  +  g1(n-1) */
 154:Source\FilteringFunctions/arm_fir_lattice_q31.c ****       gnext1 = (q31_t) (((q63_t) fcurr1 * (k)) >> 32);
 155:Source\FilteringFunctions/arm_fir_lattice_q31.c ****       gnext1 = gcurr1 + (gnext1 << 1u);
 156:Source\FilteringFunctions/arm_fir_lattice_q31.c **** 
 157:Source\FilteringFunctions/arm_fir_lattice_q31.c ****       /* f1(n) is saved in fcurr1
 158:Source\FilteringFunctions/arm_fir_lattice_q31.c ****          for next stage processing */
 159:Source\FilteringFunctions/arm_fir_lattice_q31.c ****       fcurr1 = fnext1;
 160:Source\FilteringFunctions/arm_fir_lattice_q31.c ****       fcurr2 = fnext2;
 161:Source\FilteringFunctions/arm_fir_lattice_q31.c **** 
 162:Source\FilteringFunctions/arm_fir_lattice_q31.c ****       stageCnt--;
 163:Source\FilteringFunctions/arm_fir_lattice_q31.c **** 
 164:Source\FilteringFunctions/arm_fir_lattice_q31.c ****     }
 165:Source\FilteringFunctions/arm_fir_lattice_q31.c **** 
 166:Source\FilteringFunctions/arm_fir_lattice_q31.c ****     /* y(n) = fN(n) */
 167:Source\FilteringFunctions/arm_fir_lattice_q31.c ****     *pDst++ = fcurr1;
 168:Source\FilteringFunctions/arm_fir_lattice_q31.c ****     *pDst++ = fcurr2;
 169:Source\FilteringFunctions/arm_fir_lattice_q31.c **** 
 170:Source\FilteringFunctions/arm_fir_lattice_q31.c ****     blkCnt--;
 171:Source\FilteringFunctions/arm_fir_lattice_q31.c **** 
 172:Source\FilteringFunctions/arm_fir_lattice_q31.c ****   }
 173:Source\FilteringFunctions/arm_fir_lattice_q31.c **** 
 174:Source\FilteringFunctions/arm_fir_lattice_q31.c ****   /* If the blockSize is not a multiple of 4, compute any remaining output samples here.
 175:Source\FilteringFunctions/arm_fir_lattice_q31.c ****    ** No loop unrolling is used. */
 176:Source\FilteringFunctions/arm_fir_lattice_q31.c ****   blkCnt = blockSize % 0x2u;
 177:Source\FilteringFunctions/arm_fir_lattice_q31.c **** 
 178:Source\FilteringFunctions/arm_fir_lattice_q31.c ****   while (blkCnt > 0u)
 179:Source\FilteringFunctions/arm_fir_lattice_q31.c ****   {
 180:Source\FilteringFunctions/arm_fir_lattice_q31.c ****     /* f0(n) = x(n) */
 181:Source\FilteringFunctions/arm_fir_lattice_q31.c ****     fcurr1 = *pSrc++;
 182:Source\FilteringFunctions/arm_fir_lattice_q31.c **** 
 183:Source\FilteringFunctions/arm_fir_lattice_q31.c ****     /* Initialize coeff pointer */
 184:Source\FilteringFunctions/arm_fir_lattice_q31.c ****     pk = (pCoeffs);
 185:Source\FilteringFunctions/arm_fir_lattice_q31.c **** 
 186:Source\FilteringFunctions/arm_fir_lattice_q31.c ****     /* Initialize state pointer */
 187:Source\FilteringFunctions/arm_fir_lattice_q31.c ****     px = pState;
 188:Source\FilteringFunctions/arm_fir_lattice_q31.c **** 
 189:Source\FilteringFunctions/arm_fir_lattice_q31.c ****     /* read g0(n - 1) from state buffer */
 190:Source\FilteringFunctions/arm_fir_lattice_q31.c ****     gcurr1 = *px;
 191:Source\FilteringFunctions/arm_fir_lattice_q31.c **** 
 192:Source\FilteringFunctions/arm_fir_lattice_q31.c ****     /* Read the reflection coefficient */
 193:Source\FilteringFunctions/arm_fir_lattice_q31.c ****     k = *pk++;
 194:Source\FilteringFunctions/arm_fir_lattice_q31.c **** 
 195:Source\FilteringFunctions/arm_fir_lattice_q31.c ****     /* for sample 1 processing */
 196:Source\FilteringFunctions/arm_fir_lattice_q31.c ****     /* f1(n) = f0(n) +  K1 * g0(n-1) */
 197:Source\FilteringFunctions/arm_fir_lattice_q31.c ****     fnext1 = (q31_t) (((q63_t) gcurr1 * k) >> 32);
 198:Source\FilteringFunctions/arm_fir_lattice_q31.c ****     fnext1 = fcurr1 + (fnext1 << 1u);
 199:Source\FilteringFunctions/arm_fir_lattice_q31.c **** 
 200:Source\FilteringFunctions/arm_fir_lattice_q31.c ****     /* g1(n) = f0(n) * K1  +  g0(n-1) */
 201:Source\FilteringFunctions/arm_fir_lattice_q31.c ****     gnext1 = (q31_t) (((q63_t) fcurr1 * (k)) >> 32);
 202:Source\FilteringFunctions/arm_fir_lattice_q31.c ****     gnext1 = gcurr1 + (gnext1 << 1u);
ARM GAS  C:\Users\fneves\AppData\Local\Temp\ccEpfkzc.s 			page 5


 203:Source\FilteringFunctions/arm_fir_lattice_q31.c **** 
 204:Source\FilteringFunctions/arm_fir_lattice_q31.c ****     /* save g1(n) in state buffer */
 205:Source\FilteringFunctions/arm_fir_lattice_q31.c ****     *px++ = fcurr1;
 206:Source\FilteringFunctions/arm_fir_lattice_q31.c **** 
 207:Source\FilteringFunctions/arm_fir_lattice_q31.c ****     /* f1(n) is saved in fcurr1
 208:Source\FilteringFunctions/arm_fir_lattice_q31.c ****        for next stage processing */
 209:Source\FilteringFunctions/arm_fir_lattice_q31.c ****     fcurr1 = fnext1;
 210:Source\FilteringFunctions/arm_fir_lattice_q31.c **** 
 211:Source\FilteringFunctions/arm_fir_lattice_q31.c ****     stageCnt = (numStages - 1u);
 212:Source\FilteringFunctions/arm_fir_lattice_q31.c **** 
 213:Source\FilteringFunctions/arm_fir_lattice_q31.c ****     /* stage loop */
 214:Source\FilteringFunctions/arm_fir_lattice_q31.c ****     while (stageCnt > 0u)
 215:Source\FilteringFunctions/arm_fir_lattice_q31.c ****     {
 216:Source\FilteringFunctions/arm_fir_lattice_q31.c ****       /* Read the reflection coefficient */
 217:Source\FilteringFunctions/arm_fir_lattice_q31.c ****       k = *pk++;
 218:Source\FilteringFunctions/arm_fir_lattice_q31.c **** 
 219:Source\FilteringFunctions/arm_fir_lattice_q31.c ****       /* read g2(n) from state buffer */
 220:Source\FilteringFunctions/arm_fir_lattice_q31.c ****       gcurr1 = *px;
 221:Source\FilteringFunctions/arm_fir_lattice_q31.c **** 
 222:Source\FilteringFunctions/arm_fir_lattice_q31.c ****       /* save g1(n) in state buffer */
 223:Source\FilteringFunctions/arm_fir_lattice_q31.c ****       *px++ = gnext1;
 224:Source\FilteringFunctions/arm_fir_lattice_q31.c **** 
 225:Source\FilteringFunctions/arm_fir_lattice_q31.c ****       /* Sample processing for K2, K3.... */
 226:Source\FilteringFunctions/arm_fir_lattice_q31.c ****       /* f2(n) = f1(n) +  K2 * g1(n-1) */
 227:Source\FilteringFunctions/arm_fir_lattice_q31.c ****       fnext1 = (q31_t) (((q63_t) gcurr1 * k) >> 32);
 228:Source\FilteringFunctions/arm_fir_lattice_q31.c ****       fnext1 = fcurr1 + (fnext1 << 1u);
 229:Source\FilteringFunctions/arm_fir_lattice_q31.c **** 
 230:Source\FilteringFunctions/arm_fir_lattice_q31.c ****       /* g2(n) = f1(n) * K2  +  g1(n-1) */
 231:Source\FilteringFunctions/arm_fir_lattice_q31.c ****       gnext1 = (q31_t) (((q63_t) fcurr1 * (k)) >> 32);
 232:Source\FilteringFunctions/arm_fir_lattice_q31.c ****       gnext1 = gcurr1 + (gnext1 << 1u);
 233:Source\FilteringFunctions/arm_fir_lattice_q31.c **** 
 234:Source\FilteringFunctions/arm_fir_lattice_q31.c ****       /* f1(n) is saved in fcurr1
 235:Source\FilteringFunctions/arm_fir_lattice_q31.c ****          for next stage processing */
 236:Source\FilteringFunctions/arm_fir_lattice_q31.c ****       fcurr1 = fnext1;
 237:Source\FilteringFunctions/arm_fir_lattice_q31.c **** 
 238:Source\FilteringFunctions/arm_fir_lattice_q31.c ****       stageCnt--;
 239:Source\FilteringFunctions/arm_fir_lattice_q31.c **** 
 240:Source\FilteringFunctions/arm_fir_lattice_q31.c ****     }
 241:Source\FilteringFunctions/arm_fir_lattice_q31.c **** 
 242:Source\FilteringFunctions/arm_fir_lattice_q31.c **** 
 243:Source\FilteringFunctions/arm_fir_lattice_q31.c ****     /* y(n) = fN(n) */
 244:Source\FilteringFunctions/arm_fir_lattice_q31.c ****     *pDst++ = fcurr1;
 245:Source\FilteringFunctions/arm_fir_lattice_q31.c **** 
 246:Source\FilteringFunctions/arm_fir_lattice_q31.c ****     blkCnt--;
 247:Source\FilteringFunctions/arm_fir_lattice_q31.c **** 
 248:Source\FilteringFunctions/arm_fir_lattice_q31.c ****   }
 249:Source\FilteringFunctions/arm_fir_lattice_q31.c **** 
 250:Source\FilteringFunctions/arm_fir_lattice_q31.c **** 
 251:Source\FilteringFunctions/arm_fir_lattice_q31.c **** }
 252:Source\FilteringFunctions/arm_fir_lattice_q31.c **** 
 253:Source\FilteringFunctions/arm_fir_lattice_q31.c **** 
 254:Source\FilteringFunctions/arm_fir_lattice_q31.c **** #else
 255:Source\FilteringFunctions/arm_fir_lattice_q31.c **** 
 256:Source\FilteringFunctions/arm_fir_lattice_q31.c **** /* Run the below code for Cortex-M0 */
 257:Source\FilteringFunctions/arm_fir_lattice_q31.c **** 
 258:Source\FilteringFunctions/arm_fir_lattice_q31.c **** void arm_fir_lattice_q31(
 259:Source\FilteringFunctions/arm_fir_lattice_q31.c ****   const arm_fir_lattice_instance_q31 * S,
ARM GAS  C:\Users\fneves\AppData\Local\Temp\ccEpfkzc.s 			page 6


 260:Source\FilteringFunctions/arm_fir_lattice_q31.c ****   q31_t * pSrc,
 261:Source\FilteringFunctions/arm_fir_lattice_q31.c ****   q31_t * pDst,
 262:Source\FilteringFunctions/arm_fir_lattice_q31.c ****   uint32_t blockSize)
 263:Source\FilteringFunctions/arm_fir_lattice_q31.c **** {
  27              		.loc 1 263 0
  28              		.cfi_startproc
  29 0000 F0B5     		push	{r4, r5, r6, r7, lr}
  30              		.cfi_def_cfa_offset 20
  31              		.cfi_offset 4, -20
  32              		.cfi_offset 5, -16
  33              		.cfi_offset 6, -12
  34              		.cfi_offset 7, -8
  35              		.cfi_offset 14, -4
  36 0002 A7B0     		sub	sp, sp, #156
  37              		.cfi_def_cfa_offset 176
  38 0004 00AF     		add	r7, sp, #0
  39              		.cfi_def_cfa_register 7
  40 0006 7866     		str	r0, [r7, #100]
  41 0008 3966     		str	r1, [r7, #96]
  42 000a FA65     		str	r2, [r7, #92]
  43 000c BB65     		str	r3, [r7, #88]
 264:Source\FilteringFunctions/arm_fir_lattice_q31.c ****   q31_t *pState;                                 /* State pointer */
 265:Source\FilteringFunctions/arm_fir_lattice_q31.c ****   q31_t *pCoeffs = S->pCoeffs;                   /* Coefficient pointer */
  44              		.loc 1 265 0
  45 000e 7B6E     		ldr	r3, [r7, #100]
  46 0010 9B68     		ldr	r3, [r3, #8]
  47 0012 FB67     		str	r3, [r7, #124]
 266:Source\FilteringFunctions/arm_fir_lattice_q31.c ****   q31_t *px;                                     /* temporary state pointer */
 267:Source\FilteringFunctions/arm_fir_lattice_q31.c ****   q31_t *pk;                                     /* temporary coefficient pointer */
 268:Source\FilteringFunctions/arm_fir_lattice_q31.c ****   q31_t fcurr, fnext, gcurr, gnext;              /* temporary variables */
 269:Source\FilteringFunctions/arm_fir_lattice_q31.c ****   uint32_t numStages = S->numStages;             /* Length of the filter */
  48              		.loc 1 269 0
  49 0014 7B6E     		ldr	r3, [r7, #100]
  50 0016 1B88     		ldrh	r3, [r3]
  51 0018 BB67     		str	r3, [r7, #120]
 270:Source\FilteringFunctions/arm_fir_lattice_q31.c ****   uint32_t blkCnt, stageCnt;                     /* temporary variables for counts */
 271:Source\FilteringFunctions/arm_fir_lattice_q31.c **** 
 272:Source\FilteringFunctions/arm_fir_lattice_q31.c ****   pState = &S->pState[0];
  52              		.loc 1 272 0
  53 001a 7B6E     		ldr	r3, [r7, #100]
  54 001c 5B68     		ldr	r3, [r3, #4]
  55 001e 7B67     		str	r3, [r7, #116]
 273:Source\FilteringFunctions/arm_fir_lattice_q31.c **** 
 274:Source\FilteringFunctions/arm_fir_lattice_q31.c ****   blkCnt = blockSize;
  56              		.loc 1 274 0
  57 0020 BB6D     		ldr	r3, [r7, #88]
  58 0022 8422     		mov	r2, #132
  59 0024 BA18     		add	r2, r7, r2
  60 0026 1360     		str	r3, [r2]
 275:Source\FilteringFunctions/arm_fir_lattice_q31.c **** 
 276:Source\FilteringFunctions/arm_fir_lattice_q31.c ****   while (blkCnt > 0u)
  61              		.loc 1 276 0
  62 0028 E2E0     		b	.L2
  63              	.L5:
 277:Source\FilteringFunctions/arm_fir_lattice_q31.c ****   {
 278:Source\FilteringFunctions/arm_fir_lattice_q31.c ****     /* f0(n) = x(n) */
 279:Source\FilteringFunctions/arm_fir_lattice_q31.c ****     fcurr = *pSrc++;
ARM GAS  C:\Users\fneves\AppData\Local\Temp\ccEpfkzc.s 			page 7


  64              		.loc 1 279 0
  65 002a 3A6E     		ldr	r2, [r7, #96]
  66 002c 131D     		add	r3, r2, #4
  67 002e 3B66     		str	r3, [r7, #96]
  68 0030 1368     		ldr	r3, [r2]
  69 0032 8C22     		mov	r2, #140
  70 0034 BA18     		add	r2, r7, r2
  71 0036 1360     		str	r3, [r2]
 280:Source\FilteringFunctions/arm_fir_lattice_q31.c **** 
 281:Source\FilteringFunctions/arm_fir_lattice_q31.c ****     /* Initialize coeff pointer */
 282:Source\FilteringFunctions/arm_fir_lattice_q31.c ****     pk = (pCoeffs);
  72              		.loc 1 282 0
  73 0038 FB6F     		ldr	r3, [r7, #124]
  74 003a 9022     		mov	r2, #144
  75 003c BA18     		add	r2, r7, r2
  76 003e 1360     		str	r3, [r2]
 283:Source\FilteringFunctions/arm_fir_lattice_q31.c **** 
 284:Source\FilteringFunctions/arm_fir_lattice_q31.c ****     /* Initialize state pointer */
 285:Source\FilteringFunctions/arm_fir_lattice_q31.c ****     px = pState;
  77              		.loc 1 285 0
  78 0040 7B6F     		ldr	r3, [r7, #116]
  79 0042 9422     		mov	r2, #148
  80 0044 BA18     		add	r2, r7, r2
  81 0046 1360     		str	r3, [r2]
 286:Source\FilteringFunctions/arm_fir_lattice_q31.c **** 
 287:Source\FilteringFunctions/arm_fir_lattice_q31.c ****     /* read g0(n-1) from state buffer */
 288:Source\FilteringFunctions/arm_fir_lattice_q31.c ****     gcurr = *px;
  82              		.loc 1 288 0
  83 0048 9423     		mov	r3, #148
  84 004a FB18     		add	r3, r7, r3
  85 004c 1B68     		ldr	r3, [r3]
  86 004e 1B68     		ldr	r3, [r3]
  87 0050 3B67     		str	r3, [r7, #112]
 289:Source\FilteringFunctions/arm_fir_lattice_q31.c **** 
 290:Source\FilteringFunctions/arm_fir_lattice_q31.c ****     /* for sample 1 processing */
 291:Source\FilteringFunctions/arm_fir_lattice_q31.c ****     /* f1(n) = f0(n) +  K1 * g0(n-1) */
 292:Source\FilteringFunctions/arm_fir_lattice_q31.c ****     fnext = (q31_t) (((q63_t) gcurr * (*pk)) >> 31) + fcurr;
  88              		.loc 1 292 0
  89 0052 3B6F     		ldr	r3, [r7, #112]
  90 0054 BB63     		str	r3, [r7, #56]
  91 0056 DB17     		asr	r3, r3, #31
  92 0058 FB63     		str	r3, [r7, #60]
  93 005a 9023     		mov	r3, #144
  94 005c FB18     		add	r3, r7, r3
  95 005e 1B68     		ldr	r3, [r3]
  96 0060 1B68     		ldr	r3, [r3]
  97 0062 3B63     		str	r3, [r7, #48]
  98 0064 DB17     		asr	r3, r3, #31
  99 0066 7B63     		str	r3, [r7, #52]
 100 0068 B86B     		ldr	r0, [r7, #56]
 101 006a F96B     		ldr	r1, [r7, #60]
 102 006c 3A6B     		ldr	r2, [r7, #48]
 103 006e 7B6B     		ldr	r3, [r7, #52]
 104 0070 FFF7FEFF 		bl	__aeabi_lmul
 105 0074 031C     		mov	r3, r0
 106 0076 0C1C     		mov	r4, r1
 107 0078 6200     		lsl	r2, r4, #1
ARM GAS  C:\Users\fneves\AppData\Local\Temp\ccEpfkzc.s 			page 8


 108 007a D90F     		lsr	r1, r3, #31
 109 007c 3965     		str	r1, [r7, #80]
 110 007e 396D     		ldr	r1, [r7, #80]
 111 0080 1143     		orr	r1, r2
 112 0082 3965     		str	r1, [r7, #80]
 113 0084 E317     		asr	r3, r4, #31
 114 0086 7B65     		str	r3, [r7, #84]
 115 0088 3A6D     		ldr	r2, [r7, #80]
 116 008a 8C23     		mov	r3, #140
 117 008c FB18     		add	r3, r7, r3
 118 008e 1B68     		ldr	r3, [r3]
 119 0090 D318     		add	r3, r2, r3
 120 0092 FB66     		str	r3, [r7, #108]
 293:Source\FilteringFunctions/arm_fir_lattice_q31.c ****     /* g1(n) = f0(n) * K1  +  g0(n-1) */
 294:Source\FilteringFunctions/arm_fir_lattice_q31.c ****     gnext = (q31_t) (((q63_t) fcurr * (*pk++)) >> 31) + gcurr;
 121              		.loc 1 294 0
 122 0094 8C23     		mov	r3, #140
 123 0096 FB18     		add	r3, r7, r3
 124 0098 1B68     		ldr	r3, [r3]
 125 009a BB62     		str	r3, [r7, #40]
 126 009c DB17     		asr	r3, r3, #31
 127 009e FB62     		str	r3, [r7, #44]
 128 00a0 9023     		mov	r3, #144
 129 00a2 FB18     		add	r3, r7, r3
 130 00a4 1A68     		ldr	r2, [r3]
 131 00a6 131D     		add	r3, r2, #4
 132 00a8 9021     		mov	r1, #144
 133 00aa 7918     		add	r1, r7, r1
 134 00ac 0B60     		str	r3, [r1]
 135 00ae 1368     		ldr	r3, [r2]
 136 00b0 3B62     		str	r3, [r7, #32]
 137 00b2 DB17     		asr	r3, r3, #31
 138 00b4 7B62     		str	r3, [r7, #36]
 139 00b6 B86A     		ldr	r0, [r7, #40]
 140 00b8 F96A     		ldr	r1, [r7, #44]
 141 00ba 3A6A     		ldr	r2, [r7, #32]
 142 00bc 7B6A     		ldr	r3, [r7, #36]
 143 00be FFF7FEFF 		bl	__aeabi_lmul
 144 00c2 031C     		mov	r3, r0
 145 00c4 0C1C     		mov	r4, r1
 146 00c6 6200     		lsl	r2, r4, #1
 147 00c8 D90F     		lsr	r1, r3, #31
 148 00ca B964     		str	r1, [r7, #72]
 149 00cc B96C     		ldr	r1, [r7, #72]
 150 00ce 1143     		orr	r1, r2
 151 00d0 B964     		str	r1, [r7, #72]
 152 00d2 E317     		asr	r3, r4, #31
 153 00d4 FB64     		str	r3, [r7, #76]
 154 00d6 BA6C     		ldr	r2, [r7, #72]
 155 00d8 3B6F     		ldr	r3, [r7, #112]
 156 00da D318     		add	r3, r2, r3
 157 00dc 8822     		mov	r2, #136
 158 00de BA18     		add	r2, r7, r2
 159 00e0 1360     		str	r3, [r2]
 295:Source\FilteringFunctions/arm_fir_lattice_q31.c ****     /* save g1(n) in state buffer */
 296:Source\FilteringFunctions/arm_fir_lattice_q31.c ****     *px++ = fcurr;
 160              		.loc 1 296 0
ARM GAS  C:\Users\fneves\AppData\Local\Temp\ccEpfkzc.s 			page 9


 161 00e2 9423     		mov	r3, #148
 162 00e4 FB18     		add	r3, r7, r3
 163 00e6 1A68     		ldr	r2, [r3]
 164 00e8 131D     		add	r3, r2, #4
 165 00ea 9421     		mov	r1, #148
 166 00ec 7918     		add	r1, r7, r1
 167 00ee 0B60     		str	r3, [r1]
 168 00f0 8C23     		mov	r3, #140
 169 00f2 FB18     		add	r3, r7, r3
 170 00f4 1B68     		ldr	r3, [r3]
 171 00f6 1360     		str	r3, [r2]
 297:Source\FilteringFunctions/arm_fir_lattice_q31.c **** 
 298:Source\FilteringFunctions/arm_fir_lattice_q31.c ****     /* f1(n) is saved in fcurr1
 299:Source\FilteringFunctions/arm_fir_lattice_q31.c ****        for next stage processing */
 300:Source\FilteringFunctions/arm_fir_lattice_q31.c ****     fcurr = fnext;
 172              		.loc 1 300 0
 173 00f8 FB6E     		ldr	r3, [r7, #108]
 174 00fa 8C22     		mov	r2, #140
 175 00fc BA18     		add	r2, r7, r2
 176 00fe 1360     		str	r3, [r2]
 301:Source\FilteringFunctions/arm_fir_lattice_q31.c **** 
 302:Source\FilteringFunctions/arm_fir_lattice_q31.c ****     stageCnt = (numStages - 1u);
 177              		.loc 1 302 0
 178 0100 BB6F     		ldr	r3, [r7, #120]
 179 0102 013B     		sub	r3, r3, #1
 180 0104 8022     		mov	r2, #128
 181 0106 BA18     		add	r2, r7, r2
 182 0108 1360     		str	r3, [r2]
 303:Source\FilteringFunctions/arm_fir_lattice_q31.c **** 
 304:Source\FilteringFunctions/arm_fir_lattice_q31.c ****     /* stage loop */
 305:Source\FilteringFunctions/arm_fir_lattice_q31.c ****     while (stageCnt > 0u)
 183              		.loc 1 305 0
 184 010a 5EE0     		b	.L3
 185              	.L4:
 306:Source\FilteringFunctions/arm_fir_lattice_q31.c ****     {
 307:Source\FilteringFunctions/arm_fir_lattice_q31.c ****       /* read g2(n) from state buffer */
 308:Source\FilteringFunctions/arm_fir_lattice_q31.c ****       gcurr = *px;
 186              		.loc 1 308 0
 187 010c 9423     		mov	r3, #148
 188 010e FB18     		add	r3, r7, r3
 189 0110 1B68     		ldr	r3, [r3]
 190 0112 1B68     		ldr	r3, [r3]
 191 0114 3B67     		str	r3, [r7, #112]
 309:Source\FilteringFunctions/arm_fir_lattice_q31.c **** 
 310:Source\FilteringFunctions/arm_fir_lattice_q31.c ****       /* save g1(n) in state buffer */
 311:Source\FilteringFunctions/arm_fir_lattice_q31.c ****       *px++ = gnext;
 192              		.loc 1 311 0
 193 0116 9423     		mov	r3, #148
 194 0118 FB18     		add	r3, r7, r3
 195 011a 1A68     		ldr	r2, [r3]
 196 011c 131D     		add	r3, r2, #4
 197 011e 9421     		mov	r1, #148
 198 0120 7918     		add	r1, r7, r1
 199 0122 0B60     		str	r3, [r1]
 200 0124 8823     		mov	r3, #136
 201 0126 FB18     		add	r3, r7, r3
 202 0128 1B68     		ldr	r3, [r3]
ARM GAS  C:\Users\fneves\AppData\Local\Temp\ccEpfkzc.s 			page 10


 203 012a 1360     		str	r3, [r2]
 312:Source\FilteringFunctions/arm_fir_lattice_q31.c **** 
 313:Source\FilteringFunctions/arm_fir_lattice_q31.c ****       /* Sample processing for K2, K3.... */
 314:Source\FilteringFunctions/arm_fir_lattice_q31.c ****       /* f2(n) = f1(n) +  K2 * g1(n-1) */
 315:Source\FilteringFunctions/arm_fir_lattice_q31.c ****       fnext = (q31_t) (((q63_t) gcurr * (*pk)) >> 31) + fcurr;
 204              		.loc 1 315 0
 205 012c 3B6F     		ldr	r3, [r7, #112]
 206 012e BB61     		str	r3, [r7, #24]
 207 0130 DB17     		asr	r3, r3, #31
 208 0132 FB61     		str	r3, [r7, #28]
 209 0134 9023     		mov	r3, #144
 210 0136 FB18     		add	r3, r7, r3
 211 0138 1B68     		ldr	r3, [r3]
 212 013a 1B68     		ldr	r3, [r3]
 213 013c 3B61     		str	r3, [r7, #16]
 214 013e DB17     		asr	r3, r3, #31
 215 0140 7B61     		str	r3, [r7, #20]
 216 0142 B869     		ldr	r0, [r7, #24]
 217 0144 F969     		ldr	r1, [r7, #28]
 218 0146 3A69     		ldr	r2, [r7, #16]
 219 0148 7B69     		ldr	r3, [r7, #20]
 220 014a FFF7FEFF 		bl	__aeabi_lmul
 221 014e 031C     		mov	r3, r0
 222 0150 0C1C     		mov	r4, r1
 223 0152 6200     		lsl	r2, r4, #1
 224 0154 D90F     		lsr	r1, r3, #31
 225 0156 3964     		str	r1, [r7, #64]
 226 0158 396C     		ldr	r1, [r7, #64]
 227 015a 1143     		orr	r1, r2
 228 015c 3964     		str	r1, [r7, #64]
 229 015e E317     		asr	r3, r4, #31
 230 0160 7B64     		str	r3, [r7, #68]
 231 0162 3A6C     		ldr	r2, [r7, #64]
 232 0164 8C23     		mov	r3, #140
 233 0166 FB18     		add	r3, r7, r3
 234 0168 1B68     		ldr	r3, [r3]
 235 016a D318     		add	r3, r2, r3
 236 016c FB66     		str	r3, [r7, #108]
 316:Source\FilteringFunctions/arm_fir_lattice_q31.c ****       /* g2(n) = f1(n) * K2  +  g1(n-1) */
 317:Source\FilteringFunctions/arm_fir_lattice_q31.c ****       gnext = (q31_t) (((q63_t) fcurr * (*pk++)) >> 31) + gcurr;
 237              		.loc 1 317 0
 238 016e 8C23     		mov	r3, #140
 239 0170 FB18     		add	r3, r7, r3
 240 0172 1B68     		ldr	r3, [r3]
 241 0174 BB60     		str	r3, [r7, #8]
 242 0176 DB17     		asr	r3, r3, #31
 243 0178 FB60     		str	r3, [r7, #12]
 244 017a 9023     		mov	r3, #144
 245 017c FB18     		add	r3, r7, r3
 246 017e 1A68     		ldr	r2, [r3]
 247 0180 131D     		add	r3, r2, #4
 248 0182 9021     		mov	r1, #144
 249 0184 7918     		add	r1, r7, r1
 250 0186 0B60     		str	r3, [r1]
 251 0188 1368     		ldr	r3, [r2]
 252 018a 3B60     		str	r3, [r7]
 253 018c DB17     		asr	r3, r3, #31
ARM GAS  C:\Users\fneves\AppData\Local\Temp\ccEpfkzc.s 			page 11


 254 018e 7B60     		str	r3, [r7, #4]
 255 0190 B868     		ldr	r0, [r7, #8]
 256 0192 F968     		ldr	r1, [r7, #12]
 257 0194 3A68     		ldr	r2, [r7]
 258 0196 7B68     		ldr	r3, [r7, #4]
 259 0198 FFF7FEFF 		bl	__aeabi_lmul
 260 019c 031C     		mov	r3, r0
 261 019e 0C1C     		mov	r4, r1
 262 01a0 6200     		lsl	r2, r4, #1
 263 01a2 DD0F     		lsr	r5, r3, #31
 264 01a4 1543     		orr	r5, r2
 265 01a6 E617     		asr	r6, r4, #31
 266 01a8 2A1C     		mov	r2, r5
 267 01aa 3B6F     		ldr	r3, [r7, #112]
 268 01ac D318     		add	r3, r2, r3
 269 01ae 8822     		mov	r2, #136
 270 01b0 BA18     		add	r2, r7, r2
 271 01b2 1360     		str	r3, [r2]
 318:Source\FilteringFunctions/arm_fir_lattice_q31.c **** 
 319:Source\FilteringFunctions/arm_fir_lattice_q31.c ****       /* f1(n) is saved in fcurr1
 320:Source\FilteringFunctions/arm_fir_lattice_q31.c ****          for next stage processing */
 321:Source\FilteringFunctions/arm_fir_lattice_q31.c ****       fcurr = fnext;
 272              		.loc 1 321 0
 273 01b4 FB6E     		ldr	r3, [r7, #108]
 274 01b6 8C22     		mov	r2, #140
 275 01b8 BA18     		add	r2, r7, r2
 276 01ba 1360     		str	r3, [r2]
 322:Source\FilteringFunctions/arm_fir_lattice_q31.c **** 
 323:Source\FilteringFunctions/arm_fir_lattice_q31.c ****       stageCnt--;
 277              		.loc 1 323 0
 278 01bc 8023     		mov	r3, #128
 279 01be FB18     		add	r3, r7, r3
 280 01c0 1B68     		ldr	r3, [r3]
 281 01c2 013B     		sub	r3, r3, #1
 282 01c4 8022     		mov	r2, #128
 283 01c6 BA18     		add	r2, r7, r2
 284 01c8 1360     		str	r3, [r2]
 285              	.L3:
 305:Source\FilteringFunctions/arm_fir_lattice_q31.c ****     {
 286              		.loc 1 305 0
 287 01ca 8023     		mov	r3, #128
 288 01cc FB18     		add	r3, r7, r3
 289 01ce 1B68     		ldr	r3, [r3]
 290 01d0 002B     		cmp	r3, #0
 291 01d2 9BD1     		bne	.L4
 324:Source\FilteringFunctions/arm_fir_lattice_q31.c **** 
 325:Source\FilteringFunctions/arm_fir_lattice_q31.c ****     }
 326:Source\FilteringFunctions/arm_fir_lattice_q31.c **** 
 327:Source\FilteringFunctions/arm_fir_lattice_q31.c ****     /* y(n) = fN(n) */
 328:Source\FilteringFunctions/arm_fir_lattice_q31.c ****     *pDst++ = fcurr;
 292              		.loc 1 328 0
 293 01d4 FA6D     		ldr	r2, [r7, #92]
 294 01d6 131D     		add	r3, r2, #4
 295 01d8 FB65     		str	r3, [r7, #92]
 296 01da 8C23     		mov	r3, #140
 297 01dc FB18     		add	r3, r7, r3
 298 01de 1B68     		ldr	r3, [r3]
ARM GAS  C:\Users\fneves\AppData\Local\Temp\ccEpfkzc.s 			page 12


 299 01e0 1360     		str	r3, [r2]
 329:Source\FilteringFunctions/arm_fir_lattice_q31.c **** 
 330:Source\FilteringFunctions/arm_fir_lattice_q31.c ****     blkCnt--;
 300              		.loc 1 330 0
 301 01e2 8423     		mov	r3, #132
 302 01e4 FB18     		add	r3, r7, r3
 303 01e6 1B68     		ldr	r3, [r3]
 304 01e8 013B     		sub	r3, r3, #1
 305 01ea 8422     		mov	r2, #132
 306 01ec BA18     		add	r2, r7, r2
 307 01ee 1360     		str	r3, [r2]
 308              	.L2:
 276:Source\FilteringFunctions/arm_fir_lattice_q31.c ****   {
 309              		.loc 1 276 0
 310 01f0 8423     		mov	r3, #132
 311 01f2 FB18     		add	r3, r7, r3
 312 01f4 1B68     		ldr	r3, [r3]
 313 01f6 002B     		cmp	r3, #0
 314 01f8 00D0     		beq	.LCB262
 315 01fa 16E7     		b	.L5	@long jump
 316              	.LCB262:
 331:Source\FilteringFunctions/arm_fir_lattice_q31.c **** 
 332:Source\FilteringFunctions/arm_fir_lattice_q31.c ****   }
 333:Source\FilteringFunctions/arm_fir_lattice_q31.c **** 
 334:Source\FilteringFunctions/arm_fir_lattice_q31.c **** }
 317              		.loc 1 334 0
 318 01fc BD46     		mov	sp, r7
 319 01fe 27B0     		add	sp, sp, #156
 320              		@ sp needed
 321 0200 F0BD     		pop	{r4, r5, r6, r7, pc}
 322              		.cfi_endproc
 323              	.LFE82:
 324              		.size	arm_fir_lattice_q31, .-arm_fir_lattice_q31
 325 0202 C046     		.text
 326              	.Letext0:
 327              		.file 2 "c:\\program files (x86)\\cypress\\psoc creator\\4.0\\psoc creator\\import\\gnu\\arm\\4.9.
 328              		.file 3 "c:\\program files (x86)\\cypress\\psoc creator\\4.0\\psoc creator\\import\\gnu\\arm\\4.9.
 329              		.file 4 ".\\Include/arm_math.h"