ARM GAS  C:\Users\fneves\AppData\Local\Temp\ccwdqe5r.s 			page 1


   1              		.cpu cortex-m0plus
   2              		.fpu softvfp
   3              		.eabi_attribute 20, 1
   4              		.eabi_attribute 21, 1
   5              		.eabi_attribute 23, 3
   6              		.eabi_attribute 24, 1
   7              		.eabi_attribute 25, 1
   8              		.eabi_attribute 26, 1
   9              		.eabi_attribute 30, 6
  10              		.eabi_attribute 34, 0
  11              		.eabi_attribute 18, 4
  12              		.code	16
  13              		.file	"arm_fir_q7.c"
  14              		.text
  15              	.Ltext0:
  16              		.cfi_sections	.debug_frame
  17              		.section	.text.arm_fir_q7,"ax",%progbits
  18              		.align	2
  19              		.global	arm_fir_q7
  20              		.code	16
  21              		.thumb_func
  22              		.type	arm_fir_q7, %function
  23              	arm_fir_q7:
  24              	.LFB82:
  25              		.file 1 "Source\\FilteringFunctions\\arm_fir_q7.c"
   1:Source\FilteringFunctions/arm_fir_q7.c **** /* ----------------------------------------------------------------------
   2:Source\FilteringFunctions/arm_fir_q7.c ****  * Project:      CMSIS DSP Library
   3:Source\FilteringFunctions/arm_fir_q7.c ****  * Title:        arm_fir_q7.c
   4:Source\FilteringFunctions/arm_fir_q7.c ****  * Description:  Q7 FIR filter processing function
   5:Source\FilteringFunctions/arm_fir_q7.c ****  *
   6:Source\FilteringFunctions/arm_fir_q7.c ****  * $Date:        27. January 2017
   7:Source\FilteringFunctions/arm_fir_q7.c ****  * $Revision:    V.1.5.1
   8:Source\FilteringFunctions/arm_fir_q7.c ****  *
   9:Source\FilteringFunctions/arm_fir_q7.c ****  * Target Processor: Cortex-M cores
  10:Source\FilteringFunctions/arm_fir_q7.c ****  * -------------------------------------------------------------------- */
  11:Source\FilteringFunctions/arm_fir_q7.c **** /*
  12:Source\FilteringFunctions/arm_fir_q7.c ****  * Copyright (C) 2010-2017 ARM Limited or its affiliates. All rights reserved.
  13:Source\FilteringFunctions/arm_fir_q7.c ****  *
  14:Source\FilteringFunctions/arm_fir_q7.c ****  * SPDX-License-Identifier: Apache-2.0
  15:Source\FilteringFunctions/arm_fir_q7.c ****  *
  16:Source\FilteringFunctions/arm_fir_q7.c ****  * Licensed under the Apache License, Version 2.0 (the License); you may
  17:Source\FilteringFunctions/arm_fir_q7.c ****  * not use this file except in compliance with the License.
  18:Source\FilteringFunctions/arm_fir_q7.c ****  * You may obtain a copy of the License at
  19:Source\FilteringFunctions/arm_fir_q7.c ****  *
  20:Source\FilteringFunctions/arm_fir_q7.c ****  * www.apache.org/licenses/LICENSE-2.0
  21:Source\FilteringFunctions/arm_fir_q7.c ****  *
  22:Source\FilteringFunctions/arm_fir_q7.c ****  * Unless required by applicable law or agreed to in writing, software
  23:Source\FilteringFunctions/arm_fir_q7.c ****  * distributed under the License is distributed on an AS IS BASIS, WITHOUT
  24:Source\FilteringFunctions/arm_fir_q7.c ****  * WARRANTIES OR CONDITIONS OF ANY KIND, either express or implied.
  25:Source\FilteringFunctions/arm_fir_q7.c ****  * See the License for the specific language governing permissions and
  26:Source\FilteringFunctions/arm_fir_q7.c ****  * limitations under the License.
  27:Source\FilteringFunctions/arm_fir_q7.c ****  */
  28:Source\FilteringFunctions/arm_fir_q7.c **** 
  29:Source\FilteringFunctions/arm_fir_q7.c **** #include "arm_math.h"
  30:Source\FilteringFunctions/arm_fir_q7.c **** 
  31:Source\FilteringFunctions/arm_fir_q7.c **** /**
  32:Source\FilteringFunctions/arm_fir_q7.c ****  * @ingroup groupFilters
ARM GAS  C:\Users\fneves\AppData\Local\Temp\ccwdqe5r.s 			page 2


  33:Source\FilteringFunctions/arm_fir_q7.c ****  */
  34:Source\FilteringFunctions/arm_fir_q7.c **** 
  35:Source\FilteringFunctions/arm_fir_q7.c **** /**
  36:Source\FilteringFunctions/arm_fir_q7.c ****  * @addtogroup FIR
  37:Source\FilteringFunctions/arm_fir_q7.c ****  * @{
  38:Source\FilteringFunctions/arm_fir_q7.c ****  */
  39:Source\FilteringFunctions/arm_fir_q7.c **** 
  40:Source\FilteringFunctions/arm_fir_q7.c **** /**
  41:Source\FilteringFunctions/arm_fir_q7.c ****  * @param[in]   *S points to an instance of the Q7 FIR filter structure.
  42:Source\FilteringFunctions/arm_fir_q7.c ****  * @param[in]   *pSrc points to the block of input data.
  43:Source\FilteringFunctions/arm_fir_q7.c ****  * @param[out]  *pDst points to the block of output data.
  44:Source\FilteringFunctions/arm_fir_q7.c ****  * @param[in]   blockSize number of samples to process per call.
  45:Source\FilteringFunctions/arm_fir_q7.c ****  * @return 	none.
  46:Source\FilteringFunctions/arm_fir_q7.c ****  *
  47:Source\FilteringFunctions/arm_fir_q7.c ****  * <b>Scaling and Overflow Behavior:</b>
  48:Source\FilteringFunctions/arm_fir_q7.c ****  * \par
  49:Source\FilteringFunctions/arm_fir_q7.c ****  * The function is implemented using a 32-bit internal accumulator.
  50:Source\FilteringFunctions/arm_fir_q7.c ****  * Both coefficients and state variables are represented in 1.7 format and multiplications yield a 
  51:Source\FilteringFunctions/arm_fir_q7.c ****  * The 2.14 intermediate results are accumulated in a 32-bit accumulator in 18.14 format.
  52:Source\FilteringFunctions/arm_fir_q7.c ****  * There is no risk of internal overflow with this approach and the full precision of intermediate 
  53:Source\FilteringFunctions/arm_fir_q7.c ****  * The accumulator is converted to 18.7 format by discarding the low 7 bits.
  54:Source\FilteringFunctions/arm_fir_q7.c ****  * Finally, the result is truncated to 1.7 format.
  55:Source\FilteringFunctions/arm_fir_q7.c ****  */
  56:Source\FilteringFunctions/arm_fir_q7.c **** 
  57:Source\FilteringFunctions/arm_fir_q7.c **** void arm_fir_q7(
  58:Source\FilteringFunctions/arm_fir_q7.c ****   const arm_fir_instance_q7 * S,
  59:Source\FilteringFunctions/arm_fir_q7.c ****   q7_t * pSrc,
  60:Source\FilteringFunctions/arm_fir_q7.c ****   q7_t * pDst,
  61:Source\FilteringFunctions/arm_fir_q7.c ****   uint32_t blockSize)
  62:Source\FilteringFunctions/arm_fir_q7.c **** {
  26              		.loc 1 62 0
  27              		.cfi_startproc
  28 0000 80B5     		push	{r7, lr}
  29              		.cfi_def_cfa_offset 8
  30              		.cfi_offset 7, -8
  31              		.cfi_offset 14, -4
  32 0002 92B0     		sub	sp, sp, #72
  33              		.cfi_def_cfa_offset 80
  34 0004 00AF     		add	r7, sp, #0
  35              		.cfi_def_cfa_register 7
  36 0006 F860     		str	r0, [r7, #12]
  37 0008 B960     		str	r1, [r7, #8]
  38 000a 7A60     		str	r2, [r7, #4]
  39 000c 3B60     		str	r3, [r7]
  63:Source\FilteringFunctions/arm_fir_q7.c **** 
  64:Source\FilteringFunctions/arm_fir_q7.c **** #if defined (ARM_MATH_DSP)
  65:Source\FilteringFunctions/arm_fir_q7.c **** 
  66:Source\FilteringFunctions/arm_fir_q7.c ****   /* Run the below code for Cortex-M4 and Cortex-M3 */
  67:Source\FilteringFunctions/arm_fir_q7.c **** 
  68:Source\FilteringFunctions/arm_fir_q7.c ****   q7_t *pState = S->pState;                      /* State pointer */
  69:Source\FilteringFunctions/arm_fir_q7.c ****   q7_t *pCoeffs = S->pCoeffs;                    /* Coefficient pointer */
  70:Source\FilteringFunctions/arm_fir_q7.c ****   q7_t *pStateCurnt;                             /* Points to the current sample of the state */
  71:Source\FilteringFunctions/arm_fir_q7.c ****   q7_t x0, x1, x2, x3;                           /* Temporary variables to hold state */
  72:Source\FilteringFunctions/arm_fir_q7.c ****   q7_t c0;                                       /* Temporary variable to hold coefficient value */
  73:Source\FilteringFunctions/arm_fir_q7.c ****   q7_t *px;                                      /* Temporary pointer for state */
  74:Source\FilteringFunctions/arm_fir_q7.c ****   q7_t *pb;                                      /* Temporary pointer for coefficient buffer */
  75:Source\FilteringFunctions/arm_fir_q7.c ****   q31_t acc0, acc1, acc2, acc3;                  /* Accumulators */
ARM GAS  C:\Users\fneves\AppData\Local\Temp\ccwdqe5r.s 			page 3


  76:Source\FilteringFunctions/arm_fir_q7.c ****   uint32_t numTaps = S->numTaps;                 /* Number of filter coefficients in the filter */
  77:Source\FilteringFunctions/arm_fir_q7.c ****   uint32_t i, tapCnt, blkCnt;                    /* Loop counters */
  78:Source\FilteringFunctions/arm_fir_q7.c **** 
  79:Source\FilteringFunctions/arm_fir_q7.c ****   /* S->pState points to state array which contains previous frame (numTaps - 1) samples */
  80:Source\FilteringFunctions/arm_fir_q7.c ****   /* pStateCurnt points to the location where the new input data should be written */
  81:Source\FilteringFunctions/arm_fir_q7.c ****   pStateCurnt = &(S->pState[(numTaps - 1u)]);
  82:Source\FilteringFunctions/arm_fir_q7.c **** 
  83:Source\FilteringFunctions/arm_fir_q7.c ****   /* Apply loop unrolling and compute 4 output values simultaneously.
  84:Source\FilteringFunctions/arm_fir_q7.c ****    * The variables acc0 ... acc3 hold output values that are being computed:
  85:Source\FilteringFunctions/arm_fir_q7.c ****    *
  86:Source\FilteringFunctions/arm_fir_q7.c ****    *    acc0 =  b[numTaps-1] * x[n-numTaps-1] + b[numTaps-2] * x[n-numTaps-2] + b[numTaps-3] * x[n-
  87:Source\FilteringFunctions/arm_fir_q7.c ****    *    acc1 =  b[numTaps-1] * x[n-numTaps] +   b[numTaps-2] * x[n-numTaps-1] + b[numTaps-3] * x[n-
  88:Source\FilteringFunctions/arm_fir_q7.c ****    *    acc2 =  b[numTaps-1] * x[n-numTaps+1] + b[numTaps-2] * x[n-numTaps] +   b[numTaps-3] * x[n-
  89:Source\FilteringFunctions/arm_fir_q7.c ****    *    acc3 =  b[numTaps-1] * x[n-numTaps+2] + b[numTaps-2] * x[n-numTaps+1] + b[numTaps-3] * x[n-
  90:Source\FilteringFunctions/arm_fir_q7.c ****    */
  91:Source\FilteringFunctions/arm_fir_q7.c ****   blkCnt = blockSize >> 2;
  92:Source\FilteringFunctions/arm_fir_q7.c **** 
  93:Source\FilteringFunctions/arm_fir_q7.c ****   /* First part of the processing with loop unrolling.  Compute 4 outputs at a time.
  94:Source\FilteringFunctions/arm_fir_q7.c ****    ** a second loop below computes the remaining 1 to 3 samples. */
  95:Source\FilteringFunctions/arm_fir_q7.c ****   while (blkCnt > 0u)
  96:Source\FilteringFunctions/arm_fir_q7.c ****   {
  97:Source\FilteringFunctions/arm_fir_q7.c ****     /* Copy four new input samples into the state buffer */
  98:Source\FilteringFunctions/arm_fir_q7.c ****     *pStateCurnt++ = *pSrc++;
  99:Source\FilteringFunctions/arm_fir_q7.c ****     *pStateCurnt++ = *pSrc++;
 100:Source\FilteringFunctions/arm_fir_q7.c ****     *pStateCurnt++ = *pSrc++;
 101:Source\FilteringFunctions/arm_fir_q7.c ****     *pStateCurnt++ = *pSrc++;
 102:Source\FilteringFunctions/arm_fir_q7.c **** 
 103:Source\FilteringFunctions/arm_fir_q7.c ****     /* Set all accumulators to zero */
 104:Source\FilteringFunctions/arm_fir_q7.c ****     acc0 = 0;
 105:Source\FilteringFunctions/arm_fir_q7.c ****     acc1 = 0;
 106:Source\FilteringFunctions/arm_fir_q7.c ****     acc2 = 0;
 107:Source\FilteringFunctions/arm_fir_q7.c ****     acc3 = 0;
 108:Source\FilteringFunctions/arm_fir_q7.c **** 
 109:Source\FilteringFunctions/arm_fir_q7.c ****     /* Initialize state pointer */
 110:Source\FilteringFunctions/arm_fir_q7.c ****     px = pState;
 111:Source\FilteringFunctions/arm_fir_q7.c **** 
 112:Source\FilteringFunctions/arm_fir_q7.c ****     /* Initialize coefficient pointer */
 113:Source\FilteringFunctions/arm_fir_q7.c ****     pb = pCoeffs;
 114:Source\FilteringFunctions/arm_fir_q7.c **** 
 115:Source\FilteringFunctions/arm_fir_q7.c ****     /* Read the first three samples from the state buffer:
 116:Source\FilteringFunctions/arm_fir_q7.c ****      *  x[n-numTaps], x[n-numTaps-1], x[n-numTaps-2] */
 117:Source\FilteringFunctions/arm_fir_q7.c ****     x0 = *(px++);
 118:Source\FilteringFunctions/arm_fir_q7.c ****     x1 = *(px++);
 119:Source\FilteringFunctions/arm_fir_q7.c ****     x2 = *(px++);
 120:Source\FilteringFunctions/arm_fir_q7.c **** 
 121:Source\FilteringFunctions/arm_fir_q7.c ****     /* Loop unrolling.  Process 4 taps at a time. */
 122:Source\FilteringFunctions/arm_fir_q7.c ****     tapCnt = numTaps >> 2;
 123:Source\FilteringFunctions/arm_fir_q7.c ****     i = tapCnt;
 124:Source\FilteringFunctions/arm_fir_q7.c **** 
 125:Source\FilteringFunctions/arm_fir_q7.c ****     while (i > 0u)
 126:Source\FilteringFunctions/arm_fir_q7.c ****     {
 127:Source\FilteringFunctions/arm_fir_q7.c ****       /* Read the b[numTaps] coefficient */
 128:Source\FilteringFunctions/arm_fir_q7.c ****       c0 = *pb;
 129:Source\FilteringFunctions/arm_fir_q7.c **** 
 130:Source\FilteringFunctions/arm_fir_q7.c ****       /* Read x[n-numTaps-3] sample */
 131:Source\FilteringFunctions/arm_fir_q7.c ****       x3 = *px;
 132:Source\FilteringFunctions/arm_fir_q7.c **** 
ARM GAS  C:\Users\fneves\AppData\Local\Temp\ccwdqe5r.s 			page 4


 133:Source\FilteringFunctions/arm_fir_q7.c ****       /* acc0 +=  b[numTaps] * x[n-numTaps] */
 134:Source\FilteringFunctions/arm_fir_q7.c ****       acc0 += ((q15_t) x0 * c0);
 135:Source\FilteringFunctions/arm_fir_q7.c **** 
 136:Source\FilteringFunctions/arm_fir_q7.c ****       /* acc1 +=  b[numTaps] * x[n-numTaps-1] */
 137:Source\FilteringFunctions/arm_fir_q7.c ****       acc1 += ((q15_t) x1 * c0);
 138:Source\FilteringFunctions/arm_fir_q7.c **** 
 139:Source\FilteringFunctions/arm_fir_q7.c ****       /* acc2 +=  b[numTaps] * x[n-numTaps-2] */
 140:Source\FilteringFunctions/arm_fir_q7.c ****       acc2 += ((q15_t) x2 * c0);
 141:Source\FilteringFunctions/arm_fir_q7.c **** 
 142:Source\FilteringFunctions/arm_fir_q7.c ****       /* acc3 +=  b[numTaps] * x[n-numTaps-3] */
 143:Source\FilteringFunctions/arm_fir_q7.c ****       acc3 += ((q15_t) x3 * c0);
 144:Source\FilteringFunctions/arm_fir_q7.c **** 
 145:Source\FilteringFunctions/arm_fir_q7.c ****       /* Read the b[numTaps-1] coefficient */
 146:Source\FilteringFunctions/arm_fir_q7.c ****       c0 = *(pb + 1u);
 147:Source\FilteringFunctions/arm_fir_q7.c **** 
 148:Source\FilteringFunctions/arm_fir_q7.c ****       /* Read x[n-numTaps-4] sample */
 149:Source\FilteringFunctions/arm_fir_q7.c ****       x0 = *(px + 1u);
 150:Source\FilteringFunctions/arm_fir_q7.c **** 
 151:Source\FilteringFunctions/arm_fir_q7.c ****       /* Perform the multiply-accumulates */
 152:Source\FilteringFunctions/arm_fir_q7.c ****       acc0 += ((q15_t) x1 * c0);
 153:Source\FilteringFunctions/arm_fir_q7.c ****       acc1 += ((q15_t) x2 * c0);
 154:Source\FilteringFunctions/arm_fir_q7.c ****       acc2 += ((q15_t) x3 * c0);
 155:Source\FilteringFunctions/arm_fir_q7.c ****       acc3 += ((q15_t) x0 * c0);
 156:Source\FilteringFunctions/arm_fir_q7.c **** 
 157:Source\FilteringFunctions/arm_fir_q7.c ****       /* Read the b[numTaps-2] coefficient */
 158:Source\FilteringFunctions/arm_fir_q7.c ****       c0 = *(pb + 2u);
 159:Source\FilteringFunctions/arm_fir_q7.c **** 
 160:Source\FilteringFunctions/arm_fir_q7.c ****       /* Read x[n-numTaps-5] sample */
 161:Source\FilteringFunctions/arm_fir_q7.c ****       x1 = *(px + 2u);
 162:Source\FilteringFunctions/arm_fir_q7.c **** 
 163:Source\FilteringFunctions/arm_fir_q7.c ****       /* Perform the multiply-accumulates */
 164:Source\FilteringFunctions/arm_fir_q7.c ****       acc0 += ((q15_t) x2 * c0);
 165:Source\FilteringFunctions/arm_fir_q7.c ****       acc1 += ((q15_t) x3 * c0);
 166:Source\FilteringFunctions/arm_fir_q7.c ****       acc2 += ((q15_t) x0 * c0);
 167:Source\FilteringFunctions/arm_fir_q7.c ****       acc3 += ((q15_t) x1 * c0);
 168:Source\FilteringFunctions/arm_fir_q7.c **** 
 169:Source\FilteringFunctions/arm_fir_q7.c ****       /* Read the b[numTaps-3] coefficients */
 170:Source\FilteringFunctions/arm_fir_q7.c ****       c0 = *(pb + 3u);
 171:Source\FilteringFunctions/arm_fir_q7.c **** 
 172:Source\FilteringFunctions/arm_fir_q7.c ****       /* Read x[n-numTaps-6] sample */
 173:Source\FilteringFunctions/arm_fir_q7.c ****       x2 = *(px + 3u);
 174:Source\FilteringFunctions/arm_fir_q7.c **** 
 175:Source\FilteringFunctions/arm_fir_q7.c ****       /* Perform the multiply-accumulates */
 176:Source\FilteringFunctions/arm_fir_q7.c ****       acc0 += ((q15_t) x3 * c0);
 177:Source\FilteringFunctions/arm_fir_q7.c ****       acc1 += ((q15_t) x0 * c0);
 178:Source\FilteringFunctions/arm_fir_q7.c ****       acc2 += ((q15_t) x1 * c0);
 179:Source\FilteringFunctions/arm_fir_q7.c ****       acc3 += ((q15_t) x2 * c0);
 180:Source\FilteringFunctions/arm_fir_q7.c **** 
 181:Source\FilteringFunctions/arm_fir_q7.c ****       /* update coefficient pointer */
 182:Source\FilteringFunctions/arm_fir_q7.c ****       pb += 4u;
 183:Source\FilteringFunctions/arm_fir_q7.c ****       px += 4u;
 184:Source\FilteringFunctions/arm_fir_q7.c **** 
 185:Source\FilteringFunctions/arm_fir_q7.c ****       /* Decrement the loop counter */
 186:Source\FilteringFunctions/arm_fir_q7.c ****       i--;
 187:Source\FilteringFunctions/arm_fir_q7.c ****     }
 188:Source\FilteringFunctions/arm_fir_q7.c **** 
 189:Source\FilteringFunctions/arm_fir_q7.c ****     /* If the filter length is not a multiple of 4, compute the remaining filter taps */
ARM GAS  C:\Users\fneves\AppData\Local\Temp\ccwdqe5r.s 			page 5


 190:Source\FilteringFunctions/arm_fir_q7.c **** 
 191:Source\FilteringFunctions/arm_fir_q7.c ****     i = numTaps - (tapCnt * 4u);
 192:Source\FilteringFunctions/arm_fir_q7.c ****     while (i > 0u)
 193:Source\FilteringFunctions/arm_fir_q7.c ****     {
 194:Source\FilteringFunctions/arm_fir_q7.c ****       /* Read coefficients */
 195:Source\FilteringFunctions/arm_fir_q7.c ****       c0 = *(pb++);
 196:Source\FilteringFunctions/arm_fir_q7.c **** 
 197:Source\FilteringFunctions/arm_fir_q7.c ****       /* Fetch 1 state variable */
 198:Source\FilteringFunctions/arm_fir_q7.c ****       x3 = *(px++);
 199:Source\FilteringFunctions/arm_fir_q7.c **** 
 200:Source\FilteringFunctions/arm_fir_q7.c ****       /* Perform the multiply-accumulates */
 201:Source\FilteringFunctions/arm_fir_q7.c ****       acc0 += ((q15_t) x0 * c0);
 202:Source\FilteringFunctions/arm_fir_q7.c ****       acc1 += ((q15_t) x1 * c0);
 203:Source\FilteringFunctions/arm_fir_q7.c ****       acc2 += ((q15_t) x2 * c0);
 204:Source\FilteringFunctions/arm_fir_q7.c ****       acc3 += ((q15_t) x3 * c0);
 205:Source\FilteringFunctions/arm_fir_q7.c **** 
 206:Source\FilteringFunctions/arm_fir_q7.c ****       /* Reuse the present sample states for next sample */
 207:Source\FilteringFunctions/arm_fir_q7.c ****       x0 = x1;
 208:Source\FilteringFunctions/arm_fir_q7.c ****       x1 = x2;
 209:Source\FilteringFunctions/arm_fir_q7.c ****       x2 = x3;
 210:Source\FilteringFunctions/arm_fir_q7.c **** 
 211:Source\FilteringFunctions/arm_fir_q7.c ****       /* Decrement the loop counter */
 212:Source\FilteringFunctions/arm_fir_q7.c ****       i--;
 213:Source\FilteringFunctions/arm_fir_q7.c ****     }
 214:Source\FilteringFunctions/arm_fir_q7.c **** 
 215:Source\FilteringFunctions/arm_fir_q7.c ****     /* Advance the state pointer by 4 to process the next group of 4 samples */
 216:Source\FilteringFunctions/arm_fir_q7.c ****     pState = pState + 4;
 217:Source\FilteringFunctions/arm_fir_q7.c **** 
 218:Source\FilteringFunctions/arm_fir_q7.c ****     /* The results in the 4 accumulators are in 2.62 format.  Convert to 1.31
 219:Source\FilteringFunctions/arm_fir_q7.c ****      ** Then store the 4 outputs in the destination buffer. */
 220:Source\FilteringFunctions/arm_fir_q7.c ****     acc0 = __SSAT((acc0 >> 7u), 8);
 221:Source\FilteringFunctions/arm_fir_q7.c ****     *pDst++ = acc0;
 222:Source\FilteringFunctions/arm_fir_q7.c ****     acc1 = __SSAT((acc1 >> 7u), 8);
 223:Source\FilteringFunctions/arm_fir_q7.c ****     *pDst++ = acc1;
 224:Source\FilteringFunctions/arm_fir_q7.c ****     acc2 = __SSAT((acc2 >> 7u), 8);
 225:Source\FilteringFunctions/arm_fir_q7.c ****     *pDst++ = acc2;
 226:Source\FilteringFunctions/arm_fir_q7.c ****     acc3 = __SSAT((acc3 >> 7u), 8);
 227:Source\FilteringFunctions/arm_fir_q7.c ****     *pDst++ = acc3;
 228:Source\FilteringFunctions/arm_fir_q7.c **** 
 229:Source\FilteringFunctions/arm_fir_q7.c ****     /* Decrement the samples loop counter */
 230:Source\FilteringFunctions/arm_fir_q7.c ****     blkCnt--;
 231:Source\FilteringFunctions/arm_fir_q7.c ****   }
 232:Source\FilteringFunctions/arm_fir_q7.c **** 
 233:Source\FilteringFunctions/arm_fir_q7.c **** 
 234:Source\FilteringFunctions/arm_fir_q7.c ****   /* If the blockSize is not a multiple of 4, compute any remaining output samples here.
 235:Source\FilteringFunctions/arm_fir_q7.c ****    ** No loop unrolling is used. */
 236:Source\FilteringFunctions/arm_fir_q7.c ****   blkCnt = blockSize % 4u;
 237:Source\FilteringFunctions/arm_fir_q7.c **** 
 238:Source\FilteringFunctions/arm_fir_q7.c ****   while (blkCnt > 0u)
 239:Source\FilteringFunctions/arm_fir_q7.c ****   {
 240:Source\FilteringFunctions/arm_fir_q7.c ****     /* Copy one sample at a time into state buffer */
 241:Source\FilteringFunctions/arm_fir_q7.c ****     *pStateCurnt++ = *pSrc++;
 242:Source\FilteringFunctions/arm_fir_q7.c **** 
 243:Source\FilteringFunctions/arm_fir_q7.c ****     /* Set the accumulator to zero */
 244:Source\FilteringFunctions/arm_fir_q7.c ****     acc0 = 0;
 245:Source\FilteringFunctions/arm_fir_q7.c **** 
 246:Source\FilteringFunctions/arm_fir_q7.c ****     /* Initialize state pointer */
ARM GAS  C:\Users\fneves\AppData\Local\Temp\ccwdqe5r.s 			page 6


 247:Source\FilteringFunctions/arm_fir_q7.c ****     px = pState;
 248:Source\FilteringFunctions/arm_fir_q7.c **** 
 249:Source\FilteringFunctions/arm_fir_q7.c ****     /* Initialize Coefficient pointer */
 250:Source\FilteringFunctions/arm_fir_q7.c ****     pb = (pCoeffs);
 251:Source\FilteringFunctions/arm_fir_q7.c **** 
 252:Source\FilteringFunctions/arm_fir_q7.c ****     i = numTaps;
 253:Source\FilteringFunctions/arm_fir_q7.c **** 
 254:Source\FilteringFunctions/arm_fir_q7.c ****     /* Perform the multiply-accumulates */
 255:Source\FilteringFunctions/arm_fir_q7.c ****     do
 256:Source\FilteringFunctions/arm_fir_q7.c ****     {
 257:Source\FilteringFunctions/arm_fir_q7.c ****       acc0 += (q15_t) * (px++) * (*(pb++));
 258:Source\FilteringFunctions/arm_fir_q7.c ****       i--;
 259:Source\FilteringFunctions/arm_fir_q7.c ****     } while (i > 0u);
 260:Source\FilteringFunctions/arm_fir_q7.c **** 
 261:Source\FilteringFunctions/arm_fir_q7.c ****     /* The result is in 2.14 format.  Convert to 1.7
 262:Source\FilteringFunctions/arm_fir_q7.c ****      ** Then store the output in the destination buffer. */
 263:Source\FilteringFunctions/arm_fir_q7.c ****     *pDst++ = __SSAT((acc0 >> 7u), 8);
 264:Source\FilteringFunctions/arm_fir_q7.c **** 
 265:Source\FilteringFunctions/arm_fir_q7.c ****     /* Advance state pointer by 1 for the next sample */
 266:Source\FilteringFunctions/arm_fir_q7.c ****     pState = pState + 1;
 267:Source\FilteringFunctions/arm_fir_q7.c **** 
 268:Source\FilteringFunctions/arm_fir_q7.c ****     /* Decrement the samples loop counter */
 269:Source\FilteringFunctions/arm_fir_q7.c ****     blkCnt--;
 270:Source\FilteringFunctions/arm_fir_q7.c ****   }
 271:Source\FilteringFunctions/arm_fir_q7.c **** 
 272:Source\FilteringFunctions/arm_fir_q7.c ****   /* Processing is complete.
 273:Source\FilteringFunctions/arm_fir_q7.c ****    ** Now copy the last numTaps - 1 samples to the satrt of the state buffer.
 274:Source\FilteringFunctions/arm_fir_q7.c ****    ** This prepares the state buffer for the next function call. */
 275:Source\FilteringFunctions/arm_fir_q7.c **** 
 276:Source\FilteringFunctions/arm_fir_q7.c ****   /* Points to the start of the state buffer */
 277:Source\FilteringFunctions/arm_fir_q7.c ****   pStateCurnt = S->pState;
 278:Source\FilteringFunctions/arm_fir_q7.c **** 
 279:Source\FilteringFunctions/arm_fir_q7.c ****   tapCnt = (numTaps - 1u) >> 2u;
 280:Source\FilteringFunctions/arm_fir_q7.c **** 
 281:Source\FilteringFunctions/arm_fir_q7.c ****   /* copy data */
 282:Source\FilteringFunctions/arm_fir_q7.c ****   while (tapCnt > 0u)
 283:Source\FilteringFunctions/arm_fir_q7.c ****   {
 284:Source\FilteringFunctions/arm_fir_q7.c ****     *pStateCurnt++ = *pState++;
 285:Source\FilteringFunctions/arm_fir_q7.c ****     *pStateCurnt++ = *pState++;
 286:Source\FilteringFunctions/arm_fir_q7.c ****     *pStateCurnt++ = *pState++;
 287:Source\FilteringFunctions/arm_fir_q7.c ****     *pStateCurnt++ = *pState++;
 288:Source\FilteringFunctions/arm_fir_q7.c **** 
 289:Source\FilteringFunctions/arm_fir_q7.c ****     /* Decrement the loop counter */
 290:Source\FilteringFunctions/arm_fir_q7.c ****     tapCnt--;
 291:Source\FilteringFunctions/arm_fir_q7.c ****   }
 292:Source\FilteringFunctions/arm_fir_q7.c **** 
 293:Source\FilteringFunctions/arm_fir_q7.c ****   /* Calculate remaining number of copies */
 294:Source\FilteringFunctions/arm_fir_q7.c ****   tapCnt = (numTaps - 1u) % 0x4u;
 295:Source\FilteringFunctions/arm_fir_q7.c **** 
 296:Source\FilteringFunctions/arm_fir_q7.c ****   /* Copy the remaining q31_t data */
 297:Source\FilteringFunctions/arm_fir_q7.c ****   while (tapCnt > 0u)
 298:Source\FilteringFunctions/arm_fir_q7.c ****   {
 299:Source\FilteringFunctions/arm_fir_q7.c ****     *pStateCurnt++ = *pState++;
 300:Source\FilteringFunctions/arm_fir_q7.c **** 
 301:Source\FilteringFunctions/arm_fir_q7.c ****     /* Decrement the loop counter */
 302:Source\FilteringFunctions/arm_fir_q7.c ****     tapCnt--;
 303:Source\FilteringFunctions/arm_fir_q7.c ****   }
ARM GAS  C:\Users\fneves\AppData\Local\Temp\ccwdqe5r.s 			page 7


 304:Source\FilteringFunctions/arm_fir_q7.c **** 
 305:Source\FilteringFunctions/arm_fir_q7.c **** #else
 306:Source\FilteringFunctions/arm_fir_q7.c **** 
 307:Source\FilteringFunctions/arm_fir_q7.c **** /* Run the below code for Cortex-M0 */
 308:Source\FilteringFunctions/arm_fir_q7.c **** 
 309:Source\FilteringFunctions/arm_fir_q7.c ****   uint32_t numTaps = S->numTaps;                 /* Number of taps in the filter */
  40              		.loc 1 309 0
  41 000e FB68     		ldr	r3, [r7, #12]
  42 0010 1B88     		ldrh	r3, [r3]
  43 0012 BB62     		str	r3, [r7, #40]
 310:Source\FilteringFunctions/arm_fir_q7.c ****   uint32_t i, blkCnt;                            /* Loop counters */
 311:Source\FilteringFunctions/arm_fir_q7.c ****   q7_t *pState = S->pState;                      /* State pointer */
  44              		.loc 1 311 0
  45 0014 FB68     		ldr	r3, [r7, #12]
  46 0016 5B68     		ldr	r3, [r3, #4]
  47 0018 FB63     		str	r3, [r7, #60]
 312:Source\FilteringFunctions/arm_fir_q7.c ****   q7_t *pCoeffs = S->pCoeffs;                    /* Coefficient pointer */
  48              		.loc 1 312 0
  49 001a FB68     		ldr	r3, [r7, #12]
  50 001c 9B68     		ldr	r3, [r3, #8]
  51 001e 7B62     		str	r3, [r7, #36]
 313:Source\FilteringFunctions/arm_fir_q7.c ****   q7_t *px, *pb;                                 /* Temporary pointers to state and coeff */
 314:Source\FilteringFunctions/arm_fir_q7.c ****   q31_t acc = 0;                                 /* Accumlator */
  52              		.loc 1 314 0
  53 0020 0023     		mov	r3, #0
  54 0022 3B63     		str	r3, [r7, #48]
 315:Source\FilteringFunctions/arm_fir_q7.c ****   q7_t *pStateCurnt;                             /* Points to the current sample of the state */
 316:Source\FilteringFunctions/arm_fir_q7.c **** 
 317:Source\FilteringFunctions/arm_fir_q7.c **** 
 318:Source\FilteringFunctions/arm_fir_q7.c ****   /* S->pState points to state array which contains previous frame (numTaps - 1) samples */
 319:Source\FilteringFunctions/arm_fir_q7.c ****   /* pStateCurnt points to the location where the new input data should be written */
 320:Source\FilteringFunctions/arm_fir_q7.c ****   pStateCurnt = S->pState + (numTaps - 1u);
  55              		.loc 1 320 0
  56 0024 FB68     		ldr	r3, [r7, #12]
  57 0026 5A68     		ldr	r2, [r3, #4]
  58 0028 BB6A     		ldr	r3, [r7, #40]
  59 002a 013B     		sub	r3, r3, #1
  60 002c D318     		add	r3, r2, r3
  61 002e FB62     		str	r3, [r7, #44]
 321:Source\FilteringFunctions/arm_fir_q7.c **** 
 322:Source\FilteringFunctions/arm_fir_q7.c ****   /* Initialize blkCnt with blockSize */
 323:Source\FilteringFunctions/arm_fir_q7.c ****   blkCnt = blockSize;
  62              		.loc 1 323 0
  63 0030 3B68     		ldr	r3, [r7]
  64 0032 3B64     		str	r3, [r7, #64]
 324:Source\FilteringFunctions/arm_fir_q7.c **** 
 325:Source\FilteringFunctions/arm_fir_q7.c ****   /* Perform filtering upto BlockSize - BlockSize%4  */
 326:Source\FilteringFunctions/arm_fir_q7.c ****   while (blkCnt > 0u)
  65              		.loc 1 326 0
  66 0034 5DE0     		b	.L2
  67              	.L11:
 327:Source\FilteringFunctions/arm_fir_q7.c ****   {
 328:Source\FilteringFunctions/arm_fir_q7.c ****     /* Copy one sample at a time into state buffer */
 329:Source\FilteringFunctions/arm_fir_q7.c ****     *pStateCurnt++ = *pSrc++;
  68              		.loc 1 329 0
  69 0036 FB6A     		ldr	r3, [r7, #44]
  70 0038 5A1C     		add	r2, r3, #1
ARM GAS  C:\Users\fneves\AppData\Local\Temp\ccwdqe5r.s 			page 8


  71 003a FA62     		str	r2, [r7, #44]
  72 003c BA68     		ldr	r2, [r7, #8]
  73 003e 511C     		add	r1, r2, #1
  74 0040 B960     		str	r1, [r7, #8]
  75 0042 1278     		ldrb	r2, [r2]
  76 0044 1A70     		strb	r2, [r3]
 330:Source\FilteringFunctions/arm_fir_q7.c **** 
 331:Source\FilteringFunctions/arm_fir_q7.c ****     /* Set accumulator to zero */
 332:Source\FilteringFunctions/arm_fir_q7.c ****     acc = 0;
  77              		.loc 1 332 0
  78 0046 0023     		mov	r3, #0
  79 0048 3B63     		str	r3, [r7, #48]
 333:Source\FilteringFunctions/arm_fir_q7.c **** 
 334:Source\FilteringFunctions/arm_fir_q7.c ****     /* Initialize state pointer of type q7 */
 335:Source\FilteringFunctions/arm_fir_q7.c ****     px = pState;
  80              		.loc 1 335 0
  81 004a FB6B     		ldr	r3, [r7, #60]
  82 004c BB63     		str	r3, [r7, #56]
 336:Source\FilteringFunctions/arm_fir_q7.c **** 
 337:Source\FilteringFunctions/arm_fir_q7.c ****     /* Initialize coeff pointer of type q7 */
 338:Source\FilteringFunctions/arm_fir_q7.c ****     pb = pCoeffs;
  83              		.loc 1 338 0
  84 004e 7B6A     		ldr	r3, [r7, #36]
  85 0050 7B63     		str	r3, [r7, #52]
 339:Source\FilteringFunctions/arm_fir_q7.c **** 
 340:Source\FilteringFunctions/arm_fir_q7.c **** 
 341:Source\FilteringFunctions/arm_fir_q7.c ****     i = numTaps;
  86              		.loc 1 341 0
  87 0052 BB6A     		ldr	r3, [r7, #40]
  88 0054 7B64     		str	r3, [r7, #68]
 342:Source\FilteringFunctions/arm_fir_q7.c **** 
 343:Source\FilteringFunctions/arm_fir_q7.c ****     while (i > 0u)
  89              		.loc 1 343 0
  90 0056 10E0     		b	.L3
  91              	.L4:
 344:Source\FilteringFunctions/arm_fir_q7.c ****     {
 345:Source\FilteringFunctions/arm_fir_q7.c ****       /* acc =  b[numTaps-1] * x[n-numTaps-1] + b[numTaps-2] * x[n-numTaps-2] + b[numTaps-3] * x[n-
 346:Source\FilteringFunctions/arm_fir_q7.c ****       acc += (q15_t) * px++ * *pb++;
  92              		.loc 1 346 0
  93 0058 BB6B     		ldr	r3, [r7, #56]
  94 005a 5A1C     		add	r2, r3, #1
  95 005c BA63     		str	r2, [r7, #56]
  96 005e 1B78     		ldrb	r3, [r3]
  97 0060 5AB2     		sxtb	r2, r3
  98 0062 7B6B     		ldr	r3, [r7, #52]
  99 0064 591C     		add	r1, r3, #1
 100 0066 7963     		str	r1, [r7, #52]
 101 0068 1B78     		ldrb	r3, [r3]
 102 006a 5BB2     		sxtb	r3, r3
 103 006c 5343     		mul	r3, r2
 104 006e 3A6B     		ldr	r2, [r7, #48]
 105 0070 D318     		add	r3, r2, r3
 106 0072 3B63     		str	r3, [r7, #48]
 347:Source\FilteringFunctions/arm_fir_q7.c ****       i--;
 107              		.loc 1 347 0
 108 0074 7B6C     		ldr	r3, [r7, #68]
 109 0076 013B     		sub	r3, r3, #1
ARM GAS  C:\Users\fneves\AppData\Local\Temp\ccwdqe5r.s 			page 9


 110 0078 7B64     		str	r3, [r7, #68]
 111              	.L3:
 343:Source\FilteringFunctions/arm_fir_q7.c ****     {
 112              		.loc 1 343 0
 113 007a 7B6C     		ldr	r3, [r7, #68]
 114 007c 002B     		cmp	r3, #0
 115 007e EBD1     		bne	.L4
 348:Source\FilteringFunctions/arm_fir_q7.c ****     }
 349:Source\FilteringFunctions/arm_fir_q7.c **** 
 350:Source\FilteringFunctions/arm_fir_q7.c ****     /* Store the 1.7 format filter output in destination buffer */
 351:Source\FilteringFunctions/arm_fir_q7.c ****     *pDst++ = (q7_t) __SSAT((acc >> 7), 8);
 116              		.loc 1 351 0
 117 0080 7B68     		ldr	r3, [r7, #4]
 118 0082 5A1C     		add	r2, r3, #1
 119 0084 7A60     		str	r2, [r7, #4]
 120 0086 3A6B     		ldr	r2, [r7, #48]
 121 0088 D211     		asr	r2, r2, #7
 122 008a 3A62     		str	r2, [r7, #32]
 123 008c 0822     		mov	r2, #8
 124 008e FA61     		str	r2, [r7, #28]
 125              	.LBB4:
 126              	.LBB5:
 127              		.file 2 ".\\Include/arm_math.h"
   1:.\Include/arm_math.h **** /* ----------------------------------------------------------------------
   2:.\Include/arm_math.h ****  * Project:      CMSIS DSP Library
   3:.\Include/arm_math.h ****  * Title:        arm_math.h
   4:.\Include/arm_math.h ****  * Description:  Public header file for CMSIS DSP Library
   5:.\Include/arm_math.h ****  *
   6:.\Include/arm_math.h ****  * $Date:        27. January 2017
   7:.\Include/arm_math.h ****  * $Revision:    V.1.5.1
   8:.\Include/arm_math.h ****  *
   9:.\Include/arm_math.h ****  * Target Processor: Cortex-M cores
  10:.\Include/arm_math.h ****  * -------------------------------------------------------------------- */
  11:.\Include/arm_math.h **** /*
  12:.\Include/arm_math.h ****  * Copyright (C) 2010-2017 ARM Limited or its affiliates. All rights reserved.
  13:.\Include/arm_math.h ****  *
  14:.\Include/arm_math.h ****  * SPDX-License-Identifier: Apache-2.0
  15:.\Include/arm_math.h ****  *
  16:.\Include/arm_math.h ****  * Licensed under the Apache License, Version 2.0 (the License); you may
  17:.\Include/arm_math.h ****  * not use this file except in compliance with the License.
  18:.\Include/arm_math.h ****  * You may obtain a copy of the License at
  19:.\Include/arm_math.h ****  *
  20:.\Include/arm_math.h ****  * www.apache.org/licenses/LICENSE-2.0
  21:.\Include/arm_math.h ****  *
  22:.\Include/arm_math.h ****  * Unless required by applicable law or agreed to in writing, software
  23:.\Include/arm_math.h ****  * distributed under the License is distributed on an AS IS BASIS, WITHOUT
  24:.\Include/arm_math.h ****  * WARRANTIES OR CONDITIONS OF ANY KIND, either express or implied.
  25:.\Include/arm_math.h ****  * See the License for the specific language governing permissions and
  26:.\Include/arm_math.h ****  * limitations under the License.
  27:.\Include/arm_math.h ****  */
  28:.\Include/arm_math.h **** 
  29:.\Include/arm_math.h **** /**
  30:.\Include/arm_math.h ****    \mainpage CMSIS DSP Software Library
  31:.\Include/arm_math.h ****    *
  32:.\Include/arm_math.h ****    * Introduction
  33:.\Include/arm_math.h ****    * ------------
  34:.\Include/arm_math.h ****    *
ARM GAS  C:\Users\fneves\AppData\Local\Temp\ccwdqe5r.s 			page 10


  35:.\Include/arm_math.h ****    * This user manual describes the CMSIS DSP software library,
  36:.\Include/arm_math.h ****    * a suite of common signal processing functions for use on Cortex-M processor based devices.
  37:.\Include/arm_math.h ****    *
  38:.\Include/arm_math.h ****    * The library is divided into a number of functions each covering a specific category:
  39:.\Include/arm_math.h ****    * - Basic math functions
  40:.\Include/arm_math.h ****    * - Fast math functions
  41:.\Include/arm_math.h ****    * - Complex math functions
  42:.\Include/arm_math.h ****    * - Filters
  43:.\Include/arm_math.h ****    * - Matrix functions
  44:.\Include/arm_math.h ****    * - Transforms
  45:.\Include/arm_math.h ****    * - Motor control functions
  46:.\Include/arm_math.h ****    * - Statistical functions
  47:.\Include/arm_math.h ****    * - Support functions
  48:.\Include/arm_math.h ****    * - Interpolation functions
  49:.\Include/arm_math.h ****    *
  50:.\Include/arm_math.h ****    * The library has separate functions for operating on 8-bit integers, 16-bit integers,
  51:.\Include/arm_math.h ****    * 32-bit integer and 32-bit floating-point values.
  52:.\Include/arm_math.h ****    *
  53:.\Include/arm_math.h ****    * Using the Library
  54:.\Include/arm_math.h ****    * ------------
  55:.\Include/arm_math.h ****    *
  56:.\Include/arm_math.h ****    * The library installer contains prebuilt versions of the libraries in the <code>Lib</code> fold
  57:.\Include/arm_math.h ****    * - arm_cortexM7lfdp_math.lib (Cortex-M7, Little endian, Double Precision Floating Point Unit)
  58:.\Include/arm_math.h ****    * - arm_cortexM7bfdp_math.lib (Cortex-M7, Big endian, Double Precision Floating Point Unit)
  59:.\Include/arm_math.h ****    * - arm_cortexM7lfsp_math.lib (Cortex-M7, Little endian, Single Precision Floating Point Unit)
  60:.\Include/arm_math.h ****    * - arm_cortexM7bfsp_math.lib (Cortex-M7, Big endian and Single Precision Floating Point Unit on
  61:.\Include/arm_math.h ****    * - arm_cortexM7l_math.lib (Cortex-M7, Little endian)
  62:.\Include/arm_math.h ****    * - arm_cortexM7b_math.lib (Cortex-M7, Big endian)
  63:.\Include/arm_math.h ****    * - arm_cortexM4lf_math.lib (Cortex-M4, Little endian, Floating Point Unit)
  64:.\Include/arm_math.h ****    * - arm_cortexM4bf_math.lib (Cortex-M4, Big endian, Floating Point Unit)
  65:.\Include/arm_math.h ****    * - arm_cortexM4l_math.lib (Cortex-M4, Little endian)
  66:.\Include/arm_math.h ****    * - arm_cortexM4b_math.lib (Cortex-M4, Big endian)
  67:.\Include/arm_math.h ****    * - arm_cortexM3l_math.lib (Cortex-M3, Little endian)
  68:.\Include/arm_math.h ****    * - arm_cortexM3b_math.lib (Cortex-M3, Big endian)
  69:.\Include/arm_math.h ****    * - arm_cortexM0l_math.lib (Cortex-M0 / Cortex-M0+, Little endian)
  70:.\Include/arm_math.h ****    * - arm_cortexM0b_math.lib (Cortex-M0 / Cortex-M0+, Big endian)
  71:.\Include/arm_math.h ****    * - arm_ARMv8MBLl_math.lib (ARMv8M Baseline, Little endian)
  72:.\Include/arm_math.h ****    * - arm_ARMv8MMLl_math.lib (ARMv8M Mainline, Little endian)
  73:.\Include/arm_math.h ****    * - arm_ARMv8MMLlfsp_math.lib (ARMv8M Mainline, Little endian, Single Precision Floating Point U
  74:.\Include/arm_math.h ****    * - arm_ARMv8MMLld_math.lib (ARMv8M Mainline, Little endian, DSP instructions)
  75:.\Include/arm_math.h ****    * - arm_ARMv8MMLldfsp_math.lib (ARMv8M Mainline, Little endian, DSP instructions, Single Precisi
  76:.\Include/arm_math.h ****    *
  77:.\Include/arm_math.h ****    * The library functions are declared in the public file <code>arm_math.h</code> which is placed 
  78:.\Include/arm_math.h ****    * Simply include this file and link the appropriate library in the application and begin calling
  79:.\Include/arm_math.h ****    * public header file <code> arm_math.h</code> for Cortex-M cores with little endian and big endi
  80:.\Include/arm_math.h ****    * Define the appropriate pre processor MACRO ARM_MATH_CM7 or ARM_MATH_CM4 or  ARM_MATH_CM3 or
  81:.\Include/arm_math.h ****    * ARM_MATH_CM0 or ARM_MATH_CM0PLUS depending on the target processor in the application.
  82:.\Include/arm_math.h ****    * For ARMv8M cores define pre processor MACRO ARM_MATH_ARMV8MBL or ARM_MATH_ARMV8MML.
  83:.\Include/arm_math.h ****    * Set Pre processor MACRO __DSP_PRESENT if ARMv8M Mainline core supports DSP instructions.
  84:.\Include/arm_math.h ****    * 
  85:.\Include/arm_math.h ****    *
  86:.\Include/arm_math.h ****    * Examples
  87:.\Include/arm_math.h ****    * --------
  88:.\Include/arm_math.h ****    *
  89:.\Include/arm_math.h ****    * The library ships with a number of examples which demonstrate how to use the library functions
  90:.\Include/arm_math.h ****    *
  91:.\Include/arm_math.h ****    * Toolchain Support
ARM GAS  C:\Users\fneves\AppData\Local\Temp\ccwdqe5r.s 			page 11


  92:.\Include/arm_math.h ****    * ------------
  93:.\Include/arm_math.h ****    *
  94:.\Include/arm_math.h ****    * The library has been developed and tested with MDK-ARM version 5.14.0.0
  95:.\Include/arm_math.h ****    * The library is being tested in GCC and IAR toolchains and updates on this activity will be mad
  96:.\Include/arm_math.h ****    *
  97:.\Include/arm_math.h ****    * Building the Library
  98:.\Include/arm_math.h ****    * ------------
  99:.\Include/arm_math.h ****    *
 100:.\Include/arm_math.h ****    * The library installer contains a project file to re build libraries on MDK-ARM Tool chain in t
 101:.\Include/arm_math.h ****    * - arm_cortexM_math.uvprojx
 102:.\Include/arm_math.h ****    *
 103:.\Include/arm_math.h ****    *
 104:.\Include/arm_math.h ****    * The libraries can be built by opening the arm_cortexM_math.uvprojx project in MDK-ARM, selecti
 105:.\Include/arm_math.h ****    *
 106:.\Include/arm_math.h ****    * Pre-processor Macros
 107:.\Include/arm_math.h ****    * ------------
 108:.\Include/arm_math.h ****    *
 109:.\Include/arm_math.h ****    * Each library project have differant pre-processor macros.
 110:.\Include/arm_math.h ****    *
 111:.\Include/arm_math.h ****    * - UNALIGNED_SUPPORT_DISABLE:
 112:.\Include/arm_math.h ****    *
 113:.\Include/arm_math.h ****    * Define macro UNALIGNED_SUPPORT_DISABLE, If the silicon does not support unaligned memory acces
 114:.\Include/arm_math.h ****    *
 115:.\Include/arm_math.h ****    * - ARM_MATH_BIG_ENDIAN:
 116:.\Include/arm_math.h ****    *
 117:.\Include/arm_math.h ****    * Define macro ARM_MATH_BIG_ENDIAN to build the library for big endian targets. By default libra
 118:.\Include/arm_math.h ****    *
 119:.\Include/arm_math.h ****    * - ARM_MATH_MATRIX_CHECK:
 120:.\Include/arm_math.h ****    *
 121:.\Include/arm_math.h ****    * Define macro ARM_MATH_MATRIX_CHECK for checking on the input and output sizes of matrices
 122:.\Include/arm_math.h ****    *
 123:.\Include/arm_math.h ****    * - ARM_MATH_ROUNDING:
 124:.\Include/arm_math.h ****    *
 125:.\Include/arm_math.h ****    * Define macro ARM_MATH_ROUNDING for rounding on support functions
 126:.\Include/arm_math.h ****    *
 127:.\Include/arm_math.h ****    * - ARM_MATH_CMx:
 128:.\Include/arm_math.h ****    *
 129:.\Include/arm_math.h ****    * Define macro ARM_MATH_CM4 for building the library on Cortex-M4 target, ARM_MATH_CM3 for build
 130:.\Include/arm_math.h ****    * and ARM_MATH_CM0 for building library on Cortex-M0 target, ARM_MATH_CM0PLUS for building libra
 131:.\Include/arm_math.h ****    * ARM_MATH_CM7 for building the library on cortex-M7.
 132:.\Include/arm_math.h ****    *
 133:.\Include/arm_math.h ****    * - ARM_MATH_ARMV8MxL:
 134:.\Include/arm_math.h ****    *
 135:.\Include/arm_math.h ****    * Define macro ARM_MATH_ARMV8MBL for building the library on ARMv8M Baseline target, ARM_MATH_AR
 136:.\Include/arm_math.h ****    * on ARMv8M Mainline target.
 137:.\Include/arm_math.h ****    *
 138:.\Include/arm_math.h ****    * - __FPU_PRESENT:
 139:.\Include/arm_math.h ****    *
 140:.\Include/arm_math.h ****    * Initialize macro __FPU_PRESENT = 1 when building on FPU supported Targets. Enable this macro f
 141:.\Include/arm_math.h ****    *
 142:.\Include/arm_math.h ****    * - __DSP_PRESENT:
 143:.\Include/arm_math.h ****    *
 144:.\Include/arm_math.h ****    * Initialize macro __DSP_PRESENT = 1 when ARMv8M Mainline core supports DSP instructions.
 145:.\Include/arm_math.h ****    *
 146:.\Include/arm_math.h ****    * <hr>
 147:.\Include/arm_math.h ****    * CMSIS-DSP in ARM::CMSIS Pack
 148:.\Include/arm_math.h ****    * -----------------------------
ARM GAS  C:\Users\fneves\AppData\Local\Temp\ccwdqe5r.s 			page 12


 149:.\Include/arm_math.h ****    *
 150:.\Include/arm_math.h ****    * The following files relevant to CMSIS-DSP are present in the <b>ARM::CMSIS</b> Pack directorie
 151:.\Include/arm_math.h ****    * |File/Folder                   |Content                                                       
 152:.\Include/arm_math.h ****    * |------------------------------|--------------------------------------------------------------
 153:.\Include/arm_math.h ****    * |\b CMSIS\\Documentation\\DSP  | This documentation                                           
 154:.\Include/arm_math.h ****    * |\b CMSIS\\DSP_Lib             | Software license agreement (license.txt)                     
 155:.\Include/arm_math.h ****    * |\b CMSIS\\DSP_Lib\\Examples   | Example projects demonstrating the usage of the library funct
 156:.\Include/arm_math.h ****    * |\b CMSIS\\DSP_Lib\\Source     | Source files for rebuilding the library                      
 157:.\Include/arm_math.h ****    *
 158:.\Include/arm_math.h ****    * <hr>
 159:.\Include/arm_math.h ****    * Revision History of CMSIS-DSP
 160:.\Include/arm_math.h ****    * ------------
 161:.\Include/arm_math.h ****    * Please refer to \ref ChangeLog_pg.
 162:.\Include/arm_math.h ****    *
 163:.\Include/arm_math.h ****    * Copyright Notice
 164:.\Include/arm_math.h ****    * ------------
 165:.\Include/arm_math.h ****    *
 166:.\Include/arm_math.h ****    * Copyright (C) 2010-2015 ARM Limited. All rights reserved.
 167:.\Include/arm_math.h ****    */
 168:.\Include/arm_math.h **** 
 169:.\Include/arm_math.h **** 
 170:.\Include/arm_math.h **** /**
 171:.\Include/arm_math.h ****  * @defgroup groupMath Basic Math Functions
 172:.\Include/arm_math.h ****  */
 173:.\Include/arm_math.h **** 
 174:.\Include/arm_math.h **** /**
 175:.\Include/arm_math.h ****  * @defgroup groupFastMath Fast Math Functions
 176:.\Include/arm_math.h ****  * This set of functions provides a fast approximation to sine, cosine, and square root.
 177:.\Include/arm_math.h ****  * As compared to most of the other functions in the CMSIS math library, the fast math functions
 178:.\Include/arm_math.h ****  * operate on individual values and not arrays.
 179:.\Include/arm_math.h ****  * There are separate functions for Q15, Q31, and floating-point data.
 180:.\Include/arm_math.h ****  *
 181:.\Include/arm_math.h ****  */
 182:.\Include/arm_math.h **** 
 183:.\Include/arm_math.h **** /**
 184:.\Include/arm_math.h ****  * @defgroup groupCmplxMath Complex Math Functions
 185:.\Include/arm_math.h ****  * This set of functions operates on complex data vectors.
 186:.\Include/arm_math.h ****  * The data in the complex arrays is stored in an interleaved fashion
 187:.\Include/arm_math.h ****  * (real, imag, real, imag, ...).
 188:.\Include/arm_math.h ****  * In the API functions, the number of samples in a complex array refers
 189:.\Include/arm_math.h ****  * to the number of complex values; the array contains twice this number of
 190:.\Include/arm_math.h ****  * real values.
 191:.\Include/arm_math.h ****  */
 192:.\Include/arm_math.h **** 
 193:.\Include/arm_math.h **** /**
 194:.\Include/arm_math.h ****  * @defgroup groupFilters Filtering Functions
 195:.\Include/arm_math.h ****  */
 196:.\Include/arm_math.h **** 
 197:.\Include/arm_math.h **** /**
 198:.\Include/arm_math.h ****  * @defgroup groupMatrix Matrix Functions
 199:.\Include/arm_math.h ****  *
 200:.\Include/arm_math.h ****  * This set of functions provides basic matrix math operations.
 201:.\Include/arm_math.h ****  * The functions operate on matrix data structures.  For example,
 202:.\Include/arm_math.h ****  * the type
 203:.\Include/arm_math.h ****  * definition for the floating-point matrix structure is shown
 204:.\Include/arm_math.h ****  * below:
 205:.\Include/arm_math.h ****  * <pre>
ARM GAS  C:\Users\fneves\AppData\Local\Temp\ccwdqe5r.s 			page 13


 206:.\Include/arm_math.h ****  *     typedef struct
 207:.\Include/arm_math.h ****  *     {
 208:.\Include/arm_math.h ****  *       uint16_t numRows;     // number of rows of the matrix.
 209:.\Include/arm_math.h ****  *       uint16_t numCols;     // number of columns of the matrix.
 210:.\Include/arm_math.h ****  *       float32_t *pData;     // points to the data of the matrix.
 211:.\Include/arm_math.h ****  *     } arm_matrix_instance_f32;
 212:.\Include/arm_math.h ****  * </pre>
 213:.\Include/arm_math.h ****  * There are similar definitions for Q15 and Q31 data types.
 214:.\Include/arm_math.h ****  *
 215:.\Include/arm_math.h ****  * The structure specifies the size of the matrix and then points to
 216:.\Include/arm_math.h ****  * an array of data.  The array is of size <code>numRows X numCols</code>
 217:.\Include/arm_math.h ****  * and the values are arranged in row order.  That is, the
 218:.\Include/arm_math.h ****  * matrix element (i, j) is stored at:
 219:.\Include/arm_math.h ****  * <pre>
 220:.\Include/arm_math.h ****  *     pData[i*numCols + j]
 221:.\Include/arm_math.h ****  * </pre>
 222:.\Include/arm_math.h ****  *
 223:.\Include/arm_math.h ****  * \par Init Functions
 224:.\Include/arm_math.h ****  * There is an associated initialization function for each type of matrix
 225:.\Include/arm_math.h ****  * data structure.
 226:.\Include/arm_math.h ****  * The initialization function sets the values of the internal structure fields.
 227:.\Include/arm_math.h ****  * Refer to the function <code>arm_mat_init_f32()</code>, <code>arm_mat_init_q31()</code>
 228:.\Include/arm_math.h ****  * and <code>arm_mat_init_q15()</code> for floating-point, Q31 and Q15 types,  respectively.
 229:.\Include/arm_math.h ****  *
 230:.\Include/arm_math.h ****  * \par
 231:.\Include/arm_math.h ****  * Use of the initialization function is optional. However, if initialization function is used
 232:.\Include/arm_math.h ****  * then the instance structure cannot be placed into a const data section.
 233:.\Include/arm_math.h ****  * To place the instance structure in a const data
 234:.\Include/arm_math.h ****  * section, manually initialize the data structure.  For example:
 235:.\Include/arm_math.h ****  * <pre>
 236:.\Include/arm_math.h ****  * <code>arm_matrix_instance_f32 S = {nRows, nColumns, pData};</code>
 237:.\Include/arm_math.h ****  * <code>arm_matrix_instance_q31 S = {nRows, nColumns, pData};</code>
 238:.\Include/arm_math.h ****  * <code>arm_matrix_instance_q15 S = {nRows, nColumns, pData};</code>
 239:.\Include/arm_math.h ****  * </pre>
 240:.\Include/arm_math.h ****  * where <code>nRows</code> specifies the number of rows, <code>nColumns</code>
 241:.\Include/arm_math.h ****  * specifies the number of columns, and <code>pData</code> points to the
 242:.\Include/arm_math.h ****  * data array.
 243:.\Include/arm_math.h ****  *
 244:.\Include/arm_math.h ****  * \par Size Checking
 245:.\Include/arm_math.h ****  * By default all of the matrix functions perform size checking on the input and
 246:.\Include/arm_math.h ****  * output matrices.  For example, the matrix addition function verifies that the
 247:.\Include/arm_math.h ****  * two input matrices and the output matrix all have the same number of rows and
 248:.\Include/arm_math.h ****  * columns.  If the size check fails the functions return:
 249:.\Include/arm_math.h ****  * <pre>
 250:.\Include/arm_math.h ****  *     ARM_MATH_SIZE_MISMATCH
 251:.\Include/arm_math.h ****  * </pre>
 252:.\Include/arm_math.h ****  * Otherwise the functions return
 253:.\Include/arm_math.h ****  * <pre>
 254:.\Include/arm_math.h ****  *     ARM_MATH_SUCCESS
 255:.\Include/arm_math.h ****  * </pre>
 256:.\Include/arm_math.h ****  * There is some overhead associated with this matrix size checking.
 257:.\Include/arm_math.h ****  * The matrix size checking is enabled via the \#define
 258:.\Include/arm_math.h ****  * <pre>
 259:.\Include/arm_math.h ****  *     ARM_MATH_MATRIX_CHECK
 260:.\Include/arm_math.h ****  * </pre>
 261:.\Include/arm_math.h ****  * within the library project settings.  By default this macro is defined
 262:.\Include/arm_math.h ****  * and size checking is enabled.  By changing the project settings and
ARM GAS  C:\Users\fneves\AppData\Local\Temp\ccwdqe5r.s 			page 14


 263:.\Include/arm_math.h ****  * undefining this macro size checking is eliminated and the functions
 264:.\Include/arm_math.h ****  * run a bit faster.  With size checking disabled the functions always
 265:.\Include/arm_math.h ****  * return <code>ARM_MATH_SUCCESS</code>.
 266:.\Include/arm_math.h ****  */
 267:.\Include/arm_math.h **** 
 268:.\Include/arm_math.h **** /**
 269:.\Include/arm_math.h ****  * @defgroup groupTransforms Transform Functions
 270:.\Include/arm_math.h ****  */
 271:.\Include/arm_math.h **** 
 272:.\Include/arm_math.h **** /**
 273:.\Include/arm_math.h ****  * @defgroup groupController Controller Functions
 274:.\Include/arm_math.h ****  */
 275:.\Include/arm_math.h **** 
 276:.\Include/arm_math.h **** /**
 277:.\Include/arm_math.h ****  * @defgroup groupStats Statistics Functions
 278:.\Include/arm_math.h ****  */
 279:.\Include/arm_math.h **** /**
 280:.\Include/arm_math.h ****  * @defgroup groupSupport Support Functions
 281:.\Include/arm_math.h ****  */
 282:.\Include/arm_math.h **** 
 283:.\Include/arm_math.h **** /**
 284:.\Include/arm_math.h ****  * @defgroup groupInterpolation Interpolation Functions
 285:.\Include/arm_math.h ****  * These functions perform 1- and 2-dimensional interpolation of data.
 286:.\Include/arm_math.h ****  * Linear interpolation is used for 1-dimensional data and
 287:.\Include/arm_math.h ****  * bilinear interpolation is used for 2-dimensional data.
 288:.\Include/arm_math.h ****  */
 289:.\Include/arm_math.h **** 
 290:.\Include/arm_math.h **** /**
 291:.\Include/arm_math.h ****  * @defgroup groupExamples Examples
 292:.\Include/arm_math.h ****  */
 293:.\Include/arm_math.h **** #ifndef _ARM_MATH_H
 294:.\Include/arm_math.h **** #define _ARM_MATH_H
 295:.\Include/arm_math.h **** 
 296:.\Include/arm_math.h **** /* ignore some GCC warnings */
 297:.\Include/arm_math.h **** #if defined ( __GNUC__ )
 298:.\Include/arm_math.h **** #pragma GCC diagnostic push
 299:.\Include/arm_math.h **** #pragma GCC diagnostic ignored "-Wsign-conversion"
 300:.\Include/arm_math.h **** #pragma GCC diagnostic ignored "-Wconversion"
 301:.\Include/arm_math.h **** #pragma GCC diagnostic ignored "-Wunused-parameter"
 302:.\Include/arm_math.h **** #endif
 303:.\Include/arm_math.h **** 
 304:.\Include/arm_math.h **** #define __CMSIS_GENERIC         /* disable NVIC and Systick functions */
 305:.\Include/arm_math.h **** 
 306:.\Include/arm_math.h **** #if defined(ARM_MATH_CM7)
 307:.\Include/arm_math.h ****   #include "core_cm7.h"
 308:.\Include/arm_math.h ****   #define ARM_MATH_DSP
 309:.\Include/arm_math.h **** #elif defined (ARM_MATH_CM4)
 310:.\Include/arm_math.h ****   #include "core_cm4.h"
 311:.\Include/arm_math.h ****   #define ARM_MATH_DSP
 312:.\Include/arm_math.h **** #elif defined (ARM_MATH_CM3)
 313:.\Include/arm_math.h ****   #include "core_cm3.h"
 314:.\Include/arm_math.h **** #elif defined (ARM_MATH_CM0)
 315:.\Include/arm_math.h ****   #include "core_cm0.h"
 316:.\Include/arm_math.h ****   #define ARM_MATH_CM0_FAMILY
 317:.\Include/arm_math.h **** #elif defined (ARM_MATH_CM0PLUS)
 318:.\Include/arm_math.h ****   #include "core_cm0plus.h"
 319:.\Include/arm_math.h ****   #define ARM_MATH_CM0_FAMILY
ARM GAS  C:\Users\fneves\AppData\Local\Temp\ccwdqe5r.s 			page 15


 320:.\Include/arm_math.h **** #elif defined (ARM_MATH_ARMV8MBL)
 321:.\Include/arm_math.h ****   #include "core_armv8mbl.h"
 322:.\Include/arm_math.h ****   #define ARM_MATH_CM0_FAMILY
 323:.\Include/arm_math.h **** #elif defined (ARM_MATH_ARMV8MML)
 324:.\Include/arm_math.h ****   #include "core_armv8mml.h"
 325:.\Include/arm_math.h ****   #if (defined (__DSP_PRESENT) && (__DSP_PRESENT == 1))
 326:.\Include/arm_math.h ****     #define ARM_MATH_DSP
 327:.\Include/arm_math.h ****   #endif
 328:.\Include/arm_math.h **** #else
 329:.\Include/arm_math.h ****   #error "Define according the used Cortex core ARM_MATH_CM7, ARM_MATH_CM4, ARM_MATH_CM3, ARM_MATH_
 330:.\Include/arm_math.h **** #endif
 331:.\Include/arm_math.h **** 
 332:.\Include/arm_math.h **** #undef  __CMSIS_GENERIC         /* enable NVIC and Systick functions */
 333:.\Include/arm_math.h **** #include "string.h"
 334:.\Include/arm_math.h **** #include "math.h"
 335:.\Include/arm_math.h **** #ifdef   __cplusplus
 336:.\Include/arm_math.h **** extern "C"
 337:.\Include/arm_math.h **** {
 338:.\Include/arm_math.h **** #endif
 339:.\Include/arm_math.h **** 
 340:.\Include/arm_math.h **** 
 341:.\Include/arm_math.h ****   /**
 342:.\Include/arm_math.h ****    * @brief Macros required for reciprocal calculation in Normalized LMS
 343:.\Include/arm_math.h ****    */
 344:.\Include/arm_math.h **** 
 345:.\Include/arm_math.h **** #define DELTA_Q31          (0x100)
 346:.\Include/arm_math.h **** #define DELTA_Q15          0x5
 347:.\Include/arm_math.h **** #define INDEX_MASK         0x0000003F
 348:.\Include/arm_math.h **** #ifndef PI
 349:.\Include/arm_math.h ****   #define PI               3.14159265358979f
 350:.\Include/arm_math.h **** #endif
 351:.\Include/arm_math.h **** 
 352:.\Include/arm_math.h ****   /**
 353:.\Include/arm_math.h ****    * @brief Macros required for SINE and COSINE Fast math approximations
 354:.\Include/arm_math.h ****    */
 355:.\Include/arm_math.h **** 
 356:.\Include/arm_math.h **** #define FAST_MATH_TABLE_SIZE  512
 357:.\Include/arm_math.h **** #define FAST_MATH_Q31_SHIFT   (32 - 10)
 358:.\Include/arm_math.h **** #define FAST_MATH_Q15_SHIFT   (16 - 10)
 359:.\Include/arm_math.h **** #define CONTROLLER_Q31_SHIFT  (32 - 9)
 360:.\Include/arm_math.h **** #define TABLE_SPACING_Q31     0x400000
 361:.\Include/arm_math.h **** #define TABLE_SPACING_Q15     0x80
 362:.\Include/arm_math.h **** 
 363:.\Include/arm_math.h ****   /**
 364:.\Include/arm_math.h ****    * @brief Macros required for SINE and COSINE Controller functions
 365:.\Include/arm_math.h ****    */
 366:.\Include/arm_math.h ****   /* 1.31(q31) Fixed value of 2/360 */
 367:.\Include/arm_math.h ****   /* -1 to +1 is divided into 360 values so total spacing is (2/360) */
 368:.\Include/arm_math.h **** #define INPUT_SPACING         0xB60B61
 369:.\Include/arm_math.h **** 
 370:.\Include/arm_math.h ****   /**
 371:.\Include/arm_math.h ****    * @brief Macro for Unaligned Support
 372:.\Include/arm_math.h ****    */
 373:.\Include/arm_math.h **** #ifndef UNALIGNED_SUPPORT_DISABLE
 374:.\Include/arm_math.h ****     #define ALIGN4
 375:.\Include/arm_math.h **** #else
 376:.\Include/arm_math.h ****   #if defined  (__GNUC__)
ARM GAS  C:\Users\fneves\AppData\Local\Temp\ccwdqe5r.s 			page 16


 377:.\Include/arm_math.h ****     #define ALIGN4 __attribute__((aligned(4)))
 378:.\Include/arm_math.h ****   #else
 379:.\Include/arm_math.h ****     #define ALIGN4 __align(4)
 380:.\Include/arm_math.h ****   #endif
 381:.\Include/arm_math.h **** #endif   /* #ifndef UNALIGNED_SUPPORT_DISABLE */
 382:.\Include/arm_math.h **** 
 383:.\Include/arm_math.h ****   /**
 384:.\Include/arm_math.h ****    * @brief Error status returned by some functions in the library.
 385:.\Include/arm_math.h ****    */
 386:.\Include/arm_math.h **** 
 387:.\Include/arm_math.h ****   typedef enum
 388:.\Include/arm_math.h ****   {
 389:.\Include/arm_math.h ****     ARM_MATH_SUCCESS = 0,                /**< No error */
 390:.\Include/arm_math.h ****     ARM_MATH_ARGUMENT_ERROR = -1,        /**< One or more arguments are incorrect */
 391:.\Include/arm_math.h ****     ARM_MATH_LENGTH_ERROR = -2,          /**< Length of data buffer is incorrect */
 392:.\Include/arm_math.h ****     ARM_MATH_SIZE_MISMATCH = -3,         /**< Size of matrices is not compatible with the operation
 393:.\Include/arm_math.h ****     ARM_MATH_NANINF = -4,                /**< Not-a-number (NaN) or infinity is generated */
 394:.\Include/arm_math.h ****     ARM_MATH_SINGULAR = -5,              /**< Generated by matrix inversion if the input matrix is 
 395:.\Include/arm_math.h ****     ARM_MATH_TEST_FAILURE = -6           /**< Test Failed  */
 396:.\Include/arm_math.h ****   } arm_status;
 397:.\Include/arm_math.h **** 
 398:.\Include/arm_math.h ****   /**
 399:.\Include/arm_math.h ****    * @brief 8-bit fractional data type in 1.7 format.
 400:.\Include/arm_math.h ****    */
 401:.\Include/arm_math.h ****   typedef int8_t q7_t;
 402:.\Include/arm_math.h **** 
 403:.\Include/arm_math.h ****   /**
 404:.\Include/arm_math.h ****    * @brief 16-bit fractional data type in 1.15 format.
 405:.\Include/arm_math.h ****    */
 406:.\Include/arm_math.h ****   typedef int16_t q15_t;
 407:.\Include/arm_math.h **** 
 408:.\Include/arm_math.h ****   /**
 409:.\Include/arm_math.h ****    * @brief 32-bit fractional data type in 1.31 format.
 410:.\Include/arm_math.h ****    */
 411:.\Include/arm_math.h ****   typedef int32_t q31_t;
 412:.\Include/arm_math.h **** 
 413:.\Include/arm_math.h ****   /**
 414:.\Include/arm_math.h ****    * @brief 64-bit fractional data type in 1.63 format.
 415:.\Include/arm_math.h ****    */
 416:.\Include/arm_math.h ****   typedef int64_t q63_t;
 417:.\Include/arm_math.h **** 
 418:.\Include/arm_math.h ****   /**
 419:.\Include/arm_math.h ****    * @brief 32-bit floating-point type definition.
 420:.\Include/arm_math.h ****    */
 421:.\Include/arm_math.h ****   typedef float float32_t;
 422:.\Include/arm_math.h **** 
 423:.\Include/arm_math.h ****   /**
 424:.\Include/arm_math.h ****    * @brief 64-bit floating-point type definition.
 425:.\Include/arm_math.h ****    */
 426:.\Include/arm_math.h ****   typedef double float64_t;
 427:.\Include/arm_math.h **** 
 428:.\Include/arm_math.h ****   /**
 429:.\Include/arm_math.h ****    * @brief definition to read/write two 16 bit values.
 430:.\Include/arm_math.h ****    */
 431:.\Include/arm_math.h **** #if   defined ( __CC_ARM )
 432:.\Include/arm_math.h ****   #define __SIMD32_TYPE int32_t __packed
 433:.\Include/arm_math.h ****   #define CMSIS_UNUSED __attribute__((unused))
ARM GAS  C:\Users\fneves\AppData\Local\Temp\ccwdqe5r.s 			page 17


 434:.\Include/arm_math.h ****   #define CMSIS_INLINE __attribute__((always_inline))
 435:.\Include/arm_math.h **** 
 436:.\Include/arm_math.h **** #elif defined ( __ARMCC_VERSION ) && ( __ARMCC_VERSION >= 6010050 )
 437:.\Include/arm_math.h ****   #define __SIMD32_TYPE int32_t
 438:.\Include/arm_math.h ****   #define CMSIS_UNUSED __attribute__((unused))
 439:.\Include/arm_math.h ****   #define CMSIS_INLINE __attribute__((always_inline))
 440:.\Include/arm_math.h **** 
 441:.\Include/arm_math.h **** #elif defined ( __GNUC__ )
 442:.\Include/arm_math.h ****   #define __SIMD32_TYPE int32_t
 443:.\Include/arm_math.h ****   #define CMSIS_UNUSED __attribute__((unused))
 444:.\Include/arm_math.h ****   #define CMSIS_INLINE __attribute__((always_inline))
 445:.\Include/arm_math.h **** 
 446:.\Include/arm_math.h **** #elif defined ( __ICCARM__ )
 447:.\Include/arm_math.h ****   #define __SIMD32_TYPE int32_t __packed
 448:.\Include/arm_math.h ****   #define CMSIS_UNUSED
 449:.\Include/arm_math.h ****   #define CMSIS_INLINE
 450:.\Include/arm_math.h **** 
 451:.\Include/arm_math.h **** #elif defined ( __TI_ARM__ )
 452:.\Include/arm_math.h ****   #define __SIMD32_TYPE int32_t
 453:.\Include/arm_math.h ****   #define CMSIS_UNUSED __attribute__((unused))
 454:.\Include/arm_math.h ****   #define CMSIS_INLINE
 455:.\Include/arm_math.h **** 
 456:.\Include/arm_math.h **** #elif defined ( __CSMC__ )
 457:.\Include/arm_math.h ****   #define __SIMD32_TYPE int32_t
 458:.\Include/arm_math.h ****   #define CMSIS_UNUSED
 459:.\Include/arm_math.h ****   #define CMSIS_INLINE
 460:.\Include/arm_math.h **** 
 461:.\Include/arm_math.h **** #elif defined ( __TASKING__ )
 462:.\Include/arm_math.h ****   #define __SIMD32_TYPE __unaligned int32_t
 463:.\Include/arm_math.h ****   #define CMSIS_UNUSED
 464:.\Include/arm_math.h ****   #define CMSIS_INLINE
 465:.\Include/arm_math.h **** 
 466:.\Include/arm_math.h **** #else
 467:.\Include/arm_math.h ****   #error Unknown compiler
 468:.\Include/arm_math.h **** #endif
 469:.\Include/arm_math.h **** 
 470:.\Include/arm_math.h **** #define __SIMD32(addr)        (*(__SIMD32_TYPE **) & (addr))
 471:.\Include/arm_math.h **** #define __SIMD32_CONST(addr)  ((__SIMD32_TYPE *)(addr))
 472:.\Include/arm_math.h **** #define _SIMD32_OFFSET(addr)  (*(__SIMD32_TYPE *)  (addr))
 473:.\Include/arm_math.h **** #define __SIMD64(addr)        (*(int64_t **) & (addr))
 474:.\Include/arm_math.h **** 
 475:.\Include/arm_math.h **** /* #if defined (ARM_MATH_CM3) || defined (ARM_MATH_CM0_FAMILY) */
 476:.\Include/arm_math.h **** #if !defined (ARM_MATH_DSP)
 477:.\Include/arm_math.h ****   /**
 478:.\Include/arm_math.h ****    * @brief definition to pack two 16 bit values.
 479:.\Include/arm_math.h ****    */
 480:.\Include/arm_math.h **** #define __PKHBT(ARG1, ARG2, ARG3) ( (((int32_t)(ARG1) <<    0) & (int32_t)0x0000FFFF) | \
 481:.\Include/arm_math.h ****                                     (((int32_t)(ARG2) << ARG3) & (int32_t)0xFFFF0000)  )
 482:.\Include/arm_math.h **** #define __PKHTB(ARG1, ARG2, ARG3) ( (((int32_t)(ARG1) <<    0) & (int32_t)0xFFFF0000) | \
 483:.\Include/arm_math.h ****                                     (((int32_t)(ARG2) >> ARG3) & (int32_t)0x0000FFFF)  )
 484:.\Include/arm_math.h **** 
 485:.\Include/arm_math.h **** /* #endif // defined (ARM_MATH_CM3) || defined (ARM_MATH_CM0_FAMILY) */
 486:.\Include/arm_math.h **** #endif /* !defined (ARM_MATH_DSP) */
 487:.\Include/arm_math.h **** 
 488:.\Include/arm_math.h ****    /**
 489:.\Include/arm_math.h ****    * @brief definition to pack four 8 bit values.
 490:.\Include/arm_math.h ****    */
ARM GAS  C:\Users\fneves\AppData\Local\Temp\ccwdqe5r.s 			page 18


 491:.\Include/arm_math.h **** #ifndef ARM_MATH_BIG_ENDIAN
 492:.\Include/arm_math.h **** 
 493:.\Include/arm_math.h **** #define __PACKq7(v0,v1,v2,v3) ( (((int32_t)(v0) <<  0) & (int32_t)0x000000FF) | \
 494:.\Include/arm_math.h ****                                 (((int32_t)(v1) <<  8) & (int32_t)0x0000FF00) | \
 495:.\Include/arm_math.h ****                                 (((int32_t)(v2) << 16) & (int32_t)0x00FF0000) | \
 496:.\Include/arm_math.h ****                                 (((int32_t)(v3) << 24) & (int32_t)0xFF000000)  )
 497:.\Include/arm_math.h **** #else
 498:.\Include/arm_math.h **** 
 499:.\Include/arm_math.h **** #define __PACKq7(v0,v1,v2,v3) ( (((int32_t)(v3) <<  0) & (int32_t)0x000000FF) | \
 500:.\Include/arm_math.h ****                                 (((int32_t)(v2) <<  8) & (int32_t)0x0000FF00) | \
 501:.\Include/arm_math.h ****                                 (((int32_t)(v1) << 16) & (int32_t)0x00FF0000) | \
 502:.\Include/arm_math.h ****                                 (((int32_t)(v0) << 24) & (int32_t)0xFF000000)  )
 503:.\Include/arm_math.h **** 
 504:.\Include/arm_math.h **** #endif
 505:.\Include/arm_math.h **** 
 506:.\Include/arm_math.h **** 
 507:.\Include/arm_math.h ****   /**
 508:.\Include/arm_math.h ****    * @brief Clips Q63 to Q31 values.
 509:.\Include/arm_math.h ****    */
 510:.\Include/arm_math.h ****   CMSIS_INLINE __STATIC_INLINE q31_t clip_q63_to_q31(
 511:.\Include/arm_math.h ****   q63_t x)
 512:.\Include/arm_math.h ****   {
 513:.\Include/arm_math.h ****     return ((q31_t) (x >> 32) != ((q31_t) x >> 31)) ?
 514:.\Include/arm_math.h ****       ((0x7FFFFFFF ^ ((q31_t) (x >> 63)))) : (q31_t) x;
 515:.\Include/arm_math.h ****   }
 516:.\Include/arm_math.h **** 
 517:.\Include/arm_math.h ****   /**
 518:.\Include/arm_math.h ****    * @brief Clips Q63 to Q15 values.
 519:.\Include/arm_math.h ****    */
 520:.\Include/arm_math.h ****   CMSIS_INLINE __STATIC_INLINE q15_t clip_q63_to_q15(
 521:.\Include/arm_math.h ****   q63_t x)
 522:.\Include/arm_math.h ****   {
 523:.\Include/arm_math.h ****     return ((q31_t) (x >> 32) != ((q31_t) x >> 31)) ?
 524:.\Include/arm_math.h ****       ((0x7FFF ^ ((q15_t) (x >> 63)))) : (q15_t) (x >> 15);
 525:.\Include/arm_math.h ****   }
 526:.\Include/arm_math.h **** 
 527:.\Include/arm_math.h ****   /**
 528:.\Include/arm_math.h ****    * @brief Clips Q31 to Q7 values.
 529:.\Include/arm_math.h ****    */
 530:.\Include/arm_math.h ****   CMSIS_INLINE __STATIC_INLINE q7_t clip_q31_to_q7(
 531:.\Include/arm_math.h ****   q31_t x)
 532:.\Include/arm_math.h ****   {
 533:.\Include/arm_math.h ****     return ((q31_t) (x >> 24) != ((q31_t) x >> 23)) ?
 534:.\Include/arm_math.h ****       ((0x7F ^ ((q7_t) (x >> 31)))) : (q7_t) x;
 535:.\Include/arm_math.h ****   }
 536:.\Include/arm_math.h **** 
 537:.\Include/arm_math.h ****   /**
 538:.\Include/arm_math.h ****    * @brief Clips Q31 to Q15 values.
 539:.\Include/arm_math.h ****    */
 540:.\Include/arm_math.h ****   CMSIS_INLINE __STATIC_INLINE q15_t clip_q31_to_q15(
 541:.\Include/arm_math.h ****   q31_t x)
 542:.\Include/arm_math.h ****   {
 543:.\Include/arm_math.h ****     return ((q31_t) (x >> 16) != ((q31_t) x >> 15)) ?
 544:.\Include/arm_math.h ****       ((0x7FFF ^ ((q15_t) (x >> 31)))) : (q15_t) x;
 545:.\Include/arm_math.h ****   }
 546:.\Include/arm_math.h **** 
 547:.\Include/arm_math.h ****   /**
ARM GAS  C:\Users\fneves\AppData\Local\Temp\ccwdqe5r.s 			page 19


 548:.\Include/arm_math.h ****    * @brief Multiplies 32 X 64 and returns 32 bit result in 2.30 format.
 549:.\Include/arm_math.h ****    */
 550:.\Include/arm_math.h **** 
 551:.\Include/arm_math.h ****   CMSIS_INLINE __STATIC_INLINE q63_t mult32x64(
 552:.\Include/arm_math.h ****   q63_t x,
 553:.\Include/arm_math.h ****   q31_t y)
 554:.\Include/arm_math.h ****   {
 555:.\Include/arm_math.h ****     return ((((q63_t) (x & 0x00000000FFFFFFFF) * y) >> 32) +
 556:.\Include/arm_math.h ****             (((q63_t) (x >> 32) * y)));
 557:.\Include/arm_math.h ****   }
 558:.\Include/arm_math.h **** 
 559:.\Include/arm_math.h **** /*
 560:.\Include/arm_math.h ****   #if defined (ARM_MATH_CM0_FAMILY) && defined ( __CC_ARM   )
 561:.\Include/arm_math.h ****   #define __CLZ __clz
 562:.\Include/arm_math.h ****   #endif
 563:.\Include/arm_math.h ****  */
 564:.\Include/arm_math.h **** /* note: function can be removed when all toolchain support __CLZ for Cortex-M0 */
 565:.\Include/arm_math.h **** #if defined (ARM_MATH_CM0_FAMILY) && ((defined (__ICCARM__))  )
 566:.\Include/arm_math.h ****   CMSIS_INLINE __STATIC_INLINE uint32_t __CLZ(
 567:.\Include/arm_math.h ****   q31_t data);
 568:.\Include/arm_math.h **** 
 569:.\Include/arm_math.h ****   CMSIS_INLINE __STATIC_INLINE uint32_t __CLZ(
 570:.\Include/arm_math.h ****   q31_t data)
 571:.\Include/arm_math.h ****   {
 572:.\Include/arm_math.h ****     uint32_t count = 0;
 573:.\Include/arm_math.h ****     uint32_t mask = 0x80000000;
 574:.\Include/arm_math.h **** 
 575:.\Include/arm_math.h ****     while ((data & mask) == 0)
 576:.\Include/arm_math.h ****     {
 577:.\Include/arm_math.h ****       count += 1u;
 578:.\Include/arm_math.h ****       mask = mask >> 1u;
 579:.\Include/arm_math.h ****     }
 580:.\Include/arm_math.h **** 
 581:.\Include/arm_math.h ****     return (count);
 582:.\Include/arm_math.h ****   }
 583:.\Include/arm_math.h **** #endif
 584:.\Include/arm_math.h **** 
 585:.\Include/arm_math.h ****   /**
 586:.\Include/arm_math.h ****    * @brief Function to Calculates 1/in (reciprocal) value of Q31 Data type.
 587:.\Include/arm_math.h ****    */
 588:.\Include/arm_math.h **** 
 589:.\Include/arm_math.h ****   CMSIS_INLINE __STATIC_INLINE uint32_t arm_recip_q31(
 590:.\Include/arm_math.h ****   q31_t in,
 591:.\Include/arm_math.h ****   q31_t * dst,
 592:.\Include/arm_math.h ****   q31_t * pRecipTable)
 593:.\Include/arm_math.h ****   {
 594:.\Include/arm_math.h ****     q31_t out;
 595:.\Include/arm_math.h ****     uint32_t tempVal;
 596:.\Include/arm_math.h ****     uint32_t index, i;
 597:.\Include/arm_math.h ****     uint32_t signBits;
 598:.\Include/arm_math.h **** 
 599:.\Include/arm_math.h ****     if (in > 0)
 600:.\Include/arm_math.h ****     {
 601:.\Include/arm_math.h ****       signBits = ((uint32_t) (__CLZ( in) - 1));
 602:.\Include/arm_math.h ****     }
 603:.\Include/arm_math.h ****     else
 604:.\Include/arm_math.h ****     {
ARM GAS  C:\Users\fneves\AppData\Local\Temp\ccwdqe5r.s 			page 20


 605:.\Include/arm_math.h ****       signBits = ((uint32_t) (__CLZ(-in) - 1));
 606:.\Include/arm_math.h ****     }
 607:.\Include/arm_math.h **** 
 608:.\Include/arm_math.h ****     /* Convert input sample to 1.31 format */
 609:.\Include/arm_math.h ****     in = (in << signBits);
 610:.\Include/arm_math.h **** 
 611:.\Include/arm_math.h ****     /* calculation of index for initial approximated Val */
 612:.\Include/arm_math.h ****     index = (uint32_t)(in >> 24);
 613:.\Include/arm_math.h ****     index = (index & INDEX_MASK);
 614:.\Include/arm_math.h **** 
 615:.\Include/arm_math.h ****     /* 1.31 with exp 1 */
 616:.\Include/arm_math.h ****     out = pRecipTable[index];
 617:.\Include/arm_math.h **** 
 618:.\Include/arm_math.h ****     /* calculation of reciprocal value */
 619:.\Include/arm_math.h ****     /* running approximation for two iterations */
 620:.\Include/arm_math.h ****     for (i = 0u; i < 2u; i++)
 621:.\Include/arm_math.h ****     {
 622:.\Include/arm_math.h ****       tempVal = (uint32_t) (((q63_t) in * out) >> 31);
 623:.\Include/arm_math.h ****       tempVal = 0x7FFFFFFFu - tempVal;
 624:.\Include/arm_math.h ****       /*      1.31 with exp 1 */
 625:.\Include/arm_math.h ****       /* out = (q31_t) (((q63_t) out * tempVal) >> 30); */
 626:.\Include/arm_math.h ****       out = clip_q63_to_q31(((q63_t) out * tempVal) >> 30);
 627:.\Include/arm_math.h ****     }
 628:.\Include/arm_math.h **** 
 629:.\Include/arm_math.h ****     /* write output */
 630:.\Include/arm_math.h ****     *dst = out;
 631:.\Include/arm_math.h **** 
 632:.\Include/arm_math.h ****     /* return num of signbits of out = 1/in value */
 633:.\Include/arm_math.h ****     return (signBits + 1u);
 634:.\Include/arm_math.h ****   }
 635:.\Include/arm_math.h **** 
 636:.\Include/arm_math.h **** 
 637:.\Include/arm_math.h ****   /**
 638:.\Include/arm_math.h ****    * @brief Function to Calculates 1/in (reciprocal) value of Q15 Data type.
 639:.\Include/arm_math.h ****    */
 640:.\Include/arm_math.h ****   CMSIS_INLINE __STATIC_INLINE uint32_t arm_recip_q15(
 641:.\Include/arm_math.h ****   q15_t in,
 642:.\Include/arm_math.h ****   q15_t * dst,
 643:.\Include/arm_math.h ****   q15_t * pRecipTable)
 644:.\Include/arm_math.h ****   {
 645:.\Include/arm_math.h ****     q15_t out = 0;
 646:.\Include/arm_math.h ****     uint32_t tempVal = 0;
 647:.\Include/arm_math.h ****     uint32_t index = 0, i = 0;
 648:.\Include/arm_math.h ****     uint32_t signBits = 0;
 649:.\Include/arm_math.h **** 
 650:.\Include/arm_math.h ****     if (in > 0)
 651:.\Include/arm_math.h ****     {
 652:.\Include/arm_math.h ****       signBits = ((uint32_t)(__CLZ( in) - 17));
 653:.\Include/arm_math.h ****     }
 654:.\Include/arm_math.h ****     else
 655:.\Include/arm_math.h ****     {
 656:.\Include/arm_math.h ****       signBits = ((uint32_t)(__CLZ(-in) - 17));
 657:.\Include/arm_math.h ****     }
 658:.\Include/arm_math.h **** 
 659:.\Include/arm_math.h ****     /* Convert input sample to 1.15 format */
 660:.\Include/arm_math.h ****     in = (in << signBits);
 661:.\Include/arm_math.h **** 
ARM GAS  C:\Users\fneves\AppData\Local\Temp\ccwdqe5r.s 			page 21


 662:.\Include/arm_math.h ****     /* calculation of index for initial approximated Val */
 663:.\Include/arm_math.h ****     index = (uint32_t)(in >>  8);
 664:.\Include/arm_math.h ****     index = (index & INDEX_MASK);
 665:.\Include/arm_math.h **** 
 666:.\Include/arm_math.h ****     /*      1.15 with exp 1  */
 667:.\Include/arm_math.h ****     out = pRecipTable[index];
 668:.\Include/arm_math.h **** 
 669:.\Include/arm_math.h ****     /* calculation of reciprocal value */
 670:.\Include/arm_math.h ****     /* running approximation for two iterations */
 671:.\Include/arm_math.h ****     for (i = 0u; i < 2u; i++)
 672:.\Include/arm_math.h ****     {
 673:.\Include/arm_math.h ****       tempVal = (uint32_t) (((q31_t) in * out) >> 15);
 674:.\Include/arm_math.h ****       tempVal = 0x7FFFu - tempVal;
 675:.\Include/arm_math.h ****       /*      1.15 with exp 1 */
 676:.\Include/arm_math.h ****       out = (q15_t) (((q31_t) out * tempVal) >> 14);
 677:.\Include/arm_math.h ****       /* out = clip_q31_to_q15(((q31_t) out * tempVal) >> 14); */
 678:.\Include/arm_math.h ****     }
 679:.\Include/arm_math.h **** 
 680:.\Include/arm_math.h ****     /* write output */
 681:.\Include/arm_math.h ****     *dst = out;
 682:.\Include/arm_math.h **** 
 683:.\Include/arm_math.h ****     /* return num of signbits of out = 1/in value */
 684:.\Include/arm_math.h ****     return (signBits + 1);
 685:.\Include/arm_math.h ****   }
 686:.\Include/arm_math.h **** 
 687:.\Include/arm_math.h **** 
 688:.\Include/arm_math.h ****   /*
 689:.\Include/arm_math.h ****    * @brief C custom defined intrinisic function for only M0 processors
 690:.\Include/arm_math.h ****    */
 691:.\Include/arm_math.h **** #if defined(ARM_MATH_CM0_FAMILY)
 692:.\Include/arm_math.h ****   CMSIS_INLINE __STATIC_INLINE q31_t __SSAT(
 693:.\Include/arm_math.h ****   q31_t x,
 694:.\Include/arm_math.h ****   uint32_t y)
 695:.\Include/arm_math.h ****   {
 696:.\Include/arm_math.h ****     int32_t posMax, negMin;
 697:.\Include/arm_math.h ****     uint32_t i;
 698:.\Include/arm_math.h **** 
 699:.\Include/arm_math.h ****     posMax = 1;
 128              		.loc 2 699 0
 129 0090 0122     		mov	r2, #1
 130 0092 BA61     		str	r2, [r7, #24]
 700:.\Include/arm_math.h ****     for (i = 0; i < (y - 1); i++)
 131              		.loc 2 700 0
 132 0094 0022     		mov	r2, #0
 133 0096 7A61     		str	r2, [r7, #20]
 134 0098 05E0     		b	.L5
 135              	.L6:
 701:.\Include/arm_math.h ****     {
 702:.\Include/arm_math.h ****       posMax = posMax * 2;
 136              		.loc 2 702 0
 137 009a BA69     		ldr	r2, [r7, #24]
 138 009c 5200     		lsl	r2, r2, #1
 139 009e BA61     		str	r2, [r7, #24]
 700:.\Include/arm_math.h ****     for (i = 0; i < (y - 1); i++)
 140              		.loc 2 700 0
 141 00a0 7A69     		ldr	r2, [r7, #20]
 142 00a2 0132     		add	r2, r2, #1
ARM GAS  C:\Users\fneves\AppData\Local\Temp\ccwdqe5r.s 			page 22


 143 00a4 7A61     		str	r2, [r7, #20]
 144              	.L5:
 145 00a6 FA69     		ldr	r2, [r7, #28]
 146 00a8 013A     		sub	r2, r2, #1
 147 00aa 7969     		ldr	r1, [r7, #20]
 148 00ac 9142     		cmp	r1, r2
 149 00ae F4D3     		bcc	.L6
 703:.\Include/arm_math.h ****     }
 704:.\Include/arm_math.h **** 
 705:.\Include/arm_math.h ****     if (x > 0)
 150              		.loc 2 705 0
 151 00b0 3A6A     		ldr	r2, [r7, #32]
 152 00b2 002A     		cmp	r2, #0
 153 00b4 09DD     		ble	.L7
 706:.\Include/arm_math.h ****     {
 707:.\Include/arm_math.h ****       posMax = (posMax - 1);
 154              		.loc 2 707 0
 155 00b6 BA69     		ldr	r2, [r7, #24]
 156 00b8 013A     		sub	r2, r2, #1
 157 00ba BA61     		str	r2, [r7, #24]
 708:.\Include/arm_math.h **** 
 709:.\Include/arm_math.h ****       if (x > posMax)
 158              		.loc 2 709 0
 159 00bc 396A     		ldr	r1, [r7, #32]
 160 00be BA69     		ldr	r2, [r7, #24]
 161 00c0 9142     		cmp	r1, r2
 162 00c2 0CDD     		ble	.L14
 710:.\Include/arm_math.h ****       {
 711:.\Include/arm_math.h ****         x = posMax;
 163              		.loc 2 711 0
 164 00c4 BA69     		ldr	r2, [r7, #24]
 165 00c6 3A62     		str	r2, [r7, #32]
 166 00c8 0AE0     		b	.L9
 167              	.L7:
 712:.\Include/arm_math.h ****       }
 713:.\Include/arm_math.h ****     }
 714:.\Include/arm_math.h ****     else
 715:.\Include/arm_math.h ****     {
 716:.\Include/arm_math.h ****       negMin = -posMax;
 168              		.loc 2 716 0
 169 00ca BA69     		ldr	r2, [r7, #24]
 170 00cc 5242     		neg	r2, r2
 171 00ce 3A61     		str	r2, [r7, #16]
 717:.\Include/arm_math.h **** 
 718:.\Include/arm_math.h ****       if (x < negMin)
 172              		.loc 2 718 0
 173 00d0 396A     		ldr	r1, [r7, #32]
 174 00d2 3A69     		ldr	r2, [r7, #16]
 175 00d4 9142     		cmp	r1, r2
 176 00d6 03DA     		bge	.L9
 719:.\Include/arm_math.h ****       {
 720:.\Include/arm_math.h ****         x = negMin;
 177              		.loc 2 720 0
 178 00d8 3A69     		ldr	r2, [r7, #16]
 179 00da 3A62     		str	r2, [r7, #32]
 180 00dc 00E0     		b	.L9
 181              	.L14:
ARM GAS  C:\Users\fneves\AppData\Local\Temp\ccwdqe5r.s 			page 23


 711:.\Include/arm_math.h ****       }
 182              		.loc 2 711 0
 183 00de C046     		mov	r8, r8
 184              	.L9:
 721:.\Include/arm_math.h ****       }
 722:.\Include/arm_math.h ****     }
 723:.\Include/arm_math.h ****     return (x);
 185              		.loc 2 723 0
 186 00e0 3A6A     		ldr	r2, [r7, #32]
 187              	.LBE5:
 188              	.LBE4:
 189              		.loc 1 351 0
 190 00e2 D2B2     		uxtb	r2, r2
 191 00e4 1A70     		strb	r2, [r3]
 352:Source\FilteringFunctions/arm_fir_q7.c **** 
 353:Source\FilteringFunctions/arm_fir_q7.c ****     /* Advance the state pointer by 1 to process the next sample */
 354:Source\FilteringFunctions/arm_fir_q7.c ****     pState = pState + 1;
 192              		.loc 1 354 0
 193 00e6 FB6B     		ldr	r3, [r7, #60]
 194 00e8 0133     		add	r3, r3, #1
 195 00ea FB63     		str	r3, [r7, #60]
 355:Source\FilteringFunctions/arm_fir_q7.c **** 
 356:Source\FilteringFunctions/arm_fir_q7.c ****     /* Decrement the loop counter */
 357:Source\FilteringFunctions/arm_fir_q7.c ****     blkCnt--;
 196              		.loc 1 357 0
 197 00ec 3B6C     		ldr	r3, [r7, #64]
 198 00ee 013B     		sub	r3, r3, #1
 199 00f0 3B64     		str	r3, [r7, #64]
 200              	.L2:
 326:Source\FilteringFunctions/arm_fir_q7.c ****   {
 201              		.loc 1 326 0
 202 00f2 3B6C     		ldr	r3, [r7, #64]
 203 00f4 002B     		cmp	r3, #0
 204 00f6 9ED1     		bne	.L11
 358:Source\FilteringFunctions/arm_fir_q7.c ****   }
 359:Source\FilteringFunctions/arm_fir_q7.c **** 
 360:Source\FilteringFunctions/arm_fir_q7.c ****   /* Processing is complete.
 361:Source\FilteringFunctions/arm_fir_q7.c ****    ** Now copy the last numTaps - 1 samples to the satrt of the state buffer.
 362:Source\FilteringFunctions/arm_fir_q7.c ****    ** This prepares the state buffer for the next function call. */
 363:Source\FilteringFunctions/arm_fir_q7.c **** 
 364:Source\FilteringFunctions/arm_fir_q7.c **** 
 365:Source\FilteringFunctions/arm_fir_q7.c ****   /* Points to the start of the state buffer */
 366:Source\FilteringFunctions/arm_fir_q7.c ****   pStateCurnt = S->pState;
 205              		.loc 1 366 0
 206 00f8 FB68     		ldr	r3, [r7, #12]
 207 00fa 5B68     		ldr	r3, [r3, #4]
 208 00fc FB62     		str	r3, [r7, #44]
 367:Source\FilteringFunctions/arm_fir_q7.c **** 
 368:Source\FilteringFunctions/arm_fir_q7.c **** 
 369:Source\FilteringFunctions/arm_fir_q7.c ****   /* Copy numTaps number of values */
 370:Source\FilteringFunctions/arm_fir_q7.c ****   i = (numTaps - 1u);
 209              		.loc 1 370 0
 210 00fe BB6A     		ldr	r3, [r7, #40]
 211 0100 013B     		sub	r3, r3, #1
 212 0102 7B64     		str	r3, [r7, #68]
 371:Source\FilteringFunctions/arm_fir_q7.c **** 
 372:Source\FilteringFunctions/arm_fir_q7.c ****   /* Copy q7_t data */
ARM GAS  C:\Users\fneves\AppData\Local\Temp\ccwdqe5r.s 			page 24


 373:Source\FilteringFunctions/arm_fir_q7.c ****   while (i > 0u)
 213              		.loc 1 373 0
 214 0104 0AE0     		b	.L12
 215              	.L13:
 374:Source\FilteringFunctions/arm_fir_q7.c ****   {
 375:Source\FilteringFunctions/arm_fir_q7.c ****     *pStateCurnt++ = *pState++;
 216              		.loc 1 375 0
 217 0106 FB6A     		ldr	r3, [r7, #44]
 218 0108 5A1C     		add	r2, r3, #1
 219 010a FA62     		str	r2, [r7, #44]
 220 010c FA6B     		ldr	r2, [r7, #60]
 221 010e 511C     		add	r1, r2, #1
 222 0110 F963     		str	r1, [r7, #60]
 223 0112 1278     		ldrb	r2, [r2]
 224 0114 1A70     		strb	r2, [r3]
 376:Source\FilteringFunctions/arm_fir_q7.c ****     i--;
 225              		.loc 1 376 0
 226 0116 7B6C     		ldr	r3, [r7, #68]
 227 0118 013B     		sub	r3, r3, #1
 228 011a 7B64     		str	r3, [r7, #68]
 229              	.L12:
 373:Source\FilteringFunctions/arm_fir_q7.c ****   {
 230              		.loc 1 373 0
 231 011c 7B6C     		ldr	r3, [r7, #68]
 232 011e 002B     		cmp	r3, #0
 233 0120 F1D1     		bne	.L13
 377:Source\FilteringFunctions/arm_fir_q7.c ****   }
 378:Source\FilteringFunctions/arm_fir_q7.c **** 
 379:Source\FilteringFunctions/arm_fir_q7.c **** #endif /*   #if defined (ARM_MATH_DSP) */
 380:Source\FilteringFunctions/arm_fir_q7.c **** 
 381:Source\FilteringFunctions/arm_fir_q7.c **** }
 234              		.loc 1 381 0
 235 0122 BD46     		mov	sp, r7
 236 0124 12B0     		add	sp, sp, #72
 237              		@ sp needed
 238 0126 80BD     		pop	{r7, pc}
 239              		.cfi_endproc
 240              	.LFE82:
 241              		.size	arm_fir_q7, .-arm_fir_q7
 242              		.text
 243              	.Letext0:
 244              		.file 3 "c:\\program files (x86)\\cypress\\psoc creator\\4.0\\psoc creator\\import\\gnu\\arm\\4.9.
 245              		.file 4 "c:\\program files (x86)\\cypress\\psoc creator\\4.0\\psoc creator\\import\\gnu\\arm\\4.9.