ARM GAS  C:\Users\fneves\AppData\Local\Temp\ccbS8L8E.s 			page 1


   1              		.cpu cortex-m0plus
   2              		.fpu softvfp
   3              		.eabi_attribute 20, 1
   4              		.eabi_attribute 21, 1
   5              		.eabi_attribute 23, 3
   6              		.eabi_attribute 24, 1
   7              		.eabi_attribute 25, 1
   8              		.eabi_attribute 26, 1
   9              		.eabi_attribute 30, 6
  10              		.eabi_attribute 34, 0
  11              		.eabi_attribute 18, 4
  12              		.code	16
  13              		.file	"arm_biquad_cascade_df2T_init_f32.c"
  14              		.text
  15              	.Ltext0:
  16              		.cfi_sections	.debug_frame
  17              		.section	.text.arm_biquad_cascade_df2T_init_f32,"ax",%progbits
  18              		.align	2
  19              		.global	arm_biquad_cascade_df2T_init_f32
  20              		.code	16
  21              		.thumb_func
  22              		.type	arm_biquad_cascade_df2T_init_f32, %function
  23              	arm_biquad_cascade_df2T_init_f32:
  24              	.LFB82:
  25              		.file 1 "Source\\FilteringFunctions\\arm_biquad_cascade_df2T_init_f32.c"
   1:Source\FilteringFunctions/arm_biquad_cascade_df2T_init_f32.c **** /* ----------------------------------------------------------------------
   2:Source\FilteringFunctions/arm_biquad_cascade_df2T_init_f32.c ****  * Project:      CMSIS DSP Library
   3:Source\FilteringFunctions/arm_biquad_cascade_df2T_init_f32.c ****  * Title:        arm_biquad_cascade_df2T_init_f32.c
   4:Source\FilteringFunctions/arm_biquad_cascade_df2T_init_f32.c ****  * Description:  Initialization function for floating-point transposed direct form II Biquad cascad
   5:Source\FilteringFunctions/arm_biquad_cascade_df2T_init_f32.c ****  *
   6:Source\FilteringFunctions/arm_biquad_cascade_df2T_init_f32.c ****  * $Date:        27. January 2017
   7:Source\FilteringFunctions/arm_biquad_cascade_df2T_init_f32.c ****  * $Revision:    V.1.5.1
   8:Source\FilteringFunctions/arm_biquad_cascade_df2T_init_f32.c ****  *
   9:Source\FilteringFunctions/arm_biquad_cascade_df2T_init_f32.c ****  * Target Processor: Cortex-M cores
  10:Source\FilteringFunctions/arm_biquad_cascade_df2T_init_f32.c ****  * -------------------------------------------------------------------- */
  11:Source\FilteringFunctions/arm_biquad_cascade_df2T_init_f32.c **** /*
  12:Source\FilteringFunctions/arm_biquad_cascade_df2T_init_f32.c ****  * Copyright (C) 2010-2017 ARM Limited or its affiliates. All rights reserved.
  13:Source\FilteringFunctions/arm_biquad_cascade_df2T_init_f32.c ****  *
  14:Source\FilteringFunctions/arm_biquad_cascade_df2T_init_f32.c ****  * SPDX-License-Identifier: Apache-2.0
  15:Source\FilteringFunctions/arm_biquad_cascade_df2T_init_f32.c ****  *
  16:Source\FilteringFunctions/arm_biquad_cascade_df2T_init_f32.c ****  * Licensed under the Apache License, Version 2.0 (the License); you may
  17:Source\FilteringFunctions/arm_biquad_cascade_df2T_init_f32.c ****  * not use this file except in compliance with the License.
  18:Source\FilteringFunctions/arm_biquad_cascade_df2T_init_f32.c ****  * You may obtain a copy of the License at
  19:Source\FilteringFunctions/arm_biquad_cascade_df2T_init_f32.c ****  *
  20:Source\FilteringFunctions/arm_biquad_cascade_df2T_init_f32.c ****  * www.apache.org/licenses/LICENSE-2.0
  21:Source\FilteringFunctions/arm_biquad_cascade_df2T_init_f32.c ****  *
  22:Source\FilteringFunctions/arm_biquad_cascade_df2T_init_f32.c ****  * Unless required by applicable law or agreed to in writing, software
  23:Source\FilteringFunctions/arm_biquad_cascade_df2T_init_f32.c ****  * distributed under the License is distributed on an AS IS BASIS, WITHOUT
  24:Source\FilteringFunctions/arm_biquad_cascade_df2T_init_f32.c ****  * WARRANTIES OR CONDITIONS OF ANY KIND, either express or implied.
  25:Source\FilteringFunctions/arm_biquad_cascade_df2T_init_f32.c ****  * See the License for the specific language governing permissions and
  26:Source\FilteringFunctions/arm_biquad_cascade_df2T_init_f32.c ****  * limitations under the License.
  27:Source\FilteringFunctions/arm_biquad_cascade_df2T_init_f32.c ****  */
  28:Source\FilteringFunctions/arm_biquad_cascade_df2T_init_f32.c **** 
  29:Source\FilteringFunctions/arm_biquad_cascade_df2T_init_f32.c **** #include "arm_math.h"
  30:Source\FilteringFunctions/arm_biquad_cascade_df2T_init_f32.c **** 
  31:Source\FilteringFunctions/arm_biquad_cascade_df2T_init_f32.c **** /**
  32:Source\FilteringFunctions/arm_biquad_cascade_df2T_init_f32.c ****  * @ingroup groupFilters
ARM GAS  C:\Users\fneves\AppData\Local\Temp\ccbS8L8E.s 			page 2


  33:Source\FilteringFunctions/arm_biquad_cascade_df2T_init_f32.c ****  */
  34:Source\FilteringFunctions/arm_biquad_cascade_df2T_init_f32.c **** 
  35:Source\FilteringFunctions/arm_biquad_cascade_df2T_init_f32.c **** /**
  36:Source\FilteringFunctions/arm_biquad_cascade_df2T_init_f32.c ****  * @addtogroup BiquadCascadeDF2T
  37:Source\FilteringFunctions/arm_biquad_cascade_df2T_init_f32.c ****  * @{
  38:Source\FilteringFunctions/arm_biquad_cascade_df2T_init_f32.c ****  */
  39:Source\FilteringFunctions/arm_biquad_cascade_df2T_init_f32.c **** 
  40:Source\FilteringFunctions/arm_biquad_cascade_df2T_init_f32.c **** /**
  41:Source\FilteringFunctions/arm_biquad_cascade_df2T_init_f32.c ****  * @brief  Initialization function for the floating-point transposed direct form II Biquad cascade 
  42:Source\FilteringFunctions/arm_biquad_cascade_df2T_init_f32.c ****  * @param[in,out] *S           points to an instance of the filter data structure.
  43:Source\FilteringFunctions/arm_biquad_cascade_df2T_init_f32.c ****  * @param[in]     numStages    number of 2nd order stages in the filter.
  44:Source\FilteringFunctions/arm_biquad_cascade_df2T_init_f32.c ****  * @param[in]     *pCoeffs     points to the filter coefficients.
  45:Source\FilteringFunctions/arm_biquad_cascade_df2T_init_f32.c ****  * @param[in]     *pState      points to the state buffer.
  46:Source\FilteringFunctions/arm_biquad_cascade_df2T_init_f32.c ****  * @return        none
  47:Source\FilteringFunctions/arm_biquad_cascade_df2T_init_f32.c ****  *
  48:Source\FilteringFunctions/arm_biquad_cascade_df2T_init_f32.c ****  * <b>Coefficient and State Ordering:</b>
  49:Source\FilteringFunctions/arm_biquad_cascade_df2T_init_f32.c ****  * \par
  50:Source\FilteringFunctions/arm_biquad_cascade_df2T_init_f32.c ****  * The coefficients are stored in the array <code>pCoeffs</code> in the following order:
  51:Source\FilteringFunctions/arm_biquad_cascade_df2T_init_f32.c ****  * <pre>
  52:Source\FilteringFunctions/arm_biquad_cascade_df2T_init_f32.c ****  *     {b10, b11, b12, a11, a12, b20, b21, b22, a21, a22, ...}
  53:Source\FilteringFunctions/arm_biquad_cascade_df2T_init_f32.c ****  * </pre>
  54:Source\FilteringFunctions/arm_biquad_cascade_df2T_init_f32.c ****  *
  55:Source\FilteringFunctions/arm_biquad_cascade_df2T_init_f32.c ****  * \par
  56:Source\FilteringFunctions/arm_biquad_cascade_df2T_init_f32.c ****  * where <code>b1x</code> and <code>a1x</code> are the coefficients for the first stage,
  57:Source\FilteringFunctions/arm_biquad_cascade_df2T_init_f32.c ****  * <code>b2x</code> and <code>a2x</code> are the coefficients for the second stage,
  58:Source\FilteringFunctions/arm_biquad_cascade_df2T_init_f32.c ****  * and so on.  The <code>pCoeffs</code> array contains a total of <code>5*numStages</code> values.
  59:Source\FilteringFunctions/arm_biquad_cascade_df2T_init_f32.c ****  *
  60:Source\FilteringFunctions/arm_biquad_cascade_df2T_init_f32.c ****  * \par
  61:Source\FilteringFunctions/arm_biquad_cascade_df2T_init_f32.c ****  * The <code>pState</code> is a pointer to state array.
  62:Source\FilteringFunctions/arm_biquad_cascade_df2T_init_f32.c ****  * Each Biquad stage has 2 state variables <code>d1,</code> and <code>d2</code>.
  63:Source\FilteringFunctions/arm_biquad_cascade_df2T_init_f32.c ****  * The 2 state variables for stage 1 are first, then the 2 state variables for stage 2, and so on.
  64:Source\FilteringFunctions/arm_biquad_cascade_df2T_init_f32.c ****  * The state array has a total length of <code>2*numStages</code> values.
  65:Source\FilteringFunctions/arm_biquad_cascade_df2T_init_f32.c ****  * The state variables are updated after each block of data is processed; the coefficients are unto
  66:Source\FilteringFunctions/arm_biquad_cascade_df2T_init_f32.c ****  */
  67:Source\FilteringFunctions/arm_biquad_cascade_df2T_init_f32.c **** 
  68:Source\FilteringFunctions/arm_biquad_cascade_df2T_init_f32.c **** void arm_biquad_cascade_df2T_init_f32(
  69:Source\FilteringFunctions/arm_biquad_cascade_df2T_init_f32.c ****   arm_biquad_cascade_df2T_instance_f32 * S,
  70:Source\FilteringFunctions/arm_biquad_cascade_df2T_init_f32.c ****   uint8_t numStages,
  71:Source\FilteringFunctions/arm_biquad_cascade_df2T_init_f32.c ****   float32_t * pCoeffs,
  72:Source\FilteringFunctions/arm_biquad_cascade_df2T_init_f32.c ****   float32_t * pState)
  73:Source\FilteringFunctions/arm_biquad_cascade_df2T_init_f32.c **** {
  26              		.loc 1 73 0
  27              		.cfi_startproc
  28 0000 80B5     		push	{r7, lr}
  29              		.cfi_def_cfa_offset 8
  30              		.cfi_offset 7, -8
  31              		.cfi_offset 14, -4
  32 0002 84B0     		sub	sp, sp, #16
  33              		.cfi_def_cfa_offset 24
  34 0004 00AF     		add	r7, sp, #0
  35              		.cfi_def_cfa_register 7
  36 0006 F860     		str	r0, [r7, #12]
  37 0008 7A60     		str	r2, [r7, #4]
  38 000a 3B60     		str	r3, [r7]
  39 000c 0B23     		mov	r3, #11
  40 000e FB18     		add	r3, r7, r3
  41 0010 0A1C     		add	r2, r1, #0
ARM GAS  C:\Users\fneves\AppData\Local\Temp\ccbS8L8E.s 			page 3


  42 0012 1A70     		strb	r2, [r3]
  74:Source\FilteringFunctions/arm_biquad_cascade_df2T_init_f32.c ****   /* Assign filter stages */
  75:Source\FilteringFunctions/arm_biquad_cascade_df2T_init_f32.c ****   S->numStages = numStages;
  43              		.loc 1 75 0
  44 0014 FB68     		ldr	r3, [r7, #12]
  45 0016 0B22     		mov	r2, #11
  46 0018 BA18     		add	r2, r7, r2
  47 001a 1278     		ldrb	r2, [r2]
  48 001c 1A70     		strb	r2, [r3]
  76:Source\FilteringFunctions/arm_biquad_cascade_df2T_init_f32.c **** 
  77:Source\FilteringFunctions/arm_biquad_cascade_df2T_init_f32.c ****   /* Assign coefficient pointer */
  78:Source\FilteringFunctions/arm_biquad_cascade_df2T_init_f32.c ****   S->pCoeffs = pCoeffs;
  49              		.loc 1 78 0
  50 001e FB68     		ldr	r3, [r7, #12]
  51 0020 7A68     		ldr	r2, [r7, #4]
  52 0022 9A60     		str	r2, [r3, #8]
  79:Source\FilteringFunctions/arm_biquad_cascade_df2T_init_f32.c **** 
  80:Source\FilteringFunctions/arm_biquad_cascade_df2T_init_f32.c ****   /* Clear state buffer and size is always 2 * numStages */
  81:Source\FilteringFunctions/arm_biquad_cascade_df2T_init_f32.c ****   memset(pState, 0, (2u * (uint32_t) numStages) * sizeof(float32_t));
  53              		.loc 1 81 0
  54 0024 0B23     		mov	r3, #11
  55 0026 FB18     		add	r3, r7, r3
  56 0028 1B78     		ldrb	r3, [r3]
  57 002a DB00     		lsl	r3, r3, #3
  58 002c 3A68     		ldr	r2, [r7]
  59 002e 101C     		mov	r0, r2
  60 0030 0021     		mov	r1, #0
  61 0032 1A1C     		mov	r2, r3
  62 0034 FFF7FEFF 		bl	memset
  82:Source\FilteringFunctions/arm_biquad_cascade_df2T_init_f32.c **** 
  83:Source\FilteringFunctions/arm_biquad_cascade_df2T_init_f32.c ****   /* Assign state pointer */
  84:Source\FilteringFunctions/arm_biquad_cascade_df2T_init_f32.c ****   S->pState = pState;
  63              		.loc 1 84 0
  64 0038 FB68     		ldr	r3, [r7, #12]
  65 003a 3A68     		ldr	r2, [r7]
  66 003c 5A60     		str	r2, [r3, #4]
  85:Source\FilteringFunctions/arm_biquad_cascade_df2T_init_f32.c **** }
  67              		.loc 1 85 0
  68 003e BD46     		mov	sp, r7
  69 0040 04B0     		add	sp, sp, #16
  70              		@ sp needed
  71 0042 80BD     		pop	{r7, pc}
  72              		.cfi_endproc
  73              	.LFE82:
  74              		.size	arm_biquad_cascade_df2T_init_f32, .-arm_biquad_cascade_df2T_init_f32
  75              		.text
  76              	.Letext0:
  77              		.file 2 "c:\\program files (x86)\\cypress\\psoc creator\\4.0\\psoc creator\\import\\gnu\\arm\\4.9.
  78              		.file 3 "c:\\program files (x86)\\cypress\\psoc creator\\4.0\\psoc creator\\import\\gnu\\arm\\4.9.
  79              		.file 4 ".\\Include/arm_math.h"