ARM GAS  C:\Users\fneves\AppData\Local\Temp\cc1AgPJV.s 			page 1


   1              		.cpu cortex-m0plus
   2              		.fpu softvfp
   3              		.eabi_attribute 20, 1
   4              		.eabi_attribute 21, 1
   5              		.eabi_attribute 23, 3
   6              		.eabi_attribute 24, 1
   7              		.eabi_attribute 25, 1
   8              		.eabi_attribute 26, 1
   9              		.eabi_attribute 30, 6
  10              		.eabi_attribute 34, 0
  11              		.eabi_attribute 18, 4
  12              		.code	16
  13              		.file	"arm_sin_q31.c"
  14              		.text
  15              	.Ltext0:
  16              		.cfi_sections	.debug_frame
  17              		.global	__aeabi_lmul
  18              		.section	.text.arm_sin_q31,"ax",%progbits
  19              		.align	2
  20              		.global	arm_sin_q31
  21              		.code	16
  22              		.thumb_func
  23              		.type	arm_sin_q31, %function
  24              	arm_sin_q31:
  25              	.LFB82:
  26              		.file 1 "Source\\FastMathFunctions\\arm_sin_q31.c"
   1:Source\FastMathFunctions/arm_sin_q31.c **** /* ----------------------------------------------------------------------
   2:Source\FastMathFunctions/arm_sin_q31.c ****  * Project:      CMSIS DSP Library
   3:Source\FastMathFunctions/arm_sin_q31.c ****  * Title:        arm_sin_q31.c
   4:Source\FastMathFunctions/arm_sin_q31.c ****  * Description:  Fast sine calculation for Q31 values
   5:Source\FastMathFunctions/arm_sin_q31.c ****  *
   6:Source\FastMathFunctions/arm_sin_q31.c ****  * $Date:        27. January 2017
   7:Source\FastMathFunctions/arm_sin_q31.c ****  * $Revision:    V.1.5.1
   8:Source\FastMathFunctions/arm_sin_q31.c ****  *
   9:Source\FastMathFunctions/arm_sin_q31.c ****  * Target Processor: Cortex-M cores
  10:Source\FastMathFunctions/arm_sin_q31.c ****  * -------------------------------------------------------------------- */
  11:Source\FastMathFunctions/arm_sin_q31.c **** /*
  12:Source\FastMathFunctions/arm_sin_q31.c ****  * Copyright (C) 2010-2017 ARM Limited or its affiliates. All rights reserved.
  13:Source\FastMathFunctions/arm_sin_q31.c ****  *
  14:Source\FastMathFunctions/arm_sin_q31.c ****  * SPDX-License-Identifier: Apache-2.0
  15:Source\FastMathFunctions/arm_sin_q31.c ****  *
  16:Source\FastMathFunctions/arm_sin_q31.c ****  * Licensed under the Apache License, Version 2.0 (the License); you may
  17:Source\FastMathFunctions/arm_sin_q31.c ****  * not use this file except in compliance with the License.
  18:Source\FastMathFunctions/arm_sin_q31.c ****  * You may obtain a copy of the License at
  19:Source\FastMathFunctions/arm_sin_q31.c ****  *
  20:Source\FastMathFunctions/arm_sin_q31.c ****  * www.apache.org/licenses/LICENSE-2.0
  21:Source\FastMathFunctions/arm_sin_q31.c ****  *
  22:Source\FastMathFunctions/arm_sin_q31.c ****  * Unless required by applicable law or agreed to in writing, software
  23:Source\FastMathFunctions/arm_sin_q31.c ****  * distributed under the License is distributed on an AS IS BASIS, WITHOUT
  24:Source\FastMathFunctions/arm_sin_q31.c ****  * WARRANTIES OR CONDITIONS OF ANY KIND, either express or implied.
  25:Source\FastMathFunctions/arm_sin_q31.c ****  * See the License for the specific language governing permissions and
  26:Source\FastMathFunctions/arm_sin_q31.c ****  * limitations under the License.
  27:Source\FastMathFunctions/arm_sin_q31.c ****  */
  28:Source\FastMathFunctions/arm_sin_q31.c **** 
  29:Source\FastMathFunctions/arm_sin_q31.c **** #include "arm_math.h"
  30:Source\FastMathFunctions/arm_sin_q31.c **** #include "arm_common_tables.h"
  31:Source\FastMathFunctions/arm_sin_q31.c **** 
ARM GAS  C:\Users\fneves\AppData\Local\Temp\cc1AgPJV.s 			page 2


  32:Source\FastMathFunctions/arm_sin_q31.c **** /**
  33:Source\FastMathFunctions/arm_sin_q31.c ****  * @ingroup groupFastMath
  34:Source\FastMathFunctions/arm_sin_q31.c ****  */
  35:Source\FastMathFunctions/arm_sin_q31.c **** 
  36:Source\FastMathFunctions/arm_sin_q31.c ****  /**
  37:Source\FastMathFunctions/arm_sin_q31.c ****  * @addtogroup sin
  38:Source\FastMathFunctions/arm_sin_q31.c ****  * @{
  39:Source\FastMathFunctions/arm_sin_q31.c ****  */
  40:Source\FastMathFunctions/arm_sin_q31.c **** 
  41:Source\FastMathFunctions/arm_sin_q31.c **** /**
  42:Source\FastMathFunctions/arm_sin_q31.c ****  * @brief Fast approximation to the trigonometric sine function for Q31 data.
  43:Source\FastMathFunctions/arm_sin_q31.c ****  * @param[in] x Scaled input value in radians.
  44:Source\FastMathFunctions/arm_sin_q31.c ****  * @return  sin(x).
  45:Source\FastMathFunctions/arm_sin_q31.c ****  *
  46:Source\FastMathFunctions/arm_sin_q31.c ****  * The Q31 input value is in the range [0 +0.9999] and is mapped to a radian value in the range [0 
  47:Source\FastMathFunctions/arm_sin_q31.c **** 
  48:Source\FastMathFunctions/arm_sin_q31.c **** q31_t arm_sin_q31(
  49:Source\FastMathFunctions/arm_sin_q31.c ****   q31_t x)
  50:Source\FastMathFunctions/arm_sin_q31.c **** {
  27              		.loc 1 50 0
  28              		.cfi_startproc
  29 0000 F0B5     		push	{r4, r5, r6, r7, lr}
  30              		.cfi_def_cfa_offset 20
  31              		.cfi_offset 4, -20
  32              		.cfi_offset 5, -16
  33              		.cfi_offset 6, -12
  34              		.cfi_offset 7, -8
  35              		.cfi_offset 14, -4
  36 0002 97B0     		sub	sp, sp, #92
  37              		.cfi_def_cfa_offset 112
  38 0004 00AF     		add	r7, sp, #0
  39              		.cfi_def_cfa_register 7
  40 0006 F863     		str	r0, [r7, #60]
  51:Source\FastMathFunctions/arm_sin_q31.c ****   q31_t sinVal;                                  /* Temporary variables for input, output */
  52:Source\FastMathFunctions/arm_sin_q31.c ****   int32_t index;                                 /* Index variables */
  53:Source\FastMathFunctions/arm_sin_q31.c ****   q31_t a, b;                                    /* Four nearest output values */
  54:Source\FastMathFunctions/arm_sin_q31.c ****   q31_t fract;                                   /* Temporary values for fractional values */
  55:Source\FastMathFunctions/arm_sin_q31.c **** 
  56:Source\FastMathFunctions/arm_sin_q31.c ****   /* Calculate the nearest index */
  57:Source\FastMathFunctions/arm_sin_q31.c ****   index = (uint32_t)x >> FAST_MATH_Q31_SHIFT;
  41              		.loc 1 57 0
  42 0008 FB6B     		ldr	r3, [r7, #60]
  43 000a 9B0D     		lsr	r3, r3, #22
  44 000c 7B65     		str	r3, [r7, #84]
  58:Source\FastMathFunctions/arm_sin_q31.c **** 
  59:Source\FastMathFunctions/arm_sin_q31.c ****   /* Calculation of fractional value */
  60:Source\FastMathFunctions/arm_sin_q31.c ****   fract = (x - (index << FAST_MATH_Q31_SHIFT)) << 9;
  45              		.loc 1 60 0
  46 000e 7B6D     		ldr	r3, [r7, #84]
  47 0010 9A05     		lsl	r2, r3, #22
  48 0012 FB6B     		ldr	r3, [r7, #60]
  49 0014 9B1A     		sub	r3, r3, r2
  50 0016 5B02     		lsl	r3, r3, #9
  51 0018 3B65     		str	r3, [r7, #80]
  61:Source\FastMathFunctions/arm_sin_q31.c **** 
  62:Source\FastMathFunctions/arm_sin_q31.c ****   /* Read two nearest values of input value from the sin table */
  63:Source\FastMathFunctions/arm_sin_q31.c ****   a = sinTable_q31[index];
ARM GAS  C:\Users\fneves\AppData\Local\Temp\cc1AgPJV.s 			page 3


  52              		.loc 1 63 0
  53 001a 254A     		ldr	r2, .L3
  54 001c 7B6D     		ldr	r3, [r7, #84]
  55 001e 9B00     		lsl	r3, r3, #2
  56 0020 9B58     		ldr	r3, [r3, r2]
  57 0022 FB64     		str	r3, [r7, #76]
  64:Source\FastMathFunctions/arm_sin_q31.c ****   b = sinTable_q31[index+1];
  58              		.loc 1 64 0
  59 0024 7B6D     		ldr	r3, [r7, #84]
  60 0026 0133     		add	r3, r3, #1
  61 0028 214A     		ldr	r2, .L3
  62 002a 9B00     		lsl	r3, r3, #2
  63 002c 9B58     		ldr	r3, [r3, r2]
  64 002e BB64     		str	r3, [r7, #72]
  65:Source\FastMathFunctions/arm_sin_q31.c **** 
  66:Source\FastMathFunctions/arm_sin_q31.c ****   /* Linear interpolation process */
  67:Source\FastMathFunctions/arm_sin_q31.c ****   sinVal = (q63_t)(0x80000000-fract)*a >> 32;
  65              		.loc 1 67 0
  66 0030 3A6D     		ldr	r2, [r7, #80]
  67 0032 8023     		mov	r3, #128
  68 0034 1B06     		lsl	r3, r3, #24
  69 0036 9B1A     		sub	r3, r3, r2
  70 0038 3B63     		str	r3, [r7, #48]
  71 003a 0023     		mov	r3, #0
  72 003c 7B63     		str	r3, [r7, #52]
  73 003e FB6C     		ldr	r3, [r7, #76]
  74 0040 BB62     		str	r3, [r7, #40]
  75 0042 DB17     		asr	r3, r3, #31
  76 0044 FB62     		str	r3, [r7, #44]
  77 0046 386B     		ldr	r0, [r7, #48]
  78 0048 796B     		ldr	r1, [r7, #52]
  79 004a BA6A     		ldr	r2, [r7, #40]
  80 004c FB6A     		ldr	r3, [r7, #44]
  81 004e FFF7FEFF 		bl	__aeabi_lmul
  82 0052 031C     		mov	r3, r0
  83 0054 0C1C     		mov	r4, r1
  84 0056 2200     		asr	r2, r4, #0
  85 0058 3A62     		str	r2, [r7, #32]
  86 005a E317     		asr	r3, r4, #31
  87 005c 7B62     		str	r3, [r7, #36]
  88 005e 3B6A     		ldr	r3, [r7, #32]
  89 0060 7B64     		str	r3, [r7, #68]
  68:Source\FastMathFunctions/arm_sin_q31.c ****   sinVal = (q31_t)((((q63_t)sinVal << 32) + ((q63_t)fract*b)) >> 32);
  90              		.loc 1 68 0
  91 0062 7B6C     		ldr	r3, [r7, #68]
  92 0064 BB61     		str	r3, [r7, #24]
  93 0066 DB17     		asr	r3, r3, #31
  94 0068 FB61     		str	r3, [r7, #28]
  95 006a BB69     		ldr	r3, [r7, #24]
  96 006c 1E00     		lsl	r6, r3, #0
  97 006e 0023     		mov	r3, #0
  98 0070 1D1C     		mov	r5, r3
  99 0072 3B6D     		ldr	r3, [r7, #80]
 100 0074 3B61     		str	r3, [r7, #16]
 101 0076 DB17     		asr	r3, r3, #31
 102 0078 7B61     		str	r3, [r7, #20]
 103 007a BB6C     		ldr	r3, [r7, #72]
ARM GAS  C:\Users\fneves\AppData\Local\Temp\cc1AgPJV.s 			page 4


 104 007c BB60     		str	r3, [r7, #8]
 105 007e DB17     		asr	r3, r3, #31
 106 0080 FB60     		str	r3, [r7, #12]
 107 0082 3869     		ldr	r0, [r7, #16]
 108 0084 7969     		ldr	r1, [r7, #20]
 109 0086 BA68     		ldr	r2, [r7, #8]
 110 0088 FB68     		ldr	r3, [r7, #12]
 111 008a FFF7FEFF 		bl	__aeabi_lmul
 112 008e 031C     		mov	r3, r0
 113 0090 0C1C     		mov	r4, r1
 114 0092 5B19     		add	r3, r3, r5
 115 0094 7441     		adc	r4, r4, r6
 116 0096 2200     		asr	r2, r4, #0
 117 0098 3A60     		str	r2, [r7]
 118 009a E317     		asr	r3, r4, #31
 119 009c 7B60     		str	r3, [r7, #4]
 120 009e 3B68     		ldr	r3, [r7]
 121 00a0 7B64     		str	r3, [r7, #68]
  69:Source\FastMathFunctions/arm_sin_q31.c **** 
  70:Source\FastMathFunctions/arm_sin_q31.c ****   return sinVal << 1;
 122              		.loc 1 70 0
 123 00a2 7B6C     		ldr	r3, [r7, #68]
 124 00a4 5B00     		lsl	r3, r3, #1
  71:Source\FastMathFunctions/arm_sin_q31.c **** }
 125              		.loc 1 71 0
 126 00a6 181C     		mov	r0, r3
 127 00a8 BD46     		mov	sp, r7
 128 00aa 17B0     		add	sp, sp, #92
 129              		@ sp needed
 130 00ac F0BD     		pop	{r4, r5, r6, r7, pc}
 131              	.L4:
 132 00ae C046     		.align	2
 133              	.L3:
 134 00b0 00000000 		.word	sinTable_q31
 135              		.cfi_endproc
 136              	.LFE82:
 137              		.size	arm_sin_q31, .-arm_sin_q31
 138              		.text
 139              	.Letext0:
 140              		.file 2 "c:\\program files (x86)\\cypress\\psoc creator\\4.0\\psoc creator\\import\\gnu\\arm\\4.9.
 141              		.file 3 "c:\\program files (x86)\\cypress\\psoc creator\\4.0\\psoc creator\\import\\gnu\\arm\\4.9.
 142              		.file 4 ".\\Include/arm_math.h"
 143              		.file 5 ".\\Include/arm_common_tables.h"