ARM GAS  C:\Users\fneves\AppData\Local\Temp\ccYxbzdf.s 			page 1


   1              		.cpu cortex-m0plus
   2              		.fpu softvfp
   3              		.eabi_attribute 20, 1
   4              		.eabi_attribute 21, 1
   5              		.eabi_attribute 23, 3
   6              		.eabi_attribute 24, 1
   7              		.eabi_attribute 25, 1
   8              		.eabi_attribute 26, 1
   9              		.eabi_attribute 30, 6
  10              		.eabi_attribute 34, 0
  11              		.eabi_attribute 18, 4
  12              		.code	16
  13              		.file	"arm_cmplx_mag_squared_q31.c"
  14              		.text
  15              	.Ltext0:
  16              		.cfi_sections	.debug_frame
  17              		.global	__aeabi_lmul
  18              		.section	.text.arm_cmplx_mag_squared_q31,"ax",%progbits
  19              		.align	2
  20              		.global	arm_cmplx_mag_squared_q31
  21              		.code	16
  22              		.thumb_func
  23              		.type	arm_cmplx_mag_squared_q31, %function
  24              	arm_cmplx_mag_squared_q31:
  25              	.LFB82:
  26              		.file 1 "Source\\ComplexMathFunctions\\arm_cmplx_mag_squared_q31.c"
   1:Source\ComplexMathFunctions/arm_cmplx_mag_squared_q31.c **** /* ----------------------------------------------------------------------
   2:Source\ComplexMathFunctions/arm_cmplx_mag_squared_q31.c ****  * Project:      CMSIS DSP Library
   3:Source\ComplexMathFunctions/arm_cmplx_mag_squared_q31.c ****  * Title:        arm_cmplx_mag_squared_q31.c
   4:Source\ComplexMathFunctions/arm_cmplx_mag_squared_q31.c ****  * Description:  Q31 complex magnitude squared
   5:Source\ComplexMathFunctions/arm_cmplx_mag_squared_q31.c ****  *
   6:Source\ComplexMathFunctions/arm_cmplx_mag_squared_q31.c ****  * $Date:        27. January 2017
   7:Source\ComplexMathFunctions/arm_cmplx_mag_squared_q31.c ****  * $Revision:    V.1.5.1
   8:Source\ComplexMathFunctions/arm_cmplx_mag_squared_q31.c ****  *
   9:Source\ComplexMathFunctions/arm_cmplx_mag_squared_q31.c ****  * Target Processor: Cortex-M cores
  10:Source\ComplexMathFunctions/arm_cmplx_mag_squared_q31.c ****  * -------------------------------------------------------------------- */
  11:Source\ComplexMathFunctions/arm_cmplx_mag_squared_q31.c **** /*
  12:Source\ComplexMathFunctions/arm_cmplx_mag_squared_q31.c ****  * Copyright (C) 2010-2017 ARM Limited or its affiliates. All rights reserved.
  13:Source\ComplexMathFunctions/arm_cmplx_mag_squared_q31.c ****  *
  14:Source\ComplexMathFunctions/arm_cmplx_mag_squared_q31.c ****  * SPDX-License-Identifier: Apache-2.0
  15:Source\ComplexMathFunctions/arm_cmplx_mag_squared_q31.c ****  *
  16:Source\ComplexMathFunctions/arm_cmplx_mag_squared_q31.c ****  * Licensed under the Apache License, Version 2.0 (the License); you may
  17:Source\ComplexMathFunctions/arm_cmplx_mag_squared_q31.c ****  * not use this file except in compliance with the License.
  18:Source\ComplexMathFunctions/arm_cmplx_mag_squared_q31.c ****  * You may obtain a copy of the License at
  19:Source\ComplexMathFunctions/arm_cmplx_mag_squared_q31.c ****  *
  20:Source\ComplexMathFunctions/arm_cmplx_mag_squared_q31.c ****  * www.apache.org/licenses/LICENSE-2.0
  21:Source\ComplexMathFunctions/arm_cmplx_mag_squared_q31.c ****  *
  22:Source\ComplexMathFunctions/arm_cmplx_mag_squared_q31.c ****  * Unless required by applicable law or agreed to in writing, software
  23:Source\ComplexMathFunctions/arm_cmplx_mag_squared_q31.c ****  * distributed under the License is distributed on an AS IS BASIS, WITHOUT
  24:Source\ComplexMathFunctions/arm_cmplx_mag_squared_q31.c ****  * WARRANTIES OR CONDITIONS OF ANY KIND, either express or implied.
  25:Source\ComplexMathFunctions/arm_cmplx_mag_squared_q31.c ****  * See the License for the specific language governing permissions and
  26:Source\ComplexMathFunctions/arm_cmplx_mag_squared_q31.c ****  * limitations under the License.
  27:Source\ComplexMathFunctions/arm_cmplx_mag_squared_q31.c ****  */
  28:Source\ComplexMathFunctions/arm_cmplx_mag_squared_q31.c **** 
  29:Source\ComplexMathFunctions/arm_cmplx_mag_squared_q31.c **** #include "arm_math.h"
  30:Source\ComplexMathFunctions/arm_cmplx_mag_squared_q31.c **** 
  31:Source\ComplexMathFunctions/arm_cmplx_mag_squared_q31.c **** /**
ARM GAS  C:\Users\fneves\AppData\Local\Temp\ccYxbzdf.s 			page 2


  32:Source\ComplexMathFunctions/arm_cmplx_mag_squared_q31.c ****  * @ingroup groupCmplxMath
  33:Source\ComplexMathFunctions/arm_cmplx_mag_squared_q31.c ****  */
  34:Source\ComplexMathFunctions/arm_cmplx_mag_squared_q31.c **** 
  35:Source\ComplexMathFunctions/arm_cmplx_mag_squared_q31.c **** /**
  36:Source\ComplexMathFunctions/arm_cmplx_mag_squared_q31.c ****  * @addtogroup cmplx_mag_squared
  37:Source\ComplexMathFunctions/arm_cmplx_mag_squared_q31.c ****  * @{
  38:Source\ComplexMathFunctions/arm_cmplx_mag_squared_q31.c ****  */
  39:Source\ComplexMathFunctions/arm_cmplx_mag_squared_q31.c **** 
  40:Source\ComplexMathFunctions/arm_cmplx_mag_squared_q31.c **** 
  41:Source\ComplexMathFunctions/arm_cmplx_mag_squared_q31.c **** /**
  42:Source\ComplexMathFunctions/arm_cmplx_mag_squared_q31.c ****  * @brief  Q31 complex magnitude squared
  43:Source\ComplexMathFunctions/arm_cmplx_mag_squared_q31.c ****  * @param  *pSrc points to the complex input vector
  44:Source\ComplexMathFunctions/arm_cmplx_mag_squared_q31.c ****  * @param  *pDst points to the real output vector
  45:Source\ComplexMathFunctions/arm_cmplx_mag_squared_q31.c ****  * @param  numSamples number of complex samples in the input vector
  46:Source\ComplexMathFunctions/arm_cmplx_mag_squared_q31.c ****  * @return none.
  47:Source\ComplexMathFunctions/arm_cmplx_mag_squared_q31.c ****  *
  48:Source\ComplexMathFunctions/arm_cmplx_mag_squared_q31.c ****  * <b>Scaling and Overflow Behavior:</b>
  49:Source\ComplexMathFunctions/arm_cmplx_mag_squared_q31.c ****  * \par
  50:Source\ComplexMathFunctions/arm_cmplx_mag_squared_q31.c ****  * The function implements 1.31 by 1.31 multiplications and finally output is converted into 3.29 f
  51:Source\ComplexMathFunctions/arm_cmplx_mag_squared_q31.c ****  * Input down scaling is not required.
  52:Source\ComplexMathFunctions/arm_cmplx_mag_squared_q31.c ****  */
  53:Source\ComplexMathFunctions/arm_cmplx_mag_squared_q31.c **** 
  54:Source\ComplexMathFunctions/arm_cmplx_mag_squared_q31.c **** void arm_cmplx_mag_squared_q31(
  55:Source\ComplexMathFunctions/arm_cmplx_mag_squared_q31.c ****   q31_t * pSrc,
  56:Source\ComplexMathFunctions/arm_cmplx_mag_squared_q31.c ****   q31_t * pDst,
  57:Source\ComplexMathFunctions/arm_cmplx_mag_squared_q31.c ****   uint32_t numSamples)
  58:Source\ComplexMathFunctions/arm_cmplx_mag_squared_q31.c **** {
  27              		.loc 1 58 0
  28              		.cfi_startproc
  29 0000 F0B5     		push	{r4, r5, r6, r7, lr}
  30              		.cfi_def_cfa_offset 20
  31              		.cfi_offset 4, -20
  32              		.cfi_offset 5, -16
  33              		.cfi_offset 6, -12
  34              		.cfi_offset 7, -8
  35              		.cfi_offset 14, -4
  36 0002 93B0     		sub	sp, sp, #76
  37              		.cfi_def_cfa_offset 96
  38 0004 00AF     		add	r7, sp, #0
  39              		.cfi_def_cfa_register 7
  40 0006 7863     		str	r0, [r7, #52]
  41 0008 3963     		str	r1, [r7, #48]
  42 000a FA62     		str	r2, [r7, #44]
  59:Source\ComplexMathFunctions/arm_cmplx_mag_squared_q31.c ****   q31_t real, imag;                              /* Temporary variables to store real and imaginary
  60:Source\ComplexMathFunctions/arm_cmplx_mag_squared_q31.c ****   q31_t acc0, acc1;                              /* Accumulators */
  61:Source\ComplexMathFunctions/arm_cmplx_mag_squared_q31.c **** 
  62:Source\ComplexMathFunctions/arm_cmplx_mag_squared_q31.c **** #if defined (ARM_MATH_DSP)
  63:Source\ComplexMathFunctions/arm_cmplx_mag_squared_q31.c **** 
  64:Source\ComplexMathFunctions/arm_cmplx_mag_squared_q31.c ****   /* Run the below code for Cortex-M4 and Cortex-M3 */
  65:Source\ComplexMathFunctions/arm_cmplx_mag_squared_q31.c ****   uint32_t blkCnt;                               /* loop counter */
  66:Source\ComplexMathFunctions/arm_cmplx_mag_squared_q31.c **** 
  67:Source\ComplexMathFunctions/arm_cmplx_mag_squared_q31.c ****   /* loop Unrolling */
  68:Source\ComplexMathFunctions/arm_cmplx_mag_squared_q31.c ****   blkCnt = numSamples >> 2u;
  69:Source\ComplexMathFunctions/arm_cmplx_mag_squared_q31.c **** 
  70:Source\ComplexMathFunctions/arm_cmplx_mag_squared_q31.c ****   /* First part of the processing with loop unrolling.  Compute 4 outputs at a time.
  71:Source\ComplexMathFunctions/arm_cmplx_mag_squared_q31.c ****    ** a second loop below computes the remaining 1 to 3 samples. */
  72:Source\ComplexMathFunctions/arm_cmplx_mag_squared_q31.c ****   while (blkCnt > 0u)
ARM GAS  C:\Users\fneves\AppData\Local\Temp\ccYxbzdf.s 			page 3


  73:Source\ComplexMathFunctions/arm_cmplx_mag_squared_q31.c ****   {
  74:Source\ComplexMathFunctions/arm_cmplx_mag_squared_q31.c ****     /* C[0] = (A[0] * A[0] + A[1] * A[1]) */
  75:Source\ComplexMathFunctions/arm_cmplx_mag_squared_q31.c ****     real = *pSrc++;
  76:Source\ComplexMathFunctions/arm_cmplx_mag_squared_q31.c ****     imag = *pSrc++;
  77:Source\ComplexMathFunctions/arm_cmplx_mag_squared_q31.c ****     acc0 = (q31_t) (((q63_t) real * real) >> 33);
  78:Source\ComplexMathFunctions/arm_cmplx_mag_squared_q31.c ****     acc1 = (q31_t) (((q63_t) imag * imag) >> 33);
  79:Source\ComplexMathFunctions/arm_cmplx_mag_squared_q31.c ****     /* store the result in 3.29 format in the destination buffer. */
  80:Source\ComplexMathFunctions/arm_cmplx_mag_squared_q31.c ****     *pDst++ = acc0 + acc1;
  81:Source\ComplexMathFunctions/arm_cmplx_mag_squared_q31.c **** 
  82:Source\ComplexMathFunctions/arm_cmplx_mag_squared_q31.c ****     real = *pSrc++;
  83:Source\ComplexMathFunctions/arm_cmplx_mag_squared_q31.c ****     imag = *pSrc++;
  84:Source\ComplexMathFunctions/arm_cmplx_mag_squared_q31.c ****     acc0 = (q31_t) (((q63_t) real * real) >> 33);
  85:Source\ComplexMathFunctions/arm_cmplx_mag_squared_q31.c ****     acc1 = (q31_t) (((q63_t) imag * imag) >> 33);
  86:Source\ComplexMathFunctions/arm_cmplx_mag_squared_q31.c ****     /* store the result in 3.29 format in the destination buffer. */
  87:Source\ComplexMathFunctions/arm_cmplx_mag_squared_q31.c ****     *pDst++ = acc0 + acc1;
  88:Source\ComplexMathFunctions/arm_cmplx_mag_squared_q31.c **** 
  89:Source\ComplexMathFunctions/arm_cmplx_mag_squared_q31.c ****     real = *pSrc++;
  90:Source\ComplexMathFunctions/arm_cmplx_mag_squared_q31.c ****     imag = *pSrc++;
  91:Source\ComplexMathFunctions/arm_cmplx_mag_squared_q31.c ****     acc0 = (q31_t) (((q63_t) real * real) >> 33);
  92:Source\ComplexMathFunctions/arm_cmplx_mag_squared_q31.c ****     acc1 = (q31_t) (((q63_t) imag * imag) >> 33);
  93:Source\ComplexMathFunctions/arm_cmplx_mag_squared_q31.c ****     /* store the result in 3.29 format in the destination buffer. */
  94:Source\ComplexMathFunctions/arm_cmplx_mag_squared_q31.c ****     *pDst++ = acc0 + acc1;
  95:Source\ComplexMathFunctions/arm_cmplx_mag_squared_q31.c **** 
  96:Source\ComplexMathFunctions/arm_cmplx_mag_squared_q31.c ****     real = *pSrc++;
  97:Source\ComplexMathFunctions/arm_cmplx_mag_squared_q31.c ****     imag = *pSrc++;
  98:Source\ComplexMathFunctions/arm_cmplx_mag_squared_q31.c ****     acc0 = (q31_t) (((q63_t) real * real) >> 33);
  99:Source\ComplexMathFunctions/arm_cmplx_mag_squared_q31.c ****     acc1 = (q31_t) (((q63_t) imag * imag) >> 33);
 100:Source\ComplexMathFunctions/arm_cmplx_mag_squared_q31.c ****     /* store the result in 3.29 format in the destination buffer. */
 101:Source\ComplexMathFunctions/arm_cmplx_mag_squared_q31.c ****     *pDst++ = acc0 + acc1;
 102:Source\ComplexMathFunctions/arm_cmplx_mag_squared_q31.c **** 
 103:Source\ComplexMathFunctions/arm_cmplx_mag_squared_q31.c ****     /* Decrement the loop counter */
 104:Source\ComplexMathFunctions/arm_cmplx_mag_squared_q31.c ****     blkCnt--;
 105:Source\ComplexMathFunctions/arm_cmplx_mag_squared_q31.c ****   }
 106:Source\ComplexMathFunctions/arm_cmplx_mag_squared_q31.c **** 
 107:Source\ComplexMathFunctions/arm_cmplx_mag_squared_q31.c ****   /* If the numSamples is not a multiple of 4, compute any remaining output samples here.
 108:Source\ComplexMathFunctions/arm_cmplx_mag_squared_q31.c ****    ** No loop unrolling is used. */
 109:Source\ComplexMathFunctions/arm_cmplx_mag_squared_q31.c ****   blkCnt = numSamples % 0x4u;
 110:Source\ComplexMathFunctions/arm_cmplx_mag_squared_q31.c **** 
 111:Source\ComplexMathFunctions/arm_cmplx_mag_squared_q31.c ****   while (blkCnt > 0u)
 112:Source\ComplexMathFunctions/arm_cmplx_mag_squared_q31.c ****   {
 113:Source\ComplexMathFunctions/arm_cmplx_mag_squared_q31.c ****     /* C[0] = (A[0] * A[0] + A[1] * A[1]) */
 114:Source\ComplexMathFunctions/arm_cmplx_mag_squared_q31.c ****     real = *pSrc++;
 115:Source\ComplexMathFunctions/arm_cmplx_mag_squared_q31.c ****     imag = *pSrc++;
 116:Source\ComplexMathFunctions/arm_cmplx_mag_squared_q31.c ****     acc0 = (q31_t) (((q63_t) real * real) >> 33);
 117:Source\ComplexMathFunctions/arm_cmplx_mag_squared_q31.c ****     acc1 = (q31_t) (((q63_t) imag * imag) >> 33);
 118:Source\ComplexMathFunctions/arm_cmplx_mag_squared_q31.c ****     /* store the result in 3.29 format in the destination buffer. */
 119:Source\ComplexMathFunctions/arm_cmplx_mag_squared_q31.c ****     *pDst++ = acc0 + acc1;
 120:Source\ComplexMathFunctions/arm_cmplx_mag_squared_q31.c **** 
 121:Source\ComplexMathFunctions/arm_cmplx_mag_squared_q31.c ****     /* Decrement the loop counter */
 122:Source\ComplexMathFunctions/arm_cmplx_mag_squared_q31.c ****     blkCnt--;
 123:Source\ComplexMathFunctions/arm_cmplx_mag_squared_q31.c ****   }
 124:Source\ComplexMathFunctions/arm_cmplx_mag_squared_q31.c **** 
 125:Source\ComplexMathFunctions/arm_cmplx_mag_squared_q31.c **** #else
 126:Source\ComplexMathFunctions/arm_cmplx_mag_squared_q31.c **** 
 127:Source\ComplexMathFunctions/arm_cmplx_mag_squared_q31.c ****   /* Run the below code for Cortex-M0 */
 128:Source\ComplexMathFunctions/arm_cmplx_mag_squared_q31.c **** 
 129:Source\ComplexMathFunctions/arm_cmplx_mag_squared_q31.c ****   while (numSamples > 0u)
ARM GAS  C:\Users\fneves\AppData\Local\Temp\ccYxbzdf.s 			page 4


  43              		.loc 1 129 0
  44 000c 3DE0     		b	.L2
  45              	.L3:
 130:Source\ComplexMathFunctions/arm_cmplx_mag_squared_q31.c ****   {
 131:Source\ComplexMathFunctions/arm_cmplx_mag_squared_q31.c ****     /* out = ((real * real) + (imag * imag)) */
 132:Source\ComplexMathFunctions/arm_cmplx_mag_squared_q31.c ****     real = *pSrc++;
  46              		.loc 1 132 0
  47 000e 7A6B     		ldr	r2, [r7, #52]
  48 0010 131D     		add	r3, r2, #4
  49 0012 7B63     		str	r3, [r7, #52]
  50 0014 1368     		ldr	r3, [r2]
  51 0016 7B64     		str	r3, [r7, #68]
 133:Source\ComplexMathFunctions/arm_cmplx_mag_squared_q31.c ****     imag = *pSrc++;
  52              		.loc 1 133 0
  53 0018 7A6B     		ldr	r2, [r7, #52]
  54 001a 131D     		add	r3, r2, #4
  55 001c 7B63     		str	r3, [r7, #52]
  56 001e 1368     		ldr	r3, [r2]
  57 0020 3B64     		str	r3, [r7, #64]
 134:Source\ComplexMathFunctions/arm_cmplx_mag_squared_q31.c ****     acc0 = (q31_t) (((q63_t) real * real) >> 33);
  58              		.loc 1 134 0
  59 0022 7B6C     		ldr	r3, [r7, #68]
  60 0024 3B62     		str	r3, [r7, #32]
  61 0026 DB17     		asr	r3, r3, #31
  62 0028 7B62     		str	r3, [r7, #36]
  63 002a 7B6C     		ldr	r3, [r7, #68]
  64 002c BB61     		str	r3, [r7, #24]
  65 002e DB17     		asr	r3, r3, #31
  66 0030 FB61     		str	r3, [r7, #28]
  67 0032 386A     		ldr	r0, [r7, #32]
  68 0034 796A     		ldr	r1, [r7, #36]
  69 0036 BA69     		ldr	r2, [r7, #24]
  70 0038 FB69     		ldr	r3, [r7, #28]
  71 003a FFF7FEFF 		bl	__aeabi_lmul
  72 003e 031C     		mov	r3, r0
  73 0040 0C1C     		mov	r4, r1
  74 0042 6510     		asr	r5, r4, #1
  75 0044 E617     		asr	r6, r4, #31
  76 0046 2B1C     		mov	r3, r5
  77 0048 FB63     		str	r3, [r7, #60]
 135:Source\ComplexMathFunctions/arm_cmplx_mag_squared_q31.c ****     acc1 = (q31_t) (((q63_t) imag * imag) >> 33);
  78              		.loc 1 135 0
  79 004a 3B6C     		ldr	r3, [r7, #64]
  80 004c 3B61     		str	r3, [r7, #16]
  81 004e DB17     		asr	r3, r3, #31
  82 0050 7B61     		str	r3, [r7, #20]
  83 0052 3B6C     		ldr	r3, [r7, #64]
  84 0054 BB60     		str	r3, [r7, #8]
  85 0056 DB17     		asr	r3, r3, #31
  86 0058 FB60     		str	r3, [r7, #12]
  87 005a 3869     		ldr	r0, [r7, #16]
  88 005c 7969     		ldr	r1, [r7, #20]
  89 005e BA68     		ldr	r2, [r7, #8]
  90 0060 FB68     		ldr	r3, [r7, #12]
  91 0062 FFF7FEFF 		bl	__aeabi_lmul
  92 0066 031C     		mov	r3, r0
  93 0068 0C1C     		mov	r4, r1
ARM GAS  C:\Users\fneves\AppData\Local\Temp\ccYxbzdf.s 			page 5


  94 006a 6210     		asr	r2, r4, #1
  95 006c 3A60     		str	r2, [r7]
  96 006e E317     		asr	r3, r4, #31
  97 0070 7B60     		str	r3, [r7, #4]
  98 0072 3B68     		ldr	r3, [r7]
  99 0074 BB63     		str	r3, [r7, #56]
 136:Source\ComplexMathFunctions/arm_cmplx_mag_squared_q31.c ****     /* store the result in 3.29 format in the destination buffer. */
 137:Source\ComplexMathFunctions/arm_cmplx_mag_squared_q31.c ****     *pDst++ = acc0 + acc1;
 100              		.loc 1 137 0
 101 0076 396B     		ldr	r1, [r7, #48]
 102 0078 0B1D     		add	r3, r1, #4
 103 007a 3B63     		str	r3, [r7, #48]
 104 007c FA6B     		ldr	r2, [r7, #60]
 105 007e BB6B     		ldr	r3, [r7, #56]
 106 0080 D318     		add	r3, r2, r3
 107 0082 0B60     		str	r3, [r1]
 138:Source\ComplexMathFunctions/arm_cmplx_mag_squared_q31.c **** 
 139:Source\ComplexMathFunctions/arm_cmplx_mag_squared_q31.c ****     /* Decrement the loop counter */
 140:Source\ComplexMathFunctions/arm_cmplx_mag_squared_q31.c ****     numSamples--;
 108              		.loc 1 140 0
 109 0084 FB6A     		ldr	r3, [r7, #44]
 110 0086 013B     		sub	r3, r3, #1
 111 0088 FB62     		str	r3, [r7, #44]
 112              	.L2:
 129:Source\ComplexMathFunctions/arm_cmplx_mag_squared_q31.c ****   {
 113              		.loc 1 129 0
 114 008a FB6A     		ldr	r3, [r7, #44]
 115 008c 002B     		cmp	r3, #0
 116 008e BED1     		bne	.L3
 141:Source\ComplexMathFunctions/arm_cmplx_mag_squared_q31.c ****   }
 142:Source\ComplexMathFunctions/arm_cmplx_mag_squared_q31.c **** 
 143:Source\ComplexMathFunctions/arm_cmplx_mag_squared_q31.c **** #endif /* #if defined (ARM_MATH_DSP) */
 144:Source\ComplexMathFunctions/arm_cmplx_mag_squared_q31.c **** 
 145:Source\ComplexMathFunctions/arm_cmplx_mag_squared_q31.c **** }
 117              		.loc 1 145 0
 118 0090 BD46     		mov	sp, r7
 119 0092 13B0     		add	sp, sp, #76
 120              		@ sp needed
 121 0094 F0BD     		pop	{r4, r5, r6, r7, pc}
 122              		.cfi_endproc
 123              	.LFE82:
 124              		.size	arm_cmplx_mag_squared_q31, .-arm_cmplx_mag_squared_q31
 125 0096 C046     		.text
 126              	.Letext0:
 127              		.file 2 "c:\\program files (x86)\\cypress\\psoc creator\\4.0\\psoc creator\\import\\gnu\\arm\\4.9.
 128              		.file 3 "c:\\program files (x86)\\cypress\\psoc creator\\4.0\\psoc creator\\import\\gnu\\arm\\4.9.
 129              		.file 4 ".\\Include/arm_math.h"