ARM GAS  C:\Users\fneves\AppData\Local\Temp\ccAJPHaO.s 			page 1


   1              		.cpu cortex-m0plus
   2              		.fpu softvfp
   3              		.eabi_attribute 20, 1
   4              		.eabi_attribute 21, 1
   5              		.eabi_attribute 23, 3
   6              		.eabi_attribute 24, 1
   7              		.eabi_attribute 25, 1
   8              		.eabi_attribute 26, 1
   9              		.eabi_attribute 30, 6
  10              		.eabi_attribute 34, 0
  11              		.eabi_attribute 18, 4
  12              		.code	16
  13              		.file	"arm_dct4_q31.c"
  14              		.text
  15              	.Ltext0:
  16              		.cfi_sections	.debug_frame
  17              		.global	__aeabi_lmul
  18              		.section	.text.arm_dct4_q31,"ax",%progbits
  19              		.align	2
  20              		.global	arm_dct4_q31
  21              		.code	16
  22              		.thumb_func
  23              		.type	arm_dct4_q31, %function
  24              	arm_dct4_q31:
  25              	.LFB82:
  26              		.file 1 "Source\\TransformFunctions\\arm_dct4_q31.c"
   1:Source\TransformFunctions/arm_dct4_q31.c **** /* ----------------------------------------------------------------------
   2:Source\TransformFunctions/arm_dct4_q31.c ****  * Project:      CMSIS DSP Library
   3:Source\TransformFunctions/arm_dct4_q31.c ****  * Title:        arm_dct4_q31.c
   4:Source\TransformFunctions/arm_dct4_q31.c ****  * Description:  Processing function of DCT4 & IDCT4 Q31
   5:Source\TransformFunctions/arm_dct4_q31.c ****  *
   6:Source\TransformFunctions/arm_dct4_q31.c ****  * $Date:        27. January 2017
   7:Source\TransformFunctions/arm_dct4_q31.c ****  * $Revision:    V.1.5.1
   8:Source\TransformFunctions/arm_dct4_q31.c ****  *
   9:Source\TransformFunctions/arm_dct4_q31.c ****  * Target Processor: Cortex-M cores
  10:Source\TransformFunctions/arm_dct4_q31.c ****  * -------------------------------------------------------------------- */
  11:Source\TransformFunctions/arm_dct4_q31.c **** /*
  12:Source\TransformFunctions/arm_dct4_q31.c ****  * Copyright (C) 2010-2017 ARM Limited or its affiliates. All rights reserved.
  13:Source\TransformFunctions/arm_dct4_q31.c ****  *
  14:Source\TransformFunctions/arm_dct4_q31.c ****  * SPDX-License-Identifier: Apache-2.0
  15:Source\TransformFunctions/arm_dct4_q31.c ****  *
  16:Source\TransformFunctions/arm_dct4_q31.c ****  * Licensed under the Apache License, Version 2.0 (the License); you may
  17:Source\TransformFunctions/arm_dct4_q31.c ****  * not use this file except in compliance with the License.
  18:Source\TransformFunctions/arm_dct4_q31.c ****  * You may obtain a copy of the License at
  19:Source\TransformFunctions/arm_dct4_q31.c ****  *
  20:Source\TransformFunctions/arm_dct4_q31.c ****  * www.apache.org/licenses/LICENSE-2.0
  21:Source\TransformFunctions/arm_dct4_q31.c ****  *
  22:Source\TransformFunctions/arm_dct4_q31.c ****  * Unless required by applicable law or agreed to in writing, software
  23:Source\TransformFunctions/arm_dct4_q31.c ****  * distributed under the License is distributed on an AS IS BASIS, WITHOUT
  24:Source\TransformFunctions/arm_dct4_q31.c ****  * WARRANTIES OR CONDITIONS OF ANY KIND, either express or implied.
  25:Source\TransformFunctions/arm_dct4_q31.c ****  * See the License for the specific language governing permissions and
  26:Source\TransformFunctions/arm_dct4_q31.c ****  * limitations under the License.
  27:Source\TransformFunctions/arm_dct4_q31.c ****  */
  28:Source\TransformFunctions/arm_dct4_q31.c **** 
  29:Source\TransformFunctions/arm_dct4_q31.c **** #include "arm_math.h"
  30:Source\TransformFunctions/arm_dct4_q31.c **** 
  31:Source\TransformFunctions/arm_dct4_q31.c **** /**
ARM GAS  C:\Users\fneves\AppData\Local\Temp\ccAJPHaO.s 			page 2


  32:Source\TransformFunctions/arm_dct4_q31.c ****  * @addtogroup DCT4_IDCT4
  33:Source\TransformFunctions/arm_dct4_q31.c ****  * @{
  34:Source\TransformFunctions/arm_dct4_q31.c ****  */
  35:Source\TransformFunctions/arm_dct4_q31.c **** 
  36:Source\TransformFunctions/arm_dct4_q31.c **** /**
  37:Source\TransformFunctions/arm_dct4_q31.c ****  * @brief Processing function for the Q31 DCT4/IDCT4.
  38:Source\TransformFunctions/arm_dct4_q31.c ****  * @param[in]       *S             points to an instance of the Q31 DCT4 structure.
  39:Source\TransformFunctions/arm_dct4_q31.c ****  * @param[in]       *pState        points to state buffer.
  40:Source\TransformFunctions/arm_dct4_q31.c ****  * @param[in,out]   *pInlineBuffer points to the in-place input and output buffer.
  41:Source\TransformFunctions/arm_dct4_q31.c ****  * @return none.
  42:Source\TransformFunctions/arm_dct4_q31.c ****  * \par Input an output formats:
  43:Source\TransformFunctions/arm_dct4_q31.c ****  * Input samples need to be downscaled by 1 bit to avoid saturations in the Q31 DCT process,
  44:Source\TransformFunctions/arm_dct4_q31.c ****  * as the conversion from DCT2 to DCT4 involves one subtraction.
  45:Source\TransformFunctions/arm_dct4_q31.c ****  * Internally inputs are downscaled in the RFFT process function to avoid overflows.
  46:Source\TransformFunctions/arm_dct4_q31.c ****  * Number of bits downscaled, depends on the size of the transform.
  47:Source\TransformFunctions/arm_dct4_q31.c ****  * The input and output formats for different DCT sizes and number of bits to upscale are mentioned
  48:Source\TransformFunctions/arm_dct4_q31.c ****  *
  49:Source\TransformFunctions/arm_dct4_q31.c ****  * \image html dct4FormatsQ31Table.gif
  50:Source\TransformFunctions/arm_dct4_q31.c ****  */
  51:Source\TransformFunctions/arm_dct4_q31.c **** 
  52:Source\TransformFunctions/arm_dct4_q31.c **** void arm_dct4_q31(
  53:Source\TransformFunctions/arm_dct4_q31.c ****   const arm_dct4_instance_q31 * S,
  54:Source\TransformFunctions/arm_dct4_q31.c ****   q31_t * pState,
  55:Source\TransformFunctions/arm_dct4_q31.c ****   q31_t * pInlineBuffer)
  56:Source\TransformFunctions/arm_dct4_q31.c **** {
  27              		.loc 1 56 0
  28              		.cfi_startproc
  29 0000 F0B5     		push	{r4, r5, r6, r7, lr}
  30              		.cfi_def_cfa_offset 20
  31              		.cfi_offset 4, -20
  32              		.cfi_offset 5, -16
  33              		.cfi_offset 6, -12
  34              		.cfi_offset 7, -8
  35              		.cfi_offset 14, -4
  36 0002 91B0     		sub	sp, sp, #68
  37              		.cfi_def_cfa_offset 88
  38 0004 00AF     		add	r7, sp, #0
  39              		.cfi_def_cfa_register 7
  40 0006 F861     		str	r0, [r7, #28]
  41 0008 B961     		str	r1, [r7, #24]
  42 000a 7A61     		str	r2, [r7, #20]
  57:Source\TransformFunctions/arm_dct4_q31.c ****   uint16_t i;                                    /* Loop counter */
  58:Source\TransformFunctions/arm_dct4_q31.c ****   q31_t *weights = S->pTwiddle;                  /* Pointer to the Weights table */
  43              		.loc 1 58 0
  44 000c FB69     		ldr	r3, [r7, #28]
  45 000e 9B68     		ldr	r3, [r3, #8]
  46 0010 BB62     		str	r3, [r7, #40]
  59:Source\TransformFunctions/arm_dct4_q31.c ****   q31_t *cosFact = S->pCosFactor;                /* Pointer to the cos factors table */
  47              		.loc 1 59 0
  48 0012 FB69     		ldr	r3, [r7, #28]
  49 0014 DB68     		ldr	r3, [r3, #12]
  50 0016 7B62     		str	r3, [r7, #36]
  60:Source\TransformFunctions/arm_dct4_q31.c ****   q31_t *pS1, *pS2, *pbuff;                      /* Temporary pointers for input buffer and pState 
  61:Source\TransformFunctions/arm_dct4_q31.c ****   q31_t in;                                      /* Temporary variable */
  62:Source\TransformFunctions/arm_dct4_q31.c **** 
  63:Source\TransformFunctions/arm_dct4_q31.c **** 
  64:Source\TransformFunctions/arm_dct4_q31.c ****   /* DCT4 computation involves DCT2 (which is calculated using RFFT)
ARM GAS  C:\Users\fneves\AppData\Local\Temp\ccAJPHaO.s 			page 3


  65:Source\TransformFunctions/arm_dct4_q31.c ****    * along with some pre-processing and post-processing.
  66:Source\TransformFunctions/arm_dct4_q31.c ****    * Computational procedure is explained as follows:
  67:Source\TransformFunctions/arm_dct4_q31.c ****    * (a) Pre-processing involves multiplying input with cos factor,
  68:Source\TransformFunctions/arm_dct4_q31.c ****    *     r(n) = 2 * u(n) * cos(pi*(2*n+1)/(4*n))
  69:Source\TransformFunctions/arm_dct4_q31.c ****    *              where,
  70:Source\TransformFunctions/arm_dct4_q31.c ****    *                 r(n) -- output of preprocessing
  71:Source\TransformFunctions/arm_dct4_q31.c ****    *                 u(n) -- input to preprocessing(actual Source buffer)
  72:Source\TransformFunctions/arm_dct4_q31.c ****    * (b) Calculation of DCT2 using FFT is divided into three steps:
  73:Source\TransformFunctions/arm_dct4_q31.c ****    *                  Step1: Re-ordering of even and odd elements of input.
  74:Source\TransformFunctions/arm_dct4_q31.c ****    *                  Step2: Calculating FFT of the re-ordered input.
  75:Source\TransformFunctions/arm_dct4_q31.c ****    *                  Step3: Taking the real part of the product of FFT output and weights.
  76:Source\TransformFunctions/arm_dct4_q31.c ****    * (c) Post-processing - DCT4 can be obtained from DCT2 output using the following equation:
  77:Source\TransformFunctions/arm_dct4_q31.c ****    *                   Y4(k) = Y2(k) - Y4(k-1) and Y4(-1) = Y4(0)
  78:Source\TransformFunctions/arm_dct4_q31.c ****    *                        where,
  79:Source\TransformFunctions/arm_dct4_q31.c ****    *                           Y4 -- DCT4 output,   Y2 -- DCT2 output
  80:Source\TransformFunctions/arm_dct4_q31.c ****    * (d) Multiplying the output with the normalizing factor sqrt(2/N).
  81:Source\TransformFunctions/arm_dct4_q31.c ****    */
  82:Source\TransformFunctions/arm_dct4_q31.c **** 
  83:Source\TransformFunctions/arm_dct4_q31.c ****         /*-------- Pre-processing ------------*/
  84:Source\TransformFunctions/arm_dct4_q31.c ****   /* Multiplying input with cos factor i.e. r(n) = 2 * x(n) * cos(pi*(2*n+1)/(4*n)) */
  85:Source\TransformFunctions/arm_dct4_q31.c ****   arm_mult_q31(pInlineBuffer, cosFact, pInlineBuffer, S->N);
  51              		.loc 1 85 0
  52 0018 FB69     		ldr	r3, [r7, #28]
  53 001a 1B88     		ldrh	r3, [r3]
  54 001c 1E1C     		mov	r6, r3
  55 001e 7969     		ldr	r1, [r7, #20]
  56 0020 7A6A     		ldr	r2, [r7, #36]
  57 0022 7B69     		ldr	r3, [r7, #20]
  58 0024 081C     		mov	r0, r1
  59 0026 111C     		mov	r1, r2
  60 0028 1A1C     		mov	r2, r3
  61 002a 331C     		mov	r3, r6
  62 002c FFF7FEFF 		bl	arm_mult_q31
  86:Source\TransformFunctions/arm_dct4_q31.c ****   arm_shift_q31(pInlineBuffer, 1, pInlineBuffer, S->N);
  63              		.loc 1 86 0
  64 0030 FB69     		ldr	r3, [r7, #28]
  65 0032 1B88     		ldrh	r3, [r3]
  66 0034 1E1C     		mov	r6, r3
  67 0036 7A69     		ldr	r2, [r7, #20]
  68 0038 7B69     		ldr	r3, [r7, #20]
  69 003a 101C     		mov	r0, r2
  70 003c 0121     		mov	r1, #1
  71 003e 1A1C     		mov	r2, r3
  72 0040 331C     		mov	r3, r6
  73 0042 FFF7FEFF 		bl	arm_shift_q31
  87:Source\TransformFunctions/arm_dct4_q31.c **** 
  88:Source\TransformFunctions/arm_dct4_q31.c ****   /* ----------------------------------------------------------------
  89:Source\TransformFunctions/arm_dct4_q31.c ****    * Step1: Re-ordering of even and odd elements as
  90:Source\TransformFunctions/arm_dct4_q31.c ****    *             pState[i] =  pInlineBuffer[2*i] and
  91:Source\TransformFunctions/arm_dct4_q31.c ****    *             pState[N-i-1] = pInlineBuffer[2*i+1] where i = 0 to N/2
  92:Source\TransformFunctions/arm_dct4_q31.c ****    ---------------------------------------------------------------------*/
  93:Source\TransformFunctions/arm_dct4_q31.c **** 
  94:Source\TransformFunctions/arm_dct4_q31.c ****   /* pS1 initialized to pState */
  95:Source\TransformFunctions/arm_dct4_q31.c ****   pS1 = pState;
  74              		.loc 1 95 0
  75 0046 BB69     		ldr	r3, [r7, #24]
  76 0048 BB63     		str	r3, [r7, #56]
ARM GAS  C:\Users\fneves\AppData\Local\Temp\ccAJPHaO.s 			page 4


  96:Source\TransformFunctions/arm_dct4_q31.c **** 
  97:Source\TransformFunctions/arm_dct4_q31.c ****   /* pS2 initialized to pState+N-1, so that it points to the end of the state buffer */
  98:Source\TransformFunctions/arm_dct4_q31.c ****   pS2 = pState + (S->N - 1u);
  77              		.loc 1 98 0
  78 004a FB69     		ldr	r3, [r7, #28]
  79 004c 1B88     		ldrh	r3, [r3]
  80 004e 7F4A     		ldr	r2, .L7
  81 0050 9446     		mov	ip, r2
  82 0052 6344     		add	r3, r3, ip
  83 0054 9B00     		lsl	r3, r3, #2
  84 0056 BA69     		ldr	r2, [r7, #24]
  85 0058 D318     		add	r3, r2, r3
  86 005a 7B63     		str	r3, [r7, #52]
  99:Source\TransformFunctions/arm_dct4_q31.c **** 
 100:Source\TransformFunctions/arm_dct4_q31.c ****   /* pbuff initialized to input buffer */
 101:Source\TransformFunctions/arm_dct4_q31.c ****   pbuff = pInlineBuffer;
  87              		.loc 1 101 0
  88 005c 7B69     		ldr	r3, [r7, #20]
  89 005e 3B63     		str	r3, [r7, #48]
 102:Source\TransformFunctions/arm_dct4_q31.c **** 
 103:Source\TransformFunctions/arm_dct4_q31.c **** #if defined (ARM_MATH_DSP)
 104:Source\TransformFunctions/arm_dct4_q31.c **** 
 105:Source\TransformFunctions/arm_dct4_q31.c ****   /* Run the below code for Cortex-M4 and Cortex-M3 */
 106:Source\TransformFunctions/arm_dct4_q31.c **** 
 107:Source\TransformFunctions/arm_dct4_q31.c ****   /* Initializing the loop counter to N/2 >> 2 for loop unrolling by 4 */
 108:Source\TransformFunctions/arm_dct4_q31.c ****   i = S->Nby2 >> 2u;
 109:Source\TransformFunctions/arm_dct4_q31.c **** 
 110:Source\TransformFunctions/arm_dct4_q31.c ****   /* First part of the processing with loop unrolling.  Compute 4 outputs at a time.
 111:Source\TransformFunctions/arm_dct4_q31.c ****    ** a second loop below computes the remaining 1 to 3 samples. */
 112:Source\TransformFunctions/arm_dct4_q31.c ****   do
 113:Source\TransformFunctions/arm_dct4_q31.c ****   {
 114:Source\TransformFunctions/arm_dct4_q31.c ****     /* Re-ordering of even and odd elements */
 115:Source\TransformFunctions/arm_dct4_q31.c ****     /* pState[i] =  pInlineBuffer[2*i] */
 116:Source\TransformFunctions/arm_dct4_q31.c ****     *pS1++ = *pbuff++;
 117:Source\TransformFunctions/arm_dct4_q31.c ****     /* pState[N-i-1] = pInlineBuffer[2*i+1] */
 118:Source\TransformFunctions/arm_dct4_q31.c ****     *pS2-- = *pbuff++;
 119:Source\TransformFunctions/arm_dct4_q31.c **** 
 120:Source\TransformFunctions/arm_dct4_q31.c ****     *pS1++ = *pbuff++;
 121:Source\TransformFunctions/arm_dct4_q31.c ****     *pS2-- = *pbuff++;
 122:Source\TransformFunctions/arm_dct4_q31.c **** 
 123:Source\TransformFunctions/arm_dct4_q31.c ****     *pS1++ = *pbuff++;
 124:Source\TransformFunctions/arm_dct4_q31.c ****     *pS2-- = *pbuff++;
 125:Source\TransformFunctions/arm_dct4_q31.c **** 
 126:Source\TransformFunctions/arm_dct4_q31.c ****     *pS1++ = *pbuff++;
 127:Source\TransformFunctions/arm_dct4_q31.c ****     *pS2-- = *pbuff++;
 128:Source\TransformFunctions/arm_dct4_q31.c **** 
 129:Source\TransformFunctions/arm_dct4_q31.c ****     /* Decrement the loop counter */
 130:Source\TransformFunctions/arm_dct4_q31.c ****     i--;
 131:Source\TransformFunctions/arm_dct4_q31.c ****   } while (i > 0u);
 132:Source\TransformFunctions/arm_dct4_q31.c **** 
 133:Source\TransformFunctions/arm_dct4_q31.c ****   /* pbuff initialized to input buffer */
 134:Source\TransformFunctions/arm_dct4_q31.c ****   pbuff = pInlineBuffer;
 135:Source\TransformFunctions/arm_dct4_q31.c **** 
 136:Source\TransformFunctions/arm_dct4_q31.c ****   /* pS1 initialized to pState */
 137:Source\TransformFunctions/arm_dct4_q31.c ****   pS1 = pState;
 138:Source\TransformFunctions/arm_dct4_q31.c **** 
 139:Source\TransformFunctions/arm_dct4_q31.c ****   /* Initializing the loop counter to N/4 instead of N for loop unrolling */
ARM GAS  C:\Users\fneves\AppData\Local\Temp\ccAJPHaO.s 			page 5


 140:Source\TransformFunctions/arm_dct4_q31.c ****   i = S->N >> 2u;
 141:Source\TransformFunctions/arm_dct4_q31.c **** 
 142:Source\TransformFunctions/arm_dct4_q31.c ****   /* Processing with loop unrolling 4 times as N is always multiple of 4.
 143:Source\TransformFunctions/arm_dct4_q31.c ****    * Compute 4 outputs at a time */
 144:Source\TransformFunctions/arm_dct4_q31.c ****   do
 145:Source\TransformFunctions/arm_dct4_q31.c ****   {
 146:Source\TransformFunctions/arm_dct4_q31.c ****     /* Writing the re-ordered output back to inplace input buffer */
 147:Source\TransformFunctions/arm_dct4_q31.c ****     *pbuff++ = *pS1++;
 148:Source\TransformFunctions/arm_dct4_q31.c ****     *pbuff++ = *pS1++;
 149:Source\TransformFunctions/arm_dct4_q31.c ****     *pbuff++ = *pS1++;
 150:Source\TransformFunctions/arm_dct4_q31.c ****     *pbuff++ = *pS1++;
 151:Source\TransformFunctions/arm_dct4_q31.c **** 
 152:Source\TransformFunctions/arm_dct4_q31.c ****     /* Decrement the loop counter */
 153:Source\TransformFunctions/arm_dct4_q31.c ****     i--;
 154:Source\TransformFunctions/arm_dct4_q31.c ****   } while (i > 0u);
 155:Source\TransformFunctions/arm_dct4_q31.c **** 
 156:Source\TransformFunctions/arm_dct4_q31.c **** 
 157:Source\TransformFunctions/arm_dct4_q31.c ****   /* ---------------------------------------------------------
 158:Source\TransformFunctions/arm_dct4_q31.c ****    *     Step2: Calculate RFFT for N-point input
 159:Source\TransformFunctions/arm_dct4_q31.c ****    * ---------------------------------------------------------- */
 160:Source\TransformFunctions/arm_dct4_q31.c ****   /* pInlineBuffer is real input of length N , pState is the complex output of length 2N */
 161:Source\TransformFunctions/arm_dct4_q31.c ****   arm_rfft_q31(S->pRfft, pInlineBuffer, pState);
 162:Source\TransformFunctions/arm_dct4_q31.c **** 
 163:Source\TransformFunctions/arm_dct4_q31.c ****   /*----------------------------------------------------------------------
 164:Source\TransformFunctions/arm_dct4_q31.c ****    *  Step3: Multiply the FFT output with the weights.
 165:Source\TransformFunctions/arm_dct4_q31.c ****    *----------------------------------------------------------------------*/
 166:Source\TransformFunctions/arm_dct4_q31.c ****   arm_cmplx_mult_cmplx_q31(pState, weights, pState, S->N);
 167:Source\TransformFunctions/arm_dct4_q31.c **** 
 168:Source\TransformFunctions/arm_dct4_q31.c ****   /* The output of complex multiplication is in 3.29 format.
 169:Source\TransformFunctions/arm_dct4_q31.c ****    * Hence changing the format of N (i.e. 2*N elements) complex numbers to 1.31 format by shifting 
 170:Source\TransformFunctions/arm_dct4_q31.c ****   arm_shift_q31(pState, 2, pState, S->N * 2);
 171:Source\TransformFunctions/arm_dct4_q31.c **** 
 172:Source\TransformFunctions/arm_dct4_q31.c ****   /* ----------- Post-processing ---------- */
 173:Source\TransformFunctions/arm_dct4_q31.c ****   /* DCT-IV can be obtained from DCT-II by the equation,
 174:Source\TransformFunctions/arm_dct4_q31.c ****    *       Y4(k) = Y2(k) - Y4(k-1) and Y4(-1) = Y4(0)
 175:Source\TransformFunctions/arm_dct4_q31.c ****    *       Hence, Y4(0) = Y2(0)/2  */
 176:Source\TransformFunctions/arm_dct4_q31.c ****   /* Getting only real part from the output and Converting to DCT-IV */
 177:Source\TransformFunctions/arm_dct4_q31.c **** 
 178:Source\TransformFunctions/arm_dct4_q31.c ****   /* Initializing the loop counter to N >> 2 for loop unrolling by 4 */
 179:Source\TransformFunctions/arm_dct4_q31.c ****   i = (S->N - 1u) >> 2u;
 180:Source\TransformFunctions/arm_dct4_q31.c **** 
 181:Source\TransformFunctions/arm_dct4_q31.c ****   /* pbuff initialized to input buffer. */
 182:Source\TransformFunctions/arm_dct4_q31.c ****   pbuff = pInlineBuffer;
 183:Source\TransformFunctions/arm_dct4_q31.c **** 
 184:Source\TransformFunctions/arm_dct4_q31.c ****   /* pS1 initialized to pState */
 185:Source\TransformFunctions/arm_dct4_q31.c ****   pS1 = pState;
 186:Source\TransformFunctions/arm_dct4_q31.c **** 
 187:Source\TransformFunctions/arm_dct4_q31.c ****   /* Calculating Y4(0) from Y2(0) using Y4(0) = Y2(0)/2 */
 188:Source\TransformFunctions/arm_dct4_q31.c ****   in = *pS1++ >> 1u;
 189:Source\TransformFunctions/arm_dct4_q31.c ****   /* input buffer acts as inplace, so output values are stored in the input itself. */
 190:Source\TransformFunctions/arm_dct4_q31.c ****   *pbuff++ = in;
 191:Source\TransformFunctions/arm_dct4_q31.c **** 
 192:Source\TransformFunctions/arm_dct4_q31.c ****   /* pState pointer is incremented twice as the real values are located alternatively in the array 
 193:Source\TransformFunctions/arm_dct4_q31.c ****   pS1++;
 194:Source\TransformFunctions/arm_dct4_q31.c **** 
 195:Source\TransformFunctions/arm_dct4_q31.c ****   /* First part of the processing with loop unrolling.  Compute 4 outputs at a time.
 196:Source\TransformFunctions/arm_dct4_q31.c ****    ** a second loop below computes the remaining 1 to 3 samples. */
ARM GAS  C:\Users\fneves\AppData\Local\Temp\ccAJPHaO.s 			page 6


 197:Source\TransformFunctions/arm_dct4_q31.c ****   do
 198:Source\TransformFunctions/arm_dct4_q31.c ****   {
 199:Source\TransformFunctions/arm_dct4_q31.c ****     /* Calculating Y4(1) to Y4(N-1) from Y2 using equation Y4(k) = Y2(k) - Y4(k-1) */
 200:Source\TransformFunctions/arm_dct4_q31.c ****     /* pState pointer (pS1) is incremented twice as the real values are located alternatively in th
 201:Source\TransformFunctions/arm_dct4_q31.c ****     in = *pS1++ - in;
 202:Source\TransformFunctions/arm_dct4_q31.c ****     *pbuff++ = in;
 203:Source\TransformFunctions/arm_dct4_q31.c ****     /* points to the next real value */
 204:Source\TransformFunctions/arm_dct4_q31.c ****     pS1++;
 205:Source\TransformFunctions/arm_dct4_q31.c **** 
 206:Source\TransformFunctions/arm_dct4_q31.c ****     in = *pS1++ - in;
 207:Source\TransformFunctions/arm_dct4_q31.c ****     *pbuff++ = in;
 208:Source\TransformFunctions/arm_dct4_q31.c ****     pS1++;
 209:Source\TransformFunctions/arm_dct4_q31.c **** 
 210:Source\TransformFunctions/arm_dct4_q31.c ****     in = *pS1++ - in;
 211:Source\TransformFunctions/arm_dct4_q31.c ****     *pbuff++ = in;
 212:Source\TransformFunctions/arm_dct4_q31.c ****     pS1++;
 213:Source\TransformFunctions/arm_dct4_q31.c **** 
 214:Source\TransformFunctions/arm_dct4_q31.c ****     in = *pS1++ - in;
 215:Source\TransformFunctions/arm_dct4_q31.c ****     *pbuff++ = in;
 216:Source\TransformFunctions/arm_dct4_q31.c ****     pS1++;
 217:Source\TransformFunctions/arm_dct4_q31.c **** 
 218:Source\TransformFunctions/arm_dct4_q31.c ****     /* Decrement the loop counter */
 219:Source\TransformFunctions/arm_dct4_q31.c ****     i--;
 220:Source\TransformFunctions/arm_dct4_q31.c ****   } while (i > 0u);
 221:Source\TransformFunctions/arm_dct4_q31.c **** 
 222:Source\TransformFunctions/arm_dct4_q31.c ****   /* If the blockSize is not a multiple of 4, compute any remaining output samples here.
 223:Source\TransformFunctions/arm_dct4_q31.c ****    ** No loop unrolling is used. */
 224:Source\TransformFunctions/arm_dct4_q31.c ****   i = (S->N - 1u) % 0x4u;
 225:Source\TransformFunctions/arm_dct4_q31.c **** 
 226:Source\TransformFunctions/arm_dct4_q31.c ****   while (i > 0u)
 227:Source\TransformFunctions/arm_dct4_q31.c ****   {
 228:Source\TransformFunctions/arm_dct4_q31.c ****     /* Calculating Y4(1) to Y4(N-1) from Y2 using equation Y4(k) = Y2(k) - Y4(k-1) */
 229:Source\TransformFunctions/arm_dct4_q31.c ****     /* pState pointer (pS1) is incremented twice as the real values are located alternatively in th
 230:Source\TransformFunctions/arm_dct4_q31.c ****     in = *pS1++ - in;
 231:Source\TransformFunctions/arm_dct4_q31.c ****     *pbuff++ = in;
 232:Source\TransformFunctions/arm_dct4_q31.c ****     /* points to the next real value */
 233:Source\TransformFunctions/arm_dct4_q31.c ****     pS1++;
 234:Source\TransformFunctions/arm_dct4_q31.c **** 
 235:Source\TransformFunctions/arm_dct4_q31.c ****     /* Decrement the loop counter */
 236:Source\TransformFunctions/arm_dct4_q31.c ****     i--;
 237:Source\TransformFunctions/arm_dct4_q31.c ****   }
 238:Source\TransformFunctions/arm_dct4_q31.c **** 
 239:Source\TransformFunctions/arm_dct4_q31.c **** 
 240:Source\TransformFunctions/arm_dct4_q31.c ****         /*------------ Normalizing the output by multiplying with the normalizing factor ----------
 241:Source\TransformFunctions/arm_dct4_q31.c **** 
 242:Source\TransformFunctions/arm_dct4_q31.c ****   /* Initializing the loop counter to N/4 instead of N for loop unrolling */
 243:Source\TransformFunctions/arm_dct4_q31.c ****   i = S->N >> 2u;
 244:Source\TransformFunctions/arm_dct4_q31.c **** 
 245:Source\TransformFunctions/arm_dct4_q31.c ****   /* pbuff initialized to the pInlineBuffer(now contains the output values) */
 246:Source\TransformFunctions/arm_dct4_q31.c ****   pbuff = pInlineBuffer;
 247:Source\TransformFunctions/arm_dct4_q31.c **** 
 248:Source\TransformFunctions/arm_dct4_q31.c ****   /* Processing with loop unrolling 4 times as N is always multiple of 4.  Compute 4 outputs at a t
 249:Source\TransformFunctions/arm_dct4_q31.c ****   do
 250:Source\TransformFunctions/arm_dct4_q31.c ****   {
 251:Source\TransformFunctions/arm_dct4_q31.c ****     /* Multiplying pInlineBuffer with the normalizing factor sqrt(2/N) */
 252:Source\TransformFunctions/arm_dct4_q31.c ****     in = *pbuff;
 253:Source\TransformFunctions/arm_dct4_q31.c ****     *pbuff++ = ((q31_t) (((q63_t) in * S->normalize) >> 31));
ARM GAS  C:\Users\fneves\AppData\Local\Temp\ccAJPHaO.s 			page 7


 254:Source\TransformFunctions/arm_dct4_q31.c **** 
 255:Source\TransformFunctions/arm_dct4_q31.c ****     in = *pbuff;
 256:Source\TransformFunctions/arm_dct4_q31.c ****     *pbuff++ = ((q31_t) (((q63_t) in * S->normalize) >> 31));
 257:Source\TransformFunctions/arm_dct4_q31.c **** 
 258:Source\TransformFunctions/arm_dct4_q31.c ****     in = *pbuff;
 259:Source\TransformFunctions/arm_dct4_q31.c ****     *pbuff++ = ((q31_t) (((q63_t) in * S->normalize) >> 31));
 260:Source\TransformFunctions/arm_dct4_q31.c **** 
 261:Source\TransformFunctions/arm_dct4_q31.c ****     in = *pbuff;
 262:Source\TransformFunctions/arm_dct4_q31.c ****     *pbuff++ = ((q31_t) (((q63_t) in * S->normalize) >> 31));
 263:Source\TransformFunctions/arm_dct4_q31.c **** 
 264:Source\TransformFunctions/arm_dct4_q31.c ****     /* Decrement the loop counter */
 265:Source\TransformFunctions/arm_dct4_q31.c ****     i--;
 266:Source\TransformFunctions/arm_dct4_q31.c ****   } while (i > 0u);
 267:Source\TransformFunctions/arm_dct4_q31.c **** 
 268:Source\TransformFunctions/arm_dct4_q31.c **** 
 269:Source\TransformFunctions/arm_dct4_q31.c **** #else
 270:Source\TransformFunctions/arm_dct4_q31.c **** 
 271:Source\TransformFunctions/arm_dct4_q31.c ****   /* Run the below code for Cortex-M0 */
 272:Source\TransformFunctions/arm_dct4_q31.c **** 
 273:Source\TransformFunctions/arm_dct4_q31.c ****   /* Initializing the loop counter to N/2 */
 274:Source\TransformFunctions/arm_dct4_q31.c ****   i = S->Nby2;
  90              		.loc 1 274 0
  91 0060 2E23     		mov	r3, #46
  92 0062 1022     		mov	r2, #16
  93 0064 9446     		mov	ip, r2
  94 0066 BC44     		add	ip, ip, r7
  95 0068 6344     		add	r3, r3, ip
  96 006a FA69     		ldr	r2, [r7, #28]
  97 006c 5288     		ldrh	r2, [r2, #2]
  98 006e 1A80     		strh	r2, [r3]
  99              	.L2:
 275:Source\TransformFunctions/arm_dct4_q31.c **** 
 276:Source\TransformFunctions/arm_dct4_q31.c ****   do
 277:Source\TransformFunctions/arm_dct4_q31.c ****   {
 278:Source\TransformFunctions/arm_dct4_q31.c ****     /* Re-ordering of even and odd elements */
 279:Source\TransformFunctions/arm_dct4_q31.c ****     /* pState[i] =  pInlineBuffer[2*i] */
 280:Source\TransformFunctions/arm_dct4_q31.c ****     *pS1++ = *pbuff++;
 100              		.loc 1 280 0 discriminator 1
 101 0070 BB6B     		ldr	r3, [r7, #56]
 102 0072 1A1D     		add	r2, r3, #4
 103 0074 BA63     		str	r2, [r7, #56]
 104 0076 3A6B     		ldr	r2, [r7, #48]
 105 0078 111D     		add	r1, r2, #4
 106 007a 3963     		str	r1, [r7, #48]
 107 007c 1268     		ldr	r2, [r2]
 108 007e 1A60     		str	r2, [r3]
 281:Source\TransformFunctions/arm_dct4_q31.c ****     /* pState[N-i-1] = pInlineBuffer[2*i+1] */
 282:Source\TransformFunctions/arm_dct4_q31.c ****     *pS2-- = *pbuff++;
 109              		.loc 1 282 0 discriminator 1
 110 0080 7B6B     		ldr	r3, [r7, #52]
 111 0082 1A1F     		sub	r2, r3, #4
 112 0084 7A63     		str	r2, [r7, #52]
 113 0086 3A6B     		ldr	r2, [r7, #48]
 114 0088 111D     		add	r1, r2, #4
 115 008a 3963     		str	r1, [r7, #48]
 116 008c 1268     		ldr	r2, [r2]
 117 008e 1A60     		str	r2, [r3]
ARM GAS  C:\Users\fneves\AppData\Local\Temp\ccAJPHaO.s 			page 8


 283:Source\TransformFunctions/arm_dct4_q31.c **** 
 284:Source\TransformFunctions/arm_dct4_q31.c ****     /* Decrement the loop counter */
 285:Source\TransformFunctions/arm_dct4_q31.c ****     i--;
 118              		.loc 1 285 0 discriminator 1
 119 0090 2E23     		mov	r3, #46
 120 0092 1022     		mov	r2, #16
 121 0094 9446     		mov	ip, r2
 122 0096 BC44     		add	ip, ip, r7
 123 0098 6344     		add	r3, r3, ip
 124 009a 1A88     		ldrh	r2, [r3]
 125 009c 2E23     		mov	r3, #46
 126 009e 1021     		mov	r1, #16
 127 00a0 8C46     		mov	ip, r1
 128 00a2 BC44     		add	ip, ip, r7
 129 00a4 6344     		add	r3, r3, ip
 130 00a6 013A     		sub	r2, r2, #1
 131 00a8 1A80     		strh	r2, [r3]
 286:Source\TransformFunctions/arm_dct4_q31.c ****   } while (i > 0u);
 132              		.loc 1 286 0 discriminator 1
 133 00aa 2E23     		mov	r3, #46
 134 00ac 1022     		mov	r2, #16
 135 00ae 9446     		mov	ip, r2
 136 00b0 BC44     		add	ip, ip, r7
 137 00b2 6344     		add	r3, r3, ip
 138 00b4 1B88     		ldrh	r3, [r3]
 139 00b6 002B     		cmp	r3, #0
 140 00b8 DAD1     		bne	.L2
 287:Source\TransformFunctions/arm_dct4_q31.c **** 
 288:Source\TransformFunctions/arm_dct4_q31.c ****   /* pbuff initialized to input buffer */
 289:Source\TransformFunctions/arm_dct4_q31.c ****   pbuff = pInlineBuffer;
 141              		.loc 1 289 0
 142 00ba 7B69     		ldr	r3, [r7, #20]
 143 00bc 3B63     		str	r3, [r7, #48]
 290:Source\TransformFunctions/arm_dct4_q31.c **** 
 291:Source\TransformFunctions/arm_dct4_q31.c ****   /* pS1 initialized to pState */
 292:Source\TransformFunctions/arm_dct4_q31.c ****   pS1 = pState;
 144              		.loc 1 292 0
 145 00be BB69     		ldr	r3, [r7, #24]
 146 00c0 BB63     		str	r3, [r7, #56]
 293:Source\TransformFunctions/arm_dct4_q31.c **** 
 294:Source\TransformFunctions/arm_dct4_q31.c ****   /* Initializing the loop counter */
 295:Source\TransformFunctions/arm_dct4_q31.c ****   i = S->N;
 147              		.loc 1 295 0
 148 00c2 2E23     		mov	r3, #46
 149 00c4 1022     		mov	r2, #16
 150 00c6 9446     		mov	ip, r2
 151 00c8 BC44     		add	ip, ip, r7
 152 00ca 6344     		add	r3, r3, ip
 153 00cc FA69     		ldr	r2, [r7, #28]
 154 00ce 1288     		ldrh	r2, [r2]
 155 00d0 1A80     		strh	r2, [r3]
 156              	.L3:
 296:Source\TransformFunctions/arm_dct4_q31.c **** 
 297:Source\TransformFunctions/arm_dct4_q31.c ****   do
 298:Source\TransformFunctions/arm_dct4_q31.c ****   {
 299:Source\TransformFunctions/arm_dct4_q31.c ****     /* Writing the re-ordered output back to inplace input buffer */
 300:Source\TransformFunctions/arm_dct4_q31.c ****     *pbuff++ = *pS1++;
ARM GAS  C:\Users\fneves\AppData\Local\Temp\ccAJPHaO.s 			page 9


 157              		.loc 1 300 0 discriminator 1
 158 00d2 3B6B     		ldr	r3, [r7, #48]
 159 00d4 1A1D     		add	r2, r3, #4
 160 00d6 3A63     		str	r2, [r7, #48]
 161 00d8 BA6B     		ldr	r2, [r7, #56]
 162 00da 111D     		add	r1, r2, #4
 163 00dc B963     		str	r1, [r7, #56]
 164 00de 1268     		ldr	r2, [r2]
 165 00e0 1A60     		str	r2, [r3]
 301:Source\TransformFunctions/arm_dct4_q31.c **** 
 302:Source\TransformFunctions/arm_dct4_q31.c ****     /* Decrement the loop counter */
 303:Source\TransformFunctions/arm_dct4_q31.c ****     i--;
 166              		.loc 1 303 0 discriminator 1
 167 00e2 2E23     		mov	r3, #46
 168 00e4 1022     		mov	r2, #16
 169 00e6 9446     		mov	ip, r2
 170 00e8 BC44     		add	ip, ip, r7
 171 00ea 6344     		add	r3, r3, ip
 172 00ec 1A88     		ldrh	r2, [r3]
 173 00ee 2E23     		mov	r3, #46
 174 00f0 1021     		mov	r1, #16
 175 00f2 8C46     		mov	ip, r1
 176 00f4 BC44     		add	ip, ip, r7
 177 00f6 6344     		add	r3, r3, ip
 178 00f8 013A     		sub	r2, r2, #1
 179 00fa 1A80     		strh	r2, [r3]
 304:Source\TransformFunctions/arm_dct4_q31.c ****   } while (i > 0u);
 180              		.loc 1 304 0 discriminator 1
 181 00fc 2E23     		mov	r3, #46
 182 00fe 1022     		mov	r2, #16
 183 0100 9446     		mov	ip, r2
 184 0102 BC44     		add	ip, ip, r7
 185 0104 6344     		add	r3, r3, ip
 186 0106 1B88     		ldrh	r3, [r3]
 187 0108 002B     		cmp	r3, #0
 188 010a E2D1     		bne	.L3
 305:Source\TransformFunctions/arm_dct4_q31.c **** 
 306:Source\TransformFunctions/arm_dct4_q31.c **** 
 307:Source\TransformFunctions/arm_dct4_q31.c ****   /* ---------------------------------------------------------
 308:Source\TransformFunctions/arm_dct4_q31.c ****    *     Step2: Calculate RFFT for N-point input
 309:Source\TransformFunctions/arm_dct4_q31.c ****    * ---------------------------------------------------------- */
 310:Source\TransformFunctions/arm_dct4_q31.c ****   /* pInlineBuffer is real input of length N , pState is the complex output of length 2N */
 311:Source\TransformFunctions/arm_dct4_q31.c ****   arm_rfft_q31(S->pRfft, pInlineBuffer, pState);
 189              		.loc 1 311 0
 190 010c FB69     		ldr	r3, [r7, #28]
 191 010e 1969     		ldr	r1, [r3, #16]
 192 0110 7A69     		ldr	r2, [r7, #20]
 193 0112 BB69     		ldr	r3, [r7, #24]
 194 0114 081C     		mov	r0, r1
 195 0116 111C     		mov	r1, r2
 196 0118 1A1C     		mov	r2, r3
 197 011a FFF7FEFF 		bl	arm_rfft_q31
 312:Source\TransformFunctions/arm_dct4_q31.c **** 
 313:Source\TransformFunctions/arm_dct4_q31.c ****   /*----------------------------------------------------------------------
 314:Source\TransformFunctions/arm_dct4_q31.c ****    *  Step3: Multiply the FFT output with the weights.
 315:Source\TransformFunctions/arm_dct4_q31.c ****    *----------------------------------------------------------------------*/
 316:Source\TransformFunctions/arm_dct4_q31.c ****   arm_cmplx_mult_cmplx_q31(pState, weights, pState, S->N);
ARM GAS  C:\Users\fneves\AppData\Local\Temp\ccAJPHaO.s 			page 10


 198              		.loc 1 316 0
 199 011e FB69     		ldr	r3, [r7, #28]
 200 0120 1B88     		ldrh	r3, [r3]
 201 0122 1E1C     		mov	r6, r3
 202 0124 B969     		ldr	r1, [r7, #24]
 203 0126 BA6A     		ldr	r2, [r7, #40]
 204 0128 BB69     		ldr	r3, [r7, #24]
 205 012a 081C     		mov	r0, r1
 206 012c 111C     		mov	r1, r2
 207 012e 1A1C     		mov	r2, r3
 208 0130 331C     		mov	r3, r6
 209 0132 FFF7FEFF 		bl	arm_cmplx_mult_cmplx_q31
 317:Source\TransformFunctions/arm_dct4_q31.c **** 
 318:Source\TransformFunctions/arm_dct4_q31.c ****   /* The output of complex multiplication is in 3.29 format.
 319:Source\TransformFunctions/arm_dct4_q31.c ****    * Hence changing the format of N (i.e. 2*N elements) complex numbers to 1.31 format by shifting 
 320:Source\TransformFunctions/arm_dct4_q31.c ****   arm_shift_q31(pState, 2, pState, S->N * 2);
 210              		.loc 1 320 0
 211 0136 FB69     		ldr	r3, [r7, #28]
 212 0138 1B88     		ldrh	r3, [r3]
 213 013a 5B00     		lsl	r3, r3, #1
 214 013c 1E1C     		mov	r6, r3
 215 013e BA69     		ldr	r2, [r7, #24]
 216 0140 BB69     		ldr	r3, [r7, #24]
 217 0142 101C     		mov	r0, r2
 218 0144 0221     		mov	r1, #2
 219 0146 1A1C     		mov	r2, r3
 220 0148 331C     		mov	r3, r6
 221 014a FFF7FEFF 		bl	arm_shift_q31
 321:Source\TransformFunctions/arm_dct4_q31.c **** 
 322:Source\TransformFunctions/arm_dct4_q31.c ****   /* ----------- Post-processing ---------- */
 323:Source\TransformFunctions/arm_dct4_q31.c ****   /* DCT-IV can be obtained from DCT-II by the equation,
 324:Source\TransformFunctions/arm_dct4_q31.c ****    *       Y4(k) = Y2(k) - Y4(k-1) and Y4(-1) = Y4(0)
 325:Source\TransformFunctions/arm_dct4_q31.c ****    *       Hence, Y4(0) = Y2(0)/2  */
 326:Source\TransformFunctions/arm_dct4_q31.c ****   /* Getting only real part from the output and Converting to DCT-IV */
 327:Source\TransformFunctions/arm_dct4_q31.c **** 
 328:Source\TransformFunctions/arm_dct4_q31.c ****   /* pbuff initialized to input buffer. */
 329:Source\TransformFunctions/arm_dct4_q31.c ****   pbuff = pInlineBuffer;
 222              		.loc 1 329 0
 223 014e 7B69     		ldr	r3, [r7, #20]
 224 0150 3B63     		str	r3, [r7, #48]
 330:Source\TransformFunctions/arm_dct4_q31.c **** 
 331:Source\TransformFunctions/arm_dct4_q31.c ****   /* pS1 initialized to pState */
 332:Source\TransformFunctions/arm_dct4_q31.c ****   pS1 = pState;
 225              		.loc 1 332 0
 226 0152 BB69     		ldr	r3, [r7, #24]
 227 0154 BB63     		str	r3, [r7, #56]
 333:Source\TransformFunctions/arm_dct4_q31.c **** 
 334:Source\TransformFunctions/arm_dct4_q31.c ****   /* Calculating Y4(0) from Y2(0) using Y4(0) = Y2(0)/2 */
 335:Source\TransformFunctions/arm_dct4_q31.c ****   in = *pS1++ >> 1u;
 228              		.loc 1 335 0
 229 0156 BB6B     		ldr	r3, [r7, #56]
 230 0158 1A1D     		add	r2, r3, #4
 231 015a BA63     		str	r2, [r7, #56]
 232 015c 1B68     		ldr	r3, [r3]
 233 015e 5B10     		asr	r3, r3, #1
 234 0160 FB62     		str	r3, [r7, #44]
 336:Source\TransformFunctions/arm_dct4_q31.c ****   /* input buffer acts as inplace, so output values are stored in the input itself. */
ARM GAS  C:\Users\fneves\AppData\Local\Temp\ccAJPHaO.s 			page 11


 337:Source\TransformFunctions/arm_dct4_q31.c ****   *pbuff++ = in;
 235              		.loc 1 337 0
 236 0162 3B6B     		ldr	r3, [r7, #48]
 237 0164 1A1D     		add	r2, r3, #4
 238 0166 3A63     		str	r2, [r7, #48]
 239 0168 FA6A     		ldr	r2, [r7, #44]
 240 016a 1A60     		str	r2, [r3]
 338:Source\TransformFunctions/arm_dct4_q31.c **** 
 339:Source\TransformFunctions/arm_dct4_q31.c ****   /* pState pointer is incremented twice as the real values are located alternatively in the array 
 340:Source\TransformFunctions/arm_dct4_q31.c ****   pS1++;
 241              		.loc 1 340 0
 242 016c BB6B     		ldr	r3, [r7, #56]
 243 016e 0433     		add	r3, r3, #4
 244 0170 BB63     		str	r3, [r7, #56]
 341:Source\TransformFunctions/arm_dct4_q31.c **** 
 342:Source\TransformFunctions/arm_dct4_q31.c ****   /* Initializing the loop counter */
 343:Source\TransformFunctions/arm_dct4_q31.c ****   i = (S->N - 1u);
 245              		.loc 1 343 0
 246 0172 FB69     		ldr	r3, [r7, #28]
 247 0174 1A88     		ldrh	r2, [r3]
 248 0176 2E23     		mov	r3, #46
 249 0178 1021     		mov	r1, #16
 250 017a 8C46     		mov	ip, r1
 251 017c BC44     		add	ip, ip, r7
 252 017e 6344     		add	r3, r3, ip
 253 0180 013A     		sub	r2, r2, #1
 254 0182 1A80     		strh	r2, [r3]
 344:Source\TransformFunctions/arm_dct4_q31.c **** 
 345:Source\TransformFunctions/arm_dct4_q31.c ****   while (i > 0u)
 255              		.loc 1 345 0
 256 0184 1BE0     		b	.L4
 257              	.L5:
 346:Source\TransformFunctions/arm_dct4_q31.c ****   {
 347:Source\TransformFunctions/arm_dct4_q31.c ****     /* Calculating Y4(1) to Y4(N-1) from Y2 using equation Y4(k) = Y2(k) - Y4(k-1) */
 348:Source\TransformFunctions/arm_dct4_q31.c ****     /* pState pointer (pS1) is incremented twice as the real values are located alternatively in th
 349:Source\TransformFunctions/arm_dct4_q31.c ****     in = *pS1++ - in;
 258              		.loc 1 349 0
 259 0186 BB6B     		ldr	r3, [r7, #56]
 260 0188 1A1D     		add	r2, r3, #4
 261 018a BA63     		str	r2, [r7, #56]
 262 018c 1A68     		ldr	r2, [r3]
 263 018e FB6A     		ldr	r3, [r7, #44]
 264 0190 D31A     		sub	r3, r2, r3
 265 0192 FB62     		str	r3, [r7, #44]
 350:Source\TransformFunctions/arm_dct4_q31.c ****     *pbuff++ = in;
 266              		.loc 1 350 0
 267 0194 3B6B     		ldr	r3, [r7, #48]
 268 0196 1A1D     		add	r2, r3, #4
 269 0198 3A63     		str	r2, [r7, #48]
 270 019a FA6A     		ldr	r2, [r7, #44]
 271 019c 1A60     		str	r2, [r3]
 351:Source\TransformFunctions/arm_dct4_q31.c ****     /* points to the next real value */
 352:Source\TransformFunctions/arm_dct4_q31.c ****     pS1++;
 272              		.loc 1 352 0
 273 019e BB6B     		ldr	r3, [r7, #56]
 274 01a0 0433     		add	r3, r3, #4
 275 01a2 BB63     		str	r3, [r7, #56]
ARM GAS  C:\Users\fneves\AppData\Local\Temp\ccAJPHaO.s 			page 12


 353:Source\TransformFunctions/arm_dct4_q31.c **** 
 354:Source\TransformFunctions/arm_dct4_q31.c ****     /* Decrement the loop counter */
 355:Source\TransformFunctions/arm_dct4_q31.c ****     i--;
 276              		.loc 1 355 0
 277 01a4 2E23     		mov	r3, #46
 278 01a6 1022     		mov	r2, #16
 279 01a8 9446     		mov	ip, r2
 280 01aa BC44     		add	ip, ip, r7
 281 01ac 6344     		add	r3, r3, ip
 282 01ae 1A88     		ldrh	r2, [r3]
 283 01b0 2E23     		mov	r3, #46
 284 01b2 1021     		mov	r1, #16
 285 01b4 8C46     		mov	ip, r1
 286 01b6 BC44     		add	ip, ip, r7
 287 01b8 6344     		add	r3, r3, ip
 288 01ba 013A     		sub	r2, r2, #1
 289 01bc 1A80     		strh	r2, [r3]
 290              	.L4:
 345:Source\TransformFunctions/arm_dct4_q31.c ****   {
 291              		.loc 1 345 0
 292 01be 2E23     		mov	r3, #46
 293 01c0 1022     		mov	r2, #16
 294 01c2 9446     		mov	ip, r2
 295 01c4 BC44     		add	ip, ip, r7
 296 01c6 6344     		add	r3, r3, ip
 297 01c8 1B88     		ldrh	r3, [r3]
 298 01ca 002B     		cmp	r3, #0
 299 01cc DBD1     		bne	.L5
 356:Source\TransformFunctions/arm_dct4_q31.c ****   }
 357:Source\TransformFunctions/arm_dct4_q31.c **** 
 358:Source\TransformFunctions/arm_dct4_q31.c **** 
 359:Source\TransformFunctions/arm_dct4_q31.c ****         /*------------ Normalizing the output by multiplying with the normalizing factor ----------
 360:Source\TransformFunctions/arm_dct4_q31.c **** 
 361:Source\TransformFunctions/arm_dct4_q31.c ****   /* Initializing the loop counter */
 362:Source\TransformFunctions/arm_dct4_q31.c ****   i = S->N;
 300              		.loc 1 362 0
 301 01ce 2E23     		mov	r3, #46
 302 01d0 1022     		mov	r2, #16
 303 01d2 9446     		mov	ip, r2
 304 01d4 BC44     		add	ip, ip, r7
 305 01d6 6344     		add	r3, r3, ip
 306 01d8 FA69     		ldr	r2, [r7, #28]
 307 01da 1288     		ldrh	r2, [r2]
 308 01dc 1A80     		strh	r2, [r3]
 363:Source\TransformFunctions/arm_dct4_q31.c **** 
 364:Source\TransformFunctions/arm_dct4_q31.c ****   /* pbuff initialized to the pInlineBuffer(now contains the output values) */
 365:Source\TransformFunctions/arm_dct4_q31.c ****   pbuff = pInlineBuffer;
 309              		.loc 1 365 0
 310 01de 7B69     		ldr	r3, [r7, #20]
 311 01e0 3B63     		str	r3, [r7, #48]
 312              	.L6:
 366:Source\TransformFunctions/arm_dct4_q31.c **** 
 367:Source\TransformFunctions/arm_dct4_q31.c ****   do
 368:Source\TransformFunctions/arm_dct4_q31.c ****   {
 369:Source\TransformFunctions/arm_dct4_q31.c ****     /* Multiplying pInlineBuffer with the normalizing factor sqrt(2/N) */
 370:Source\TransformFunctions/arm_dct4_q31.c ****     in = *pbuff;
 313              		.loc 1 370 0 discriminator 1
ARM GAS  C:\Users\fneves\AppData\Local\Temp\ccAJPHaO.s 			page 13


 314 01e2 3B6B     		ldr	r3, [r7, #48]
 315 01e4 1B68     		ldr	r3, [r3]
 316 01e6 FB62     		str	r3, [r7, #44]
 371:Source\TransformFunctions/arm_dct4_q31.c ****     *pbuff++ = ((q31_t) (((q63_t) in * S->normalize) >> 31));
 317              		.loc 1 371 0 discriminator 1
 318 01e8 3E6B     		ldr	r6, [r7, #48]
 319 01ea 331D     		add	r3, r6, #4
 320 01ec 3B63     		str	r3, [r7, #48]
 321 01ee FB6A     		ldr	r3, [r7, #44]
 322 01f0 BB60     		str	r3, [r7, #8]
 323 01f2 DB17     		asr	r3, r3, #31
 324 01f4 FB60     		str	r3, [r7, #12]
 325 01f6 FB69     		ldr	r3, [r7, #28]
 326 01f8 5B68     		ldr	r3, [r3, #4]
 327 01fa 3B60     		str	r3, [r7]
 328 01fc DB17     		asr	r3, r3, #31
 329 01fe 7B60     		str	r3, [r7, #4]
 330 0200 B868     		ldr	r0, [r7, #8]
 331 0202 F968     		ldr	r1, [r7, #12]
 332 0204 3A68     		ldr	r2, [r7]
 333 0206 7B68     		ldr	r3, [r7, #4]
 334 0208 FFF7FEFF 		bl	__aeabi_lmul
 335 020c 021C     		mov	r2, r0
 336 020e 0B1C     		mov	r3, r1
 337 0210 5900     		lsl	r1, r3, #1
 338 0212 D40F     		lsr	r4, r2, #31
 339 0214 0C43     		orr	r4, r1
 340 0216 DD17     		asr	r5, r3, #31
 341 0218 231C     		mov	r3, r4
 342 021a 3360     		str	r3, [r6]
 372:Source\TransformFunctions/arm_dct4_q31.c **** 
 373:Source\TransformFunctions/arm_dct4_q31.c ****     /* Decrement the loop counter */
 374:Source\TransformFunctions/arm_dct4_q31.c ****     i--;
 343              		.loc 1 374 0 discriminator 1
 344 021c 2E23     		mov	r3, #46
 345 021e 1022     		mov	r2, #16
 346 0220 9446     		mov	ip, r2
 347 0222 BC44     		add	ip, ip, r7
 348 0224 6344     		add	r3, r3, ip
 349 0226 1A88     		ldrh	r2, [r3]
 350 0228 2E23     		mov	r3, #46
 351 022a 1021     		mov	r1, #16
 352 022c 8C46     		mov	ip, r1
 353 022e BC44     		add	ip, ip, r7
 354 0230 6344     		add	r3, r3, ip
 355 0232 013A     		sub	r2, r2, #1
 356 0234 1A80     		strh	r2, [r3]
 375:Source\TransformFunctions/arm_dct4_q31.c ****   } while (i > 0u);
 357              		.loc 1 375 0 discriminator 1
 358 0236 2E23     		mov	r3, #46
 359 0238 1022     		mov	r2, #16
 360 023a 9446     		mov	ip, r2
 361 023c BC44     		add	ip, ip, r7
 362 023e 6344     		add	r3, r3, ip
 363 0240 1B88     		ldrh	r3, [r3]
 364 0242 002B     		cmp	r3, #0
 365 0244 CDD1     		bne	.L6
ARM GAS  C:\Users\fneves\AppData\Local\Temp\ccAJPHaO.s 			page 14


 376:Source\TransformFunctions/arm_dct4_q31.c **** 
 377:Source\TransformFunctions/arm_dct4_q31.c **** #endif /* #if defined (ARM_MATH_DSP) */
 378:Source\TransformFunctions/arm_dct4_q31.c **** 
 379:Source\TransformFunctions/arm_dct4_q31.c **** }
 366              		.loc 1 379 0
 367 0246 BD46     		mov	sp, r7
 368 0248 11B0     		add	sp, sp, #68
 369              		@ sp needed
 370 024a F0BD     		pop	{r4, r5, r6, r7, pc}
 371              	.L8:
 372              		.align	2
 373              	.L7:
 374 024c FFFFFF3F 		.word	1073741823
 375              		.cfi_endproc
 376              	.LFE82:
 377              		.size	arm_dct4_q31, .-arm_dct4_q31
 378              		.text
 379              	.Letext0:
 380              		.file 2 "c:\\program files (x86)\\cypress\\psoc creator\\4.0\\psoc creator\\import\\gnu\\arm\\4.9.
 381              		.file 3 "c:\\program files (x86)\\cypress\\psoc creator\\4.0\\psoc creator\\import\\gnu\\arm\\4.9.
 382              		.file 4 ".\\Include/arm_math.h"