ARM GAS  C:\Users\fneves\AppData\Local\Temp\ccgEoGKF.s 			page 1


   1              		.cpu cortex-m0plus
   2              		.fpu softvfp
   3              		.eabi_attribute 20, 1
   4              		.eabi_attribute 21, 1
   5              		.eabi_attribute 23, 3
   6              		.eabi_attribute 24, 1
   7              		.eabi_attribute 25, 1
   8              		.eabi_attribute 26, 1
   9              		.eabi_attribute 30, 6
  10              		.eabi_attribute 34, 0
  11              		.eabi_attribute 18, 4
  12              		.code	16
  13              		.file	"arm_cmplx_conj_q15.c"
  14              		.text
  15              	.Ltext0:
  16              		.cfi_sections	.debug_frame
  17              		.section	.text.arm_cmplx_conj_q15,"ax",%progbits
  18              		.align	2
  19              		.global	arm_cmplx_conj_q15
  20              		.code	16
  21              		.thumb_func
  22              		.type	arm_cmplx_conj_q15, %function
  23              	arm_cmplx_conj_q15:
  24              	.LFB82:
  25              		.file 1 "Source\\ComplexMathFunctions\\arm_cmplx_conj_q15.c"
   1:Source\ComplexMathFunctions/arm_cmplx_conj_q15.c **** /* ----------------------------------------------------------------------
   2:Source\ComplexMathFunctions/arm_cmplx_conj_q15.c ****  * Project:      CMSIS DSP Library
   3:Source\ComplexMathFunctions/arm_cmplx_conj_q15.c ****  * Title:        arm_cmplx_conj_q15.c
   4:Source\ComplexMathFunctions/arm_cmplx_conj_q15.c ****  * Description:  Q15 complex conjugate
   5:Source\ComplexMathFunctions/arm_cmplx_conj_q15.c ****  *
   6:Source\ComplexMathFunctions/arm_cmplx_conj_q15.c ****  * $Date:        27. January 2017
   7:Source\ComplexMathFunctions/arm_cmplx_conj_q15.c ****  * $Revision:    V.1.5.1
   8:Source\ComplexMathFunctions/arm_cmplx_conj_q15.c ****  *
   9:Source\ComplexMathFunctions/arm_cmplx_conj_q15.c ****  * Target Processor: Cortex-M cores
  10:Source\ComplexMathFunctions/arm_cmplx_conj_q15.c ****  * -------------------------------------------------------------------- */
  11:Source\ComplexMathFunctions/arm_cmplx_conj_q15.c **** /*
  12:Source\ComplexMathFunctions/arm_cmplx_conj_q15.c ****  * Copyright (C) 2010-2017 ARM Limited or its affiliates. All rights reserved.
  13:Source\ComplexMathFunctions/arm_cmplx_conj_q15.c ****  *
  14:Source\ComplexMathFunctions/arm_cmplx_conj_q15.c ****  * SPDX-License-Identifier: Apache-2.0
  15:Source\ComplexMathFunctions/arm_cmplx_conj_q15.c ****  *
  16:Source\ComplexMathFunctions/arm_cmplx_conj_q15.c ****  * Licensed under the Apache License, Version 2.0 (the License); you may
  17:Source\ComplexMathFunctions/arm_cmplx_conj_q15.c ****  * not use this file except in compliance with the License.
  18:Source\ComplexMathFunctions/arm_cmplx_conj_q15.c ****  * You may obtain a copy of the License at
  19:Source\ComplexMathFunctions/arm_cmplx_conj_q15.c ****  *
  20:Source\ComplexMathFunctions/arm_cmplx_conj_q15.c ****  * www.apache.org/licenses/LICENSE-2.0
  21:Source\ComplexMathFunctions/arm_cmplx_conj_q15.c ****  *
  22:Source\ComplexMathFunctions/arm_cmplx_conj_q15.c ****  * Unless required by applicable law or agreed to in writing, software
  23:Source\ComplexMathFunctions/arm_cmplx_conj_q15.c ****  * distributed under the License is distributed on an AS IS BASIS, WITHOUT
  24:Source\ComplexMathFunctions/arm_cmplx_conj_q15.c ****  * WARRANTIES OR CONDITIONS OF ANY KIND, either express or implied.
  25:Source\ComplexMathFunctions/arm_cmplx_conj_q15.c ****  * See the License for the specific language governing permissions and
  26:Source\ComplexMathFunctions/arm_cmplx_conj_q15.c ****  * limitations under the License.
  27:Source\ComplexMathFunctions/arm_cmplx_conj_q15.c ****  */
  28:Source\ComplexMathFunctions/arm_cmplx_conj_q15.c **** 
  29:Source\ComplexMathFunctions/arm_cmplx_conj_q15.c **** #include "arm_math.h"
  30:Source\ComplexMathFunctions/arm_cmplx_conj_q15.c **** 
  31:Source\ComplexMathFunctions/arm_cmplx_conj_q15.c **** /**
  32:Source\ComplexMathFunctions/arm_cmplx_conj_q15.c ****  * @ingroup groupCmplxMath
ARM GAS  C:\Users\fneves\AppData\Local\Temp\ccgEoGKF.s 			page 2


  33:Source\ComplexMathFunctions/arm_cmplx_conj_q15.c ****  */
  34:Source\ComplexMathFunctions/arm_cmplx_conj_q15.c **** 
  35:Source\ComplexMathFunctions/arm_cmplx_conj_q15.c **** /**
  36:Source\ComplexMathFunctions/arm_cmplx_conj_q15.c ****  * @addtogroup cmplx_conj
  37:Source\ComplexMathFunctions/arm_cmplx_conj_q15.c ****  * @{
  38:Source\ComplexMathFunctions/arm_cmplx_conj_q15.c ****  */
  39:Source\ComplexMathFunctions/arm_cmplx_conj_q15.c **** 
  40:Source\ComplexMathFunctions/arm_cmplx_conj_q15.c **** /**
  41:Source\ComplexMathFunctions/arm_cmplx_conj_q15.c ****  * @brief  Q15 complex conjugate.
  42:Source\ComplexMathFunctions/arm_cmplx_conj_q15.c ****  * @param  *pSrc points to the input vector
  43:Source\ComplexMathFunctions/arm_cmplx_conj_q15.c ****  * @param  *pDst points to the output vector
  44:Source\ComplexMathFunctions/arm_cmplx_conj_q15.c ****  * @param  numSamples number of complex samples in each vector
  45:Source\ComplexMathFunctions/arm_cmplx_conj_q15.c ****  * @return none.
  46:Source\ComplexMathFunctions/arm_cmplx_conj_q15.c ****  *
  47:Source\ComplexMathFunctions/arm_cmplx_conj_q15.c ****  * <b>Scaling and Overflow Behavior:</b>
  48:Source\ComplexMathFunctions/arm_cmplx_conj_q15.c ****  * \par
  49:Source\ComplexMathFunctions/arm_cmplx_conj_q15.c ****  * The function uses saturating arithmetic.
  50:Source\ComplexMathFunctions/arm_cmplx_conj_q15.c ****  * The Q15 value -1 (0x8000) will be saturated to the maximum allowable positive value 0x7FFF.
  51:Source\ComplexMathFunctions/arm_cmplx_conj_q15.c ****  */
  52:Source\ComplexMathFunctions/arm_cmplx_conj_q15.c **** 
  53:Source\ComplexMathFunctions/arm_cmplx_conj_q15.c **** void arm_cmplx_conj_q15(
  54:Source\ComplexMathFunctions/arm_cmplx_conj_q15.c ****   q15_t * pSrc,
  55:Source\ComplexMathFunctions/arm_cmplx_conj_q15.c ****   q15_t * pDst,
  56:Source\ComplexMathFunctions/arm_cmplx_conj_q15.c ****   uint32_t numSamples)
  57:Source\ComplexMathFunctions/arm_cmplx_conj_q15.c **** {
  26              		.loc 1 57 0
  27              		.cfi_startproc
  28 0000 80B5     		push	{r7, lr}
  29              		.cfi_def_cfa_offset 8
  30              		.cfi_offset 7, -8
  31              		.cfi_offset 14, -4
  32 0002 86B0     		sub	sp, sp, #24
  33              		.cfi_def_cfa_offset 32
  34 0004 00AF     		add	r7, sp, #0
  35              		.cfi_def_cfa_register 7
  36 0006 F860     		str	r0, [r7, #12]
  37 0008 B960     		str	r1, [r7, #8]
  38 000a 7A60     		str	r2, [r7, #4]
  58:Source\ComplexMathFunctions/arm_cmplx_conj_q15.c **** 
  59:Source\ComplexMathFunctions/arm_cmplx_conj_q15.c **** #if defined (ARM_MATH_DSP)
  60:Source\ComplexMathFunctions/arm_cmplx_conj_q15.c **** 
  61:Source\ComplexMathFunctions/arm_cmplx_conj_q15.c ****   /* Run the below code for Cortex-M4 and Cortex-M3 */
  62:Source\ComplexMathFunctions/arm_cmplx_conj_q15.c ****   uint32_t blkCnt;                               /* loop counter */
  63:Source\ComplexMathFunctions/arm_cmplx_conj_q15.c ****   q31_t in1, in2, in3, in4;
  64:Source\ComplexMathFunctions/arm_cmplx_conj_q15.c ****   q31_t zero = 0;
  65:Source\ComplexMathFunctions/arm_cmplx_conj_q15.c **** 
  66:Source\ComplexMathFunctions/arm_cmplx_conj_q15.c ****   /*loop Unrolling */
  67:Source\ComplexMathFunctions/arm_cmplx_conj_q15.c ****   blkCnt = numSamples >> 2u;
  68:Source\ComplexMathFunctions/arm_cmplx_conj_q15.c **** 
  69:Source\ComplexMathFunctions/arm_cmplx_conj_q15.c ****   /* First part of the processing with loop unrolling.  Compute 4 outputs at a time.
  70:Source\ComplexMathFunctions/arm_cmplx_conj_q15.c ****    ** a second loop below computes the remaining 1 to 3 samples. */
  71:Source\ComplexMathFunctions/arm_cmplx_conj_q15.c ****   while (blkCnt > 0u)
  72:Source\ComplexMathFunctions/arm_cmplx_conj_q15.c ****   {
  73:Source\ComplexMathFunctions/arm_cmplx_conj_q15.c ****     /* C[0]+jC[1] = A[0]+ j (-1) A[1] */
  74:Source\ComplexMathFunctions/arm_cmplx_conj_q15.c ****     /* Calculate Complex Conjugate and then store the results in the destination buffer. */
  75:Source\ComplexMathFunctions/arm_cmplx_conj_q15.c ****     in1 = *__SIMD32(pSrc)++;
  76:Source\ComplexMathFunctions/arm_cmplx_conj_q15.c ****     in2 = *__SIMD32(pSrc)++;
ARM GAS  C:\Users\fneves\AppData\Local\Temp\ccgEoGKF.s 			page 3


  77:Source\ComplexMathFunctions/arm_cmplx_conj_q15.c ****     in3 = *__SIMD32(pSrc)++;
  78:Source\ComplexMathFunctions/arm_cmplx_conj_q15.c ****     in4 = *__SIMD32(pSrc)++;
  79:Source\ComplexMathFunctions/arm_cmplx_conj_q15.c **** 
  80:Source\ComplexMathFunctions/arm_cmplx_conj_q15.c **** #ifndef ARM_MATH_BIG_ENDIAN
  81:Source\ComplexMathFunctions/arm_cmplx_conj_q15.c **** 
  82:Source\ComplexMathFunctions/arm_cmplx_conj_q15.c ****     in1 = __QASX(zero, in1);
  83:Source\ComplexMathFunctions/arm_cmplx_conj_q15.c ****     in2 = __QASX(zero, in2);
  84:Source\ComplexMathFunctions/arm_cmplx_conj_q15.c ****     in3 = __QASX(zero, in3);
  85:Source\ComplexMathFunctions/arm_cmplx_conj_q15.c ****     in4 = __QASX(zero, in4);
  86:Source\ComplexMathFunctions/arm_cmplx_conj_q15.c **** 
  87:Source\ComplexMathFunctions/arm_cmplx_conj_q15.c **** #else
  88:Source\ComplexMathFunctions/arm_cmplx_conj_q15.c **** 
  89:Source\ComplexMathFunctions/arm_cmplx_conj_q15.c ****     in1 = __QSAX(zero, in1);
  90:Source\ComplexMathFunctions/arm_cmplx_conj_q15.c ****     in2 = __QSAX(zero, in2);
  91:Source\ComplexMathFunctions/arm_cmplx_conj_q15.c ****     in3 = __QSAX(zero, in3);
  92:Source\ComplexMathFunctions/arm_cmplx_conj_q15.c ****     in4 = __QSAX(zero, in4);
  93:Source\ComplexMathFunctions/arm_cmplx_conj_q15.c **** 
  94:Source\ComplexMathFunctions/arm_cmplx_conj_q15.c **** #endif /* #ifndef ARM_MATH_BIG_ENDIAN */
  95:Source\ComplexMathFunctions/arm_cmplx_conj_q15.c **** 
  96:Source\ComplexMathFunctions/arm_cmplx_conj_q15.c ****     in1 = ((uint32_t) in1 >> 16) | ((uint32_t) in1 << 16);
  97:Source\ComplexMathFunctions/arm_cmplx_conj_q15.c ****     in2 = ((uint32_t) in2 >> 16) | ((uint32_t) in2 << 16);
  98:Source\ComplexMathFunctions/arm_cmplx_conj_q15.c ****     in3 = ((uint32_t) in3 >> 16) | ((uint32_t) in3 << 16);
  99:Source\ComplexMathFunctions/arm_cmplx_conj_q15.c ****     in4 = ((uint32_t) in4 >> 16) | ((uint32_t) in4 << 16);
 100:Source\ComplexMathFunctions/arm_cmplx_conj_q15.c **** 
 101:Source\ComplexMathFunctions/arm_cmplx_conj_q15.c ****     *__SIMD32(pDst)++ = in1;
 102:Source\ComplexMathFunctions/arm_cmplx_conj_q15.c ****     *__SIMD32(pDst)++ = in2;
 103:Source\ComplexMathFunctions/arm_cmplx_conj_q15.c ****     *__SIMD32(pDst)++ = in3;
 104:Source\ComplexMathFunctions/arm_cmplx_conj_q15.c ****     *__SIMD32(pDst)++ = in4;
 105:Source\ComplexMathFunctions/arm_cmplx_conj_q15.c **** 
 106:Source\ComplexMathFunctions/arm_cmplx_conj_q15.c ****     /* Decrement the loop counter */
 107:Source\ComplexMathFunctions/arm_cmplx_conj_q15.c ****     blkCnt--;
 108:Source\ComplexMathFunctions/arm_cmplx_conj_q15.c ****   }
 109:Source\ComplexMathFunctions/arm_cmplx_conj_q15.c **** 
 110:Source\ComplexMathFunctions/arm_cmplx_conj_q15.c ****   /* If the numSamples is not a multiple of 4, compute any remaining output samples here.
 111:Source\ComplexMathFunctions/arm_cmplx_conj_q15.c ****    ** No loop unrolling is used. */
 112:Source\ComplexMathFunctions/arm_cmplx_conj_q15.c ****   blkCnt = numSamples % 0x4u;
 113:Source\ComplexMathFunctions/arm_cmplx_conj_q15.c **** 
 114:Source\ComplexMathFunctions/arm_cmplx_conj_q15.c ****   while (blkCnt > 0u)
 115:Source\ComplexMathFunctions/arm_cmplx_conj_q15.c ****   {
 116:Source\ComplexMathFunctions/arm_cmplx_conj_q15.c ****     /* C[0]+jC[1] = A[0]+ j (-1) A[1] */
 117:Source\ComplexMathFunctions/arm_cmplx_conj_q15.c ****     /* Calculate Complex Conjugate and then store the results in the destination buffer. */
 118:Source\ComplexMathFunctions/arm_cmplx_conj_q15.c ****     *pDst++ = *pSrc++;
 119:Source\ComplexMathFunctions/arm_cmplx_conj_q15.c ****     *pDst++ = __SSAT(-*pSrc++, 16);
 120:Source\ComplexMathFunctions/arm_cmplx_conj_q15.c **** 
 121:Source\ComplexMathFunctions/arm_cmplx_conj_q15.c ****     /* Decrement the loop counter */
 122:Source\ComplexMathFunctions/arm_cmplx_conj_q15.c ****     blkCnt--;
 123:Source\ComplexMathFunctions/arm_cmplx_conj_q15.c ****   }
 124:Source\ComplexMathFunctions/arm_cmplx_conj_q15.c **** 
 125:Source\ComplexMathFunctions/arm_cmplx_conj_q15.c **** #else
 126:Source\ComplexMathFunctions/arm_cmplx_conj_q15.c **** 
 127:Source\ComplexMathFunctions/arm_cmplx_conj_q15.c ****   q15_t in;
 128:Source\ComplexMathFunctions/arm_cmplx_conj_q15.c **** 
 129:Source\ComplexMathFunctions/arm_cmplx_conj_q15.c ****   /* Run the below code for Cortex-M0 */
 130:Source\ComplexMathFunctions/arm_cmplx_conj_q15.c **** 
 131:Source\ComplexMathFunctions/arm_cmplx_conj_q15.c ****   while (numSamples > 0u)
  39              		.loc 1 131 0
  40 000c 24E0     		b	.L2
ARM GAS  C:\Users\fneves\AppData\Local\Temp\ccgEoGKF.s 			page 4


  41              	.L5:
 132:Source\ComplexMathFunctions/arm_cmplx_conj_q15.c ****   {
 133:Source\ComplexMathFunctions/arm_cmplx_conj_q15.c ****     /* realOut + j (imagOut) = realIn+ j (-1) imagIn */
 134:Source\ComplexMathFunctions/arm_cmplx_conj_q15.c ****     /* Calculate Complex Conjugate and then store the results in the destination buffer. */
 135:Source\ComplexMathFunctions/arm_cmplx_conj_q15.c ****     *pDst++ = *pSrc++;
  42              		.loc 1 135 0
  43 000e BB68     		ldr	r3, [r7, #8]
  44 0010 9A1C     		add	r2, r3, #2
  45 0012 BA60     		str	r2, [r7, #8]
  46 0014 FA68     		ldr	r2, [r7, #12]
  47 0016 911C     		add	r1, r2, #2
  48 0018 F960     		str	r1, [r7, #12]
  49 001a 1288     		ldrh	r2, [r2]
  50 001c 1A80     		strh	r2, [r3]
 136:Source\ComplexMathFunctions/arm_cmplx_conj_q15.c ****     in = *pSrc++;
  51              		.loc 1 136 0
  52 001e FB68     		ldr	r3, [r7, #12]
  53 0020 9A1C     		add	r2, r3, #2
  54 0022 FA60     		str	r2, [r7, #12]
  55 0024 1622     		mov	r2, #22
  56 0026 BA18     		add	r2, r7, r2
  57 0028 1B88     		ldrh	r3, [r3]
  58 002a 1380     		strh	r3, [r2]
 137:Source\ComplexMathFunctions/arm_cmplx_conj_q15.c ****     *pDst++ = (in == (q15_t) 0x8000) ? 0x7fff : -in;
  59              		.loc 1 137 0
  60 002c BB68     		ldr	r3, [r7, #8]
  61 002e 9A1C     		add	r2, r3, #2
  62 0030 BA60     		str	r2, [r7, #8]
  63 0032 1622     		mov	r2, #22
  64 0034 BA18     		add	r2, r7, r2
  65 0036 0021     		mov	r1, #0
  66 0038 525E     		ldrsh	r2, [r2, r1]
  67 003a 0A49     		ldr	r1, .L6
  68 003c 8A42     		cmp	r2, r1
  69 003e 06D0     		beq	.L3
  70              		.loc 1 137 0 is_stmt 0 discriminator 1
  71 0040 1622     		mov	r2, #22
  72 0042 BA18     		add	r2, r7, r2
  73 0044 1288     		ldrh	r2, [r2]
  74 0046 5242     		neg	r2, r2
  75 0048 92B2     		uxth	r2, r2
  76 004a 92B2     		uxth	r2, r2
  77 004c 00E0     		b	.L4
  78              	.L3:
  79              		.loc 1 137 0 discriminator 2
  80 004e 064A     		ldr	r2, .L6+4
  81              	.L4:
  82              		.loc 1 137 0 discriminator 4
  83 0050 1A80     		strh	r2, [r3]
 138:Source\ComplexMathFunctions/arm_cmplx_conj_q15.c **** 
 139:Source\ComplexMathFunctions/arm_cmplx_conj_q15.c ****     /* Decrement the loop counter */
 140:Source\ComplexMathFunctions/arm_cmplx_conj_q15.c ****     numSamples--;
  84              		.loc 1 140 0 is_stmt 1 discriminator 4
  85 0052 7B68     		ldr	r3, [r7, #4]
  86 0054 013B     		sub	r3, r3, #1
  87 0056 7B60     		str	r3, [r7, #4]
  88              	.L2:
ARM GAS  C:\Users\fneves\AppData\Local\Temp\ccgEoGKF.s 			page 5


 131:Source\ComplexMathFunctions/arm_cmplx_conj_q15.c ****   {
  89              		.loc 1 131 0
  90 0058 7B68     		ldr	r3, [r7, #4]
  91 005a 002B     		cmp	r3, #0
  92 005c D7D1     		bne	.L5
 141:Source\ComplexMathFunctions/arm_cmplx_conj_q15.c ****   }
 142:Source\ComplexMathFunctions/arm_cmplx_conj_q15.c **** 
 143:Source\ComplexMathFunctions/arm_cmplx_conj_q15.c **** #endif /* #if defined (ARM_MATH_DSP) */
 144:Source\ComplexMathFunctions/arm_cmplx_conj_q15.c **** 
 145:Source\ComplexMathFunctions/arm_cmplx_conj_q15.c **** }
  93              		.loc 1 145 0
  94 005e BD46     		mov	sp, r7
  95 0060 06B0     		add	sp, sp, #24
  96              		@ sp needed
  97 0062 80BD     		pop	{r7, pc}
  98              	.L7:
  99              		.align	2
 100              	.L6:
 101 0064 0080FFFF 		.word	-32768
 102 0068 FF7F0000 		.word	32767
 103              		.cfi_endproc
 104              	.LFE82:
 105              		.size	arm_cmplx_conj_q15, .-arm_cmplx_conj_q15
 106              		.text
 107              	.Letext0:
 108              		.file 2 "c:\\program files (x86)\\cypress\\psoc creator\\4.0\\psoc creator\\import\\gnu\\arm\\4.9.
 109              		.file 3 "c:\\program files (x86)\\cypress\\psoc creator\\4.0\\psoc creator\\import\\gnu\\arm\\4.9.
 110              		.file 4 ".\\Include/arm_math.h"