ARM GAS  C:\Users\fneves\AppData\Local\Temp\cc9WVDSV.s 			page 1


   1              		.cpu cortex-m0plus
   2              		.fpu softvfp
   3              		.eabi_attribute 20, 1
   4              		.eabi_attribute 21, 1
   5              		.eabi_attribute 23, 3
   6              		.eabi_attribute 24, 1
   7              		.eabi_attribute 25, 1
   8              		.eabi_attribute 26, 1
   9              		.eabi_attribute 30, 6
  10              		.eabi_attribute 34, 0
  11              		.eabi_attribute 18, 4
  12              		.code	16
  13              		.file	"arm_mat_scale_q31.c"
  14              		.text
  15              	.Ltext0:
  16              		.cfi_sections	.debug_frame
  17              		.global	__aeabi_lmul
  18              		.section	.text.arm_mat_scale_q31,"ax",%progbits
  19              		.align	2
  20              		.global	arm_mat_scale_q31
  21              		.code	16
  22              		.thumb_func
  23              		.type	arm_mat_scale_q31, %function
  24              	arm_mat_scale_q31:
  25              	.LFB82:
  26              		.file 1 "Source\\MatrixFunctions\\arm_mat_scale_q31.c"
   1:Source\MatrixFunctions/arm_mat_scale_q31.c **** /* ----------------------------------------------------------------------
   2:Source\MatrixFunctions/arm_mat_scale_q31.c ****  * Project:      CMSIS DSP Library
   3:Source\MatrixFunctions/arm_mat_scale_q31.c ****  * Title:        arm_mat_scale_q31.c
   4:Source\MatrixFunctions/arm_mat_scale_q31.c ****  * Description:  Multiplies a Q31 matrix by a scalar
   5:Source\MatrixFunctions/arm_mat_scale_q31.c ****  *
   6:Source\MatrixFunctions/arm_mat_scale_q31.c ****  * $Date:        27. January 2017
   7:Source\MatrixFunctions/arm_mat_scale_q31.c ****  * $Revision:    V.1.5.1
   8:Source\MatrixFunctions/arm_mat_scale_q31.c ****  *
   9:Source\MatrixFunctions/arm_mat_scale_q31.c ****  * Target Processor: Cortex-M cores
  10:Source\MatrixFunctions/arm_mat_scale_q31.c ****  * -------------------------------------------------------------------- */
  11:Source\MatrixFunctions/arm_mat_scale_q31.c **** /*
  12:Source\MatrixFunctions/arm_mat_scale_q31.c ****  * Copyright (C) 2010-2017 ARM Limited or its affiliates. All rights reserved.
  13:Source\MatrixFunctions/arm_mat_scale_q31.c ****  *
  14:Source\MatrixFunctions/arm_mat_scale_q31.c ****  * SPDX-License-Identifier: Apache-2.0
  15:Source\MatrixFunctions/arm_mat_scale_q31.c ****  *
  16:Source\MatrixFunctions/arm_mat_scale_q31.c ****  * Licensed under the Apache License, Version 2.0 (the License); you may
  17:Source\MatrixFunctions/arm_mat_scale_q31.c ****  * not use this file except in compliance with the License.
  18:Source\MatrixFunctions/arm_mat_scale_q31.c ****  * You may obtain a copy of the License at
  19:Source\MatrixFunctions/arm_mat_scale_q31.c ****  *
  20:Source\MatrixFunctions/arm_mat_scale_q31.c ****  * www.apache.org/licenses/LICENSE-2.0
  21:Source\MatrixFunctions/arm_mat_scale_q31.c ****  *
  22:Source\MatrixFunctions/arm_mat_scale_q31.c ****  * Unless required by applicable law or agreed to in writing, software
  23:Source\MatrixFunctions/arm_mat_scale_q31.c ****  * distributed under the License is distributed on an AS IS BASIS, WITHOUT
  24:Source\MatrixFunctions/arm_mat_scale_q31.c ****  * WARRANTIES OR CONDITIONS OF ANY KIND, either express or implied.
  25:Source\MatrixFunctions/arm_mat_scale_q31.c ****  * See the License for the specific language governing permissions and
  26:Source\MatrixFunctions/arm_mat_scale_q31.c ****  * limitations under the License.
  27:Source\MatrixFunctions/arm_mat_scale_q31.c ****  */
  28:Source\MatrixFunctions/arm_mat_scale_q31.c **** 
  29:Source\MatrixFunctions/arm_mat_scale_q31.c **** #include "arm_math.h"
  30:Source\MatrixFunctions/arm_mat_scale_q31.c **** 
  31:Source\MatrixFunctions/arm_mat_scale_q31.c **** /**
ARM GAS  C:\Users\fneves\AppData\Local\Temp\cc9WVDSV.s 			page 2


  32:Source\MatrixFunctions/arm_mat_scale_q31.c ****  * @ingroup groupMatrix
  33:Source\MatrixFunctions/arm_mat_scale_q31.c ****  */
  34:Source\MatrixFunctions/arm_mat_scale_q31.c **** 
  35:Source\MatrixFunctions/arm_mat_scale_q31.c **** /**
  36:Source\MatrixFunctions/arm_mat_scale_q31.c ****  * @addtogroup MatrixScale
  37:Source\MatrixFunctions/arm_mat_scale_q31.c ****  * @{
  38:Source\MatrixFunctions/arm_mat_scale_q31.c ****  */
  39:Source\MatrixFunctions/arm_mat_scale_q31.c **** 
  40:Source\MatrixFunctions/arm_mat_scale_q31.c **** /**
  41:Source\MatrixFunctions/arm_mat_scale_q31.c ****  * @brief Q31 matrix scaling.
  42:Source\MatrixFunctions/arm_mat_scale_q31.c ****  * @param[in]       *pSrc points to input matrix
  43:Source\MatrixFunctions/arm_mat_scale_q31.c ****  * @param[in]       scaleFract fractional portion of the scale factor
  44:Source\MatrixFunctions/arm_mat_scale_q31.c ****  * @param[in]       shift number of bits to shift the result by
  45:Source\MatrixFunctions/arm_mat_scale_q31.c ****  * @param[out]      *pDst points to output matrix structure
  46:Source\MatrixFunctions/arm_mat_scale_q31.c ****  * @return     		The function returns either
  47:Source\MatrixFunctions/arm_mat_scale_q31.c ****  * <code>ARM_MATH_SIZE_MISMATCH</code> or <code>ARM_MATH_SUCCESS</code> based on the outcome of siz
  48:Source\MatrixFunctions/arm_mat_scale_q31.c ****  *
  49:Source\MatrixFunctions/arm_mat_scale_q31.c ****  * @details
  50:Source\MatrixFunctions/arm_mat_scale_q31.c ****  * <b>Scaling and Overflow Behavior:</b>
  51:Source\MatrixFunctions/arm_mat_scale_q31.c ****  * \par
  52:Source\MatrixFunctions/arm_mat_scale_q31.c ****  * The input data <code>*pSrc</code> and <code>scaleFract</code> are in 1.31 format.
  53:Source\MatrixFunctions/arm_mat_scale_q31.c ****  * These are multiplied to yield a 2.62 intermediate result and this is shifted with saturation to 
  54:Source\MatrixFunctions/arm_mat_scale_q31.c ****  */
  55:Source\MatrixFunctions/arm_mat_scale_q31.c **** 
  56:Source\MatrixFunctions/arm_mat_scale_q31.c **** arm_status arm_mat_scale_q31(
  57:Source\MatrixFunctions/arm_mat_scale_q31.c ****   const arm_matrix_instance_q31 * pSrc,
  58:Source\MatrixFunctions/arm_mat_scale_q31.c ****   q31_t scaleFract,
  59:Source\MatrixFunctions/arm_mat_scale_q31.c ****   int32_t shift,
  60:Source\MatrixFunctions/arm_mat_scale_q31.c ****   arm_matrix_instance_q31 * pDst)
  61:Source\MatrixFunctions/arm_mat_scale_q31.c **** {
  27              		.loc 1 61 0
  28              		.cfi_startproc
  29 0000 B0B5     		push	{r4, r5, r7, lr}
  30              		.cfi_def_cfa_offset 16
  31              		.cfi_offset 4, -16
  32              		.cfi_offset 5, -12
  33              		.cfi_offset 7, -8
  34              		.cfi_offset 14, -4
  35 0002 92B0     		sub	sp, sp, #72
  36              		.cfi_def_cfa_offset 88
  37 0004 00AF     		add	r7, sp, #0
  38              		.cfi_def_cfa_register 7
  39 0006 F861     		str	r0, [r7, #28]
  40 0008 B961     		str	r1, [r7, #24]
  41 000a 7A61     		str	r2, [r7, #20]
  42 000c 3B61     		str	r3, [r7, #16]
  62:Source\MatrixFunctions/arm_mat_scale_q31.c ****   q31_t *pIn = pSrc->pData;                      /* input data matrix pointer */
  43              		.loc 1 62 0
  44 000e FB69     		ldr	r3, [r7, #28]
  45 0010 5B68     		ldr	r3, [r3, #4]
  46 0012 7B64     		str	r3, [r7, #68]
  63:Source\MatrixFunctions/arm_mat_scale_q31.c ****   q31_t *pOut = pDst->pData;                     /* output data matrix pointer */
  47              		.loc 1 63 0
  48 0014 3B69     		ldr	r3, [r7, #16]
  49 0016 5B68     		ldr	r3, [r3, #4]
  50 0018 3B64     		str	r3, [r7, #64]
  64:Source\MatrixFunctions/arm_mat_scale_q31.c ****   uint32_t numSamples;                           /* total number of elements in the matrix */
ARM GAS  C:\Users\fneves\AppData\Local\Temp\cc9WVDSV.s 			page 3


  65:Source\MatrixFunctions/arm_mat_scale_q31.c ****   int32_t totShift = shift + 1;                  /* shift to apply after scaling */
  51              		.loc 1 65 0
  52 001a 7B69     		ldr	r3, [r7, #20]
  53 001c 0133     		add	r3, r3, #1
  54 001e 7B63     		str	r3, [r7, #52]
  66:Source\MatrixFunctions/arm_mat_scale_q31.c ****   uint32_t blkCnt;                               /* loop counters  */
  67:Source\MatrixFunctions/arm_mat_scale_q31.c ****   arm_status status;                             /* status of matrix scaling      */
  68:Source\MatrixFunctions/arm_mat_scale_q31.c ****   q31_t in1, in2, out1;                          /* temporary variabels */
  69:Source\MatrixFunctions/arm_mat_scale_q31.c **** 
  70:Source\MatrixFunctions/arm_mat_scale_q31.c **** #if defined (ARM_MATH_DSP)
  71:Source\MatrixFunctions/arm_mat_scale_q31.c **** 
  72:Source\MatrixFunctions/arm_mat_scale_q31.c ****   q31_t in3, in4, out2, out3, out4;              /* temporary variables */
  73:Source\MatrixFunctions/arm_mat_scale_q31.c **** 
  74:Source\MatrixFunctions/arm_mat_scale_q31.c **** #endif //      #ifndef ARM_MAT_CM0
  75:Source\MatrixFunctions/arm_mat_scale_q31.c **** 
  76:Source\MatrixFunctions/arm_mat_scale_q31.c **** #ifdef ARM_MATH_MATRIX_CHECK
  77:Source\MatrixFunctions/arm_mat_scale_q31.c ****   /* Check for matrix mismatch  */
  78:Source\MatrixFunctions/arm_mat_scale_q31.c ****   if ((pSrc->numRows != pDst->numRows) || (pSrc->numCols != pDst->numCols))
  79:Source\MatrixFunctions/arm_mat_scale_q31.c ****   {
  80:Source\MatrixFunctions/arm_mat_scale_q31.c ****     /* Set status as ARM_MATH_SIZE_MISMATCH */
  81:Source\MatrixFunctions/arm_mat_scale_q31.c ****     status = ARM_MATH_SIZE_MISMATCH;
  82:Source\MatrixFunctions/arm_mat_scale_q31.c ****   }
  83:Source\MatrixFunctions/arm_mat_scale_q31.c ****   else
  84:Source\MatrixFunctions/arm_mat_scale_q31.c **** #endif //    #ifdef ARM_MATH_MATRIX_CHECK
  85:Source\MatrixFunctions/arm_mat_scale_q31.c ****   {
  86:Source\MatrixFunctions/arm_mat_scale_q31.c ****     /* Total number of samples in the input matrix */
  87:Source\MatrixFunctions/arm_mat_scale_q31.c ****     numSamples = (uint32_t) pSrc->numRows * pSrc->numCols;
  55              		.loc 1 87 0
  56 0020 FB69     		ldr	r3, [r7, #28]
  57 0022 1B88     		ldrh	r3, [r3]
  58 0024 1A1C     		mov	r2, r3
  59 0026 FB69     		ldr	r3, [r7, #28]
  60 0028 5B88     		ldrh	r3, [r3, #2]
  61 002a 5343     		mul	r3, r2
  62 002c 3B63     		str	r3, [r7, #48]
  88:Source\MatrixFunctions/arm_mat_scale_q31.c **** 
  89:Source\MatrixFunctions/arm_mat_scale_q31.c **** #if defined (ARM_MATH_DSP)
  90:Source\MatrixFunctions/arm_mat_scale_q31.c **** 
  91:Source\MatrixFunctions/arm_mat_scale_q31.c ****     /* Run the below code for Cortex-M4 and Cortex-M3 */
  92:Source\MatrixFunctions/arm_mat_scale_q31.c **** 
  93:Source\MatrixFunctions/arm_mat_scale_q31.c ****     /* Loop Unrolling */
  94:Source\MatrixFunctions/arm_mat_scale_q31.c ****     blkCnt = numSamples >> 2u;
  95:Source\MatrixFunctions/arm_mat_scale_q31.c **** 
  96:Source\MatrixFunctions/arm_mat_scale_q31.c ****     /* First part of the processing with loop unrolling.  Compute 4 outputs at a time.
  97:Source\MatrixFunctions/arm_mat_scale_q31.c ****      ** a second loop below computes the remaining 1 to 3 samples. */
  98:Source\MatrixFunctions/arm_mat_scale_q31.c ****     while (blkCnt > 0u)
  99:Source\MatrixFunctions/arm_mat_scale_q31.c ****     {
 100:Source\MatrixFunctions/arm_mat_scale_q31.c ****       /* C(m,n) = A(m,n) * k */
 101:Source\MatrixFunctions/arm_mat_scale_q31.c ****       /* Read values from input */
 102:Source\MatrixFunctions/arm_mat_scale_q31.c ****       in1 = *pIn;
 103:Source\MatrixFunctions/arm_mat_scale_q31.c ****       in2 = *(pIn + 1);
 104:Source\MatrixFunctions/arm_mat_scale_q31.c ****       in3 = *(pIn + 2);
 105:Source\MatrixFunctions/arm_mat_scale_q31.c ****       in4 = *(pIn + 3);
 106:Source\MatrixFunctions/arm_mat_scale_q31.c **** 
 107:Source\MatrixFunctions/arm_mat_scale_q31.c ****       /* multiply input with scaler value */
 108:Source\MatrixFunctions/arm_mat_scale_q31.c ****       in1 = ((q63_t) in1 * scaleFract) >> 32;
 109:Source\MatrixFunctions/arm_mat_scale_q31.c ****       in2 = ((q63_t) in2 * scaleFract) >> 32;
ARM GAS  C:\Users\fneves\AppData\Local\Temp\cc9WVDSV.s 			page 4


 110:Source\MatrixFunctions/arm_mat_scale_q31.c ****       in3 = ((q63_t) in3 * scaleFract) >> 32;
 111:Source\MatrixFunctions/arm_mat_scale_q31.c ****       in4 = ((q63_t) in4 * scaleFract) >> 32;
 112:Source\MatrixFunctions/arm_mat_scale_q31.c **** 
 113:Source\MatrixFunctions/arm_mat_scale_q31.c ****       /* apply shifting */
 114:Source\MatrixFunctions/arm_mat_scale_q31.c ****       out1 = in1 << totShift;
 115:Source\MatrixFunctions/arm_mat_scale_q31.c ****       out2 = in2 << totShift;
 116:Source\MatrixFunctions/arm_mat_scale_q31.c **** 
 117:Source\MatrixFunctions/arm_mat_scale_q31.c ****       /* saturate the results. */
 118:Source\MatrixFunctions/arm_mat_scale_q31.c ****       if (in1 != (out1 >> totShift))
 119:Source\MatrixFunctions/arm_mat_scale_q31.c ****         out1 = 0x7FFFFFFF ^ (in1 >> 31);
 120:Source\MatrixFunctions/arm_mat_scale_q31.c **** 
 121:Source\MatrixFunctions/arm_mat_scale_q31.c ****       if (in2 != (out2 >> totShift))
 122:Source\MatrixFunctions/arm_mat_scale_q31.c ****         out2 = 0x7FFFFFFF ^ (in2 >> 31);
 123:Source\MatrixFunctions/arm_mat_scale_q31.c **** 
 124:Source\MatrixFunctions/arm_mat_scale_q31.c ****       out3 = in3 << totShift;
 125:Source\MatrixFunctions/arm_mat_scale_q31.c ****       out4 = in4 << totShift;
 126:Source\MatrixFunctions/arm_mat_scale_q31.c **** 
 127:Source\MatrixFunctions/arm_mat_scale_q31.c ****       *pOut = out1;
 128:Source\MatrixFunctions/arm_mat_scale_q31.c ****       *(pOut + 1) = out2;
 129:Source\MatrixFunctions/arm_mat_scale_q31.c **** 
 130:Source\MatrixFunctions/arm_mat_scale_q31.c ****       if (in3 != (out3 >> totShift))
 131:Source\MatrixFunctions/arm_mat_scale_q31.c ****         out3 = 0x7FFFFFFF ^ (in3 >> 31);
 132:Source\MatrixFunctions/arm_mat_scale_q31.c **** 
 133:Source\MatrixFunctions/arm_mat_scale_q31.c ****       if (in4 != (out4 >> totShift))
 134:Source\MatrixFunctions/arm_mat_scale_q31.c ****         out4 = 0x7FFFFFFF ^ (in4 >> 31);
 135:Source\MatrixFunctions/arm_mat_scale_q31.c **** 
 136:Source\MatrixFunctions/arm_mat_scale_q31.c **** 
 137:Source\MatrixFunctions/arm_mat_scale_q31.c ****       *(pOut + 2) = out3;
 138:Source\MatrixFunctions/arm_mat_scale_q31.c ****       *(pOut + 3) = out4;
 139:Source\MatrixFunctions/arm_mat_scale_q31.c **** 
 140:Source\MatrixFunctions/arm_mat_scale_q31.c ****       /* update pointers to process next sampels */
 141:Source\MatrixFunctions/arm_mat_scale_q31.c ****       pIn += 4u;
 142:Source\MatrixFunctions/arm_mat_scale_q31.c ****       pOut += 4u;
 143:Source\MatrixFunctions/arm_mat_scale_q31.c **** 
 144:Source\MatrixFunctions/arm_mat_scale_q31.c **** 
 145:Source\MatrixFunctions/arm_mat_scale_q31.c ****       /* Decrement the numSamples loop counter */
 146:Source\MatrixFunctions/arm_mat_scale_q31.c ****       blkCnt--;
 147:Source\MatrixFunctions/arm_mat_scale_q31.c ****     }
 148:Source\MatrixFunctions/arm_mat_scale_q31.c **** 
 149:Source\MatrixFunctions/arm_mat_scale_q31.c ****     /* If the numSamples is not a multiple of 4, compute any remaining output samples here.
 150:Source\MatrixFunctions/arm_mat_scale_q31.c ****      ** No loop unrolling is used. */
 151:Source\MatrixFunctions/arm_mat_scale_q31.c ****     blkCnt = numSamples % 0x4u;
 152:Source\MatrixFunctions/arm_mat_scale_q31.c **** 
 153:Source\MatrixFunctions/arm_mat_scale_q31.c **** #else
 154:Source\MatrixFunctions/arm_mat_scale_q31.c **** 
 155:Source\MatrixFunctions/arm_mat_scale_q31.c ****     /* Run the below code for Cortex-M0 */
 156:Source\MatrixFunctions/arm_mat_scale_q31.c **** 
 157:Source\MatrixFunctions/arm_mat_scale_q31.c ****     /* Initialize blkCnt with number of samples */
 158:Source\MatrixFunctions/arm_mat_scale_q31.c ****     blkCnt = numSamples;
  63              		.loc 1 158 0
  64 002e 3B6B     		ldr	r3, [r7, #48]
  65 0030 FB63     		str	r3, [r7, #60]
 159:Source\MatrixFunctions/arm_mat_scale_q31.c **** 
 160:Source\MatrixFunctions/arm_mat_scale_q31.c **** #endif /* #if defined (ARM_MATH_DSP) */
 161:Source\MatrixFunctions/arm_mat_scale_q31.c **** 
 162:Source\MatrixFunctions/arm_mat_scale_q31.c ****     while (blkCnt > 0u)
  66              		.loc 1 162 0
ARM GAS  C:\Users\fneves\AppData\Local\Temp\cc9WVDSV.s 			page 5


  67 0032 30E0     		b	.L2
  68              	.L4:
 163:Source\MatrixFunctions/arm_mat_scale_q31.c ****     {
 164:Source\MatrixFunctions/arm_mat_scale_q31.c ****       /* C(m,n) = A(m,n) * k */
 165:Source\MatrixFunctions/arm_mat_scale_q31.c ****       /* Scale, saturate and then store the results in the destination buffer. */
 166:Source\MatrixFunctions/arm_mat_scale_q31.c ****       in1 = *pIn++;
  69              		.loc 1 166 0
  70 0034 7B6C     		ldr	r3, [r7, #68]
  71 0036 1A1D     		add	r2, r3, #4
  72 0038 7A64     		str	r2, [r7, #68]
  73 003a 1B68     		ldr	r3, [r3]
  74 003c FB62     		str	r3, [r7, #44]
 167:Source\MatrixFunctions/arm_mat_scale_q31.c **** 
 168:Source\MatrixFunctions/arm_mat_scale_q31.c ****       in2 = ((q63_t) in1 * scaleFract) >> 32;
  75              		.loc 1 168 0
  76 003e FB6A     		ldr	r3, [r7, #44]
  77 0040 BB60     		str	r3, [r7, #8]
  78 0042 DB17     		asr	r3, r3, #31
  79 0044 FB60     		str	r3, [r7, #12]
  80 0046 BB69     		ldr	r3, [r7, #24]
  81 0048 3B60     		str	r3, [r7]
  82 004a DB17     		asr	r3, r3, #31
  83 004c 7B60     		str	r3, [r7, #4]
  84 004e B868     		ldr	r0, [r7, #8]
  85 0050 F968     		ldr	r1, [r7, #12]
  86 0052 3A68     		ldr	r2, [r7]
  87 0054 7B68     		ldr	r3, [r7, #4]
  88 0056 FFF7FEFF 		bl	__aeabi_lmul
  89 005a 021C     		mov	r2, r0
  90 005c 0B1C     		mov	r3, r1
  91 005e 1C00     		asr	r4, r3, #0
  92 0060 DD17     		asr	r5, r3, #31
  93 0062 231C     		mov	r3, r4
  94 0064 BB62     		str	r3, [r7, #40]
 169:Source\MatrixFunctions/arm_mat_scale_q31.c **** 
 170:Source\MatrixFunctions/arm_mat_scale_q31.c ****       out1 = in2 << totShift;
  95              		.loc 1 170 0
  96 0066 BA6A     		ldr	r2, [r7, #40]
  97 0068 7B6B     		ldr	r3, [r7, #52]
  98 006a 9A40     		lsl	r2, r2, r3
  99 006c 131C     		mov	r3, r2
 100 006e BB63     		str	r3, [r7, #56]
 171:Source\MatrixFunctions/arm_mat_scale_q31.c **** 
 172:Source\MatrixFunctions/arm_mat_scale_q31.c ****       if (in2 != (out1 >> totShift))
 101              		.loc 1 172 0
 102 0070 BA6B     		ldr	r2, [r7, #56]
 103 0072 7B6B     		ldr	r3, [r7, #52]
 104 0074 1A41     		asr	r2, r2, r3
 105 0076 BB6A     		ldr	r3, [r7, #40]
 106 0078 9A42     		cmp	r2, r3
 107 007a 04D0     		beq	.L3
 173:Source\MatrixFunctions/arm_mat_scale_q31.c ****         out1 = 0x7FFFFFFF ^ (in2 >> 31);
 108              		.loc 1 173 0
 109 007c BB6A     		ldr	r3, [r7, #40]
 110 007e DB17     		asr	r3, r3, #31
 111 0080 0F4A     		ldr	r2, .L6
 112 0082 5340     		eor	r3, r2
ARM GAS  C:\Users\fneves\AppData\Local\Temp\cc9WVDSV.s 			page 6


 113 0084 BB63     		str	r3, [r7, #56]
 114              	.L3:
 174:Source\MatrixFunctions/arm_mat_scale_q31.c **** 
 175:Source\MatrixFunctions/arm_mat_scale_q31.c ****       *pOut++ = out1;
 115              		.loc 1 175 0
 116 0086 3B6C     		ldr	r3, [r7, #64]
 117 0088 1A1D     		add	r2, r3, #4
 118 008a 3A64     		str	r2, [r7, #64]
 119 008c BA6B     		ldr	r2, [r7, #56]
 120 008e 1A60     		str	r2, [r3]
 176:Source\MatrixFunctions/arm_mat_scale_q31.c **** 
 177:Source\MatrixFunctions/arm_mat_scale_q31.c ****       /* Decrement the numSamples loop counter */
 178:Source\MatrixFunctions/arm_mat_scale_q31.c ****       blkCnt--;
 121              		.loc 1 178 0
 122 0090 FB6B     		ldr	r3, [r7, #60]
 123 0092 013B     		sub	r3, r3, #1
 124 0094 FB63     		str	r3, [r7, #60]
 125              	.L2:
 162:Source\MatrixFunctions/arm_mat_scale_q31.c ****     {
 126              		.loc 1 162 0
 127 0096 FB6B     		ldr	r3, [r7, #60]
 128 0098 002B     		cmp	r3, #0
 129 009a CBD1     		bne	.L4
 179:Source\MatrixFunctions/arm_mat_scale_q31.c ****     }
 180:Source\MatrixFunctions/arm_mat_scale_q31.c **** 
 181:Source\MatrixFunctions/arm_mat_scale_q31.c ****     /* Set status as ARM_MATH_SUCCESS */
 182:Source\MatrixFunctions/arm_mat_scale_q31.c ****     status = ARM_MATH_SUCCESS;
 130              		.loc 1 182 0
 131 009c 1723     		mov	r3, #23
 132 009e 1022     		mov	r2, #16
 133 00a0 9446     		mov	ip, r2
 134 00a2 BC44     		add	ip, ip, r7
 135 00a4 6344     		add	r3, r3, ip
 136 00a6 0022     		mov	r2, #0
 137 00a8 1A70     		strb	r2, [r3]
 183:Source\MatrixFunctions/arm_mat_scale_q31.c ****   }
 184:Source\MatrixFunctions/arm_mat_scale_q31.c **** 
 185:Source\MatrixFunctions/arm_mat_scale_q31.c ****   /* Return to application */
 186:Source\MatrixFunctions/arm_mat_scale_q31.c ****   return (status);
 138              		.loc 1 186 0
 139 00aa 1723     		mov	r3, #23
 140 00ac 1022     		mov	r2, #16
 141 00ae 9446     		mov	ip, r2
 142 00b0 BC44     		add	ip, ip, r7
 143 00b2 6344     		add	r3, r3, ip
 144 00b4 1B78     		ldrb	r3, [r3]
 145 00b6 5BB2     		sxtb	r3, r3
 187:Source\MatrixFunctions/arm_mat_scale_q31.c **** }
 146              		.loc 1 187 0
 147 00b8 181C     		mov	r0, r3
 148 00ba BD46     		mov	sp, r7
 149 00bc 12B0     		add	sp, sp, #72
 150              		@ sp needed
 151 00be B0BD     		pop	{r4, r5, r7, pc}
 152              	.L7:
 153              		.align	2
 154              	.L6:
ARM GAS  C:\Users\fneves\AppData\Local\Temp\cc9WVDSV.s 			page 7


 155 00c0 FFFFFF7F 		.word	2147483647
 156              		.cfi_endproc
 157              	.LFE82:
 158              		.size	arm_mat_scale_q31, .-arm_mat_scale_q31
 159              		.text
 160              	.Letext0:
 161              		.file 2 "c:\\program files (x86)\\cypress\\psoc creator\\4.0\\psoc creator\\import\\gnu\\arm\\4.9.
 162              		.file 3 "c:\\program files (x86)\\cypress\\psoc creator\\4.0\\psoc creator\\import\\gnu\\arm\\4.9.
 163              		.file 4 ".\\Include/arm_math.h"