ARM GAS  C:\Users\fneves\AppData\Local\Temp\cch26CEf.s 			page 1


   1              		.cpu cortex-m0plus
   2              		.fpu softvfp
   3              		.eabi_attribute 20, 1
   4              		.eabi_attribute 21, 1
   5              		.eabi_attribute 23, 3
   6              		.eabi_attribute 24, 1
   7              		.eabi_attribute 25, 1
   8              		.eabi_attribute 26, 1
   9              		.eabi_attribute 30, 6
  10              		.eabi_attribute 34, 0
  11              		.eabi_attribute 18, 4
  12              		.code	16
  13              		.file	"arm_cmplx_mag_q15.c"
  14              		.text
  15              	.Ltext0:
  16              		.cfi_sections	.debug_frame
  17              		.section	.text.arm_cmplx_mag_q15,"ax",%progbits
  18              		.align	2
  19              		.global	arm_cmplx_mag_q15
  20              		.code	16
  21              		.thumb_func
  22              		.type	arm_cmplx_mag_q15, %function
  23              	arm_cmplx_mag_q15:
  24              	.LFB82:
  25              		.file 1 "Source\\ComplexMathFunctions\\arm_cmplx_mag_q15.c"
   1:Source\ComplexMathFunctions/arm_cmplx_mag_q15.c **** /* ----------------------------------------------------------------------
   2:Source\ComplexMathFunctions/arm_cmplx_mag_q15.c ****  * Project:      CMSIS DSP Library
   3:Source\ComplexMathFunctions/arm_cmplx_mag_q15.c ****  * Title:        arm_cmplx_mag_q15.c
   4:Source\ComplexMathFunctions/arm_cmplx_mag_q15.c ****  * Description:  Q15 complex magnitude
   5:Source\ComplexMathFunctions/arm_cmplx_mag_q15.c ****  *
   6:Source\ComplexMathFunctions/arm_cmplx_mag_q15.c ****  * $Date:        27. January 2017
   7:Source\ComplexMathFunctions/arm_cmplx_mag_q15.c ****  * $Revision:    V.1.5.1
   8:Source\ComplexMathFunctions/arm_cmplx_mag_q15.c ****  *
   9:Source\ComplexMathFunctions/arm_cmplx_mag_q15.c ****  * Target Processor: Cortex-M cores
  10:Source\ComplexMathFunctions/arm_cmplx_mag_q15.c ****  * -------------------------------------------------------------------- */
  11:Source\ComplexMathFunctions/arm_cmplx_mag_q15.c **** /*
  12:Source\ComplexMathFunctions/arm_cmplx_mag_q15.c ****  * Copyright (C) 2010-2017 ARM Limited or its affiliates. All rights reserved.
  13:Source\ComplexMathFunctions/arm_cmplx_mag_q15.c ****  *
  14:Source\ComplexMathFunctions/arm_cmplx_mag_q15.c ****  * SPDX-License-Identifier: Apache-2.0
  15:Source\ComplexMathFunctions/arm_cmplx_mag_q15.c ****  *
  16:Source\ComplexMathFunctions/arm_cmplx_mag_q15.c ****  * Licensed under the Apache License, Version 2.0 (the License); you may
  17:Source\ComplexMathFunctions/arm_cmplx_mag_q15.c ****  * not use this file except in compliance with the License.
  18:Source\ComplexMathFunctions/arm_cmplx_mag_q15.c ****  * You may obtain a copy of the License at
  19:Source\ComplexMathFunctions/arm_cmplx_mag_q15.c ****  *
  20:Source\ComplexMathFunctions/arm_cmplx_mag_q15.c ****  * www.apache.org/licenses/LICENSE-2.0
  21:Source\ComplexMathFunctions/arm_cmplx_mag_q15.c ****  *
  22:Source\ComplexMathFunctions/arm_cmplx_mag_q15.c ****  * Unless required by applicable law or agreed to in writing, software
  23:Source\ComplexMathFunctions/arm_cmplx_mag_q15.c ****  * distributed under the License is distributed on an AS IS BASIS, WITHOUT
  24:Source\ComplexMathFunctions/arm_cmplx_mag_q15.c ****  * WARRANTIES OR CONDITIONS OF ANY KIND, either express or implied.
  25:Source\ComplexMathFunctions/arm_cmplx_mag_q15.c ****  * See the License for the specific language governing permissions and
  26:Source\ComplexMathFunctions/arm_cmplx_mag_q15.c ****  * limitations under the License.
  27:Source\ComplexMathFunctions/arm_cmplx_mag_q15.c ****  */
  28:Source\ComplexMathFunctions/arm_cmplx_mag_q15.c **** 
  29:Source\ComplexMathFunctions/arm_cmplx_mag_q15.c **** #include "arm_math.h"
  30:Source\ComplexMathFunctions/arm_cmplx_mag_q15.c **** 
  31:Source\ComplexMathFunctions/arm_cmplx_mag_q15.c **** /**
  32:Source\ComplexMathFunctions/arm_cmplx_mag_q15.c ****  * @ingroup groupCmplxMath
ARM GAS  C:\Users\fneves\AppData\Local\Temp\cch26CEf.s 			page 2


  33:Source\ComplexMathFunctions/arm_cmplx_mag_q15.c ****  */
  34:Source\ComplexMathFunctions/arm_cmplx_mag_q15.c **** 
  35:Source\ComplexMathFunctions/arm_cmplx_mag_q15.c **** /**
  36:Source\ComplexMathFunctions/arm_cmplx_mag_q15.c ****  * @addtogroup cmplx_mag
  37:Source\ComplexMathFunctions/arm_cmplx_mag_q15.c ****  * @{
  38:Source\ComplexMathFunctions/arm_cmplx_mag_q15.c ****  */
  39:Source\ComplexMathFunctions/arm_cmplx_mag_q15.c **** 
  40:Source\ComplexMathFunctions/arm_cmplx_mag_q15.c **** 
  41:Source\ComplexMathFunctions/arm_cmplx_mag_q15.c **** /**
  42:Source\ComplexMathFunctions/arm_cmplx_mag_q15.c ****  * @brief  Q15 complex magnitude
  43:Source\ComplexMathFunctions/arm_cmplx_mag_q15.c ****  * @param  *pSrc points to the complex input vector
  44:Source\ComplexMathFunctions/arm_cmplx_mag_q15.c ****  * @param  *pDst points to the real output vector
  45:Source\ComplexMathFunctions/arm_cmplx_mag_q15.c ****  * @param  numSamples number of complex samples in the input vector
  46:Source\ComplexMathFunctions/arm_cmplx_mag_q15.c ****  * @return none.
  47:Source\ComplexMathFunctions/arm_cmplx_mag_q15.c ****  *
  48:Source\ComplexMathFunctions/arm_cmplx_mag_q15.c ****  * <b>Scaling and Overflow Behavior:</b>
  49:Source\ComplexMathFunctions/arm_cmplx_mag_q15.c ****  * \par
  50:Source\ComplexMathFunctions/arm_cmplx_mag_q15.c ****  * The function implements 1.15 by 1.15 multiplications and finally output is converted into 2.14 f
  51:Source\ComplexMathFunctions/arm_cmplx_mag_q15.c ****  */
  52:Source\ComplexMathFunctions/arm_cmplx_mag_q15.c **** 
  53:Source\ComplexMathFunctions/arm_cmplx_mag_q15.c **** void arm_cmplx_mag_q15(
  54:Source\ComplexMathFunctions/arm_cmplx_mag_q15.c ****   q15_t * pSrc,
  55:Source\ComplexMathFunctions/arm_cmplx_mag_q15.c ****   q15_t * pDst,
  56:Source\ComplexMathFunctions/arm_cmplx_mag_q15.c ****   uint32_t numSamples)
  57:Source\ComplexMathFunctions/arm_cmplx_mag_q15.c **** {
  26              		.loc 1 57 0
  27              		.cfi_startproc
  28 0000 F0B5     		push	{r4, r5, r6, r7, lr}
  29              		.cfi_def_cfa_offset 20
  30              		.cfi_offset 4, -20
  31              		.cfi_offset 5, -16
  32              		.cfi_offset 6, -12
  33              		.cfi_offset 7, -8
  34              		.cfi_offset 14, -4
  35 0002 8DB0     		sub	sp, sp, #52
  36              		.cfi_def_cfa_offset 72
  37 0004 00AF     		add	r7, sp, #0
  38              		.cfi_def_cfa_register 7
  39 0006 F861     		str	r0, [r7, #28]
  40 0008 B961     		str	r1, [r7, #24]
  41 000a 7A61     		str	r2, [r7, #20]
  58:Source\ComplexMathFunctions/arm_cmplx_mag_q15.c ****   q31_t acc0, acc1;                              /* Accumulators */
  59:Source\ComplexMathFunctions/arm_cmplx_mag_q15.c **** 
  60:Source\ComplexMathFunctions/arm_cmplx_mag_q15.c **** #if defined (ARM_MATH_DSP)
  61:Source\ComplexMathFunctions/arm_cmplx_mag_q15.c **** 
  62:Source\ComplexMathFunctions/arm_cmplx_mag_q15.c ****   /* Run the below code for Cortex-M4 and Cortex-M3 */
  63:Source\ComplexMathFunctions/arm_cmplx_mag_q15.c ****   uint32_t blkCnt;                               /* loop counter */
  64:Source\ComplexMathFunctions/arm_cmplx_mag_q15.c ****   q31_t in1, in2, in3, in4;
  65:Source\ComplexMathFunctions/arm_cmplx_mag_q15.c ****   q31_t acc2, acc3;
  66:Source\ComplexMathFunctions/arm_cmplx_mag_q15.c **** 
  67:Source\ComplexMathFunctions/arm_cmplx_mag_q15.c **** 
  68:Source\ComplexMathFunctions/arm_cmplx_mag_q15.c ****   /*loop Unrolling */
  69:Source\ComplexMathFunctions/arm_cmplx_mag_q15.c ****   blkCnt = numSamples >> 2u;
  70:Source\ComplexMathFunctions/arm_cmplx_mag_q15.c **** 
  71:Source\ComplexMathFunctions/arm_cmplx_mag_q15.c ****   /* First part of the processing with loop unrolling.  Compute 4 outputs at a time.
  72:Source\ComplexMathFunctions/arm_cmplx_mag_q15.c ****    ** a second loop below computes the remaining 1 to 3 samples. */
  73:Source\ComplexMathFunctions/arm_cmplx_mag_q15.c ****   while (blkCnt > 0u)
ARM GAS  C:\Users\fneves\AppData\Local\Temp\cch26CEf.s 			page 3


  74:Source\ComplexMathFunctions/arm_cmplx_mag_q15.c ****   {
  75:Source\ComplexMathFunctions/arm_cmplx_mag_q15.c **** 
  76:Source\ComplexMathFunctions/arm_cmplx_mag_q15.c ****     /* C[0] = sqrt(A[0] * A[0] + A[1] * A[1]) */
  77:Source\ComplexMathFunctions/arm_cmplx_mag_q15.c ****     in1 = *__SIMD32(pSrc)++;
  78:Source\ComplexMathFunctions/arm_cmplx_mag_q15.c ****     in2 = *__SIMD32(pSrc)++;
  79:Source\ComplexMathFunctions/arm_cmplx_mag_q15.c ****     in3 = *__SIMD32(pSrc)++;
  80:Source\ComplexMathFunctions/arm_cmplx_mag_q15.c ****     in4 = *__SIMD32(pSrc)++;
  81:Source\ComplexMathFunctions/arm_cmplx_mag_q15.c **** 
  82:Source\ComplexMathFunctions/arm_cmplx_mag_q15.c ****     acc0 = __SMUAD(in1, in1);
  83:Source\ComplexMathFunctions/arm_cmplx_mag_q15.c ****     acc1 = __SMUAD(in2, in2);
  84:Source\ComplexMathFunctions/arm_cmplx_mag_q15.c ****     acc2 = __SMUAD(in3, in3);
  85:Source\ComplexMathFunctions/arm_cmplx_mag_q15.c ****     acc3 = __SMUAD(in4, in4);
  86:Source\ComplexMathFunctions/arm_cmplx_mag_q15.c **** 
  87:Source\ComplexMathFunctions/arm_cmplx_mag_q15.c ****     /* store the result in 2.14 format in the destination buffer. */
  88:Source\ComplexMathFunctions/arm_cmplx_mag_q15.c ****     arm_sqrt_q15((q15_t) ((acc0) >> 17), pDst++);
  89:Source\ComplexMathFunctions/arm_cmplx_mag_q15.c ****     arm_sqrt_q15((q15_t) ((acc1) >> 17), pDst++);
  90:Source\ComplexMathFunctions/arm_cmplx_mag_q15.c ****     arm_sqrt_q15((q15_t) ((acc2) >> 17), pDst++);
  91:Source\ComplexMathFunctions/arm_cmplx_mag_q15.c ****     arm_sqrt_q15((q15_t) ((acc3) >> 17), pDst++);
  92:Source\ComplexMathFunctions/arm_cmplx_mag_q15.c **** 
  93:Source\ComplexMathFunctions/arm_cmplx_mag_q15.c ****     /* Decrement the loop counter */
  94:Source\ComplexMathFunctions/arm_cmplx_mag_q15.c ****     blkCnt--;
  95:Source\ComplexMathFunctions/arm_cmplx_mag_q15.c ****   }
  96:Source\ComplexMathFunctions/arm_cmplx_mag_q15.c **** 
  97:Source\ComplexMathFunctions/arm_cmplx_mag_q15.c ****   /* If the numSamples is not a multiple of 4, compute any remaining output samples here.
  98:Source\ComplexMathFunctions/arm_cmplx_mag_q15.c ****    ** No loop unrolling is used. */
  99:Source\ComplexMathFunctions/arm_cmplx_mag_q15.c ****   blkCnt = numSamples % 0x4u;
 100:Source\ComplexMathFunctions/arm_cmplx_mag_q15.c **** 
 101:Source\ComplexMathFunctions/arm_cmplx_mag_q15.c ****   while (blkCnt > 0u)
 102:Source\ComplexMathFunctions/arm_cmplx_mag_q15.c ****   {
 103:Source\ComplexMathFunctions/arm_cmplx_mag_q15.c ****     /* C[0] = sqrt(A[0] * A[0] + A[1] * A[1]) */
 104:Source\ComplexMathFunctions/arm_cmplx_mag_q15.c ****     in1 = *__SIMD32(pSrc)++;
 105:Source\ComplexMathFunctions/arm_cmplx_mag_q15.c ****     acc0 = __SMUAD(in1, in1);
 106:Source\ComplexMathFunctions/arm_cmplx_mag_q15.c **** 
 107:Source\ComplexMathFunctions/arm_cmplx_mag_q15.c ****     /* store the result in 2.14 format in the destination buffer. */
 108:Source\ComplexMathFunctions/arm_cmplx_mag_q15.c ****     arm_sqrt_q15((q15_t) (acc0 >> 17), pDst++);
 109:Source\ComplexMathFunctions/arm_cmplx_mag_q15.c **** 
 110:Source\ComplexMathFunctions/arm_cmplx_mag_q15.c ****     /* Decrement the loop counter */
 111:Source\ComplexMathFunctions/arm_cmplx_mag_q15.c ****     blkCnt--;
 112:Source\ComplexMathFunctions/arm_cmplx_mag_q15.c ****   }
 113:Source\ComplexMathFunctions/arm_cmplx_mag_q15.c **** 
 114:Source\ComplexMathFunctions/arm_cmplx_mag_q15.c **** #else
 115:Source\ComplexMathFunctions/arm_cmplx_mag_q15.c **** 
 116:Source\ComplexMathFunctions/arm_cmplx_mag_q15.c ****   /* Run the below code for Cortex-M0 */
 117:Source\ComplexMathFunctions/arm_cmplx_mag_q15.c ****   q15_t real, imag;                              /* Temporary variables to hold input values */
 118:Source\ComplexMathFunctions/arm_cmplx_mag_q15.c **** 
 119:Source\ComplexMathFunctions/arm_cmplx_mag_q15.c ****   while (numSamples > 0u)
  42              		.loc 1 119 0
  43 000c 51E0     		b	.L2
  44              	.L3:
 120:Source\ComplexMathFunctions/arm_cmplx_mag_q15.c ****   {
 121:Source\ComplexMathFunctions/arm_cmplx_mag_q15.c ****     /* out = sqrt(real * real + imag * imag) */
 122:Source\ComplexMathFunctions/arm_cmplx_mag_q15.c ****     real = *pSrc++;
  45              		.loc 1 122 0
  46 000e FB69     		ldr	r3, [r7, #28]
  47 0010 9A1C     		add	r2, r3, #2
  48 0012 FA61     		str	r2, [r7, #28]
  49 0014 1E22     		mov	r2, #30
ARM GAS  C:\Users\fneves\AppData\Local\Temp\cch26CEf.s 			page 4


  50 0016 1021     		mov	r1, #16
  51 0018 8C46     		mov	ip, r1
  52 001a BC44     		add	ip, ip, r7
  53 001c 6244     		add	r2, r2, ip
  54 001e 1B88     		ldrh	r3, [r3]
  55 0020 1380     		strh	r3, [r2]
 123:Source\ComplexMathFunctions/arm_cmplx_mag_q15.c ****     imag = *pSrc++;
  56              		.loc 1 123 0
  57 0022 FB69     		ldr	r3, [r7, #28]
  58 0024 9A1C     		add	r2, r3, #2
  59 0026 FA61     		str	r2, [r7, #28]
  60 0028 1C22     		mov	r2, #28
  61 002a 1021     		mov	r1, #16
  62 002c 8C46     		mov	ip, r1
  63 002e BC44     		add	ip, ip, r7
  64 0030 6244     		add	r2, r2, ip
  65 0032 1B88     		ldrh	r3, [r3]
  66 0034 1380     		strh	r3, [r2]
 124:Source\ComplexMathFunctions/arm_cmplx_mag_q15.c **** 
 125:Source\ComplexMathFunctions/arm_cmplx_mag_q15.c ****     acc0 = (real * real);
  67              		.loc 1 125 0
  68 0036 1E23     		mov	r3, #30
  69 0038 1022     		mov	r2, #16
  70 003a 9446     		mov	ip, r2
  71 003c BC44     		add	ip, ip, r7
  72 003e 6344     		add	r3, r3, ip
  73 0040 0022     		mov	r2, #0
  74 0042 9B5E     		ldrsh	r3, [r3, r2]
  75 0044 1E22     		mov	r2, #30
  76 0046 1021     		mov	r1, #16
  77 0048 8C46     		mov	ip, r1
  78 004a BC44     		add	ip, ip, r7
  79 004c 6244     		add	r2, r2, ip
  80 004e 0021     		mov	r1, #0
  81 0050 525E     		ldrsh	r2, [r2, r1]
  82 0052 5343     		mul	r3, r2
  83 0054 BB62     		str	r3, [r7, #40]
 126:Source\ComplexMathFunctions/arm_cmplx_mag_q15.c ****     acc1 = (imag * imag);
  84              		.loc 1 126 0
  85 0056 1C23     		mov	r3, #28
  86 0058 1022     		mov	r2, #16
  87 005a 9446     		mov	ip, r2
  88 005c BC44     		add	ip, ip, r7
  89 005e 6344     		add	r3, r3, ip
  90 0060 0022     		mov	r2, #0
  91 0062 9B5E     		ldrsh	r3, [r3, r2]
  92 0064 1C22     		mov	r2, #28
  93 0066 1021     		mov	r1, #16
  94 0068 8C46     		mov	ip, r1
  95 006a BC44     		add	ip, ip, r7
  96 006c 6244     		add	r2, r2, ip
  97 006e 0021     		mov	r1, #0
  98 0070 525E     		ldrsh	r2, [r2, r1]
  99 0072 5343     		mul	r3, r2
 100 0074 7B62     		str	r3, [r7, #36]
 127:Source\ComplexMathFunctions/arm_cmplx_mag_q15.c **** 
 128:Source\ComplexMathFunctions/arm_cmplx_mag_q15.c ****     /* store the result in 2.14 format in the destination buffer. */
ARM GAS  C:\Users\fneves\AppData\Local\Temp\cch26CEf.s 			page 5


 129:Source\ComplexMathFunctions/arm_cmplx_mag_q15.c ****     arm_sqrt_q15((q15_t) (((q63_t) acc0 + acc1) >> 17), pDst++);
 101              		.loc 1 129 0
 102 0076 BB6A     		ldr	r3, [r7, #40]
 103 0078 BB60     		str	r3, [r7, #8]
 104 007a DB17     		asr	r3, r3, #31
 105 007c FB60     		str	r3, [r7, #12]
 106 007e 7B6A     		ldr	r3, [r7, #36]
 107 0080 3B60     		str	r3, [r7]
 108 0082 DB17     		asr	r3, r3, #31
 109 0084 7B60     		str	r3, [r7, #4]
 110 0086 BB68     		ldr	r3, [r7, #8]
 111 0088 FC68     		ldr	r4, [r7, #12]
 112 008a 3968     		ldr	r1, [r7]
 113 008c 7A68     		ldr	r2, [r7, #4]
 114 008e 5B18     		add	r3, r3, r1
 115 0090 5441     		adc	r4, r4, r2
 116 0092 E203     		lsl	r2, r4, #15
 117 0094 5D0C     		lsr	r5, r3, #17
 118 0096 1543     		orr	r5, r2
 119 0098 6614     		asr	r6, r4, #17
 120 009a A9B2     		uxth	r1, r5
 121 009c BB69     		ldr	r3, [r7, #24]
 122 009e 9A1C     		add	r2, r3, #2
 123 00a0 BA61     		str	r2, [r7, #24]
 124 00a2 0AB2     		sxth	r2, r1
 125 00a4 101C     		mov	r0, r2
 126 00a6 191C     		mov	r1, r3
 127 00a8 FFF7FEFF 		bl	arm_sqrt_q15
 130:Source\ComplexMathFunctions/arm_cmplx_mag_q15.c **** 
 131:Source\ComplexMathFunctions/arm_cmplx_mag_q15.c ****     /* Decrement the loop counter */
 132:Source\ComplexMathFunctions/arm_cmplx_mag_q15.c ****     numSamples--;
 128              		.loc 1 132 0
 129 00ac 7B69     		ldr	r3, [r7, #20]
 130 00ae 013B     		sub	r3, r3, #1
 131 00b0 7B61     		str	r3, [r7, #20]
 132              	.L2:
 119:Source\ComplexMathFunctions/arm_cmplx_mag_q15.c ****   {
 133              		.loc 1 119 0
 134 00b2 7B69     		ldr	r3, [r7, #20]
 135 00b4 002B     		cmp	r3, #0
 136 00b6 AAD1     		bne	.L3
 133:Source\ComplexMathFunctions/arm_cmplx_mag_q15.c ****   }
 134:Source\ComplexMathFunctions/arm_cmplx_mag_q15.c **** 
 135:Source\ComplexMathFunctions/arm_cmplx_mag_q15.c **** #endif /* #if defined (ARM_MATH_DSP) */
 136:Source\ComplexMathFunctions/arm_cmplx_mag_q15.c **** 
 137:Source\ComplexMathFunctions/arm_cmplx_mag_q15.c **** }
 137              		.loc 1 137 0
 138 00b8 BD46     		mov	sp, r7
 139 00ba 0DB0     		add	sp, sp, #52
 140              		@ sp needed
 141 00bc F0BD     		pop	{r4, r5, r6, r7, pc}
 142              		.cfi_endproc
 143              	.LFE82:
 144              		.size	arm_cmplx_mag_q15, .-arm_cmplx_mag_q15
 145 00be C046     		.text
 146              	.Letext0:
 147              		.file 2 "c:\\program files (x86)\\cypress\\psoc creator\\4.0\\psoc creator\\import\\gnu\\arm\\4.9.
ARM GAS  C:\Users\fneves\AppData\Local\Temp\cch26CEf.s 			page 6


 148              		.file 3 "c:\\program files (x86)\\cypress\\psoc creator\\4.0\\psoc creator\\import\\gnu\\arm\\4.9.
 149              		.file 4 ".\\Include/arm_math.h"