ARM GAS  C:\Users\fneves\AppData\Local\Temp\ccBJVvkW.s 			page 1


   1              		.cpu cortex-m0plus
   2              		.fpu softvfp
   3              		.eabi_attribute 20, 1
   4              		.eabi_attribute 21, 1
   5              		.eabi_attribute 23, 3
   6              		.eabi_attribute 24, 1
   7              		.eabi_attribute 25, 1
   8              		.eabi_attribute 26, 1
   9              		.eabi_attribute 30, 6
  10              		.eabi_attribute 34, 0
  11              		.eabi_attribute 18, 4
  12              		.code	16
  13              		.file	"arm_conv_partial_fast_q31.c"
  14              		.text
  15              	.Ltext0:
  16              		.cfi_sections	.debug_frame
  17              		.global	__aeabi_lmul
  18              		.section	.text.arm_conv_partial_fast_q31,"ax",%progbits
  19              		.align	2
  20              		.global	arm_conv_partial_fast_q31
  21              		.code	16
  22              		.thumb_func
  23              		.type	arm_conv_partial_fast_q31, %function
  24              	arm_conv_partial_fast_q31:
  25              	.LFB82:
  26              		.file 1 "Source\\FilteringFunctions\\arm_conv_partial_fast_q31.c"
   1:Source\FilteringFunctions/arm_conv_partial_fast_q31.c **** /* ----------------------------------------------------------------------
   2:Source\FilteringFunctions/arm_conv_partial_fast_q31.c ****  * Project:      CMSIS DSP Library
   3:Source\FilteringFunctions/arm_conv_partial_fast_q31.c ****  * Title:        arm_conv_partial_fast_q31.c
   4:Source\FilteringFunctions/arm_conv_partial_fast_q31.c ****  * Description:  Fast Q31 Partial convolution
   5:Source\FilteringFunctions/arm_conv_partial_fast_q31.c ****  *
   6:Source\FilteringFunctions/arm_conv_partial_fast_q31.c ****  * $Date:        27. January 2017
   7:Source\FilteringFunctions/arm_conv_partial_fast_q31.c ****  * $Revision:    V.1.5.1
   8:Source\FilteringFunctions/arm_conv_partial_fast_q31.c ****  *
   9:Source\FilteringFunctions/arm_conv_partial_fast_q31.c ****  * Target Processor: Cortex-M cores
  10:Source\FilteringFunctions/arm_conv_partial_fast_q31.c ****  * -------------------------------------------------------------------- */
  11:Source\FilteringFunctions/arm_conv_partial_fast_q31.c **** /*
  12:Source\FilteringFunctions/arm_conv_partial_fast_q31.c ****  * Copyright (C) 2010-2017 ARM Limited or its affiliates. All rights reserved.
  13:Source\FilteringFunctions/arm_conv_partial_fast_q31.c ****  *
  14:Source\FilteringFunctions/arm_conv_partial_fast_q31.c ****  * SPDX-License-Identifier: Apache-2.0
  15:Source\FilteringFunctions/arm_conv_partial_fast_q31.c ****  *
  16:Source\FilteringFunctions/arm_conv_partial_fast_q31.c ****  * Licensed under the Apache License, Version 2.0 (the License); you may
  17:Source\FilteringFunctions/arm_conv_partial_fast_q31.c ****  * not use this file except in compliance with the License.
  18:Source\FilteringFunctions/arm_conv_partial_fast_q31.c ****  * You may obtain a copy of the License at
  19:Source\FilteringFunctions/arm_conv_partial_fast_q31.c ****  *
  20:Source\FilteringFunctions/arm_conv_partial_fast_q31.c ****  * www.apache.org/licenses/LICENSE-2.0
  21:Source\FilteringFunctions/arm_conv_partial_fast_q31.c ****  *
  22:Source\FilteringFunctions/arm_conv_partial_fast_q31.c ****  * Unless required by applicable law or agreed to in writing, software
  23:Source\FilteringFunctions/arm_conv_partial_fast_q31.c ****  * distributed under the License is distributed on an AS IS BASIS, WITHOUT
  24:Source\FilteringFunctions/arm_conv_partial_fast_q31.c ****  * WARRANTIES OR CONDITIONS OF ANY KIND, either express or implied.
  25:Source\FilteringFunctions/arm_conv_partial_fast_q31.c ****  * See the License for the specific language governing permissions and
  26:Source\FilteringFunctions/arm_conv_partial_fast_q31.c ****  * limitations under the License.
  27:Source\FilteringFunctions/arm_conv_partial_fast_q31.c ****  */
  28:Source\FilteringFunctions/arm_conv_partial_fast_q31.c **** 
  29:Source\FilteringFunctions/arm_conv_partial_fast_q31.c **** #include "arm_math.h"
  30:Source\FilteringFunctions/arm_conv_partial_fast_q31.c **** 
  31:Source\FilteringFunctions/arm_conv_partial_fast_q31.c **** /**
ARM GAS  C:\Users\fneves\AppData\Local\Temp\ccBJVvkW.s 			page 2


  32:Source\FilteringFunctions/arm_conv_partial_fast_q31.c ****  * @ingroup groupFilters
  33:Source\FilteringFunctions/arm_conv_partial_fast_q31.c ****  */
  34:Source\FilteringFunctions/arm_conv_partial_fast_q31.c **** 
  35:Source\FilteringFunctions/arm_conv_partial_fast_q31.c **** /**
  36:Source\FilteringFunctions/arm_conv_partial_fast_q31.c ****  * @addtogroup PartialConv
  37:Source\FilteringFunctions/arm_conv_partial_fast_q31.c ****  * @{
  38:Source\FilteringFunctions/arm_conv_partial_fast_q31.c ****  */
  39:Source\FilteringFunctions/arm_conv_partial_fast_q31.c **** 
  40:Source\FilteringFunctions/arm_conv_partial_fast_q31.c **** /**
  41:Source\FilteringFunctions/arm_conv_partial_fast_q31.c ****  * @brief Partial convolution of Q31 sequences (fast version) for Cortex-M3 and Cortex-M4.
  42:Source\FilteringFunctions/arm_conv_partial_fast_q31.c ****  * @param[in]       *pSrcA points to the first input sequence.
  43:Source\FilteringFunctions/arm_conv_partial_fast_q31.c ****  * @param[in]       srcALen length of the first input sequence.
  44:Source\FilteringFunctions/arm_conv_partial_fast_q31.c ****  * @param[in]       *pSrcB points to the second input sequence.
  45:Source\FilteringFunctions/arm_conv_partial_fast_q31.c ****  * @param[in]       srcBLen length of the second input sequence.
  46:Source\FilteringFunctions/arm_conv_partial_fast_q31.c ****  * @param[out]      *pDst points to the location where the output result is written.
  47:Source\FilteringFunctions/arm_conv_partial_fast_q31.c ****  * @param[in]       firstIndex is the first output sample to start with.
  48:Source\FilteringFunctions/arm_conv_partial_fast_q31.c ****  * @param[in]       numPoints is the number of output points to be computed.
  49:Source\FilteringFunctions/arm_conv_partial_fast_q31.c ****  * @return Returns either ARM_MATH_SUCCESS if the function completed correctly or ARM_MATH_ARGUMENT
  50:Source\FilteringFunctions/arm_conv_partial_fast_q31.c ****  *
  51:Source\FilteringFunctions/arm_conv_partial_fast_q31.c ****  * \par
  52:Source\FilteringFunctions/arm_conv_partial_fast_q31.c ****  * See <code>arm_conv_partial_q31()</code> for a slower implementation of this function which uses 
  53:Source\FilteringFunctions/arm_conv_partial_fast_q31.c ****  */
  54:Source\FilteringFunctions/arm_conv_partial_fast_q31.c **** 
  55:Source\FilteringFunctions/arm_conv_partial_fast_q31.c **** arm_status arm_conv_partial_fast_q31(
  56:Source\FilteringFunctions/arm_conv_partial_fast_q31.c ****   q31_t * pSrcA,
  57:Source\FilteringFunctions/arm_conv_partial_fast_q31.c ****   uint32_t srcALen,
  58:Source\FilteringFunctions/arm_conv_partial_fast_q31.c ****   q31_t * pSrcB,
  59:Source\FilteringFunctions/arm_conv_partial_fast_q31.c ****   uint32_t srcBLen,
  60:Source\FilteringFunctions/arm_conv_partial_fast_q31.c ****   q31_t * pDst,
  61:Source\FilteringFunctions/arm_conv_partial_fast_q31.c ****   uint32_t firstIndex,
  62:Source\FilteringFunctions/arm_conv_partial_fast_q31.c ****   uint32_t numPoints)
  63:Source\FilteringFunctions/arm_conv_partial_fast_q31.c **** {
  27              		.loc 1 63 0
  28              		.cfi_startproc
  29 0000 F0B5     		push	{r4, r5, r6, r7, lr}
  30              		.cfi_def_cfa_offset 20
  31              		.cfi_offset 4, -20
  32              		.cfi_offset 5, -16
  33              		.cfi_offset 6, -12
  34              		.cfi_offset 7, -8
  35              		.cfi_offset 14, -4
  36 0002 B54C     		ldr	r4, .L47
  37 0004 A544     		add	sp, sp, r4
  38              		.cfi_def_cfa_offset 1576
  39 0006 00AF     		add	r7, sp, #0
  40              		.cfi_def_cfa_register 7
  41 0008 B44C     		ldr	r4, .L47+4
  42 000a 3C19     		add	r4, r7, r4
  43 000c 2060     		str	r0, [r4]
  44 000e B420     		mov	r0, #180
  45 0010 C000     		lsl	r0, r0, #3
  46 0012 3818     		add	r0, r7, r0
  47 0014 0160     		str	r1, [r0]
  48 0016 B249     		ldr	r1, .L47+8
  49 0018 7918     		add	r1, r7, r1
  50 001a 0A60     		str	r2, [r1]
  51 001c B322     		mov	r2, #179
ARM GAS  C:\Users\fneves\AppData\Local\Temp\ccBJVvkW.s 			page 3


  52 001e D200     		lsl	r2, r2, #3
  53 0020 BA18     		add	r2, r7, r2
  54 0022 1360     		str	r3, [r2]
  64:Source\FilteringFunctions/arm_conv_partial_fast_q31.c ****   q31_t *pIn1;                                   /* inputA pointer               */
  65:Source\FilteringFunctions/arm_conv_partial_fast_q31.c ****   q31_t *pIn2;                                   /* inputB pointer               */
  66:Source\FilteringFunctions/arm_conv_partial_fast_q31.c ****   q31_t *pOut = pDst;                            /* output pointer               */
  55              		.loc 1 66 0
  56 0024 9023     		mov	r3, #144
  57 0026 B322     		mov	r2, #179
  58 0028 D200     		lsl	r2, r2, #3
  59 002a 9446     		mov	ip, r2
  60 002c BC44     		add	ip, ip, r7
  61 002e 6344     		add	r3, r3, ip
  62 0030 1B68     		ldr	r3, [r3]
  63 0032 AC4A     		ldr	r2, .L47+12
  64 0034 BA18     		add	r2, r7, r2
  65 0036 1360     		str	r3, [r2]
  67:Source\FilteringFunctions/arm_conv_partial_fast_q31.c ****   q31_t *px;                                     /* Intermediate inputA pointer  */
  68:Source\FilteringFunctions/arm_conv_partial_fast_q31.c ****   q31_t *py;                                     /* Intermediate inputB pointer  */
  69:Source\FilteringFunctions/arm_conv_partial_fast_q31.c ****   q31_t *pSrc1, *pSrc2;                          /* Intermediate pointers        */
  70:Source\FilteringFunctions/arm_conv_partial_fast_q31.c ****   q31_t sum, acc0, acc1, acc2, acc3;             /* Accumulators                  */
  71:Source\FilteringFunctions/arm_conv_partial_fast_q31.c ****   q31_t x0, x1, x2, x3, c0;
  72:Source\FilteringFunctions/arm_conv_partial_fast_q31.c ****   uint32_t j, k, count, check, blkCnt;
  73:Source\FilteringFunctions/arm_conv_partial_fast_q31.c ****   int32_t blockSize1, blockSize2, blockSize3;    /* loop counters                 */
  74:Source\FilteringFunctions/arm_conv_partial_fast_q31.c ****   arm_status status;                             /* status of Partial convolution */
  75:Source\FilteringFunctions/arm_conv_partial_fast_q31.c **** 
  76:Source\FilteringFunctions/arm_conv_partial_fast_q31.c **** 
  77:Source\FilteringFunctions/arm_conv_partial_fast_q31.c ****   /* Check for range of output samples to be calculated */
  78:Source\FilteringFunctions/arm_conv_partial_fast_q31.c ****   if ((firstIndex + numPoints) > ((srcALen + (srcBLen - 1u))))
  66              		.loc 1 78 0
  67 0038 9423     		mov	r3, #148
  68 003a B322     		mov	r2, #179
  69 003c D200     		lsl	r2, r2, #3
  70 003e 9446     		mov	ip, r2
  71 0040 BC44     		add	ip, ip, r7
  72 0042 6344     		add	r3, r3, ip
  73 0044 1A68     		ldr	r2, [r3]
  74 0046 9823     		mov	r3, #152
  75 0048 B321     		mov	r1, #179
  76 004a C900     		lsl	r1, r1, #3
  77 004c 8C46     		mov	ip, r1
  78 004e BC44     		add	ip, ip, r7
  79 0050 6344     		add	r3, r3, ip
  80 0052 1B68     		ldr	r3, [r3]
  81 0054 D118     		add	r1, r2, r3
  82 0056 B323     		mov	r3, #179
  83 0058 DB00     		lsl	r3, r3, #3
  84 005a FB18     		add	r3, r7, r3
  85 005c 1A68     		ldr	r2, [r3]
  86 005e B423     		mov	r3, #180
  87 0060 DB00     		lsl	r3, r3, #3
  88 0062 FB18     		add	r3, r7, r3
  89 0064 1B68     		ldr	r3, [r3]
  90 0066 D318     		add	r3, r2, r3
  91 0068 013B     		sub	r3, r3, #1
  92 006a 9942     		cmp	r1, r3
  93 006c 09D9     		bls	.L2
ARM GAS  C:\Users\fneves\AppData\Local\Temp\ccBJVvkW.s 			page 4


  79:Source\FilteringFunctions/arm_conv_partial_fast_q31.c ****   {
  80:Source\FilteringFunctions/arm_conv_partial_fast_q31.c ****     /* Set status as ARM_MATH_ARGUMENT_ERROR */
  81:Source\FilteringFunctions/arm_conv_partial_fast_q31.c ****     status = ARM_MATH_ARGUMENT_ERROR;
  94              		.loc 1 81 0
  95 006e 2723     		mov	r3, #39
  96 0070 B322     		mov	r2, #179
  97 0072 D200     		lsl	r2, r2, #3
  98 0074 9446     		mov	ip, r2
  99 0076 BC44     		add	ip, ip, r7
 100 0078 6344     		add	r3, r3, ip
 101 007a FF22     		mov	r2, #255
 102 007c 1A70     		strb	r2, [r3]
 103 007e 02F002FA 		bl	.L3	@ far jump
 104              	.L2:
  82:Source\FilteringFunctions/arm_conv_partial_fast_q31.c ****   }
  83:Source\FilteringFunctions/arm_conv_partial_fast_q31.c ****   else
  84:Source\FilteringFunctions/arm_conv_partial_fast_q31.c ****   {
  85:Source\FilteringFunctions/arm_conv_partial_fast_q31.c **** 
  86:Source\FilteringFunctions/arm_conv_partial_fast_q31.c ****     /* The algorithm implementation is based on the lengths of the inputs. */
  87:Source\FilteringFunctions/arm_conv_partial_fast_q31.c ****     /* srcB is always made to slide across srcA. */
  88:Source\FilteringFunctions/arm_conv_partial_fast_q31.c ****     /* So srcBLen is always considered as shorter or equal to srcALen */
  89:Source\FilteringFunctions/arm_conv_partial_fast_q31.c ****     if (srcALen >= srcBLen)
 105              		.loc 1 89 0
 106 0082 B423     		mov	r3, #180
 107 0084 DB00     		lsl	r3, r3, #3
 108 0086 FB18     		add	r3, r7, r3
 109 0088 1A68     		ldr	r2, [r3]
 110 008a B323     		mov	r3, #179
 111 008c DB00     		lsl	r3, r3, #3
 112 008e FB18     		add	r3, r7, r3
 113 0090 1B68     		ldr	r3, [r3]
 114 0092 9A42     		cmp	r2, r3
 115 0094 0DD3     		bcc	.L4
  90:Source\FilteringFunctions/arm_conv_partial_fast_q31.c ****     {
  91:Source\FilteringFunctions/arm_conv_partial_fast_q31.c ****       /* Initialization of inputA pointer */
  92:Source\FilteringFunctions/arm_conv_partial_fast_q31.c ****       pIn1 = pSrcA;
 116              		.loc 1 92 0
 117 0096 914B     		ldr	r3, .L47+4
 118 0098 FB18     		add	r3, r7, r3
 119 009a 1B68     		ldr	r3, [r3]
 120 009c 924A     		ldr	r2, .L47+16
 121 009e BA18     		add	r2, r7, r2
 122 00a0 1360     		str	r3, [r2]
  93:Source\FilteringFunctions/arm_conv_partial_fast_q31.c **** 
  94:Source\FilteringFunctions/arm_conv_partial_fast_q31.c ****       /* Initialization of inputB pointer */
  95:Source\FilteringFunctions/arm_conv_partial_fast_q31.c ****       pIn2 = pSrcB;
 123              		.loc 1 95 0
 124 00a2 8F4B     		ldr	r3, .L47+8
 125 00a4 FB18     		add	r3, r7, r3
 126 00a6 1B68     		ldr	r3, [r3]
 127 00a8 C122     		mov	r2, #193
 128 00aa D200     		lsl	r2, r2, #3
 129 00ac BA18     		add	r2, r7, r2
 130 00ae 1360     		str	r3, [r2]
 131 00b0 24E0     		b	.L5
 132              	.L4:
  96:Source\FilteringFunctions/arm_conv_partial_fast_q31.c ****     }
ARM GAS  C:\Users\fneves\AppData\Local\Temp\ccBJVvkW.s 			page 5


  97:Source\FilteringFunctions/arm_conv_partial_fast_q31.c ****     else
  98:Source\FilteringFunctions/arm_conv_partial_fast_q31.c ****     {
  99:Source\FilteringFunctions/arm_conv_partial_fast_q31.c ****       /* Initialization of inputA pointer */
 100:Source\FilteringFunctions/arm_conv_partial_fast_q31.c ****       pIn1 = pSrcB;
 133              		.loc 1 100 0
 134 00b2 8B4B     		ldr	r3, .L47+8
 135 00b4 FB18     		add	r3, r7, r3
 136 00b6 1B68     		ldr	r3, [r3]
 137 00b8 8B4A     		ldr	r2, .L47+16
 138 00ba BA18     		add	r2, r7, r2
 139 00bc 1360     		str	r3, [r2]
 101:Source\FilteringFunctions/arm_conv_partial_fast_q31.c **** 
 102:Source\FilteringFunctions/arm_conv_partial_fast_q31.c ****       /* Initialization of inputB pointer */
 103:Source\FilteringFunctions/arm_conv_partial_fast_q31.c ****       pIn2 = pSrcA;
 140              		.loc 1 103 0
 141 00be 874B     		ldr	r3, .L47+4
 142 00c0 FB18     		add	r3, r7, r3
 143 00c2 1B68     		ldr	r3, [r3]
 144 00c4 C122     		mov	r2, #193
 145 00c6 D200     		lsl	r2, r2, #3
 146 00c8 BA18     		add	r2, r7, r2
 147 00ca 1360     		str	r3, [r2]
 104:Source\FilteringFunctions/arm_conv_partial_fast_q31.c **** 
 105:Source\FilteringFunctions/arm_conv_partial_fast_q31.c ****       /* srcBLen is always considered as shorter or equal to srcALen */
 106:Source\FilteringFunctions/arm_conv_partial_fast_q31.c ****       j = srcBLen;
 148              		.loc 1 106 0
 149 00cc B323     		mov	r3, #179
 150 00ce DB00     		lsl	r3, r3, #3
 151 00d0 FB18     		add	r3, r7, r3
 152 00d2 1B68     		ldr	r3, [r3]
 153 00d4 B722     		mov	r2, #183
 154 00d6 D200     		lsl	r2, r2, #3
 155 00d8 BA18     		add	r2, r7, r2
 156 00da 1360     		str	r3, [r2]
 107:Source\FilteringFunctions/arm_conv_partial_fast_q31.c ****       srcBLen = srcALen;
 157              		.loc 1 107 0
 158 00dc B423     		mov	r3, #180
 159 00de DB00     		lsl	r3, r3, #3
 160 00e0 FB18     		add	r3, r7, r3
 161 00e2 1B68     		ldr	r3, [r3]
 162 00e4 B322     		mov	r2, #179
 163 00e6 D200     		lsl	r2, r2, #3
 164 00e8 BA18     		add	r2, r7, r2
 165 00ea 1360     		str	r3, [r2]
 108:Source\FilteringFunctions/arm_conv_partial_fast_q31.c ****       srcALen = j;
 166              		.loc 1 108 0
 167 00ec B723     		mov	r3, #183
 168 00ee DB00     		lsl	r3, r3, #3
 169 00f0 FB18     		add	r3, r7, r3
 170 00f2 1B68     		ldr	r3, [r3]
 171 00f4 B422     		mov	r2, #180
 172 00f6 D200     		lsl	r2, r2, #3
 173 00f8 BA18     		add	r2, r7, r2
 174 00fa 1360     		str	r3, [r2]
 175              	.L5:
 109:Source\FilteringFunctions/arm_conv_partial_fast_q31.c ****     }
 110:Source\FilteringFunctions/arm_conv_partial_fast_q31.c **** 
ARM GAS  C:\Users\fneves\AppData\Local\Temp\ccBJVvkW.s 			page 6


 111:Source\FilteringFunctions/arm_conv_partial_fast_q31.c ****     /* Conditions to check which loopCounter holds
 112:Source\FilteringFunctions/arm_conv_partial_fast_q31.c ****      * the first and last indices of the output samples to be calculated. */
 113:Source\FilteringFunctions/arm_conv_partial_fast_q31.c ****     check = firstIndex + numPoints;
 176              		.loc 1 113 0
 177 00fc 9423     		mov	r3, #148
 178 00fe B322     		mov	r2, #179
 179 0100 D200     		lsl	r2, r2, #3
 180 0102 9446     		mov	ip, r2
 181 0104 BC44     		add	ip, ip, r7
 182 0106 6344     		add	r3, r3, ip
 183 0108 1A68     		ldr	r2, [r3]
 184 010a 9823     		mov	r3, #152
 185 010c B321     		mov	r1, #179
 186 010e C900     		lsl	r1, r1, #3
 187 0110 8C46     		mov	ip, r1
 188 0112 BC44     		add	ip, ip, r7
 189 0114 6344     		add	r3, r3, ip
 190 0116 1B68     		ldr	r3, [r3]
 191 0118 D318     		add	r3, r2, r3
 192 011a 744A     		ldr	r2, .L47+20
 193 011c BA18     		add	r2, r7, r2
 194 011e 1360     		str	r3, [r2]
 114:Source\FilteringFunctions/arm_conv_partial_fast_q31.c ****     blockSize3 = ((int32_t)check > (int32_t)srcALen) ? (int32_t)check - (int32_t)srcALen : 0;
 195              		.loc 1 114 0
 196 0120 724B     		ldr	r3, .L47+20
 197 0122 FB18     		add	r3, r7, r3
 198 0124 1A68     		ldr	r2, [r3]
 199 0126 B423     		mov	r3, #180
 200 0128 DB00     		lsl	r3, r3, #3
 201 012a FB18     		add	r3, r7, r3
 202 012c 1B68     		ldr	r3, [r3]
 203 012e 9A42     		cmp	r2, r3
 204 0130 08DD     		ble	.L6
 205              		.loc 1 114 0 is_stmt 0 discriminator 1
 206 0132 6E4B     		ldr	r3, .L47+20
 207 0134 FB18     		add	r3, r7, r3
 208 0136 1A68     		ldr	r2, [r3]
 209 0138 B423     		mov	r3, #180
 210 013a DB00     		lsl	r3, r3, #3
 211 013c FB18     		add	r3, r7, r3
 212 013e 1B68     		ldr	r3, [r3]
 213 0140 D31A     		sub	r3, r2, r3
 214 0142 00E0     		b	.L7
 215              	.L6:
 216              		.loc 1 114 0 discriminator 2
 217 0144 0023     		mov	r3, #0
 218              	.L7:
 219              		.loc 1 114 0 discriminator 4
 220 0146 B822     		mov	r2, #184
 221 0148 D200     		lsl	r2, r2, #3
 222 014a BA18     		add	r2, r7, r2
 223 014c 1360     		str	r3, [r2]
 115:Source\FilteringFunctions/arm_conv_partial_fast_q31.c ****     blockSize3 = ((int32_t)firstIndex > (int32_t)srcALen - 1) ? blockSize3 - (int32_t)firstIndex + 
 224              		.loc 1 115 0 is_stmt 1 discriminator 4
 225 014e 9423     		mov	r3, #148
 226 0150 B322     		mov	r2, #179
 227 0152 D200     		lsl	r2, r2, #3
ARM GAS  C:\Users\fneves\AppData\Local\Temp\ccBJVvkW.s 			page 7


 228 0154 9446     		mov	ip, r2
 229 0156 BC44     		add	ip, ip, r7
 230 0158 6344     		add	r3, r3, ip
 231 015a 1A68     		ldr	r2, [r3]
 232 015c B423     		mov	r3, #180
 233 015e DB00     		lsl	r3, r3, #3
 234 0160 FB18     		add	r3, r7, r3
 235 0162 1B68     		ldr	r3, [r3]
 236 0164 013B     		sub	r3, r3, #1
 237 0166 9A42     		cmp	r2, r3
 238 0168 11DD     		ble	.L8
 239              		.loc 1 115 0 is_stmt 0 discriminator 1
 240 016a 9423     		mov	r3, #148
 241 016c B322     		mov	r2, #179
 242 016e D200     		lsl	r2, r2, #3
 243 0170 9446     		mov	ip, r2
 244 0172 BC44     		add	ip, ip, r7
 245 0174 6344     		add	r3, r3, ip
 246 0176 1A68     		ldr	r2, [r3]
 247 0178 B823     		mov	r3, #184
 248 017a DB00     		lsl	r3, r3, #3
 249 017c FB18     		add	r3, r7, r3
 250 017e 1B68     		ldr	r3, [r3]
 251 0180 9A1A     		sub	r2, r3, r2
 252 0182 B423     		mov	r3, #180
 253 0184 DB00     		lsl	r3, r3, #3
 254 0186 FB18     		add	r3, r7, r3
 255 0188 1B68     		ldr	r3, [r3]
 256 018a D318     		add	r3, r2, r3
 257 018c 03E0     		b	.L9
 258              	.L8:
 259              		.loc 1 115 0 discriminator 2
 260 018e B823     		mov	r3, #184
 261 0190 DB00     		lsl	r3, r3, #3
 262 0192 FB18     		add	r3, r7, r3
 263 0194 1B68     		ldr	r3, [r3]
 264              	.L9:
 265              		.loc 1 115 0 discriminator 4
 266 0196 B822     		mov	r2, #184
 267 0198 D200     		lsl	r2, r2, #3
 268 019a BA18     		add	r2, r7, r2
 269 019c 1360     		str	r3, [r2]
 116:Source\FilteringFunctions/arm_conv_partial_fast_q31.c ****     blockSize1 = (((int32_t) srcBLen - 1) - (int32_t) firstIndex);
 270              		.loc 1 116 0 is_stmt 1 discriminator 4
 271 019e B323     		mov	r3, #179
 272 01a0 DB00     		lsl	r3, r3, #3
 273 01a2 FB18     		add	r3, r7, r3
 274 01a4 1A68     		ldr	r2, [r3]
 275 01a6 9423     		mov	r3, #148
 276 01a8 B321     		mov	r1, #179
 277 01aa C900     		lsl	r1, r1, #3
 278 01ac 8C46     		mov	ip, r1
 279 01ae BC44     		add	ip, ip, r7
 280 01b0 6344     		add	r3, r3, ip
 281 01b2 1B68     		ldr	r3, [r3]
 282 01b4 D31A     		sub	r3, r2, r3
 283 01b6 013B     		sub	r3, r3, #1
ARM GAS  C:\Users\fneves\AppData\Local\Temp\ccBJVvkW.s 			page 8


 284 01b8 4D4A     		ldr	r2, .L47+24
 285 01ba BA18     		add	r2, r7, r2
 286 01bc 1360     		str	r3, [r2]
 117:Source\FilteringFunctions/arm_conv_partial_fast_q31.c ****     blockSize1 = (blockSize1 > 0) ? ((check > (srcBLen - 1u)) ? blockSize1 :
 118:Source\FilteringFunctions/arm_conv_partial_fast_q31.c ****                                      (int32_t) numPoints) : 0;
 287              		.loc 1 118 0 discriminator 4
 288 01be 4C4B     		ldr	r3, .L47+24
 289 01c0 FB18     		add	r3, r7, r3
 290 01c2 1B68     		ldr	r3, [r3]
 291 01c4 002B     		cmp	r3, #0
 292 01c6 15DD     		ble	.L10
 117:Source\FilteringFunctions/arm_conv_partial_fast_q31.c ****     blockSize1 = (blockSize1 > 0) ? ((check > (srcBLen - 1u)) ? blockSize1 :
 293              		.loc 1 117 0
 294 01c8 B323     		mov	r3, #179
 295 01ca DB00     		lsl	r3, r3, #3
 296 01cc FB18     		add	r3, r7, r3
 297 01ce 1B68     		ldr	r3, [r3]
 298 01d0 5A1E     		sub	r2, r3, #1
 299 01d2 464B     		ldr	r3, .L47+20
 300 01d4 FB18     		add	r3, r7, r3
 301 01d6 1B68     		ldr	r3, [r3]
 302 01d8 9A42     		cmp	r2, r3
 303 01da 07D3     		bcc	.L11
 117:Source\FilteringFunctions/arm_conv_partial_fast_q31.c ****     blockSize1 = (blockSize1 > 0) ? ((check > (srcBLen - 1u)) ? blockSize1 :
 304              		.loc 1 117 0 is_stmt 0 discriminator 1
 305 01dc 9823     		mov	r3, #152
 306 01de B322     		mov	r2, #179
 307 01e0 D200     		lsl	r2, r2, #3
 308 01e2 9446     		mov	ip, r2
 309 01e4 BC44     		add	ip, ip, r7
 310 01e6 6344     		add	r3, r3, ip
 311 01e8 1B68     		ldr	r3, [r3]
 312 01ea 04E0     		b	.L13
 313              	.L11:
 117:Source\FilteringFunctions/arm_conv_partial_fast_q31.c ****     blockSize1 = (blockSize1 > 0) ? ((check > (srcBLen - 1u)) ? blockSize1 :
 314              		.loc 1 117 0 discriminator 2
 315 01ec 404B     		ldr	r3, .L47+24
 316 01ee FB18     		add	r3, r7, r3
 317 01f0 1B68     		ldr	r3, [r3]
 318 01f2 00E0     		b	.L13
 319              	.L10:
 320              		.loc 1 118 0 is_stmt 1 discriminator 1
 321 01f4 0023     		mov	r3, #0
 322              	.L13:
 117:Source\FilteringFunctions/arm_conv_partial_fast_q31.c ****     blockSize1 = (blockSize1 > 0) ? ((check > (srcBLen - 1u)) ? blockSize1 :
 323              		.loc 1 117 0
 324 01f6 3E4A     		ldr	r2, .L47+24
 325 01f8 BA18     		add	r2, r7, r2
 326 01fa 1360     		str	r3, [r2]
 119:Source\FilteringFunctions/arm_conv_partial_fast_q31.c ****     blockSize2 = (int32_t) check - ((blockSize3 + blockSize1) +
 327              		.loc 1 119 0
 328 01fc 3B4B     		ldr	r3, .L47+20
 329 01fe FB18     		add	r3, r7, r3
 330 0200 1968     		ldr	r1, [r3]
 331 0202 B823     		mov	r3, #184
 332 0204 DB00     		lsl	r3, r3, #3
 333 0206 FB18     		add	r3, r7, r3
ARM GAS  C:\Users\fneves\AppData\Local\Temp\ccBJVvkW.s 			page 9


 334 0208 1A68     		ldr	r2, [r3]
 335 020a 394B     		ldr	r3, .L47+24
 336 020c FB18     		add	r3, r7, r3
 337 020e 1B68     		ldr	r3, [r3]
 338 0210 D218     		add	r2, r2, r3
 120:Source\FilteringFunctions/arm_conv_partial_fast_q31.c ****                                     (int32_t) firstIndex);
 339              		.loc 1 120 0
 340 0212 9423     		mov	r3, #148
 341 0214 B320     		mov	r0, #179
 342 0216 C000     		lsl	r0, r0, #3
 343 0218 8446     		mov	ip, r0
 344 021a BC44     		add	ip, ip, r7
 345 021c 6344     		add	r3, r3, ip
 346 021e 1B68     		ldr	r3, [r3]
 119:Source\FilteringFunctions/arm_conv_partial_fast_q31.c ****     blockSize2 = (int32_t) check - ((blockSize3 + blockSize1) +
 347              		.loc 1 119 0
 348 0220 D318     		add	r3, r2, r3
 349 0222 CB1A     		sub	r3, r1, r3
 350 0224 B622     		mov	r2, #182
 351 0226 D200     		lsl	r2, r2, #3
 352 0228 BA18     		add	r2, r7, r2
 353 022a 1360     		str	r3, [r2]
 121:Source\FilteringFunctions/arm_conv_partial_fast_q31.c ****     blockSize2 = (blockSize2 > 0) ? blockSize2 : 0;
 354              		.loc 1 121 0
 355 022c B623     		mov	r3, #182
 356 022e DB00     		lsl	r3, r3, #3
 357 0230 FB18     		add	r3, r7, r3
 358 0232 1B68     		ldr	r3, [r3]
 359 0234 002B     		cmp	r3, #0
 360 0236 00DA     		bge	.L14
 361 0238 0023     		mov	r3, #0
 362              	.L14:
 363 023a B622     		mov	r2, #182
 364 023c D200     		lsl	r2, r2, #3
 365 023e BA18     		add	r2, r7, r2
 366 0240 1360     		str	r3, [r2]
 122:Source\FilteringFunctions/arm_conv_partial_fast_q31.c **** 
 123:Source\FilteringFunctions/arm_conv_partial_fast_q31.c ****     /* conv(x,y) at n = x[n] * y[0] + x[n-1] * y[1] + x[n-2] * y[2] + ...+ x[n-N+1] * y[N -1] */
 124:Source\FilteringFunctions/arm_conv_partial_fast_q31.c ****     /* The function is internally
 125:Source\FilteringFunctions/arm_conv_partial_fast_q31.c ****      * divided into three stages according to the number of multiplications that has to be
 126:Source\FilteringFunctions/arm_conv_partial_fast_q31.c ****      * taken place between inputA samples and inputB samples. In the first stage of the
 127:Source\FilteringFunctions/arm_conv_partial_fast_q31.c ****      * algorithm, the multiplications increase by one for every iteration.
 128:Source\FilteringFunctions/arm_conv_partial_fast_q31.c ****      * In the second stage of the algorithm, srcBLen number of multiplications are done.
 129:Source\FilteringFunctions/arm_conv_partial_fast_q31.c ****      * In the third stage of the algorithm, the multiplications decrease by one
 130:Source\FilteringFunctions/arm_conv_partial_fast_q31.c ****      * for every iteration. */
 131:Source\FilteringFunctions/arm_conv_partial_fast_q31.c **** 
 132:Source\FilteringFunctions/arm_conv_partial_fast_q31.c ****     /* Set the output pointer to point to the firstIndex
 133:Source\FilteringFunctions/arm_conv_partial_fast_q31.c ****      * of the output sample to be calculated. */
 134:Source\FilteringFunctions/arm_conv_partial_fast_q31.c ****     pOut = pDst + firstIndex;
 367              		.loc 1 134 0
 368 0242 9423     		mov	r3, #148
 369 0244 B322     		mov	r2, #179
 370 0246 D200     		lsl	r2, r2, #3
 371 0248 9446     		mov	ip, r2
 372 024a BC44     		add	ip, ip, r7
 373 024c 6344     		add	r3, r3, ip
 374 024e 1B68     		ldr	r3, [r3]
ARM GAS  C:\Users\fneves\AppData\Local\Temp\ccBJVvkW.s 			page 10


 375 0250 9A00     		lsl	r2, r3, #2
 376 0252 9023     		mov	r3, #144
 377 0254 B321     		mov	r1, #179
 378 0256 C900     		lsl	r1, r1, #3
 379 0258 8C46     		mov	ip, r1
 380 025a BC44     		add	ip, ip, r7
 381 025c 6344     		add	r3, r3, ip
 382 025e 1B68     		ldr	r3, [r3]
 383 0260 9B18     		add	r3, r3, r2
 384 0262 204A     		ldr	r2, .L47+12
 385 0264 BA18     		add	r2, r7, r2
 386 0266 1360     		str	r3, [r2]
 135:Source\FilteringFunctions/arm_conv_partial_fast_q31.c **** 
 136:Source\FilteringFunctions/arm_conv_partial_fast_q31.c ****     /* --------------------------
 137:Source\FilteringFunctions/arm_conv_partial_fast_q31.c ****      * Initializations of stage1
 138:Source\FilteringFunctions/arm_conv_partial_fast_q31.c ****      * -------------------------*/
 139:Source\FilteringFunctions/arm_conv_partial_fast_q31.c **** 
 140:Source\FilteringFunctions/arm_conv_partial_fast_q31.c ****     /* sum = x[0] * y[0]
 141:Source\FilteringFunctions/arm_conv_partial_fast_q31.c ****      * sum = x[0] * y[1] + x[1] * y[0]
 142:Source\FilteringFunctions/arm_conv_partial_fast_q31.c ****      * ....
 143:Source\FilteringFunctions/arm_conv_partial_fast_q31.c ****      * sum = x[0] * y[srcBlen - 1] + x[1] * y[srcBlen - 2] +...+ x[srcBLen - 1] * y[0]
 144:Source\FilteringFunctions/arm_conv_partial_fast_q31.c ****      */
 145:Source\FilteringFunctions/arm_conv_partial_fast_q31.c **** 
 146:Source\FilteringFunctions/arm_conv_partial_fast_q31.c ****     /* In this stage the MAC operations are increased by 1 for every iteration.
 147:Source\FilteringFunctions/arm_conv_partial_fast_q31.c ****        The count variable holds the number of MAC operations performed.
 148:Source\FilteringFunctions/arm_conv_partial_fast_q31.c ****        Since the partial convolution starts from firstIndex
 149:Source\FilteringFunctions/arm_conv_partial_fast_q31.c ****        Number of Macs to be performed is firstIndex + 1 */
 150:Source\FilteringFunctions/arm_conv_partial_fast_q31.c ****     count = 1u + firstIndex;
 387              		.loc 1 150 0
 388 0268 9423     		mov	r3, #148
 389 026a B322     		mov	r2, #179
 390 026c D200     		lsl	r2, r2, #3
 391 026e 9446     		mov	ip, r2
 392 0270 BC44     		add	ip, ip, r7
 393 0272 6344     		add	r3, r3, ip
 394 0274 1B68     		ldr	r3, [r3]
 395 0276 0133     		add	r3, r3, #1
 396 0278 1E4A     		ldr	r2, .L47+28
 397 027a BA18     		add	r2, r7, r2
 398 027c 1360     		str	r3, [r2]
 151:Source\FilteringFunctions/arm_conv_partial_fast_q31.c **** 
 152:Source\FilteringFunctions/arm_conv_partial_fast_q31.c ****     /* Working pointer of inputA */
 153:Source\FilteringFunctions/arm_conv_partial_fast_q31.c ****     px = pIn1;
 399              		.loc 1 153 0
 400 027e 1A4B     		ldr	r3, .L47+16
 401 0280 FB18     		add	r3, r7, r3
 402 0282 1B68     		ldr	r3, [r3]
 403 0284 C022     		mov	r2, #192
 404 0286 D200     		lsl	r2, r2, #3
 405 0288 BA18     		add	r2, r7, r2
 406 028a 1360     		str	r3, [r2]
 154:Source\FilteringFunctions/arm_conv_partial_fast_q31.c **** 
 155:Source\FilteringFunctions/arm_conv_partial_fast_q31.c ****     /* Working pointer of inputB */
 156:Source\FilteringFunctions/arm_conv_partial_fast_q31.c ****     pSrc2 = pIn2 + firstIndex;
 407              		.loc 1 156 0
 408 028c 9423     		mov	r3, #148
 409 028e B322     		mov	r2, #179
ARM GAS  C:\Users\fneves\AppData\Local\Temp\ccBJVvkW.s 			page 11


 410 0290 D200     		lsl	r2, r2, #3
 411 0292 9446     		mov	ip, r2
 412 0294 BC44     		add	ip, ip, r7
 413 0296 6344     		add	r3, r3, ip
 414 0298 1B68     		ldr	r3, [r3]
 415 029a 9A00     		lsl	r2, r3, #2
 416 029c C123     		mov	r3, #193
 417 029e DB00     		lsl	r3, r3, #3
 418 02a0 FB18     		add	r3, r7, r3
 419 02a2 1B68     		ldr	r3, [r3]
 420 02a4 9B18     		add	r3, r3, r2
 421 02a6 144A     		ldr	r2, .L47+32
 422 02a8 BA18     		add	r2, r7, r2
 423 02aa 1360     		str	r3, [r2]
 157:Source\FilteringFunctions/arm_conv_partial_fast_q31.c ****     py = pSrc2;
 424              		.loc 1 157 0
 425 02ac 124B     		ldr	r3, .L47+32
 426 02ae FB18     		add	r3, r7, r3
 427 02b0 1B68     		ldr	r3, [r3]
 428 02b2 124A     		ldr	r2, .L47+36
 429 02b4 BA18     		add	r2, r7, r2
 430 02b6 1360     		str	r3, [r2]
 158:Source\FilteringFunctions/arm_conv_partial_fast_q31.c **** 
 159:Source\FilteringFunctions/arm_conv_partial_fast_q31.c ****     /* ------------------------
 160:Source\FilteringFunctions/arm_conv_partial_fast_q31.c ****      * Stage1 process
 161:Source\FilteringFunctions/arm_conv_partial_fast_q31.c ****      * ----------------------*/
 162:Source\FilteringFunctions/arm_conv_partial_fast_q31.c **** 
 163:Source\FilteringFunctions/arm_conv_partial_fast_q31.c ****     /* The first loop starts here */
 164:Source\FilteringFunctions/arm_conv_partial_fast_q31.c ****     while (blockSize1 > 0)
 431              		.loc 1 164 0
 432 02b8 7FE2     		b	.L15
 433              	.L20:
 165:Source\FilteringFunctions/arm_conv_partial_fast_q31.c ****     {
 166:Source\FilteringFunctions/arm_conv_partial_fast_q31.c ****       /* Accumulator is made zero for every iteration */
 167:Source\FilteringFunctions/arm_conv_partial_fast_q31.c ****       sum = 0;
 434              		.loc 1 167 0
 435 02ba 0023     		mov	r3, #0
 436 02bc BE22     		mov	r2, #190
 437 02be D200     		lsl	r2, r2, #3
 438 02c0 BA18     		add	r2, r7, r2
 439 02c2 1360     		str	r3, [r2]
 168:Source\FilteringFunctions/arm_conv_partial_fast_q31.c **** 
 169:Source\FilteringFunctions/arm_conv_partial_fast_q31.c ****       /* Apply loop unrolling and compute 4 MACs simultaneously. */
 170:Source\FilteringFunctions/arm_conv_partial_fast_q31.c ****       k = count >> 2u;
 440              		.loc 1 170 0
 441 02c4 0B4B     		ldr	r3, .L47+28
 442 02c6 FB18     		add	r3, r7, r3
 443 02c8 1B68     		ldr	r3, [r3]
 444 02ca 9B08     		lsr	r3, r3, #2
 445 02cc BA22     		mov	r2, #186
 446 02ce D200     		lsl	r2, r2, #3
 447 02d0 BA18     		add	r2, r7, r2
 448 02d2 1360     		str	r3, [r2]
 171:Source\FilteringFunctions/arm_conv_partial_fast_q31.c **** 
 172:Source\FilteringFunctions/arm_conv_partial_fast_q31.c ****       /* First part of the processing with loop unrolling.  Compute 4 MACs at a time.
 173:Source\FilteringFunctions/arm_conv_partial_fast_q31.c ****        ** a second loop below computes MACs for the remaining 1 to 3 samples. */
 174:Source\FilteringFunctions/arm_conv_partial_fast_q31.c ****       while (k > 0u)
ARM GAS  C:\Users\fneves\AppData\Local\Temp\ccBJVvkW.s 			page 12


 449              		.loc 1 174 0
 450 02d4 96E1     		b	.L16
 451              	.L48:
 452 02d6 C046     		.align	2
 453              	.L47:
 454 02d8 ECF9FFFF 		.word	-1556
 455 02dc A4050000 		.word	1444
 456 02e0 9C050000 		.word	1436
 457 02e4 04060000 		.word	1540
 458 02e8 0C060000 		.word	1548
 459 02ec B4050000 		.word	1460
 460 02f0 C4050000 		.word	1476
 461 02f4 CC050000 		.word	1484
 462 02f8 F4050000 		.word	1524
 463 02fc FC050000 		.word	1532
 464              	.L17:
 175:Source\FilteringFunctions/arm_conv_partial_fast_q31.c ****       {
 176:Source\FilteringFunctions/arm_conv_partial_fast_q31.c ****         /* x[0] * y[srcBLen - 1] */
 177:Source\FilteringFunctions/arm_conv_partial_fast_q31.c ****         sum = (q31_t) ((((q63_t) sum << 32) +
 465              		.loc 1 177 0
 466 0300 BE23     		mov	r3, #190
 467 0302 DB00     		lsl	r3, r3, #3
 468 0304 FB18     		add	r3, r7, r3
 469 0306 1B68     		ldr	r3, [r3]
 470 0308 B222     		mov	r2, #178
 471 030a D200     		lsl	r2, r2, #3
 472 030c BA18     		add	r2, r7, r2
 473 030e 1360     		str	r3, [r2]
 474 0310 DB17     		asr	r3, r3, #31
 475 0312 C54A     		ldr	r2, .L49
 476 0314 BA18     		add	r2, r7, r2
 477 0316 1360     		str	r3, [r2]
 478 0318 B223     		mov	r3, #178
 479 031a DB00     		lsl	r3, r3, #3
 480 031c FB18     		add	r3, r7, r3
 481 031e 1B68     		ldr	r3, [r3]
 482 0320 1B00     		lsl	r3, r3, #0
 483 0322 C24A     		ldr	r2, .L49+4
 484 0324 BA18     		add	r2, r7, r2
 485 0326 1360     		str	r3, [r2]
 486 0328 0023     		mov	r3, #0
 487 032a B122     		mov	r2, #177
 488 032c D200     		lsl	r2, r2, #3
 489 032e BA18     		add	r2, r7, r2
 490 0330 1360     		str	r3, [r2]
 178:Source\FilteringFunctions/arm_conv_partial_fast_q31.c ****                         ((q63_t) * px++ * (*py--))) >> 32);
 491              		.loc 1 178 0
 492 0332 C023     		mov	r3, #192
 493 0334 DB00     		lsl	r3, r3, #3
 494 0336 FB18     		add	r3, r7, r3
 495 0338 1A68     		ldr	r2, [r3]
 496 033a 131D     		add	r3, r2, #4
 497 033c C021     		mov	r1, #192
 498 033e C900     		lsl	r1, r1, #3
 499 0340 7918     		add	r1, r7, r1
 500 0342 0B60     		str	r3, [r1]
 501 0344 1368     		ldr	r3, [r2]
ARM GAS  C:\Users\fneves\AppData\Local\Temp\ccBJVvkW.s 			page 13


 502 0346 B022     		mov	r2, #176
 503 0348 D200     		lsl	r2, r2, #3
 504 034a BA18     		add	r2, r7, r2
 505 034c 1360     		str	r3, [r2]
 506 034e DB17     		asr	r3, r3, #31
 507 0350 B74A     		ldr	r2, .L49+8
 508 0352 BA18     		add	r2, r7, r2
 509 0354 1360     		str	r3, [r2]
 510 0356 B74B     		ldr	r3, .L49+12
 511 0358 FB18     		add	r3, r7, r3
 512 035a 1A68     		ldr	r2, [r3]
 513 035c 131F     		sub	r3, r2, #4
 514 035e B549     		ldr	r1, .L49+12
 515 0360 7918     		add	r1, r7, r1
 516 0362 0B60     		str	r3, [r1]
 517 0364 1368     		ldr	r3, [r2]
 518 0366 AF22     		mov	r2, #175
 519 0368 D200     		lsl	r2, r2, #3
 520 036a BA18     		add	r2, r7, r2
 521 036c 1360     		str	r3, [r2]
 522 036e DB17     		asr	r3, r3, #31
 523 0370 B14A     		ldr	r2, .L49+16
 524 0372 BA18     		add	r2, r7, r2
 525 0374 1360     		str	r3, [r2]
 526 0376 B023     		mov	r3, #176
 527 0378 DB00     		lsl	r3, r3, #3
 528 037a FB18     		add	r3, r7, r3
 529 037c 1868     		ldr	r0, [r3]
 530 037e 5968     		ldr	r1, [r3, #4]
 531 0380 AF23     		mov	r3, #175
 532 0382 DB00     		lsl	r3, r3, #3
 533 0384 FB18     		add	r3, r7, r3
 534 0386 1A68     		ldr	r2, [r3]
 535 0388 5B68     		ldr	r3, [r3, #4]
 536 038a FFF7FEFF 		bl	__aeabi_lmul
 537 038e 031C     		mov	r3, r0
 538 0390 0C1C     		mov	r4, r1
 177:Source\FilteringFunctions/arm_conv_partial_fast_q31.c ****                         ((q63_t) * px++ * (*py--))) >> 32);
 539              		.loc 1 177 0
 540 0392 B122     		mov	r2, #177
 541 0394 D200     		lsl	r2, r2, #3
 542 0396 BA18     		add	r2, r7, r2
 543 0398 1168     		ldr	r1, [r2]
 544 039a 5268     		ldr	r2, [r2, #4]
 545 039c 5B18     		add	r3, r3, r1
 546 039e 5441     		adc	r4, r4, r2
 547              		.loc 1 178 0
 548 03a0 2200     		asr	r2, r4, #0
 549 03a2 AE21     		mov	r1, #174
 550 03a4 C900     		lsl	r1, r1, #3
 551 03a6 7918     		add	r1, r7, r1
 552 03a8 0A60     		str	r2, [r1]
 553 03aa E317     		asr	r3, r4, #31
 554 03ac A34A     		ldr	r2, .L49+20
 555 03ae BA18     		add	r2, r7, r2
 556 03b0 1360     		str	r3, [r2]
 177:Source\FilteringFunctions/arm_conv_partial_fast_q31.c ****                         ((q63_t) * px++ * (*py--))) >> 32);
ARM GAS  C:\Users\fneves\AppData\Local\Temp\ccBJVvkW.s 			page 14


 557              		.loc 1 177 0
 558 03b2 AE23     		mov	r3, #174
 559 03b4 DB00     		lsl	r3, r3, #3
 560 03b6 FB18     		add	r3, r7, r3
 561 03b8 1B68     		ldr	r3, [r3]
 562 03ba BE22     		mov	r2, #190
 563 03bc D200     		lsl	r2, r2, #3
 564 03be BA18     		add	r2, r7, r2
 565 03c0 1360     		str	r3, [r2]
 179:Source\FilteringFunctions/arm_conv_partial_fast_q31.c **** 
 180:Source\FilteringFunctions/arm_conv_partial_fast_q31.c ****         /* x[1] * y[srcBLen - 2] */
 181:Source\FilteringFunctions/arm_conv_partial_fast_q31.c ****         sum = (q31_t) ((((q63_t) sum << 32) +
 566              		.loc 1 181 0
 567 03c2 BE23     		mov	r3, #190
 568 03c4 DB00     		lsl	r3, r3, #3
 569 03c6 FB18     		add	r3, r7, r3
 570 03c8 1B68     		ldr	r3, [r3]
 571 03ca AD22     		mov	r2, #173
 572 03cc D200     		lsl	r2, r2, #3
 573 03ce BA18     		add	r2, r7, r2
 574 03d0 1360     		str	r3, [r2]
 575 03d2 DB17     		asr	r3, r3, #31
 576 03d4 9A4A     		ldr	r2, .L49+24
 577 03d6 BA18     		add	r2, r7, r2
 578 03d8 1360     		str	r3, [r2]
 579 03da AD23     		mov	r3, #173
 580 03dc DB00     		lsl	r3, r3, #3
 581 03de FB18     		add	r3, r7, r3
 582 03e0 1B68     		ldr	r3, [r3]
 583 03e2 1B00     		lsl	r3, r3, #0
 584 03e4 974A     		ldr	r2, .L49+28
 585 03e6 BA18     		add	r2, r7, r2
 586 03e8 1360     		str	r3, [r2]
 587 03ea 0023     		mov	r3, #0
 588 03ec AC22     		mov	r2, #172
 589 03ee D200     		lsl	r2, r2, #3
 590 03f0 BA18     		add	r2, r7, r2
 591 03f2 1360     		str	r3, [r2]
 182:Source\FilteringFunctions/arm_conv_partial_fast_q31.c ****                         ((q63_t) * px++ * (*py--))) >> 32);
 592              		.loc 1 182 0
 593 03f4 C023     		mov	r3, #192
 594 03f6 DB00     		lsl	r3, r3, #3
 595 03f8 FB18     		add	r3, r7, r3
 596 03fa 1A68     		ldr	r2, [r3]
 597 03fc 131D     		add	r3, r2, #4
 598 03fe C021     		mov	r1, #192
 599 0400 C900     		lsl	r1, r1, #3
 600 0402 7918     		add	r1, r7, r1
 601 0404 0B60     		str	r3, [r1]
 602 0406 1368     		ldr	r3, [r2]
 603 0408 AB22     		mov	r2, #171
 604 040a D200     		lsl	r2, r2, #3
 605 040c BA18     		add	r2, r7, r2
 606 040e 1360     		str	r3, [r2]
 607 0410 DB17     		asr	r3, r3, #31
 608 0412 8D4A     		ldr	r2, .L49+32
 609 0414 BA18     		add	r2, r7, r2
ARM GAS  C:\Users\fneves\AppData\Local\Temp\ccBJVvkW.s 			page 15


 610 0416 1360     		str	r3, [r2]
 611 0418 864B     		ldr	r3, .L49+12
 612 041a FB18     		add	r3, r7, r3
 613 041c 1A68     		ldr	r2, [r3]
 614 041e 131F     		sub	r3, r2, #4
 615 0420 8449     		ldr	r1, .L49+12
 616 0422 7918     		add	r1, r7, r1
 617 0424 0B60     		str	r3, [r1]
 618 0426 1368     		ldr	r3, [r2]
 619 0428 AA22     		mov	r2, #170
 620 042a D200     		lsl	r2, r2, #3
 621 042c BA18     		add	r2, r7, r2
 622 042e 1360     		str	r3, [r2]
 623 0430 DB17     		asr	r3, r3, #31
 624 0432 864A     		ldr	r2, .L49+36
 625 0434 BA18     		add	r2, r7, r2
 626 0436 1360     		str	r3, [r2]
 627 0438 AB23     		mov	r3, #171
 628 043a DB00     		lsl	r3, r3, #3
 629 043c FB18     		add	r3, r7, r3
 630 043e 1868     		ldr	r0, [r3]
 631 0440 5968     		ldr	r1, [r3, #4]
 632 0442 AA23     		mov	r3, #170
 633 0444 DB00     		lsl	r3, r3, #3
 634 0446 FB18     		add	r3, r7, r3
 635 0448 1A68     		ldr	r2, [r3]
 636 044a 5B68     		ldr	r3, [r3, #4]
 637 044c FFF7FEFF 		bl	__aeabi_lmul
 638 0450 031C     		mov	r3, r0
 639 0452 0C1C     		mov	r4, r1
 181:Source\FilteringFunctions/arm_conv_partial_fast_q31.c ****                         ((q63_t) * px++ * (*py--))) >> 32);
 640              		.loc 1 181 0
 641 0454 AC22     		mov	r2, #172
 642 0456 D200     		lsl	r2, r2, #3
 643 0458 BA18     		add	r2, r7, r2
 644 045a 1168     		ldr	r1, [r2]
 645 045c 5268     		ldr	r2, [r2, #4]
 646 045e 5B18     		add	r3, r3, r1
 647 0460 5441     		adc	r4, r4, r2
 648              		.loc 1 182 0
 649 0462 2200     		asr	r2, r4, #0
 650 0464 A921     		mov	r1, #169
 651 0466 C900     		lsl	r1, r1, #3
 652 0468 7918     		add	r1, r7, r1
 653 046a 0A60     		str	r2, [r1]
 654 046c E317     		asr	r3, r4, #31
 655 046e 784A     		ldr	r2, .L49+40
 656 0470 BA18     		add	r2, r7, r2
 657 0472 1360     		str	r3, [r2]
 181:Source\FilteringFunctions/arm_conv_partial_fast_q31.c ****                         ((q63_t) * px++ * (*py--))) >> 32);
 658              		.loc 1 181 0
 659 0474 A923     		mov	r3, #169
 660 0476 DB00     		lsl	r3, r3, #3
 661 0478 FB18     		add	r3, r7, r3
 662 047a 1B68     		ldr	r3, [r3]
 663 047c BE22     		mov	r2, #190
 664 047e D200     		lsl	r2, r2, #3
ARM GAS  C:\Users\fneves\AppData\Local\Temp\ccBJVvkW.s 			page 16


 665 0480 BA18     		add	r2, r7, r2
 666 0482 1360     		str	r3, [r2]
 183:Source\FilteringFunctions/arm_conv_partial_fast_q31.c **** 
 184:Source\FilteringFunctions/arm_conv_partial_fast_q31.c ****         /* x[2] * y[srcBLen - 3] */
 185:Source\FilteringFunctions/arm_conv_partial_fast_q31.c ****         sum = (q31_t) ((((q63_t) sum << 32) +
 667              		.loc 1 185 0
 668 0484 BE23     		mov	r3, #190
 669 0486 DB00     		lsl	r3, r3, #3
 670 0488 FB18     		add	r3, r7, r3
 671 048a 1B68     		ldr	r3, [r3]
 672 048c A822     		mov	r2, #168
 673 048e D200     		lsl	r2, r2, #3
 674 0490 BA18     		add	r2, r7, r2
 675 0492 1360     		str	r3, [r2]
 676 0494 DB17     		asr	r3, r3, #31
 677 0496 6F4A     		ldr	r2, .L49+44
 678 0498 BA18     		add	r2, r7, r2
 679 049a 1360     		str	r3, [r2]
 680 049c A823     		mov	r3, #168
 681 049e DB00     		lsl	r3, r3, #3
 682 04a0 FB18     		add	r3, r7, r3
 683 04a2 1B68     		ldr	r3, [r3]
 684 04a4 1B00     		lsl	r3, r3, #0
 685 04a6 6C4A     		ldr	r2, .L49+48
 686 04a8 BA18     		add	r2, r7, r2
 687 04aa 1360     		str	r3, [r2]
 688 04ac 0023     		mov	r3, #0
 689 04ae A722     		mov	r2, #167
 690 04b0 D200     		lsl	r2, r2, #3
 691 04b2 BA18     		add	r2, r7, r2
 692 04b4 1360     		str	r3, [r2]
 186:Source\FilteringFunctions/arm_conv_partial_fast_q31.c ****                         ((q63_t) * px++ * (*py--))) >> 32);
 693              		.loc 1 186 0
 694 04b6 C023     		mov	r3, #192
 695 04b8 DB00     		lsl	r3, r3, #3
 696 04ba FB18     		add	r3, r7, r3
 697 04bc 1A68     		ldr	r2, [r3]
 698 04be 131D     		add	r3, r2, #4
 699 04c0 C021     		mov	r1, #192
 700 04c2 C900     		lsl	r1, r1, #3
 701 04c4 7918     		add	r1, r7, r1
 702 04c6 0B60     		str	r3, [r1]
 703 04c8 1368     		ldr	r3, [r2]
 704 04ca A622     		mov	r2, #166
 705 04cc D200     		lsl	r2, r2, #3
 706 04ce BA18     		add	r2, r7, r2
 707 04d0 1360     		str	r3, [r2]
 708 04d2 DB17     		asr	r3, r3, #31
 709 04d4 614A     		ldr	r2, .L49+52
 710 04d6 BA18     		add	r2, r7, r2
 711 04d8 1360     		str	r3, [r2]
 712 04da 564B     		ldr	r3, .L49+12
 713 04dc FB18     		add	r3, r7, r3
 714 04de 1A68     		ldr	r2, [r3]
 715 04e0 131F     		sub	r3, r2, #4
 716 04e2 5449     		ldr	r1, .L49+12
 717 04e4 7918     		add	r1, r7, r1
ARM GAS  C:\Users\fneves\AppData\Local\Temp\ccBJVvkW.s 			page 17


 718 04e6 0B60     		str	r3, [r1]
 719 04e8 1368     		ldr	r3, [r2]
 720 04ea A522     		mov	r2, #165
 721 04ec D200     		lsl	r2, r2, #3
 722 04ee BA18     		add	r2, r7, r2
 723 04f0 1360     		str	r3, [r2]
 724 04f2 DB17     		asr	r3, r3, #31
 725 04f4 5A4A     		ldr	r2, .L49+56
 726 04f6 BA18     		add	r2, r7, r2
 727 04f8 1360     		str	r3, [r2]
 728 04fa A623     		mov	r3, #166
 729 04fc DB00     		lsl	r3, r3, #3
 730 04fe FB18     		add	r3, r7, r3
 731 0500 1868     		ldr	r0, [r3]
 732 0502 5968     		ldr	r1, [r3, #4]
 733 0504 A523     		mov	r3, #165
 734 0506 DB00     		lsl	r3, r3, #3
 735 0508 FB18     		add	r3, r7, r3
 736 050a 1A68     		ldr	r2, [r3]
 737 050c 5B68     		ldr	r3, [r3, #4]
 738 050e FFF7FEFF 		bl	__aeabi_lmul
 739 0512 031C     		mov	r3, r0
 740 0514 0C1C     		mov	r4, r1
 185:Source\FilteringFunctions/arm_conv_partial_fast_q31.c ****                         ((q63_t) * px++ * (*py--))) >> 32);
 741              		.loc 1 185 0
 742 0516 A722     		mov	r2, #167
 743 0518 D200     		lsl	r2, r2, #3
 744 051a BA18     		add	r2, r7, r2
 745 051c 1168     		ldr	r1, [r2]
 746 051e 5268     		ldr	r2, [r2, #4]
 747 0520 5B18     		add	r3, r3, r1
 748 0522 5441     		adc	r4, r4, r2
 749              		.loc 1 186 0
 750 0524 2200     		asr	r2, r4, #0
 751 0526 A421     		mov	r1, #164
 752 0528 C900     		lsl	r1, r1, #3
 753 052a 7918     		add	r1, r7, r1
 754 052c 0A60     		str	r2, [r1]
 755 052e E317     		asr	r3, r4, #31
 756 0530 4C4A     		ldr	r2, .L49+60
 757 0532 BA18     		add	r2, r7, r2
 758 0534 1360     		str	r3, [r2]
 185:Source\FilteringFunctions/arm_conv_partial_fast_q31.c ****                         ((q63_t) * px++ * (*py--))) >> 32);
 759              		.loc 1 185 0
 760 0536 A423     		mov	r3, #164
 761 0538 DB00     		lsl	r3, r3, #3
 762 053a FB18     		add	r3, r7, r3
 763 053c 1B68     		ldr	r3, [r3]
 764 053e BE22     		mov	r2, #190
 765 0540 D200     		lsl	r2, r2, #3
 766 0542 BA18     		add	r2, r7, r2
 767 0544 1360     		str	r3, [r2]
 187:Source\FilteringFunctions/arm_conv_partial_fast_q31.c **** 
 188:Source\FilteringFunctions/arm_conv_partial_fast_q31.c ****         /* x[3] * y[srcBLen - 4] */
 189:Source\FilteringFunctions/arm_conv_partial_fast_q31.c ****         sum = (q31_t) ((((q63_t) sum << 32) +
 768              		.loc 1 189 0
 769 0546 BE23     		mov	r3, #190
ARM GAS  C:\Users\fneves\AppData\Local\Temp\ccBJVvkW.s 			page 18


 770 0548 DB00     		lsl	r3, r3, #3
 771 054a FB18     		add	r3, r7, r3
 772 054c 1B68     		ldr	r3, [r3]
 773 054e A322     		mov	r2, #163
 774 0550 D200     		lsl	r2, r2, #3
 775 0552 BA18     		add	r2, r7, r2
 776 0554 1360     		str	r3, [r2]
 777 0556 DB17     		asr	r3, r3, #31
 778 0558 434A     		ldr	r2, .L49+64
 779 055a BA18     		add	r2, r7, r2
 780 055c 1360     		str	r3, [r2]
 781 055e A323     		mov	r3, #163
 782 0560 DB00     		lsl	r3, r3, #3
 783 0562 FB18     		add	r3, r7, r3
 784 0564 1B68     		ldr	r3, [r3]
 785 0566 1E00     		lsl	r6, r3, #0
 786 0568 0023     		mov	r3, #0
 787 056a 1D1C     		mov	r5, r3
 190:Source\FilteringFunctions/arm_conv_partial_fast_q31.c ****                         ((q63_t) * px++ * (*py--))) >> 32);
 788              		.loc 1 190 0
 789 056c C023     		mov	r3, #192
 790 056e DB00     		lsl	r3, r3, #3
 791 0570 FB18     		add	r3, r7, r3
 792 0572 1A68     		ldr	r2, [r3]
 793 0574 131D     		add	r3, r2, #4
 794 0576 C021     		mov	r1, #192
 795 0578 C900     		lsl	r1, r1, #3
 796 057a 7918     		add	r1, r7, r1
 797 057c 0B60     		str	r3, [r1]
 798 057e 1368     		ldr	r3, [r2]
 799 0580 A222     		mov	r2, #162
 800 0582 D200     		lsl	r2, r2, #3
 801 0584 BA18     		add	r2, r7, r2
 802 0586 1360     		str	r3, [r2]
 803 0588 DB17     		asr	r3, r3, #31
 804 058a 384A     		ldr	r2, .L49+68
 805 058c BA18     		add	r2, r7, r2
 806 058e 1360     		str	r3, [r2]
 807 0590 284B     		ldr	r3, .L49+12
 808 0592 FB18     		add	r3, r7, r3
 809 0594 1A68     		ldr	r2, [r3]
 810 0596 131F     		sub	r3, r2, #4
 811 0598 2649     		ldr	r1, .L49+12
 812 059a 7918     		add	r1, r7, r1
 813 059c 0B60     		str	r3, [r1]
 814 059e 1368     		ldr	r3, [r2]
 815 05a0 A122     		mov	r2, #161
 816 05a2 D200     		lsl	r2, r2, #3
 817 05a4 BA18     		add	r2, r7, r2
 818 05a6 1360     		str	r3, [r2]
 819 05a8 DB17     		asr	r3, r3, #31
 820 05aa 314A     		ldr	r2, .L49+72
 821 05ac BA18     		add	r2, r7, r2
 822 05ae 1360     		str	r3, [r2]
 823 05b0 A223     		mov	r3, #162
 824 05b2 DB00     		lsl	r3, r3, #3
 825 05b4 FB18     		add	r3, r7, r3
ARM GAS  C:\Users\fneves\AppData\Local\Temp\ccBJVvkW.s 			page 19


 826 05b6 1868     		ldr	r0, [r3]
 827 05b8 5968     		ldr	r1, [r3, #4]
 828 05ba A123     		mov	r3, #161
 829 05bc DB00     		lsl	r3, r3, #3
 830 05be FB18     		add	r3, r7, r3
 831 05c0 1A68     		ldr	r2, [r3]
 832 05c2 5B68     		ldr	r3, [r3, #4]
 833 05c4 FFF7FEFF 		bl	__aeabi_lmul
 834 05c8 031C     		mov	r3, r0
 835 05ca 0C1C     		mov	r4, r1
 189:Source\FilteringFunctions/arm_conv_partial_fast_q31.c ****                         ((q63_t) * px++ * (*py--))) >> 32);
 836              		.loc 1 189 0
 837 05cc 5B19     		add	r3, r3, r5
 838 05ce 7441     		adc	r4, r4, r6
 839              		.loc 1 190 0
 840 05d0 2200     		asr	r2, r4, #0
 841 05d2 A021     		mov	r1, #160
 842 05d4 C900     		lsl	r1, r1, #3
 843 05d6 7918     		add	r1, r7, r1
 844 05d8 0A60     		str	r2, [r1]
 845 05da E317     		asr	r3, r4, #31
 846 05dc 254A     		ldr	r2, .L49+76
 847 05de BA18     		add	r2, r7, r2
 848 05e0 1360     		str	r3, [r2]
 189:Source\FilteringFunctions/arm_conv_partial_fast_q31.c ****                         ((q63_t) * px++ * (*py--))) >> 32);
 849              		.loc 1 189 0
 850 05e2 A023     		mov	r3, #160
 851 05e4 DB00     		lsl	r3, r3, #3
 852 05e6 FB18     		add	r3, r7, r3
 853 05e8 1B68     		ldr	r3, [r3]
 854 05ea BE22     		mov	r2, #190
 855 05ec D200     		lsl	r2, r2, #3
 856 05ee BA18     		add	r2, r7, r2
 857 05f0 1360     		str	r3, [r2]
 191:Source\FilteringFunctions/arm_conv_partial_fast_q31.c **** 
 192:Source\FilteringFunctions/arm_conv_partial_fast_q31.c ****         /* Decrement the loop counter */
 193:Source\FilteringFunctions/arm_conv_partial_fast_q31.c ****         k--;
 858              		.loc 1 193 0
 859 05f2 BA23     		mov	r3, #186
 860 05f4 DB00     		lsl	r3, r3, #3
 861 05f6 FB18     		add	r3, r7, r3
 862 05f8 1B68     		ldr	r3, [r3]
 863 05fa 013B     		sub	r3, r3, #1
 864 05fc BA22     		mov	r2, #186
 865 05fe D200     		lsl	r2, r2, #3
 866 0600 BA18     		add	r2, r7, r2
 867 0602 1360     		str	r3, [r2]
 868              	.L16:
 174:Source\FilteringFunctions/arm_conv_partial_fast_q31.c ****       {
 869              		.loc 1 174 0
 870 0604 BA23     		mov	r3, #186
 871 0606 DB00     		lsl	r3, r3, #3
 872 0608 FB18     		add	r3, r7, r3
 873 060a 1B68     		ldr	r3, [r3]
 874 060c 002B     		cmp	r3, #0
 875 060e 00D0     		beq	.LCB797
 876 0610 76E6     		b	.L17	@long jump
ARM GAS  C:\Users\fneves\AppData\Local\Temp\ccBJVvkW.s 			page 20


 877              	.LCB797:
 194:Source\FilteringFunctions/arm_conv_partial_fast_q31.c ****       }
 195:Source\FilteringFunctions/arm_conv_partial_fast_q31.c **** 
 196:Source\FilteringFunctions/arm_conv_partial_fast_q31.c ****       /* If the count is not a multiple of 4, compute any remaining MACs here.
 197:Source\FilteringFunctions/arm_conv_partial_fast_q31.c ****        ** No loop unrolling is used. */
 198:Source\FilteringFunctions/arm_conv_partial_fast_q31.c ****       k = count % 0x4u;
 878              		.loc 1 198 0
 879 0612 194B     		ldr	r3, .L49+80
 880 0614 FB18     		add	r3, r7, r3
 881 0616 1A68     		ldr	r2, [r3]
 882 0618 0323     		mov	r3, #3
 883 061a 1340     		and	r3, r2
 884 061c BA22     		mov	r2, #186
 885 061e D200     		lsl	r2, r2, #3
 886 0620 BA18     		add	r2, r7, r2
 887 0622 1360     		str	r3, [r2]
 199:Source\FilteringFunctions/arm_conv_partial_fast_q31.c **** 
 200:Source\FilteringFunctions/arm_conv_partial_fast_q31.c ****       while (k > 0u)
 888              		.loc 1 200 0
 889 0624 94E0     		b	.L18
 890              	.L50:
 891 0626 C046     		.align	2
 892              	.L49:
 893 0628 94050000 		.word	1428
 894 062c 8C050000 		.word	1420
 895 0630 84050000 		.word	1412
 896 0634 FC050000 		.word	1532
 897 0638 7C050000 		.word	1404
 898 063c 74050000 		.word	1396
 899 0640 6C050000 		.word	1388
 900 0644 64050000 		.word	1380
 901 0648 5C050000 		.word	1372
 902 064c 54050000 		.word	1364
 903 0650 4C050000 		.word	1356
 904 0654 44050000 		.word	1348
 905 0658 3C050000 		.word	1340
 906 065c 34050000 		.word	1332
 907 0660 2C050000 		.word	1324
 908 0664 24050000 		.word	1316
 909 0668 1C050000 		.word	1308
 910 066c 14050000 		.word	1300
 911 0670 0C050000 		.word	1292
 912 0674 04050000 		.word	1284
 913 0678 CC050000 		.word	1484
 914              	.L19:
 201:Source\FilteringFunctions/arm_conv_partial_fast_q31.c ****       {
 202:Source\FilteringFunctions/arm_conv_partial_fast_q31.c ****         /* Perform the multiply-accumulates */
 203:Source\FilteringFunctions/arm_conv_partial_fast_q31.c ****         sum = (q31_t) ((((q63_t) sum << 32) +
 915              		.loc 1 203 0
 916 067c BE23     		mov	r3, #190
 917 067e DB00     		lsl	r3, r3, #3
 918 0680 FB18     		add	r3, r7, r3
 919 0682 1B68     		ldr	r3, [r3]
 920 0684 9F22     		mov	r2, #159
 921 0686 D200     		lsl	r2, r2, #3
 922 0688 BA18     		add	r2, r7, r2
 923 068a 1360     		str	r3, [r2]
ARM GAS  C:\Users\fneves\AppData\Local\Temp\ccBJVvkW.s 			page 21


 924 068c DB17     		asr	r3, r3, #31
 925 068e 7B4A     		ldr	r2, .L51
 926 0690 BA18     		add	r2, r7, r2
 927 0692 1360     		str	r3, [r2]
 928 0694 9F23     		mov	r3, #159
 929 0696 DB00     		lsl	r3, r3, #3
 930 0698 FB18     		add	r3, r7, r3
 931 069a 1B68     		ldr	r3, [r3]
 932 069c 1B00     		lsl	r3, r3, #0
 933 069e 784A     		ldr	r2, .L51+4
 934 06a0 BA18     		add	r2, r7, r2
 935 06a2 1360     		str	r3, [r2]
 936 06a4 0023     		mov	r3, #0
 937 06a6 9E22     		mov	r2, #158
 938 06a8 D200     		lsl	r2, r2, #3
 939 06aa BA18     		add	r2, r7, r2
 940 06ac 1360     		str	r3, [r2]
 204:Source\FilteringFunctions/arm_conv_partial_fast_q31.c ****                         ((q63_t) * px++ * (*py--))) >> 32);
 941              		.loc 1 204 0
 942 06ae C023     		mov	r3, #192
 943 06b0 DB00     		lsl	r3, r3, #3
 944 06b2 FB18     		add	r3, r7, r3
 945 06b4 1A68     		ldr	r2, [r3]
 946 06b6 131D     		add	r3, r2, #4
 947 06b8 C021     		mov	r1, #192
 948 06ba C900     		lsl	r1, r1, #3
 949 06bc 7918     		add	r1, r7, r1
 950 06be 0B60     		str	r3, [r1]
 951 06c0 1368     		ldr	r3, [r2]
 952 06c2 9D22     		mov	r2, #157
 953 06c4 D200     		lsl	r2, r2, #3
 954 06c6 BA18     		add	r2, r7, r2
 955 06c8 1360     		str	r3, [r2]
 956 06ca DB17     		asr	r3, r3, #31
 957 06cc 6D4A     		ldr	r2, .L51+8
 958 06ce BA18     		add	r2, r7, r2
 959 06d0 1360     		str	r3, [r2]
 960 06d2 6D4B     		ldr	r3, .L51+12
 961 06d4 FB18     		add	r3, r7, r3
 962 06d6 1A68     		ldr	r2, [r3]
 963 06d8 131F     		sub	r3, r2, #4
 964 06da 6B49     		ldr	r1, .L51+12
 965 06dc 7918     		add	r1, r7, r1
 966 06de 0B60     		str	r3, [r1]
 967 06e0 1368     		ldr	r3, [r2]
 968 06e2 9C22     		mov	r2, #156
 969 06e4 D200     		lsl	r2, r2, #3
 970 06e6 BA18     		add	r2, r7, r2
 971 06e8 1360     		str	r3, [r2]
 972 06ea DB17     		asr	r3, r3, #31
 973 06ec 674A     		ldr	r2, .L51+16
 974 06ee BA18     		add	r2, r7, r2
 975 06f0 1360     		str	r3, [r2]
 976 06f2 9D23     		mov	r3, #157
 977 06f4 DB00     		lsl	r3, r3, #3
 978 06f6 FB18     		add	r3, r7, r3
 979 06f8 1868     		ldr	r0, [r3]
ARM GAS  C:\Users\fneves\AppData\Local\Temp\ccBJVvkW.s 			page 22


 980 06fa 5968     		ldr	r1, [r3, #4]
 981 06fc 9C23     		mov	r3, #156
 982 06fe DB00     		lsl	r3, r3, #3
 983 0700 FB18     		add	r3, r7, r3
 984 0702 1A68     		ldr	r2, [r3]
 985 0704 5B68     		ldr	r3, [r3, #4]
 986 0706 FFF7FEFF 		bl	__aeabi_lmul
 987 070a 031C     		mov	r3, r0
 988 070c 0C1C     		mov	r4, r1
 203:Source\FilteringFunctions/arm_conv_partial_fast_q31.c ****                         ((q63_t) * px++ * (*py--))) >> 32);
 989              		.loc 1 203 0
 990 070e 9E22     		mov	r2, #158
 991 0710 D200     		lsl	r2, r2, #3
 992 0712 BA18     		add	r2, r7, r2
 993 0714 1168     		ldr	r1, [r2]
 994 0716 5268     		ldr	r2, [r2, #4]
 995 0718 5B18     		add	r3, r3, r1
 996 071a 5441     		adc	r4, r4, r2
 997              		.loc 1 204 0
 998 071c 2200     		asr	r2, r4, #0
 999 071e 9B21     		mov	r1, #155
 1000 0720 C900     		lsl	r1, r1, #3
 1001 0722 7918     		add	r1, r7, r1
 1002 0724 0A60     		str	r2, [r1]
 1003 0726 E317     		asr	r3, r4, #31
 1004 0728 594A     		ldr	r2, .L51+20
 1005 072a BA18     		add	r2, r7, r2
 1006 072c 1360     		str	r3, [r2]
 203:Source\FilteringFunctions/arm_conv_partial_fast_q31.c ****                         ((q63_t) * px++ * (*py--))) >> 32);
 1007              		.loc 1 203 0
 1008 072e 9B23     		mov	r3, #155
 1009 0730 DB00     		lsl	r3, r3, #3
 1010 0732 FB18     		add	r3, r7, r3
 1011 0734 1B68     		ldr	r3, [r3]
 1012 0736 BE22     		mov	r2, #190
 1013 0738 D200     		lsl	r2, r2, #3
 1014 073a BA18     		add	r2, r7, r2
 1015 073c 1360     		str	r3, [r2]
 205:Source\FilteringFunctions/arm_conv_partial_fast_q31.c **** 
 206:Source\FilteringFunctions/arm_conv_partial_fast_q31.c ****         /* Decrement the loop counter */
 207:Source\FilteringFunctions/arm_conv_partial_fast_q31.c ****         k--;
 1016              		.loc 1 207 0
 1017 073e BA23     		mov	r3, #186
 1018 0740 DB00     		lsl	r3, r3, #3
 1019 0742 FB18     		add	r3, r7, r3
 1020 0744 1B68     		ldr	r3, [r3]
 1021 0746 013B     		sub	r3, r3, #1
 1022 0748 BA22     		mov	r2, #186
 1023 074a D200     		lsl	r2, r2, #3
 1024 074c BA18     		add	r2, r7, r2
 1025 074e 1360     		str	r3, [r2]
 1026              	.L18:
 200:Source\FilteringFunctions/arm_conv_partial_fast_q31.c ****       {
 1027              		.loc 1 200 0
 1028 0750 BA23     		mov	r3, #186
 1029 0752 DB00     		lsl	r3, r3, #3
 1030 0754 FB18     		add	r3, r7, r3
ARM GAS  C:\Users\fneves\AppData\Local\Temp\ccBJVvkW.s 			page 23


 1031 0756 1B68     		ldr	r3, [r3]
 1032 0758 002B     		cmp	r3, #0
 1033 075a 8FD1     		bne	.L19
 208:Source\FilteringFunctions/arm_conv_partial_fast_q31.c ****       }
 209:Source\FilteringFunctions/arm_conv_partial_fast_q31.c **** 
 210:Source\FilteringFunctions/arm_conv_partial_fast_q31.c ****       /* Store the result in the accumulator in the destination buffer. */
 211:Source\FilteringFunctions/arm_conv_partial_fast_q31.c ****       *pOut++ = sum << 1;
 1034              		.loc 1 211 0
 1035 075c 4D4B     		ldr	r3, .L51+24
 1036 075e FB18     		add	r3, r7, r3
 1037 0760 1A68     		ldr	r2, [r3]
 1038 0762 131D     		add	r3, r2, #4
 1039 0764 4B49     		ldr	r1, .L51+24
 1040 0766 7918     		add	r1, r7, r1
 1041 0768 0B60     		str	r3, [r1]
 1042 076a BE23     		mov	r3, #190
 1043 076c DB00     		lsl	r3, r3, #3
 1044 076e FB18     		add	r3, r7, r3
 1045 0770 1B68     		ldr	r3, [r3]
 1046 0772 5B00     		lsl	r3, r3, #1
 1047 0774 1360     		str	r3, [r2]
 212:Source\FilteringFunctions/arm_conv_partial_fast_q31.c **** 
 213:Source\FilteringFunctions/arm_conv_partial_fast_q31.c ****       /* Update the inputA and inputB pointers for next MAC calculation */
 214:Source\FilteringFunctions/arm_conv_partial_fast_q31.c ****       py = ++pSrc2;
 1048              		.loc 1 214 0
 1049 0776 484B     		ldr	r3, .L51+28
 1050 0778 FB18     		add	r3, r7, r3
 1051 077a 1B68     		ldr	r3, [r3]
 1052 077c 0433     		add	r3, r3, #4
 1053 077e 464A     		ldr	r2, .L51+28
 1054 0780 BA18     		add	r2, r7, r2
 1055 0782 1360     		str	r3, [r2]
 1056 0784 444B     		ldr	r3, .L51+28
 1057 0786 FB18     		add	r3, r7, r3
 1058 0788 1B68     		ldr	r3, [r3]
 1059 078a 3F4A     		ldr	r2, .L51+12
 1060 078c BA18     		add	r2, r7, r2
 1061 078e 1360     		str	r3, [r2]
 215:Source\FilteringFunctions/arm_conv_partial_fast_q31.c ****       px = pIn1;
 1062              		.loc 1 215 0
 1063 0790 424B     		ldr	r3, .L51+32
 1064 0792 FB18     		add	r3, r7, r3
 1065 0794 1B68     		ldr	r3, [r3]
 1066 0796 C022     		mov	r2, #192
 1067 0798 D200     		lsl	r2, r2, #3
 1068 079a BA18     		add	r2, r7, r2
 1069 079c 1360     		str	r3, [r2]
 216:Source\FilteringFunctions/arm_conv_partial_fast_q31.c **** 
 217:Source\FilteringFunctions/arm_conv_partial_fast_q31.c ****       /* Increment the MAC count */
 218:Source\FilteringFunctions/arm_conv_partial_fast_q31.c ****       count++;
 1070              		.loc 1 218 0
 1071 079e 404B     		ldr	r3, .L51+36
 1072 07a0 FB18     		add	r3, r7, r3
 1073 07a2 1B68     		ldr	r3, [r3]
 1074 07a4 0133     		add	r3, r3, #1
 1075 07a6 3E4A     		ldr	r2, .L51+36
 1076 07a8 BA18     		add	r2, r7, r2
ARM GAS  C:\Users\fneves\AppData\Local\Temp\ccBJVvkW.s 			page 24


 1077 07aa 1360     		str	r3, [r2]
 219:Source\FilteringFunctions/arm_conv_partial_fast_q31.c **** 
 220:Source\FilteringFunctions/arm_conv_partial_fast_q31.c ****       /* Decrement the loop counter */
 221:Source\FilteringFunctions/arm_conv_partial_fast_q31.c ****       blockSize1--;
 1078              		.loc 1 221 0
 1079 07ac 3D4B     		ldr	r3, .L51+40
 1080 07ae FB18     		add	r3, r7, r3
 1081 07b0 1B68     		ldr	r3, [r3]
 1082 07b2 013B     		sub	r3, r3, #1
 1083 07b4 3B4A     		ldr	r2, .L51+40
 1084 07b6 BA18     		add	r2, r7, r2
 1085 07b8 1360     		str	r3, [r2]
 1086              	.L15:
 164:Source\FilteringFunctions/arm_conv_partial_fast_q31.c ****     {
 1087              		.loc 1 164 0
 1088 07ba 3A4B     		ldr	r3, .L51+40
 1089 07bc FB18     		add	r3, r7, r3
 1090 07be 1B68     		ldr	r3, [r3]
 1091 07c0 002B     		cmp	r3, #0
 1092 07c2 00DD     		ble	.LCB999
 1093 07c4 79E5     		b	.L20	@long jump
 1094              	.LCB999:
 222:Source\FilteringFunctions/arm_conv_partial_fast_q31.c ****     }
 223:Source\FilteringFunctions/arm_conv_partial_fast_q31.c **** 
 224:Source\FilteringFunctions/arm_conv_partial_fast_q31.c ****     /* --------------------------
 225:Source\FilteringFunctions/arm_conv_partial_fast_q31.c ****      * Initializations of stage2
 226:Source\FilteringFunctions/arm_conv_partial_fast_q31.c ****      * ------------------------*/
 227:Source\FilteringFunctions/arm_conv_partial_fast_q31.c **** 
 228:Source\FilteringFunctions/arm_conv_partial_fast_q31.c ****     /* sum = x[0] * y[srcBLen-1] + x[1] * y[srcBLen-2] +...+ x[srcBLen-1] * y[0]
 229:Source\FilteringFunctions/arm_conv_partial_fast_q31.c ****      * sum = x[1] * y[srcBLen-1] + x[2] * y[srcBLen-2] +...+ x[srcBLen] * y[0]
 230:Source\FilteringFunctions/arm_conv_partial_fast_q31.c ****      * ....
 231:Source\FilteringFunctions/arm_conv_partial_fast_q31.c ****      * sum = x[srcALen-srcBLen-2] * y[srcBLen-1] + x[srcALen] * y[srcBLen-2] +...+ x[srcALen-1] * y
 232:Source\FilteringFunctions/arm_conv_partial_fast_q31.c ****      */
 233:Source\FilteringFunctions/arm_conv_partial_fast_q31.c **** 
 234:Source\FilteringFunctions/arm_conv_partial_fast_q31.c ****     /* Working pointer of inputA */
 235:Source\FilteringFunctions/arm_conv_partial_fast_q31.c ****     if ((int32_t)firstIndex - (int32_t)srcBLen + 1 > 0)
 1095              		.loc 1 235 0
 1096 07c6 9423     		mov	r3, #148
 1097 07c8 B322     		mov	r2, #179
 1098 07ca D200     		lsl	r2, r2, #3
 1099 07cc 9446     		mov	ip, r2
 1100 07ce BC44     		add	ip, ip, r7
 1101 07d0 6344     		add	r3, r3, ip
 1102 07d2 1A68     		ldr	r2, [r3]
 1103 07d4 B323     		mov	r3, #179
 1104 07d6 DB00     		lsl	r3, r3, #3
 1105 07d8 FB18     		add	r3, r7, r3
 1106 07da 1B68     		ldr	r3, [r3]
 1107 07dc D31A     		sub	r3, r2, r3
 1108 07de 0133     		add	r3, r3, #1
 1109 07e0 002B     		cmp	r3, #0
 1110 07e2 16DD     		ble	.L21
 236:Source\FilteringFunctions/arm_conv_partial_fast_q31.c ****     {
 237:Source\FilteringFunctions/arm_conv_partial_fast_q31.c ****       px = pIn1 + firstIndex - srcBLen + 1;
 1111              		.loc 1 237 0
 1112 07e4 9423     		mov	r3, #148
 1113 07e6 B322     		mov	r2, #179
ARM GAS  C:\Users\fneves\AppData\Local\Temp\ccBJVvkW.s 			page 25


 1114 07e8 D200     		lsl	r2, r2, #3
 1115 07ea 9446     		mov	ip, r2
 1116 07ec BC44     		add	ip, ip, r7
 1117 07ee 6344     		add	r3, r3, ip
 1118 07f0 1A68     		ldr	r2, [r3]
 1119 07f2 B323     		mov	r3, #179
 1120 07f4 DB00     		lsl	r3, r3, #3
 1121 07f6 FB18     		add	r3, r7, r3
 1122 07f8 1B68     		ldr	r3, [r3]
 1123 07fa D31A     		sub	r3, r2, r3
 1124 07fc 0133     		add	r3, r3, #1
 1125 07fe 9A00     		lsl	r2, r3, #2
 1126 0800 264B     		ldr	r3, .L51+32
 1127 0802 FB18     		add	r3, r7, r3
 1128 0804 1B68     		ldr	r3, [r3]
 1129 0806 9B18     		add	r3, r3, r2
 1130 0808 C022     		mov	r2, #192
 1131 080a D200     		lsl	r2, r2, #3
 1132 080c BA18     		add	r2, r7, r2
 1133 080e 1360     		str	r3, [r2]
 1134 0810 06E0     		b	.L22
 1135              	.L21:
 238:Source\FilteringFunctions/arm_conv_partial_fast_q31.c ****     }
 239:Source\FilteringFunctions/arm_conv_partial_fast_q31.c ****     else
 240:Source\FilteringFunctions/arm_conv_partial_fast_q31.c ****     {
 241:Source\FilteringFunctions/arm_conv_partial_fast_q31.c ****       px = pIn1;
 1136              		.loc 1 241 0
 1137 0812 224B     		ldr	r3, .L51+32
 1138 0814 FB18     		add	r3, r7, r3
 1139 0816 1B68     		ldr	r3, [r3]
 1140 0818 C022     		mov	r2, #192
 1141 081a D200     		lsl	r2, r2, #3
 1142 081c BA18     		add	r2, r7, r2
 1143 081e 1360     		str	r3, [r2]
 1144              	.L22:
 242:Source\FilteringFunctions/arm_conv_partial_fast_q31.c ****     }
 243:Source\FilteringFunctions/arm_conv_partial_fast_q31.c **** 
 244:Source\FilteringFunctions/arm_conv_partial_fast_q31.c ****     /* Working pointer of inputB */
 245:Source\FilteringFunctions/arm_conv_partial_fast_q31.c ****     pSrc2 = pIn2 + (srcBLen - 1u);
 1145              		.loc 1 245 0
 1146 0820 B323     		mov	r3, #179
 1147 0822 DB00     		lsl	r3, r3, #3
 1148 0824 FB18     		add	r3, r7, r3
 1149 0826 1B68     		ldr	r3, [r3]
 1150 0828 1F4A     		ldr	r2, .L51+44
 1151 082a 9446     		mov	ip, r2
 1152 082c 6344     		add	r3, r3, ip
 1153 082e 9A00     		lsl	r2, r3, #2
 1154 0830 C123     		mov	r3, #193
 1155 0832 DB00     		lsl	r3, r3, #3
 1156 0834 FB18     		add	r3, r7, r3
 1157 0836 1B68     		ldr	r3, [r3]
 1158 0838 9B18     		add	r3, r3, r2
 1159 083a 174A     		ldr	r2, .L51+28
 1160 083c BA18     		add	r2, r7, r2
 1161 083e 1360     		str	r3, [r2]
 246:Source\FilteringFunctions/arm_conv_partial_fast_q31.c ****     py = pSrc2;
ARM GAS  C:\Users\fneves\AppData\Local\Temp\ccBJVvkW.s 			page 26


 1162              		.loc 1 246 0
 1163 0840 154B     		ldr	r3, .L51+28
 1164 0842 FB18     		add	r3, r7, r3
 1165 0844 1B68     		ldr	r3, [r3]
 1166 0846 104A     		ldr	r2, .L51+12
 1167 0848 BA18     		add	r2, r7, r2
 1168 084a 1360     		str	r3, [r2]
 247:Source\FilteringFunctions/arm_conv_partial_fast_q31.c **** 
 248:Source\FilteringFunctions/arm_conv_partial_fast_q31.c ****     /* count is index by which the pointer pIn1 to be incremented */
 249:Source\FilteringFunctions/arm_conv_partial_fast_q31.c ****     count = 0u;
 1169              		.loc 1 249 0
 1170 084c 0023     		mov	r3, #0
 1171 084e 144A     		ldr	r2, .L51+36
 1172 0850 BA18     		add	r2, r7, r2
 1173 0852 1360     		str	r3, [r2]
 250:Source\FilteringFunctions/arm_conv_partial_fast_q31.c **** 
 251:Source\FilteringFunctions/arm_conv_partial_fast_q31.c ****     /* -------------------
 252:Source\FilteringFunctions/arm_conv_partial_fast_q31.c ****      * Stage2 process
 253:Source\FilteringFunctions/arm_conv_partial_fast_q31.c ****      * ------------------*/
 254:Source\FilteringFunctions/arm_conv_partial_fast_q31.c **** 
 255:Source\FilteringFunctions/arm_conv_partial_fast_q31.c ****     /* Stage2 depends on srcBLen as in this stage srcBLen number of MACS are performed.
 256:Source\FilteringFunctions/arm_conv_partial_fast_q31.c ****      * So, to loop unroll over blockSize2,
 257:Source\FilteringFunctions/arm_conv_partial_fast_q31.c ****      * srcBLen should be greater than or equal to 4 */
 258:Source\FilteringFunctions/arm_conv_partial_fast_q31.c ****     if (srcBLen >= 4u)
 1174              		.loc 1 258 0
 1175 0854 B323     		mov	r3, #179
 1176 0856 DB00     		lsl	r3, r3, #3
 1177 0858 FB18     		add	r3, r7, r3
 1178 085a 1B68     		ldr	r3, [r3]
 1179 085c 032B     		cmp	r3, #3
 1180 085e 01D8     		bhi	.LCB1081
 1181 0860 01F04BFB 		bl	.L23	@far jump
 1182              	.LCB1081:
 259:Source\FilteringFunctions/arm_conv_partial_fast_q31.c ****     {
 260:Source\FilteringFunctions/arm_conv_partial_fast_q31.c ****       /* Loop unroll over blockSize2 */
 261:Source\FilteringFunctions/arm_conv_partial_fast_q31.c ****       blkCnt = ((uint32_t) blockSize2 >> 2u);
 1183              		.loc 1 261 0
 1184 0864 B623     		mov	r3, #182
 1185 0866 DB00     		lsl	r3, r3, #3
 1186 0868 FB18     		add	r3, r7, r3
 1187 086a 1B68     		ldr	r3, [r3]
 1188 086c 9B08     		lsr	r3, r3, #2
 1189 086e B922     		mov	r2, #185
 1190 0870 D200     		lsl	r2, r2, #3
 1191 0872 BA18     		add	r2, r7, r2
 1192 0874 1360     		str	r3, [r2]
 262:Source\FilteringFunctions/arm_conv_partial_fast_q31.c **** 
 263:Source\FilteringFunctions/arm_conv_partial_fast_q31.c ****       while (blkCnt > 0u)
 1193              		.loc 1 263 0
 1194 0876 01F0C6F8 		bl	.L24	@ far jump
 1195              	.L52:
 1196 087a C046     		.align	2
 1197              	.L51:
 1198 087c FC040000 		.word	1276
 1199 0880 F4040000 		.word	1268
 1200 0884 EC040000 		.word	1260
 1201 0888 FC050000 		.word	1532
ARM GAS  C:\Users\fneves\AppData\Local\Temp\ccBJVvkW.s 			page 27


 1202 088c E4040000 		.word	1252
 1203 0890 DC040000 		.word	1244
 1204 0894 04060000 		.word	1540
 1205 0898 F4050000 		.word	1524
 1206 089c 0C060000 		.word	1548
 1207 08a0 CC050000 		.word	1484
 1208 08a4 C4050000 		.word	1476
 1209 08a8 FFFFFF3F 		.word	1073741823
 1210              	.L28:
 264:Source\FilteringFunctions/arm_conv_partial_fast_q31.c ****       {
 265:Source\FilteringFunctions/arm_conv_partial_fast_q31.c ****         /* Set all accumulators to zero */
 266:Source\FilteringFunctions/arm_conv_partial_fast_q31.c ****         acc0 = 0;
 1211              		.loc 1 266 0
 1212 08ac 0023     		mov	r3, #0
 1213 08ae F84A     		ldr	r2, .L53
 1214 08b0 BA18     		add	r2, r7, r2
 1215 08b2 1360     		str	r3, [r2]
 267:Source\FilteringFunctions/arm_conv_partial_fast_q31.c ****         acc1 = 0;
 1216              		.loc 1 267 0
 1217 08b4 0023     		mov	r3, #0
 1218 08b6 BD22     		mov	r2, #189
 1219 08b8 D200     		lsl	r2, r2, #3
 1220 08ba BA18     		add	r2, r7, r2
 1221 08bc 1360     		str	r3, [r2]
 268:Source\FilteringFunctions/arm_conv_partial_fast_q31.c ****         acc2 = 0;
 1222              		.loc 1 268 0
 1223 08be 0023     		mov	r3, #0
 1224 08c0 F44A     		ldr	r2, .L53+4
 1225 08c2 BA18     		add	r2, r7, r2
 1226 08c4 1360     		str	r3, [r2]
 269:Source\FilteringFunctions/arm_conv_partial_fast_q31.c ****         acc3 = 0;
 1227              		.loc 1 269 0
 1228 08c6 0023     		mov	r3, #0
 1229 08c8 BC22     		mov	r2, #188
 1230 08ca D200     		lsl	r2, r2, #3
 1231 08cc BA18     		add	r2, r7, r2
 1232 08ce 1360     		str	r3, [r2]
 270:Source\FilteringFunctions/arm_conv_partial_fast_q31.c **** 
 271:Source\FilteringFunctions/arm_conv_partial_fast_q31.c ****         /* read x[0], x[1], x[2] samples */
 272:Source\FilteringFunctions/arm_conv_partial_fast_q31.c ****         x0 = *(px++);
 1233              		.loc 1 272 0
 1234 08d0 C023     		mov	r3, #192
 1235 08d2 DB00     		lsl	r3, r3, #3
 1236 08d4 FB18     		add	r3, r7, r3
 1237 08d6 1A68     		ldr	r2, [r3]
 1238 08d8 131D     		add	r3, r2, #4
 1239 08da C021     		mov	r1, #192
 1240 08dc C900     		lsl	r1, r1, #3
 1241 08de 7918     		add	r1, r7, r1
 1242 08e0 0B60     		str	r3, [r1]
 1243 08e2 1368     		ldr	r3, [r2]
 1244 08e4 EC4A     		ldr	r2, .L53+8
 1245 08e6 BA18     		add	r2, r7, r2
 1246 08e8 1360     		str	r3, [r2]
 273:Source\FilteringFunctions/arm_conv_partial_fast_q31.c ****         x1 = *(px++);
 1247              		.loc 1 273 0
 1248 08ea C023     		mov	r3, #192
ARM GAS  C:\Users\fneves\AppData\Local\Temp\ccBJVvkW.s 			page 28


 1249 08ec DB00     		lsl	r3, r3, #3
 1250 08ee FB18     		add	r3, r7, r3
 1251 08f0 1A68     		ldr	r2, [r3]
 1252 08f2 131D     		add	r3, r2, #4
 1253 08f4 C021     		mov	r1, #192
 1254 08f6 C900     		lsl	r1, r1, #3
 1255 08f8 7918     		add	r1, r7, r1
 1256 08fa 0B60     		str	r3, [r1]
 1257 08fc 1368     		ldr	r3, [r2]
 1258 08fe BB22     		mov	r2, #187
 1259 0900 D200     		lsl	r2, r2, #3
 1260 0902 BA18     		add	r2, r7, r2
 1261 0904 1360     		str	r3, [r2]
 274:Source\FilteringFunctions/arm_conv_partial_fast_q31.c ****         x2 = *(px++);
 1262              		.loc 1 274 0
 1263 0906 C023     		mov	r3, #192
 1264 0908 DB00     		lsl	r3, r3, #3
 1265 090a FB18     		add	r3, r7, r3
 1266 090c 1A68     		ldr	r2, [r3]
 1267 090e 131D     		add	r3, r2, #4
 1268 0910 C021     		mov	r1, #192
 1269 0912 C900     		lsl	r1, r1, #3
 1270 0914 7918     		add	r1, r7, r1
 1271 0916 0B60     		str	r3, [r1]
 1272 0918 1368     		ldr	r3, [r2]
 1273 091a E04A     		ldr	r2, .L53+12
 1274 091c BA18     		add	r2, r7, r2
 1275 091e 1360     		str	r3, [r2]
 275:Source\FilteringFunctions/arm_conv_partial_fast_q31.c **** 
 276:Source\FilteringFunctions/arm_conv_partial_fast_q31.c ****         /* Apply loop unrolling and compute 4 MACs simultaneously. */
 277:Source\FilteringFunctions/arm_conv_partial_fast_q31.c ****         k = srcBLen >> 2u;
 1276              		.loc 1 277 0
 1277 0920 B323     		mov	r3, #179
 1278 0922 DB00     		lsl	r3, r3, #3
 1279 0924 FB18     		add	r3, r7, r3
 1280 0926 1B68     		ldr	r3, [r3]
 1281 0928 9B08     		lsr	r3, r3, #2
 1282 092a BA22     		mov	r2, #186
 1283 092c D200     		lsl	r2, r2, #3
 1284 092e BA18     		add	r2, r7, r2
 1285 0930 1360     		str	r3, [r2]
 1286              	.L25:
 278:Source\FilteringFunctions/arm_conv_partial_fast_q31.c **** 
 279:Source\FilteringFunctions/arm_conv_partial_fast_q31.c ****         /* First part of the processing with loop unrolling.  Compute 4 MACs at a time.
 280:Source\FilteringFunctions/arm_conv_partial_fast_q31.c ****          ** a second loop below computes MACs for the remaining 1 to 3 samples. */
 281:Source\FilteringFunctions/arm_conv_partial_fast_q31.c ****         do
 282:Source\FilteringFunctions/arm_conv_partial_fast_q31.c ****         {
 283:Source\FilteringFunctions/arm_conv_partial_fast_q31.c ****           /* Read y[srcBLen - 1] sample */
 284:Source\FilteringFunctions/arm_conv_partial_fast_q31.c ****           c0 = *(py--);
 1287              		.loc 1 284 0 discriminator 1
 1288 0932 DB4B     		ldr	r3, .L53+16
 1289 0934 FB18     		add	r3, r7, r3
 1290 0936 1A68     		ldr	r2, [r3]
 1291 0938 131F     		sub	r3, r2, #4
 1292 093a D949     		ldr	r1, .L53+16
 1293 093c 7918     		add	r1, r7, r1
 1294 093e 0B60     		str	r3, [r1]
ARM GAS  C:\Users\fneves\AppData\Local\Temp\ccBJVvkW.s 			page 29


 1295 0940 1368     		ldr	r3, [r2]
 1296 0942 D84A     		ldr	r2, .L53+20
 1297 0944 BA18     		add	r2, r7, r2
 1298 0946 1360     		str	r3, [r2]
 285:Source\FilteringFunctions/arm_conv_partial_fast_q31.c **** 
 286:Source\FilteringFunctions/arm_conv_partial_fast_q31.c ****           /* Read x[3] sample */
 287:Source\FilteringFunctions/arm_conv_partial_fast_q31.c ****           x3 = *(px++);
 1299              		.loc 1 287 0 discriminator 1
 1300 0948 C023     		mov	r3, #192
 1301 094a DB00     		lsl	r3, r3, #3
 1302 094c FB18     		add	r3, r7, r3
 1303 094e 1A68     		ldr	r2, [r3]
 1304 0950 131D     		add	r3, r2, #4
 1305 0952 C021     		mov	r1, #192
 1306 0954 C900     		lsl	r1, r1, #3
 1307 0956 7918     		add	r1, r7, r1
 1308 0958 0B60     		str	r3, [r1]
 1309 095a 1368     		ldr	r3, [r2]
 1310 095c B522     		mov	r2, #181
 1311 095e D200     		lsl	r2, r2, #3
 1312 0960 BA18     		add	r2, r7, r2
 1313 0962 1360     		str	r3, [r2]
 288:Source\FilteringFunctions/arm_conv_partial_fast_q31.c **** 
 289:Source\FilteringFunctions/arm_conv_partial_fast_q31.c ****           /* Perform the multiply-accumulate */
 290:Source\FilteringFunctions/arm_conv_partial_fast_q31.c ****           /* acc0 +=  x[0] * y[srcBLen - 1] */
 291:Source\FilteringFunctions/arm_conv_partial_fast_q31.c ****           acc0 = (q31_t) ((((q63_t) acc0 << 32) + ((q63_t) x0 * c0)) >> 32);
 1314              		.loc 1 291 0 discriminator 1
 1315 0964 CA4B     		ldr	r3, .L53
 1316 0966 FB18     		add	r3, r7, r3
 1317 0968 1B68     		ldr	r3, [r3]
 1318 096a 9A22     		mov	r2, #154
 1319 096c D200     		lsl	r2, r2, #3
 1320 096e BA18     		add	r2, r7, r2
 1321 0970 1360     		str	r3, [r2]
 1322 0972 DB17     		asr	r3, r3, #31
 1323 0974 CC4A     		ldr	r2, .L53+24
 1324 0976 BA18     		add	r2, r7, r2
 1325 0978 1360     		str	r3, [r2]
 1326 097a 9A23     		mov	r3, #154
 1327 097c DB00     		lsl	r3, r3, #3
 1328 097e FB18     		add	r3, r7, r3
 1329 0980 1B68     		ldr	r3, [r3]
 1330 0982 1B00     		lsl	r3, r3, #0
 1331 0984 C94A     		ldr	r2, .L53+28
 1332 0986 BA18     		add	r2, r7, r2
 1333 0988 1360     		str	r3, [r2]
 1334 098a 0023     		mov	r3, #0
 1335 098c 9922     		mov	r2, #153
 1336 098e D200     		lsl	r2, r2, #3
 1337 0990 BA18     		add	r2, r7, r2
 1338 0992 1360     		str	r3, [r2]
 1339 0994 C04B     		ldr	r3, .L53+8
 1340 0996 FB18     		add	r3, r7, r3
 1341 0998 1B68     		ldr	r3, [r3]
 1342 099a 9822     		mov	r2, #152
 1343 099c D200     		lsl	r2, r2, #3
 1344 099e BA18     		add	r2, r7, r2
ARM GAS  C:\Users\fneves\AppData\Local\Temp\ccBJVvkW.s 			page 30


 1345 09a0 1360     		str	r3, [r2]
 1346 09a2 DB17     		asr	r3, r3, #31
 1347 09a4 C24A     		ldr	r2, .L53+32
 1348 09a6 BA18     		add	r2, r7, r2
 1349 09a8 1360     		str	r3, [r2]
 1350 09aa BE4B     		ldr	r3, .L53+20
 1351 09ac FB18     		add	r3, r7, r3
 1352 09ae 1B68     		ldr	r3, [r3]
 1353 09b0 9722     		mov	r2, #151
 1354 09b2 D200     		lsl	r2, r2, #3
 1355 09b4 BA18     		add	r2, r7, r2
 1356 09b6 1360     		str	r3, [r2]
 1357 09b8 DB17     		asr	r3, r3, #31
 1358 09ba BE4A     		ldr	r2, .L53+36
 1359 09bc BA18     		add	r2, r7, r2
 1360 09be 1360     		str	r3, [r2]
 1361 09c0 9823     		mov	r3, #152
 1362 09c2 DB00     		lsl	r3, r3, #3
 1363 09c4 FB18     		add	r3, r7, r3
 1364 09c6 1868     		ldr	r0, [r3]
 1365 09c8 5968     		ldr	r1, [r3, #4]
 1366 09ca 9723     		mov	r3, #151
 1367 09cc DB00     		lsl	r3, r3, #3
 1368 09ce FB18     		add	r3, r7, r3
 1369 09d0 1A68     		ldr	r2, [r3]
 1370 09d2 5B68     		ldr	r3, [r3, #4]
 1371 09d4 FFF7FEFF 		bl	__aeabi_lmul
 1372 09d8 031C     		mov	r3, r0
 1373 09da 0C1C     		mov	r4, r1
 1374 09dc 9922     		mov	r2, #153
 1375 09de D200     		lsl	r2, r2, #3
 1376 09e0 BA18     		add	r2, r7, r2
 1377 09e2 1168     		ldr	r1, [r2]
 1378 09e4 5268     		ldr	r2, [r2, #4]
 1379 09e6 5B18     		add	r3, r3, r1
 1380 09e8 5441     		adc	r4, r4, r2
 1381 09ea 2200     		asr	r2, r4, #0
 1382 09ec 9621     		mov	r1, #150
 1383 09ee C900     		lsl	r1, r1, #3
 1384 09f0 7918     		add	r1, r7, r1
 1385 09f2 0A60     		str	r2, [r1]
 1386 09f4 E317     		asr	r3, r4, #31
 1387 09f6 B04A     		ldr	r2, .L53+40
 1388 09f8 BA18     		add	r2, r7, r2
 1389 09fa 1360     		str	r3, [r2]
 1390 09fc 9623     		mov	r3, #150
 1391 09fe DB00     		lsl	r3, r3, #3
 1392 0a00 FB18     		add	r3, r7, r3
 1393 0a02 1B68     		ldr	r3, [r3]
 1394 0a04 A24A     		ldr	r2, .L53
 1395 0a06 BA18     		add	r2, r7, r2
 1396 0a08 1360     		str	r3, [r2]
 292:Source\FilteringFunctions/arm_conv_partial_fast_q31.c **** 
 293:Source\FilteringFunctions/arm_conv_partial_fast_q31.c ****           /* acc1 +=  x[1] * y[srcBLen - 1] */
 294:Source\FilteringFunctions/arm_conv_partial_fast_q31.c ****           acc1 = (q31_t) ((((q63_t) acc1 << 32) + ((q63_t) x1 * c0)) >> 32);
 1397              		.loc 1 294 0 discriminator 1
 1398 0a0a BD23     		mov	r3, #189
ARM GAS  C:\Users\fneves\AppData\Local\Temp\ccBJVvkW.s 			page 31


 1399 0a0c DB00     		lsl	r3, r3, #3
 1400 0a0e FB18     		add	r3, r7, r3
 1401 0a10 1B68     		ldr	r3, [r3]
 1402 0a12 9522     		mov	r2, #149
 1403 0a14 D200     		lsl	r2, r2, #3
 1404 0a16 BA18     		add	r2, r7, r2
 1405 0a18 1360     		str	r3, [r2]
 1406 0a1a DB17     		asr	r3, r3, #31
 1407 0a1c A74A     		ldr	r2, .L53+44
 1408 0a1e BA18     		add	r2, r7, r2
 1409 0a20 1360     		str	r3, [r2]
 1410 0a22 9523     		mov	r3, #149
 1411 0a24 DB00     		lsl	r3, r3, #3
 1412 0a26 FB18     		add	r3, r7, r3
 1413 0a28 1B68     		ldr	r3, [r3]
 1414 0a2a 1B00     		lsl	r3, r3, #0
 1415 0a2c A44A     		ldr	r2, .L53+48
 1416 0a2e BA18     		add	r2, r7, r2
 1417 0a30 1360     		str	r3, [r2]
 1418 0a32 0023     		mov	r3, #0
 1419 0a34 9422     		mov	r2, #148
 1420 0a36 D200     		lsl	r2, r2, #3
 1421 0a38 BA18     		add	r2, r7, r2
 1422 0a3a 1360     		str	r3, [r2]
 1423 0a3c BB23     		mov	r3, #187
 1424 0a3e DB00     		lsl	r3, r3, #3
 1425 0a40 FB18     		add	r3, r7, r3
 1426 0a42 1B68     		ldr	r3, [r3]
 1427 0a44 9322     		mov	r2, #147
 1428 0a46 D200     		lsl	r2, r2, #3
 1429 0a48 BA18     		add	r2, r7, r2
 1430 0a4a 1360     		str	r3, [r2]
 1431 0a4c DB17     		asr	r3, r3, #31
 1432 0a4e 9D4A     		ldr	r2, .L53+52
 1433 0a50 BA18     		add	r2, r7, r2
 1434 0a52 1360     		str	r3, [r2]
 1435 0a54 934B     		ldr	r3, .L53+20
 1436 0a56 FB18     		add	r3, r7, r3
 1437 0a58 1B68     		ldr	r3, [r3]
 1438 0a5a 9222     		mov	r2, #146
 1439 0a5c D200     		lsl	r2, r2, #3
 1440 0a5e BA18     		add	r2, r7, r2
 1441 0a60 1360     		str	r3, [r2]
 1442 0a62 DB17     		asr	r3, r3, #31
 1443 0a64 984A     		ldr	r2, .L53+56
 1444 0a66 BA18     		add	r2, r7, r2
 1445 0a68 1360     		str	r3, [r2]
 1446 0a6a 9323     		mov	r3, #147
 1447 0a6c DB00     		lsl	r3, r3, #3
 1448 0a6e FB18     		add	r3, r7, r3
 1449 0a70 1868     		ldr	r0, [r3]
 1450 0a72 5968     		ldr	r1, [r3, #4]
 1451 0a74 9223     		mov	r3, #146
 1452 0a76 DB00     		lsl	r3, r3, #3
 1453 0a78 FB18     		add	r3, r7, r3
 1454 0a7a 1A68     		ldr	r2, [r3]
 1455 0a7c 5B68     		ldr	r3, [r3, #4]
ARM GAS  C:\Users\fneves\AppData\Local\Temp\ccBJVvkW.s 			page 32


 1456 0a7e FFF7FEFF 		bl	__aeabi_lmul
 1457 0a82 031C     		mov	r3, r0
 1458 0a84 0C1C     		mov	r4, r1
 1459 0a86 9422     		mov	r2, #148
 1460 0a88 D200     		lsl	r2, r2, #3
 1461 0a8a BA18     		add	r2, r7, r2
 1462 0a8c 1168     		ldr	r1, [r2]
 1463 0a8e 5268     		ldr	r2, [r2, #4]
 1464 0a90 5B18     		add	r3, r3, r1
 1465 0a92 5441     		adc	r4, r4, r2
 1466 0a94 2200     		asr	r2, r4, #0
 1467 0a96 9121     		mov	r1, #145
 1468 0a98 C900     		lsl	r1, r1, #3
 1469 0a9a 7918     		add	r1, r7, r1
 1470 0a9c 0A60     		str	r2, [r1]
 1471 0a9e E317     		asr	r3, r4, #31
 1472 0aa0 8A4A     		ldr	r2, .L53+60
 1473 0aa2 BA18     		add	r2, r7, r2
 1474 0aa4 1360     		str	r3, [r2]
 1475 0aa6 9123     		mov	r3, #145
 1476 0aa8 DB00     		lsl	r3, r3, #3
 1477 0aaa FB18     		add	r3, r7, r3
 1478 0aac 1B68     		ldr	r3, [r3]
 1479 0aae BD22     		mov	r2, #189
 1480 0ab0 D200     		lsl	r2, r2, #3
 1481 0ab2 BA18     		add	r2, r7, r2
 1482 0ab4 1360     		str	r3, [r2]
 295:Source\FilteringFunctions/arm_conv_partial_fast_q31.c **** 
 296:Source\FilteringFunctions/arm_conv_partial_fast_q31.c ****           /* acc2 +=  x[2] * y[srcBLen - 1] */
 297:Source\FilteringFunctions/arm_conv_partial_fast_q31.c ****           acc2 = (q31_t) ((((q63_t) acc2 << 32) + ((q63_t) x2 * c0)) >> 32);
 1483              		.loc 1 297 0 discriminator 1
 1484 0ab6 774B     		ldr	r3, .L53+4
 1485 0ab8 FB18     		add	r3, r7, r3
 1486 0aba 1B68     		ldr	r3, [r3]
 1487 0abc 9022     		mov	r2, #144
 1488 0abe D200     		lsl	r2, r2, #3
 1489 0ac0 BA18     		add	r2, r7, r2
 1490 0ac2 1360     		str	r3, [r2]
 1491 0ac4 DB17     		asr	r3, r3, #31
 1492 0ac6 824A     		ldr	r2, .L53+64
 1493 0ac8 BA18     		add	r2, r7, r2
 1494 0aca 1360     		str	r3, [r2]
 1495 0acc 9023     		mov	r3, #144
 1496 0ace DB00     		lsl	r3, r3, #3
 1497 0ad0 FB18     		add	r3, r7, r3
 1498 0ad2 1B68     		ldr	r3, [r3]
 1499 0ad4 1B00     		lsl	r3, r3, #0
 1500 0ad6 7F4A     		ldr	r2, .L53+68
 1501 0ad8 BA18     		add	r2, r7, r2
 1502 0ada 1360     		str	r3, [r2]
 1503 0adc 0023     		mov	r3, #0
 1504 0ade 8F22     		mov	r2, #143
 1505 0ae0 D200     		lsl	r2, r2, #3
 1506 0ae2 BA18     		add	r2, r7, r2
 1507 0ae4 1360     		str	r3, [r2]
 1508 0ae6 6D4B     		ldr	r3, .L53+12
 1509 0ae8 FB18     		add	r3, r7, r3
ARM GAS  C:\Users\fneves\AppData\Local\Temp\ccBJVvkW.s 			page 33


 1510 0aea 1B68     		ldr	r3, [r3]
 1511 0aec 8E22     		mov	r2, #142
 1512 0aee D200     		lsl	r2, r2, #3
 1513 0af0 BA18     		add	r2, r7, r2
 1514 0af2 1360     		str	r3, [r2]
 1515 0af4 DB17     		asr	r3, r3, #31
 1516 0af6 784A     		ldr	r2, .L53+72
 1517 0af8 BA18     		add	r2, r7, r2
 1518 0afa 1360     		str	r3, [r2]
 1519 0afc 694B     		ldr	r3, .L53+20
 1520 0afe FB18     		add	r3, r7, r3
 1521 0b00 1B68     		ldr	r3, [r3]
 1522 0b02 8D22     		mov	r2, #141
 1523 0b04 D200     		lsl	r2, r2, #3
 1524 0b06 BA18     		add	r2, r7, r2
 1525 0b08 1360     		str	r3, [r2]
 1526 0b0a DB17     		asr	r3, r3, #31
 1527 0b0c 734A     		ldr	r2, .L53+76
 1528 0b0e BA18     		add	r2, r7, r2
 1529 0b10 1360     		str	r3, [r2]
 1530 0b12 8E23     		mov	r3, #142
 1531 0b14 DB00     		lsl	r3, r3, #3
 1532 0b16 FB18     		add	r3, r7, r3
 1533 0b18 1868     		ldr	r0, [r3]
 1534 0b1a 5968     		ldr	r1, [r3, #4]
 1535 0b1c 8D23     		mov	r3, #141
 1536 0b1e DB00     		lsl	r3, r3, #3
 1537 0b20 FB18     		add	r3, r7, r3
 1538 0b22 1A68     		ldr	r2, [r3]
 1539 0b24 5B68     		ldr	r3, [r3, #4]
 1540 0b26 FFF7FEFF 		bl	__aeabi_lmul
 1541 0b2a 031C     		mov	r3, r0
 1542 0b2c 0C1C     		mov	r4, r1
 1543 0b2e 8F22     		mov	r2, #143
 1544 0b30 D200     		lsl	r2, r2, #3
 1545 0b32 BA18     		add	r2, r7, r2
 1546 0b34 1168     		ldr	r1, [r2]
 1547 0b36 5268     		ldr	r2, [r2, #4]
 1548 0b38 5B18     		add	r3, r3, r1
 1549 0b3a 5441     		adc	r4, r4, r2
 1550 0b3c 2200     		asr	r2, r4, #0
 1551 0b3e 8C21     		mov	r1, #140
 1552 0b40 C900     		lsl	r1, r1, #3
 1553 0b42 7918     		add	r1, r7, r1
 1554 0b44 0A60     		str	r2, [r1]
 1555 0b46 E317     		asr	r3, r4, #31
 1556 0b48 654A     		ldr	r2, .L53+80
 1557 0b4a BA18     		add	r2, r7, r2
 1558 0b4c 1360     		str	r3, [r2]
 1559 0b4e 8C23     		mov	r3, #140
 1560 0b50 DB00     		lsl	r3, r3, #3
 1561 0b52 FB18     		add	r3, r7, r3
 1562 0b54 1B68     		ldr	r3, [r3]
 1563 0b56 4F4A     		ldr	r2, .L53+4
 1564 0b58 BA18     		add	r2, r7, r2
 1565 0b5a 1360     		str	r3, [r2]
 298:Source\FilteringFunctions/arm_conv_partial_fast_q31.c **** 
ARM GAS  C:\Users\fneves\AppData\Local\Temp\ccBJVvkW.s 			page 34


 299:Source\FilteringFunctions/arm_conv_partial_fast_q31.c ****           /* acc3 +=  x[3] * y[srcBLen - 1] */
 300:Source\FilteringFunctions/arm_conv_partial_fast_q31.c ****           acc3 = (q31_t) ((((q63_t) acc3 << 32) + ((q63_t) x3 * c0)) >> 32);
 1566              		.loc 1 300 0 discriminator 1
 1567 0b5c BC23     		mov	r3, #188
 1568 0b5e DB00     		lsl	r3, r3, #3
 1569 0b60 FB18     		add	r3, r7, r3
 1570 0b62 1B68     		ldr	r3, [r3]
 1571 0b64 8B22     		mov	r2, #139
 1572 0b66 D200     		lsl	r2, r2, #3
 1573 0b68 BA18     		add	r2, r7, r2
 1574 0b6a 1360     		str	r3, [r2]
 1575 0b6c DB17     		asr	r3, r3, #31
 1576 0b6e 5D4A     		ldr	r2, .L53+84
 1577 0b70 BA18     		add	r2, r7, r2
 1578 0b72 1360     		str	r3, [r2]
 1579 0b74 8B23     		mov	r3, #139
 1580 0b76 DB00     		lsl	r3, r3, #3
 1581 0b78 FB18     		add	r3, r7, r3
 1582 0b7a 1B68     		ldr	r3, [r3]
 1583 0b7c 1B00     		lsl	r3, r3, #0
 1584 0b7e 5A4A     		ldr	r2, .L53+88
 1585 0b80 BA18     		add	r2, r7, r2
 1586 0b82 1360     		str	r3, [r2]
 1587 0b84 0023     		mov	r3, #0
 1588 0b86 8A22     		mov	r2, #138
 1589 0b88 D200     		lsl	r2, r2, #3
 1590 0b8a BA18     		add	r2, r7, r2
 1591 0b8c 1360     		str	r3, [r2]
 1592 0b8e B523     		mov	r3, #181
 1593 0b90 DB00     		lsl	r3, r3, #3
 1594 0b92 FB18     		add	r3, r7, r3
 1595 0b94 1B68     		ldr	r3, [r3]
 1596 0b96 8922     		mov	r2, #137
 1597 0b98 D200     		lsl	r2, r2, #3
 1598 0b9a BA18     		add	r2, r7, r2
 1599 0b9c 1360     		str	r3, [r2]
 1600 0b9e DB17     		asr	r3, r3, #31
 1601 0ba0 524A     		ldr	r2, .L53+92
 1602 0ba2 BA18     		add	r2, r7, r2
 1603 0ba4 1360     		str	r3, [r2]
 1604 0ba6 3F4B     		ldr	r3, .L53+20
 1605 0ba8 FB18     		add	r3, r7, r3
 1606 0baa 1B68     		ldr	r3, [r3]
 1607 0bac 8822     		mov	r2, #136
 1608 0bae D200     		lsl	r2, r2, #3
 1609 0bb0 BA18     		add	r2, r7, r2
 1610 0bb2 1360     		str	r3, [r2]
 1611 0bb4 DB17     		asr	r3, r3, #31
 1612 0bb6 4E4A     		ldr	r2, .L53+96
 1613 0bb8 BA18     		add	r2, r7, r2
 1614 0bba 1360     		str	r3, [r2]
 1615 0bbc 8923     		mov	r3, #137
 1616 0bbe DB00     		lsl	r3, r3, #3
 1617 0bc0 FB18     		add	r3, r7, r3
 1618 0bc2 1868     		ldr	r0, [r3]
 1619 0bc4 5968     		ldr	r1, [r3, #4]
 1620 0bc6 8823     		mov	r3, #136
ARM GAS  C:\Users\fneves\AppData\Local\Temp\ccBJVvkW.s 			page 35


 1621 0bc8 DB00     		lsl	r3, r3, #3
 1622 0bca FB18     		add	r3, r7, r3
 1623 0bcc 1A68     		ldr	r2, [r3]
 1624 0bce 5B68     		ldr	r3, [r3, #4]
 1625 0bd0 FFF7FEFF 		bl	__aeabi_lmul
 1626 0bd4 031C     		mov	r3, r0
 1627 0bd6 0C1C     		mov	r4, r1
 1628 0bd8 8A22     		mov	r2, #138
 1629 0bda D200     		lsl	r2, r2, #3
 1630 0bdc BA18     		add	r2, r7, r2
 1631 0bde 1168     		ldr	r1, [r2]
 1632 0be0 5268     		ldr	r2, [r2, #4]
 1633 0be2 5B18     		add	r3, r3, r1
 1634 0be4 5441     		adc	r4, r4, r2
 1635 0be6 2200     		asr	r2, r4, #0
 1636 0be8 8721     		mov	r1, #135
 1637 0bea C900     		lsl	r1, r1, #3
 1638 0bec 7918     		add	r1, r7, r1
 1639 0bee 0A60     		str	r2, [r1]
 1640 0bf0 E317     		asr	r3, r4, #31
 1641 0bf2 404A     		ldr	r2, .L53+100
 1642 0bf4 BA18     		add	r2, r7, r2
 1643 0bf6 1360     		str	r3, [r2]
 1644 0bf8 8723     		mov	r3, #135
 1645 0bfa DB00     		lsl	r3, r3, #3
 1646 0bfc FB18     		add	r3, r7, r3
 1647 0bfe 1B68     		ldr	r3, [r3]
 1648 0c00 BC22     		mov	r2, #188
 1649 0c02 D200     		lsl	r2, r2, #3
 1650 0c04 BA18     		add	r2, r7, r2
 1651 0c06 1360     		str	r3, [r2]
 301:Source\FilteringFunctions/arm_conv_partial_fast_q31.c **** 
 302:Source\FilteringFunctions/arm_conv_partial_fast_q31.c ****           /* Read y[srcBLen - 2] sample */
 303:Source\FilteringFunctions/arm_conv_partial_fast_q31.c ****           c0 = *(py--);
 1652              		.loc 1 303 0 discriminator 1
 1653 0c08 254B     		ldr	r3, .L53+16
 1654 0c0a FB18     		add	r3, r7, r3
 1655 0c0c 1A68     		ldr	r2, [r3]
 1656 0c0e 131F     		sub	r3, r2, #4
 1657 0c10 2349     		ldr	r1, .L53+16
 1658 0c12 7918     		add	r1, r7, r1
 1659 0c14 0B60     		str	r3, [r1]
 1660 0c16 1368     		ldr	r3, [r2]
 1661 0c18 224A     		ldr	r2, .L53+20
 1662 0c1a BA18     		add	r2, r7, r2
 1663 0c1c 1360     		str	r3, [r2]
 304:Source\FilteringFunctions/arm_conv_partial_fast_q31.c **** 
 305:Source\FilteringFunctions/arm_conv_partial_fast_q31.c ****           /* Read x[4] sample */
 306:Source\FilteringFunctions/arm_conv_partial_fast_q31.c ****           x0 = *(px++);
 1664              		.loc 1 306 0 discriminator 1
 1665 0c1e C023     		mov	r3, #192
 1666 0c20 DB00     		lsl	r3, r3, #3
 1667 0c22 FB18     		add	r3, r7, r3
 1668 0c24 1A68     		ldr	r2, [r3]
 1669 0c26 131D     		add	r3, r2, #4
 1670 0c28 C021     		mov	r1, #192
 1671 0c2a C900     		lsl	r1, r1, #3
ARM GAS  C:\Users\fneves\AppData\Local\Temp\ccBJVvkW.s 			page 36


 1672 0c2c 7918     		add	r1, r7, r1
 1673 0c2e 0B60     		str	r3, [r1]
 1674 0c30 1368     		ldr	r3, [r2]
 1675 0c32 194A     		ldr	r2, .L53+8
 1676 0c34 BA18     		add	r2, r7, r2
 1677 0c36 1360     		str	r3, [r2]
 307:Source\FilteringFunctions/arm_conv_partial_fast_q31.c **** 
 308:Source\FilteringFunctions/arm_conv_partial_fast_q31.c ****           /* Perform the multiply-accumulate */
 309:Source\FilteringFunctions/arm_conv_partial_fast_q31.c ****           /* acc0 +=  x[1] * y[srcBLen - 2] */
 310:Source\FilteringFunctions/arm_conv_partial_fast_q31.c ****           acc0 = (q31_t) ((((q63_t) acc0 << 32) + ((q63_t) x1 * c0)) >> 32);
 1678              		.loc 1 310 0 discriminator 1
 1679 0c38 154B     		ldr	r3, .L53
 1680 0c3a FB18     		add	r3, r7, r3
 1681 0c3c 1B68     		ldr	r3, [r3]
 1682 0c3e 8622     		mov	r2, #134
 1683 0c40 D200     		lsl	r2, r2, #3
 1684 0c42 BA18     		add	r2, r7, r2
 1685 0c44 1360     		str	r3, [r2]
 1686 0c46 DB17     		asr	r3, r3, #31
 1687 0c48 2B4A     		ldr	r2, .L53+104
 1688 0c4a BA18     		add	r2, r7, r2
 1689 0c4c 1360     		str	r3, [r2]
 1690 0c4e 8623     		mov	r3, #134
 1691 0c50 DB00     		lsl	r3, r3, #3
 1692 0c52 FB18     		add	r3, r7, r3
 1693 0c54 1B68     		ldr	r3, [r3]
 1694 0c56 1B00     		lsl	r3, r3, #0
 1695 0c58 284A     		ldr	r2, .L53+108
 1696 0c5a BA18     		add	r2, r7, r2
 1697 0c5c 1360     		str	r3, [r2]
 1698 0c5e 0023     		mov	r3, #0
 1699 0c60 8522     		mov	r2, #133
 1700 0c62 D200     		lsl	r2, r2, #3
 1701 0c64 BA18     		add	r2, r7, r2
 1702 0c66 1360     		str	r3, [r2]
 1703 0c68 BB23     		mov	r3, #187
 1704 0c6a DB00     		lsl	r3, r3, #3
 1705 0c6c FB18     		add	r3, r7, r3
 1706 0c6e 1B68     		ldr	r3, [r3]
 1707 0c70 8422     		mov	r2, #132
 1708 0c72 D200     		lsl	r2, r2, #3
 1709 0c74 BA18     		add	r2, r7, r2
 1710 0c76 1360     		str	r3, [r2]
 1711 0c78 DB17     		asr	r3, r3, #31
 1712 0c7a 214A     		ldr	r2, .L53+112
 1713 0c7c BA18     		add	r2, r7, r2
 1714 0c7e 1360     		str	r3, [r2]
 1715 0c80 084B     		ldr	r3, .L53+20
 1716 0c82 FB18     		add	r3, r7, r3
 1717 0c84 1B68     		ldr	r3, [r3]
 1718 0c86 8322     		mov	r2, #131
 1719 0c88 D200     		lsl	r2, r2, #3
 1720 0c8a BA18     		add	r2, r7, r2
 1721 0c8c 1360     		str	r3, [r2]
 1722 0c8e 39E0     		b	.L54
 1723              	.L55:
 1724              		.align	2
ARM GAS  C:\Users\fneves\AppData\Local\Temp\ccBJVvkW.s 			page 37


 1725              	.L53:
 1726 0c90 EC050000 		.word	1516
 1727 0c94 E4050000 		.word	1508
 1728 0c98 DC050000 		.word	1500
 1729 0c9c D4050000 		.word	1492
 1730 0ca0 FC050000 		.word	1532
 1731 0ca4 AC050000 		.word	1452
 1732 0ca8 D4040000 		.word	1236
 1733 0cac CC040000 		.word	1228
 1734 0cb0 C4040000 		.word	1220
 1735 0cb4 BC040000 		.word	1212
 1736 0cb8 B4040000 		.word	1204
 1737 0cbc AC040000 		.word	1196
 1738 0cc0 A4040000 		.word	1188
 1739 0cc4 9C040000 		.word	1180
 1740 0cc8 94040000 		.word	1172
 1741 0ccc 8C040000 		.word	1164
 1742 0cd0 84040000 		.word	1156
 1743 0cd4 7C040000 		.word	1148
 1744 0cd8 74040000 		.word	1140
 1745 0cdc 6C040000 		.word	1132
 1746 0ce0 64040000 		.word	1124
 1747 0ce4 5C040000 		.word	1116
 1748 0ce8 54040000 		.word	1108
 1749 0cec 4C040000 		.word	1100
 1750 0cf0 44040000 		.word	1092
 1751 0cf4 3C040000 		.word	1084
 1752 0cf8 34040000 		.word	1076
 1753 0cfc 2C040000 		.word	1068
 1754 0d00 24040000 		.word	1060
 1755              	.L54:
 1756 0d04 DB17     		asr	r3, r3, #31
 1757 0d06 F54A     		ldr	r2, .L56
 1758 0d08 BA18     		add	r2, r7, r2
 1759 0d0a 1360     		str	r3, [r2]
 1760 0d0c 8423     		mov	r3, #132
 1761 0d0e DB00     		lsl	r3, r3, #3
 1762 0d10 FB18     		add	r3, r7, r3
 1763 0d12 1868     		ldr	r0, [r3]
 1764 0d14 5968     		ldr	r1, [r3, #4]
 1765 0d16 8323     		mov	r3, #131
 1766 0d18 DB00     		lsl	r3, r3, #3
 1767 0d1a FB18     		add	r3, r7, r3
 1768 0d1c 1A68     		ldr	r2, [r3]
 1769 0d1e 5B68     		ldr	r3, [r3, #4]
 1770 0d20 FFF7FEFF 		bl	__aeabi_lmul
 1771 0d24 031C     		mov	r3, r0
 1772 0d26 0C1C     		mov	r4, r1
 1773 0d28 8522     		mov	r2, #133
 1774 0d2a D200     		lsl	r2, r2, #3
 1775 0d2c BA18     		add	r2, r7, r2
 1776 0d2e 1168     		ldr	r1, [r2]
 1777 0d30 5268     		ldr	r2, [r2, #4]
 1778 0d32 5B18     		add	r3, r3, r1
 1779 0d34 5441     		adc	r4, r4, r2
 1780 0d36 2200     		asr	r2, r4, #0
 1781 0d38 8221     		mov	r1, #130
ARM GAS  C:\Users\fneves\AppData\Local\Temp\ccBJVvkW.s 			page 38


 1782 0d3a C900     		lsl	r1, r1, #3
 1783 0d3c 7918     		add	r1, r7, r1
 1784 0d3e 0A60     		str	r2, [r1]
 1785 0d40 E317     		asr	r3, r4, #31
 1786 0d42 E74A     		ldr	r2, .L56+4
 1787 0d44 BA18     		add	r2, r7, r2
 1788 0d46 1360     		str	r3, [r2]
 1789 0d48 8223     		mov	r3, #130
 1790 0d4a DB00     		lsl	r3, r3, #3
 1791 0d4c FB18     		add	r3, r7, r3
 1792 0d4e 1B68     		ldr	r3, [r3]
 1793 0d50 E44A     		ldr	r2, .L56+8
 1794 0d52 BA18     		add	r2, r7, r2
 1795 0d54 1360     		str	r3, [r2]
 311:Source\FilteringFunctions/arm_conv_partial_fast_q31.c ****           /* acc1 +=  x[2] * y[srcBLen - 2] */
 312:Source\FilteringFunctions/arm_conv_partial_fast_q31.c ****           acc1 = (q31_t) ((((q63_t) acc1 << 32) + ((q63_t) x2 * c0)) >> 32);
 1796              		.loc 1 312 0 discriminator 1
 1797 0d56 BD23     		mov	r3, #189
 1798 0d58 DB00     		lsl	r3, r3, #3
 1799 0d5a FB18     		add	r3, r7, r3
 1800 0d5c 1B68     		ldr	r3, [r3]
 1801 0d5e 8122     		mov	r2, #129
 1802 0d60 D200     		lsl	r2, r2, #3
 1803 0d62 BA18     		add	r2, r7, r2
 1804 0d64 1360     		str	r3, [r2]
 1805 0d66 DB17     		asr	r3, r3, #31
 1806 0d68 DF4A     		ldr	r2, .L56+12
 1807 0d6a BA18     		add	r2, r7, r2
 1808 0d6c 1360     		str	r3, [r2]
 1809 0d6e 8123     		mov	r3, #129
 1810 0d70 DB00     		lsl	r3, r3, #3
 1811 0d72 FB18     		add	r3, r7, r3
 1812 0d74 1B68     		ldr	r3, [r3]
 1813 0d76 1B00     		lsl	r3, r3, #0
 1814 0d78 DC4A     		ldr	r2, .L56+16
 1815 0d7a BA18     		add	r2, r7, r2
 1816 0d7c 1360     		str	r3, [r2]
 1817 0d7e 0023     		mov	r3, #0
 1818 0d80 8022     		mov	r2, #128
 1819 0d82 D200     		lsl	r2, r2, #3
 1820 0d84 BA18     		add	r2, r7, r2
 1821 0d86 1360     		str	r3, [r2]
 1822 0d88 D94B     		ldr	r3, .L56+20
 1823 0d8a FB18     		add	r3, r7, r3
 1824 0d8c 1B68     		ldr	r3, [r3]
 1825 0d8e FE22     		mov	r2, #254
 1826 0d90 9200     		lsl	r2, r2, #2
 1827 0d92 BA18     		add	r2, r7, r2
 1828 0d94 1360     		str	r3, [r2]
 1829 0d96 DB17     		asr	r3, r3, #31
 1830 0d98 FF22     		mov	r2, #255
 1831 0d9a 9200     		lsl	r2, r2, #2
 1832 0d9c BA18     		add	r2, r7, r2
 1833 0d9e 1360     		str	r3, [r2]
 1834 0da0 D44B     		ldr	r3, .L56+24
 1835 0da2 FB18     		add	r3, r7, r3
 1836 0da4 1B68     		ldr	r3, [r3]
ARM GAS  C:\Users\fneves\AppData\Local\Temp\ccBJVvkW.s 			page 39


 1837 0da6 FC22     		mov	r2, #252
 1838 0da8 9200     		lsl	r2, r2, #2
 1839 0daa BA18     		add	r2, r7, r2
 1840 0dac 1360     		str	r3, [r2]
 1841 0dae DB17     		asr	r3, r3, #31
 1842 0db0 FD22     		mov	r2, #253
 1843 0db2 9200     		lsl	r2, r2, #2
 1844 0db4 BA18     		add	r2, r7, r2
 1845 0db6 1360     		str	r3, [r2]
 1846 0db8 FE23     		mov	r3, #254
 1847 0dba 9B00     		lsl	r3, r3, #2
 1848 0dbc FB18     		add	r3, r7, r3
 1849 0dbe 1868     		ldr	r0, [r3]
 1850 0dc0 5968     		ldr	r1, [r3, #4]
 1851 0dc2 FC23     		mov	r3, #252
 1852 0dc4 9B00     		lsl	r3, r3, #2
 1853 0dc6 FB18     		add	r3, r7, r3
 1854 0dc8 1A68     		ldr	r2, [r3]
 1855 0dca 5B68     		ldr	r3, [r3, #4]
 1856 0dcc FFF7FEFF 		bl	__aeabi_lmul
 1857 0dd0 031C     		mov	r3, r0
 1858 0dd2 0C1C     		mov	r4, r1
 1859 0dd4 8022     		mov	r2, #128
 1860 0dd6 D200     		lsl	r2, r2, #3
 1861 0dd8 BA18     		add	r2, r7, r2
 1862 0dda 1168     		ldr	r1, [r2]
 1863 0ddc 5268     		ldr	r2, [r2, #4]
 1864 0dde 5B18     		add	r3, r3, r1
 1865 0de0 5441     		adc	r4, r4, r2
 1866 0de2 2200     		asr	r2, r4, #0
 1867 0de4 FA21     		mov	r1, #250
 1868 0de6 8900     		lsl	r1, r1, #2
 1869 0de8 7918     		add	r1, r7, r1
 1870 0dea 0A60     		str	r2, [r1]
 1871 0dec E317     		asr	r3, r4, #31
 1872 0dee FB22     		mov	r2, #251
 1873 0df0 9200     		lsl	r2, r2, #2
 1874 0df2 BA18     		add	r2, r7, r2
 1875 0df4 1360     		str	r3, [r2]
 1876 0df6 FA23     		mov	r3, #250
 1877 0df8 9B00     		lsl	r3, r3, #2
 1878 0dfa FB18     		add	r3, r7, r3
 1879 0dfc 1B68     		ldr	r3, [r3]
 1880 0dfe BD22     		mov	r2, #189
 1881 0e00 D200     		lsl	r2, r2, #3
 1882 0e02 BA18     		add	r2, r7, r2
 1883 0e04 1360     		str	r3, [r2]
 313:Source\FilteringFunctions/arm_conv_partial_fast_q31.c ****           /* acc2 +=  x[3] * y[srcBLen - 2] */
 314:Source\FilteringFunctions/arm_conv_partial_fast_q31.c ****           acc2 = (q31_t) ((((q63_t) acc2 << 32) + ((q63_t) x3 * c0)) >> 32);
 1884              		.loc 1 314 0 discriminator 1
 1885 0e06 BC4B     		ldr	r3, .L56+28
 1886 0e08 FB18     		add	r3, r7, r3
 1887 0e0a 1B68     		ldr	r3, [r3]
 1888 0e0c F822     		mov	r2, #248
 1889 0e0e 9200     		lsl	r2, r2, #2
 1890 0e10 BA18     		add	r2, r7, r2
 1891 0e12 1360     		str	r3, [r2]
ARM GAS  C:\Users\fneves\AppData\Local\Temp\ccBJVvkW.s 			page 40


 1892 0e14 DB17     		asr	r3, r3, #31
 1893 0e16 F922     		mov	r2, #249
 1894 0e18 9200     		lsl	r2, r2, #2
 1895 0e1a BA18     		add	r2, r7, r2
 1896 0e1c 1360     		str	r3, [r2]
 1897 0e1e F823     		mov	r3, #248
 1898 0e20 9B00     		lsl	r3, r3, #2
 1899 0e22 FB18     		add	r3, r7, r3
 1900 0e24 1B68     		ldr	r3, [r3]
 1901 0e26 1B00     		lsl	r3, r3, #0
 1902 0e28 F722     		mov	r2, #247
 1903 0e2a 9200     		lsl	r2, r2, #2
 1904 0e2c BA18     		add	r2, r7, r2
 1905 0e2e 1360     		str	r3, [r2]
 1906 0e30 0023     		mov	r3, #0
 1907 0e32 F622     		mov	r2, #246
 1908 0e34 9200     		lsl	r2, r2, #2
 1909 0e36 BA18     		add	r2, r7, r2
 1910 0e38 1360     		str	r3, [r2]
 1911 0e3a B523     		mov	r3, #181
 1912 0e3c DB00     		lsl	r3, r3, #3
 1913 0e3e FB18     		add	r3, r7, r3
 1914 0e40 1B68     		ldr	r3, [r3]
 1915 0e42 F422     		mov	r2, #244
 1916 0e44 9200     		lsl	r2, r2, #2
 1917 0e46 BA18     		add	r2, r7, r2
 1918 0e48 1360     		str	r3, [r2]
 1919 0e4a DB17     		asr	r3, r3, #31
 1920 0e4c F522     		mov	r2, #245
 1921 0e4e 9200     		lsl	r2, r2, #2
 1922 0e50 BA18     		add	r2, r7, r2
 1923 0e52 1360     		str	r3, [r2]
 1924 0e54 A74B     		ldr	r3, .L56+24
 1925 0e56 FB18     		add	r3, r7, r3
 1926 0e58 1B68     		ldr	r3, [r3]
 1927 0e5a F222     		mov	r2, #242
 1928 0e5c 9200     		lsl	r2, r2, #2
 1929 0e5e BA18     		add	r2, r7, r2
 1930 0e60 1360     		str	r3, [r2]
 1931 0e62 DB17     		asr	r3, r3, #31
 1932 0e64 F322     		mov	r2, #243
 1933 0e66 9200     		lsl	r2, r2, #2
 1934 0e68 BA18     		add	r2, r7, r2
 1935 0e6a 1360     		str	r3, [r2]
 1936 0e6c F423     		mov	r3, #244
 1937 0e6e 9B00     		lsl	r3, r3, #2
 1938 0e70 FB18     		add	r3, r7, r3
 1939 0e72 1868     		ldr	r0, [r3]
 1940 0e74 5968     		ldr	r1, [r3, #4]
 1941 0e76 F223     		mov	r3, #242
 1942 0e78 9B00     		lsl	r3, r3, #2
 1943 0e7a FB18     		add	r3, r7, r3
 1944 0e7c 1A68     		ldr	r2, [r3]
 1945 0e7e 5B68     		ldr	r3, [r3, #4]
 1946 0e80 FFF7FEFF 		bl	__aeabi_lmul
 1947 0e84 031C     		mov	r3, r0
 1948 0e86 0C1C     		mov	r4, r1
ARM GAS  C:\Users\fneves\AppData\Local\Temp\ccBJVvkW.s 			page 41


 1949 0e88 F622     		mov	r2, #246
 1950 0e8a 9200     		lsl	r2, r2, #2
 1951 0e8c BA18     		add	r2, r7, r2
 1952 0e8e 1168     		ldr	r1, [r2]
 1953 0e90 5268     		ldr	r2, [r2, #4]
 1954 0e92 5B18     		add	r3, r3, r1
 1955 0e94 5441     		adc	r4, r4, r2
 1956 0e96 2200     		asr	r2, r4, #0
 1957 0e98 F021     		mov	r1, #240
 1958 0e9a 8900     		lsl	r1, r1, #2
 1959 0e9c 7918     		add	r1, r7, r1
 1960 0e9e 0A60     		str	r2, [r1]
 1961 0ea0 E317     		asr	r3, r4, #31
 1962 0ea2 F122     		mov	r2, #241
 1963 0ea4 9200     		lsl	r2, r2, #2
 1964 0ea6 BA18     		add	r2, r7, r2
 1965 0ea8 1360     		str	r3, [r2]
 1966 0eaa F023     		mov	r3, #240
 1967 0eac 9B00     		lsl	r3, r3, #2
 1968 0eae FB18     		add	r3, r7, r3
 1969 0eb0 1B68     		ldr	r3, [r3]
 1970 0eb2 914A     		ldr	r2, .L56+28
 1971 0eb4 BA18     		add	r2, r7, r2
 1972 0eb6 1360     		str	r3, [r2]
 315:Source\FilteringFunctions/arm_conv_partial_fast_q31.c ****           /* acc3 +=  x[4] * y[srcBLen - 2] */
 316:Source\FilteringFunctions/arm_conv_partial_fast_q31.c ****           acc3 = (q31_t) ((((q63_t) acc3 << 32) + ((q63_t) x0 * c0)) >> 32);
 1973              		.loc 1 316 0 discriminator 1
 1974 0eb8 BC23     		mov	r3, #188
 1975 0eba DB00     		lsl	r3, r3, #3
 1976 0ebc FB18     		add	r3, r7, r3
 1977 0ebe 1B68     		ldr	r3, [r3]
 1978 0ec0 EE22     		mov	r2, #238
 1979 0ec2 9200     		lsl	r2, r2, #2
 1980 0ec4 BA18     		add	r2, r7, r2
 1981 0ec6 1360     		str	r3, [r2]
 1982 0ec8 DB17     		asr	r3, r3, #31
 1983 0eca EF22     		mov	r2, #239
 1984 0ecc 9200     		lsl	r2, r2, #2
 1985 0ece BA18     		add	r2, r7, r2
 1986 0ed0 1360     		str	r3, [r2]
 1987 0ed2 EE23     		mov	r3, #238
 1988 0ed4 9B00     		lsl	r3, r3, #2
 1989 0ed6 FB18     		add	r3, r7, r3
 1990 0ed8 1B68     		ldr	r3, [r3]
 1991 0eda 1B00     		lsl	r3, r3, #0
 1992 0edc ED22     		mov	r2, #237
 1993 0ede 9200     		lsl	r2, r2, #2
 1994 0ee0 BA18     		add	r2, r7, r2
 1995 0ee2 1360     		str	r3, [r2]
 1996 0ee4 0023     		mov	r3, #0
 1997 0ee6 EC22     		mov	r2, #236
 1998 0ee8 9200     		lsl	r2, r2, #2
 1999 0eea BA18     		add	r2, r7, r2
 2000 0eec 1360     		str	r3, [r2]
 2001 0eee 834B     		ldr	r3, .L56+32
 2002 0ef0 FB18     		add	r3, r7, r3
 2003 0ef2 1B68     		ldr	r3, [r3]
ARM GAS  C:\Users\fneves\AppData\Local\Temp\ccBJVvkW.s 			page 42


 2004 0ef4 EA22     		mov	r2, #234
 2005 0ef6 9200     		lsl	r2, r2, #2
 2006 0ef8 BA18     		add	r2, r7, r2
 2007 0efa 1360     		str	r3, [r2]
 2008 0efc DB17     		asr	r3, r3, #31
 2009 0efe EB22     		mov	r2, #235
 2010 0f00 9200     		lsl	r2, r2, #2
 2011 0f02 BA18     		add	r2, r7, r2
 2012 0f04 1360     		str	r3, [r2]
 2013 0f06 7B4B     		ldr	r3, .L56+24
 2014 0f08 FB18     		add	r3, r7, r3
 2015 0f0a 1B68     		ldr	r3, [r3]
 2016 0f0c E822     		mov	r2, #232
 2017 0f0e 9200     		lsl	r2, r2, #2
 2018 0f10 BA18     		add	r2, r7, r2
 2019 0f12 1360     		str	r3, [r2]
 2020 0f14 DB17     		asr	r3, r3, #31
 2021 0f16 E922     		mov	r2, #233
 2022 0f18 9200     		lsl	r2, r2, #2
 2023 0f1a BA18     		add	r2, r7, r2
 2024 0f1c 1360     		str	r3, [r2]
 2025 0f1e EA23     		mov	r3, #234
 2026 0f20 9B00     		lsl	r3, r3, #2
 2027 0f22 FB18     		add	r3, r7, r3
 2028 0f24 1868     		ldr	r0, [r3]
 2029 0f26 5968     		ldr	r1, [r3, #4]
 2030 0f28 E823     		mov	r3, #232
 2031 0f2a 9B00     		lsl	r3, r3, #2
 2032 0f2c FB18     		add	r3, r7, r3
 2033 0f2e 1A68     		ldr	r2, [r3]
 2034 0f30 5B68     		ldr	r3, [r3, #4]
 2035 0f32 FFF7FEFF 		bl	__aeabi_lmul
 2036 0f36 031C     		mov	r3, r0
 2037 0f38 0C1C     		mov	r4, r1
 2038 0f3a EC22     		mov	r2, #236
 2039 0f3c 9200     		lsl	r2, r2, #2
 2040 0f3e BA18     		add	r2, r7, r2
 2041 0f40 1168     		ldr	r1, [r2]
 2042 0f42 5268     		ldr	r2, [r2, #4]
 2043 0f44 5B18     		add	r3, r3, r1
 2044 0f46 5441     		adc	r4, r4, r2
 2045 0f48 2200     		asr	r2, r4, #0
 2046 0f4a E621     		mov	r1, #230
 2047 0f4c 8900     		lsl	r1, r1, #2
 2048 0f4e 7918     		add	r1, r7, r1
 2049 0f50 0A60     		str	r2, [r1]
 2050 0f52 E317     		asr	r3, r4, #31
 2051 0f54 E722     		mov	r2, #231
 2052 0f56 9200     		lsl	r2, r2, #2
 2053 0f58 BA18     		add	r2, r7, r2
 2054 0f5a 1360     		str	r3, [r2]
 2055 0f5c E623     		mov	r3, #230
 2056 0f5e 9B00     		lsl	r3, r3, #2
 2057 0f60 FB18     		add	r3, r7, r3
 2058 0f62 1B68     		ldr	r3, [r3]
 2059 0f64 BC22     		mov	r2, #188
 2060 0f66 D200     		lsl	r2, r2, #3
ARM GAS  C:\Users\fneves\AppData\Local\Temp\ccBJVvkW.s 			page 43


 2061 0f68 BA18     		add	r2, r7, r2
 2062 0f6a 1360     		str	r3, [r2]
 317:Source\FilteringFunctions/arm_conv_partial_fast_q31.c **** 
 318:Source\FilteringFunctions/arm_conv_partial_fast_q31.c ****           /* Read y[srcBLen - 3] sample */
 319:Source\FilteringFunctions/arm_conv_partial_fast_q31.c ****           c0 = *(py--);
 2063              		.loc 1 319 0 discriminator 1
 2064 0f6c 644B     		ldr	r3, .L56+36
 2065 0f6e FB18     		add	r3, r7, r3
 2066 0f70 1A68     		ldr	r2, [r3]
 2067 0f72 131F     		sub	r3, r2, #4
 2068 0f74 6249     		ldr	r1, .L56+36
 2069 0f76 7918     		add	r1, r7, r1
 2070 0f78 0B60     		str	r3, [r1]
 2071 0f7a 1368     		ldr	r3, [r2]
 2072 0f7c 5D4A     		ldr	r2, .L56+24
 2073 0f7e BA18     		add	r2, r7, r2
 2074 0f80 1360     		str	r3, [r2]
 320:Source\FilteringFunctions/arm_conv_partial_fast_q31.c **** 
 321:Source\FilteringFunctions/arm_conv_partial_fast_q31.c ****           /* Read x[5] sample */
 322:Source\FilteringFunctions/arm_conv_partial_fast_q31.c ****           x1 = *(px++);
 2075              		.loc 1 322 0 discriminator 1
 2076 0f82 C023     		mov	r3, #192
 2077 0f84 DB00     		lsl	r3, r3, #3
 2078 0f86 FB18     		add	r3, r7, r3
 2079 0f88 1A68     		ldr	r2, [r3]
 2080 0f8a 131D     		add	r3, r2, #4
 2081 0f8c C021     		mov	r1, #192
 2082 0f8e C900     		lsl	r1, r1, #3
 2083 0f90 7918     		add	r1, r7, r1
 2084 0f92 0B60     		str	r3, [r1]
 2085 0f94 1368     		ldr	r3, [r2]
 2086 0f96 BB22     		mov	r2, #187
 2087 0f98 D200     		lsl	r2, r2, #3
 2088 0f9a BA18     		add	r2, r7, r2
 2089 0f9c 1360     		str	r3, [r2]
 323:Source\FilteringFunctions/arm_conv_partial_fast_q31.c **** 
 324:Source\FilteringFunctions/arm_conv_partial_fast_q31.c ****           /* Perform the multiply-accumulates */
 325:Source\FilteringFunctions/arm_conv_partial_fast_q31.c ****           /* acc0 +=  x[2] * y[srcBLen - 3] */
 326:Source\FilteringFunctions/arm_conv_partial_fast_q31.c ****           acc0 = (q31_t) ((((q63_t) acc0 << 32) + ((q63_t) x2 * c0)) >> 32);
 2090              		.loc 1 326 0 discriminator 1
 2091 0f9e 514B     		ldr	r3, .L56+8
 2092 0fa0 FB18     		add	r3, r7, r3
 2093 0fa2 1B68     		ldr	r3, [r3]
 2094 0fa4 E422     		mov	r2, #228
 2095 0fa6 9200     		lsl	r2, r2, #2
 2096 0fa8 BA18     		add	r2, r7, r2
 2097 0faa 1360     		str	r3, [r2]
 2098 0fac DB17     		asr	r3, r3, #31
 2099 0fae E522     		mov	r2, #229
 2100 0fb0 9200     		lsl	r2, r2, #2
 2101 0fb2 BA18     		add	r2, r7, r2
 2102 0fb4 1360     		str	r3, [r2]
 2103 0fb6 E423     		mov	r3, #228
 2104 0fb8 9B00     		lsl	r3, r3, #2
 2105 0fba FB18     		add	r3, r7, r3
 2106 0fbc 1B68     		ldr	r3, [r3]
 2107 0fbe 1B00     		lsl	r3, r3, #0
ARM GAS  C:\Users\fneves\AppData\Local\Temp\ccBJVvkW.s 			page 44


 2108 0fc0 E322     		mov	r2, #227
 2109 0fc2 9200     		lsl	r2, r2, #2
 2110 0fc4 BA18     		add	r2, r7, r2
 2111 0fc6 1360     		str	r3, [r2]
 2112 0fc8 0023     		mov	r3, #0
 2113 0fca E222     		mov	r2, #226
 2114 0fcc 9200     		lsl	r2, r2, #2
 2115 0fce BA18     		add	r2, r7, r2
 2116 0fd0 1360     		str	r3, [r2]
 2117 0fd2 474B     		ldr	r3, .L56+20
 2118 0fd4 FB18     		add	r3, r7, r3
 2119 0fd6 1B68     		ldr	r3, [r3]
 2120 0fd8 E022     		mov	r2, #224
 2121 0fda 9200     		lsl	r2, r2, #2
 2122 0fdc BA18     		add	r2, r7, r2
 2123 0fde 1360     		str	r3, [r2]
 2124 0fe0 DB17     		asr	r3, r3, #31
 2125 0fe2 E122     		mov	r2, #225
 2126 0fe4 9200     		lsl	r2, r2, #2
 2127 0fe6 BA18     		add	r2, r7, r2
 2128 0fe8 1360     		str	r3, [r2]
 2129 0fea 424B     		ldr	r3, .L56+24
 2130 0fec FB18     		add	r3, r7, r3
 2131 0fee 1B68     		ldr	r3, [r3]
 2132 0ff0 DE22     		mov	r2, #222
 2133 0ff2 9200     		lsl	r2, r2, #2
 2134 0ff4 BA18     		add	r2, r7, r2
 2135 0ff6 1360     		str	r3, [r2]
 2136 0ff8 DB17     		asr	r3, r3, #31
 2137 0ffa DF22     		mov	r2, #223
 2138 0ffc 9200     		lsl	r2, r2, #2
 2139 0ffe BA18     		add	r2, r7, r2
 2140 1000 1360     		str	r3, [r2]
 2141 1002 E023     		mov	r3, #224
 2142 1004 9B00     		lsl	r3, r3, #2
 2143 1006 FB18     		add	r3, r7, r3
 2144 1008 1868     		ldr	r0, [r3]
 2145 100a 5968     		ldr	r1, [r3, #4]
 2146 100c DE23     		mov	r3, #222
 2147 100e 9B00     		lsl	r3, r3, #2
 2148 1010 FB18     		add	r3, r7, r3
 2149 1012 1A68     		ldr	r2, [r3]
 2150 1014 5B68     		ldr	r3, [r3, #4]
 2151 1016 FFF7FEFF 		bl	__aeabi_lmul
 2152 101a 031C     		mov	r3, r0
 2153 101c 0C1C     		mov	r4, r1
 2154 101e E222     		mov	r2, #226
 2155 1020 9200     		lsl	r2, r2, #2
 2156 1022 BA18     		add	r2, r7, r2
 2157 1024 1168     		ldr	r1, [r2]
 2158 1026 5268     		ldr	r2, [r2, #4]
 2159 1028 5B18     		add	r3, r3, r1
 2160 102a 5441     		adc	r4, r4, r2
 2161 102c 2200     		asr	r2, r4, #0
 2162 102e DC21     		mov	r1, #220
 2163 1030 8900     		lsl	r1, r1, #2
 2164 1032 7918     		add	r1, r7, r1
ARM GAS  C:\Users\fneves\AppData\Local\Temp\ccBJVvkW.s 			page 45


 2165 1034 0A60     		str	r2, [r1]
 2166 1036 E317     		asr	r3, r4, #31
 2167 1038 DD22     		mov	r2, #221
 2168 103a 9200     		lsl	r2, r2, #2
 2169 103c BA18     		add	r2, r7, r2
 2170 103e 1360     		str	r3, [r2]
 2171 1040 DC23     		mov	r3, #220
 2172 1042 9B00     		lsl	r3, r3, #2
 2173 1044 FB18     		add	r3, r7, r3
 2174 1046 1B68     		ldr	r3, [r3]
 2175 1048 264A     		ldr	r2, .L56+8
 2176 104a BA18     		add	r2, r7, r2
 2177 104c 1360     		str	r3, [r2]
 327:Source\FilteringFunctions/arm_conv_partial_fast_q31.c ****           /* acc1 +=  x[3] * y[srcBLen - 2] */
 328:Source\FilteringFunctions/arm_conv_partial_fast_q31.c ****           acc1 = (q31_t) ((((q63_t) acc1 << 32) + ((q63_t) x3 * c0)) >> 32);
 2178              		.loc 1 328 0 discriminator 1
 2179 104e BD23     		mov	r3, #189
 2180 1050 DB00     		lsl	r3, r3, #3
 2181 1052 FB18     		add	r3, r7, r3
 2182 1054 1B68     		ldr	r3, [r3]
 2183 1056 DA22     		mov	r2, #218
 2184 1058 9200     		lsl	r2, r2, #2
 2185 105a BA18     		add	r2, r7, r2
 2186 105c 1360     		str	r3, [r2]
 2187 105e DB17     		asr	r3, r3, #31
 2188 1060 DB22     		mov	r2, #219
 2189 1062 9200     		lsl	r2, r2, #2
 2190 1064 BA18     		add	r2, r7, r2
 2191 1066 1360     		str	r3, [r2]
 2192 1068 DA23     		mov	r3, #218
 2193 106a 9B00     		lsl	r3, r3, #2
 2194 106c FB18     		add	r3, r7, r3
 2195 106e 1B68     		ldr	r3, [r3]
 2196 1070 1B00     		lsl	r3, r3, #0
 2197 1072 D922     		mov	r2, #217
 2198 1074 9200     		lsl	r2, r2, #2
 2199 1076 BA18     		add	r2, r7, r2
 2200 1078 1360     		str	r3, [r2]
 2201 107a 0023     		mov	r3, #0
 2202 107c D822     		mov	r2, #216
 2203 107e 9200     		lsl	r2, r2, #2
 2204 1080 BA18     		add	r2, r7, r2
 2205 1082 1360     		str	r3, [r2]
 2206 1084 B523     		mov	r3, #181
 2207 1086 DB00     		lsl	r3, r3, #3
 2208 1088 FB18     		add	r3, r7, r3
 2209 108a 1B68     		ldr	r3, [r3]
 2210 108c D622     		mov	r2, #214
 2211 108e 9200     		lsl	r2, r2, #2
 2212 1090 BA18     		add	r2, r7, r2
 2213 1092 1360     		str	r3, [r2]
 2214 1094 DB17     		asr	r3, r3, #31
 2215 1096 D722     		mov	r2, #215
 2216 1098 9200     		lsl	r2, r2, #2
 2217 109a BA18     		add	r2, r7, r2
 2218 109c 1360     		str	r3, [r2]
 2219 109e 154B     		ldr	r3, .L56+24
ARM GAS  C:\Users\fneves\AppData\Local\Temp\ccBJVvkW.s 			page 46


 2220 10a0 FB18     		add	r3, r7, r3
 2221 10a2 1B68     		ldr	r3, [r3]
 2222 10a4 D422     		mov	r2, #212
 2223 10a6 9200     		lsl	r2, r2, #2
 2224 10a8 BA18     		add	r2, r7, r2
 2225 10aa 1360     		str	r3, [r2]
 2226 10ac DB17     		asr	r3, r3, #31
 2227 10ae D522     		mov	r2, #213
 2228 10b0 9200     		lsl	r2, r2, #2
 2229 10b2 BA18     		add	r2, r7, r2
 2230 10b4 1360     		str	r3, [r2]
 2231 10b6 D623     		mov	r3, #214
 2232 10b8 9B00     		lsl	r3, r3, #2
 2233 10ba FB18     		add	r3, r7, r3
 2234 10bc 1868     		ldr	r0, [r3]
 2235 10be 5968     		ldr	r1, [r3, #4]
 2236 10c0 D423     		mov	r3, #212
 2237 10c2 9B00     		lsl	r3, r3, #2
 2238 10c4 FB18     		add	r3, r7, r3
 2239 10c6 1A68     		ldr	r2, [r3]
 2240 10c8 5B68     		ldr	r3, [r3, #4]
 2241 10ca FFF7FEFF 		bl	__aeabi_lmul
 2242 10ce 031C     		mov	r3, r0
 2243 10d0 0C1C     		mov	r4, r1
 2244 10d2 D822     		mov	r2, #216
 2245 10d4 9200     		lsl	r2, r2, #2
 2246 10d6 BA18     		add	r2, r7, r2
 2247 10d8 14E0     		b	.L57
 2248              	.L58:
 2249 10da C046     		.align	2
 2250              	.L56:
 2251 10dc 1C040000 		.word	1052
 2252 10e0 14040000 		.word	1044
 2253 10e4 EC050000 		.word	1516
 2254 10e8 0C040000 		.word	1036
 2255 10ec 04040000 		.word	1028
 2256 10f0 D4050000 		.word	1492
 2257 10f4 AC050000 		.word	1452
 2258 10f8 E4050000 		.word	1508
 2259 10fc DC050000 		.word	1500
 2260 1100 FC050000 		.word	1532
 2261              	.L57:
 2262 1104 1168     		ldr	r1, [r2]
 2263 1106 5268     		ldr	r2, [r2, #4]
 2264 1108 5B18     		add	r3, r3, r1
 2265 110a 5441     		adc	r4, r4, r2
 2266 110c 2200     		asr	r2, r4, #0
 2267 110e D221     		mov	r1, #210
 2268 1110 8900     		lsl	r1, r1, #2
 2269 1112 7918     		add	r1, r7, r1
 2270 1114 0A60     		str	r2, [r1]
 2271 1116 E317     		asr	r3, r4, #31
 2272 1118 D322     		mov	r2, #211
 2273 111a 9200     		lsl	r2, r2, #2
 2274 111c BA18     		add	r2, r7, r2
 2275 111e 1360     		str	r3, [r2]
 2276 1120 D223     		mov	r3, #210
ARM GAS  C:\Users\fneves\AppData\Local\Temp\ccBJVvkW.s 			page 47


 2277 1122 9B00     		lsl	r3, r3, #2
 2278 1124 FB18     		add	r3, r7, r3
 2279 1126 1B68     		ldr	r3, [r3]
 2280 1128 BD22     		mov	r2, #189
 2281 112a D200     		lsl	r2, r2, #3
 2282 112c BA18     		add	r2, r7, r2
 2283 112e 1360     		str	r3, [r2]
 329:Source\FilteringFunctions/arm_conv_partial_fast_q31.c ****           /* acc2 +=  x[4] * y[srcBLen - 2] */
 330:Source\FilteringFunctions/arm_conv_partial_fast_q31.c ****           acc2 = (q31_t) ((((q63_t) acc2 << 32) + ((q63_t) x0 * c0)) >> 32);
 2284              		.loc 1 330 0 discriminator 1
 2285 1130 F64B     		ldr	r3, .L59
 2286 1132 FB18     		add	r3, r7, r3
 2287 1134 1B68     		ldr	r3, [r3]
 2288 1136 D022     		mov	r2, #208
 2289 1138 9200     		lsl	r2, r2, #2
 2290 113a BA18     		add	r2, r7, r2
 2291 113c 1360     		str	r3, [r2]
 2292 113e DB17     		asr	r3, r3, #31
 2293 1140 D122     		mov	r2, #209
 2294 1142 9200     		lsl	r2, r2, #2
 2295 1144 BA18     		add	r2, r7, r2
 2296 1146 1360     		str	r3, [r2]
 2297 1148 D023     		mov	r3, #208
 2298 114a 9B00     		lsl	r3, r3, #2
 2299 114c FB18     		add	r3, r7, r3
 2300 114e 1B68     		ldr	r3, [r3]
 2301 1150 1B00     		lsl	r3, r3, #0
 2302 1152 CF22     		mov	r2, #207
 2303 1154 9200     		lsl	r2, r2, #2
 2304 1156 BA18     		add	r2, r7, r2
 2305 1158 1360     		str	r3, [r2]
 2306 115a 0023     		mov	r3, #0
 2307 115c CE22     		mov	r2, #206
 2308 115e 9200     		lsl	r2, r2, #2
 2309 1160 BA18     		add	r2, r7, r2
 2310 1162 1360     		str	r3, [r2]
 2311 1164 EA4B     		ldr	r3, .L59+4
 2312 1166 FB18     		add	r3, r7, r3
 2313 1168 1B68     		ldr	r3, [r3]
 2314 116a CC22     		mov	r2, #204
 2315 116c 9200     		lsl	r2, r2, #2
 2316 116e BA18     		add	r2, r7, r2
 2317 1170 1360     		str	r3, [r2]
 2318 1172 DB17     		asr	r3, r3, #31
 2319 1174 CD22     		mov	r2, #205
 2320 1176 9200     		lsl	r2, r2, #2
 2321 1178 BA18     		add	r2, r7, r2
 2322 117a 1360     		str	r3, [r2]
 2323 117c E54B     		ldr	r3, .L59+8
 2324 117e FB18     		add	r3, r7, r3
 2325 1180 1B68     		ldr	r3, [r3]
 2326 1182 CA22     		mov	r2, #202
 2327 1184 9200     		lsl	r2, r2, #2
 2328 1186 BA18     		add	r2, r7, r2
 2329 1188 1360     		str	r3, [r2]
 2330 118a DB17     		asr	r3, r3, #31
 2331 118c CB22     		mov	r2, #203
ARM GAS  C:\Users\fneves\AppData\Local\Temp\ccBJVvkW.s 			page 48


 2332 118e 9200     		lsl	r2, r2, #2
 2333 1190 BA18     		add	r2, r7, r2
 2334 1192 1360     		str	r3, [r2]
 2335 1194 CC23     		mov	r3, #204
 2336 1196 9B00     		lsl	r3, r3, #2
 2337 1198 FB18     		add	r3, r7, r3
 2338 119a 1868     		ldr	r0, [r3]
 2339 119c 5968     		ldr	r1, [r3, #4]
 2340 119e CA23     		mov	r3, #202
 2341 11a0 9B00     		lsl	r3, r3, #2
 2342 11a2 FB18     		add	r3, r7, r3
 2343 11a4 1A68     		ldr	r2, [r3]
 2344 11a6 5B68     		ldr	r3, [r3, #4]
 2345 11a8 FFF7FEFF 		bl	__aeabi_lmul
 2346 11ac 031C     		mov	r3, r0
 2347 11ae 0C1C     		mov	r4, r1
 2348 11b0 CE22     		mov	r2, #206
 2349 11b2 9200     		lsl	r2, r2, #2
 2350 11b4 BA18     		add	r2, r7, r2
 2351 11b6 1168     		ldr	r1, [r2]
 2352 11b8 5268     		ldr	r2, [r2, #4]
 2353 11ba 5B18     		add	r3, r3, r1
 2354 11bc 5441     		adc	r4, r4, r2
 2355 11be 2200     		asr	r2, r4, #0
 2356 11c0 C821     		mov	r1, #200
 2357 11c2 8900     		lsl	r1, r1, #2
 2358 11c4 7918     		add	r1, r7, r1
 2359 11c6 0A60     		str	r2, [r1]
 2360 11c8 E317     		asr	r3, r4, #31
 2361 11ca C922     		mov	r2, #201
 2362 11cc 9200     		lsl	r2, r2, #2
 2363 11ce BA18     		add	r2, r7, r2
 2364 11d0 1360     		str	r3, [r2]
 2365 11d2 C823     		mov	r3, #200
 2366 11d4 9B00     		lsl	r3, r3, #2
 2367 11d6 FB18     		add	r3, r7, r3
 2368 11d8 1B68     		ldr	r3, [r3]
 2369 11da CC4A     		ldr	r2, .L59
 2370 11dc BA18     		add	r2, r7, r2
 2371 11de 1360     		str	r3, [r2]
 331:Source\FilteringFunctions/arm_conv_partial_fast_q31.c ****           /* acc3 +=  x[5] * y[srcBLen - 2] */
 332:Source\FilteringFunctions/arm_conv_partial_fast_q31.c ****           acc3 = (q31_t) ((((q63_t) acc3 << 32) + ((q63_t) x1 * c0)) >> 32);
 2372              		.loc 1 332 0 discriminator 1
 2373 11e0 BC23     		mov	r3, #188
 2374 11e2 DB00     		lsl	r3, r3, #3
 2375 11e4 FB18     		add	r3, r7, r3
 2376 11e6 1B68     		ldr	r3, [r3]
 2377 11e8 C622     		mov	r2, #198
 2378 11ea 9200     		lsl	r2, r2, #2
 2379 11ec BA18     		add	r2, r7, r2
 2380 11ee 1360     		str	r3, [r2]
 2381 11f0 DB17     		asr	r3, r3, #31
 2382 11f2 C722     		mov	r2, #199
 2383 11f4 9200     		lsl	r2, r2, #2
 2384 11f6 BA18     		add	r2, r7, r2
 2385 11f8 1360     		str	r3, [r2]
 2386 11fa C623     		mov	r3, #198
ARM GAS  C:\Users\fneves\AppData\Local\Temp\ccBJVvkW.s 			page 49


 2387 11fc 9B00     		lsl	r3, r3, #2
 2388 11fe FB18     		add	r3, r7, r3
 2389 1200 1B68     		ldr	r3, [r3]
 2390 1202 1B00     		lsl	r3, r3, #0
 2391 1204 C522     		mov	r2, #197
 2392 1206 9200     		lsl	r2, r2, #2
 2393 1208 BA18     		add	r2, r7, r2
 2394 120a 1360     		str	r3, [r2]
 2395 120c 0023     		mov	r3, #0
 2396 120e C422     		mov	r2, #196
 2397 1210 9200     		lsl	r2, r2, #2
 2398 1212 BA18     		add	r2, r7, r2
 2399 1214 1360     		str	r3, [r2]
 2400 1216 BB23     		mov	r3, #187
 2401 1218 DB00     		lsl	r3, r3, #3
 2402 121a FB18     		add	r3, r7, r3
 2403 121c 1B68     		ldr	r3, [r3]
 2404 121e C222     		mov	r2, #194
 2405 1220 9200     		lsl	r2, r2, #2
 2406 1222 BA18     		add	r2, r7, r2
 2407 1224 1360     		str	r3, [r2]
 2408 1226 DB17     		asr	r3, r3, #31
 2409 1228 C322     		mov	r2, #195
 2410 122a 9200     		lsl	r2, r2, #2
 2411 122c BA18     		add	r2, r7, r2
 2412 122e 1360     		str	r3, [r2]
 2413 1230 B84B     		ldr	r3, .L59+8
 2414 1232 FB18     		add	r3, r7, r3
 2415 1234 1B68     		ldr	r3, [r3]
 2416 1236 C022     		mov	r2, #192
 2417 1238 9200     		lsl	r2, r2, #2
 2418 123a BA18     		add	r2, r7, r2
 2419 123c 1360     		str	r3, [r2]
 2420 123e DB17     		asr	r3, r3, #31
 2421 1240 C122     		mov	r2, #193
 2422 1242 9200     		lsl	r2, r2, #2
 2423 1244 BA18     		add	r2, r7, r2
 2424 1246 1360     		str	r3, [r2]
 2425 1248 C223     		mov	r3, #194
 2426 124a 9B00     		lsl	r3, r3, #2
 2427 124c FB18     		add	r3, r7, r3
 2428 124e 1868     		ldr	r0, [r3]
 2429 1250 5968     		ldr	r1, [r3, #4]
 2430 1252 C023     		mov	r3, #192
 2431 1254 9B00     		lsl	r3, r3, #2
 2432 1256 FB18     		add	r3, r7, r3
 2433 1258 1A68     		ldr	r2, [r3]
 2434 125a 5B68     		ldr	r3, [r3, #4]
 2435 125c FFF7FEFF 		bl	__aeabi_lmul
 2436 1260 031C     		mov	r3, r0
 2437 1262 0C1C     		mov	r4, r1
 2438 1264 C422     		mov	r2, #196
 2439 1266 9200     		lsl	r2, r2, #2
 2440 1268 BA18     		add	r2, r7, r2
 2441 126a 1168     		ldr	r1, [r2]
 2442 126c 5268     		ldr	r2, [r2, #4]
 2443 126e 5B18     		add	r3, r3, r1
ARM GAS  C:\Users\fneves\AppData\Local\Temp\ccBJVvkW.s 			page 50


 2444 1270 5441     		adc	r4, r4, r2
 2445 1272 2200     		asr	r2, r4, #0
 2446 1274 BE21     		mov	r1, #190
 2447 1276 8900     		lsl	r1, r1, #2
 2448 1278 7918     		add	r1, r7, r1
 2449 127a 0A60     		str	r2, [r1]
 2450 127c E317     		asr	r3, r4, #31
 2451 127e BF22     		mov	r2, #191
 2452 1280 9200     		lsl	r2, r2, #2
 2453 1282 BA18     		add	r2, r7, r2
 2454 1284 1360     		str	r3, [r2]
 2455 1286 BE23     		mov	r3, #190
 2456 1288 9B00     		lsl	r3, r3, #2
 2457 128a FB18     		add	r3, r7, r3
 2458 128c 1B68     		ldr	r3, [r3]
 2459 128e BC22     		mov	r2, #188
 2460 1290 D200     		lsl	r2, r2, #3
 2461 1292 BA18     		add	r2, r7, r2
 2462 1294 1360     		str	r3, [r2]
 333:Source\FilteringFunctions/arm_conv_partial_fast_q31.c **** 
 334:Source\FilteringFunctions/arm_conv_partial_fast_q31.c ****           /* Read y[srcBLen - 4] sample */
 335:Source\FilteringFunctions/arm_conv_partial_fast_q31.c ****           c0 = *(py--);
 2463              		.loc 1 335 0 discriminator 1
 2464 1296 A04B     		ldr	r3, .L59+12
 2465 1298 FB18     		add	r3, r7, r3
 2466 129a 1A68     		ldr	r2, [r3]
 2467 129c 131F     		sub	r3, r2, #4
 2468 129e 9E49     		ldr	r1, .L59+12
 2469 12a0 7918     		add	r1, r7, r1
 2470 12a2 0B60     		str	r3, [r1]
 2471 12a4 1368     		ldr	r3, [r2]
 2472 12a6 9B4A     		ldr	r2, .L59+8
 2473 12a8 BA18     		add	r2, r7, r2
 2474 12aa 1360     		str	r3, [r2]
 336:Source\FilteringFunctions/arm_conv_partial_fast_q31.c **** 
 337:Source\FilteringFunctions/arm_conv_partial_fast_q31.c ****           /* Read x[6] sample */
 338:Source\FilteringFunctions/arm_conv_partial_fast_q31.c ****           x2 = *(px++);
 2475              		.loc 1 338 0 discriminator 1
 2476 12ac C023     		mov	r3, #192
 2477 12ae DB00     		lsl	r3, r3, #3
 2478 12b0 FB18     		add	r3, r7, r3
 2479 12b2 1A68     		ldr	r2, [r3]
 2480 12b4 131D     		add	r3, r2, #4
 2481 12b6 C021     		mov	r1, #192
 2482 12b8 C900     		lsl	r1, r1, #3
 2483 12ba 7918     		add	r1, r7, r1
 2484 12bc 0B60     		str	r3, [r1]
 2485 12be 1368     		ldr	r3, [r2]
 2486 12c0 964A     		ldr	r2, .L59+16
 2487 12c2 BA18     		add	r2, r7, r2
 2488 12c4 1360     		str	r3, [r2]
 339:Source\FilteringFunctions/arm_conv_partial_fast_q31.c **** 
 340:Source\FilteringFunctions/arm_conv_partial_fast_q31.c ****           /* Perform the multiply-accumulates */
 341:Source\FilteringFunctions/arm_conv_partial_fast_q31.c ****           /* acc0 +=  x[3] * y[srcBLen - 4] */
 342:Source\FilteringFunctions/arm_conv_partial_fast_q31.c ****           acc0 = (q31_t) ((((q63_t) acc0 << 32) + ((q63_t) x3 * c0)) >> 32);
 2489              		.loc 1 342 0 discriminator 1
 2490 12c6 964B     		ldr	r3, .L59+20
ARM GAS  C:\Users\fneves\AppData\Local\Temp\ccBJVvkW.s 			page 51


 2491 12c8 FB18     		add	r3, r7, r3
 2492 12ca 1B68     		ldr	r3, [r3]
 2493 12cc BC22     		mov	r2, #188
 2494 12ce 9200     		lsl	r2, r2, #2
 2495 12d0 BA18     		add	r2, r7, r2
 2496 12d2 1360     		str	r3, [r2]
 2497 12d4 DB17     		asr	r3, r3, #31
 2498 12d6 BD22     		mov	r2, #189
 2499 12d8 9200     		lsl	r2, r2, #2
 2500 12da BA18     		add	r2, r7, r2
 2501 12dc 1360     		str	r3, [r2]
 2502 12de BC23     		mov	r3, #188
 2503 12e0 9B00     		lsl	r3, r3, #2
 2504 12e2 FB18     		add	r3, r7, r3
 2505 12e4 1B68     		ldr	r3, [r3]
 2506 12e6 1B00     		lsl	r3, r3, #0
 2507 12e8 BB22     		mov	r2, #187
 2508 12ea 9200     		lsl	r2, r2, #2
 2509 12ec BA18     		add	r2, r7, r2
 2510 12ee 1360     		str	r3, [r2]
 2511 12f0 0023     		mov	r3, #0
 2512 12f2 BA22     		mov	r2, #186
 2513 12f4 9200     		lsl	r2, r2, #2
 2514 12f6 BA18     		add	r2, r7, r2
 2515 12f8 1360     		str	r3, [r2]
 2516 12fa B523     		mov	r3, #181
 2517 12fc DB00     		lsl	r3, r3, #3
 2518 12fe FB18     		add	r3, r7, r3
 2519 1300 1B68     		ldr	r3, [r3]
 2520 1302 B822     		mov	r2, #184
 2521 1304 9200     		lsl	r2, r2, #2
 2522 1306 BA18     		add	r2, r7, r2
 2523 1308 1360     		str	r3, [r2]
 2524 130a DB17     		asr	r3, r3, #31
 2525 130c B922     		mov	r2, #185
 2526 130e 9200     		lsl	r2, r2, #2
 2527 1310 BA18     		add	r2, r7, r2
 2528 1312 1360     		str	r3, [r2]
 2529 1314 7F4B     		ldr	r3, .L59+8
 2530 1316 FB18     		add	r3, r7, r3
 2531 1318 1B68     		ldr	r3, [r3]
 2532 131a B622     		mov	r2, #182
 2533 131c 9200     		lsl	r2, r2, #2
 2534 131e BA18     		add	r2, r7, r2
 2535 1320 1360     		str	r3, [r2]
 2536 1322 DB17     		asr	r3, r3, #31
 2537 1324 B722     		mov	r2, #183
 2538 1326 9200     		lsl	r2, r2, #2
 2539 1328 BA18     		add	r2, r7, r2
 2540 132a 1360     		str	r3, [r2]
 2541 132c B823     		mov	r3, #184
 2542 132e 9B00     		lsl	r3, r3, #2
 2543 1330 FB18     		add	r3, r7, r3
 2544 1332 1868     		ldr	r0, [r3]
 2545 1334 5968     		ldr	r1, [r3, #4]
 2546 1336 B623     		mov	r3, #182
 2547 1338 9B00     		lsl	r3, r3, #2
ARM GAS  C:\Users\fneves\AppData\Local\Temp\ccBJVvkW.s 			page 52


 2548 133a FB18     		add	r3, r7, r3
 2549 133c 1A68     		ldr	r2, [r3]
 2550 133e 5B68     		ldr	r3, [r3, #4]
 2551 1340 FFF7FEFF 		bl	__aeabi_lmul
 2552 1344 031C     		mov	r3, r0
 2553 1346 0C1C     		mov	r4, r1
 2554 1348 BA22     		mov	r2, #186
 2555 134a 9200     		lsl	r2, r2, #2
 2556 134c BA18     		add	r2, r7, r2
 2557 134e 1168     		ldr	r1, [r2]
 2558 1350 5268     		ldr	r2, [r2, #4]
 2559 1352 5B18     		add	r3, r3, r1
 2560 1354 5441     		adc	r4, r4, r2
 2561 1356 2200     		asr	r2, r4, #0
 2562 1358 B421     		mov	r1, #180
 2563 135a 8900     		lsl	r1, r1, #2
 2564 135c 7918     		add	r1, r7, r1
 2565 135e 0A60     		str	r2, [r1]
 2566 1360 E317     		asr	r3, r4, #31
 2567 1362 B522     		mov	r2, #181
 2568 1364 9200     		lsl	r2, r2, #2
 2569 1366 BA18     		add	r2, r7, r2
 2570 1368 1360     		str	r3, [r2]
 2571 136a B423     		mov	r3, #180
 2572 136c 9B00     		lsl	r3, r3, #2
 2573 136e FB18     		add	r3, r7, r3
 2574 1370 1B68     		ldr	r3, [r3]
 2575 1372 6B4A     		ldr	r2, .L59+20
 2576 1374 BA18     		add	r2, r7, r2
 2577 1376 1360     		str	r3, [r2]
 343:Source\FilteringFunctions/arm_conv_partial_fast_q31.c ****           /* acc1 +=  x[4] * y[srcBLen - 4] */
 344:Source\FilteringFunctions/arm_conv_partial_fast_q31.c ****           acc1 = (q31_t) ((((q63_t) acc1 << 32) + ((q63_t) x0 * c0)) >> 32);
 2578              		.loc 1 344 0 discriminator 1
 2579 1378 BD23     		mov	r3, #189
 2580 137a DB00     		lsl	r3, r3, #3
 2581 137c FB18     		add	r3, r7, r3
 2582 137e 1B68     		ldr	r3, [r3]
 2583 1380 B222     		mov	r2, #178
 2584 1382 9200     		lsl	r2, r2, #2
 2585 1384 BA18     		add	r2, r7, r2
 2586 1386 1360     		str	r3, [r2]
 2587 1388 DB17     		asr	r3, r3, #31
 2588 138a B322     		mov	r2, #179
 2589 138c 9200     		lsl	r2, r2, #2
 2590 138e BA18     		add	r2, r7, r2
 2591 1390 1360     		str	r3, [r2]
 2592 1392 B223     		mov	r3, #178
 2593 1394 9B00     		lsl	r3, r3, #2
 2594 1396 FB18     		add	r3, r7, r3
 2595 1398 1B68     		ldr	r3, [r3]
 2596 139a 1B00     		lsl	r3, r3, #0
 2597 139c B122     		mov	r2, #177
 2598 139e 9200     		lsl	r2, r2, #2
 2599 13a0 BA18     		add	r2, r7, r2
 2600 13a2 1360     		str	r3, [r2]
 2601 13a4 0023     		mov	r3, #0
 2602 13a6 B022     		mov	r2, #176
ARM GAS  C:\Users\fneves\AppData\Local\Temp\ccBJVvkW.s 			page 53


 2603 13a8 9200     		lsl	r2, r2, #2
 2604 13aa BA18     		add	r2, r7, r2
 2605 13ac 1360     		str	r3, [r2]
 2606 13ae 584B     		ldr	r3, .L59+4
 2607 13b0 FB18     		add	r3, r7, r3
 2608 13b2 1B68     		ldr	r3, [r3]
 2609 13b4 AE22     		mov	r2, #174
 2610 13b6 9200     		lsl	r2, r2, #2
 2611 13b8 BA18     		add	r2, r7, r2
 2612 13ba 1360     		str	r3, [r2]
 2613 13bc DB17     		asr	r3, r3, #31
 2614 13be AF22     		mov	r2, #175
 2615 13c0 9200     		lsl	r2, r2, #2
 2616 13c2 BA18     		add	r2, r7, r2
 2617 13c4 1360     		str	r3, [r2]
 2618 13c6 534B     		ldr	r3, .L59+8
 2619 13c8 FB18     		add	r3, r7, r3
 2620 13ca 1B68     		ldr	r3, [r3]
 2621 13cc AC22     		mov	r2, #172
 2622 13ce 9200     		lsl	r2, r2, #2
 2623 13d0 BA18     		add	r2, r7, r2
 2624 13d2 1360     		str	r3, [r2]
 2625 13d4 DB17     		asr	r3, r3, #31
 2626 13d6 AD22     		mov	r2, #173
 2627 13d8 9200     		lsl	r2, r2, #2
 2628 13da BA18     		add	r2, r7, r2
 2629 13dc 1360     		str	r3, [r2]
 2630 13de AE23     		mov	r3, #174
 2631 13e0 9B00     		lsl	r3, r3, #2
 2632 13e2 FB18     		add	r3, r7, r3
 2633 13e4 1868     		ldr	r0, [r3]
 2634 13e6 5968     		ldr	r1, [r3, #4]
 2635 13e8 AC23     		mov	r3, #172
 2636 13ea 9B00     		lsl	r3, r3, #2
 2637 13ec FB18     		add	r3, r7, r3
 2638 13ee 1A68     		ldr	r2, [r3]
 2639 13f0 5B68     		ldr	r3, [r3, #4]
 2640 13f2 FFF7FEFF 		bl	__aeabi_lmul
 2641 13f6 031C     		mov	r3, r0
 2642 13f8 0C1C     		mov	r4, r1
 2643 13fa B022     		mov	r2, #176
 2644 13fc 9200     		lsl	r2, r2, #2
 2645 13fe BA18     		add	r2, r7, r2
 2646 1400 1168     		ldr	r1, [r2]
 2647 1402 5268     		ldr	r2, [r2, #4]
 2648 1404 5B18     		add	r3, r3, r1
 2649 1406 5441     		adc	r4, r4, r2
 2650 1408 2200     		asr	r2, r4, #0
 2651 140a AA21     		mov	r1, #170
 2652 140c 8900     		lsl	r1, r1, #2
 2653 140e 7918     		add	r1, r7, r1
 2654 1410 0A60     		str	r2, [r1]
 2655 1412 E317     		asr	r3, r4, #31
 2656 1414 AB22     		mov	r2, #171
 2657 1416 9200     		lsl	r2, r2, #2
 2658 1418 BA18     		add	r2, r7, r2
 2659 141a 1360     		str	r3, [r2]
ARM GAS  C:\Users\fneves\AppData\Local\Temp\ccBJVvkW.s 			page 54


 2660 141c AA23     		mov	r3, #170
 2661 141e 9B00     		lsl	r3, r3, #2
 2662 1420 FB18     		add	r3, r7, r3
 2663 1422 1B68     		ldr	r3, [r3]
 2664 1424 BD22     		mov	r2, #189
 2665 1426 D200     		lsl	r2, r2, #3
 2666 1428 BA18     		add	r2, r7, r2
 2667 142a 1360     		str	r3, [r2]
 345:Source\FilteringFunctions/arm_conv_partial_fast_q31.c ****           /* acc2 +=  x[5] * y[srcBLen - 4] */
 346:Source\FilteringFunctions/arm_conv_partial_fast_q31.c ****           acc2 = (q31_t) ((((q63_t) acc2 << 32) + ((q63_t) x1 * c0)) >> 32);
 2668              		.loc 1 346 0 discriminator 1
 2669 142c 374B     		ldr	r3, .L59
 2670 142e FB18     		add	r3, r7, r3
 2671 1430 1B68     		ldr	r3, [r3]
 2672 1432 A822     		mov	r2, #168
 2673 1434 9200     		lsl	r2, r2, #2
 2674 1436 BA18     		add	r2, r7, r2
 2675 1438 1360     		str	r3, [r2]
 2676 143a DB17     		asr	r3, r3, #31
 2677 143c A922     		mov	r2, #169
 2678 143e 9200     		lsl	r2, r2, #2
 2679 1440 BA18     		add	r2, r7, r2
 2680 1442 1360     		str	r3, [r2]
 2681 1444 A823     		mov	r3, #168
 2682 1446 9B00     		lsl	r3, r3, #2
 2683 1448 FB18     		add	r3, r7, r3
 2684 144a 1B68     		ldr	r3, [r3]
 2685 144c 1B00     		lsl	r3, r3, #0
 2686 144e A722     		mov	r2, #167
 2687 1450 9200     		lsl	r2, r2, #2
 2688 1452 BA18     		add	r2, r7, r2
 2689 1454 1360     		str	r3, [r2]
 2690 1456 0023     		mov	r3, #0
 2691 1458 A622     		mov	r2, #166
 2692 145a 9200     		lsl	r2, r2, #2
 2693 145c BA18     		add	r2, r7, r2
 2694 145e 1360     		str	r3, [r2]
 2695 1460 BB23     		mov	r3, #187
 2696 1462 DB00     		lsl	r3, r3, #3
 2697 1464 FB18     		add	r3, r7, r3
 2698 1466 1B68     		ldr	r3, [r3]
 2699 1468 A422     		mov	r2, #164
 2700 146a 9200     		lsl	r2, r2, #2
 2701 146c BA18     		add	r2, r7, r2
 2702 146e 1360     		str	r3, [r2]
 2703 1470 DB17     		asr	r3, r3, #31
 2704 1472 A522     		mov	r2, #165
 2705 1474 9200     		lsl	r2, r2, #2
 2706 1476 BA18     		add	r2, r7, r2
 2707 1478 1360     		str	r3, [r2]
 2708 147a 264B     		ldr	r3, .L59+8
 2709 147c FB18     		add	r3, r7, r3
 2710 147e 1B68     		ldr	r3, [r3]
 2711 1480 A222     		mov	r2, #162
 2712 1482 9200     		lsl	r2, r2, #2
 2713 1484 BA18     		add	r2, r7, r2
 2714 1486 1360     		str	r3, [r2]
ARM GAS  C:\Users\fneves\AppData\Local\Temp\ccBJVvkW.s 			page 55


 2715 1488 DB17     		asr	r3, r3, #31
 2716 148a A322     		mov	r2, #163
 2717 148c 9200     		lsl	r2, r2, #2
 2718 148e BA18     		add	r2, r7, r2
 2719 1490 1360     		str	r3, [r2]
 2720 1492 A423     		mov	r3, #164
 2721 1494 9B00     		lsl	r3, r3, #2
 2722 1496 FB18     		add	r3, r7, r3
 2723 1498 1868     		ldr	r0, [r3]
 2724 149a 5968     		ldr	r1, [r3, #4]
 2725 149c A223     		mov	r3, #162
 2726 149e 9B00     		lsl	r3, r3, #2
 2727 14a0 FB18     		add	r3, r7, r3
 2728 14a2 1A68     		ldr	r2, [r3]
 2729 14a4 5B68     		ldr	r3, [r3, #4]
 2730 14a6 FFF7FEFF 		bl	__aeabi_lmul
 2731 14aa 031C     		mov	r3, r0
 2732 14ac 0C1C     		mov	r4, r1
 2733 14ae A622     		mov	r2, #166
 2734 14b0 9200     		lsl	r2, r2, #2
 2735 14b2 BA18     		add	r2, r7, r2
 2736 14b4 1168     		ldr	r1, [r2]
 2737 14b6 5268     		ldr	r2, [r2, #4]
 2738 14b8 5B18     		add	r3, r3, r1
 2739 14ba 5441     		adc	r4, r4, r2
 2740 14bc 2200     		asr	r2, r4, #0
 2741 14be A021     		mov	r1, #160
 2742 14c0 8900     		lsl	r1, r1, #2
 2743 14c2 7918     		add	r1, r7, r1
 2744 14c4 0A60     		str	r2, [r1]
 2745 14c6 E317     		asr	r3, r4, #31
 2746 14c8 A122     		mov	r2, #161
 2747 14ca 9200     		lsl	r2, r2, #2
 2748 14cc BA18     		add	r2, r7, r2
 2749 14ce 1360     		str	r3, [r2]
 2750 14d0 A023     		mov	r3, #160
 2751 14d2 9B00     		lsl	r3, r3, #2
 2752 14d4 FB18     		add	r3, r7, r3
 2753 14d6 1B68     		ldr	r3, [r3]
 2754 14d8 0C4A     		ldr	r2, .L59
 2755 14da BA18     		add	r2, r7, r2
 2756 14dc 1360     		str	r3, [r2]
 347:Source\FilteringFunctions/arm_conv_partial_fast_q31.c ****           /* acc3 +=  x[6] * y[srcBLen - 4] */
 348:Source\FilteringFunctions/arm_conv_partial_fast_q31.c ****           acc3 = (q31_t) ((((q63_t) acc3 << 32) + ((q63_t) x2 * c0)) >> 32);
 2757              		.loc 1 348 0 discriminator 1
 2758 14de BC23     		mov	r3, #188
 2759 14e0 DB00     		lsl	r3, r3, #3
 2760 14e2 FB18     		add	r3, r7, r3
 2761 14e4 1B68     		ldr	r3, [r3]
 2762 14e6 9E22     		mov	r2, #158
 2763 14e8 9200     		lsl	r2, r2, #2
 2764 14ea BA18     		add	r2, r7, r2
 2765 14ec 1360     		str	r3, [r2]
 2766 14ee DB17     		asr	r3, r3, #31
 2767 14f0 9F22     		mov	r2, #159
 2768 14f2 9200     		lsl	r2, r2, #2
 2769 14f4 BA18     		add	r2, r7, r2
ARM GAS  C:\Users\fneves\AppData\Local\Temp\ccBJVvkW.s 			page 56


 2770 14f6 1360     		str	r3, [r2]
 2771 14f8 9E23     		mov	r3, #158
 2772 14fa 9B00     		lsl	r3, r3, #2
 2773 14fc FB18     		add	r3, r7, r3
 2774 14fe 1B68     		ldr	r3, [r3]
 2775 1500 1B00     		lsl	r3, r3, #0
 2776 1502 9D22     		mov	r2, #157
 2777 1504 9200     		lsl	r2, r2, #2
 2778 1506 BA18     		add	r2, r7, r2
 2779 1508 1360     		str	r3, [r2]
 2780 150a 0BE0     		b	.L60
 2781              	.L61:
 2782              		.align	2
 2783              	.L59:
 2784 150c E4050000 		.word	1508
 2785 1510 DC050000 		.word	1500
 2786 1514 AC050000 		.word	1452
 2787 1518 FC050000 		.word	1532
 2788 151c D4050000 		.word	1492
 2789 1520 EC050000 		.word	1516
 2790              	.L60:
 2791 1524 0023     		mov	r3, #0
 2792 1526 9C22     		mov	r2, #156
 2793 1528 9200     		lsl	r2, r2, #2
 2794 152a BA18     		add	r2, r7, r2
 2795 152c 1360     		str	r3, [r2]
 2796 152e 2D4B     		ldr	r3, .L62
 2797 1530 FB18     		add	r3, r7, r3
 2798 1532 1B68     		ldr	r3, [r3]
 2799 1534 9A22     		mov	r2, #154
 2800 1536 9200     		lsl	r2, r2, #2
 2801 1538 BA18     		add	r2, r7, r2
 2802 153a 1360     		str	r3, [r2]
 2803 153c DB17     		asr	r3, r3, #31
 2804 153e 9B22     		mov	r2, #155
 2805 1540 9200     		lsl	r2, r2, #2
 2806 1542 BA18     		add	r2, r7, r2
 2807 1544 1360     		str	r3, [r2]
 2808 1546 284B     		ldr	r3, .L62+4
 2809 1548 FB18     		add	r3, r7, r3
 2810 154a 1B68     		ldr	r3, [r3]
 2811 154c 9822     		mov	r2, #152
 2812 154e 9200     		lsl	r2, r2, #2
 2813 1550 BA18     		add	r2, r7, r2
 2814 1552 1360     		str	r3, [r2]
 2815 1554 DB17     		asr	r3, r3, #31
 2816 1556 9922     		mov	r2, #153
 2817 1558 9200     		lsl	r2, r2, #2
 2818 155a BA18     		add	r2, r7, r2
 2819 155c 1360     		str	r3, [r2]
 2820 155e 9A23     		mov	r3, #154
 2821 1560 9B00     		lsl	r3, r3, #2
 2822 1562 FB18     		add	r3, r7, r3
 2823 1564 1868     		ldr	r0, [r3]
 2824 1566 5968     		ldr	r1, [r3, #4]
 2825 1568 9823     		mov	r3, #152
 2826 156a 9B00     		lsl	r3, r3, #2
ARM GAS  C:\Users\fneves\AppData\Local\Temp\ccBJVvkW.s 			page 57


 2827 156c FB18     		add	r3, r7, r3
 2828 156e 1A68     		ldr	r2, [r3]
 2829 1570 5B68     		ldr	r3, [r3, #4]
 2830 1572 FFF7FEFF 		bl	__aeabi_lmul
 2831 1576 031C     		mov	r3, r0
 2832 1578 0C1C     		mov	r4, r1
 2833 157a 9C22     		mov	r2, #156
 2834 157c 9200     		lsl	r2, r2, #2
 2835 157e BA18     		add	r2, r7, r2
 2836 1580 1168     		ldr	r1, [r2]
 2837 1582 5268     		ldr	r2, [r2, #4]
 2838 1584 5B18     		add	r3, r3, r1
 2839 1586 5441     		adc	r4, r4, r2
 2840 1588 2200     		asr	r2, r4, #0
 2841 158a 9621     		mov	r1, #150
 2842 158c 8900     		lsl	r1, r1, #2
 2843 158e 7918     		add	r1, r7, r1
 2844 1590 0A60     		str	r2, [r1]
 2845 1592 E317     		asr	r3, r4, #31
 2846 1594 9722     		mov	r2, #151
 2847 1596 9200     		lsl	r2, r2, #2
 2848 1598 BA18     		add	r2, r7, r2
 2849 159a 1360     		str	r3, [r2]
 2850 159c 9623     		mov	r3, #150
 2851 159e 9B00     		lsl	r3, r3, #2
 2852 15a0 FB18     		add	r3, r7, r3
 2853 15a2 1B68     		ldr	r3, [r3]
 2854 15a4 BC22     		mov	r2, #188
 2855 15a6 D200     		lsl	r2, r2, #3
 2856 15a8 BA18     		add	r2, r7, r2
 2857 15aa 1360     		str	r3, [r2]
 349:Source\FilteringFunctions/arm_conv_partial_fast_q31.c **** 
 350:Source\FilteringFunctions/arm_conv_partial_fast_q31.c **** 
 351:Source\FilteringFunctions/arm_conv_partial_fast_q31.c ****         } while (--k);
 2858              		.loc 1 351 0 discriminator 1
 2859 15ac BA23     		mov	r3, #186
 2860 15ae DB00     		lsl	r3, r3, #3
 2861 15b0 FB18     		add	r3, r7, r3
 2862 15b2 1B68     		ldr	r3, [r3]
 2863 15b4 013B     		sub	r3, r3, #1
 2864 15b6 BA22     		mov	r2, #186
 2865 15b8 D200     		lsl	r2, r2, #3
 2866 15ba BA18     		add	r2, r7, r2
 2867 15bc 1360     		str	r3, [r2]
 2868 15be BA23     		mov	r3, #186
 2869 15c0 DB00     		lsl	r3, r3, #3
 2870 15c2 FB18     		add	r3, r7, r3
 2871 15c4 1B68     		ldr	r3, [r3]
 2872 15c6 002B     		cmp	r3, #0
 2873 15c8 01D0     		beq	.LCB2687
 2874 15ca FFF7B2F9 		bl	.L25	@far jump
 2875              	.LCB2687:
 352:Source\FilteringFunctions/arm_conv_partial_fast_q31.c **** 
 353:Source\FilteringFunctions/arm_conv_partial_fast_q31.c ****         /* If the srcBLen is not a multiple of 4, compute any remaining MACs here.
 354:Source\FilteringFunctions/arm_conv_partial_fast_q31.c ****          ** No loop unrolling is used. */
 355:Source\FilteringFunctions/arm_conv_partial_fast_q31.c ****         k = srcBLen % 0x4u;
 2876              		.loc 1 355 0
ARM GAS  C:\Users\fneves\AppData\Local\Temp\ccBJVvkW.s 			page 58


 2877 15ce B323     		mov	r3, #179
 2878 15d0 DB00     		lsl	r3, r3, #3
 2879 15d2 FB18     		add	r3, r7, r3
 2880 15d4 1A68     		ldr	r2, [r3]
 2881 15d6 0323     		mov	r3, #3
 2882 15d8 1340     		and	r3, r2
 2883 15da BA22     		mov	r2, #186
 2884 15dc D200     		lsl	r2, r2, #3
 2885 15de BA18     		add	r2, r7, r2
 2886 15e0 1360     		str	r3, [r2]
 356:Source\FilteringFunctions/arm_conv_partial_fast_q31.c **** 
 357:Source\FilteringFunctions/arm_conv_partial_fast_q31.c ****         while (k > 0u)
 2887              		.loc 1 357 0
 2888 15e2 A0E1     		b	.L26
 2889              	.L63:
 2890              		.align	2
 2891              	.L62:
 2892 15e4 D4050000 		.word	1492
 2893 15e8 AC050000 		.word	1452
 2894              	.L27:
 358:Source\FilteringFunctions/arm_conv_partial_fast_q31.c ****         {
 359:Source\FilteringFunctions/arm_conv_partial_fast_q31.c ****           /* Read y[srcBLen - 5] sample */
 360:Source\FilteringFunctions/arm_conv_partial_fast_q31.c ****           c0 = *(py--);
 2895              		.loc 1 360 0
 2896 15ec F74B     		ldr	r3, .L64
 2897 15ee FB18     		add	r3, r7, r3
 2898 15f0 1A68     		ldr	r2, [r3]
 2899 15f2 131F     		sub	r3, r2, #4
 2900 15f4 F549     		ldr	r1, .L64
 2901 15f6 7918     		add	r1, r7, r1
 2902 15f8 0B60     		str	r3, [r1]
 2903 15fa 1368     		ldr	r3, [r2]
 2904 15fc F44A     		ldr	r2, .L64+4
 2905 15fe BA18     		add	r2, r7, r2
 2906 1600 1360     		str	r3, [r2]
 361:Source\FilteringFunctions/arm_conv_partial_fast_q31.c **** 
 362:Source\FilteringFunctions/arm_conv_partial_fast_q31.c ****           /* Read x[7] sample */
 363:Source\FilteringFunctions/arm_conv_partial_fast_q31.c ****           x3 = *(px++);
 2907              		.loc 1 363 0
 2908 1602 C023     		mov	r3, #192
 2909 1604 DB00     		lsl	r3, r3, #3
 2910 1606 FB18     		add	r3, r7, r3
 2911 1608 1A68     		ldr	r2, [r3]
 2912 160a 131D     		add	r3, r2, #4
 2913 160c C021     		mov	r1, #192
 2914 160e C900     		lsl	r1, r1, #3
 2915 1610 7918     		add	r1, r7, r1
 2916 1612 0B60     		str	r3, [r1]
 2917 1614 1368     		ldr	r3, [r2]
 2918 1616 B522     		mov	r2, #181
 2919 1618 D200     		lsl	r2, r2, #3
 2920 161a BA18     		add	r2, r7, r2
 2921 161c 1360     		str	r3, [r2]
 364:Source\FilteringFunctions/arm_conv_partial_fast_q31.c **** 
 365:Source\FilteringFunctions/arm_conv_partial_fast_q31.c ****           /* Perform the multiply-accumulates */
 366:Source\FilteringFunctions/arm_conv_partial_fast_q31.c ****           /* acc0 +=  x[4] * y[srcBLen - 5] */
 367:Source\FilteringFunctions/arm_conv_partial_fast_q31.c ****           acc0 = (q31_t) ((((q63_t) acc0 << 32) + ((q63_t) x0 * c0)) >> 32);
ARM GAS  C:\Users\fneves\AppData\Local\Temp\ccBJVvkW.s 			page 59


 2922              		.loc 1 367 0
 2923 161e ED4B     		ldr	r3, .L64+8
 2924 1620 FB18     		add	r3, r7, r3
 2925 1622 1B68     		ldr	r3, [r3]
 2926 1624 9422     		mov	r2, #148
 2927 1626 9200     		lsl	r2, r2, #2
 2928 1628 BA18     		add	r2, r7, r2
 2929 162a 1360     		str	r3, [r2]
 2930 162c DB17     		asr	r3, r3, #31
 2931 162e 9522     		mov	r2, #149
 2932 1630 9200     		lsl	r2, r2, #2
 2933 1632 BA18     		add	r2, r7, r2
 2934 1634 1360     		str	r3, [r2]
 2935 1636 9423     		mov	r3, #148
 2936 1638 9B00     		lsl	r3, r3, #2
 2937 163a FB18     		add	r3, r7, r3
 2938 163c 1B68     		ldr	r3, [r3]
 2939 163e 1B00     		lsl	r3, r3, #0
 2940 1640 9322     		mov	r2, #147
 2941 1642 9200     		lsl	r2, r2, #2
 2942 1644 BA18     		add	r2, r7, r2
 2943 1646 1360     		str	r3, [r2]
 2944 1648 0023     		mov	r3, #0
 2945 164a 9222     		mov	r2, #146
 2946 164c 9200     		lsl	r2, r2, #2
 2947 164e BA18     		add	r2, r7, r2
 2948 1650 1360     		str	r3, [r2]
 2949 1652 E14B     		ldr	r3, .L64+12
 2950 1654 FB18     		add	r3, r7, r3
 2951 1656 1B68     		ldr	r3, [r3]
 2952 1658 9022     		mov	r2, #144
 2953 165a 9200     		lsl	r2, r2, #2
 2954 165c BA18     		add	r2, r7, r2
 2955 165e 1360     		str	r3, [r2]
 2956 1660 DB17     		asr	r3, r3, #31
 2957 1662 9122     		mov	r2, #145
 2958 1664 9200     		lsl	r2, r2, #2
 2959 1666 BA18     		add	r2, r7, r2
 2960 1668 1360     		str	r3, [r2]
 2961 166a D94B     		ldr	r3, .L64+4
 2962 166c FB18     		add	r3, r7, r3
 2963 166e 1B68     		ldr	r3, [r3]
 2964 1670 8E22     		mov	r2, #142
 2965 1672 9200     		lsl	r2, r2, #2
 2966 1674 BA18     		add	r2, r7, r2
 2967 1676 1360     		str	r3, [r2]
 2968 1678 DB17     		asr	r3, r3, #31
 2969 167a 8F22     		mov	r2, #143
 2970 167c 9200     		lsl	r2, r2, #2
 2971 167e BA18     		add	r2, r7, r2
 2972 1680 1360     		str	r3, [r2]
 2973 1682 9023     		mov	r3, #144
 2974 1684 9B00     		lsl	r3, r3, #2
 2975 1686 FB18     		add	r3, r7, r3
 2976 1688 1868     		ldr	r0, [r3]
 2977 168a 5968     		ldr	r1, [r3, #4]
 2978 168c 8E23     		mov	r3, #142
ARM GAS  C:\Users\fneves\AppData\Local\Temp\ccBJVvkW.s 			page 60


 2979 168e 9B00     		lsl	r3, r3, #2
 2980 1690 FB18     		add	r3, r7, r3
 2981 1692 1A68     		ldr	r2, [r3]
 2982 1694 5B68     		ldr	r3, [r3, #4]
 2983 1696 FFF7FEFF 		bl	__aeabi_lmul
 2984 169a 031C     		mov	r3, r0
 2985 169c 0C1C     		mov	r4, r1
 2986 169e 9222     		mov	r2, #146
 2987 16a0 9200     		lsl	r2, r2, #2
 2988 16a2 BA18     		add	r2, r7, r2
 2989 16a4 1168     		ldr	r1, [r2]
 2990 16a6 5268     		ldr	r2, [r2, #4]
 2991 16a8 5B18     		add	r3, r3, r1
 2992 16aa 5441     		adc	r4, r4, r2
 2993 16ac 2200     		asr	r2, r4, #0
 2994 16ae 8C21     		mov	r1, #140
 2995 16b0 8900     		lsl	r1, r1, #2
 2996 16b2 7918     		add	r1, r7, r1
 2997 16b4 0A60     		str	r2, [r1]
 2998 16b6 E317     		asr	r3, r4, #31
 2999 16b8 8D22     		mov	r2, #141
 3000 16ba 9200     		lsl	r2, r2, #2
 3001 16bc BA18     		add	r2, r7, r2
 3002 16be 1360     		str	r3, [r2]
 3003 16c0 8C23     		mov	r3, #140
 3004 16c2 9B00     		lsl	r3, r3, #2
 3005 16c4 FB18     		add	r3, r7, r3
 3006 16c6 1B68     		ldr	r3, [r3]
 3007 16c8 C24A     		ldr	r2, .L64+8
 3008 16ca BA18     		add	r2, r7, r2
 3009 16cc 1360     		str	r3, [r2]
 368:Source\FilteringFunctions/arm_conv_partial_fast_q31.c ****           /* acc1 +=  x[5] * y[srcBLen - 5] */
 369:Source\FilteringFunctions/arm_conv_partial_fast_q31.c ****           acc1 = (q31_t) ((((q63_t) acc1 << 32) + ((q63_t) x1 * c0)) >> 32);
 3010              		.loc 1 369 0
 3011 16ce BD23     		mov	r3, #189
 3012 16d0 DB00     		lsl	r3, r3, #3
 3013 16d2 FB18     		add	r3, r7, r3
 3014 16d4 1B68     		ldr	r3, [r3]
 3015 16d6 8A22     		mov	r2, #138
 3016 16d8 9200     		lsl	r2, r2, #2
 3017 16da BA18     		add	r2, r7, r2
 3018 16dc 1360     		str	r3, [r2]
 3019 16de DB17     		asr	r3, r3, #31
 3020 16e0 8B22     		mov	r2, #139
 3021 16e2 9200     		lsl	r2, r2, #2
 3022 16e4 BA18     		add	r2, r7, r2
 3023 16e6 1360     		str	r3, [r2]
 3024 16e8 8A23     		mov	r3, #138
 3025 16ea 9B00     		lsl	r3, r3, #2
 3026 16ec FB18     		add	r3, r7, r3
 3027 16ee 1B68     		ldr	r3, [r3]
 3028 16f0 1B00     		lsl	r3, r3, #0
 3029 16f2 8922     		mov	r2, #137
 3030 16f4 9200     		lsl	r2, r2, #2
 3031 16f6 BA18     		add	r2, r7, r2
 3032 16f8 1360     		str	r3, [r2]
 3033 16fa 0023     		mov	r3, #0
ARM GAS  C:\Users\fneves\AppData\Local\Temp\ccBJVvkW.s 			page 61


 3034 16fc 8822     		mov	r2, #136
 3035 16fe 9200     		lsl	r2, r2, #2
 3036 1700 BA18     		add	r2, r7, r2
 3037 1702 1360     		str	r3, [r2]
 3038 1704 BB23     		mov	r3, #187
 3039 1706 DB00     		lsl	r3, r3, #3
 3040 1708 FB18     		add	r3, r7, r3
 3041 170a 1B68     		ldr	r3, [r3]
 3042 170c 8622     		mov	r2, #134
 3043 170e 9200     		lsl	r2, r2, #2
 3044 1710 BA18     		add	r2, r7, r2
 3045 1712 1360     		str	r3, [r2]
 3046 1714 DB17     		asr	r3, r3, #31
 3047 1716 8722     		mov	r2, #135
 3048 1718 9200     		lsl	r2, r2, #2
 3049 171a BA18     		add	r2, r7, r2
 3050 171c 1360     		str	r3, [r2]
 3051 171e AC4B     		ldr	r3, .L64+4
 3052 1720 FB18     		add	r3, r7, r3
 3053 1722 1B68     		ldr	r3, [r3]
 3054 1724 8422     		mov	r2, #132
 3055 1726 9200     		lsl	r2, r2, #2
 3056 1728 BA18     		add	r2, r7, r2
 3057 172a 1360     		str	r3, [r2]
 3058 172c DB17     		asr	r3, r3, #31
 3059 172e 8522     		mov	r2, #133
 3060 1730 9200     		lsl	r2, r2, #2
 3061 1732 BA18     		add	r2, r7, r2
 3062 1734 1360     		str	r3, [r2]
 3063 1736 8623     		mov	r3, #134
 3064 1738 9B00     		lsl	r3, r3, #2
 3065 173a FB18     		add	r3, r7, r3
 3066 173c 1868     		ldr	r0, [r3]
 3067 173e 5968     		ldr	r1, [r3, #4]
 3068 1740 8423     		mov	r3, #132
 3069 1742 9B00     		lsl	r3, r3, #2
 3070 1744 FB18     		add	r3, r7, r3
 3071 1746 1A68     		ldr	r2, [r3]
 3072 1748 5B68     		ldr	r3, [r3, #4]
 3073 174a FFF7FEFF 		bl	__aeabi_lmul
 3074 174e 031C     		mov	r3, r0
 3075 1750 0C1C     		mov	r4, r1
 3076 1752 8822     		mov	r2, #136
 3077 1754 9200     		lsl	r2, r2, #2
 3078 1756 BA18     		add	r2, r7, r2
 3079 1758 1168     		ldr	r1, [r2]
 3080 175a 5268     		ldr	r2, [r2, #4]
 3081 175c 5B18     		add	r3, r3, r1
 3082 175e 5441     		adc	r4, r4, r2
 3083 1760 2200     		asr	r2, r4, #0
 3084 1762 8221     		mov	r1, #130
 3085 1764 8900     		lsl	r1, r1, #2
 3086 1766 7918     		add	r1, r7, r1
 3087 1768 0A60     		str	r2, [r1]
 3088 176a E317     		asr	r3, r4, #31
 3089 176c 8322     		mov	r2, #131
 3090 176e 9200     		lsl	r2, r2, #2
ARM GAS  C:\Users\fneves\AppData\Local\Temp\ccBJVvkW.s 			page 62


 3091 1770 BA18     		add	r2, r7, r2
 3092 1772 1360     		str	r3, [r2]
 3093 1774 8223     		mov	r3, #130
 3094 1776 9B00     		lsl	r3, r3, #2
 3095 1778 FB18     		add	r3, r7, r3
 3096 177a 1B68     		ldr	r3, [r3]
 3097 177c BD22     		mov	r2, #189
 3098 177e D200     		lsl	r2, r2, #3
 3099 1780 BA18     		add	r2, r7, r2
 3100 1782 1360     		str	r3, [r2]
 370:Source\FilteringFunctions/arm_conv_partial_fast_q31.c ****           /* acc2 +=  x[6] * y[srcBLen - 5] */
 371:Source\FilteringFunctions/arm_conv_partial_fast_q31.c ****           acc2 = (q31_t) ((((q63_t) acc2 << 32) + ((q63_t) x2 * c0)) >> 32);
 3101              		.loc 1 371 0
 3102 1784 954B     		ldr	r3, .L64+16
 3103 1786 FB18     		add	r3, r7, r3
 3104 1788 1B68     		ldr	r3, [r3]
 3105 178a 8022     		mov	r2, #128
 3106 178c 9200     		lsl	r2, r2, #2
 3107 178e BA18     		add	r2, r7, r2
 3108 1790 1360     		str	r3, [r2]
 3109 1792 DB17     		asr	r3, r3, #31
 3110 1794 8122     		mov	r2, #129
 3111 1796 9200     		lsl	r2, r2, #2
 3112 1798 BA18     		add	r2, r7, r2
 3113 179a 1360     		str	r3, [r2]
 3114 179c 8023     		mov	r3, #128
 3115 179e 9B00     		lsl	r3, r3, #2
 3116 17a0 FB18     		add	r3, r7, r3
 3117 17a2 1B68     		ldr	r3, [r3]
 3118 17a4 1B00     		lsl	r3, r3, #0
 3119 17a6 FE22     		mov	r2, #254
 3120 17a8 5200     		lsl	r2, r2, #1
 3121 17aa BA18     		add	r2, r7, r2
 3122 17ac 1360     		str	r3, [r2]
 3123 17ae 0023     		mov	r3, #0
 3124 17b0 FC22     		mov	r2, #252
 3125 17b2 5200     		lsl	r2, r2, #1
 3126 17b4 BA18     		add	r2, r7, r2
 3127 17b6 1360     		str	r3, [r2]
 3128 17b8 894B     		ldr	r3, .L64+20
 3129 17ba FB18     		add	r3, r7, r3
 3130 17bc 1B68     		ldr	r3, [r3]
 3131 17be F822     		mov	r2, #248
 3132 17c0 5200     		lsl	r2, r2, #1
 3133 17c2 BA18     		add	r2, r7, r2
 3134 17c4 1360     		str	r3, [r2]
 3135 17c6 DB17     		asr	r3, r3, #31
 3136 17c8 FA22     		mov	r2, #250
 3137 17ca 5200     		lsl	r2, r2, #1
 3138 17cc BA18     		add	r2, r7, r2
 3139 17ce 1360     		str	r3, [r2]
 3140 17d0 7F4B     		ldr	r3, .L64+4
 3141 17d2 FB18     		add	r3, r7, r3
 3142 17d4 1B68     		ldr	r3, [r3]
 3143 17d6 F422     		mov	r2, #244
 3144 17d8 5200     		lsl	r2, r2, #1
 3145 17da BA18     		add	r2, r7, r2
ARM GAS  C:\Users\fneves\AppData\Local\Temp\ccBJVvkW.s 			page 63


 3146 17dc 1360     		str	r3, [r2]
 3147 17de DB17     		asr	r3, r3, #31
 3148 17e0 F622     		mov	r2, #246
 3149 17e2 5200     		lsl	r2, r2, #1
 3150 17e4 BA18     		add	r2, r7, r2
 3151 17e6 1360     		str	r3, [r2]
 3152 17e8 F823     		mov	r3, #248
 3153 17ea 5B00     		lsl	r3, r3, #1
 3154 17ec FB18     		add	r3, r7, r3
 3155 17ee 1868     		ldr	r0, [r3]
 3156 17f0 5968     		ldr	r1, [r3, #4]
 3157 17f2 F423     		mov	r3, #244
 3158 17f4 5B00     		lsl	r3, r3, #1
 3159 17f6 FB18     		add	r3, r7, r3
 3160 17f8 1A68     		ldr	r2, [r3]
 3161 17fa 5B68     		ldr	r3, [r3, #4]
 3162 17fc FFF7FEFF 		bl	__aeabi_lmul
 3163 1800 031C     		mov	r3, r0
 3164 1802 0C1C     		mov	r4, r1
 3165 1804 FC22     		mov	r2, #252
 3166 1806 5200     		lsl	r2, r2, #1
 3167 1808 BA18     		add	r2, r7, r2
 3168 180a 1168     		ldr	r1, [r2]
 3169 180c 5268     		ldr	r2, [r2, #4]
 3170 180e 5B18     		add	r3, r3, r1
 3171 1810 5441     		adc	r4, r4, r2
 3172 1812 2200     		asr	r2, r4, #0
 3173 1814 F021     		mov	r1, #240
 3174 1816 4900     		lsl	r1, r1, #1
 3175 1818 7918     		add	r1, r7, r1
 3176 181a 0A60     		str	r2, [r1]
 3177 181c E317     		asr	r3, r4, #31
 3178 181e F222     		mov	r2, #242
 3179 1820 5200     		lsl	r2, r2, #1
 3180 1822 BA18     		add	r2, r7, r2
 3181 1824 1360     		str	r3, [r2]
 3182 1826 F023     		mov	r3, #240
 3183 1828 5B00     		lsl	r3, r3, #1
 3184 182a FB18     		add	r3, r7, r3
 3185 182c 1B68     		ldr	r3, [r3]
 3186 182e 6B4A     		ldr	r2, .L64+16
 3187 1830 BA18     		add	r2, r7, r2
 3188 1832 1360     		str	r3, [r2]
 372:Source\FilteringFunctions/arm_conv_partial_fast_q31.c ****           /* acc3 +=  x[7] * y[srcBLen - 5] */
 373:Source\FilteringFunctions/arm_conv_partial_fast_q31.c ****           acc3 = (q31_t) ((((q63_t) acc3 << 32) + ((q63_t) x3 * c0)) >> 32);
 3189              		.loc 1 373 0
 3190 1834 BC23     		mov	r3, #188
 3191 1836 DB00     		lsl	r3, r3, #3
 3192 1838 FB18     		add	r3, r7, r3
 3193 183a 1B68     		ldr	r3, [r3]
 3194 183c EC22     		mov	r2, #236
 3195 183e 5200     		lsl	r2, r2, #1
 3196 1840 BA18     		add	r2, r7, r2
 3197 1842 1360     		str	r3, [r2]
 3198 1844 DB17     		asr	r3, r3, #31
 3199 1846 EE22     		mov	r2, #238
 3200 1848 5200     		lsl	r2, r2, #1
ARM GAS  C:\Users\fneves\AppData\Local\Temp\ccBJVvkW.s 			page 64


 3201 184a BA18     		add	r2, r7, r2
 3202 184c 1360     		str	r3, [r2]
 3203 184e EC23     		mov	r3, #236
 3204 1850 5B00     		lsl	r3, r3, #1
 3205 1852 FB18     		add	r3, r7, r3
 3206 1854 1B68     		ldr	r3, [r3]
 3207 1856 1B00     		lsl	r3, r3, #0
 3208 1858 EA22     		mov	r2, #234
 3209 185a 5200     		lsl	r2, r2, #1
 3210 185c BA18     		add	r2, r7, r2
 3211 185e 1360     		str	r3, [r2]
 3212 1860 0023     		mov	r3, #0
 3213 1862 E822     		mov	r2, #232
 3214 1864 5200     		lsl	r2, r2, #1
 3215 1866 BA18     		add	r2, r7, r2
 3216 1868 1360     		str	r3, [r2]
 3217 186a B523     		mov	r3, #181
 3218 186c DB00     		lsl	r3, r3, #3
 3219 186e FB18     		add	r3, r7, r3
 3220 1870 1B68     		ldr	r3, [r3]
 3221 1872 E422     		mov	r2, #228
 3222 1874 5200     		lsl	r2, r2, #1
 3223 1876 BA18     		add	r2, r7, r2
 3224 1878 1360     		str	r3, [r2]
 3225 187a DB17     		asr	r3, r3, #31
 3226 187c E622     		mov	r2, #230
 3227 187e 5200     		lsl	r2, r2, #1
 3228 1880 BA18     		add	r2, r7, r2
 3229 1882 1360     		str	r3, [r2]
 3230 1884 524B     		ldr	r3, .L64+4
 3231 1886 FB18     		add	r3, r7, r3
 3232 1888 1B68     		ldr	r3, [r3]
 3233 188a E022     		mov	r2, #224
 3234 188c 5200     		lsl	r2, r2, #1
 3235 188e BA18     		add	r2, r7, r2
 3236 1890 1360     		str	r3, [r2]
 3237 1892 DB17     		asr	r3, r3, #31
 3238 1894 E222     		mov	r2, #226
 3239 1896 5200     		lsl	r2, r2, #1
 3240 1898 BA18     		add	r2, r7, r2
 3241 189a 1360     		str	r3, [r2]
 3242 189c E423     		mov	r3, #228
 3243 189e 5B00     		lsl	r3, r3, #1
 3244 18a0 FB18     		add	r3, r7, r3
 3245 18a2 1868     		ldr	r0, [r3]
 3246 18a4 5968     		ldr	r1, [r3, #4]
 3247 18a6 E023     		mov	r3, #224
 3248 18a8 5B00     		lsl	r3, r3, #1
 3249 18aa FB18     		add	r3, r7, r3
 3250 18ac 1A68     		ldr	r2, [r3]
 3251 18ae 5B68     		ldr	r3, [r3, #4]
 3252 18b0 FFF7FEFF 		bl	__aeabi_lmul
 3253 18b4 031C     		mov	r3, r0
 3254 18b6 0C1C     		mov	r4, r1
 3255 18b8 E822     		mov	r2, #232
 3256 18ba 5200     		lsl	r2, r2, #1
 3257 18bc BA18     		add	r2, r7, r2
ARM GAS  C:\Users\fneves\AppData\Local\Temp\ccBJVvkW.s 			page 65


 3258 18be 1168     		ldr	r1, [r2]
 3259 18c0 5268     		ldr	r2, [r2, #4]
 3260 18c2 5B18     		add	r3, r3, r1
 3261 18c4 5441     		adc	r4, r4, r2
 3262 18c6 2200     		asr	r2, r4, #0
 3263 18c8 DC21     		mov	r1, #220
 3264 18ca 4900     		lsl	r1, r1, #1
 3265 18cc 7918     		add	r1, r7, r1
 3266 18ce 0A60     		str	r2, [r1]
 3267 18d0 E317     		asr	r3, r4, #31
 3268 18d2 DE22     		mov	r2, #222
 3269 18d4 5200     		lsl	r2, r2, #1
 3270 18d6 BA18     		add	r2, r7, r2
 3271 18d8 1360     		str	r3, [r2]
 3272 18da DC23     		mov	r3, #220
 3273 18dc 5B00     		lsl	r3, r3, #1
 3274 18de FB18     		add	r3, r7, r3
 3275 18e0 1B68     		ldr	r3, [r3]
 3276 18e2 BC22     		mov	r2, #188
 3277 18e4 D200     		lsl	r2, r2, #3
 3278 18e6 BA18     		add	r2, r7, r2
 3279 18e8 1360     		str	r3, [r2]
 374:Source\FilteringFunctions/arm_conv_partial_fast_q31.c **** 
 375:Source\FilteringFunctions/arm_conv_partial_fast_q31.c ****           /* Reuse the present samples for the next MAC */
 376:Source\FilteringFunctions/arm_conv_partial_fast_q31.c ****           x0 = x1;
 3280              		.loc 1 376 0
 3281 18ea BB23     		mov	r3, #187
 3282 18ec DB00     		lsl	r3, r3, #3
 3283 18ee FB18     		add	r3, r7, r3
 3284 18f0 1B68     		ldr	r3, [r3]
 3285 18f2 394A     		ldr	r2, .L64+12
 3286 18f4 BA18     		add	r2, r7, r2
 3287 18f6 1360     		str	r3, [r2]
 377:Source\FilteringFunctions/arm_conv_partial_fast_q31.c ****           x1 = x2;
 3288              		.loc 1 377 0
 3289 18f8 394B     		ldr	r3, .L64+20
 3290 18fa FB18     		add	r3, r7, r3
 3291 18fc 1B68     		ldr	r3, [r3]
 3292 18fe BB22     		mov	r2, #187
 3293 1900 D200     		lsl	r2, r2, #3
 3294 1902 BA18     		add	r2, r7, r2
 3295 1904 1360     		str	r3, [r2]
 378:Source\FilteringFunctions/arm_conv_partial_fast_q31.c ****           x2 = x3;
 3296              		.loc 1 378 0
 3297 1906 B523     		mov	r3, #181
 3298 1908 DB00     		lsl	r3, r3, #3
 3299 190a FB18     		add	r3, r7, r3
 3300 190c 1B68     		ldr	r3, [r3]
 3301 190e 344A     		ldr	r2, .L64+20
 3302 1910 BA18     		add	r2, r7, r2
 3303 1912 1360     		str	r3, [r2]
 379:Source\FilteringFunctions/arm_conv_partial_fast_q31.c **** 
 380:Source\FilteringFunctions/arm_conv_partial_fast_q31.c ****           /* Decrement the loop counter */
 381:Source\FilteringFunctions/arm_conv_partial_fast_q31.c ****           k--;
 3304              		.loc 1 381 0
 3305 1914 BA23     		mov	r3, #186
 3306 1916 DB00     		lsl	r3, r3, #3
ARM GAS  C:\Users\fneves\AppData\Local\Temp\ccBJVvkW.s 			page 66


 3307 1918 FB18     		add	r3, r7, r3
 3308 191a 1B68     		ldr	r3, [r3]
 3309 191c 013B     		sub	r3, r3, #1
 3310 191e BA22     		mov	r2, #186
 3311 1920 D200     		lsl	r2, r2, #3
 3312 1922 BA18     		add	r2, r7, r2
 3313 1924 1360     		str	r3, [r2]
 3314              	.L26:
 357:Source\FilteringFunctions/arm_conv_partial_fast_q31.c ****         {
 3315              		.loc 1 357 0
 3316 1926 BA23     		mov	r3, #186
 3317 1928 DB00     		lsl	r3, r3, #3
 3318 192a FB18     		add	r3, r7, r3
 3319 192c 1B68     		ldr	r3, [r3]
 3320 192e 002B     		cmp	r3, #0
 3321 1930 00D0     		beq	.LCB3109
 3322 1932 5BE6     		b	.L27	@long jump
 3323              	.LCB3109:
 382:Source\FilteringFunctions/arm_conv_partial_fast_q31.c ****         }
 383:Source\FilteringFunctions/arm_conv_partial_fast_q31.c **** 
 384:Source\FilteringFunctions/arm_conv_partial_fast_q31.c ****         /* Store the result in the accumulator in the destination buffer. */
 385:Source\FilteringFunctions/arm_conv_partial_fast_q31.c ****         *pOut++ = (q31_t) (acc0 << 1);
 3324              		.loc 1 385 0
 3325 1934 2B4B     		ldr	r3, .L64+24
 3326 1936 FB18     		add	r3, r7, r3
 3327 1938 1A68     		ldr	r2, [r3]
 3328 193a 131D     		add	r3, r2, #4
 3329 193c 2949     		ldr	r1, .L64+24
 3330 193e 7918     		add	r1, r7, r1
 3331 1940 0B60     		str	r3, [r1]
 3332 1942 244B     		ldr	r3, .L64+8
 3333 1944 FB18     		add	r3, r7, r3
 3334 1946 1B68     		ldr	r3, [r3]
 3335 1948 5B00     		lsl	r3, r3, #1
 3336 194a 1360     		str	r3, [r2]
 386:Source\FilteringFunctions/arm_conv_partial_fast_q31.c ****         *pOut++ = (q31_t) (acc1 << 1);
 3337              		.loc 1 386 0
 3338 194c 254B     		ldr	r3, .L64+24
 3339 194e FB18     		add	r3, r7, r3
 3340 1950 1A68     		ldr	r2, [r3]
 3341 1952 131D     		add	r3, r2, #4
 3342 1954 2349     		ldr	r1, .L64+24
 3343 1956 7918     		add	r1, r7, r1
 3344 1958 0B60     		str	r3, [r1]
 3345 195a BD23     		mov	r3, #189
 3346 195c DB00     		lsl	r3, r3, #3
 3347 195e FB18     		add	r3, r7, r3
 3348 1960 1B68     		ldr	r3, [r3]
 3349 1962 5B00     		lsl	r3, r3, #1
 3350 1964 1360     		str	r3, [r2]
 387:Source\FilteringFunctions/arm_conv_partial_fast_q31.c ****         *pOut++ = (q31_t) (acc2 << 1);
 3351              		.loc 1 387 0
 3352 1966 1F4B     		ldr	r3, .L64+24
 3353 1968 FB18     		add	r3, r7, r3
 3354 196a 1A68     		ldr	r2, [r3]
 3355 196c 131D     		add	r3, r2, #4
 3356 196e 1D49     		ldr	r1, .L64+24
ARM GAS  C:\Users\fneves\AppData\Local\Temp\ccBJVvkW.s 			page 67


 3357 1970 7918     		add	r1, r7, r1
 3358 1972 0B60     		str	r3, [r1]
 3359 1974 194B     		ldr	r3, .L64+16
 3360 1976 FB18     		add	r3, r7, r3
 3361 1978 1B68     		ldr	r3, [r3]
 3362 197a 5B00     		lsl	r3, r3, #1
 3363 197c 1360     		str	r3, [r2]
 388:Source\FilteringFunctions/arm_conv_partial_fast_q31.c ****         *pOut++ = (q31_t) (acc3 << 1);
 3364              		.loc 1 388 0
 3365 197e 194B     		ldr	r3, .L64+24
 3366 1980 FB18     		add	r3, r7, r3
 3367 1982 1A68     		ldr	r2, [r3]
 3368 1984 131D     		add	r3, r2, #4
 3369 1986 1749     		ldr	r1, .L64+24
 3370 1988 7918     		add	r1, r7, r1
 3371 198a 0B60     		str	r3, [r1]
 3372 198c BC23     		mov	r3, #188
 3373 198e DB00     		lsl	r3, r3, #3
 3374 1990 FB18     		add	r3, r7, r3
 3375 1992 1B68     		ldr	r3, [r3]
 3376 1994 5B00     		lsl	r3, r3, #1
 3377 1996 1360     		str	r3, [r2]
 389:Source\FilteringFunctions/arm_conv_partial_fast_q31.c **** 
 390:Source\FilteringFunctions/arm_conv_partial_fast_q31.c ****         /* Increment the pointer pIn1 index, count by 4 */
 391:Source\FilteringFunctions/arm_conv_partial_fast_q31.c ****         count += 4u;
 3378              		.loc 1 391 0
 3379 1998 134B     		ldr	r3, .L64+28
 3380 199a FB18     		add	r3, r7, r3
 3381 199c 1B68     		ldr	r3, [r3]
 3382 199e 0433     		add	r3, r3, #4
 3383 19a0 114A     		ldr	r2, .L64+28
 3384 19a2 BA18     		add	r2, r7, r2
 3385 19a4 1360     		str	r3, [r2]
 392:Source\FilteringFunctions/arm_conv_partial_fast_q31.c **** 
 393:Source\FilteringFunctions/arm_conv_partial_fast_q31.c ****         /* Update the inputA and inputB pointers for next MAC calculation */
 394:Source\FilteringFunctions/arm_conv_partial_fast_q31.c ****         px = pIn1 + count;
 3386              		.loc 1 394 0
 3387 19a6 104B     		ldr	r3, .L64+28
 3388 19a8 FB18     		add	r3, r7, r3
 3389 19aa 1B68     		ldr	r3, [r3]
 3390 19ac 9A00     		lsl	r2, r3, #2
 3391 19ae 0F4B     		ldr	r3, .L64+32
 3392 19b0 FB18     		add	r3, r7, r3
 3393 19b2 1B68     		ldr	r3, [r3]
 3394 19b4 9B18     		add	r3, r3, r2
 3395 19b6 C022     		mov	r2, #192
 3396 19b8 D200     		lsl	r2, r2, #3
 3397 19ba BA18     		add	r2, r7, r2
 3398 19bc 1360     		str	r3, [r2]
 395:Source\FilteringFunctions/arm_conv_partial_fast_q31.c ****         py = pSrc2;
 3399              		.loc 1 395 0
 3400 19be 0C4B     		ldr	r3, .L64+36
 3401 19c0 FB18     		add	r3, r7, r3
 3402 19c2 1B68     		ldr	r3, [r3]
 3403 19c4 014A     		ldr	r2, .L64
 3404 19c6 BA18     		add	r2, r7, r2
 3405 19c8 1360     		str	r3, [r2]
ARM GAS  C:\Users\fneves\AppData\Local\Temp\ccBJVvkW.s 			page 68


 3406 19ca 13E0     		b	.L65
 3407              	.L66:
 3408              		.align	2
 3409              	.L64:
 3410 19cc FC050000 		.word	1532
 3411 19d0 AC050000 		.word	1452
 3412 19d4 EC050000 		.word	1516
 3413 19d8 DC050000 		.word	1500
 3414 19dc E4050000 		.word	1508
 3415 19e0 D4050000 		.word	1492
 3416 19e4 04060000 		.word	1540
 3417 19e8 CC050000 		.word	1484
 3418 19ec 0C060000 		.word	1548
 3419 19f0 F4050000 		.word	1524
 3420              	.L65:
 396:Source\FilteringFunctions/arm_conv_partial_fast_q31.c **** 
 397:Source\FilteringFunctions/arm_conv_partial_fast_q31.c ****         /* Decrement the loop counter */
 398:Source\FilteringFunctions/arm_conv_partial_fast_q31.c ****         blkCnt--;
 3421              		.loc 1 398 0
 3422 19f4 B923     		mov	r3, #185
 3423 19f6 DB00     		lsl	r3, r3, #3
 3424 19f8 FB18     		add	r3, r7, r3
 3425 19fa 1B68     		ldr	r3, [r3]
 3426 19fc 013B     		sub	r3, r3, #1
 3427 19fe B922     		mov	r2, #185
 3428 1a00 D200     		lsl	r2, r2, #3
 3429 1a02 BA18     		add	r2, r7, r2
 3430 1a04 1360     		str	r3, [r2]
 3431              	.L24:
 263:Source\FilteringFunctions/arm_conv_partial_fast_q31.c ****       {
 3432              		.loc 1 263 0
 3433 1a06 B923     		mov	r3, #185
 3434 1a08 DB00     		lsl	r3, r3, #3
 3435 1a0a FB18     		add	r3, r7, r3
 3436 1a0c 1B68     		ldr	r3, [r3]
 3437 1a0e 002B     		cmp	r3, #0
 3438 1a10 01D0     		beq	.LCB3219
 3439 1a12 FEF74BFF 		bl	.L28	@far jump
 3440              	.LCB3219:
 399:Source\FilteringFunctions/arm_conv_partial_fast_q31.c ****       }
 400:Source\FilteringFunctions/arm_conv_partial_fast_q31.c **** 
 401:Source\FilteringFunctions/arm_conv_partial_fast_q31.c ****       /* If the blockSize2 is not a multiple of 4, compute any remaining output samples here.
 402:Source\FilteringFunctions/arm_conv_partial_fast_q31.c ****        ** No loop unrolling is used. */
 403:Source\FilteringFunctions/arm_conv_partial_fast_q31.c ****       blkCnt = (uint32_t) blockSize2 % 0x4u;
 3441              		.loc 1 403 0
 3442 1a16 B623     		mov	r3, #182
 3443 1a18 DB00     		lsl	r3, r3, #3
 3444 1a1a FB18     		add	r3, r7, r3
 3445 1a1c 1A68     		ldr	r2, [r3]
 3446 1a1e 0323     		mov	r3, #3
 3447 1a20 1340     		and	r3, r2
 3448 1a22 B922     		mov	r2, #185
 3449 1a24 D200     		lsl	r2, r2, #3
 3450 1a26 BA18     		add	r2, r7, r2
 3451 1a28 1360     		str	r3, [r2]
 404:Source\FilteringFunctions/arm_conv_partial_fast_q31.c **** 
 405:Source\FilteringFunctions/arm_conv_partial_fast_q31.c ****       while (blkCnt > 0u)
ARM GAS  C:\Users\fneves\AppData\Local\Temp\ccBJVvkW.s 			page 69


 3452              		.loc 1 405 0
 3453 1a2a 5EE2     		b	.L29
 3454              	.L34:
 406:Source\FilteringFunctions/arm_conv_partial_fast_q31.c ****       {
 407:Source\FilteringFunctions/arm_conv_partial_fast_q31.c ****         /* Accumulator is made zero for every iteration */
 408:Source\FilteringFunctions/arm_conv_partial_fast_q31.c ****         sum = 0;
 3455              		.loc 1 408 0
 3456 1a2c 0023     		mov	r3, #0
 3457 1a2e BE22     		mov	r2, #190
 3458 1a30 D200     		lsl	r2, r2, #3
 3459 1a32 BA18     		add	r2, r7, r2
 3460 1a34 1360     		str	r3, [r2]
 409:Source\FilteringFunctions/arm_conv_partial_fast_q31.c **** 
 410:Source\FilteringFunctions/arm_conv_partial_fast_q31.c ****         /* Apply loop unrolling and compute 4 MACs simultaneously. */
 411:Source\FilteringFunctions/arm_conv_partial_fast_q31.c ****         k = srcBLen >> 2u;
 3461              		.loc 1 411 0
 3462 1a36 B323     		mov	r3, #179
 3463 1a38 DB00     		lsl	r3, r3, #3
 3464 1a3a FB18     		add	r3, r7, r3
 3465 1a3c 1B68     		ldr	r3, [r3]
 3466 1a3e 9B08     		lsr	r3, r3, #2
 3467 1a40 BA22     		mov	r2, #186
 3468 1a42 D200     		lsl	r2, r2, #3
 3469 1a44 BA18     		add	r2, r7, r2
 3470 1a46 1360     		str	r3, [r2]
 412:Source\FilteringFunctions/arm_conv_partial_fast_q31.c **** 
 413:Source\FilteringFunctions/arm_conv_partial_fast_q31.c ****         /* First part of the processing with loop unrolling.  Compute 4 MACs at a time.
 414:Source\FilteringFunctions/arm_conv_partial_fast_q31.c ****          ** a second loop below computes MACs for the remaining 1 to 3 samples. */
 415:Source\FilteringFunctions/arm_conv_partial_fast_q31.c ****         while (k > 0u)
 3471              		.loc 1 415 0
 3472 1a48 A0E1     		b	.L30
 3473              	.L31:
 416:Source\FilteringFunctions/arm_conv_partial_fast_q31.c ****         {
 417:Source\FilteringFunctions/arm_conv_partial_fast_q31.c ****           /* Perform the multiply-accumulates */
 418:Source\FilteringFunctions/arm_conv_partial_fast_q31.c ****           sum = (q31_t) ((((q63_t) sum << 32) +
 3474              		.loc 1 418 0
 3475 1a4a BE23     		mov	r3, #190
 3476 1a4c DB00     		lsl	r3, r3, #3
 3477 1a4e FB18     		add	r3, r7, r3
 3478 1a50 1B68     		ldr	r3, [r3]
 3479 1a52 D822     		mov	r2, #216
 3480 1a54 5200     		lsl	r2, r2, #1
 3481 1a56 BA18     		add	r2, r7, r2
 3482 1a58 1360     		str	r3, [r2]
 3483 1a5a DB17     		asr	r3, r3, #31
 3484 1a5c DA22     		mov	r2, #218
 3485 1a5e 5200     		lsl	r2, r2, #1
 3486 1a60 BA18     		add	r2, r7, r2
 3487 1a62 1360     		str	r3, [r2]
 3488 1a64 D823     		mov	r3, #216
 3489 1a66 5B00     		lsl	r3, r3, #1
 3490 1a68 FB18     		add	r3, r7, r3
 3491 1a6a 1B68     		ldr	r3, [r3]
 3492 1a6c 1B00     		lsl	r3, r3, #0
 3493 1a6e D622     		mov	r2, #214
 3494 1a70 5200     		lsl	r2, r2, #1
 3495 1a72 BA18     		add	r2, r7, r2
ARM GAS  C:\Users\fneves\AppData\Local\Temp\ccBJVvkW.s 			page 70


 3496 1a74 1360     		str	r3, [r2]
 3497 1a76 0023     		mov	r3, #0
 3498 1a78 D422     		mov	r2, #212
 3499 1a7a 5200     		lsl	r2, r2, #1
 3500 1a7c BA18     		add	r2, r7, r2
 3501 1a7e 1360     		str	r3, [r2]
 419:Source\FilteringFunctions/arm_conv_partial_fast_q31.c ****                           ((q63_t) * px++ * (*py--))) >> 32);
 3502              		.loc 1 419 0
 3503 1a80 C023     		mov	r3, #192
 3504 1a82 DB00     		lsl	r3, r3, #3
 3505 1a84 FB18     		add	r3, r7, r3
 3506 1a86 1A68     		ldr	r2, [r3]
 3507 1a88 131D     		add	r3, r2, #4
 3508 1a8a C021     		mov	r1, #192
 3509 1a8c C900     		lsl	r1, r1, #3
 3510 1a8e 7918     		add	r1, r7, r1
 3511 1a90 0B60     		str	r3, [r1]
 3512 1a92 1368     		ldr	r3, [r2]
 3513 1a94 D022     		mov	r2, #208
 3514 1a96 5200     		lsl	r2, r2, #1
 3515 1a98 BA18     		add	r2, r7, r2
 3516 1a9a 1360     		str	r3, [r2]
 3517 1a9c DB17     		asr	r3, r3, #31
 3518 1a9e D222     		mov	r2, #210
 3519 1aa0 5200     		lsl	r2, r2, #1
 3520 1aa2 BA18     		add	r2, r7, r2
 3521 1aa4 1360     		str	r3, [r2]
 3522 1aa6 C24B     		ldr	r3, .L67
 3523 1aa8 FB18     		add	r3, r7, r3
 3524 1aaa 1A68     		ldr	r2, [r3]
 3525 1aac 131F     		sub	r3, r2, #4
 3526 1aae C049     		ldr	r1, .L67
 3527 1ab0 7918     		add	r1, r7, r1
 3528 1ab2 0B60     		str	r3, [r1]
 3529 1ab4 1368     		ldr	r3, [r2]
 3530 1ab6 CC22     		mov	r2, #204
 3531 1ab8 5200     		lsl	r2, r2, #1
 3532 1aba BA18     		add	r2, r7, r2
 3533 1abc 1360     		str	r3, [r2]
 3534 1abe DB17     		asr	r3, r3, #31
 3535 1ac0 CE22     		mov	r2, #206
 3536 1ac2 5200     		lsl	r2, r2, #1
 3537 1ac4 BA18     		add	r2, r7, r2
 3538 1ac6 1360     		str	r3, [r2]
 3539 1ac8 D023     		mov	r3, #208
 3540 1aca 5B00     		lsl	r3, r3, #1
 3541 1acc FB18     		add	r3, r7, r3
 3542 1ace 1868     		ldr	r0, [r3]
 3543 1ad0 5968     		ldr	r1, [r3, #4]
 3544 1ad2 CC23     		mov	r3, #204
 3545 1ad4 5B00     		lsl	r3, r3, #1
 3546 1ad6 FB18     		add	r3, r7, r3
 3547 1ad8 1A68     		ldr	r2, [r3]
 3548 1ada 5B68     		ldr	r3, [r3, #4]
 3549 1adc FFF7FEFF 		bl	__aeabi_lmul
 3550 1ae0 031C     		mov	r3, r0
 3551 1ae2 0C1C     		mov	r4, r1
ARM GAS  C:\Users\fneves\AppData\Local\Temp\ccBJVvkW.s 			page 71


 418:Source\FilteringFunctions/arm_conv_partial_fast_q31.c ****                           ((q63_t) * px++ * (*py--))) >> 32);
 3552              		.loc 1 418 0
 3553 1ae4 D422     		mov	r2, #212
 3554 1ae6 5200     		lsl	r2, r2, #1
 3555 1ae8 BA18     		add	r2, r7, r2
 3556 1aea 1168     		ldr	r1, [r2]
 3557 1aec 5268     		ldr	r2, [r2, #4]
 3558 1aee 5B18     		add	r3, r3, r1
 3559 1af0 5441     		adc	r4, r4, r2
 3560              		.loc 1 419 0
 3561 1af2 2200     		asr	r2, r4, #0
 3562 1af4 C821     		mov	r1, #200
 3563 1af6 4900     		lsl	r1, r1, #1
 3564 1af8 7918     		add	r1, r7, r1
 3565 1afa 0A60     		str	r2, [r1]
 3566 1afc E317     		asr	r3, r4, #31
 3567 1afe CA22     		mov	r2, #202
 3568 1b00 5200     		lsl	r2, r2, #1
 3569 1b02 BA18     		add	r2, r7, r2
 3570 1b04 1360     		str	r3, [r2]
 418:Source\FilteringFunctions/arm_conv_partial_fast_q31.c ****                           ((q63_t) * px++ * (*py--))) >> 32);
 3571              		.loc 1 418 0
 3572 1b06 C823     		mov	r3, #200
 3573 1b08 5B00     		lsl	r3, r3, #1
 3574 1b0a FB18     		add	r3, r7, r3
 3575 1b0c 1B68     		ldr	r3, [r3]
 3576 1b0e BE22     		mov	r2, #190
 3577 1b10 D200     		lsl	r2, r2, #3
 3578 1b12 BA18     		add	r2, r7, r2
 3579 1b14 1360     		str	r3, [r2]
 420:Source\FilteringFunctions/arm_conv_partial_fast_q31.c ****           sum = (q31_t) ((((q63_t) sum << 32) +
 3580              		.loc 1 420 0
 3581 1b16 BE23     		mov	r3, #190
 3582 1b18 DB00     		lsl	r3, r3, #3
 3583 1b1a FB18     		add	r3, r7, r3
 3584 1b1c 1B68     		ldr	r3, [r3]
 3585 1b1e C422     		mov	r2, #196
 3586 1b20 5200     		lsl	r2, r2, #1
 3587 1b22 BA18     		add	r2, r7, r2
 3588 1b24 1360     		str	r3, [r2]
 3589 1b26 DB17     		asr	r3, r3, #31
 3590 1b28 C622     		mov	r2, #198
 3591 1b2a 5200     		lsl	r2, r2, #1
 3592 1b2c BA18     		add	r2, r7, r2
 3593 1b2e 1360     		str	r3, [r2]
 3594 1b30 C423     		mov	r3, #196
 3595 1b32 5B00     		lsl	r3, r3, #1
 3596 1b34 FB18     		add	r3, r7, r3
 3597 1b36 1B68     		ldr	r3, [r3]
 3598 1b38 1B00     		lsl	r3, r3, #0
 3599 1b3a C222     		mov	r2, #194
 3600 1b3c 5200     		lsl	r2, r2, #1
 3601 1b3e BA18     		add	r2, r7, r2
 3602 1b40 1360     		str	r3, [r2]
 3603 1b42 0023     		mov	r3, #0
 3604 1b44 C022     		mov	r2, #192
 3605 1b46 5200     		lsl	r2, r2, #1
ARM GAS  C:\Users\fneves\AppData\Local\Temp\ccBJVvkW.s 			page 72


 3606 1b48 BA18     		add	r2, r7, r2
 3607 1b4a 1360     		str	r3, [r2]
 421:Source\FilteringFunctions/arm_conv_partial_fast_q31.c ****                           ((q63_t) * px++ * (*py--))) >> 32);
 3608              		.loc 1 421 0
 3609 1b4c C023     		mov	r3, #192
 3610 1b4e DB00     		lsl	r3, r3, #3
 3611 1b50 FB18     		add	r3, r7, r3
 3612 1b52 1A68     		ldr	r2, [r3]
 3613 1b54 131D     		add	r3, r2, #4
 3614 1b56 C021     		mov	r1, #192
 3615 1b58 C900     		lsl	r1, r1, #3
 3616 1b5a 7918     		add	r1, r7, r1
 3617 1b5c 0B60     		str	r3, [r1]
 3618 1b5e 1368     		ldr	r3, [r2]
 3619 1b60 BC22     		mov	r2, #188
 3620 1b62 5200     		lsl	r2, r2, #1
 3621 1b64 BA18     		add	r2, r7, r2
 3622 1b66 1360     		str	r3, [r2]
 3623 1b68 DB17     		asr	r3, r3, #31
 3624 1b6a BE22     		mov	r2, #190
 3625 1b6c 5200     		lsl	r2, r2, #1
 3626 1b6e BA18     		add	r2, r7, r2
 3627 1b70 1360     		str	r3, [r2]
 3628 1b72 8F4B     		ldr	r3, .L67
 3629 1b74 FB18     		add	r3, r7, r3
 3630 1b76 1A68     		ldr	r2, [r3]
 3631 1b78 131F     		sub	r3, r2, #4
 3632 1b7a 8D49     		ldr	r1, .L67
 3633 1b7c 7918     		add	r1, r7, r1
 3634 1b7e 0B60     		str	r3, [r1]
 3635 1b80 1368     		ldr	r3, [r2]
 3636 1b82 B822     		mov	r2, #184
 3637 1b84 5200     		lsl	r2, r2, #1
 3638 1b86 BA18     		add	r2, r7, r2
 3639 1b88 1360     		str	r3, [r2]
 3640 1b8a DB17     		asr	r3, r3, #31
 3641 1b8c BA22     		mov	r2, #186
 3642 1b8e 5200     		lsl	r2, r2, #1
 3643 1b90 BA18     		add	r2, r7, r2
 3644 1b92 1360     		str	r3, [r2]
 3645 1b94 BC23     		mov	r3, #188
 3646 1b96 5B00     		lsl	r3, r3, #1
 3647 1b98 FB18     		add	r3, r7, r3
 3648 1b9a 1868     		ldr	r0, [r3]
 3649 1b9c 5968     		ldr	r1, [r3, #4]
 3650 1b9e B823     		mov	r3, #184
 3651 1ba0 5B00     		lsl	r3, r3, #1
 3652 1ba2 FB18     		add	r3, r7, r3
 3653 1ba4 1A68     		ldr	r2, [r3]
 3654 1ba6 5B68     		ldr	r3, [r3, #4]
 3655 1ba8 FFF7FEFF 		bl	__aeabi_lmul
 3656 1bac 031C     		mov	r3, r0
 3657 1bae 0C1C     		mov	r4, r1
 420:Source\FilteringFunctions/arm_conv_partial_fast_q31.c ****           sum = (q31_t) ((((q63_t) sum << 32) +
 3658              		.loc 1 420 0
 3659 1bb0 C022     		mov	r2, #192
 3660 1bb2 5200     		lsl	r2, r2, #1
ARM GAS  C:\Users\fneves\AppData\Local\Temp\ccBJVvkW.s 			page 73


 3661 1bb4 BA18     		add	r2, r7, r2
 3662 1bb6 1168     		ldr	r1, [r2]
 3663 1bb8 5268     		ldr	r2, [r2, #4]
 3664 1bba 5B18     		add	r3, r3, r1
 3665 1bbc 5441     		adc	r4, r4, r2
 3666              		.loc 1 421 0
 3667 1bbe 2200     		asr	r2, r4, #0
 3668 1bc0 B421     		mov	r1, #180
 3669 1bc2 4900     		lsl	r1, r1, #1
 3670 1bc4 7918     		add	r1, r7, r1
 3671 1bc6 0A60     		str	r2, [r1]
 3672 1bc8 E317     		asr	r3, r4, #31
 3673 1bca B622     		mov	r2, #182
 3674 1bcc 5200     		lsl	r2, r2, #1
 3675 1bce BA18     		add	r2, r7, r2
 3676 1bd0 1360     		str	r3, [r2]
 420:Source\FilteringFunctions/arm_conv_partial_fast_q31.c ****           sum = (q31_t) ((((q63_t) sum << 32) +
 3677              		.loc 1 420 0
 3678 1bd2 B423     		mov	r3, #180
 3679 1bd4 5B00     		lsl	r3, r3, #1
 3680 1bd6 FB18     		add	r3, r7, r3
 3681 1bd8 1B68     		ldr	r3, [r3]
 3682 1bda BE22     		mov	r2, #190
 3683 1bdc D200     		lsl	r2, r2, #3
 3684 1bde BA18     		add	r2, r7, r2
 3685 1be0 1360     		str	r3, [r2]
 422:Source\FilteringFunctions/arm_conv_partial_fast_q31.c ****           sum = (q31_t) ((((q63_t) sum << 32) +
 3686              		.loc 1 422 0
 3687 1be2 BE23     		mov	r3, #190
 3688 1be4 DB00     		lsl	r3, r3, #3
 3689 1be6 FB18     		add	r3, r7, r3
 3690 1be8 1B68     		ldr	r3, [r3]
 3691 1bea B022     		mov	r2, #176
 3692 1bec 5200     		lsl	r2, r2, #1
 3693 1bee BA18     		add	r2, r7, r2
 3694 1bf0 1360     		str	r3, [r2]
 3695 1bf2 DB17     		asr	r3, r3, #31
 3696 1bf4 B222     		mov	r2, #178
 3697 1bf6 5200     		lsl	r2, r2, #1
 3698 1bf8 BA18     		add	r2, r7, r2
 3699 1bfa 1360     		str	r3, [r2]
 3700 1bfc B023     		mov	r3, #176
 3701 1bfe 5B00     		lsl	r3, r3, #1
 3702 1c00 FB18     		add	r3, r7, r3
 3703 1c02 1B68     		ldr	r3, [r3]
 3704 1c04 1B00     		lsl	r3, r3, #0
 3705 1c06 AE22     		mov	r2, #174
 3706 1c08 5200     		lsl	r2, r2, #1
 3707 1c0a BA18     		add	r2, r7, r2
 3708 1c0c 1360     		str	r3, [r2]
 3709 1c0e 0023     		mov	r3, #0
 3710 1c10 AC22     		mov	r2, #172
 3711 1c12 5200     		lsl	r2, r2, #1
 3712 1c14 BA18     		add	r2, r7, r2
 3713 1c16 1360     		str	r3, [r2]
 423:Source\FilteringFunctions/arm_conv_partial_fast_q31.c ****                           ((q63_t) * px++ * (*py--))) >> 32);
 3714              		.loc 1 423 0
ARM GAS  C:\Users\fneves\AppData\Local\Temp\ccBJVvkW.s 			page 74


 3715 1c18 C023     		mov	r3, #192
 3716 1c1a DB00     		lsl	r3, r3, #3
 3717 1c1c FB18     		add	r3, r7, r3
 3718 1c1e 1A68     		ldr	r2, [r3]
 3719 1c20 131D     		add	r3, r2, #4
 3720 1c22 C021     		mov	r1, #192
 3721 1c24 C900     		lsl	r1, r1, #3
 3722 1c26 7918     		add	r1, r7, r1
 3723 1c28 0B60     		str	r3, [r1]
 3724 1c2a 1368     		ldr	r3, [r2]
 3725 1c2c A822     		mov	r2, #168
 3726 1c2e 5200     		lsl	r2, r2, #1
 3727 1c30 BA18     		add	r2, r7, r2
 3728 1c32 1360     		str	r3, [r2]
 3729 1c34 DB17     		asr	r3, r3, #31
 3730 1c36 AA22     		mov	r2, #170
 3731 1c38 5200     		lsl	r2, r2, #1
 3732 1c3a BA18     		add	r2, r7, r2
 3733 1c3c 1360     		str	r3, [r2]
 3734 1c3e 5C4B     		ldr	r3, .L67
 3735 1c40 FB18     		add	r3, r7, r3
 3736 1c42 1A68     		ldr	r2, [r3]
 3737 1c44 131F     		sub	r3, r2, #4
 3738 1c46 5A49     		ldr	r1, .L67
 3739 1c48 7918     		add	r1, r7, r1
 3740 1c4a 0B60     		str	r3, [r1]
 3741 1c4c 1368     		ldr	r3, [r2]
 3742 1c4e A422     		mov	r2, #164
 3743 1c50 5200     		lsl	r2, r2, #1
 3744 1c52 BA18     		add	r2, r7, r2
 3745 1c54 1360     		str	r3, [r2]
 3746 1c56 DB17     		asr	r3, r3, #31
 3747 1c58 A622     		mov	r2, #166
 3748 1c5a 5200     		lsl	r2, r2, #1
 3749 1c5c BA18     		add	r2, r7, r2
 3750 1c5e 1360     		str	r3, [r2]
 3751 1c60 A823     		mov	r3, #168
 3752 1c62 5B00     		lsl	r3, r3, #1
 3753 1c64 FB18     		add	r3, r7, r3
 3754 1c66 1868     		ldr	r0, [r3]
 3755 1c68 5968     		ldr	r1, [r3, #4]
 3756 1c6a A423     		mov	r3, #164
 3757 1c6c 5B00     		lsl	r3, r3, #1
 3758 1c6e FB18     		add	r3, r7, r3
 3759 1c70 1A68     		ldr	r2, [r3]
 3760 1c72 5B68     		ldr	r3, [r3, #4]
 3761 1c74 FFF7FEFF 		bl	__aeabi_lmul
 3762 1c78 031C     		mov	r3, r0
 3763 1c7a 0C1C     		mov	r4, r1
 422:Source\FilteringFunctions/arm_conv_partial_fast_q31.c ****           sum = (q31_t) ((((q63_t) sum << 32) +
 3764              		.loc 1 422 0
 3765 1c7c AC22     		mov	r2, #172
 3766 1c7e 5200     		lsl	r2, r2, #1
 3767 1c80 BA18     		add	r2, r7, r2
 3768 1c82 1168     		ldr	r1, [r2]
 3769 1c84 5268     		ldr	r2, [r2, #4]
 3770 1c86 5B18     		add	r3, r3, r1
ARM GAS  C:\Users\fneves\AppData\Local\Temp\ccBJVvkW.s 			page 75


 3771 1c88 5441     		adc	r4, r4, r2
 3772              		.loc 1 423 0
 3773 1c8a 2200     		asr	r2, r4, #0
 3774 1c8c A021     		mov	r1, #160
 3775 1c8e 4900     		lsl	r1, r1, #1
 3776 1c90 7918     		add	r1, r7, r1
 3777 1c92 0A60     		str	r2, [r1]
 3778 1c94 E317     		asr	r3, r4, #31
 3779 1c96 A222     		mov	r2, #162
 3780 1c98 5200     		lsl	r2, r2, #1
 3781 1c9a BA18     		add	r2, r7, r2
 3782 1c9c 1360     		str	r3, [r2]
 422:Source\FilteringFunctions/arm_conv_partial_fast_q31.c ****           sum = (q31_t) ((((q63_t) sum << 32) +
 3783              		.loc 1 422 0
 3784 1c9e A023     		mov	r3, #160
 3785 1ca0 5B00     		lsl	r3, r3, #1
 3786 1ca2 FB18     		add	r3, r7, r3
 3787 1ca4 1B68     		ldr	r3, [r3]
 3788 1ca6 BE22     		mov	r2, #190
 3789 1ca8 D200     		lsl	r2, r2, #3
 3790 1caa BA18     		add	r2, r7, r2
 3791 1cac 1360     		str	r3, [r2]
 424:Source\FilteringFunctions/arm_conv_partial_fast_q31.c ****           sum = (q31_t) ((((q63_t) sum << 32) +
 3792              		.loc 1 424 0
 3793 1cae BE23     		mov	r3, #190
 3794 1cb0 DB00     		lsl	r3, r3, #3
 3795 1cb2 FB18     		add	r3, r7, r3
 3796 1cb4 1B68     		ldr	r3, [r3]
 3797 1cb6 9C22     		mov	r2, #156
 3798 1cb8 5200     		lsl	r2, r2, #1
 3799 1cba BA18     		add	r2, r7, r2
 3800 1cbc 1360     		str	r3, [r2]
 3801 1cbe DB17     		asr	r3, r3, #31
 3802 1cc0 9E22     		mov	r2, #158
 3803 1cc2 5200     		lsl	r2, r2, #1
 3804 1cc4 BA18     		add	r2, r7, r2
 3805 1cc6 1360     		str	r3, [r2]
 3806 1cc8 9C23     		mov	r3, #156
 3807 1cca 5B00     		lsl	r3, r3, #1
 3808 1ccc FB18     		add	r3, r7, r3
 3809 1cce 1B68     		ldr	r3, [r3]
 3810 1cd0 1B00     		lsl	r3, r3, #0
 3811 1cd2 9A22     		mov	r2, #154
 3812 1cd4 5200     		lsl	r2, r2, #1
 3813 1cd6 BA18     		add	r2, r7, r2
 3814 1cd8 1360     		str	r3, [r2]
 3815 1cda 0023     		mov	r3, #0
 3816 1cdc 9822     		mov	r2, #152
 3817 1cde 5200     		lsl	r2, r2, #1
 3818 1ce0 BA18     		add	r2, r7, r2
 3819 1ce2 1360     		str	r3, [r2]
 425:Source\FilteringFunctions/arm_conv_partial_fast_q31.c ****                           ((q63_t) * px++ * (*py--))) >> 32);
 3820              		.loc 1 425 0
 3821 1ce4 C023     		mov	r3, #192
 3822 1ce6 DB00     		lsl	r3, r3, #3
 3823 1ce8 FB18     		add	r3, r7, r3
 3824 1cea 1A68     		ldr	r2, [r3]
ARM GAS  C:\Users\fneves\AppData\Local\Temp\ccBJVvkW.s 			page 76


 3825 1cec 131D     		add	r3, r2, #4
 3826 1cee C021     		mov	r1, #192
 3827 1cf0 C900     		lsl	r1, r1, #3
 3828 1cf2 7918     		add	r1, r7, r1
 3829 1cf4 0B60     		str	r3, [r1]
 3830 1cf6 1368     		ldr	r3, [r2]
 3831 1cf8 9422     		mov	r2, #148
 3832 1cfa 5200     		lsl	r2, r2, #1
 3833 1cfc BA18     		add	r2, r7, r2
 3834 1cfe 1360     		str	r3, [r2]
 3835 1d00 DB17     		asr	r3, r3, #31
 3836 1d02 9622     		mov	r2, #150
 3837 1d04 5200     		lsl	r2, r2, #1
 3838 1d06 BA18     		add	r2, r7, r2
 3839 1d08 1360     		str	r3, [r2]
 3840 1d0a 294B     		ldr	r3, .L67
 3841 1d0c FB18     		add	r3, r7, r3
 3842 1d0e 1A68     		ldr	r2, [r3]
 3843 1d10 131F     		sub	r3, r2, #4
 3844 1d12 2749     		ldr	r1, .L67
 3845 1d14 7918     		add	r1, r7, r1
 3846 1d16 0B60     		str	r3, [r1]
 3847 1d18 1368     		ldr	r3, [r2]
 3848 1d1a 9022     		mov	r2, #144
 3849 1d1c 5200     		lsl	r2, r2, #1
 3850 1d1e BA18     		add	r2, r7, r2
 3851 1d20 1360     		str	r3, [r2]
 3852 1d22 DB17     		asr	r3, r3, #31
 3853 1d24 9222     		mov	r2, #146
 3854 1d26 5200     		lsl	r2, r2, #1
 3855 1d28 BA18     		add	r2, r7, r2
 3856 1d2a 1360     		str	r3, [r2]
 3857 1d2c 9423     		mov	r3, #148
 3858 1d2e 5B00     		lsl	r3, r3, #1
 3859 1d30 FB18     		add	r3, r7, r3
 3860 1d32 1868     		ldr	r0, [r3]
 3861 1d34 5968     		ldr	r1, [r3, #4]
 3862 1d36 9023     		mov	r3, #144
 3863 1d38 5B00     		lsl	r3, r3, #1
 3864 1d3a FB18     		add	r3, r7, r3
 3865 1d3c 1A68     		ldr	r2, [r3]
 3866 1d3e 5B68     		ldr	r3, [r3, #4]
 3867 1d40 FFF7FEFF 		bl	__aeabi_lmul
 3868 1d44 031C     		mov	r3, r0
 3869 1d46 0C1C     		mov	r4, r1
 424:Source\FilteringFunctions/arm_conv_partial_fast_q31.c ****           sum = (q31_t) ((((q63_t) sum << 32) +
 3870              		.loc 1 424 0
 3871 1d48 9822     		mov	r2, #152
 3872 1d4a 5200     		lsl	r2, r2, #1
 3873 1d4c BA18     		add	r2, r7, r2
 3874 1d4e 1168     		ldr	r1, [r2]
 3875 1d50 5268     		ldr	r2, [r2, #4]
 3876 1d52 5B18     		add	r3, r3, r1
 3877 1d54 5441     		adc	r4, r4, r2
 3878              		.loc 1 425 0
 3879 1d56 2200     		asr	r2, r4, #0
 3880 1d58 8C21     		mov	r1, #140
ARM GAS  C:\Users\fneves\AppData\Local\Temp\ccBJVvkW.s 			page 77


 3881 1d5a 4900     		lsl	r1, r1, #1
 3882 1d5c 7918     		add	r1, r7, r1
 3883 1d5e 0A60     		str	r2, [r1]
 3884 1d60 E317     		asr	r3, r4, #31
 3885 1d62 8E22     		mov	r2, #142
 3886 1d64 5200     		lsl	r2, r2, #1
 3887 1d66 BA18     		add	r2, r7, r2
 3888 1d68 1360     		str	r3, [r2]
 424:Source\FilteringFunctions/arm_conv_partial_fast_q31.c ****           sum = (q31_t) ((((q63_t) sum << 32) +
 3889              		.loc 1 424 0
 3890 1d6a 8C23     		mov	r3, #140
 3891 1d6c 5B00     		lsl	r3, r3, #1
 3892 1d6e FB18     		add	r3, r7, r3
 3893 1d70 1B68     		ldr	r3, [r3]
 3894 1d72 BE22     		mov	r2, #190
 3895 1d74 D200     		lsl	r2, r2, #3
 3896 1d76 BA18     		add	r2, r7, r2
 3897 1d78 1360     		str	r3, [r2]
 426:Source\FilteringFunctions/arm_conv_partial_fast_q31.c **** 
 427:Source\FilteringFunctions/arm_conv_partial_fast_q31.c ****           /* Decrement the loop counter */
 428:Source\FilteringFunctions/arm_conv_partial_fast_q31.c ****           k--;
 3898              		.loc 1 428 0
 3899 1d7a BA23     		mov	r3, #186
 3900 1d7c DB00     		lsl	r3, r3, #3
 3901 1d7e FB18     		add	r3, r7, r3
 3902 1d80 1B68     		ldr	r3, [r3]
 3903 1d82 013B     		sub	r3, r3, #1
 3904 1d84 BA22     		mov	r2, #186
 3905 1d86 D200     		lsl	r2, r2, #3
 3906 1d88 BA18     		add	r2, r7, r2
 3907 1d8a 1360     		str	r3, [r2]
 3908              	.L30:
 415:Source\FilteringFunctions/arm_conv_partial_fast_q31.c ****         {
 3909              		.loc 1 415 0
 3910 1d8c BA23     		mov	r3, #186
 3911 1d8e DB00     		lsl	r3, r3, #3
 3912 1d90 FB18     		add	r3, r7, r3
 3913 1d92 1B68     		ldr	r3, [r3]
 3914 1d94 002B     		cmp	r3, #0
 3915 1d96 00D0     		beq	.LCB3656
 3916 1d98 57E6     		b	.L31	@long jump
 3917              	.LCB3656:
 429:Source\FilteringFunctions/arm_conv_partial_fast_q31.c ****         }
 430:Source\FilteringFunctions/arm_conv_partial_fast_q31.c **** 
 431:Source\FilteringFunctions/arm_conv_partial_fast_q31.c ****         /* If the srcBLen is not a multiple of 4, compute any remaining MACs here.
 432:Source\FilteringFunctions/arm_conv_partial_fast_q31.c ****          ** No loop unrolling is used. */
 433:Source\FilteringFunctions/arm_conv_partial_fast_q31.c ****         k = srcBLen % 0x4u;
 3918              		.loc 1 433 0
 3919 1d9a B323     		mov	r3, #179
 3920 1d9c DB00     		lsl	r3, r3, #3
 3921 1d9e FB18     		add	r3, r7, r3
 3922 1da0 1A68     		ldr	r2, [r3]
 3923 1da2 0323     		mov	r3, #3
 3924 1da4 1340     		and	r3, r2
 3925 1da6 BA22     		mov	r2, #186
 3926 1da8 D200     		lsl	r2, r2, #3
 3927 1daa BA18     		add	r2, r7, r2
ARM GAS  C:\Users\fneves\AppData\Local\Temp\ccBJVvkW.s 			page 78


 3928 1dac 1360     		str	r3, [r2]
 434:Source\FilteringFunctions/arm_conv_partial_fast_q31.c **** 
 435:Source\FilteringFunctions/arm_conv_partial_fast_q31.c ****         while (k > 0u)
 3929              		.loc 1 435 0
 3930 1dae 67E0     		b	.L32
 3931              	.L68:
 3932              		.align	2
 3933              	.L67:
 3934 1db0 FC050000 		.word	1532
 3935              	.L33:
 436:Source\FilteringFunctions/arm_conv_partial_fast_q31.c ****         {
 437:Source\FilteringFunctions/arm_conv_partial_fast_q31.c ****           /* Perform the multiply-accumulate */
 438:Source\FilteringFunctions/arm_conv_partial_fast_q31.c ****           sum = (q31_t) ((((q63_t) sum << 32) +
 3936              		.loc 1 438 0
 3937 1db4 BE23     		mov	r3, #190
 3938 1db6 DB00     		lsl	r3, r3, #3
 3939 1db8 FB18     		add	r3, r7, r3
 3940 1dba 1B68     		ldr	r3, [r3]
 3941 1dbc 8822     		mov	r2, #136
 3942 1dbe 5200     		lsl	r2, r2, #1
 3943 1dc0 BA18     		add	r2, r7, r2
 3944 1dc2 1360     		str	r3, [r2]
 3945 1dc4 DB17     		asr	r3, r3, #31
 3946 1dc6 8A22     		mov	r2, #138
 3947 1dc8 5200     		lsl	r2, r2, #1
 3948 1dca BA18     		add	r2, r7, r2
 3949 1dcc 1360     		str	r3, [r2]
 3950 1dce 8823     		mov	r3, #136
 3951 1dd0 5B00     		lsl	r3, r3, #1
 3952 1dd2 FB18     		add	r3, r7, r3
 3953 1dd4 1B68     		ldr	r3, [r3]
 3954 1dd6 1B00     		lsl	r3, r3, #0
 3955 1dd8 8622     		mov	r2, #134
 3956 1dda 5200     		lsl	r2, r2, #1
 3957 1ddc BA18     		add	r2, r7, r2
 3958 1dde 1360     		str	r3, [r2]
 3959 1de0 0023     		mov	r3, #0
 3960 1de2 8422     		mov	r2, #132
 3961 1de4 5200     		lsl	r2, r2, #1
 3962 1de6 BA18     		add	r2, r7, r2
 3963 1de8 1360     		str	r3, [r2]
 439:Source\FilteringFunctions/arm_conv_partial_fast_q31.c ****                           ((q63_t) * px++ * (*py--))) >> 32);
 3964              		.loc 1 439 0
 3965 1dea C023     		mov	r3, #192
 3966 1dec DB00     		lsl	r3, r3, #3
 3967 1dee FB18     		add	r3, r7, r3
 3968 1df0 1A68     		ldr	r2, [r3]
 3969 1df2 131D     		add	r3, r2, #4
 3970 1df4 C021     		mov	r1, #192
 3971 1df6 C900     		lsl	r1, r1, #3
 3972 1df8 7918     		add	r1, r7, r1
 3973 1dfa 0B60     		str	r3, [r1]
 3974 1dfc 1368     		ldr	r3, [r2]
 3975 1dfe 7A1C     		add	r2, r7, #1
 3976 1e00 FF32     		add	r2, r2, #255
 3977 1e02 1360     		str	r3, [r2]
 3978 1e04 DB17     		asr	r3, r3, #31
ARM GAS  C:\Users\fneves\AppData\Local\Temp\ccBJVvkW.s 			page 79


 3979 1e06 7A1D     		add	r2, r7, #5
 3980 1e08 FF32     		add	r2, r2, #255
 3981 1e0a 1360     		str	r3, [r2]
 3982 1e0c B84B     		ldr	r3, .L69
 3983 1e0e FB18     		add	r3, r7, r3
 3984 1e10 1A68     		ldr	r2, [r3]
 3985 1e12 131F     		sub	r3, r2, #4
 3986 1e14 B649     		ldr	r1, .L69
 3987 1e16 7918     		add	r1, r7, r1
 3988 1e18 0B60     		str	r3, [r1]
 3989 1e1a 1368     		ldr	r3, [r2]
 3990 1e1c F822     		mov	r2, #248
 3991 1e1e BA18     		add	r2, r7, r2
 3992 1e20 1360     		str	r3, [r2]
 3993 1e22 DB17     		asr	r3, r3, #31
 3994 1e24 FC22     		mov	r2, #252
 3995 1e26 BA18     		add	r2, r7, r2
 3996 1e28 1360     		str	r3, [r2]
 3997 1e2a 7B1C     		add	r3, r7, #1
 3998 1e2c FF33     		add	r3, r3, #255
 3999 1e2e 1868     		ldr	r0, [r3]
 4000 1e30 5968     		ldr	r1, [r3, #4]
 4001 1e32 F823     		mov	r3, #248
 4002 1e34 FB18     		add	r3, r7, r3
 4003 1e36 1A68     		ldr	r2, [r3]
 4004 1e38 5B68     		ldr	r3, [r3, #4]
 4005 1e3a FFF7FEFF 		bl	__aeabi_lmul
 4006 1e3e 031C     		mov	r3, r0
 4007 1e40 0C1C     		mov	r4, r1
 438:Source\FilteringFunctions/arm_conv_partial_fast_q31.c ****                           ((q63_t) * px++ * (*py--))) >> 32);
 4008              		.loc 1 438 0
 4009 1e42 8422     		mov	r2, #132
 4010 1e44 5200     		lsl	r2, r2, #1
 4011 1e46 BA18     		add	r2, r7, r2
 4012 1e48 1168     		ldr	r1, [r2]
 4013 1e4a 5268     		ldr	r2, [r2, #4]
 4014 1e4c 5B18     		add	r3, r3, r1
 4015 1e4e 5441     		adc	r4, r4, r2
 4016              		.loc 1 439 0
 4017 1e50 2200     		asr	r2, r4, #0
 4018 1e52 F021     		mov	r1, #240
 4019 1e54 7918     		add	r1, r7, r1
 4020 1e56 0A60     		str	r2, [r1]
 4021 1e58 E317     		asr	r3, r4, #31
 4022 1e5a F422     		mov	r2, #244
 4023 1e5c BA18     		add	r2, r7, r2
 4024 1e5e 1360     		str	r3, [r2]
 438:Source\FilteringFunctions/arm_conv_partial_fast_q31.c ****                           ((q63_t) * px++ * (*py--))) >> 32);
 4025              		.loc 1 438 0
 4026 1e60 F023     		mov	r3, #240
 4027 1e62 FB18     		add	r3, r7, r3
 4028 1e64 1B68     		ldr	r3, [r3]
 4029 1e66 BE22     		mov	r2, #190
 4030 1e68 D200     		lsl	r2, r2, #3
 4031 1e6a BA18     		add	r2, r7, r2
 4032 1e6c 1360     		str	r3, [r2]
 440:Source\FilteringFunctions/arm_conv_partial_fast_q31.c **** 
ARM GAS  C:\Users\fneves\AppData\Local\Temp\ccBJVvkW.s 			page 80


 441:Source\FilteringFunctions/arm_conv_partial_fast_q31.c ****           /* Decrement the loop counter */
 442:Source\FilteringFunctions/arm_conv_partial_fast_q31.c ****           k--;
 4033              		.loc 1 442 0
 4034 1e6e BA23     		mov	r3, #186
 4035 1e70 DB00     		lsl	r3, r3, #3
 4036 1e72 FB18     		add	r3, r7, r3
 4037 1e74 1B68     		ldr	r3, [r3]
 4038 1e76 013B     		sub	r3, r3, #1
 4039 1e78 BA22     		mov	r2, #186
 4040 1e7a D200     		lsl	r2, r2, #3
 4041 1e7c BA18     		add	r2, r7, r2
 4042 1e7e 1360     		str	r3, [r2]
 4043              	.L32:
 435:Source\FilteringFunctions/arm_conv_partial_fast_q31.c ****         {
 4044              		.loc 1 435 0
 4045 1e80 BA23     		mov	r3, #186
 4046 1e82 DB00     		lsl	r3, r3, #3
 4047 1e84 FB18     		add	r3, r7, r3
 4048 1e86 1B68     		ldr	r3, [r3]
 4049 1e88 002B     		cmp	r3, #0
 4050 1e8a 93D1     		bne	.L33
 443:Source\FilteringFunctions/arm_conv_partial_fast_q31.c ****         }
 444:Source\FilteringFunctions/arm_conv_partial_fast_q31.c **** 
 445:Source\FilteringFunctions/arm_conv_partial_fast_q31.c ****         /* Store the result in the accumulator in the destination buffer. */
 446:Source\FilteringFunctions/arm_conv_partial_fast_q31.c ****         *pOut++ = sum << 1;
 4051              		.loc 1 446 0
 4052 1e8c 994B     		ldr	r3, .L69+4
 4053 1e8e FB18     		add	r3, r7, r3
 4054 1e90 1A68     		ldr	r2, [r3]
 4055 1e92 131D     		add	r3, r2, #4
 4056 1e94 9749     		ldr	r1, .L69+4
 4057 1e96 7918     		add	r1, r7, r1
 4058 1e98 0B60     		str	r3, [r1]
 4059 1e9a BE23     		mov	r3, #190
 4060 1e9c DB00     		lsl	r3, r3, #3
 4061 1e9e FB18     		add	r3, r7, r3
 4062 1ea0 1B68     		ldr	r3, [r3]
 4063 1ea2 5B00     		lsl	r3, r3, #1
 4064 1ea4 1360     		str	r3, [r2]
 447:Source\FilteringFunctions/arm_conv_partial_fast_q31.c **** 
 448:Source\FilteringFunctions/arm_conv_partial_fast_q31.c ****         /* Increment the MAC count */
 449:Source\FilteringFunctions/arm_conv_partial_fast_q31.c ****         count++;
 4065              		.loc 1 449 0
 4066 1ea6 944B     		ldr	r3, .L69+8
 4067 1ea8 FB18     		add	r3, r7, r3
 4068 1eaa 1B68     		ldr	r3, [r3]
 4069 1eac 0133     		add	r3, r3, #1
 4070 1eae 924A     		ldr	r2, .L69+8
 4071 1eb0 BA18     		add	r2, r7, r2
 4072 1eb2 1360     		str	r3, [r2]
 450:Source\FilteringFunctions/arm_conv_partial_fast_q31.c **** 
 451:Source\FilteringFunctions/arm_conv_partial_fast_q31.c ****         /* Update the inputA and inputB pointers for next MAC calculation */
 452:Source\FilteringFunctions/arm_conv_partial_fast_q31.c ****         px = pIn1 + count;
 4073              		.loc 1 452 0
 4074 1eb4 904B     		ldr	r3, .L69+8
 4075 1eb6 FB18     		add	r3, r7, r3
 4076 1eb8 1B68     		ldr	r3, [r3]
ARM GAS  C:\Users\fneves\AppData\Local\Temp\ccBJVvkW.s 			page 81


 4077 1eba 9A00     		lsl	r2, r3, #2
 4078 1ebc 8F4B     		ldr	r3, .L69+12
 4079 1ebe FB18     		add	r3, r7, r3
 4080 1ec0 1B68     		ldr	r3, [r3]
 4081 1ec2 9B18     		add	r3, r3, r2
 4082 1ec4 C022     		mov	r2, #192
 4083 1ec6 D200     		lsl	r2, r2, #3
 4084 1ec8 BA18     		add	r2, r7, r2
 4085 1eca 1360     		str	r3, [r2]
 453:Source\FilteringFunctions/arm_conv_partial_fast_q31.c ****         py = pSrc2;
 4086              		.loc 1 453 0
 4087 1ecc 8C4B     		ldr	r3, .L69+16
 4088 1ece FB18     		add	r3, r7, r3
 4089 1ed0 1B68     		ldr	r3, [r3]
 4090 1ed2 874A     		ldr	r2, .L69
 4091 1ed4 BA18     		add	r2, r7, r2
 4092 1ed6 1360     		str	r3, [r2]
 454:Source\FilteringFunctions/arm_conv_partial_fast_q31.c **** 
 455:Source\FilteringFunctions/arm_conv_partial_fast_q31.c ****         /* Decrement the loop counter */
 456:Source\FilteringFunctions/arm_conv_partial_fast_q31.c ****         blkCnt--;
 4093              		.loc 1 456 0
 4094 1ed8 B923     		mov	r3, #185
 4095 1eda DB00     		lsl	r3, r3, #3
 4096 1edc FB18     		add	r3, r7, r3
 4097 1ede 1B68     		ldr	r3, [r3]
 4098 1ee0 013B     		sub	r3, r3, #1
 4099 1ee2 B922     		mov	r2, #185
 4100 1ee4 D200     		lsl	r2, r2, #3
 4101 1ee6 BA18     		add	r2, r7, r2
 4102 1ee8 1360     		str	r3, [r2]
 4103              	.L29:
 405:Source\FilteringFunctions/arm_conv_partial_fast_q31.c ****       {
 4104              		.loc 1 405 0
 4105 1eea B923     		mov	r3, #185
 4106 1eec DB00     		lsl	r3, r3, #3
 4107 1eee FB18     		add	r3, r7, r3
 4108 1ef0 1B68     		ldr	r3, [r3]
 4109 1ef2 002B     		cmp	r3, #0
 4110 1ef4 00D0     		beq	.LCB3836
 4111 1ef6 99E5     		b	.L34	@long jump
 4112              	.LCB3836:
 4113 1ef8 B2E0     		b	.L35
 4114              	.L23:
 457:Source\FilteringFunctions/arm_conv_partial_fast_q31.c ****       }
 458:Source\FilteringFunctions/arm_conv_partial_fast_q31.c ****     }
 459:Source\FilteringFunctions/arm_conv_partial_fast_q31.c ****     else
 460:Source\FilteringFunctions/arm_conv_partial_fast_q31.c ****     {
 461:Source\FilteringFunctions/arm_conv_partial_fast_q31.c ****       /* If the srcBLen is not a multiple of 4,
 462:Source\FilteringFunctions/arm_conv_partial_fast_q31.c ****        * the blockSize2 loop cannot be unrolled by 4 */
 463:Source\FilteringFunctions/arm_conv_partial_fast_q31.c ****       blkCnt = (uint32_t) blockSize2;
 4115              		.loc 1 463 0
 4116 1efa B623     		mov	r3, #182
 4117 1efc DB00     		lsl	r3, r3, #3
 4118 1efe FB18     		add	r3, r7, r3
 4119 1f00 1B68     		ldr	r3, [r3]
 4120 1f02 B922     		mov	r2, #185
 4121 1f04 D200     		lsl	r2, r2, #3
ARM GAS  C:\Users\fneves\AppData\Local\Temp\ccBJVvkW.s 			page 82


 4122 1f06 BA18     		add	r2, r7, r2
 4123 1f08 1360     		str	r3, [r2]
 464:Source\FilteringFunctions/arm_conv_partial_fast_q31.c **** 
 465:Source\FilteringFunctions/arm_conv_partial_fast_q31.c ****       while (blkCnt > 0u)
 4124              		.loc 1 465 0
 4125 1f0a A2E0     		b	.L36
 4126              	.L39:
 466:Source\FilteringFunctions/arm_conv_partial_fast_q31.c ****       {
 467:Source\FilteringFunctions/arm_conv_partial_fast_q31.c ****         /* Accumulator is made zero for every iteration */
 468:Source\FilteringFunctions/arm_conv_partial_fast_q31.c ****         sum = 0;
 4127              		.loc 1 468 0
 4128 1f0c 0023     		mov	r3, #0
 4129 1f0e BE22     		mov	r2, #190
 4130 1f10 D200     		lsl	r2, r2, #3
 4131 1f12 BA18     		add	r2, r7, r2
 4132 1f14 1360     		str	r3, [r2]
 469:Source\FilteringFunctions/arm_conv_partial_fast_q31.c **** 
 470:Source\FilteringFunctions/arm_conv_partial_fast_q31.c ****         /* srcBLen number of MACS should be performed */
 471:Source\FilteringFunctions/arm_conv_partial_fast_q31.c ****         k = srcBLen;
 4133              		.loc 1 471 0
 4134 1f16 B323     		mov	r3, #179
 4135 1f18 DB00     		lsl	r3, r3, #3
 4136 1f1a FB18     		add	r3, r7, r3
 4137 1f1c 1B68     		ldr	r3, [r3]
 4138 1f1e BA22     		mov	r2, #186
 4139 1f20 D200     		lsl	r2, r2, #3
 4140 1f22 BA18     		add	r2, r7, r2
 4141 1f24 1360     		str	r3, [r2]
 472:Source\FilteringFunctions/arm_conv_partial_fast_q31.c **** 
 473:Source\FilteringFunctions/arm_conv_partial_fast_q31.c ****         while (k > 0u)
 4142              		.loc 1 473 0
 4143 1f26 5FE0     		b	.L37
 4144              	.L38:
 474:Source\FilteringFunctions/arm_conv_partial_fast_q31.c ****         {
 475:Source\FilteringFunctions/arm_conv_partial_fast_q31.c ****           /* Perform the multiply-accumulate */
 476:Source\FilteringFunctions/arm_conv_partial_fast_q31.c ****           sum = (q31_t) ((((q63_t) sum << 32) +
 4145              		.loc 1 476 0
 4146 1f28 BE23     		mov	r3, #190
 4147 1f2a DB00     		lsl	r3, r3, #3
 4148 1f2c FB18     		add	r3, r7, r3
 4149 1f2e 1B68     		ldr	r3, [r3]
 4150 1f30 E822     		mov	r2, #232
 4151 1f32 BA18     		add	r2, r7, r2
 4152 1f34 1360     		str	r3, [r2]
 4153 1f36 DB17     		asr	r3, r3, #31
 4154 1f38 EC22     		mov	r2, #236
 4155 1f3a BA18     		add	r2, r7, r2
 4156 1f3c 1360     		str	r3, [r2]
 4157 1f3e E823     		mov	r3, #232
 4158 1f40 FB18     		add	r3, r7, r3
 4159 1f42 1B68     		ldr	r3, [r3]
 4160 1f44 1B00     		lsl	r3, r3, #0
 4161 1f46 E422     		mov	r2, #228
 4162 1f48 BA18     		add	r2, r7, r2
 4163 1f4a 1360     		str	r3, [r2]
 4164 1f4c 0023     		mov	r3, #0
 4165 1f4e E022     		mov	r2, #224
ARM GAS  C:\Users\fneves\AppData\Local\Temp\ccBJVvkW.s 			page 83


 4166 1f50 BA18     		add	r2, r7, r2
 4167 1f52 1360     		str	r3, [r2]
 477:Source\FilteringFunctions/arm_conv_partial_fast_q31.c ****                           ((q63_t) * px++ * (*py--))) >> 32);
 4168              		.loc 1 477 0
 4169 1f54 C023     		mov	r3, #192
 4170 1f56 DB00     		lsl	r3, r3, #3
 4171 1f58 FB18     		add	r3, r7, r3
 4172 1f5a 1A68     		ldr	r2, [r3]
 4173 1f5c 131D     		add	r3, r2, #4
 4174 1f5e C021     		mov	r1, #192
 4175 1f60 C900     		lsl	r1, r1, #3
 4176 1f62 7918     		add	r1, r7, r1
 4177 1f64 0B60     		str	r3, [r1]
 4178 1f66 1368     		ldr	r3, [r2]
 4179 1f68 D822     		mov	r2, #216
 4180 1f6a BA18     		add	r2, r7, r2
 4181 1f6c 1360     		str	r3, [r2]
 4182 1f6e DB17     		asr	r3, r3, #31
 4183 1f70 DC22     		mov	r2, #220
 4184 1f72 BA18     		add	r2, r7, r2
 4185 1f74 1360     		str	r3, [r2]
 4186 1f76 5E4B     		ldr	r3, .L69
 4187 1f78 FB18     		add	r3, r7, r3
 4188 1f7a 1A68     		ldr	r2, [r3]
 4189 1f7c 131F     		sub	r3, r2, #4
 4190 1f7e 5C49     		ldr	r1, .L69
 4191 1f80 7918     		add	r1, r7, r1
 4192 1f82 0B60     		str	r3, [r1]
 4193 1f84 1368     		ldr	r3, [r2]
 4194 1f86 D022     		mov	r2, #208
 4195 1f88 BA18     		add	r2, r7, r2
 4196 1f8a 1360     		str	r3, [r2]
 4197 1f8c DB17     		asr	r3, r3, #31
 4198 1f8e D422     		mov	r2, #212
 4199 1f90 BA18     		add	r2, r7, r2
 4200 1f92 1360     		str	r3, [r2]
 4201 1f94 D823     		mov	r3, #216
 4202 1f96 FB18     		add	r3, r7, r3
 4203 1f98 1868     		ldr	r0, [r3]
 4204 1f9a 5968     		ldr	r1, [r3, #4]
 4205 1f9c D023     		mov	r3, #208
 4206 1f9e FB18     		add	r3, r7, r3
 4207 1fa0 1A68     		ldr	r2, [r3]
 4208 1fa2 5B68     		ldr	r3, [r3, #4]
 4209 1fa4 FFF7FEFF 		bl	__aeabi_lmul
 4210 1fa8 031C     		mov	r3, r0
 4211 1faa 0C1C     		mov	r4, r1
 476:Source\FilteringFunctions/arm_conv_partial_fast_q31.c ****                           ((q63_t) * px++ * (*py--))) >> 32);
 4212              		.loc 1 476 0
 4213 1fac E022     		mov	r2, #224
 4214 1fae BA18     		add	r2, r7, r2
 4215 1fb0 1168     		ldr	r1, [r2]
 4216 1fb2 5268     		ldr	r2, [r2, #4]
 4217 1fb4 5B18     		add	r3, r3, r1
 4218 1fb6 5441     		adc	r4, r4, r2
 4219              		.loc 1 477 0
 4220 1fb8 2200     		asr	r2, r4, #0
ARM GAS  C:\Users\fneves\AppData\Local\Temp\ccBJVvkW.s 			page 84


 4221 1fba C821     		mov	r1, #200
 4222 1fbc 7918     		add	r1, r7, r1
 4223 1fbe 0A60     		str	r2, [r1]
 4224 1fc0 E317     		asr	r3, r4, #31
 4225 1fc2 CC22     		mov	r2, #204
 4226 1fc4 BA18     		add	r2, r7, r2
 4227 1fc6 1360     		str	r3, [r2]
 476:Source\FilteringFunctions/arm_conv_partial_fast_q31.c ****                           ((q63_t) * px++ * (*py--))) >> 32);
 4228              		.loc 1 476 0
 4229 1fc8 C823     		mov	r3, #200
 4230 1fca FB18     		add	r3, r7, r3
 4231 1fcc 1B68     		ldr	r3, [r3]
 4232 1fce BE22     		mov	r2, #190
 4233 1fd0 D200     		lsl	r2, r2, #3
 4234 1fd2 BA18     		add	r2, r7, r2
 4235 1fd4 1360     		str	r3, [r2]
 478:Source\FilteringFunctions/arm_conv_partial_fast_q31.c **** 
 479:Source\FilteringFunctions/arm_conv_partial_fast_q31.c ****           /* Decrement the loop counter */
 480:Source\FilteringFunctions/arm_conv_partial_fast_q31.c ****           k--;
 4236              		.loc 1 480 0
 4237 1fd6 BA23     		mov	r3, #186
 4238 1fd8 DB00     		lsl	r3, r3, #3
 4239 1fda FB18     		add	r3, r7, r3
 4240 1fdc 1B68     		ldr	r3, [r3]
 4241 1fde 013B     		sub	r3, r3, #1
 4242 1fe0 BA22     		mov	r2, #186
 4243 1fe2 D200     		lsl	r2, r2, #3
 4244 1fe4 BA18     		add	r2, r7, r2
 4245 1fe6 1360     		str	r3, [r2]
 4246              	.L37:
 473:Source\FilteringFunctions/arm_conv_partial_fast_q31.c ****         {
 4247              		.loc 1 473 0
 4248 1fe8 BA23     		mov	r3, #186
 4249 1fea DB00     		lsl	r3, r3, #3
 4250 1fec FB18     		add	r3, r7, r3
 4251 1fee 1B68     		ldr	r3, [r3]
 4252 1ff0 002B     		cmp	r3, #0
 4253 1ff2 99D1     		bne	.L38
 481:Source\FilteringFunctions/arm_conv_partial_fast_q31.c ****         }
 482:Source\FilteringFunctions/arm_conv_partial_fast_q31.c **** 
 483:Source\FilteringFunctions/arm_conv_partial_fast_q31.c ****         /* Store the result in the accumulator in the destination buffer. */
 484:Source\FilteringFunctions/arm_conv_partial_fast_q31.c ****         *pOut++ = sum << 1;
 4254              		.loc 1 484 0
 4255 1ff4 3F4B     		ldr	r3, .L69+4
 4256 1ff6 FB18     		add	r3, r7, r3
 4257 1ff8 1A68     		ldr	r2, [r3]
 4258 1ffa 131D     		add	r3, r2, #4
 4259 1ffc 3D49     		ldr	r1, .L69+4
 4260 1ffe 7918     		add	r1, r7, r1
 4261 2000 0B60     		str	r3, [r1]
 4262 2002 BE23     		mov	r3, #190
 4263 2004 DB00     		lsl	r3, r3, #3
 4264 2006 FB18     		add	r3, r7, r3
 4265 2008 1B68     		ldr	r3, [r3]
 4266 200a 5B00     		lsl	r3, r3, #1
 4267 200c 1360     		str	r3, [r2]
 485:Source\FilteringFunctions/arm_conv_partial_fast_q31.c **** 
ARM GAS  C:\Users\fneves\AppData\Local\Temp\ccBJVvkW.s 			page 85


 486:Source\FilteringFunctions/arm_conv_partial_fast_q31.c ****         /* Increment the MAC count */
 487:Source\FilteringFunctions/arm_conv_partial_fast_q31.c ****         count++;
 4268              		.loc 1 487 0
 4269 200e 3A4B     		ldr	r3, .L69+8
 4270 2010 FB18     		add	r3, r7, r3
 4271 2012 1B68     		ldr	r3, [r3]
 4272 2014 0133     		add	r3, r3, #1
 4273 2016 384A     		ldr	r2, .L69+8
 4274 2018 BA18     		add	r2, r7, r2
 4275 201a 1360     		str	r3, [r2]
 488:Source\FilteringFunctions/arm_conv_partial_fast_q31.c **** 
 489:Source\FilteringFunctions/arm_conv_partial_fast_q31.c ****         /* Update the inputA and inputB pointers for next MAC calculation */
 490:Source\FilteringFunctions/arm_conv_partial_fast_q31.c ****         px = pIn1 + count;
 4276              		.loc 1 490 0
 4277 201c 364B     		ldr	r3, .L69+8
 4278 201e FB18     		add	r3, r7, r3
 4279 2020 1B68     		ldr	r3, [r3]
 4280 2022 9A00     		lsl	r2, r3, #2
 4281 2024 354B     		ldr	r3, .L69+12
 4282 2026 FB18     		add	r3, r7, r3
 4283 2028 1B68     		ldr	r3, [r3]
 4284 202a 9B18     		add	r3, r3, r2
 4285 202c C022     		mov	r2, #192
 4286 202e D200     		lsl	r2, r2, #3
 4287 2030 BA18     		add	r2, r7, r2
 4288 2032 1360     		str	r3, [r2]
 491:Source\FilteringFunctions/arm_conv_partial_fast_q31.c ****         py = pSrc2;
 4289              		.loc 1 491 0
 4290 2034 324B     		ldr	r3, .L69+16
 4291 2036 FB18     		add	r3, r7, r3
 4292 2038 1B68     		ldr	r3, [r3]
 4293 203a 2D4A     		ldr	r2, .L69
 4294 203c BA18     		add	r2, r7, r2
 4295 203e 1360     		str	r3, [r2]
 492:Source\FilteringFunctions/arm_conv_partial_fast_q31.c **** 
 493:Source\FilteringFunctions/arm_conv_partial_fast_q31.c ****         /* Decrement the loop counter */
 494:Source\FilteringFunctions/arm_conv_partial_fast_q31.c ****         blkCnt--;
 4296              		.loc 1 494 0
 4297 2040 B923     		mov	r3, #185
 4298 2042 DB00     		lsl	r3, r3, #3
 4299 2044 FB18     		add	r3, r7, r3
 4300 2046 1B68     		ldr	r3, [r3]
 4301 2048 013B     		sub	r3, r3, #1
 4302 204a B922     		mov	r2, #185
 4303 204c D200     		lsl	r2, r2, #3
 4304 204e BA18     		add	r2, r7, r2
 4305 2050 1360     		str	r3, [r2]
 4306              	.L36:
 465:Source\FilteringFunctions/arm_conv_partial_fast_q31.c ****       {
 4307              		.loc 1 465 0
 4308 2052 B923     		mov	r3, #185
 4309 2054 DB00     		lsl	r3, r3, #3
 4310 2056 FB18     		add	r3, r7, r3
 4311 2058 1B68     		ldr	r3, [r3]
 4312 205a 002B     		cmp	r3, #0
 4313 205c 00D0     		beq	.LCB4023
 4314 205e 55E7     		b	.L39	@long jump
ARM GAS  C:\Users\fneves\AppData\Local\Temp\ccBJVvkW.s 			page 86


 4315              	.LCB4023:
 4316              	.L35:
 495:Source\FilteringFunctions/arm_conv_partial_fast_q31.c ****       }
 496:Source\FilteringFunctions/arm_conv_partial_fast_q31.c ****     }
 497:Source\FilteringFunctions/arm_conv_partial_fast_q31.c **** 
 498:Source\FilteringFunctions/arm_conv_partial_fast_q31.c **** 
 499:Source\FilteringFunctions/arm_conv_partial_fast_q31.c ****     /* --------------------------
 500:Source\FilteringFunctions/arm_conv_partial_fast_q31.c ****      * Initializations of stage3
 501:Source\FilteringFunctions/arm_conv_partial_fast_q31.c ****      * -------------------------*/
 502:Source\FilteringFunctions/arm_conv_partial_fast_q31.c **** 
 503:Source\FilteringFunctions/arm_conv_partial_fast_q31.c ****     /* sum += x[srcALen-srcBLen+1] * y[srcBLen-1] + x[srcALen-srcBLen+2] * y[srcBLen-2] +...+ x[src
 504:Source\FilteringFunctions/arm_conv_partial_fast_q31.c ****      * sum += x[srcALen-srcBLen+2] * y[srcBLen-1] + x[srcALen-srcBLen+3] * y[srcBLen-2] +...+ x[src
 505:Source\FilteringFunctions/arm_conv_partial_fast_q31.c ****      * ....
 506:Source\FilteringFunctions/arm_conv_partial_fast_q31.c ****      * sum +=  x[srcALen-2] * y[srcBLen-1] + x[srcALen-1] * y[srcBLen-2]
 507:Source\FilteringFunctions/arm_conv_partial_fast_q31.c ****      * sum +=  x[srcALen-1] * y[srcBLen-1]
 508:Source\FilteringFunctions/arm_conv_partial_fast_q31.c ****      */
 509:Source\FilteringFunctions/arm_conv_partial_fast_q31.c **** 
 510:Source\FilteringFunctions/arm_conv_partial_fast_q31.c ****     /* In this stage the MAC operations are decreased by 1 for every iteration.
 511:Source\FilteringFunctions/arm_conv_partial_fast_q31.c ****        The count variable holds the number of MAC operations performed */
 512:Source\FilteringFunctions/arm_conv_partial_fast_q31.c ****     count = srcBLen - 1u;
 4317              		.loc 1 512 0
 4318 2060 B323     		mov	r3, #179
 4319 2062 DB00     		lsl	r3, r3, #3
 4320 2064 FB18     		add	r3, r7, r3
 4321 2066 1B68     		ldr	r3, [r3]
 4322 2068 013B     		sub	r3, r3, #1
 4323 206a 234A     		ldr	r2, .L69+8
 4324 206c BA18     		add	r2, r7, r2
 4325 206e 1360     		str	r3, [r2]
 513:Source\FilteringFunctions/arm_conv_partial_fast_q31.c **** 
 514:Source\FilteringFunctions/arm_conv_partial_fast_q31.c ****     /* Working pointer of inputA */
 515:Source\FilteringFunctions/arm_conv_partial_fast_q31.c ****     pSrc1 = (pIn1 + srcALen) - (srcBLen - 1u);
 4326              		.loc 1 515 0
 4327 2070 B423     		mov	r3, #180
 4328 2072 DB00     		lsl	r3, r3, #3
 4329 2074 FB18     		add	r3, r7, r3
 4330 2076 1A68     		ldr	r2, [r3]
 4331 2078 B323     		mov	r3, #179
 4332 207a DB00     		lsl	r3, r3, #3
 4333 207c FB18     		add	r3, r7, r3
 4334 207e 1B68     		ldr	r3, [r3]
 4335 2080 D31A     		sub	r3, r2, r3
 4336 2082 0133     		add	r3, r3, #1
 4337 2084 9A00     		lsl	r2, r3, #2
 4338 2086 1D4B     		ldr	r3, .L69+12
 4339 2088 FB18     		add	r3, r7, r3
 4340 208a 1B68     		ldr	r3, [r3]
 4341 208c 9B18     		add	r3, r3, r2
 4342 208e BF22     		mov	r2, #191
 4343 2090 D200     		lsl	r2, r2, #3
 4344 2092 BA18     		add	r2, r7, r2
 4345 2094 1360     		str	r3, [r2]
 516:Source\FilteringFunctions/arm_conv_partial_fast_q31.c ****     px = pSrc1;
 4346              		.loc 1 516 0
 4347 2096 BF23     		mov	r3, #191
 4348 2098 DB00     		lsl	r3, r3, #3
 4349 209a FB18     		add	r3, r7, r3
ARM GAS  C:\Users\fneves\AppData\Local\Temp\ccBJVvkW.s 			page 87


 4350 209c 1B68     		ldr	r3, [r3]
 4351 209e C022     		mov	r2, #192
 4352 20a0 D200     		lsl	r2, r2, #3
 4353 20a2 BA18     		add	r2, r7, r2
 4354 20a4 1360     		str	r3, [r2]
 517:Source\FilteringFunctions/arm_conv_partial_fast_q31.c **** 
 518:Source\FilteringFunctions/arm_conv_partial_fast_q31.c ****     /* Working pointer of inputB */
 519:Source\FilteringFunctions/arm_conv_partial_fast_q31.c ****     pSrc2 = pIn2 + (srcBLen - 1u);
 4355              		.loc 1 519 0
 4356 20a6 B323     		mov	r3, #179
 4357 20a8 DB00     		lsl	r3, r3, #3
 4358 20aa FB18     		add	r3, r7, r3
 4359 20ac 1B68     		ldr	r3, [r3]
 4360 20ae 154A     		ldr	r2, .L69+20
 4361 20b0 9446     		mov	ip, r2
 4362 20b2 6344     		add	r3, r3, ip
 4363 20b4 9A00     		lsl	r2, r3, #2
 4364 20b6 C123     		mov	r3, #193
 4365 20b8 DB00     		lsl	r3, r3, #3
 4366 20ba FB18     		add	r3, r7, r3
 4367 20bc 1B68     		ldr	r3, [r3]
 4368 20be 9B18     		add	r3, r3, r2
 4369 20c0 0F4A     		ldr	r2, .L69+16
 4370 20c2 BA18     		add	r2, r7, r2
 4371 20c4 1360     		str	r3, [r2]
 520:Source\FilteringFunctions/arm_conv_partial_fast_q31.c ****     py = pSrc2;
 4372              		.loc 1 520 0
 4373 20c6 0E4B     		ldr	r3, .L69+16
 4374 20c8 FB18     		add	r3, r7, r3
 4375 20ca 1B68     		ldr	r3, [r3]
 4376 20cc 084A     		ldr	r2, .L69
 4377 20ce BA18     		add	r2, r7, r2
 4378 20d0 1360     		str	r3, [r2]
 521:Source\FilteringFunctions/arm_conv_partial_fast_q31.c **** 
 522:Source\FilteringFunctions/arm_conv_partial_fast_q31.c ****     /* -------------------
 523:Source\FilteringFunctions/arm_conv_partial_fast_q31.c ****      * Stage3 process
 524:Source\FilteringFunctions/arm_conv_partial_fast_q31.c ****      * ------------------*/
 525:Source\FilteringFunctions/arm_conv_partial_fast_q31.c **** 
 526:Source\FilteringFunctions/arm_conv_partial_fast_q31.c ****     while (blockSize3 > 0)
 4379              		.loc 1 526 0
 4380 20d2 C9E1     		b	.L40
 4381              	.L45:
 527:Source\FilteringFunctions/arm_conv_partial_fast_q31.c ****     {
 528:Source\FilteringFunctions/arm_conv_partial_fast_q31.c ****       /* Accumulator is made zero for every iteration */
 529:Source\FilteringFunctions/arm_conv_partial_fast_q31.c ****       sum = 0;
 4382              		.loc 1 529 0
 4383 20d4 0023     		mov	r3, #0
 4384 20d6 BE22     		mov	r2, #190
 4385 20d8 D200     		lsl	r2, r2, #3
 4386 20da BA18     		add	r2, r7, r2
 4387 20dc 1360     		str	r3, [r2]
 530:Source\FilteringFunctions/arm_conv_partial_fast_q31.c **** 
 531:Source\FilteringFunctions/arm_conv_partial_fast_q31.c ****       /* Apply loop unrolling and compute 4 MACs simultaneously. */
 532:Source\FilteringFunctions/arm_conv_partial_fast_q31.c ****       k = count >> 2u;
 4388              		.loc 1 532 0
 4389 20de 064B     		ldr	r3, .L69+8
 4390 20e0 FB18     		add	r3, r7, r3
ARM GAS  C:\Users\fneves\AppData\Local\Temp\ccBJVvkW.s 			page 88


 4391 20e2 1B68     		ldr	r3, [r3]
 4392 20e4 9B08     		lsr	r3, r3, #2
 4393 20e6 BA22     		mov	r2, #186
 4394 20e8 D200     		lsl	r2, r2, #3
 4395 20ea BA18     		add	r2, r7, r2
 4396 20ec 1360     		str	r3, [r2]
 533:Source\FilteringFunctions/arm_conv_partial_fast_q31.c **** 
 534:Source\FilteringFunctions/arm_conv_partial_fast_q31.c ****       /* First part of the processing with loop unrolling.  Compute 4 MACs at a time.
 535:Source\FilteringFunctions/arm_conv_partial_fast_q31.c ****        ** a second loop below computes MACs for the remaining 1 to 3 samples. */
 536:Source\FilteringFunctions/arm_conv_partial_fast_q31.c ****       while (k > 0u)
 4397              		.loc 1 536 0
 4398 20ee 2EE1     		b	.L41
 4399              	.L70:
 4400              		.align	2
 4401              	.L69:
 4402 20f0 FC050000 		.word	1532
 4403 20f4 04060000 		.word	1540
 4404 20f8 CC050000 		.word	1484
 4405 20fc 0C060000 		.word	1548
 4406 2100 F4050000 		.word	1524
 4407 2104 FFFFFF3F 		.word	1073741823
 4408              	.L42:
 537:Source\FilteringFunctions/arm_conv_partial_fast_q31.c ****       {
 538:Source\FilteringFunctions/arm_conv_partial_fast_q31.c ****         /* sum += x[srcALen - srcBLen + 1] * y[srcBLen - 1] */
 539:Source\FilteringFunctions/arm_conv_partial_fast_q31.c ****         sum = (q31_t) ((((q63_t) sum << 32) +
 4409              		.loc 1 539 0
 4410 2108 BE23     		mov	r3, #190
 4411 210a DB00     		lsl	r3, r3, #3
 4412 210c FB18     		add	r3, r7, r3
 4413 210e 1B68     		ldr	r3, [r3]
 4414 2110 C022     		mov	r2, #192
 4415 2112 BA18     		add	r2, r7, r2
 4416 2114 1360     		str	r3, [r2]
 4417 2116 DB17     		asr	r3, r3, #31
 4418 2118 C422     		mov	r2, #196
 4419 211a BA18     		add	r2, r7, r2
 4420 211c 1360     		str	r3, [r2]
 4421 211e C023     		mov	r3, #192
 4422 2120 FB18     		add	r3, r7, r3
 4423 2122 1B68     		ldr	r3, [r3]
 4424 2124 1B00     		lsl	r3, r3, #0
 4425 2126 BC22     		mov	r2, #188
 4426 2128 BA18     		add	r2, r7, r2
 4427 212a 1360     		str	r3, [r2]
 4428 212c 0023     		mov	r3, #0
 4429 212e B822     		mov	r2, #184
 4430 2130 BA18     		add	r2, r7, r2
 4431 2132 1360     		str	r3, [r2]
 540:Source\FilteringFunctions/arm_conv_partial_fast_q31.c ****                         ((q63_t) * px++ * (*py--))) >> 32);
 4432              		.loc 1 540 0
 4433 2134 C023     		mov	r3, #192
 4434 2136 DB00     		lsl	r3, r3, #3
 4435 2138 FB18     		add	r3, r7, r3
 4436 213a 1A68     		ldr	r2, [r3]
 4437 213c 131D     		add	r3, r2, #4
 4438 213e C021     		mov	r1, #192
 4439 2140 C900     		lsl	r1, r1, #3
ARM GAS  C:\Users\fneves\AppData\Local\Temp\ccBJVvkW.s 			page 89


 4440 2142 7918     		add	r1, r7, r1
 4441 2144 0B60     		str	r3, [r1]
 4442 2146 1368     		ldr	r3, [r2]
 4443 2148 B022     		mov	r2, #176
 4444 214a BA18     		add	r2, r7, r2
 4445 214c 1360     		str	r3, [r2]
 4446 214e DB17     		asr	r3, r3, #31
 4447 2150 B422     		mov	r2, #180
 4448 2152 BA18     		add	r2, r7, r2
 4449 2154 1360     		str	r3, [r2]
 4450 2156 D24B     		ldr	r3, .L71
 4451 2158 FB18     		add	r3, r7, r3
 4452 215a 1A68     		ldr	r2, [r3]
 4453 215c 131F     		sub	r3, r2, #4
 4454 215e D049     		ldr	r1, .L71
 4455 2160 7918     		add	r1, r7, r1
 4456 2162 0B60     		str	r3, [r1]
 4457 2164 1368     		ldr	r3, [r2]
 4458 2166 A822     		mov	r2, #168
 4459 2168 BA18     		add	r2, r7, r2
 4460 216a 1360     		str	r3, [r2]
 4461 216c DB17     		asr	r3, r3, #31
 4462 216e AC22     		mov	r2, #172
 4463 2170 BA18     		add	r2, r7, r2
 4464 2172 1360     		str	r3, [r2]
 4465 2174 B023     		mov	r3, #176
 4466 2176 FB18     		add	r3, r7, r3
 4467 2178 1868     		ldr	r0, [r3]
 4468 217a 5968     		ldr	r1, [r3, #4]
 4469 217c A823     		mov	r3, #168
 4470 217e FB18     		add	r3, r7, r3
 4471 2180 1A68     		ldr	r2, [r3]
 4472 2182 5B68     		ldr	r3, [r3, #4]
 4473 2184 FFF7FEFF 		bl	__aeabi_lmul
 4474 2188 031C     		mov	r3, r0
 4475 218a 0C1C     		mov	r4, r1
 539:Source\FilteringFunctions/arm_conv_partial_fast_q31.c ****                         ((q63_t) * px++ * (*py--))) >> 32);
 4476              		.loc 1 539 0
 4477 218c B822     		mov	r2, #184
 4478 218e BA18     		add	r2, r7, r2
 4479 2190 1168     		ldr	r1, [r2]
 4480 2192 5268     		ldr	r2, [r2, #4]
 4481 2194 5B18     		add	r3, r3, r1
 4482 2196 5441     		adc	r4, r4, r2
 4483              		.loc 1 540 0
 4484 2198 2200     		asr	r2, r4, #0
 4485 219a A021     		mov	r1, #160
 4486 219c 7918     		add	r1, r7, r1
 4487 219e 0A60     		str	r2, [r1]
 4488 21a0 E317     		asr	r3, r4, #31
 4489 21a2 A422     		mov	r2, #164
 4490 21a4 BA18     		add	r2, r7, r2
 4491 21a6 1360     		str	r3, [r2]
 539:Source\FilteringFunctions/arm_conv_partial_fast_q31.c ****                         ((q63_t) * px++ * (*py--))) >> 32);
 4492              		.loc 1 539 0
 4493 21a8 A023     		mov	r3, #160
 4494 21aa FB18     		add	r3, r7, r3
ARM GAS  C:\Users\fneves\AppData\Local\Temp\ccBJVvkW.s 			page 90


 4495 21ac 1B68     		ldr	r3, [r3]
 4496 21ae BE22     		mov	r2, #190
 4497 21b0 D200     		lsl	r2, r2, #3
 4498 21b2 BA18     		add	r2, r7, r2
 4499 21b4 1360     		str	r3, [r2]
 541:Source\FilteringFunctions/arm_conv_partial_fast_q31.c **** 
 542:Source\FilteringFunctions/arm_conv_partial_fast_q31.c ****         /* sum += x[srcALen - srcBLen + 2] * y[srcBLen - 2] */
 543:Source\FilteringFunctions/arm_conv_partial_fast_q31.c ****         sum = (q31_t) ((((q63_t) sum << 32) +
 4500              		.loc 1 543 0
 4501 21b6 BE23     		mov	r3, #190
 4502 21b8 DB00     		lsl	r3, r3, #3
 4503 21ba FB18     		add	r3, r7, r3
 4504 21bc 1B68     		ldr	r3, [r3]
 4505 21be 9822     		mov	r2, #152
 4506 21c0 BA18     		add	r2, r7, r2
 4507 21c2 1360     		str	r3, [r2]
 4508 21c4 DB17     		asr	r3, r3, #31
 4509 21c6 9C22     		mov	r2, #156
 4510 21c8 BA18     		add	r2, r7, r2
 4511 21ca 1360     		str	r3, [r2]
 4512 21cc 9823     		mov	r3, #152
 4513 21ce FB18     		add	r3, r7, r3
 4514 21d0 1B68     		ldr	r3, [r3]
 4515 21d2 1B00     		lsl	r3, r3, #0
 4516 21d4 9422     		mov	r2, #148
 4517 21d6 BA18     		add	r2, r7, r2
 4518 21d8 1360     		str	r3, [r2]
 4519 21da 0023     		mov	r3, #0
 4520 21dc 9022     		mov	r2, #144
 4521 21de BA18     		add	r2, r7, r2
 4522 21e0 1360     		str	r3, [r2]
 544:Source\FilteringFunctions/arm_conv_partial_fast_q31.c ****                         ((q63_t) * px++ * (*py--))) >> 32);
 4523              		.loc 1 544 0
 4524 21e2 C023     		mov	r3, #192
 4525 21e4 DB00     		lsl	r3, r3, #3
 4526 21e6 FB18     		add	r3, r7, r3
 4527 21e8 1A68     		ldr	r2, [r3]
 4528 21ea 131D     		add	r3, r2, #4
 4529 21ec C021     		mov	r1, #192
 4530 21ee C900     		lsl	r1, r1, #3
 4531 21f0 7918     		add	r1, r7, r1
 4532 21f2 0B60     		str	r3, [r1]
 4533 21f4 1368     		ldr	r3, [r2]
 4534 21f6 8822     		mov	r2, #136
 4535 21f8 BA18     		add	r2, r7, r2
 4536 21fa 1360     		str	r3, [r2]
 4537 21fc DB17     		asr	r3, r3, #31
 4538 21fe 8C22     		mov	r2, #140
 4539 2200 BA18     		add	r2, r7, r2
 4540 2202 1360     		str	r3, [r2]
 4541 2204 A64B     		ldr	r3, .L71
 4542 2206 FB18     		add	r3, r7, r3
 4543 2208 1A68     		ldr	r2, [r3]
 4544 220a 131F     		sub	r3, r2, #4
 4545 220c A449     		ldr	r1, .L71
 4546 220e 7918     		add	r1, r7, r1
 4547 2210 0B60     		str	r3, [r1]
ARM GAS  C:\Users\fneves\AppData\Local\Temp\ccBJVvkW.s 			page 91


 4548 2212 1368     		ldr	r3, [r2]
 4549 2214 8022     		mov	r2, #128
 4550 2216 BA18     		add	r2, r7, r2
 4551 2218 1360     		str	r3, [r2]
 4552 221a DB17     		asr	r3, r3, #31
 4553 221c 8422     		mov	r2, #132
 4554 221e BA18     		add	r2, r7, r2
 4555 2220 1360     		str	r3, [r2]
 4556 2222 8823     		mov	r3, #136
 4557 2224 FB18     		add	r3, r7, r3
 4558 2226 1868     		ldr	r0, [r3]
 4559 2228 5968     		ldr	r1, [r3, #4]
 4560 222a 8023     		mov	r3, #128
 4561 222c FB18     		add	r3, r7, r3
 4562 222e 1A68     		ldr	r2, [r3]
 4563 2230 5B68     		ldr	r3, [r3, #4]
 4564 2232 FFF7FEFF 		bl	__aeabi_lmul
 4565 2236 031C     		mov	r3, r0
 4566 2238 0C1C     		mov	r4, r1
 543:Source\FilteringFunctions/arm_conv_partial_fast_q31.c ****                         ((q63_t) * px++ * (*py--))) >> 32);
 4567              		.loc 1 543 0
 4568 223a 9022     		mov	r2, #144
 4569 223c BA18     		add	r2, r7, r2
 4570 223e 1168     		ldr	r1, [r2]
 4571 2240 5268     		ldr	r2, [r2, #4]
 4572 2242 5B18     		add	r3, r3, r1
 4573 2244 5441     		adc	r4, r4, r2
 4574              		.loc 1 544 0
 4575 2246 2200     		asr	r2, r4, #0
 4576 2248 BA67     		str	r2, [r7, #120]
 4577 224a E317     		asr	r3, r4, #31
 4578 224c FB67     		str	r3, [r7, #124]
 543:Source\FilteringFunctions/arm_conv_partial_fast_q31.c ****                         ((q63_t) * px++ * (*py--))) >> 32);
 4579              		.loc 1 543 0
 4580 224e BB6F     		ldr	r3, [r7, #120]
 4581 2250 BE22     		mov	r2, #190
 4582 2252 D200     		lsl	r2, r2, #3
 4583 2254 BA18     		add	r2, r7, r2
 4584 2256 1360     		str	r3, [r2]
 545:Source\FilteringFunctions/arm_conv_partial_fast_q31.c **** 
 546:Source\FilteringFunctions/arm_conv_partial_fast_q31.c ****         /* sum += x[srcALen - srcBLen + 3] * y[srcBLen - 3] */
 547:Source\FilteringFunctions/arm_conv_partial_fast_q31.c ****         sum = (q31_t) ((((q63_t) sum << 32) +
 4585              		.loc 1 547 0
 4586 2258 BE23     		mov	r3, #190
 4587 225a DB00     		lsl	r3, r3, #3
 4588 225c FB18     		add	r3, r7, r3
 4589 225e 1B68     		ldr	r3, [r3]
 4590 2260 3B67     		str	r3, [r7, #112]
 4591 2262 DB17     		asr	r3, r3, #31
 4592 2264 7B67     		str	r3, [r7, #116]
 4593 2266 3B6F     		ldr	r3, [r7, #112]
 4594 2268 1B00     		lsl	r3, r3, #0
 4595 226a FB66     		str	r3, [r7, #108]
 4596 226c 0023     		mov	r3, #0
 4597 226e BB66     		str	r3, [r7, #104]
 548:Source\FilteringFunctions/arm_conv_partial_fast_q31.c ****                         ((q63_t) * px++ * (*py--))) >> 32);
 4598              		.loc 1 548 0
ARM GAS  C:\Users\fneves\AppData\Local\Temp\ccBJVvkW.s 			page 92


 4599 2270 C023     		mov	r3, #192
 4600 2272 DB00     		lsl	r3, r3, #3
 4601 2274 FB18     		add	r3, r7, r3
 4602 2276 1A68     		ldr	r2, [r3]
 4603 2278 131D     		add	r3, r2, #4
 4604 227a C021     		mov	r1, #192
 4605 227c C900     		lsl	r1, r1, #3
 4606 227e 7918     		add	r1, r7, r1
 4607 2280 0B60     		str	r3, [r1]
 4608 2282 1368     		ldr	r3, [r2]
 4609 2284 3B66     		str	r3, [r7, #96]
 4610 2286 DB17     		asr	r3, r3, #31
 4611 2288 7B66     		str	r3, [r7, #100]
 4612 228a 854B     		ldr	r3, .L71
 4613 228c FB18     		add	r3, r7, r3
 4614 228e 1A68     		ldr	r2, [r3]
 4615 2290 131F     		sub	r3, r2, #4
 4616 2292 8349     		ldr	r1, .L71
 4617 2294 7918     		add	r1, r7, r1
 4618 2296 0B60     		str	r3, [r1]
 4619 2298 1368     		ldr	r3, [r2]
 4620 229a BB65     		str	r3, [r7, #88]
 4621 229c DB17     		asr	r3, r3, #31
 4622 229e FB65     		str	r3, [r7, #92]
 4623 22a0 386E     		ldr	r0, [r7, #96]
 4624 22a2 796E     		ldr	r1, [r7, #100]
 4625 22a4 BA6D     		ldr	r2, [r7, #88]
 4626 22a6 FB6D     		ldr	r3, [r7, #92]
 4627 22a8 FFF7FEFF 		bl	__aeabi_lmul
 4628 22ac 031C     		mov	r3, r0
 4629 22ae 0C1C     		mov	r4, r1
 547:Source\FilteringFunctions/arm_conv_partial_fast_q31.c ****                         ((q63_t) * px++ * (*py--))) >> 32);
 4630              		.loc 1 547 0
 4631 22b0 B96E     		ldr	r1, [r7, #104]
 4632 22b2 FA6E     		ldr	r2, [r7, #108]
 4633 22b4 5B18     		add	r3, r3, r1
 4634 22b6 5441     		adc	r4, r4, r2
 4635              		.loc 1 548 0
 4636 22b8 2200     		asr	r2, r4, #0
 4637 22ba 3A65     		str	r2, [r7, #80]
 4638 22bc E317     		asr	r3, r4, #31
 4639 22be 7B65     		str	r3, [r7, #84]
 547:Source\FilteringFunctions/arm_conv_partial_fast_q31.c ****                         ((q63_t) * px++ * (*py--))) >> 32);
 4640              		.loc 1 547 0
 4641 22c0 3B6D     		ldr	r3, [r7, #80]
 4642 22c2 BE22     		mov	r2, #190
 4643 22c4 D200     		lsl	r2, r2, #3
 4644 22c6 BA18     		add	r2, r7, r2
 4645 22c8 1360     		str	r3, [r2]
 549:Source\FilteringFunctions/arm_conv_partial_fast_q31.c **** 
 550:Source\FilteringFunctions/arm_conv_partial_fast_q31.c ****         /* sum += x[srcALen - srcBLen + 4] * y[srcBLen - 4] */
 551:Source\FilteringFunctions/arm_conv_partial_fast_q31.c ****         sum = (q31_t) ((((q63_t) sum << 32) +
 4646              		.loc 1 551 0
 4647 22ca BE23     		mov	r3, #190
 4648 22cc DB00     		lsl	r3, r3, #3
 4649 22ce FB18     		add	r3, r7, r3
 4650 22d0 1B68     		ldr	r3, [r3]
ARM GAS  C:\Users\fneves\AppData\Local\Temp\ccBJVvkW.s 			page 93


 4651 22d2 BB64     		str	r3, [r7, #72]
 4652 22d4 DB17     		asr	r3, r3, #31
 4653 22d6 FB64     		str	r3, [r7, #76]
 4654 22d8 BB6C     		ldr	r3, [r7, #72]
 4655 22da 1B00     		lsl	r3, r3, #0
 4656 22dc 7B64     		str	r3, [r7, #68]
 4657 22de 0023     		mov	r3, #0
 4658 22e0 3B64     		str	r3, [r7, #64]
 552:Source\FilteringFunctions/arm_conv_partial_fast_q31.c ****                         ((q63_t) * px++ * (*py--))) >> 32);
 4659              		.loc 1 552 0
 4660 22e2 C023     		mov	r3, #192
 4661 22e4 DB00     		lsl	r3, r3, #3
 4662 22e6 FB18     		add	r3, r7, r3
 4663 22e8 1A68     		ldr	r2, [r3]
 4664 22ea 131D     		add	r3, r2, #4
 4665 22ec C021     		mov	r1, #192
 4666 22ee C900     		lsl	r1, r1, #3
 4667 22f0 7918     		add	r1, r7, r1
 4668 22f2 0B60     		str	r3, [r1]
 4669 22f4 1368     		ldr	r3, [r2]
 4670 22f6 BB63     		str	r3, [r7, #56]
 4671 22f8 DB17     		asr	r3, r3, #31
 4672 22fa FB63     		str	r3, [r7, #60]
 4673 22fc 684B     		ldr	r3, .L71
 4674 22fe FB18     		add	r3, r7, r3
 4675 2300 1A68     		ldr	r2, [r3]
 4676 2302 131F     		sub	r3, r2, #4
 4677 2304 6649     		ldr	r1, .L71
 4678 2306 7918     		add	r1, r7, r1
 4679 2308 0B60     		str	r3, [r1]
 4680 230a 1368     		ldr	r3, [r2]
 4681 230c 3B63     		str	r3, [r7, #48]
 4682 230e DB17     		asr	r3, r3, #31
 4683 2310 7B63     		str	r3, [r7, #52]
 4684 2312 B86B     		ldr	r0, [r7, #56]
 4685 2314 F96B     		ldr	r1, [r7, #60]
 4686 2316 3A6B     		ldr	r2, [r7, #48]
 4687 2318 7B6B     		ldr	r3, [r7, #52]
 4688 231a FFF7FEFF 		bl	__aeabi_lmul
 4689 231e 031C     		mov	r3, r0
 4690 2320 0C1C     		mov	r4, r1
 551:Source\FilteringFunctions/arm_conv_partial_fast_q31.c ****                         ((q63_t) * px++ * (*py--))) >> 32);
 4691              		.loc 1 551 0
 4692 2322 396C     		ldr	r1, [r7, #64]
 4693 2324 7A6C     		ldr	r2, [r7, #68]
 4694 2326 5B18     		add	r3, r3, r1
 4695 2328 5441     		adc	r4, r4, r2
 4696              		.loc 1 552 0
 4697 232a 2200     		asr	r2, r4, #0
 4698 232c BA62     		str	r2, [r7, #40]
 4699 232e E317     		asr	r3, r4, #31
 4700 2330 FB62     		str	r3, [r7, #44]
 551:Source\FilteringFunctions/arm_conv_partial_fast_q31.c ****                         ((q63_t) * px++ * (*py--))) >> 32);
 4701              		.loc 1 551 0
 4702 2332 BB6A     		ldr	r3, [r7, #40]
 4703 2334 BE22     		mov	r2, #190
 4704 2336 D200     		lsl	r2, r2, #3
ARM GAS  C:\Users\fneves\AppData\Local\Temp\ccBJVvkW.s 			page 94


 4705 2338 BA18     		add	r2, r7, r2
 4706 233a 1360     		str	r3, [r2]
 553:Source\FilteringFunctions/arm_conv_partial_fast_q31.c **** 
 554:Source\FilteringFunctions/arm_conv_partial_fast_q31.c ****         /* Decrement the loop counter */
 555:Source\FilteringFunctions/arm_conv_partial_fast_q31.c ****         k--;
 4707              		.loc 1 555 0
 4708 233c BA23     		mov	r3, #186
 4709 233e DB00     		lsl	r3, r3, #3
 4710 2340 FB18     		add	r3, r7, r3
 4711 2342 1B68     		ldr	r3, [r3]
 4712 2344 013B     		sub	r3, r3, #1
 4713 2346 BA22     		mov	r2, #186
 4714 2348 D200     		lsl	r2, r2, #3
 4715 234a BA18     		add	r2, r7, r2
 4716 234c 1360     		str	r3, [r2]
 4717              	.L41:
 536:Source\FilteringFunctions/arm_conv_partial_fast_q31.c ****       {
 4718              		.loc 1 536 0
 4719 234e BA23     		mov	r3, #186
 4720 2350 DB00     		lsl	r3, r3, #3
 4721 2352 FB18     		add	r3, r7, r3
 4722 2354 1B68     		ldr	r3, [r3]
 4723 2356 002B     		cmp	r3, #0
 4724 2358 00D0     		beq	.LCB4392
 4725 235a D5E6     		b	.L42	@long jump
 4726              	.LCB4392:
 556:Source\FilteringFunctions/arm_conv_partial_fast_q31.c ****       }
 557:Source\FilteringFunctions/arm_conv_partial_fast_q31.c **** 
 558:Source\FilteringFunctions/arm_conv_partial_fast_q31.c ****       /* If the count is not a multiple of 4, compute any remaining MACs here.
 559:Source\FilteringFunctions/arm_conv_partial_fast_q31.c ****        ** No loop unrolling is used. */
 560:Source\FilteringFunctions/arm_conv_partial_fast_q31.c ****       k = count % 0x4u;
 4727              		.loc 1 560 0
 4728 235c 514B     		ldr	r3, .L71+4
 4729 235e FB18     		add	r3, r7, r3
 4730 2360 1A68     		ldr	r2, [r3]
 4731 2362 0323     		mov	r3, #3
 4732 2364 1340     		and	r3, r2
 4733 2366 BA22     		mov	r2, #186
 4734 2368 D200     		lsl	r2, r2, #3
 4735 236a BA18     		add	r2, r7, r2
 4736 236c 1360     		str	r3, [r2]
 561:Source\FilteringFunctions/arm_conv_partial_fast_q31.c **** 
 562:Source\FilteringFunctions/arm_conv_partial_fast_q31.c ****       while (k > 0u)
 4737              		.loc 1 562 0
 4738 236e 41E0     		b	.L43
 4739              	.L44:
 563:Source\FilteringFunctions/arm_conv_partial_fast_q31.c ****       {
 564:Source\FilteringFunctions/arm_conv_partial_fast_q31.c ****         /* Perform the multiply-accumulates */
 565:Source\FilteringFunctions/arm_conv_partial_fast_q31.c ****         /* sum +=  x[srcALen-1] * y[srcBLen-1] */
 566:Source\FilteringFunctions/arm_conv_partial_fast_q31.c ****         sum = (q31_t) ((((q63_t) sum << 32) +
 4740              		.loc 1 566 0
 4741 2370 BE23     		mov	r3, #190
 4742 2372 DB00     		lsl	r3, r3, #3
 4743 2374 FB18     		add	r3, r7, r3
 4744 2376 1B68     		ldr	r3, [r3]
 4745 2378 3B62     		str	r3, [r7, #32]
 4746 237a DB17     		asr	r3, r3, #31
ARM GAS  C:\Users\fneves\AppData\Local\Temp\ccBJVvkW.s 			page 95


 4747 237c 7B62     		str	r3, [r7, #36]
 4748 237e 3B6A     		ldr	r3, [r7, #32]
 4749 2380 1B00     		lsl	r3, r3, #0
 4750 2382 FB61     		str	r3, [r7, #28]
 4751 2384 0023     		mov	r3, #0
 4752 2386 BB61     		str	r3, [r7, #24]
 567:Source\FilteringFunctions/arm_conv_partial_fast_q31.c ****                         ((q63_t) * px++ * (*py--))) >> 32);
 4753              		.loc 1 567 0
 4754 2388 C023     		mov	r3, #192
 4755 238a DB00     		lsl	r3, r3, #3
 4756 238c FB18     		add	r3, r7, r3
 4757 238e 1A68     		ldr	r2, [r3]
 4758 2390 131D     		add	r3, r2, #4
 4759 2392 C021     		mov	r1, #192
 4760 2394 C900     		lsl	r1, r1, #3
 4761 2396 7918     		add	r1, r7, r1
 4762 2398 0B60     		str	r3, [r1]
 4763 239a 1368     		ldr	r3, [r2]
 4764 239c 3B61     		str	r3, [r7, #16]
 4765 239e DB17     		asr	r3, r3, #31
 4766 23a0 7B61     		str	r3, [r7, #20]
 4767 23a2 3F4B     		ldr	r3, .L71
 4768 23a4 FB18     		add	r3, r7, r3
 4769 23a6 1A68     		ldr	r2, [r3]
 4770 23a8 131F     		sub	r3, r2, #4
 4771 23aa 3D49     		ldr	r1, .L71
 4772 23ac 7918     		add	r1, r7, r1
 4773 23ae 0B60     		str	r3, [r1]
 4774 23b0 1368     		ldr	r3, [r2]
 4775 23b2 BB60     		str	r3, [r7, #8]
 4776 23b4 DB17     		asr	r3, r3, #31
 4777 23b6 FB60     		str	r3, [r7, #12]
 4778 23b8 3869     		ldr	r0, [r7, #16]
 4779 23ba 7969     		ldr	r1, [r7, #20]
 4780 23bc BA68     		ldr	r2, [r7, #8]
 4781 23be FB68     		ldr	r3, [r7, #12]
 4782 23c0 FFF7FEFF 		bl	__aeabi_lmul
 4783 23c4 031C     		mov	r3, r0
 4784 23c6 0C1C     		mov	r4, r1
 566:Source\FilteringFunctions/arm_conv_partial_fast_q31.c ****                         ((q63_t) * px++ * (*py--))) >> 32);
 4785              		.loc 1 566 0
 4786 23c8 B969     		ldr	r1, [r7, #24]
 4787 23ca FA69     		ldr	r2, [r7, #28]
 4788 23cc 5B18     		add	r3, r3, r1
 4789 23ce 5441     		adc	r4, r4, r2
 4790              		.loc 1 567 0
 4791 23d0 2200     		asr	r2, r4, #0
 4792 23d2 3A60     		str	r2, [r7]
 4793 23d4 E317     		asr	r3, r4, #31
 4794 23d6 7B60     		str	r3, [r7, #4]
 566:Source\FilteringFunctions/arm_conv_partial_fast_q31.c ****                         ((q63_t) * px++ * (*py--))) >> 32);
 4795              		.loc 1 566 0
 4796 23d8 3B68     		ldr	r3, [r7]
 4797 23da BE22     		mov	r2, #190
 4798 23dc D200     		lsl	r2, r2, #3
 4799 23de BA18     		add	r2, r7, r2
 4800 23e0 1360     		str	r3, [r2]
ARM GAS  C:\Users\fneves\AppData\Local\Temp\ccBJVvkW.s 			page 96


 568:Source\FilteringFunctions/arm_conv_partial_fast_q31.c **** 
 569:Source\FilteringFunctions/arm_conv_partial_fast_q31.c ****         /* Decrement the loop counter */
 570:Source\FilteringFunctions/arm_conv_partial_fast_q31.c ****         k--;
 4801              		.loc 1 570 0
 4802 23e2 BA23     		mov	r3, #186
 4803 23e4 DB00     		lsl	r3, r3, #3
 4804 23e6 FB18     		add	r3, r7, r3
 4805 23e8 1B68     		ldr	r3, [r3]
 4806 23ea 013B     		sub	r3, r3, #1
 4807 23ec BA22     		mov	r2, #186
 4808 23ee D200     		lsl	r2, r2, #3
 4809 23f0 BA18     		add	r2, r7, r2
 4810 23f2 1360     		str	r3, [r2]
 4811              	.L43:
 562:Source\FilteringFunctions/arm_conv_partial_fast_q31.c ****       {
 4812              		.loc 1 562 0
 4813 23f4 BA23     		mov	r3, #186
 4814 23f6 DB00     		lsl	r3, r3, #3
 4815 23f8 FB18     		add	r3, r7, r3
 4816 23fa 1B68     		ldr	r3, [r3]
 4817 23fc 002B     		cmp	r3, #0
 4818 23fe B7D1     		bne	.L44
 571:Source\FilteringFunctions/arm_conv_partial_fast_q31.c ****       }
 572:Source\FilteringFunctions/arm_conv_partial_fast_q31.c **** 
 573:Source\FilteringFunctions/arm_conv_partial_fast_q31.c ****       /* Store the result in the accumulator in the destination buffer. */
 574:Source\FilteringFunctions/arm_conv_partial_fast_q31.c ****       *pOut++ = sum << 1;
 4819              		.loc 1 574 0
 4820 2400 294B     		ldr	r3, .L71+8
 4821 2402 FB18     		add	r3, r7, r3
 4822 2404 1A68     		ldr	r2, [r3]
 4823 2406 131D     		add	r3, r2, #4
 4824 2408 2749     		ldr	r1, .L71+8
 4825 240a 7918     		add	r1, r7, r1
 4826 240c 0B60     		str	r3, [r1]
 4827 240e BE23     		mov	r3, #190
 4828 2410 DB00     		lsl	r3, r3, #3
 4829 2412 FB18     		add	r3, r7, r3
 4830 2414 1B68     		ldr	r3, [r3]
 4831 2416 5B00     		lsl	r3, r3, #1
 4832 2418 1360     		str	r3, [r2]
 575:Source\FilteringFunctions/arm_conv_partial_fast_q31.c **** 
 576:Source\FilteringFunctions/arm_conv_partial_fast_q31.c ****       /* Update the inputA and inputB pointers for next MAC calculation */
 577:Source\FilteringFunctions/arm_conv_partial_fast_q31.c ****       px = ++pSrc1;
 4833              		.loc 1 577 0
 4834 241a BF23     		mov	r3, #191
 4835 241c DB00     		lsl	r3, r3, #3
 4836 241e FB18     		add	r3, r7, r3
 4837 2420 1B68     		ldr	r3, [r3]
 4838 2422 0433     		add	r3, r3, #4
 4839 2424 BF22     		mov	r2, #191
 4840 2426 D200     		lsl	r2, r2, #3
 4841 2428 BA18     		add	r2, r7, r2
 4842 242a 1360     		str	r3, [r2]
 4843 242c BF23     		mov	r3, #191
 4844 242e DB00     		lsl	r3, r3, #3
 4845 2430 FB18     		add	r3, r7, r3
 4846 2432 1B68     		ldr	r3, [r3]
ARM GAS  C:\Users\fneves\AppData\Local\Temp\ccBJVvkW.s 			page 97


 4847 2434 C022     		mov	r2, #192
 4848 2436 D200     		lsl	r2, r2, #3
 4849 2438 BA18     		add	r2, r7, r2
 4850 243a 1360     		str	r3, [r2]
 578:Source\FilteringFunctions/arm_conv_partial_fast_q31.c ****       py = pSrc2;
 4851              		.loc 1 578 0
 4852 243c 1B4B     		ldr	r3, .L71+12
 4853 243e FB18     		add	r3, r7, r3
 4854 2440 1B68     		ldr	r3, [r3]
 4855 2442 174A     		ldr	r2, .L71
 4856 2444 BA18     		add	r2, r7, r2
 4857 2446 1360     		str	r3, [r2]
 579:Source\FilteringFunctions/arm_conv_partial_fast_q31.c **** 
 580:Source\FilteringFunctions/arm_conv_partial_fast_q31.c ****       /* Decrement the MAC count */
 581:Source\FilteringFunctions/arm_conv_partial_fast_q31.c ****       count--;
 4858              		.loc 1 581 0
 4859 2448 164B     		ldr	r3, .L71+4
 4860 244a FB18     		add	r3, r7, r3
 4861 244c 1B68     		ldr	r3, [r3]
 4862 244e 013B     		sub	r3, r3, #1
 4863 2450 144A     		ldr	r2, .L71+4
 4864 2452 BA18     		add	r2, r7, r2
 4865 2454 1360     		str	r3, [r2]
 582:Source\FilteringFunctions/arm_conv_partial_fast_q31.c **** 
 583:Source\FilteringFunctions/arm_conv_partial_fast_q31.c ****       /* Decrement the loop counter */
 584:Source\FilteringFunctions/arm_conv_partial_fast_q31.c ****       blockSize3--;
 4866              		.loc 1 584 0
 4867 2456 B823     		mov	r3, #184
 4868 2458 DB00     		lsl	r3, r3, #3
 4869 245a FB18     		add	r3, r7, r3
 4870 245c 1B68     		ldr	r3, [r3]
 4871 245e 013B     		sub	r3, r3, #1
 4872 2460 B822     		mov	r2, #184
 4873 2462 D200     		lsl	r2, r2, #3
 4874 2464 BA18     		add	r2, r7, r2
 4875 2466 1360     		str	r3, [r2]
 4876              	.L40:
 526:Source\FilteringFunctions/arm_conv_partial_fast_q31.c ****     {
 4877              		.loc 1 526 0
 4878 2468 B823     		mov	r3, #184
 4879 246a DB00     		lsl	r3, r3, #3
 4880 246c FB18     		add	r3, r7, r3
 4881 246e 1B68     		ldr	r3, [r3]
 4882 2470 002B     		cmp	r3, #0
 4883 2472 00DD     		ble	.LCB4534
 4884 2474 2EE6     		b	.L45	@long jump
 4885              	.LCB4534:
 585:Source\FilteringFunctions/arm_conv_partial_fast_q31.c **** 
 586:Source\FilteringFunctions/arm_conv_partial_fast_q31.c ****     }
 587:Source\FilteringFunctions/arm_conv_partial_fast_q31.c **** 
