ARM GAS  C:\Users\fneves\AppData\Local\Temp\cc4ctGOh.s 			page 1


   1              		.cpu cortex-m0plus
   2              		.fpu softvfp
   3              		.eabi_attribute 20, 1
   4              		.eabi_attribute 21, 1
   5              		.eabi_attribute 23, 3
   6              		.eabi_attribute 24, 1
   7              		.eabi_attribute 25, 1
   8              		.eabi_attribute 26, 1
   9              		.eabi_attribute 30, 6
  10              		.eabi_attribute 34, 0
  11              		.eabi_attribute 18, 4
  12              		.code	16
  13              		.file	"arm_rfft_fast_init_f32.c"
  14              		.text
  15              	.Ltext0:
  16              		.cfi_sections	.debug_frame
  17              		.section	.text.arm_rfft_fast_init_f32,"ax",%progbits
  18              		.align	2
  19              		.global	arm_rfft_fast_init_f32
  20              		.code	16
  21              		.thumb_func
  22              		.type	arm_rfft_fast_init_f32, %function
  23              	arm_rfft_fast_init_f32:
  24              	.LFB82:
  25              		.file 1 "Source\\TransformFunctions\\arm_rfft_fast_init_f32.c"
   1:Source\TransformFunctions/arm_rfft_fast_init_f32.c **** /* ----------------------------------------------------------------------
   2:Source\TransformFunctions/arm_rfft_fast_init_f32.c ****  * Project:      CMSIS DSP Library
   3:Source\TransformFunctions/arm_rfft_fast_init_f32.c ****  * Title:        arm_cfft_init_f32.c
   4:Source\TransformFunctions/arm_rfft_fast_init_f32.c ****  * Description:  Split Radix Decimation in Frequency CFFT Floating point processing function
   5:Source\TransformFunctions/arm_rfft_fast_init_f32.c ****  *
   6:Source\TransformFunctions/arm_rfft_fast_init_f32.c ****  * $Date:        27. January 2017
   7:Source\TransformFunctions/arm_rfft_fast_init_f32.c ****  * $Revision:    V.1.5.1
   8:Source\TransformFunctions/arm_rfft_fast_init_f32.c ****  *
   9:Source\TransformFunctions/arm_rfft_fast_init_f32.c ****  * Target Processor: Cortex-M cores
  10:Source\TransformFunctions/arm_rfft_fast_init_f32.c ****  * -------------------------------------------------------------------- */
  11:Source\TransformFunctions/arm_rfft_fast_init_f32.c **** /*
  12:Source\TransformFunctions/arm_rfft_fast_init_f32.c ****  * Copyright (C) 2010-2017 ARM Limited or its affiliates. All rights reserved.
  13:Source\TransformFunctions/arm_rfft_fast_init_f32.c ****  *
  14:Source\TransformFunctions/arm_rfft_fast_init_f32.c ****  * SPDX-License-Identifier: Apache-2.0
  15:Source\TransformFunctions/arm_rfft_fast_init_f32.c ****  *
  16:Source\TransformFunctions/arm_rfft_fast_init_f32.c ****  * Licensed under the Apache License, Version 2.0 (the License); you may
  17:Source\TransformFunctions/arm_rfft_fast_init_f32.c ****  * not use this file except in compliance with the License.
  18:Source\TransformFunctions/arm_rfft_fast_init_f32.c ****  * You may obtain a copy of the License at
  19:Source\TransformFunctions/arm_rfft_fast_init_f32.c ****  *
  20:Source\TransformFunctions/arm_rfft_fast_init_f32.c ****  * www.apache.org/licenses/LICENSE-2.0
  21:Source\TransformFunctions/arm_rfft_fast_init_f32.c ****  *
  22:Source\TransformFunctions/arm_rfft_fast_init_f32.c ****  * Unless required by applicable law or agreed to in writing, software
  23:Source\TransformFunctions/arm_rfft_fast_init_f32.c ****  * distributed under the License is distributed on an AS IS BASIS, WITHOUT
  24:Source\TransformFunctions/arm_rfft_fast_init_f32.c ****  * WARRANTIES OR CONDITIONS OF ANY KIND, either express or implied.
  25:Source\TransformFunctions/arm_rfft_fast_init_f32.c ****  * See the License for the specific language governing permissions and
  26:Source\TransformFunctions/arm_rfft_fast_init_f32.c ****  * limitations under the License.
  27:Source\TransformFunctions/arm_rfft_fast_init_f32.c ****  */
  28:Source\TransformFunctions/arm_rfft_fast_init_f32.c **** 
  29:Source\TransformFunctions/arm_rfft_fast_init_f32.c **** #include "arm_math.h"
  30:Source\TransformFunctions/arm_rfft_fast_init_f32.c **** #include "arm_common_tables.h"
  31:Source\TransformFunctions/arm_rfft_fast_init_f32.c **** 
  32:Source\TransformFunctions/arm_rfft_fast_init_f32.c **** /**
ARM GAS  C:\Users\fneves\AppData\Local\Temp\cc4ctGOh.s 			page 2


  33:Source\TransformFunctions/arm_rfft_fast_init_f32.c ****  * @ingroup groupTransforms
  34:Source\TransformFunctions/arm_rfft_fast_init_f32.c ****  */
  35:Source\TransformFunctions/arm_rfft_fast_init_f32.c **** 
  36:Source\TransformFunctions/arm_rfft_fast_init_f32.c **** /**
  37:Source\TransformFunctions/arm_rfft_fast_init_f32.c ****  * @addtogroup RealFFT
  38:Source\TransformFunctions/arm_rfft_fast_init_f32.c ****  * @{
  39:Source\TransformFunctions/arm_rfft_fast_init_f32.c ****  */
  40:Source\TransformFunctions/arm_rfft_fast_init_f32.c **** 
  41:Source\TransformFunctions/arm_rfft_fast_init_f32.c **** /**
  42:Source\TransformFunctions/arm_rfft_fast_init_f32.c **** * @brief  Initialization function for the floating-point real FFT.
  43:Source\TransformFunctions/arm_rfft_fast_init_f32.c **** * @param[in,out] *S             points to an arm_rfft_fast_instance_f32 structure.
  44:Source\TransformFunctions/arm_rfft_fast_init_f32.c **** * @param[in]     fftLen         length of the Real Sequence.
  45:Source\TransformFunctions/arm_rfft_fast_init_f32.c **** * @return        The function returns ARM_MATH_SUCCESS if initialization is successful or ARM_MATH_
  46:Source\TransformFunctions/arm_rfft_fast_init_f32.c **** *
  47:Source\TransformFunctions/arm_rfft_fast_init_f32.c **** * \par Description:
  48:Source\TransformFunctions/arm_rfft_fast_init_f32.c **** * \par
  49:Source\TransformFunctions/arm_rfft_fast_init_f32.c **** * The parameter <code>fftLen</code>	Specifies length of RFFT/CIFFT process. Supported FFT Lengths a
  50:Source\TransformFunctions/arm_rfft_fast_init_f32.c **** * \par
  51:Source\TransformFunctions/arm_rfft_fast_init_f32.c **** * This Function also initializes Twiddle factor table pointer and Bit reversal table pointer.
  52:Source\TransformFunctions/arm_rfft_fast_init_f32.c **** */
  53:Source\TransformFunctions/arm_rfft_fast_init_f32.c **** arm_status arm_rfft_fast_init_f32(
  54:Source\TransformFunctions/arm_rfft_fast_init_f32.c ****   arm_rfft_fast_instance_f32 * S,
  55:Source\TransformFunctions/arm_rfft_fast_init_f32.c ****   uint16_t fftLen)
  56:Source\TransformFunctions/arm_rfft_fast_init_f32.c **** {
  26              		.loc 1 56 0
  27              		.cfi_startproc
  28 0000 80B5     		push	{r7, lr}
  29              		.cfi_def_cfa_offset 8
  30              		.cfi_offset 7, -8
  31              		.cfi_offset 14, -4
  32 0002 84B0     		sub	sp, sp, #16
  33              		.cfi_def_cfa_offset 24
  34 0004 00AF     		add	r7, sp, #0
  35              		.cfi_def_cfa_register 7
  36 0006 7860     		str	r0, [r7, #4]
  37 0008 0A1C     		mov	r2, r1
  38 000a BB1C     		add	r3, r7, #2
  39 000c 1A80     		strh	r2, [r3]
  57:Source\TransformFunctions/arm_rfft_fast_init_f32.c ****   arm_cfft_instance_f32 * Sint;
  58:Source\TransformFunctions/arm_rfft_fast_init_f32.c ****   /*  Initialise the default arm status */
  59:Source\TransformFunctions/arm_rfft_fast_init_f32.c ****   arm_status status = ARM_MATH_SUCCESS;
  40              		.loc 1 59 0
  41 000e 0F23     		mov	r3, #15
  42 0010 FB18     		add	r3, r7, r3
  43 0012 0022     		mov	r2, #0
  44 0014 1A70     		strb	r2, [r3]
  60:Source\TransformFunctions/arm_rfft_fast_init_f32.c ****   /*  Initialise the FFT length */
  61:Source\TransformFunctions/arm_rfft_fast_init_f32.c ****   Sint = &(S->Sint);
  45              		.loc 1 61 0
  46 0016 7B68     		ldr	r3, [r7, #4]
  47 0018 BB60     		str	r3, [r7, #8]
  62:Source\TransformFunctions/arm_rfft_fast_init_f32.c ****   Sint->fftLen = fftLen/2;
  48              		.loc 1 62 0
  49 001a BB1C     		add	r3, r7, #2
  50 001c 1B88     		ldrh	r3, [r3]
  51 001e 5B08     		lsr	r3, r3, #1
  52 0020 9AB2     		uxth	r2, r3
ARM GAS  C:\Users\fneves\AppData\Local\Temp\cc4ctGOh.s 			page 3


  53 0022 BB68     		ldr	r3, [r7, #8]
  54 0024 1A80     		strh	r2, [r3]
  63:Source\TransformFunctions/arm_rfft_fast_init_f32.c ****   S->fftLenRFFT = fftLen;
  55              		.loc 1 63 0
  56 0026 7B68     		ldr	r3, [r7, #4]
  57 0028 BA1C     		add	r2, r7, #2
  58 002a 1288     		ldrh	r2, [r2]
  59 002c 1A82     		strh	r2, [r3, #16]
  64:Source\TransformFunctions/arm_rfft_fast_init_f32.c **** 
  65:Source\TransformFunctions/arm_rfft_fast_init_f32.c ****   /*  Initializations of structure parameters depending on the FFT length */
  66:Source\TransformFunctions/arm_rfft_fast_init_f32.c ****   switch (Sint->fftLen)
  60              		.loc 1 66 0
  61 002e BB68     		ldr	r3, [r7, #8]
  62 0030 1B88     		ldrh	r3, [r3]
  63 0032 802B     		cmp	r3, #128
  64 0034 56D0     		beq	.L3
  65 0036 08DC     		bgt	.L4
  66 0038 202B     		cmp	r3, #32
  67 003a 00D1     		bne	.LCB39
  68 003c 6CE0     		b	.L5	@long jump
  69              	.LCB39:
  70 003e 402B     		cmp	r3, #64
  71 0040 5DD0     		beq	.L6
  72 0042 102B     		cmp	r3, #16
  73 0044 00D1     		bne	.LCB43
  74 0046 74E0     		b	.L7	@long jump
  75              	.LCB43:
  76 0048 80E0     		b	.L2
  77              	.L4:
  78 004a 8022     		mov	r2, #128
  79 004c 9200     		lsl	r2, r2, #2
  80 004e 9342     		cmp	r3, r2
  81 0050 2CD0     		beq	.L8
  82 0052 8022     		mov	r2, #128
  83 0054 9200     		lsl	r2, r2, #2
  84 0056 9342     		cmp	r3, r2
  85 0058 04DC     		bgt	.L9
  86 005a 8022     		mov	r2, #128
  87 005c 5200     		lsl	r2, r2, #1
  88 005e 9342     		cmp	r3, r2
  89 0060 32D0     		beq	.L10
  90 0062 73E0     		b	.L2
  91              	.L9:
  92 0064 8022     		mov	r2, #128
  93 0066 D200     		lsl	r2, r2, #3
  94 0068 9342     		cmp	r3, r2
  95 006a 11D0     		beq	.L11
  96 006c 8022     		mov	r2, #128
  97 006e 1201     		lsl	r2, r2, #4
  98 0070 9342     		cmp	r3, r2
  99 0072 6BD1     		bne	.L2
  67:Source\TransformFunctions/arm_rfft_fast_init_f32.c ****   {
  68:Source\TransformFunctions/arm_rfft_fast_init_f32.c ****   case 2048u:
  69:Source\TransformFunctions/arm_rfft_fast_init_f32.c ****     /*  Initializations of structure parameters for 2048 point FFT */
  70:Source\TransformFunctions/arm_rfft_fast_init_f32.c ****     /*  Initialise the bit reversal table length */
  71:Source\TransformFunctions/arm_rfft_fast_init_f32.c ****     Sint->bitRevLength = ARMBITREVINDEXTABLE_2048_TABLE_LENGTH;
 100              		.loc 1 71 0
ARM GAS  C:\Users\fneves\AppData\Local\Temp\cc4ctGOh.s 			page 4


 101 0074 BB68     		ldr	r3, [r7, #8]
 102 0076 EE22     		mov	r2, #238
 103 0078 1201     		lsl	r2, r2, #4
 104 007a 9A81     		strh	r2, [r3, #12]
  72:Source\TransformFunctions/arm_rfft_fast_init_f32.c ****     /*  Initialise the bit reversal table pointer */
  73:Source\TransformFunctions/arm_rfft_fast_init_f32.c ****     Sint->pBitRevTable = (uint16_t *)armBitRevIndexTable2048;
 105              		.loc 1 73 0
 106 007c BB68     		ldr	r3, [r7, #8]
 107 007e 3A4A     		ldr	r2, .L15
 108 0080 9A60     		str	r2, [r3, #8]
  74:Source\TransformFunctions/arm_rfft_fast_init_f32.c ****     /*  Initialise the Twiddle coefficient pointers */
  75:Source\TransformFunctions/arm_rfft_fast_init_f32.c **** 		Sint->pTwiddle     = (float32_t *) twiddleCoef_2048;
 109              		.loc 1 75 0
 110 0082 BB68     		ldr	r3, [r7, #8]
 111 0084 394A     		ldr	r2, .L15+4
 112 0086 5A60     		str	r2, [r3, #4]
  76:Source\TransformFunctions/arm_rfft_fast_init_f32.c **** 		S->pTwiddleRFFT    = (float32_t *) twiddleCoef_rfft_4096;
 113              		.loc 1 76 0
 114 0088 7B68     		ldr	r3, [r7, #4]
 115 008a 394A     		ldr	r2, .L15+8
 116 008c 5A61     		str	r2, [r3, #20]
  77:Source\TransformFunctions/arm_rfft_fast_init_f32.c ****     break;
 117              		.loc 1 77 0
 118 008e 62E0     		b	.L13
 119              	.L11:
  78:Source\TransformFunctions/arm_rfft_fast_init_f32.c ****   case 1024u:
  79:Source\TransformFunctions/arm_rfft_fast_init_f32.c ****     Sint->bitRevLength = ARMBITREVINDEXTABLE_1024_TABLE_LENGTH;
 120              		.loc 1 79 0
 121 0090 BB68     		ldr	r3, [r7, #8]
 122 0092 E122     		mov	r2, #225
 123 0094 D200     		lsl	r2, r2, #3
 124 0096 9A81     		strh	r2, [r3, #12]
  80:Source\TransformFunctions/arm_rfft_fast_init_f32.c ****     Sint->pBitRevTable = (uint16_t *)armBitRevIndexTable1024;
 125              		.loc 1 80 0
 126 0098 BB68     		ldr	r3, [r7, #8]
 127 009a 364A     		ldr	r2, .L15+12
 128 009c 9A60     		str	r2, [r3, #8]
  81:Source\TransformFunctions/arm_rfft_fast_init_f32.c **** 		Sint->pTwiddle     = (float32_t *) twiddleCoef_1024;
 129              		.loc 1 81 0
 130 009e BB68     		ldr	r3, [r7, #8]
 131 00a0 354A     		ldr	r2, .L15+16
 132 00a2 5A60     		str	r2, [r3, #4]
  82:Source\TransformFunctions/arm_rfft_fast_init_f32.c **** 		S->pTwiddleRFFT    = (float32_t *) twiddleCoef_rfft_2048;
 133              		.loc 1 82 0
 134 00a4 7B68     		ldr	r3, [r7, #4]
 135 00a6 354A     		ldr	r2, .L15+20
 136 00a8 5A61     		str	r2, [r3, #20]
  83:Source\TransformFunctions/arm_rfft_fast_init_f32.c ****     break;
 137              		.loc 1 83 0
 138 00aa 54E0     		b	.L13
 139              	.L8:
  84:Source\TransformFunctions/arm_rfft_fast_init_f32.c ****   case 512u:
  85:Source\TransformFunctions/arm_rfft_fast_init_f32.c ****     Sint->bitRevLength = ARMBITREVINDEXTABLE_512_TABLE_LENGTH;
 140              		.loc 1 85 0
 141 00ac BB68     		ldr	r3, [r7, #8]
 142 00ae E022     		mov	r2, #224
 143 00b0 5200     		lsl	r2, r2, #1
ARM GAS  C:\Users\fneves\AppData\Local\Temp\cc4ctGOh.s 			page 5


 144 00b2 9A81     		strh	r2, [r3, #12]
  86:Source\TransformFunctions/arm_rfft_fast_init_f32.c ****     Sint->pBitRevTable = (uint16_t *)armBitRevIndexTable512;
 145              		.loc 1 86 0
 146 00b4 BB68     		ldr	r3, [r7, #8]
 147 00b6 324A     		ldr	r2, .L15+24
 148 00b8 9A60     		str	r2, [r3, #8]
  87:Source\TransformFunctions/arm_rfft_fast_init_f32.c **** 		Sint->pTwiddle     = (float32_t *) twiddleCoef_512;
 149              		.loc 1 87 0
 150 00ba BB68     		ldr	r3, [r7, #8]
 151 00bc 314A     		ldr	r2, .L15+28
 152 00be 5A60     		str	r2, [r3, #4]
  88:Source\TransformFunctions/arm_rfft_fast_init_f32.c **** 		S->pTwiddleRFFT    = (float32_t *) twiddleCoef_rfft_1024;
 153              		.loc 1 88 0
 154 00c0 7B68     		ldr	r3, [r7, #4]
 155 00c2 314A     		ldr	r2, .L15+32
 156 00c4 5A61     		str	r2, [r3, #20]
  89:Source\TransformFunctions/arm_rfft_fast_init_f32.c ****     break;
 157              		.loc 1 89 0
 158 00c6 46E0     		b	.L13
 159              	.L10:
  90:Source\TransformFunctions/arm_rfft_fast_init_f32.c ****   case 256u:
  91:Source\TransformFunctions/arm_rfft_fast_init_f32.c ****     Sint->bitRevLength = ARMBITREVINDEXTABLE_256_TABLE_LENGTH;
 160              		.loc 1 91 0
 161 00c8 BB68     		ldr	r3, [r7, #8]
 162 00ca DC22     		mov	r2, #220
 163 00cc 5200     		lsl	r2, r2, #1
 164 00ce 9A81     		strh	r2, [r3, #12]
  92:Source\TransformFunctions/arm_rfft_fast_init_f32.c ****     Sint->pBitRevTable = (uint16_t *)armBitRevIndexTable256;
 165              		.loc 1 92 0
 166 00d0 BB68     		ldr	r3, [r7, #8]
 167 00d2 2E4A     		ldr	r2, .L15+36
 168 00d4 9A60     		str	r2, [r3, #8]
  93:Source\TransformFunctions/arm_rfft_fast_init_f32.c **** 		Sint->pTwiddle     = (float32_t *) twiddleCoef_256;
 169              		.loc 1 93 0
 170 00d6 BB68     		ldr	r3, [r7, #8]
 171 00d8 2D4A     		ldr	r2, .L15+40
 172 00da 5A60     		str	r2, [r3, #4]
  94:Source\TransformFunctions/arm_rfft_fast_init_f32.c **** 		S->pTwiddleRFFT    = (float32_t *) twiddleCoef_rfft_512;
 173              		.loc 1 94 0
 174 00dc 7B68     		ldr	r3, [r7, #4]
 175 00de 2D4A     		ldr	r2, .L15+44
 176 00e0 5A61     		str	r2, [r3, #20]
  95:Source\TransformFunctions/arm_rfft_fast_init_f32.c ****     break;
 177              		.loc 1 95 0
 178 00e2 38E0     		b	.L13
 179              	.L3:
  96:Source\TransformFunctions/arm_rfft_fast_init_f32.c ****   case 128u:
  97:Source\TransformFunctions/arm_rfft_fast_init_f32.c ****     Sint->bitRevLength = ARMBITREVINDEXTABLE_128_TABLE_LENGTH;
 180              		.loc 1 97 0
 181 00e4 BB68     		ldr	r3, [r7, #8]
 182 00e6 D022     		mov	r2, #208
 183 00e8 9A81     		strh	r2, [r3, #12]
  98:Source\TransformFunctions/arm_rfft_fast_init_f32.c ****     Sint->pBitRevTable = (uint16_t *)armBitRevIndexTable128;
 184              		.loc 1 98 0
 185 00ea BB68     		ldr	r3, [r7, #8]
 186 00ec 2A4A     		ldr	r2, .L15+48
 187 00ee 9A60     		str	r2, [r3, #8]
ARM GAS  C:\Users\fneves\AppData\Local\Temp\cc4ctGOh.s 			page 6


  99:Source\TransformFunctions/arm_rfft_fast_init_f32.c **** 		Sint->pTwiddle     = (float32_t *) twiddleCoef_128;
 188              		.loc 1 99 0
 189 00f0 BB68     		ldr	r3, [r7, #8]
 190 00f2 2A4A     		ldr	r2, .L15+52
 191 00f4 5A60     		str	r2, [r3, #4]
 100:Source\TransformFunctions/arm_rfft_fast_init_f32.c **** 		S->pTwiddleRFFT    = (float32_t *) twiddleCoef_rfft_256;
 192              		.loc 1 100 0
 193 00f6 7B68     		ldr	r3, [r7, #4]
 194 00f8 294A     		ldr	r2, .L15+56
 195 00fa 5A61     		str	r2, [r3, #20]
 101:Source\TransformFunctions/arm_rfft_fast_init_f32.c ****     break;
 196              		.loc 1 101 0
 197 00fc 2BE0     		b	.L13
 198              	.L6:
 102:Source\TransformFunctions/arm_rfft_fast_init_f32.c ****   case 64u:
 103:Source\TransformFunctions/arm_rfft_fast_init_f32.c ****     Sint->bitRevLength = ARMBITREVINDEXTABLE_64_TABLE_LENGTH;
 199              		.loc 1 103 0
 200 00fe BB68     		ldr	r3, [r7, #8]
 201 0100 3822     		mov	r2, #56
 202 0102 9A81     		strh	r2, [r3, #12]
 104:Source\TransformFunctions/arm_rfft_fast_init_f32.c ****     Sint->pBitRevTable = (uint16_t *)armBitRevIndexTable64;
 203              		.loc 1 104 0
 204 0104 BB68     		ldr	r3, [r7, #8]
 205 0106 274A     		ldr	r2, .L15+60
 206 0108 9A60     		str	r2, [r3, #8]
 105:Source\TransformFunctions/arm_rfft_fast_init_f32.c **** 		Sint->pTwiddle     = (float32_t *) twiddleCoef_64;
 207              		.loc 1 105 0
 208 010a BB68     		ldr	r3, [r7, #8]
 209 010c 264A     		ldr	r2, .L15+64
 210 010e 5A60     		str	r2, [r3, #4]
 106:Source\TransformFunctions/arm_rfft_fast_init_f32.c **** 		S->pTwiddleRFFT    = (float32_t *) twiddleCoef_rfft_128;
 211              		.loc 1 106 0
 212 0110 7B68     		ldr	r3, [r7, #4]
 213 0112 264A     		ldr	r2, .L15+68
 214 0114 5A61     		str	r2, [r3, #20]
 107:Source\TransformFunctions/arm_rfft_fast_init_f32.c ****     break;
 215              		.loc 1 107 0
 216 0116 1EE0     		b	.L13
 217              	.L5:
 108:Source\TransformFunctions/arm_rfft_fast_init_f32.c ****   case 32u:
 109:Source\TransformFunctions/arm_rfft_fast_init_f32.c ****     Sint->bitRevLength = ARMBITREVINDEXTABLE_32_TABLE_LENGTH;
 218              		.loc 1 109 0
 219 0118 BB68     		ldr	r3, [r7, #8]
 220 011a 3022     		mov	r2, #48
 221 011c 9A81     		strh	r2, [r3, #12]
 110:Source\TransformFunctions/arm_rfft_fast_init_f32.c ****     Sint->pBitRevTable = (uint16_t *)armBitRevIndexTable32;
 222              		.loc 1 110 0
 223 011e BB68     		ldr	r3, [r7, #8]
 224 0120 234A     		ldr	r2, .L15+72
 225 0122 9A60     		str	r2, [r3, #8]
 111:Source\TransformFunctions/arm_rfft_fast_init_f32.c **** 		Sint->pTwiddle     = (float32_t *) twiddleCoef_32;
 226              		.loc 1 111 0
 227 0124 BB68     		ldr	r3, [r7, #8]
 228 0126 234A     		ldr	r2, .L15+76
 229 0128 5A60     		str	r2, [r3, #4]
 112:Source\TransformFunctions/arm_rfft_fast_init_f32.c **** 		S->pTwiddleRFFT    = (float32_t *) twiddleCoef_rfft_64;
 230              		.loc 1 112 0
ARM GAS  C:\Users\fneves\AppData\Local\Temp\cc4ctGOh.s 			page 7


 231 012a 7B68     		ldr	r3, [r7, #4]
 232 012c 224A     		ldr	r2, .L15+80
 233 012e 5A61     		str	r2, [r3, #20]
 113:Source\TransformFunctions/arm_rfft_fast_init_f32.c ****     break;
 234              		.loc 1 113 0
 235 0130 11E0     		b	.L13
 236              	.L7:
 114:Source\TransformFunctions/arm_rfft_fast_init_f32.c ****   case 16u:
 115:Source\TransformFunctions/arm_rfft_fast_init_f32.c ****     Sint->bitRevLength = ARMBITREVINDEXTABLE_16_TABLE_LENGTH;
 237              		.loc 1 115 0
 238 0132 BB68     		ldr	r3, [r7, #8]
 239 0134 1422     		mov	r2, #20
 240 0136 9A81     		strh	r2, [r3, #12]
 116:Source\TransformFunctions/arm_rfft_fast_init_f32.c ****     Sint->pBitRevTable = (uint16_t *)armBitRevIndexTable16;
 241              		.loc 1 116 0
 242 0138 BB68     		ldr	r3, [r7, #8]
 243 013a 204A     		ldr	r2, .L15+84
 244 013c 9A60     		str	r2, [r3, #8]
 117:Source\TransformFunctions/arm_rfft_fast_init_f32.c **** 		Sint->pTwiddle     = (float32_t *) twiddleCoef_16;
 245              		.loc 1 117 0
 246 013e BB68     		ldr	r3, [r7, #8]
 247 0140 1F4A     		ldr	r2, .L15+88
 248 0142 5A60     		str	r2, [r3, #4]
 118:Source\TransformFunctions/arm_rfft_fast_init_f32.c **** 		S->pTwiddleRFFT    = (float32_t *) twiddleCoef_rfft_32;
 249              		.loc 1 118 0
 250 0144 7B68     		ldr	r3, [r7, #4]
 251 0146 1F4A     		ldr	r2, .L15+92
 252 0148 5A61     		str	r2, [r3, #20]
 119:Source\TransformFunctions/arm_rfft_fast_init_f32.c ****     break;
 253              		.loc 1 119 0
 254 014a 04E0     		b	.L13
 255              	.L2:
 120:Source\TransformFunctions/arm_rfft_fast_init_f32.c ****   default:
 121:Source\TransformFunctions/arm_rfft_fast_init_f32.c ****     /*  Reporting argument error if fftSize is not valid value */
 122:Source\TransformFunctions/arm_rfft_fast_init_f32.c ****     status = ARM_MATH_ARGUMENT_ERROR;
 256              		.loc 1 122 0
 257 014c 0F23     		mov	r3, #15
 258 014e FB18     		add	r3, r7, r3
 259 0150 FF22     		mov	r2, #255
 260 0152 1A70     		strb	r2, [r3]
 123:Source\TransformFunctions/arm_rfft_fast_init_f32.c ****     break;
 261              		.loc 1 123 0
 262 0154 C046     		mov	r8, r8
 263              	.L13:
 124:Source\TransformFunctions/arm_rfft_fast_init_f32.c ****   }
 125:Source\TransformFunctions/arm_rfft_fast_init_f32.c **** 
 126:Source\TransformFunctions/arm_rfft_fast_init_f32.c ****   return (status);
 264              		.loc 1 126 0
 265 0156 0F23     		mov	r3, #15
 266 0158 FB18     		add	r3, r7, r3
 267 015a 1B78     		ldrb	r3, [r3]
 268 015c 5BB2     		sxtb	r3, r3
 127:Source\TransformFunctions/arm_rfft_fast_init_f32.c **** }
 269              		.loc 1 127 0
 270 015e 181C     		mov	r0, r3
 271 0160 BD46     		mov	sp, r7
 272 0162 04B0     		add	sp, sp, #16
ARM GAS  C:\Users\fneves\AppData\Local\Temp\cc4ctGOh.s 			page 8


 273              		@ sp needed
 274 0164 80BD     		pop	{r7, pc}
 275              	.L16:
 276 0166 C046     		.align	2
 277              	.L15:
 278 0168 00000000 		.word	armBitRevIndexTable2048
 279 016c 00000000 		.word	twiddleCoef_2048
 280 0170 00000000 		.word	twiddleCoef_rfft_4096
 281 0174 00000000 		.word	armBitRevIndexTable1024
 282 0178 00000000 		.word	twiddleCoef_1024
 283 017c 00000000 		.word	twiddleCoef_rfft_2048
 284 0180 00000000 		.word	armBitRevIndexTable512
 285 0184 00000000 		.word	twiddleCoef_512
 286 0188 00000000 		.word	twiddleCoef_rfft_1024
 287 018c 00000000 		.word	armBitRevIndexTable256
 288 0190 00000000 		.word	twiddleCoef_256
 289 0194 00000000 		.word	twiddleCoef_rfft_512
 290 0198 00000000 		.word	armBitRevIndexTable128
 291 019c 00000000 		.word	twiddleCoef_128
 292 01a0 00000000 		.word	twiddleCoef_rfft_256
 293 01a4 00000000 		.word	armBitRevIndexTable64
 294 01a8 00000000 		.word	twiddleCoef_64
 295 01ac 00000000 		.word	twiddleCoef_rfft_128
 296 01b0 00000000 		.word	armBitRevIndexTable32
 297 01b4 00000000 		.word	twiddleCoef_32
 298 01b8 00000000 		.word	twiddleCoef_rfft_64
 299 01bc 00000000 		.word	armBitRevIndexTable16
 300 01c0 00000000 		.word	twiddleCoef_16
 301 01c4 00000000 		.word	twiddleCoef_rfft_32
 302              		.cfi_endproc
 303              	.LFE82:
 304              		.size	arm_rfft_fast_init_f32, .-arm_rfft_fast_init_f32
 305              		.text
 306              	.Letext0:
 307              		.file 2 "c:\\program files (x86)\\cypress\\psoc creator\\4.0\\psoc creator\\import\\gnu\\arm\\4.9.
 308              		.file 3 "c:\\program files (x86)\\cypress\\psoc creator\\4.0\\psoc creator\\import\\gnu\\arm\\4.9.
 309              		.file 4 ".\\Include/arm_math.h"
 310              		.file 5 ".\\Include/arm_common_tables.h"