ARM GAS  C:\Users\fneves\AppData\Local\Temp\cc5N0vc2.s 			page 1


   1              		.cpu cortex-m0plus
   2              		.fpu softvfp
   3              		.eabi_attribute 20, 1
   4              		.eabi_attribute 21, 1
   5              		.eabi_attribute 23, 3
   6              		.eabi_attribute 24, 1
   7              		.eabi_attribute 25, 1
   8              		.eabi_attribute 26, 1
   9              		.eabi_attribute 30, 6
  10              		.eabi_attribute 34, 0
  11              		.eabi_attribute 18, 4
  12              		.code	16
  13              		.file	"arm_cfft_radix2_init_q15.c"
  14              		.text
  15              	.Ltext0:
  16              		.cfi_sections	.debug_frame
  17              		.section	.text.arm_cfft_radix2_init_q15,"ax",%progbits
  18              		.align	2
  19              		.global	arm_cfft_radix2_init_q15
  20              		.code	16
  21              		.thumb_func
  22              		.type	arm_cfft_radix2_init_q15, %function
  23              	arm_cfft_radix2_init_q15:
  24              	.LFB82:
  25              		.file 1 "Source\\TransformFunctions\\arm_cfft_radix2_init_q15.c"
   1:Source\TransformFunctions/arm_cfft_radix2_init_q15.c **** /* ----------------------------------------------------------------------
   2:Source\TransformFunctions/arm_cfft_radix2_init_q15.c ****  * Project:      CMSIS DSP Library
   3:Source\TransformFunctions/arm_cfft_radix2_init_q15.c ****  * Title:        arm_cfft_radix2_init_q15.c
   4:Source\TransformFunctions/arm_cfft_radix2_init_q15.c ****  * Description:  Radix-2 Decimation in Frequency Q15 FFT & IFFT initialization function
   5:Source\TransformFunctions/arm_cfft_radix2_init_q15.c ****  *
   6:Source\TransformFunctions/arm_cfft_radix2_init_q15.c ****  * $Date:        27. January 2017
   7:Source\TransformFunctions/arm_cfft_radix2_init_q15.c ****  * $Revision:    V.1.5.1
   8:Source\TransformFunctions/arm_cfft_radix2_init_q15.c ****  *
   9:Source\TransformFunctions/arm_cfft_radix2_init_q15.c ****  * Target Processor: Cortex-M cores
  10:Source\TransformFunctions/arm_cfft_radix2_init_q15.c ****  * -------------------------------------------------------------------- */
  11:Source\TransformFunctions/arm_cfft_radix2_init_q15.c **** /*
  12:Source\TransformFunctions/arm_cfft_radix2_init_q15.c ****  * Copyright (C) 2010-2017 ARM Limited or its affiliates. All rights reserved.
  13:Source\TransformFunctions/arm_cfft_radix2_init_q15.c ****  *
  14:Source\TransformFunctions/arm_cfft_radix2_init_q15.c ****  * SPDX-License-Identifier: Apache-2.0
  15:Source\TransformFunctions/arm_cfft_radix2_init_q15.c ****  *
  16:Source\TransformFunctions/arm_cfft_radix2_init_q15.c ****  * Licensed under the Apache License, Version 2.0 (the License); you may
  17:Source\TransformFunctions/arm_cfft_radix2_init_q15.c ****  * not use this file except in compliance with the License.
  18:Source\TransformFunctions/arm_cfft_radix2_init_q15.c ****  * You may obtain a copy of the License at
  19:Source\TransformFunctions/arm_cfft_radix2_init_q15.c ****  *
  20:Source\TransformFunctions/arm_cfft_radix2_init_q15.c ****  * www.apache.org/licenses/LICENSE-2.0
  21:Source\TransformFunctions/arm_cfft_radix2_init_q15.c ****  *
  22:Source\TransformFunctions/arm_cfft_radix2_init_q15.c ****  * Unless required by applicable law or agreed to in writing, software
  23:Source\TransformFunctions/arm_cfft_radix2_init_q15.c ****  * distributed under the License is distributed on an AS IS BASIS, WITHOUT
  24:Source\TransformFunctions/arm_cfft_radix2_init_q15.c ****  * WARRANTIES OR CONDITIONS OF ANY KIND, either express or implied.
  25:Source\TransformFunctions/arm_cfft_radix2_init_q15.c ****  * See the License for the specific language governing permissions and
  26:Source\TransformFunctions/arm_cfft_radix2_init_q15.c ****  * limitations under the License.
  27:Source\TransformFunctions/arm_cfft_radix2_init_q15.c ****  */
  28:Source\TransformFunctions/arm_cfft_radix2_init_q15.c **** 
  29:Source\TransformFunctions/arm_cfft_radix2_init_q15.c **** #include "arm_math.h"
  30:Source\TransformFunctions/arm_cfft_radix2_init_q15.c **** #include "arm_common_tables.h"
  31:Source\TransformFunctions/arm_cfft_radix2_init_q15.c **** 
  32:Source\TransformFunctions/arm_cfft_radix2_init_q15.c **** /**
ARM GAS  C:\Users\fneves\AppData\Local\Temp\cc5N0vc2.s 			page 2


  33:Source\TransformFunctions/arm_cfft_radix2_init_q15.c ****  * @ingroup groupTransforms
  34:Source\TransformFunctions/arm_cfft_radix2_init_q15.c ****  */
  35:Source\TransformFunctions/arm_cfft_radix2_init_q15.c **** 
  36:Source\TransformFunctions/arm_cfft_radix2_init_q15.c **** 
  37:Source\TransformFunctions/arm_cfft_radix2_init_q15.c **** /**
  38:Source\TransformFunctions/arm_cfft_radix2_init_q15.c ****  * @addtogroup ComplexFFT
  39:Source\TransformFunctions/arm_cfft_radix2_init_q15.c ****  * @{
  40:Source\TransformFunctions/arm_cfft_radix2_init_q15.c ****  */
  41:Source\TransformFunctions/arm_cfft_radix2_init_q15.c **** 
  42:Source\TransformFunctions/arm_cfft_radix2_init_q15.c **** /**
  43:Source\TransformFunctions/arm_cfft_radix2_init_q15.c **** * @brief Initialization function for the Q15 CFFT/CIFFT.
  44:Source\TransformFunctions/arm_cfft_radix2_init_q15.c **** * @deprecated Do not use this function.  It has been superseded by \ref arm_cfft_q15 and will be re
  45:Source\TransformFunctions/arm_cfft_radix2_init_q15.c **** * @param[in,out] *S             points to an instance of the Q15 CFFT/CIFFT structure.
  46:Source\TransformFunctions/arm_cfft_radix2_init_q15.c **** * @param[in]     fftLen         length of the FFT.
  47:Source\TransformFunctions/arm_cfft_radix2_init_q15.c **** * @param[in]     ifftFlag       flag that selects forward (ifftFlag=0) or inverse (ifftFlag=1) tran
  48:Source\TransformFunctions/arm_cfft_radix2_init_q15.c **** * @param[in]     bitReverseFlag flag that enables (bitReverseFlag=1) or disables (bitReverseFlag=0)
  49:Source\TransformFunctions/arm_cfft_radix2_init_q15.c **** * @return        The function returns ARM_MATH_SUCCESS if initialization is successful or ARM_MATH_
  50:Source\TransformFunctions/arm_cfft_radix2_init_q15.c **** *
  51:Source\TransformFunctions/arm_cfft_radix2_init_q15.c **** * \par Description:
  52:Source\TransformFunctions/arm_cfft_radix2_init_q15.c **** * \par
  53:Source\TransformFunctions/arm_cfft_radix2_init_q15.c **** * The parameter <code>ifftFlag</code> controls whether a forward or inverse transform is computed.
  54:Source\TransformFunctions/arm_cfft_radix2_init_q15.c **** * Set(=1) ifftFlag for calculation of CIFFT otherwise  CFFT is calculated
  55:Source\TransformFunctions/arm_cfft_radix2_init_q15.c **** * \par
  56:Source\TransformFunctions/arm_cfft_radix2_init_q15.c **** * The parameter <code>bitReverseFlag</code> controls whether output is in normal order or bit rever
  57:Source\TransformFunctions/arm_cfft_radix2_init_q15.c **** * Set(=1) bitReverseFlag for output to be in normal order otherwise output is in bit reversed order
  58:Source\TransformFunctions/arm_cfft_radix2_init_q15.c **** * \par
  59:Source\TransformFunctions/arm_cfft_radix2_init_q15.c **** * The parameter <code>fftLen</code>	Specifies length of CFFT/CIFFT process. Supported FFT Lengths a
  60:Source\TransformFunctions/arm_cfft_radix2_init_q15.c **** * \par
  61:Source\TransformFunctions/arm_cfft_radix2_init_q15.c **** * This Function also initializes Twiddle factor table pointer and Bit reversal table pointer.
  62:Source\TransformFunctions/arm_cfft_radix2_init_q15.c **** */
  63:Source\TransformFunctions/arm_cfft_radix2_init_q15.c **** 
  64:Source\TransformFunctions/arm_cfft_radix2_init_q15.c **** arm_status arm_cfft_radix2_init_q15(
  65:Source\TransformFunctions/arm_cfft_radix2_init_q15.c ****   arm_cfft_radix2_instance_q15 * S,
  66:Source\TransformFunctions/arm_cfft_radix2_init_q15.c ****   uint16_t fftLen,
  67:Source\TransformFunctions/arm_cfft_radix2_init_q15.c ****   uint8_t ifftFlag,
  68:Source\TransformFunctions/arm_cfft_radix2_init_q15.c ****   uint8_t bitReverseFlag)
  69:Source\TransformFunctions/arm_cfft_radix2_init_q15.c **** {
  26              		.loc 1 69 0
  27              		.cfi_startproc
  28 0000 90B5     		push	{r4, r7, lr}
  29              		.cfi_def_cfa_offset 12
  30              		.cfi_offset 4, -12
  31              		.cfi_offset 7, -8
  32              		.cfi_offset 14, -4
  33 0002 85B0     		sub	sp, sp, #20
  34              		.cfi_def_cfa_offset 32
  35 0004 00AF     		add	r7, sp, #0
  36              		.cfi_def_cfa_register 7
  37 0006 7860     		str	r0, [r7, #4]
  38 0008 0C1C     		mov	r4, r1
  39 000a 101C     		mov	r0, r2
  40 000c 191C     		mov	r1, r3
  41 000e BB1C     		add	r3, r7, #2
  42 0010 221C     		add	r2, r4, #0
  43 0012 1A80     		strh	r2, [r3]
  44 0014 7B1C     		add	r3, r7, #1
  45 0016 021C     		add	r2, r0, #0
ARM GAS  C:\Users\fneves\AppData\Local\Temp\cc5N0vc2.s 			page 3


  46 0018 1A70     		strb	r2, [r3]
  47 001a 3B1C     		mov	r3, r7
  48 001c 0A1C     		add	r2, r1, #0
  49 001e 1A70     		strb	r2, [r3]
  70:Source\TransformFunctions/arm_cfft_radix2_init_q15.c ****   /*  Initialise the default arm status */
  71:Source\TransformFunctions/arm_cfft_radix2_init_q15.c ****   arm_status status = ARM_MATH_SUCCESS;
  50              		.loc 1 71 0
  51 0020 0F23     		mov	r3, #15
  52 0022 FB18     		add	r3, r7, r3
  53 0024 0022     		mov	r2, #0
  54 0026 1A70     		strb	r2, [r3]
  72:Source\TransformFunctions/arm_cfft_radix2_init_q15.c **** 
  73:Source\TransformFunctions/arm_cfft_radix2_init_q15.c ****   /*  Initialise the FFT length */
  74:Source\TransformFunctions/arm_cfft_radix2_init_q15.c ****   S->fftLen = fftLen;
  55              		.loc 1 74 0
  56 0028 7B68     		ldr	r3, [r7, #4]
  57 002a BA1C     		add	r2, r7, #2
  58 002c 1288     		ldrh	r2, [r2]
  59 002e 1A80     		strh	r2, [r3]
  75:Source\TransformFunctions/arm_cfft_radix2_init_q15.c **** 
  76:Source\TransformFunctions/arm_cfft_radix2_init_q15.c ****   /*  Initialise the Twiddle coefficient pointer */
  77:Source\TransformFunctions/arm_cfft_radix2_init_q15.c ****   S->pTwiddle = (q15_t *) twiddleCoef_4096_q15;
  60              		.loc 1 77 0
  61 0030 7B68     		ldr	r3, [r7, #4]
  62 0032 4F4A     		ldr	r2, .L17
  63 0034 5A60     		str	r2, [r3, #4]
  78:Source\TransformFunctions/arm_cfft_radix2_init_q15.c ****   /*  Initialise the Flag for selection of CFFT or CIFFT */
  79:Source\TransformFunctions/arm_cfft_radix2_init_q15.c ****   S->ifftFlag = ifftFlag;
  64              		.loc 1 79 0
  65 0036 7B68     		ldr	r3, [r7, #4]
  66 0038 7A1C     		add	r2, r7, #1
  67 003a 1278     		ldrb	r2, [r2]
  68 003c 9A70     		strb	r2, [r3, #2]
  80:Source\TransformFunctions/arm_cfft_radix2_init_q15.c ****   /*  Initialise the Flag for calculation Bit reversal or not */
  81:Source\TransformFunctions/arm_cfft_radix2_init_q15.c ****   S->bitReverseFlag = bitReverseFlag;
  69              		.loc 1 81 0
  70 003e 7B68     		ldr	r3, [r7, #4]
  71 0040 3A1C     		mov	r2, r7
  72 0042 1278     		ldrb	r2, [r2]
  73 0044 DA70     		strb	r2, [r3, #3]
  82:Source\TransformFunctions/arm_cfft_radix2_init_q15.c **** 
  83:Source\TransformFunctions/arm_cfft_radix2_init_q15.c ****   /*  Initializations of structure parameters depending on the FFT length */
  84:Source\TransformFunctions/arm_cfft_radix2_init_q15.c ****   switch (S->fftLen)
  74              		.loc 1 84 0
  75 0046 7B68     		ldr	r3, [r7, #4]
  76 0048 1B88     		ldrh	r3, [r3]
  77 004a 8022     		mov	r2, #128
  78 004c 5200     		lsl	r2, r2, #1
  79 004e 9342     		cmp	r3, r2
  80 0050 4DD0     		beq	.L3
  81 0052 8022     		mov	r2, #128
  82 0054 5200     		lsl	r2, r2, #1
  83 0056 9342     		cmp	r3, r2
  84 0058 0CDC     		bgt	.L4
  85 005a 202B     		cmp	r3, #32
  86 005c 00D1     		bne	.LCB56
  87 005e 64E0     		b	.L5	@long jump
ARM GAS  C:\Users\fneves\AppData\Local\Temp\cc5N0vc2.s 			page 4


  88              	.LCB56:
  89 0060 03DC     		bgt	.L6
  90 0062 102B     		cmp	r3, #16
  91 0064 00D1     		bne	.LCB60
  92 0066 6AE0     		b	.L7	@long jump
  93              	.LCB60:
  94 0068 75E0     		b	.L2
  95              	.L6:
  96 006a 402B     		cmp	r3, #64
  97 006c 53D0     		beq	.L8
  98 006e 802B     		cmp	r3, #128
  99 0070 47D0     		beq	.L9
 100 0072 70E0     		b	.L2
 101              	.L4:
 102 0074 8022     		mov	r2, #128
 103 0076 D200     		lsl	r2, r2, #3
 104 0078 9342     		cmp	r3, r2
 105 007a 24D0     		beq	.L10
 106 007c 8022     		mov	r2, #128
 107 007e D200     		lsl	r2, r2, #3
 108 0080 9342     		cmp	r3, r2
 109 0082 04DC     		bgt	.L11
 110 0084 8022     		mov	r2, #128
 111 0086 9200     		lsl	r2, r2, #2
 112 0088 9342     		cmp	r3, r2
 113 008a 26D0     		beq	.L12
 114 008c 63E0     		b	.L2
 115              	.L11:
 116 008e 8022     		mov	r2, #128
 117 0090 1201     		lsl	r2, r2, #4
 118 0092 9342     		cmp	r3, r2
 119 0094 0DD0     		beq	.L13
 120 0096 8022     		mov	r2, #128
 121 0098 5201     		lsl	r2, r2, #5
 122 009a 9342     		cmp	r3, r2
 123 009c 5BD1     		bne	.L2
  85:Source\TransformFunctions/arm_cfft_radix2_init_q15.c ****   {
  86:Source\TransformFunctions/arm_cfft_radix2_init_q15.c ****   case 4096u:
  87:Source\TransformFunctions/arm_cfft_radix2_init_q15.c ****     /*  Initializations of structure parameters for 4096 point FFT */
  88:Source\TransformFunctions/arm_cfft_radix2_init_q15.c **** 
  89:Source\TransformFunctions/arm_cfft_radix2_init_q15.c ****     /*  Initialise the twiddle coef modifier value */
  90:Source\TransformFunctions/arm_cfft_radix2_init_q15.c ****     S->twidCoefModifier = 1u;
 124              		.loc 1 90 0
 125 009e 7B68     		ldr	r3, [r7, #4]
 126 00a0 0122     		mov	r2, #1
 127 00a2 9A81     		strh	r2, [r3, #12]
  91:Source\TransformFunctions/arm_cfft_radix2_init_q15.c ****     /*  Initialise the bit reversal table modifier */
  92:Source\TransformFunctions/arm_cfft_radix2_init_q15.c ****     S->bitRevFactor = 1u;
 128              		.loc 1 92 0
 129 00a4 7B68     		ldr	r3, [r7, #4]
 130 00a6 0122     		mov	r2, #1
 131 00a8 DA81     		strh	r2, [r3, #14]
  93:Source\TransformFunctions/arm_cfft_radix2_init_q15.c ****     /*  Initialise the bit reversal table pointer */
  94:Source\TransformFunctions/arm_cfft_radix2_init_q15.c ****     S->pBitRevTable = (uint16_t *) armBitRevTable;
 132              		.loc 1 94 0
 133 00aa 7B68     		ldr	r3, [r7, #4]
 134 00ac 314A     		ldr	r2, .L17+4
ARM GAS  C:\Users\fneves\AppData\Local\Temp\cc5N0vc2.s 			page 5


 135 00ae 9A60     		str	r2, [r3, #8]
  95:Source\TransformFunctions/arm_cfft_radix2_init_q15.c **** 
  96:Source\TransformFunctions/arm_cfft_radix2_init_q15.c ****     break;
 136              		.loc 1 96 0
 137 00b0 56E0     		b	.L15
 138              	.L13:
  97:Source\TransformFunctions/arm_cfft_radix2_init_q15.c **** 
  98:Source\TransformFunctions/arm_cfft_radix2_init_q15.c ****   case 2048u:
  99:Source\TransformFunctions/arm_cfft_radix2_init_q15.c ****     /*  Initializations of structure parameters for 2048 point FFT */
 100:Source\TransformFunctions/arm_cfft_radix2_init_q15.c **** 
 101:Source\TransformFunctions/arm_cfft_radix2_init_q15.c ****     /*  Initialise the twiddle coef modifier value */
 102:Source\TransformFunctions/arm_cfft_radix2_init_q15.c ****     S->twidCoefModifier = 2u;
 139              		.loc 1 102 0
 140 00b2 7B68     		ldr	r3, [r7, #4]
 141 00b4 0222     		mov	r2, #2
 142 00b6 9A81     		strh	r2, [r3, #12]
 103:Source\TransformFunctions/arm_cfft_radix2_init_q15.c ****     /*  Initialise the bit reversal table modifier */
 104:Source\TransformFunctions/arm_cfft_radix2_init_q15.c ****     S->bitRevFactor = 2u;
 143              		.loc 1 104 0
 144 00b8 7B68     		ldr	r3, [r7, #4]
 145 00ba 0222     		mov	r2, #2
 146 00bc DA81     		strh	r2, [r3, #14]
 105:Source\TransformFunctions/arm_cfft_radix2_init_q15.c ****     /*  Initialise the bit reversal table pointer */
 106:Source\TransformFunctions/arm_cfft_radix2_init_q15.c ****     S->pBitRevTable = (uint16_t *) & armBitRevTable[1];
 147              		.loc 1 106 0
 148 00be 7B68     		ldr	r3, [r7, #4]
 149 00c0 2D4A     		ldr	r2, .L17+8
 150 00c2 9A60     		str	r2, [r3, #8]
 107:Source\TransformFunctions/arm_cfft_radix2_init_q15.c **** 
 108:Source\TransformFunctions/arm_cfft_radix2_init_q15.c ****     break;
 151              		.loc 1 108 0
 152 00c4 4CE0     		b	.L15
 153              	.L10:
 109:Source\TransformFunctions/arm_cfft_radix2_init_q15.c **** 
 110:Source\TransformFunctions/arm_cfft_radix2_init_q15.c ****   case 1024u:
 111:Source\TransformFunctions/arm_cfft_radix2_init_q15.c ****     /*  Initializations of structure parameters for 1024 point FFT */
 112:Source\TransformFunctions/arm_cfft_radix2_init_q15.c ****     S->twidCoefModifier = 4u;
 154              		.loc 1 112 0
 155 00c6 7B68     		ldr	r3, [r7, #4]
 156 00c8 0422     		mov	r2, #4
 157 00ca 9A81     		strh	r2, [r3, #12]
 113:Source\TransformFunctions/arm_cfft_radix2_init_q15.c ****     S->bitRevFactor = 4u;
 158              		.loc 1 113 0
 159 00cc 7B68     		ldr	r3, [r7, #4]
 160 00ce 0422     		mov	r2, #4
 161 00d0 DA81     		strh	r2, [r3, #14]
 114:Source\TransformFunctions/arm_cfft_radix2_init_q15.c ****     S->pBitRevTable = (uint16_t *) & armBitRevTable[3];
 162              		.loc 1 114 0
 163 00d2 7B68     		ldr	r3, [r7, #4]
 164 00d4 294A     		ldr	r2, .L17+12
 165 00d6 9A60     		str	r2, [r3, #8]
 115:Source\TransformFunctions/arm_cfft_radix2_init_q15.c **** 
 116:Source\TransformFunctions/arm_cfft_radix2_init_q15.c ****     break;
 166              		.loc 1 116 0
 167 00d8 42E0     		b	.L15
 168              	.L12:
 117:Source\TransformFunctions/arm_cfft_radix2_init_q15.c **** 
ARM GAS  C:\Users\fneves\AppData\Local\Temp\cc5N0vc2.s 			page 6


 118:Source\TransformFunctions/arm_cfft_radix2_init_q15.c ****   case 512u:
 119:Source\TransformFunctions/arm_cfft_radix2_init_q15.c ****     /*  Initializations of structure parameters for 512 point FFT */
 120:Source\TransformFunctions/arm_cfft_radix2_init_q15.c ****     S->twidCoefModifier = 8u;
 169              		.loc 1 120 0
 170 00da 7B68     		ldr	r3, [r7, #4]
 171 00dc 0822     		mov	r2, #8
 172 00de 9A81     		strh	r2, [r3, #12]
 121:Source\TransformFunctions/arm_cfft_radix2_init_q15.c ****     S->bitRevFactor = 8u;
 173              		.loc 1 121 0
 174 00e0 7B68     		ldr	r3, [r7, #4]
 175 00e2 0822     		mov	r2, #8
 176 00e4 DA81     		strh	r2, [r3, #14]
 122:Source\TransformFunctions/arm_cfft_radix2_init_q15.c ****     S->pBitRevTable = (uint16_t *) & armBitRevTable[7];
 177              		.loc 1 122 0
 178 00e6 7B68     		ldr	r3, [r7, #4]
 179 00e8 254A     		ldr	r2, .L17+16
 180 00ea 9A60     		str	r2, [r3, #8]
 123:Source\TransformFunctions/arm_cfft_radix2_init_q15.c **** 
 124:Source\TransformFunctions/arm_cfft_radix2_init_q15.c ****     break;
 181              		.loc 1 124 0
 182 00ec 38E0     		b	.L15
 183              	.L3:
 125:Source\TransformFunctions/arm_cfft_radix2_init_q15.c **** 
 126:Source\TransformFunctions/arm_cfft_radix2_init_q15.c ****   case 256u:
 127:Source\TransformFunctions/arm_cfft_radix2_init_q15.c ****     /*  Initializations of structure parameters for 256 point FFT */
 128:Source\TransformFunctions/arm_cfft_radix2_init_q15.c ****     S->twidCoefModifier = 16u;
 184              		.loc 1 128 0
 185 00ee 7B68     		ldr	r3, [r7, #4]
 186 00f0 1022     		mov	r2, #16
 187 00f2 9A81     		strh	r2, [r3, #12]
 129:Source\TransformFunctions/arm_cfft_radix2_init_q15.c ****     S->bitRevFactor = 16u;
 188              		.loc 1 129 0
 189 00f4 7B68     		ldr	r3, [r7, #4]
 190 00f6 1022     		mov	r2, #16
 191 00f8 DA81     		strh	r2, [r3, #14]
 130:Source\TransformFunctions/arm_cfft_radix2_init_q15.c ****     S->pBitRevTable = (uint16_t *) & armBitRevTable[15];
 192              		.loc 1 130 0
 193 00fa 7B68     		ldr	r3, [r7, #4]
 194 00fc 214A     		ldr	r2, .L17+20
 195 00fe 9A60     		str	r2, [r3, #8]
 131:Source\TransformFunctions/arm_cfft_radix2_init_q15.c **** 
 132:Source\TransformFunctions/arm_cfft_radix2_init_q15.c ****     break;
 196              		.loc 1 132 0
 197 0100 2EE0     		b	.L15
 198              	.L9:
 133:Source\TransformFunctions/arm_cfft_radix2_init_q15.c **** 
 134:Source\TransformFunctions/arm_cfft_radix2_init_q15.c ****   case 128u:
 135:Source\TransformFunctions/arm_cfft_radix2_init_q15.c ****     /*  Initializations of structure parameters for 128 point FFT */
 136:Source\TransformFunctions/arm_cfft_radix2_init_q15.c ****     S->twidCoefModifier = 32u;
 199              		.loc 1 136 0
 200 0102 7B68     		ldr	r3, [r7, #4]
 201 0104 2022     		mov	r2, #32
 202 0106 9A81     		strh	r2, [r3, #12]
 137:Source\TransformFunctions/arm_cfft_radix2_init_q15.c ****     S->bitRevFactor = 32u;
 203              		.loc 1 137 0
 204 0108 7B68     		ldr	r3, [r7, #4]
 205 010a 2022     		mov	r2, #32
ARM GAS  C:\Users\fneves\AppData\Local\Temp\cc5N0vc2.s 			page 7


 206 010c DA81     		strh	r2, [r3, #14]
 138:Source\TransformFunctions/arm_cfft_radix2_init_q15.c ****     S->pBitRevTable = (uint16_t *) & armBitRevTable[31];
 207              		.loc 1 138 0
 208 010e 7B68     		ldr	r3, [r7, #4]
 209 0110 1D4A     		ldr	r2, .L17+24
 210 0112 9A60     		str	r2, [r3, #8]
 139:Source\TransformFunctions/arm_cfft_radix2_init_q15.c **** 
 140:Source\TransformFunctions/arm_cfft_radix2_init_q15.c ****     break;
 211              		.loc 1 140 0
 212 0114 24E0     		b	.L15
 213              	.L8:
 141:Source\TransformFunctions/arm_cfft_radix2_init_q15.c **** 
 142:Source\TransformFunctions/arm_cfft_radix2_init_q15.c ****   case 64u:
 143:Source\TransformFunctions/arm_cfft_radix2_init_q15.c ****     /*  Initializations of structure parameters for 64 point FFT */
 144:Source\TransformFunctions/arm_cfft_radix2_init_q15.c ****     S->twidCoefModifier = 64u;
 214              		.loc 1 144 0
 215 0116 7B68     		ldr	r3, [r7, #4]
 216 0118 4022     		mov	r2, #64
 217 011a 9A81     		strh	r2, [r3, #12]
 145:Source\TransformFunctions/arm_cfft_radix2_init_q15.c ****     S->bitRevFactor = 64u;
 218              		.loc 1 145 0
 219 011c 7B68     		ldr	r3, [r7, #4]
 220 011e 4022     		mov	r2, #64
 221 0120 DA81     		strh	r2, [r3, #14]
 146:Source\TransformFunctions/arm_cfft_radix2_init_q15.c ****     S->pBitRevTable = (uint16_t *) & armBitRevTable[63];
 222              		.loc 1 146 0
 223 0122 7B68     		ldr	r3, [r7, #4]
 224 0124 194A     		ldr	r2, .L17+28
 225 0126 9A60     		str	r2, [r3, #8]
 147:Source\TransformFunctions/arm_cfft_radix2_init_q15.c **** 
 148:Source\TransformFunctions/arm_cfft_radix2_init_q15.c ****     break;
 226              		.loc 1 148 0
 227 0128 1AE0     		b	.L15
 228              	.L5:
 149:Source\TransformFunctions/arm_cfft_radix2_init_q15.c **** 
 150:Source\TransformFunctions/arm_cfft_radix2_init_q15.c ****   case 32u:
 151:Source\TransformFunctions/arm_cfft_radix2_init_q15.c ****     /*  Initializations of structure parameters for 32 point FFT */
 152:Source\TransformFunctions/arm_cfft_radix2_init_q15.c ****     S->twidCoefModifier = 128u;
 229              		.loc 1 152 0
 230 012a 7B68     		ldr	r3, [r7, #4]
 231 012c 8022     		mov	r2, #128
 232 012e 9A81     		strh	r2, [r3, #12]
 153:Source\TransformFunctions/arm_cfft_radix2_init_q15.c ****     S->bitRevFactor = 128u;
 233              		.loc 1 153 0
 234 0130 7B68     		ldr	r3, [r7, #4]
 235 0132 8022     		mov	r2, #128
 236 0134 DA81     		strh	r2, [r3, #14]
 154:Source\TransformFunctions/arm_cfft_radix2_init_q15.c ****     S->pBitRevTable = (uint16_t *) & armBitRevTable[127];
 237              		.loc 1 154 0
 238 0136 7B68     		ldr	r3, [r7, #4]
 239 0138 154A     		ldr	r2, .L17+32
 240 013a 9A60     		str	r2, [r3, #8]
 155:Source\TransformFunctions/arm_cfft_radix2_init_q15.c **** 
 156:Source\TransformFunctions/arm_cfft_radix2_init_q15.c ****     break;
 241              		.loc 1 156 0
 242 013c 10E0     		b	.L15
 243              	.L7:
ARM GAS  C:\Users\fneves\AppData\Local\Temp\cc5N0vc2.s 			page 8


 157:Source\TransformFunctions/arm_cfft_radix2_init_q15.c **** 
 158:Source\TransformFunctions/arm_cfft_radix2_init_q15.c ****   case 16u:
 159:Source\TransformFunctions/arm_cfft_radix2_init_q15.c ****     /*  Initializations of structure parameters for 16 point FFT */
 160:Source\TransformFunctions/arm_cfft_radix2_init_q15.c ****     S->twidCoefModifier = 256u;
 244              		.loc 1 160 0
 245 013e 7B68     		ldr	r3, [r7, #4]
 246 0140 8022     		mov	r2, #128
 247 0142 5200     		lsl	r2, r2, #1
 248 0144 9A81     		strh	r2, [r3, #12]
 161:Source\TransformFunctions/arm_cfft_radix2_init_q15.c ****     S->bitRevFactor = 256u;
 249              		.loc 1 161 0
 250 0146 7B68     		ldr	r3, [r7, #4]
 251 0148 8022     		mov	r2, #128
 252 014a 5200     		lsl	r2, r2, #1
 253 014c DA81     		strh	r2, [r3, #14]
 162:Source\TransformFunctions/arm_cfft_radix2_init_q15.c ****     S->pBitRevTable = (uint16_t *) & armBitRevTable[255];
 254              		.loc 1 162 0
 255 014e 7B68     		ldr	r3, [r7, #4]
 256 0150 104A     		ldr	r2, .L17+36
 257 0152 9A60     		str	r2, [r3, #8]
 163:Source\TransformFunctions/arm_cfft_radix2_init_q15.c **** 
 164:Source\TransformFunctions/arm_cfft_radix2_init_q15.c ****     break;
 258              		.loc 1 164 0
 259 0154 04E0     		b	.L15
 260              	.L2:
 165:Source\TransformFunctions/arm_cfft_radix2_init_q15.c **** 
 166:Source\TransformFunctions/arm_cfft_radix2_init_q15.c ****   default:
 167:Source\TransformFunctions/arm_cfft_radix2_init_q15.c ****     /*  Reporting argument error if fftSize is not valid value */
 168:Source\TransformFunctions/arm_cfft_radix2_init_q15.c ****     status = ARM_MATH_ARGUMENT_ERROR;
 261              		.loc 1 168 0
 262 0156 0F23     		mov	r3, #15
 263 0158 FB18     		add	r3, r7, r3
 264 015a FF22     		mov	r2, #255
 265 015c 1A70     		strb	r2, [r3]
 169:Source\TransformFunctions/arm_cfft_radix2_init_q15.c ****     break;
 266              		.loc 1 169 0
 267 015e C046     		mov	r8, r8
 268              	.L15:
 170:Source\TransformFunctions/arm_cfft_radix2_init_q15.c ****   }
 171:Source\TransformFunctions/arm_cfft_radix2_init_q15.c **** 
 172:Source\TransformFunctions/arm_cfft_radix2_init_q15.c ****   return (status);
 269              		.loc 1 172 0
 270 0160 0F23     		mov	r3, #15
 271 0162 FB18     		add	r3, r7, r3
 272 0164 1B78     		ldrb	r3, [r3]
 273 0166 5BB2     		sxtb	r3, r3
 173:Source\TransformFunctions/arm_cfft_radix2_init_q15.c **** }
 274              		.loc 1 173 0
 275 0168 181C     		mov	r0, r3
 276 016a BD46     		mov	sp, r7
 277 016c 05B0     		add	sp, sp, #20
 278              		@ sp needed
 279 016e 90BD     		pop	{r4, r7, pc}
 280              	.L18:
 281              		.align	2
 282              	.L17:
 283 0170 00000000 		.word	twiddleCoef_4096_q15
ARM GAS  C:\Users\fneves\AppData\Local\Temp\cc5N0vc2.s 			page 9


 284 0174 00000000 		.word	armBitRevTable
 285 0178 02000000 		.word	armBitRevTable+2
 286 017c 06000000 		.word	armBitRevTable+6
 287 0180 0E000000 		.word	armBitRevTable+14
 288 0184 1E000000 		.word	armBitRevTable+30
 289 0188 3E000000 		.word	armBitRevTable+62
 290 018c 7E000000 		.word	armBitRevTable+126
 291 0190 FE000000 		.word	armBitRevTable+254
 292 0194 FE010000 		.word	armBitRevTable+510
 293              		.cfi_endproc
 294              	.LFE82:
 295              		.size	arm_cfft_radix2_init_q15, .-arm_cfft_radix2_init_q15
 296              		.text
 297              	.Letext0:
 298              		.file 2 "c:\\program files (x86)\\cypress\\psoc creator\\4.0\\psoc creator\\import\\gnu\\arm\\4.9.
 299              		.file 3 "c:\\program files (x86)\\cypress\\psoc creator\\4.0\\psoc creator\\import\\gnu\\arm\\4.9.
 300              		.file 4 ".\\Include/arm_math.h"
 301              		.file 5 ".\\Include/arm_common_tables.h"
 302              		.section	.debug_info,"",%progbits
 303              	.Ldebug_info0:
 304 0000 3C020000 		.4byte	0x23c
 305 0004 0400     		.2byte	0x4
 306 0006 00000000 		.4byte	.Ldebug_abbrev0
 307 000a 04       		.byte	0x4
 308 000b 01       		.uleb128 0x1
 309 000c 8C010000 		.4byte	.LASF39
 310 0010 01       		.byte	0x1
 311 0011 BF020000 		.4byte	.LASF40
 312 0015 23000000 		.4byte	.LASF41
 313 0019 00000000 		.4byte	.Ldebug_ranges0+0
 314 001d 00000000 		.4byte	0
 315 0021 00000000 		.4byte	.Ldebug_line0
 316 0025 02       		.uleb128 0x2
 317 0026 01       		.byte	0x1
 318 0027 06       		.byte	0x6
 319 0028 1A030000 		.4byte	.LASF0
 320 002c 03       		.uleb128 0x3
 321 002d 00000000 		.4byte	.LASF2
 322 0031 02       		.byte	0x2
 323 0032 1D       		.byte	0x1d
 324 0033 37000000 		.4byte	0x37
 325 0037 02       		.uleb128 0x2
 326 0038 01       		.byte	0x1
 327 0039 08       		.byte	0x8
 328 003a CE000000 		.4byte	.LASF1
 329 003e 03       		.uleb128 0x3
 330 003f 19000000 		.4byte	.LASF3
 331 0043 02       		.byte	0x2
 332 0044 29       		.byte	0x29
 333 0045 49000000 		.4byte	0x49
 334 0049 02       		.uleb128 0x2
 335 004a 02       		.byte	0x2
 336 004b 05       		.byte	0x5
 337 004c 3D010000 		.4byte	.LASF4
 338 0050 03       		.uleb128 0x3
 339 0051 2B010000 		.4byte	.LASF5
 340 0055 02       		.byte	0x2
ARM GAS  C:\Users\fneves\AppData\Local\Temp\cc5N0vc2.s 			page 10


 341 0056 2B       		.byte	0x2b
 342 0057 5B000000 		.4byte	0x5b
 343 005b 02       		.uleb128 0x2
 344 005c 02       		.byte	0x2
 345 005d 07       		.byte	0x7
 346 005e FB000000 		.4byte	.LASF6
 347 0062 02       		.uleb128 0x2
 348 0063 04       		.byte	0x4
 349 0064 05       		.byte	0x5
 350 0065 F4020000 		.4byte	.LASF7
 351 0069 02       		.uleb128 0x2
 352 006a 04       		.byte	0x4
 353 006b 07       		.byte	0x7
 354 006c E9000000 		.4byte	.LASF8
 355 0070 02       		.uleb128 0x2
 356 0071 08       		.byte	0x8
 357 0072 05       		.byte	0x5
 358 0073 70020000 		.4byte	.LASF9
 359 0077 02       		.uleb128 0x2
 360 0078 08       		.byte	0x8
 361 0079 07       		.byte	0x7
 362 007a 75010000 		.4byte	.LASF10
 363 007e 04       		.uleb128 0x4
 364 007f 04       		.byte	0x4
 365 0080 05       		.byte	0x5
 366 0081 696E7400 		.ascii	"int\000"
 367 0085 02       		.uleb128 0x2
 368 0086 04       		.byte	0x4
 369 0087 07       		.byte	0x7
 370 0088 68010000 		.4byte	.LASF11
 371 008c 03       		.uleb128 0x3
 372 008d 7E000000 		.4byte	.LASF12
 373 0091 03       		.byte	0x3
 374 0092 15       		.byte	0x15
 375 0093 2C000000 		.4byte	0x2c
 376 0097 03       		.uleb128 0x3
 377 0098 3D020000 		.4byte	.LASF13
 378 009c 03       		.byte	0x3
 379 009d 20       		.byte	0x20
 380 009e 3E000000 		.4byte	0x3e
 381 00a2 03       		.uleb128 0x3
 382 00a3 B6020000 		.4byte	.LASF14
 383 00a7 03       		.byte	0x3
 384 00a8 21       		.byte	0x21
 385 00a9 50000000 		.4byte	0x50
 386 00ad 02       		.uleb128 0x2
 387 00ae 04       		.byte	0x4
 388 00af 07       		.byte	0x7
 389 00b0 67020000 		.4byte	.LASF15
 390 00b4 02       		.uleb128 0x2
 391 00b5 01       		.byte	0x1
 392 00b6 08       		.byte	0x8
 393 00b7 87020000 		.4byte	.LASF16
 394 00bb 02       		.uleb128 0x2
 395 00bc 08       		.byte	0x8
 396 00bd 04       		.byte	0x4
 397 00be 36010000 		.4byte	.LASF17
ARM GAS  C:\Users\fneves\AppData\Local\Temp\cc5N0vc2.s 			page 11


 398 00c2 02       		.uleb128 0x2
 399 00c3 04       		.byte	0x4
 400 00c4 04       		.byte	0x4
 401 00c5 C8000000 		.4byte	.LASF18
 402 00c9 02       		.uleb128 0x2
 403 00ca 08       		.byte	0x8
 404 00cb 04       		.byte	0x4
 405 00cc 5B020000 		.4byte	.LASF19
 406 00d0 05       		.uleb128 0x5
 407 00d1 01       		.byte	0x1
 408 00d2 04       		.byte	0x4
 409 00d3 8401     		.2byte	0x184
 410 00d5 04010000 		.4byte	0x104
 411 00d9 06       		.uleb128 0x6
 412 00da 8C020000 		.4byte	.LASF20
 413 00de 00       		.sleb128 0
 414 00df 06       		.uleb128 0x6
 415 00e0 47010000 		.4byte	.LASF21
 416 00e4 7F       		.sleb128 -1
 417 00e5 06       		.uleb128 0x6
 418 00e6 45020000 		.4byte	.LASF22
 419 00ea 7E       		.sleb128 -2
 420 00eb 06       		.uleb128 0x6
 421 00ec 9E000000 		.4byte	.LASF23
 422 00f0 7D       		.sleb128 -3
 423 00f1 06       		.uleb128 0x6
 424 00f2 2D020000 		.4byte	.LASF24
 425 00f6 7C       		.sleb128 -4
 426 00f7 06       		.uleb128 0x6
 427 00f8 31030000 		.4byte	.LASF25
 428 00fc 7B       		.sleb128 -5
 429 00fd 06       		.uleb128 0x6
 430 00fe 15010000 		.4byte	.LASF26
 431 0102 7A       		.sleb128 -6
 432 0103 00       		.byte	0
 433 0104 07       		.uleb128 0x7
 434 0105 26030000 		.4byte	.LASF27
 435 0109 04       		.byte	0x4
 436 010a 8C01     		.2byte	0x18c
 437 010c D0000000 		.4byte	0xd0
 438 0110 07       		.uleb128 0x7
 439 0111 C2000000 		.4byte	.LASF28
 440 0115 04       		.byte	0x4
 441 0116 9601     		.2byte	0x196
 442 0118 97000000 		.4byte	0x97
 443 011c 08       		.uleb128 0x8
 444 011d 04       		.byte	0x4
 445 011e 10010000 		.4byte	0x110
 446 0122 09       		.uleb128 0x9
 447 0123 10       		.byte	0x10
 448 0124 04       		.byte	0x4
 449 0125 DD07     		.2byte	0x7dd
 450 0127 87010000 		.4byte	0x187
 451 012b 0A       		.uleb128 0xa
 452 012c 0E010000 		.4byte	.LASF29
 453 0130 04       		.byte	0x4
 454 0131 DF07     		.2byte	0x7df
ARM GAS  C:\Users\fneves\AppData\Local\Temp\cc5N0vc2.s 			page 12


 455 0133 A2000000 		.4byte	0xa2
 456 0137 00       		.byte	0
 457 0138 0A       		.uleb128 0xa
 458 0139 5F010000 		.4byte	.LASF30
 459 013d 04       		.byte	0x4
 460 013e E007     		.2byte	0x7e0
 461 0140 8C000000 		.4byte	0x8c
 462 0144 02       		.byte	0x2
 463 0145 0A       		.uleb128 0xa
 464 0146 1E020000 		.4byte	.LASF31
 465 014a 04       		.byte	0x4
 466 014b E107     		.2byte	0x7e1
 467 014d 8C000000 		.4byte	0x8c
 468 0151 03       		.byte	0x3
 469 0152 0A       		.uleb128 0xa
 470 0153 7E020000 		.4byte	.LASF32
 471 0157 04       		.byte	0x4
 472 0158 E207     		.2byte	0x7e2
 473 015a 1C010000 		.4byte	0x11c
 474 015e 04       		.byte	0x4
 475 015f 0A       		.uleb128 0xa
 476 0160 B5000000 		.4byte	.LASF33
 477 0164 04       		.byte	0x4
 478 0165 E307     		.2byte	0x7e3
 479 0167 87010000 		.4byte	0x187
 480 016b 08       		.byte	0x8
 481 016c 0A       		.uleb128 0xa
 482 016d 86000000 		.4byte	.LASF34
 483 0171 04       		.byte	0x4
 484 0172 E407     		.2byte	0x7e4
 485 0174 A2000000 		.4byte	0xa2
 486 0178 0C       		.byte	0xc
 487 0179 0A       		.uleb128 0xa
 488 017a DC000000 		.4byte	.LASF35
 489 017e 04       		.byte	0x4
 490 017f E507     		.2byte	0x7e5
 491 0181 A2000000 		.4byte	0xa2
 492 0185 0E       		.byte	0xe
 493 0186 00       		.byte	0
 494 0187 08       		.uleb128 0x8
 495 0188 04       		.byte	0x4
 496 0189 A2000000 		.4byte	0xa2
 497 018d 07       		.uleb128 0x7
 498 018e FD020000 		.4byte	.LASF36
 499 0192 04       		.byte	0x4
 500 0193 E607     		.2byte	0x7e6
 501 0195 22010000 		.4byte	0x122
 502 0199 0B       		.uleb128 0xb
 503 019a 9D020000 		.4byte	.LASF42
 504 019e 01       		.byte	0x1
 505 019f 40       		.byte	0x40
 506 01a0 04010000 		.4byte	0x104
 507 01a4 00000000 		.4byte	.LFB82
 508 01a8 98010000 		.4byte	.LFE82-.LFB82
 509 01ac 01       		.uleb128 0x1
 510 01ad 9C       		.byte	0x9c
 511 01ae F7010000 		.4byte	0x1f7
ARM GAS  C:\Users\fneves\AppData\Local\Temp\cc5N0vc2.s 			page 13


 512 01b2 0C       		.uleb128 0xc
 513 01b3 5300     		.ascii	"S\000"
 514 01b5 01       		.byte	0x1
 515 01b6 41       		.byte	0x41
 516 01b7 F7010000 		.4byte	0x1f7
 517 01bb 02       		.uleb128 0x2
 518 01bc 91       		.byte	0x91
 519 01bd 64       		.sleb128 -28
 520 01be 0D       		.uleb128 0xd
 521 01bf 0E010000 		.4byte	.LASF29
 522 01c3 01       		.byte	0x1
 523 01c4 42       		.byte	0x42
 524 01c5 A2000000 		.4byte	0xa2
 525 01c9 02       		.uleb128 0x2
 526 01ca 91       		.byte	0x91
 527 01cb 62       		.sleb128 -30
 528 01cc 0D       		.uleb128 0xd
 529 01cd 5F010000 		.4byte	.LASF30
 530 01d1 01       		.byte	0x1
 531 01d2 43       		.byte	0x43
 532 01d3 8C000000 		.4byte	0x8c
 533 01d7 02       		.uleb128 0x2
 534 01d8 91       		.byte	0x91
 535 01d9 61       		.sleb128 -31
 536 01da 0D       		.uleb128 0xd
 537 01db 1E020000 		.4byte	.LASF31
 538 01df 01       		.byte	0x1
 539 01e0 44       		.byte	0x44
 540 01e1 8C000000 		.4byte	0x8c
 541 01e5 02       		.uleb128 0x2
 542 01e6 91       		.byte	0x91
 543 01e7 60       		.sleb128 -32
 544 01e8 0E       		.uleb128 0xe
 545 01e9 97000000 		.4byte	.LASF43
 546 01ed 01       		.byte	0x1
 547 01ee 47       		.byte	0x47
 548 01ef 04010000 		.4byte	0x104
 549 01f3 02       		.uleb128 0x2
 550 01f4 91       		.byte	0x91
 551 01f5 6F       		.sleb128 -17
 552 01f6 00       		.byte	0
 553 01f7 08       		.uleb128 0x8
 554 01f8 04       		.byte	0x4
 555 01f9 8D010000 		.4byte	0x18d
 556 01fd 0F       		.uleb128 0xf
 557 01fe A2000000 		.4byte	0xa2
 558 0202 0E020000 		.4byte	0x20e
 559 0206 10       		.uleb128 0x10
 560 0207 AD000000 		.4byte	0xad
 561 020b FF03     		.2byte	0x3ff
 562 020d 00       		.byte	0
 563 020e 11       		.uleb128 0x11
 564 020f 0A000000 		.4byte	.LASF37
 565 0213 05       		.byte	0x5
 566 0214 22       		.byte	0x22
 567 0215 19020000 		.4byte	0x219
 568 0219 12       		.uleb128 0x12
ARM GAS  C:\Users\fneves\AppData\Local\Temp\cc5N0vc2.s 			page 14


 569 021a FD010000 		.4byte	0x1fd
 570 021e 0F       		.uleb128 0xf
 571 021f 10010000 		.4byte	0x110
 572 0223 2F020000 		.4byte	0x22f
 573 0227 10       		.uleb128 0x10
 574 0228 AD000000 		.4byte	0xad
 575 022c FF17     		.2byte	0x17ff
 576 022e 00       		.byte	0
 577 022f 11       		.uleb128 0x11
 578 0230 69000000 		.4byte	.LASF38
 579 0234 05       		.byte	0x5
 580 0235 40       		.byte	0x40
 581 0236 3A020000 		.4byte	0x23a
 582 023a 12       		.uleb128 0x12
 583 023b 1E020000 		.4byte	0x21e
 584 023f 00       		.byte	0
 585              		.section	.debug_abbrev,"",%progbits
 586              	.Ldebug_abbrev0:
 587 0000 01       		.uleb128 0x1
 588 0001 11       		.uleb128 0x11
 589 0002 01       		.byte	0x1
 590 0003 25       		.uleb128 0x25
 591 0004 0E       		.uleb128 0xe
 592 0005 13       		.uleb128 0x13
 593 0006 0B       		.uleb128 0xb
 594 0007 03       		.uleb128 0x3
 595 0008 0E       		.uleb128 0xe
 596 0009 1B       		.uleb128 0x1b
 597 000a 0E       		.uleb128 0xe
 598 000b 55       		.uleb128 0x55
 599 000c 17       		.uleb128 0x17
 600 000d 11       		.uleb128 0x11
 601 000e 01       		.uleb128 0x1
 602 000f 10       		.uleb128 0x10
 603 0010 17       		.uleb128 0x17
 604 0011 00       		.byte	0
 605 0012 00       		.byte	0
 606 0013 02       		.uleb128 0x2
 607 0014 24       		.uleb128 0x24
 608 0015 00       		.byte	0
 609 0016 0B       		.uleb128 0xb
 610 0017 0B       		.uleb128 0xb
 611 0018 3E       		.uleb128 0x3e
 612 0019 0B       		.uleb128 0xb
 613 001a 03       		.uleb128 0x3
 614 001b 0E       		.uleb128 0xe
 615 001c 00       		.byte	0
 616 001d 00       		.byte	0
 617 001e 03       		.uleb128 0x3
 618 001f 16       		.uleb128 0x16
 619 0020 00       		.byte	0
 620 0021 03       		.uleb128 0x3
 621 0022 0E       		.uleb128 0xe
 622 0023 3A       		.uleb128 0x3a
 623 0024 0B       		.uleb128 0xb
 624 0025 3B       		.uleb128 0x3b
 625 0026 0B       		.uleb128 0xb
ARM GAS  C:\Users\fneves\AppData\Local\Temp\cc5N0vc2.s 			page 15


 626 0027 49       		.uleb128 0x49
 627 0028 13       		.uleb128 0x13
 628 0029 00       		.byte	0
 629 002a 00       		.byte	0
 630 002b 04       		.uleb128 0x4
 631 002c 24       		.uleb128 0x24
 632 002d 00       		.byte	0
 633 002e 0B       		.uleb128 0xb
 634 002f 0B       		.uleb128 0xb
 635 0030 3E       		.uleb128 0x3e
 636 0031 0B       		.uleb128 0xb
 637 0032 03       		.uleb128 0x3
 638 0033 08       		.uleb128 0x8
 639 0034 00       		.byte	0
 640 0035 00       		.byte	0
 641 0036 05       		.uleb128 0x5
 642 0037 04       		.uleb128 0x4
 643 0038 01       		.byte	0x1
 644 0039 0B       		.uleb128 0xb
 645 003a 0B       		.uleb128 0xb
 646 003b 3A       		.uleb128 0x3a
 647 003c 0B       		.uleb128 0xb
 648 003d 3B       		.uleb128 0x3b
 649 003e 05       		.uleb128 0x5
 650 003f 01       		.uleb128 0x1
 651 0040 13       		.uleb128 0x13
 652 0041 00       		.byte	0
 653 0042 00       		.byte	0
 654 0043 06       		.uleb128 0x6
 655 0044 28       		.uleb128 0x28
 656 0045 00       		.byte	0
 657 0046 03       		.uleb128 0x3
 658 0047 0E       		.uleb128 0xe
 659 0048 1C       		.uleb128 0x1c
 660 0049 0D       		.uleb128 0xd
 661 004a 00       		.byte	0
 662 004b 00       		.byte	0
 663 004c 07       		.uleb128 0x7
 664 004d 16       		.uleb128 0x16
 665 004e 00       		.byte	0
 666 004f 03       		.uleb128 0x3
 667 0050 0E       		.uleb128 0xe
 668 0051 3A       		.uleb128 0x3a
 669 0052 0B       		.uleb128 0xb
 670 0053 3B       		.uleb128 0x3b
 671 0054 05       		.uleb128 0x5
 672 0055 49       		.uleb128 0x49
 673 0056 13       		.uleb128 0x13
 674 0057 00       		.byte	0
 675 0058 00       		.byte	0
 676 0059 08       		.uleb128 0x8
 677 005a 0F       		.uleb128 0xf
 678 005b 00       		.byte	0
 679 005c 0B       		.uleb128 0xb
 680 005d 0B       		.uleb128 0xb
 681 005e 49       		.uleb128 0x49
 682 005f 13       		.uleb128 0x13
ARM GAS  C:\Users\fneves\AppData\Local\Temp\cc5N0vc2.s 			page 16


 683 0060 00       		.byte	0
 684 0061 00       		.byte	0
 685 0062 09       		.uleb128 0x9
 686 0063 13       		.uleb128 0x13
 687 0064 01       		.byte	0x1
 688 0065 0B       		.uleb128 0xb
 689 0066 0B       		.uleb128 0xb
 690 0067 3A       		.uleb128 0x3a
 691 0068 0B       		.uleb128 0xb
 692 0069 3B       		.uleb128 0x3b
 693 006a 05       		.uleb128 0x5
 694 006b 01       		.uleb128 0x1
 695 006c 13       		.uleb128 0x13
 696 006d 00       		.byte	0
 697 006e 00       		.byte	0
 698 006f 0A       		.uleb128 0xa
 699 0070 0D       		.uleb128 0xd
 700 0071 00       		.byte	0
 701 0072 03       		.uleb128 0x3
 702 0073 0E       		.uleb128 0xe
 703 0074 3A       		.uleb128 0x3a
 704 0075 0B       		.uleb128 0xb
 705 0076 3B       		.uleb128 0x3b
 706 0077 05       		.uleb128 0x5
 707 0078 49       		.uleb128 0x49
 708 0079 13       		.uleb128 0x13
 709 007a 38       		.uleb128 0x38
 710 007b 0B       		.uleb128 0xb
 711 007c 00       		.byte	0
 712 007d 00       		.byte	0
 713 007e 0B       		.uleb128 0xb
 714 007f 2E       		.uleb128 0x2e
 715 0080 01       		.byte	0x1
 716 0081 3F       		.uleb128 0x3f
 717 0082 19       		.uleb128 0x19
 718 0083 03       		.uleb128 0x3
 719 0084 0E       		.uleb128 0xe
 720 0085 3A       		.uleb128 0x3a
 721 0086 0B       		.uleb128 0xb
 722 0087 3B       		.uleb128 0x3b
 723 0088 0B       		.uleb128 0xb
 724 0089 27       		.uleb128 0x27
 725 008a 19       		.uleb128 0x19
 726 008b 49       		.uleb128 0x49
 727 008c 13       		.uleb128 0x13
 728 008d 11       		.uleb128 0x11
 729 008e 01       		.uleb128 0x1
 730 008f 12       		.uleb128 0x12
 731 0090 06       		.uleb128 0x6
 732 0091 40       		.uleb128 0x40
 733 0092 18       		.uleb128 0x18
 734 0093 9742     		.uleb128 0x2117
 735 0095 19       		.uleb128 0x19
 736 0096 01       		.uleb128 0x1
 737 0097 13       		.uleb128 0x13
 738 0098 00       		.byte	0
 739 0099 00       		.byte	0
ARM GAS  C:\Users\fneves\AppData\Local\Temp\cc5N0vc2.s 			page 17


 740 009a 0C       		.uleb128 0xc
 741 009b 05       		.uleb128 0x5
 742 009c 00       		.byte	0
 743 009d 03       		.uleb128 0x3
 744 009e 08       		.uleb128 0x8
 745 009f 3A       		.uleb128 0x3a
 746 00a0 0B       		.uleb128 0xb
 747 00a1 3B       		.uleb128 0x3b
 748 00a2 0B       		.uleb128 0xb
 749 00a3 49       		.uleb128 0x49
 750 00a4 13       		.uleb128 0x13
 751 00a5 02       		.uleb128 0x2
 752 00a6 18       		.uleb128 0x18
 753 00a7 00       		.byte	0
 754 00a8 00       		.byte	0
 755 00a9 0D       		.uleb128 0xd
 756 00aa 05       		.uleb128 0x5
 757 00ab 00       		.byte	0
 758 00ac 03       		.uleb128 0x3
 759 00ad 0E       		.uleb128 0xe
 760 00ae 3A       		.uleb128 0x3a
 761 00af 0B       		.uleb128 0xb
 762 00b0 3B       		.uleb128 0x3b
 763 00b1 0B       		.uleb128 0xb
 764 00b2 49       		.uleb128 0x49
 765 00b3 13       		.uleb128 0x13
 766 00b4 02       		.uleb128 0x2
 767 00b5 18       		.uleb128 0x18
 768 00b6 00       		.byte	0
 769 00b7 00       		.byte	0
 770 00b8 0E       		.uleb128 0xe
 771 00b9 34       		.uleb128 0x34
 772 00ba 00       		.byte	0
 773 00bb 03       		.uleb128 0x3
 774 00bc 0E       		.uleb128 0xe
 775 00bd 3A       		.uleb128 0x3a
 776 00be 0B       		.uleb128 0xb
 777 00bf 3B       		.uleb128 0x3b
 778 00c0 0B       		.uleb128 0xb
 779 00c1 49       		.uleb128 0x49
 780 00c2 13       		.uleb128 0x13
 781 00c3 02       		.uleb128 0x2
 782 00c4 18       		.uleb128 0x18
 783 00c5 00       		.byte	0
 784 00c6 00       		.byte	0
 785 00c7 0F       		.uleb128 0xf
 786 00c8 01       		.uleb128 0x1
 787 00c9 01       		.byte	0x1
 788 00ca 49       		.uleb128 0x49
 789 00cb 13       		.uleb128 0x13
 790 00cc 01       		.uleb128 0x1
 791 00cd 13       		.uleb128 0x13
 792 00ce 00       		.byte	0
 793 00cf 00       		.byte	0
 794 00d0 10       		.uleb128 0x10
 795 00d1 21       		.uleb128 0x21
 796 00d2 00       		.byte	0
ARM GAS  C:\Users\fneves\AppData\Local\Temp\cc5N0vc2.s 			page 18


 797 00d3 49       		.uleb128 0x49
 798 00d4 13       		.uleb128 0x13
 799 00d5 2F       		.uleb128 0x2f
 800 00d6 05       		.uleb128 0x5
 801 00d7 00       		.byte	0
 802 00d8 00       		.byte	0
 803 00d9 11       		.uleb128 0x11
 804 00da 34       		.uleb128 0x34
 805 00db 00       		.byte	0
 806 00dc 03       		.uleb128 0x3
 807 00dd 0E       		.uleb128 0xe
 808 00de 3A       		.uleb128 0x3a
 809 00df 0B       		.uleb128 0xb
 810 00e0 3B       		.uleb128 0x3b
 811 00e1 0B       		.uleb128 0xb
 812 00e2 49       		.uleb128 0x49
 813 00e3 13       		.uleb128 0x13
 814 00e4 3F       		.uleb128 0x3f
 815 00e5 19       		.uleb128 0x19
 816 00e6 3C       		.uleb128 0x3c
 817 00e7 19       		.uleb128 0x19
 818 00e8 00       		.byte	0
 819 00e9 00       		.byte	0
 820 00ea 12       		.uleb128 0x12
 821 00eb 26       		.uleb128 0x26
 822 00ec 00       		.byte	0
 823 00ed 49       		.uleb128 0x49
 824 00ee 13       		.uleb128 0x13
 825 00ef 00       		.byte	0
 826 00f0 00       		.byte	0
 827 00f1 00       		.byte	0
 828              		.section	.debug_aranges,"",%progbits
 829 0000 1C000000 		.4byte	0x1c
 830 0004 0200     		.2byte	0x2
 831 0006 00000000 		.4byte	.Ldebug_info0
 832 000a 04       		.byte	0x4
 833 000b 00       		.byte	0
 834 000c 0000     		.2byte	0
 835 000e 0000     		.2byte	0
 836 0010 00000000 		.4byte	.LFB82
 837 0014 98010000 		.4byte	.LFE82-.LFB82
 838 0018 00000000 		.4byte	0
 839 001c 00000000 		.4byte	0
 840              		.section	.debug_ranges,"",%progbits
 841              	.Ldebug_ranges0:
 842 0000 00000000 		.4byte	.LFB82
 843 0004 98010000 		.4byte	.LFE82
 844 0008 00000000 		.4byte	0
 845 000c 00000000 		.4byte	0
 846              		.section	.debug_line,"",%progbits
 847              	.Ldebug_line0:
 848 0000 B8010000 		.section	.debug_str,"MS",%progbits,1
 848      02007201 
 848      00000201 
 848      FB0E0D00 
 848      01010101 
 849              	.LASF2:
ARM GAS  C:\Users\fneves\AppData\Local\Temp\cc5N0vc2.s 			page 19


 850 0000 5F5F7569 		.ascii	"__uint8_t\000"
 850      6E74385F 
 850      7400
 851              	.LASF37:
 852 000a 61726D42 		.ascii	"armBitRevTable\000"
 852      69745265 
 852      76546162 
 852      6C6500
 853              	.LASF3:
 854 0019 5F5F696E 		.ascii	"__int16_t\000"
 854      7431365F 
 854      7400
 855              	.LASF41:
 856 0023 433A5C55 		.ascii	"C:\\Users\\fneves\\Documents\\PSoC Creator\\wp_1\\e"
 856      73657273 
 856      5C666E65 
 856      7665735C 
 856      446F6375 
 857 0050 6E67696E 		.ascii	"ngine_speed_sensor.cydsn\000"
 857      655F7370 
 857      6565645F 
 857      73656E73 
 857      6F722E63 
 858              	.LASF38:
 859 0069 74776964 		.ascii	"twiddleCoef_4096_q15\000"
 859      646C6543 
 859      6F65665F 
 859      34303936 
 859      5F713135 
 860              	.LASF12:
 861 007e 75696E74 		.ascii	"uint8_t\000"
 861      385F7400 
 862              	.LASF34:
 863 0086 74776964 		.ascii	"twidCoefModifier\000"
 863      436F6566 
 863      4D6F6469 
 863      66696572 
 863      00
 864              	.LASF43:
 865 0097 73746174 		.ascii	"status\000"
 865      757300
 866              	.LASF23:
 867 009e 41524D5F 		.ascii	"ARM_MATH_SIZE_MISMATCH\000"
 867      4D415448 
 867      5F53495A 
 867      455F4D49 
 867      534D4154 
 868              	.LASF33:
 869 00b5 70426974 		.ascii	"pBitRevTable\000"
 869      52657654 
 869      61626C65 
 869      00
 870              	.LASF28:
 871 00c2 7131355F 		.ascii	"q15_t\000"
 871      7400
 872              	.LASF18:
 873 00c8 666C6F61 		.ascii	"float\000"
ARM GAS  C:\Users\fneves\AppData\Local\Temp\cc5N0vc2.s 			page 20


 873      7400
 874              	.LASF1:
 875 00ce 756E7369 		.ascii	"unsigned char\000"
 875      676E6564 
 875      20636861 
 875      7200
 876              	.LASF35:
 877 00dc 62697452 		.ascii	"bitRevFactor\000"
 877      65764661 
 877      63746F72 
 877      00
 878              	.LASF8:
 879 00e9 6C6F6E67 		.ascii	"long unsigned int\000"
 879      20756E73 
 879      69676E65 
 879      6420696E 
 879      7400
 880              	.LASF6:
 881 00fb 73686F72 		.ascii	"short unsigned int\000"
 881      7420756E 
 881      7369676E 
 881      65642069 
 881      6E7400
 882              	.LASF29:
 883 010e 6666744C 		.ascii	"fftLen\000"
 883      656E00
 884              	.LASF26:
 885 0115 41524D5F 		.ascii	"ARM_MATH_TEST_FAILURE\000"
 885      4D415448 
 885      5F544553 
 885      545F4641 
 885      494C5552 
 886              	.LASF5:
 887 012b 5F5F7569 		.ascii	"__uint16_t\000"
 887      6E743136 
 887      5F7400
 888              	.LASF17:
 889 0136 646F7562 		.ascii	"double\000"
 889      6C6500
 890              	.LASF4:
 891 013d 73686F72 		.ascii	"short int\000"
 891      7420696E 
 891      7400
 892              	.LASF21:
 893 0147 41524D5F 		.ascii	"ARM_MATH_ARGUMENT_ERROR\000"
 893      4D415448 
 893      5F415247 
 893      554D454E 
 893      545F4552 
 894              	.LASF30:
 895 015f 69666674 		.ascii	"ifftFlag\000"
 895      466C6167 
 895      00
 896              	.LASF11:
 897 0168 756E7369 		.ascii	"unsigned int\000"
 897      676E6564 
 897      20696E74 
ARM GAS  C:\Users\fneves\AppData\Local\Temp\cc5N0vc2.s 			page 21


 897      00
 898              	.LASF10:
 899 0175 6C6F6E67 		.ascii	"long long unsigned int\000"
 899      206C6F6E 
 899      6720756E 
 899      7369676E 
 899      65642069 
 900              	.LASF39:
 901 018c 474E5520 		.ascii	"GNU C 4.9.3 20150303 (release) [ARM/embedded-4_9-br"
 901      4320342E 
 901      392E3320 
 901      32303135 
 901      30333033 
 902 01bf 616E6368 		.ascii	"anch revision 221220] -mcpu=cortex-m0plus -mthumb -"
 902      20726576 
 902      6973696F 
 902      6E203232 
 902      31323230 
 903 01f2 67202D4F 		.ascii	"g -O0 -ffunction-sections -ffat-lto-objects\000"
 903      30202D66 
 903      66756E63 
 903      74696F6E 
 903      2D736563 
 904              	.LASF31:
 905 021e 62697452 		.ascii	"bitReverseFlag\000"
 905      65766572 
 905      7365466C 
 905      616700
 906              	.LASF24:
 907 022d 41524D5F 		.ascii	"ARM_MATH_NANINF\000"
 907      4D415448 
 907      5F4E414E 
 907      494E4600 
 908              	.LASF13:
 909 023d 696E7431 		.ascii	"int16_t\000"
 909      365F7400 
 910              	.LASF22:
 911 0245 41524D5F 		.ascii	"ARM_MATH_LENGTH_ERROR\000"
 911      4D415448 
 911      5F4C454E 
 911      4754485F 
 911      4552524F 
 912              	.LASF19:
 913 025b 6C6F6E67 		.ascii	"long double\000"
 913      20646F75 
 913      626C6500 
 914              	.LASF15:
 915 0267 73697A65 		.ascii	"sizetype\000"
 915      74797065 
 915      00
 916              	.LASF9:
 917 0270 6C6F6E67 		.ascii	"long long int\000"
 917      206C6F6E 
 917      6720696E 
 917      7400
 918              	.LASF32:
 919 027e 70547769 		.ascii	"pTwiddle\000"
ARM GAS  C:\Users\fneves\AppData\Local\Temp\cc5N0vc2.s 			page 22


 919      64646C65 
 919      00
 920              	.LASF16:
 921 0287 63686172 		.ascii	"char\000"
 921      00
 922              	.LASF20:
 923 028c 41524D5F 		.ascii	"ARM_MATH_SUCCESS\000"
 923      4D415448 
 923      5F535543 
 923      43455353 
 923      00
 924              	.LASF42:
 925 029d 61726D5F 		.ascii	"arm_cfft_radix2_init_q15\000"
 925      63666674 
 925      5F726164 
 925      6978325F 
 925      696E6974 
 926              	.LASF14:
 927 02b6 75696E74 		.ascii	"uint16_t\000"
 927      31365F74 
 927      00
 928              	.LASF40:
 929 02bf 536F7572 		.ascii	"Source\\TransformFunctions\\arm_cfft_radix2_init_q1"
 929      63655C54 
 929      72616E73 
 929      666F726D 
 929      46756E63 
 930 02f0 352E6300 		.ascii	"5.c\000"
 931              	.LASF7:
 932 02f4 6C6F6E67 		.ascii	"long int\000"
 932      20696E74 
 932      00
 933              	.LASF36:
 934 02fd 61726D5F 		.ascii	"arm_cfft_radix2_instance_q15\000"
 934      63666674 
 934      5F726164 
 934      6978325F 
 934      696E7374 
 935              	.LASF0:
 936 031a 7369676E 		.ascii	"signed char\000"
 936      65642063 
 936      68617200 
 937              	.LASF27:
 938 0326 61726D5F 		.ascii	"arm_status\000"
 938      73746174 
 938      757300
 939              	.LASF25:
 940 0331 41524D5F 		.ascii	"ARM_MATH_SINGULAR\000"
 940      4D415448 
 940      5F53494E 
 940      47554C41 
 940      5200
 941              		.ident	"GCC: (GNU Tools for ARM Embedded Processors) 4.9.3 20150303 (release) [ARM/embedded-4_9-br
