ARM GAS  C:\Users\fneves\AppData\Local\Temp\ccL8jykM.s 			page 1


   1              		.cpu cortex-m0plus
   2              		.fpu softvfp
   3              		.eabi_attribute 20, 1
   4              		.eabi_attribute 21, 1
   5              		.eabi_attribute 23, 3
   6              		.eabi_attribute 24, 1
   7              		.eabi_attribute 25, 1
   8              		.eabi_attribute 26, 1
   9              		.eabi_attribute 30, 6
  10              		.eabi_attribute 34, 0
  11              		.eabi_attribute 18, 4
  12              		.code	16
  13              		.file	"arm_fir_init_q7.c"
  14              		.text
  15              	.Ltext0:
  16              		.cfi_sections	.debug_frame
  17              		.section	.text.arm_fir_init_q7,"ax",%progbits
  18              		.align	2
  19              		.global	arm_fir_init_q7
  20              		.code	16
  21              		.thumb_func
  22              		.type	arm_fir_init_q7, %function
  23              	arm_fir_init_q7:
  24              	.LFB82:
  25              		.file 1 "Source\\FilteringFunctions\\arm_fir_init_q7.c"
   1:Source\FilteringFunctions/arm_fir_init_q7.c **** /* ----------------------------------------------------------------------
   2:Source\FilteringFunctions/arm_fir_init_q7.c ****  * Project:      CMSIS DSP Library
   3:Source\FilteringFunctions/arm_fir_init_q7.c ****  * Title:        arm_fir_init_q7.c
   4:Source\FilteringFunctions/arm_fir_init_q7.c ****  * Description:  Q7 FIR filter initialization function
   5:Source\FilteringFunctions/arm_fir_init_q7.c ****  *
   6:Source\FilteringFunctions/arm_fir_init_q7.c ****  * $Date:        27. January 2017
   7:Source\FilteringFunctions/arm_fir_init_q7.c ****  * $Revision:    V.1.5.1
   8:Source\FilteringFunctions/arm_fir_init_q7.c ****  *
   9:Source\FilteringFunctions/arm_fir_init_q7.c ****  * Target Processor: Cortex-M cores
  10:Source\FilteringFunctions/arm_fir_init_q7.c ****  * -------------------------------------------------------------------- */
  11:Source\FilteringFunctions/arm_fir_init_q7.c **** /*
  12:Source\FilteringFunctions/arm_fir_init_q7.c ****  * Copyright (C) 2010-2017 ARM Limited or its affiliates. All rights reserved.
  13:Source\FilteringFunctions/arm_fir_init_q7.c ****  *
  14:Source\FilteringFunctions/arm_fir_init_q7.c ****  * SPDX-License-Identifier: Apache-2.0
  15:Source\FilteringFunctions/arm_fir_init_q7.c ****  *
  16:Source\FilteringFunctions/arm_fir_init_q7.c ****  * Licensed under the Apache License, Version 2.0 (the License); you may
  17:Source\FilteringFunctions/arm_fir_init_q7.c ****  * not use this file except in compliance with the License.
  18:Source\FilteringFunctions/arm_fir_init_q7.c ****  * You may obtain a copy of the License at
  19:Source\FilteringFunctions/arm_fir_init_q7.c ****  *
  20:Source\FilteringFunctions/arm_fir_init_q7.c ****  * www.apache.org/licenses/LICENSE-2.0
  21:Source\FilteringFunctions/arm_fir_init_q7.c ****  *
  22:Source\FilteringFunctions/arm_fir_init_q7.c ****  * Unless required by applicable law or agreed to in writing, software
  23:Source\FilteringFunctions/arm_fir_init_q7.c ****  * distributed under the License is distributed on an AS IS BASIS, WITHOUT
  24:Source\FilteringFunctions/arm_fir_init_q7.c ****  * WARRANTIES OR CONDITIONS OF ANY KIND, either express or implied.
  25:Source\FilteringFunctions/arm_fir_init_q7.c ****  * See the License for the specific language governing permissions and
  26:Source\FilteringFunctions/arm_fir_init_q7.c ****  * limitations under the License.
  27:Source\FilteringFunctions/arm_fir_init_q7.c ****  */
  28:Source\FilteringFunctions/arm_fir_init_q7.c **** 
  29:Source\FilteringFunctions/arm_fir_init_q7.c **** #include "arm_math.h"
  30:Source\FilteringFunctions/arm_fir_init_q7.c **** 
  31:Source\FilteringFunctions/arm_fir_init_q7.c **** /**
  32:Source\FilteringFunctions/arm_fir_init_q7.c ****  * @ingroup groupFilters
ARM GAS  C:\Users\fneves\AppData\Local\Temp\ccL8jykM.s 			page 2


  33:Source\FilteringFunctions/arm_fir_init_q7.c ****  */
  34:Source\FilteringFunctions/arm_fir_init_q7.c **** 
  35:Source\FilteringFunctions/arm_fir_init_q7.c **** /**
  36:Source\FilteringFunctions/arm_fir_init_q7.c ****  * @addtogroup FIR
  37:Source\FilteringFunctions/arm_fir_init_q7.c ****  * @{
  38:Source\FilteringFunctions/arm_fir_init_q7.c ****  */
  39:Source\FilteringFunctions/arm_fir_init_q7.c **** /**
  40:Source\FilteringFunctions/arm_fir_init_q7.c ****  * @param[in,out] *S points to an instance of the Q7 FIR filter structure.
  41:Source\FilteringFunctions/arm_fir_init_q7.c ****  * @param[in] 	  numTaps  Number of filter coefficients in the filter.
  42:Source\FilteringFunctions/arm_fir_init_q7.c ****  * @param[in] 	  *pCoeffs points to the filter coefficients buffer.
  43:Source\FilteringFunctions/arm_fir_init_q7.c ****  * @param[in]     *pState points to the state buffer.
  44:Source\FilteringFunctions/arm_fir_init_q7.c ****  * @param[in]     blockSize number of samples that are processed per call.
  45:Source\FilteringFunctions/arm_fir_init_q7.c ****  * @return     	  none
  46:Source\FilteringFunctions/arm_fir_init_q7.c ****  *
  47:Source\FilteringFunctions/arm_fir_init_q7.c ****  * <b>Description:</b>
  48:Source\FilteringFunctions/arm_fir_init_q7.c ****  * \par
  49:Source\FilteringFunctions/arm_fir_init_q7.c ****  * <code>pCoeffs</code> points to the array of filter coefficients stored in time reversed order:
  50:Source\FilteringFunctions/arm_fir_init_q7.c ****  * <pre>
  51:Source\FilteringFunctions/arm_fir_init_q7.c ****  *    {b[numTaps-1], b[numTaps-2], b[N-2], ..., b[1], b[0]}
  52:Source\FilteringFunctions/arm_fir_init_q7.c ****  * </pre>
  53:Source\FilteringFunctions/arm_fir_init_q7.c ****  * \par
  54:Source\FilteringFunctions/arm_fir_init_q7.c ****  * <code>pState</code> points to the array of state variables.
  55:Source\FilteringFunctions/arm_fir_init_q7.c ****  * <code>pState</code> is of length <code>numTaps+blockSize-1</code> samples, where <code>blockSize
  56:Source\FilteringFunctions/arm_fir_init_q7.c ****  */
  57:Source\FilteringFunctions/arm_fir_init_q7.c **** 
  58:Source\FilteringFunctions/arm_fir_init_q7.c **** void arm_fir_init_q7(
  59:Source\FilteringFunctions/arm_fir_init_q7.c ****   arm_fir_instance_q7 * S,
  60:Source\FilteringFunctions/arm_fir_init_q7.c ****   uint16_t numTaps,
  61:Source\FilteringFunctions/arm_fir_init_q7.c ****   q7_t * pCoeffs,
  62:Source\FilteringFunctions/arm_fir_init_q7.c ****   q7_t * pState,
  63:Source\FilteringFunctions/arm_fir_init_q7.c ****   uint32_t blockSize)
  64:Source\FilteringFunctions/arm_fir_init_q7.c **** {
  26              		.loc 1 64 0
  27              		.cfi_startproc
  28 0000 80B5     		push	{r7, lr}
  29              		.cfi_def_cfa_offset 8
  30              		.cfi_offset 7, -8
  31              		.cfi_offset 14, -4
  32 0002 84B0     		sub	sp, sp, #16
  33              		.cfi_def_cfa_offset 24
  34 0004 00AF     		add	r7, sp, #0
  35              		.cfi_def_cfa_register 7
  36 0006 F860     		str	r0, [r7, #12]
  37 0008 7A60     		str	r2, [r7, #4]
  38 000a 3B60     		str	r3, [r7]
  39 000c 0A23     		mov	r3, #10
  40 000e FB18     		add	r3, r7, r3
  41 0010 0A1C     		add	r2, r1, #0
  42 0012 1A80     		strh	r2, [r3]
  65:Source\FilteringFunctions/arm_fir_init_q7.c **** 
  66:Source\FilteringFunctions/arm_fir_init_q7.c ****   /* Assign filter taps */
  67:Source\FilteringFunctions/arm_fir_init_q7.c ****   S->numTaps = numTaps;
  43              		.loc 1 67 0
  44 0014 FB68     		ldr	r3, [r7, #12]
  45 0016 0A22     		mov	r2, #10
  46 0018 BA18     		add	r2, r7, r2
  47 001a 1288     		ldrh	r2, [r2]
ARM GAS  C:\Users\fneves\AppData\Local\Temp\ccL8jykM.s 			page 3


  48 001c 1A80     		strh	r2, [r3]
  68:Source\FilteringFunctions/arm_fir_init_q7.c **** 
  69:Source\FilteringFunctions/arm_fir_init_q7.c ****   /* Assign coefficient pointer */
  70:Source\FilteringFunctions/arm_fir_init_q7.c ****   S->pCoeffs = pCoeffs;
  49              		.loc 1 70 0
  50 001e FB68     		ldr	r3, [r7, #12]
  51 0020 7A68     		ldr	r2, [r7, #4]
  52 0022 9A60     		str	r2, [r3, #8]
  71:Source\FilteringFunctions/arm_fir_init_q7.c **** 
  72:Source\FilteringFunctions/arm_fir_init_q7.c ****   /* Clear the state buffer.  The size is always (blockSize + numTaps - 1) */
  73:Source\FilteringFunctions/arm_fir_init_q7.c ****   memset(pState, 0, (numTaps + (blockSize - 1u)) * sizeof(q7_t));
  53              		.loc 1 73 0
  54 0024 0A23     		mov	r3, #10
  55 0026 FB18     		add	r3, r7, r3
  56 0028 1A88     		ldrh	r2, [r3]
  57 002a BB69     		ldr	r3, [r7, #24]
  58 002c D318     		add	r3, r2, r3
  59 002e 013B     		sub	r3, r3, #1
  60 0030 3A68     		ldr	r2, [r7]
  61 0032 101C     		mov	r0, r2
  62 0034 0021     		mov	r1, #0
  63 0036 1A1C     		mov	r2, r3
  64 0038 FFF7FEFF 		bl	memset
  74:Source\FilteringFunctions/arm_fir_init_q7.c **** 
  75:Source\FilteringFunctions/arm_fir_init_q7.c ****   /* Assign state pointer */
  76:Source\FilteringFunctions/arm_fir_init_q7.c ****   S->pState = pState;
  65              		.loc 1 76 0
  66 003c FB68     		ldr	r3, [r7, #12]
  67 003e 3A68     		ldr	r2, [r7]
  68 0040 5A60     		str	r2, [r3, #4]
  77:Source\FilteringFunctions/arm_fir_init_q7.c **** 
  78:Source\FilteringFunctions/arm_fir_init_q7.c **** }
  69              		.loc 1 78 0
  70 0042 BD46     		mov	sp, r7
  71 0044 04B0     		add	sp, sp, #16
  72              		@ sp needed
  73 0046 80BD     		pop	{r7, pc}
  74              		.cfi_endproc
  75              	.LFE82:
  76              		.size	arm_fir_init_q7, .-arm_fir_init_q7
  77              		.text
  78              	.Letext0:
  79              		.file 2 "c:\\program files (x86)\\cypress\\psoc creator\\4.0\\psoc creator\\import\\gnu\\arm\\4.9.
  80              		.file 3 "c:\\program files (x86)\\cypress\\psoc creator\\4.0\\psoc creator\\import\\gnu\\arm\\4.9.
  81              		.file 4 ".\\Include/arm_math.h"