ARM GAS  C:\Users\fneves\AppData\Local\Temp\ccgHZOfJ.s 			page 1


   1              		.cpu cortex-m0plus
   2              		.fpu softvfp
   3              		.eabi_attribute 20, 1
   4              		.eabi_attribute 21, 1
   5              		.eabi_attribute 23, 3
   6              		.eabi_attribute 24, 1
   7              		.eabi_attribute 25, 1
   8              		.eabi_attribute 26, 1
   9              		.eabi_attribute 30, 6
  10              		.eabi_attribute 34, 0
  11              		.eabi_attribute 18, 4
  12              		.code	16
  13              		.file	"arm_fir_f32.c"
  14              		.text
  15              	.Ltext0:
  16              		.cfi_sections	.debug_frame
  17              		.global	__aeabi_fmul
  18              		.global	__aeabi_fadd
  19              		.section	.text.arm_fir_f32,"ax",%progbits
  20              		.align	2
  21              		.global	arm_fir_f32
  22              		.code	16
  23              		.thumb_func
  24              		.type	arm_fir_f32, %function
  25              	arm_fir_f32:
  26              	.LFB82:
  27              		.file 1 "Source\\FilteringFunctions\\arm_fir_f32.c"
   1:Source\FilteringFunctions/arm_fir_f32.c **** /* ----------------------------------------------------------------------
   2:Source\FilteringFunctions/arm_fir_f32.c ****  * Project:      CMSIS DSP Library
   3:Source\FilteringFunctions/arm_fir_f32.c ****  * Title:        arm_fir_f32.c
   4:Source\FilteringFunctions/arm_fir_f32.c ****  * Description:  Floating-point FIR filter processing function
   5:Source\FilteringFunctions/arm_fir_f32.c ****  *
   6:Source\FilteringFunctions/arm_fir_f32.c ****  * $Date:        27. January 2017
   7:Source\FilteringFunctions/arm_fir_f32.c ****  * $Revision:    V.1.5.1
   8:Source\FilteringFunctions/arm_fir_f32.c ****  *
   9:Source\FilteringFunctions/arm_fir_f32.c ****  * Target Processor: Cortex-M cores
  10:Source\FilteringFunctions/arm_fir_f32.c ****  * -------------------------------------------------------------------- */
  11:Source\FilteringFunctions/arm_fir_f32.c **** /*
  12:Source\FilteringFunctions/arm_fir_f32.c ****  * Copyright (C) 2010-2017 ARM Limited or its affiliates. All rights reserved.
  13:Source\FilteringFunctions/arm_fir_f32.c ****  *
  14:Source\FilteringFunctions/arm_fir_f32.c ****  * SPDX-License-Identifier: Apache-2.0
  15:Source\FilteringFunctions/arm_fir_f32.c ****  *
  16:Source\FilteringFunctions/arm_fir_f32.c ****  * Licensed under the Apache License, Version 2.0 (the License); you may
  17:Source\FilteringFunctions/arm_fir_f32.c ****  * not use this file except in compliance with the License.
  18:Source\FilteringFunctions/arm_fir_f32.c ****  * You may obtain a copy of the License at
  19:Source\FilteringFunctions/arm_fir_f32.c ****  *
  20:Source\FilteringFunctions/arm_fir_f32.c ****  * www.apache.org/licenses/LICENSE-2.0
  21:Source\FilteringFunctions/arm_fir_f32.c ****  *
  22:Source\FilteringFunctions/arm_fir_f32.c ****  * Unless required by applicable law or agreed to in writing, software
  23:Source\FilteringFunctions/arm_fir_f32.c ****  * distributed under the License is distributed on an AS IS BASIS, WITHOUT
  24:Source\FilteringFunctions/arm_fir_f32.c ****  * WARRANTIES OR CONDITIONS OF ANY KIND, either express or implied.
  25:Source\FilteringFunctions/arm_fir_f32.c ****  * See the License for the specific language governing permissions and
  26:Source\FilteringFunctions/arm_fir_f32.c ****  * limitations under the License.
  27:Source\FilteringFunctions/arm_fir_f32.c ****  */
  28:Source\FilteringFunctions/arm_fir_f32.c **** 
  29:Source\FilteringFunctions/arm_fir_f32.c **** #include "arm_math.h"
  30:Source\FilteringFunctions/arm_fir_f32.c **** 
ARM GAS  C:\Users\fneves\AppData\Local\Temp\ccgHZOfJ.s 			page 2


  31:Source\FilteringFunctions/arm_fir_f32.c **** /**
  32:Source\FilteringFunctions/arm_fir_f32.c **** * @ingroup groupFilters
  33:Source\FilteringFunctions/arm_fir_f32.c **** */
  34:Source\FilteringFunctions/arm_fir_f32.c **** 
  35:Source\FilteringFunctions/arm_fir_f32.c **** /**
  36:Source\FilteringFunctions/arm_fir_f32.c **** * @defgroup FIR Finite Impulse Response (FIR) Filters
  37:Source\FilteringFunctions/arm_fir_f32.c **** *
  38:Source\FilteringFunctions/arm_fir_f32.c **** * This set of functions implements Finite Impulse Response (FIR) filters
  39:Source\FilteringFunctions/arm_fir_f32.c **** * for Q7, Q15, Q31, and floating-point data types.  Fast versions of Q15 and Q31 are also provided.
  40:Source\FilteringFunctions/arm_fir_f32.c **** * The functions operate on blocks of input and output data and each call to the function processes
  41:Source\FilteringFunctions/arm_fir_f32.c **** * <code>blockSize</code> samples through the filter.  <code>pSrc</code> and
  42:Source\FilteringFunctions/arm_fir_f32.c **** * <code>pDst</code> points to input and output arrays containing <code>blockSize</code> values.
  43:Source\FilteringFunctions/arm_fir_f32.c **** *
  44:Source\FilteringFunctions/arm_fir_f32.c **** * \par Algorithm:
  45:Source\FilteringFunctions/arm_fir_f32.c **** * The FIR filter algorithm is based upon a sequence of multiply-accumulate (MAC) operations.
  46:Source\FilteringFunctions/arm_fir_f32.c **** * Each filter coefficient <code>b[n]</code> is multiplied by a state variable which equals a previo
  47:Source\FilteringFunctions/arm_fir_f32.c **** * <pre>
  48:Source\FilteringFunctions/arm_fir_f32.c **** *    y[n] = b[0] * x[n] + b[1] * x[n-1] + b[2] * x[n-2] + ...+ b[numTaps-1] * x[n-numTaps+1]
  49:Source\FilteringFunctions/arm_fir_f32.c **** * </pre>
  50:Source\FilteringFunctions/arm_fir_f32.c **** * \par
  51:Source\FilteringFunctions/arm_fir_f32.c **** * \image html FIR.gif "Finite Impulse Response filter"
  52:Source\FilteringFunctions/arm_fir_f32.c **** * \par
  53:Source\FilteringFunctions/arm_fir_f32.c **** * <code>pCoeffs</code> points to a coefficient array of size <code>numTaps</code>.
  54:Source\FilteringFunctions/arm_fir_f32.c **** * Coefficients are stored in time reversed order.
  55:Source\FilteringFunctions/arm_fir_f32.c **** * \par
  56:Source\FilteringFunctions/arm_fir_f32.c **** * <pre>
  57:Source\FilteringFunctions/arm_fir_f32.c **** *    {b[numTaps-1], b[numTaps-2], b[N-2], ..., b[1], b[0]}
  58:Source\FilteringFunctions/arm_fir_f32.c **** * </pre>
  59:Source\FilteringFunctions/arm_fir_f32.c **** * \par
  60:Source\FilteringFunctions/arm_fir_f32.c **** * <code>pState</code> points to a state array of size <code>numTaps + blockSize - 1</code>.
  61:Source\FilteringFunctions/arm_fir_f32.c **** * Samples in the state buffer are stored in the following order.
  62:Source\FilteringFunctions/arm_fir_f32.c **** * \par
  63:Source\FilteringFunctions/arm_fir_f32.c **** * <pre>
  64:Source\FilteringFunctions/arm_fir_f32.c **** *    {x[n-numTaps+1], x[n-numTaps], x[n-numTaps-1], x[n-numTaps-2]....x[0], x[1], ..., x[blockSize-
  65:Source\FilteringFunctions/arm_fir_f32.c **** * </pre>
  66:Source\FilteringFunctions/arm_fir_f32.c **** * \par
  67:Source\FilteringFunctions/arm_fir_f32.c **** * Note that the length of the state buffer exceeds the length of the coefficient array by <code>blo
  68:Source\FilteringFunctions/arm_fir_f32.c **** * The increased state buffer length allows circular addressing, which is traditionally used in the 
  69:Source\FilteringFunctions/arm_fir_f32.c **** * to be avoided and yields a significant speed improvement.
  70:Source\FilteringFunctions/arm_fir_f32.c **** * The state variables are updated after each block of data is processed; the coefficients are untou
  71:Source\FilteringFunctions/arm_fir_f32.c **** * \par Instance Structure
  72:Source\FilteringFunctions/arm_fir_f32.c **** * The coefficients and state variables for a filter are stored together in an instance data structu
  73:Source\FilteringFunctions/arm_fir_f32.c **** * A separate instance structure must be defined for each filter.
  74:Source\FilteringFunctions/arm_fir_f32.c **** * Coefficient arrays may be shared among several instances while state variable arrays cannot be sh
  75:Source\FilteringFunctions/arm_fir_f32.c **** * There are separate instance structure declarations for each of the 4 supported data types.
  76:Source\FilteringFunctions/arm_fir_f32.c **** *
  77:Source\FilteringFunctions/arm_fir_f32.c **** * \par Initialization Functions
  78:Source\FilteringFunctions/arm_fir_f32.c **** * There is also an associated initialization function for each data type.
  79:Source\FilteringFunctions/arm_fir_f32.c **** * The initialization function performs the following operations:
  80:Source\FilteringFunctions/arm_fir_f32.c **** * - Sets the values of the internal structure fields.
  81:Source\FilteringFunctions/arm_fir_f32.c **** * - Zeros out the values in the state buffer.
  82:Source\FilteringFunctions/arm_fir_f32.c **** * To do this manually without calling the init function, assign the follow subfields of the instanc
  83:Source\FilteringFunctions/arm_fir_f32.c **** * numTaps, pCoeffs, pState. Also set all of the values in pState to zero.
  84:Source\FilteringFunctions/arm_fir_f32.c **** *
  85:Source\FilteringFunctions/arm_fir_f32.c **** * \par
  86:Source\FilteringFunctions/arm_fir_f32.c **** * Use of the initialization function is optional.
  87:Source\FilteringFunctions/arm_fir_f32.c **** * However, if the initialization function is used, then the instance structure cannot be placed int
ARM GAS  C:\Users\fneves\AppData\Local\Temp\ccgHZOfJ.s 			page 3


  88:Source\FilteringFunctions/arm_fir_f32.c **** * To place an instance structure into a const data section, the instance structure must be manually
  89:Source\FilteringFunctions/arm_fir_f32.c **** * Set the values in the state buffer to zeros before static initialization.
  90:Source\FilteringFunctions/arm_fir_f32.c **** * The code below statically initializes each of the 4 different data type filter instance structure
  91:Source\FilteringFunctions/arm_fir_f32.c **** * <pre>
  92:Source\FilteringFunctions/arm_fir_f32.c **** *arm_fir_instance_f32 S = {numTaps, pState, pCoeffs};
  93:Source\FilteringFunctions/arm_fir_f32.c **** *arm_fir_instance_q31 S = {numTaps, pState, pCoeffs};
  94:Source\FilteringFunctions/arm_fir_f32.c **** *arm_fir_instance_q15 S = {numTaps, pState, pCoeffs};
  95:Source\FilteringFunctions/arm_fir_f32.c **** *arm_fir_instance_q7 S =  {numTaps, pState, pCoeffs};
  96:Source\FilteringFunctions/arm_fir_f32.c **** * </pre>
  97:Source\FilteringFunctions/arm_fir_f32.c **** *
  98:Source\FilteringFunctions/arm_fir_f32.c **** * where <code>numTaps</code> is the number of filter coefficients in the filter; <code>pState</code
  99:Source\FilteringFunctions/arm_fir_f32.c **** * <code>pCoeffs</code> is the address of the coefficient buffer.
 100:Source\FilteringFunctions/arm_fir_f32.c **** *
 101:Source\FilteringFunctions/arm_fir_f32.c **** * \par Fixed-Point Behavior
 102:Source\FilteringFunctions/arm_fir_f32.c **** * Care must be taken when using the fixed-point versions of the FIR filter functions.
 103:Source\FilteringFunctions/arm_fir_f32.c **** * In particular, the overflow and saturation behavior of the accumulator used in each function must
 104:Source\FilteringFunctions/arm_fir_f32.c **** * Refer to the function specific documentation below for usage guidelines.
 105:Source\FilteringFunctions/arm_fir_f32.c **** */
 106:Source\FilteringFunctions/arm_fir_f32.c **** 
 107:Source\FilteringFunctions/arm_fir_f32.c **** /**
 108:Source\FilteringFunctions/arm_fir_f32.c **** * @addtogroup FIR
 109:Source\FilteringFunctions/arm_fir_f32.c **** * @{
 110:Source\FilteringFunctions/arm_fir_f32.c **** */
 111:Source\FilteringFunctions/arm_fir_f32.c **** 
 112:Source\FilteringFunctions/arm_fir_f32.c **** /**
 113:Source\FilteringFunctions/arm_fir_f32.c **** *
 114:Source\FilteringFunctions/arm_fir_f32.c **** * @param[in]  *S points to an instance of the floating-point FIR filter structure.
 115:Source\FilteringFunctions/arm_fir_f32.c **** * @param[in]  *pSrc points to the block of input data.
 116:Source\FilteringFunctions/arm_fir_f32.c **** * @param[out] *pDst points to the block of output data.
 117:Source\FilteringFunctions/arm_fir_f32.c **** * @param[in]  blockSize number of samples to process per call.
 118:Source\FilteringFunctions/arm_fir_f32.c **** * @return     none.
 119:Source\FilteringFunctions/arm_fir_f32.c **** *
 120:Source\FilteringFunctions/arm_fir_f32.c **** */
 121:Source\FilteringFunctions/arm_fir_f32.c **** 
 122:Source\FilteringFunctions/arm_fir_f32.c **** #if defined(ARM_MATH_CM7)
 123:Source\FilteringFunctions/arm_fir_f32.c **** 
 124:Source\FilteringFunctions/arm_fir_f32.c **** void arm_fir_f32(
 125:Source\FilteringFunctions/arm_fir_f32.c **** const arm_fir_instance_f32 * S,
 126:Source\FilteringFunctions/arm_fir_f32.c **** float32_t * pSrc,
 127:Source\FilteringFunctions/arm_fir_f32.c **** float32_t * pDst,
 128:Source\FilteringFunctions/arm_fir_f32.c **** uint32_t blockSize)
 129:Source\FilteringFunctions/arm_fir_f32.c **** {
 130:Source\FilteringFunctions/arm_fir_f32.c ****    float32_t *pState = S->pState;                 /* State pointer */
 131:Source\FilteringFunctions/arm_fir_f32.c ****    float32_t *pCoeffs = S->pCoeffs;               /* Coefficient pointer */
 132:Source\FilteringFunctions/arm_fir_f32.c ****    float32_t *pStateCurnt;                        /* Points to the current sample of the state */
 133:Source\FilteringFunctions/arm_fir_f32.c ****    float32_t *px, *pb;                            /* Temporary pointers for state and coefficient b
 134:Source\FilteringFunctions/arm_fir_f32.c ****    float32_t acc0, acc1, acc2, acc3, acc4, acc5, acc6, acc7;     /* Accumulators */
 135:Source\FilteringFunctions/arm_fir_f32.c ****    float32_t x0, x1, x2, x3, x4, x5, x6, x7, c0;  /* Temporary variables to hold state and coeffici
 136:Source\FilteringFunctions/arm_fir_f32.c ****    uint32_t numTaps = S->numTaps;                 /* Number of filter coefficients in the filter */
 137:Source\FilteringFunctions/arm_fir_f32.c ****    uint32_t i, tapCnt, blkCnt;                    /* Loop counters */
 138:Source\FilteringFunctions/arm_fir_f32.c **** 
 139:Source\FilteringFunctions/arm_fir_f32.c ****    /* S->pState points to state array which contains previous frame (numTaps - 1) samples */
 140:Source\FilteringFunctions/arm_fir_f32.c ****    /* pStateCurnt points to the location where the new input data should be written */
 141:Source\FilteringFunctions/arm_fir_f32.c ****    pStateCurnt = &(S->pState[(numTaps - 1u)]);
 142:Source\FilteringFunctions/arm_fir_f32.c **** 
 143:Source\FilteringFunctions/arm_fir_f32.c ****    /* Apply loop unrolling and compute 8 output values simultaneously.
 144:Source\FilteringFunctions/arm_fir_f32.c ****     * The variables acc0 ... acc7 hold output values that are being computed:
ARM GAS  C:\Users\fneves\AppData\Local\Temp\ccgHZOfJ.s 			page 4


 145:Source\FilteringFunctions/arm_fir_f32.c ****     *
 146:Source\FilteringFunctions/arm_fir_f32.c ****     *    acc0 =  b[numTaps-1] * x[n-numTaps-1] + b[numTaps-2] * x[n-numTaps-2] + b[numTaps-3] * x[n
 147:Source\FilteringFunctions/arm_fir_f32.c ****     *    acc1 =  b[numTaps-1] * x[n-numTaps] +   b[numTaps-2] * x[n-numTaps-1] + b[numTaps-3] * x[n
 148:Source\FilteringFunctions/arm_fir_f32.c ****     *    acc2 =  b[numTaps-1] * x[n-numTaps+1] + b[numTaps-2] * x[n-numTaps] +   b[numTaps-3] * x[n
 149:Source\FilteringFunctions/arm_fir_f32.c ****     *    acc3 =  b[numTaps-1] * x[n-numTaps+2] + b[numTaps-2] * x[n-numTaps+1] + b[numTaps-3] * x[n
 150:Source\FilteringFunctions/arm_fir_f32.c ****     */
 151:Source\FilteringFunctions/arm_fir_f32.c ****    blkCnt = blockSize >> 3;
 152:Source\FilteringFunctions/arm_fir_f32.c **** 
 153:Source\FilteringFunctions/arm_fir_f32.c ****    /* First part of the processing with loop unrolling.  Compute 8 outputs at a time.
 154:Source\FilteringFunctions/arm_fir_f32.c ****    ** a second loop below computes the remaining 1 to 7 samples. */
 155:Source\FilteringFunctions/arm_fir_f32.c ****    while (blkCnt > 0u)
 156:Source\FilteringFunctions/arm_fir_f32.c ****    {
 157:Source\FilteringFunctions/arm_fir_f32.c ****       /* Copy four new input samples into the state buffer */
 158:Source\FilteringFunctions/arm_fir_f32.c ****       *pStateCurnt++ = *pSrc++;
 159:Source\FilteringFunctions/arm_fir_f32.c ****       *pStateCurnt++ = *pSrc++;
 160:Source\FilteringFunctions/arm_fir_f32.c ****       *pStateCurnt++ = *pSrc++;
 161:Source\FilteringFunctions/arm_fir_f32.c ****       *pStateCurnt++ = *pSrc++;
 162:Source\FilteringFunctions/arm_fir_f32.c **** 
 163:Source\FilteringFunctions/arm_fir_f32.c ****       /* Set all accumulators to zero */
 164:Source\FilteringFunctions/arm_fir_f32.c ****       acc0 = 0.0f;
 165:Source\FilteringFunctions/arm_fir_f32.c ****       acc1 = 0.0f;
 166:Source\FilteringFunctions/arm_fir_f32.c ****       acc2 = 0.0f;
 167:Source\FilteringFunctions/arm_fir_f32.c ****       acc3 = 0.0f;
 168:Source\FilteringFunctions/arm_fir_f32.c ****       acc4 = 0.0f;
 169:Source\FilteringFunctions/arm_fir_f32.c ****       acc5 = 0.0f;
 170:Source\FilteringFunctions/arm_fir_f32.c ****       acc6 = 0.0f;
 171:Source\FilteringFunctions/arm_fir_f32.c ****       acc7 = 0.0f;
 172:Source\FilteringFunctions/arm_fir_f32.c **** 
 173:Source\FilteringFunctions/arm_fir_f32.c ****       /* Initialize state pointer */
 174:Source\FilteringFunctions/arm_fir_f32.c ****       px = pState;
 175:Source\FilteringFunctions/arm_fir_f32.c **** 
 176:Source\FilteringFunctions/arm_fir_f32.c ****       /* Initialize coeff pointer */
 177:Source\FilteringFunctions/arm_fir_f32.c ****       pb = (pCoeffs);
 178:Source\FilteringFunctions/arm_fir_f32.c **** 
 179:Source\FilteringFunctions/arm_fir_f32.c ****       /* This is separated from the others to avoid
 180:Source\FilteringFunctions/arm_fir_f32.c ****        * a call to __aeabi_memmove which would be slower
 181:Source\FilteringFunctions/arm_fir_f32.c ****        */
 182:Source\FilteringFunctions/arm_fir_f32.c ****       *pStateCurnt++ = *pSrc++;
 183:Source\FilteringFunctions/arm_fir_f32.c ****       *pStateCurnt++ = *pSrc++;
 184:Source\FilteringFunctions/arm_fir_f32.c ****       *pStateCurnt++ = *pSrc++;
 185:Source\FilteringFunctions/arm_fir_f32.c ****       *pStateCurnt++ = *pSrc++;
 186:Source\FilteringFunctions/arm_fir_f32.c **** 
 187:Source\FilteringFunctions/arm_fir_f32.c ****       /* Read the first seven samples from the state buffer:  x[n-numTaps], x[n-numTaps-1], x[n-num
 188:Source\FilteringFunctions/arm_fir_f32.c ****       x0 = *px++;
 189:Source\FilteringFunctions/arm_fir_f32.c ****       x1 = *px++;
 190:Source\FilteringFunctions/arm_fir_f32.c ****       x2 = *px++;
 191:Source\FilteringFunctions/arm_fir_f32.c ****       x3 = *px++;
 192:Source\FilteringFunctions/arm_fir_f32.c ****       x4 = *px++;
 193:Source\FilteringFunctions/arm_fir_f32.c ****       x5 = *px++;
 194:Source\FilteringFunctions/arm_fir_f32.c ****       x6 = *px++;
 195:Source\FilteringFunctions/arm_fir_f32.c **** 
 196:Source\FilteringFunctions/arm_fir_f32.c ****       /* Loop unrolling.  Process 8 taps at a time. */
 197:Source\FilteringFunctions/arm_fir_f32.c ****       tapCnt = numTaps >> 3u;
 198:Source\FilteringFunctions/arm_fir_f32.c **** 
 199:Source\FilteringFunctions/arm_fir_f32.c ****       /* Loop over the number of taps.  Unroll by a factor of 8.
 200:Source\FilteringFunctions/arm_fir_f32.c ****        ** Repeat until we've computed numTaps-8 coefficients. */
 201:Source\FilteringFunctions/arm_fir_f32.c ****       while (tapCnt > 0u)
ARM GAS  C:\Users\fneves\AppData\Local\Temp\ccgHZOfJ.s 			page 5


 202:Source\FilteringFunctions/arm_fir_f32.c ****       {
 203:Source\FilteringFunctions/arm_fir_f32.c ****          /* Read the b[numTaps-1] coefficient */
 204:Source\FilteringFunctions/arm_fir_f32.c ****          c0 = *(pb++);
 205:Source\FilteringFunctions/arm_fir_f32.c **** 
 206:Source\FilteringFunctions/arm_fir_f32.c ****          /* Read x[n-numTaps-3] sample */
 207:Source\FilteringFunctions/arm_fir_f32.c ****          x7 = *(px++);
 208:Source\FilteringFunctions/arm_fir_f32.c **** 
 209:Source\FilteringFunctions/arm_fir_f32.c ****          /* acc0 +=  b[numTaps-1] * x[n-numTaps] */
 210:Source\FilteringFunctions/arm_fir_f32.c ****          acc0 += x0 * c0;
 211:Source\FilteringFunctions/arm_fir_f32.c **** 
 212:Source\FilteringFunctions/arm_fir_f32.c ****          /* acc1 +=  b[numTaps-1] * x[n-numTaps-1] */
 213:Source\FilteringFunctions/arm_fir_f32.c ****          acc1 += x1 * c0;
 214:Source\FilteringFunctions/arm_fir_f32.c **** 
 215:Source\FilteringFunctions/arm_fir_f32.c ****          /* acc2 +=  b[numTaps-1] * x[n-numTaps-2] */
 216:Source\FilteringFunctions/arm_fir_f32.c ****          acc2 += x2 * c0;
 217:Source\FilteringFunctions/arm_fir_f32.c **** 
 218:Source\FilteringFunctions/arm_fir_f32.c ****          /* acc3 +=  b[numTaps-1] * x[n-numTaps-3] */
 219:Source\FilteringFunctions/arm_fir_f32.c ****          acc3 += x3 * c0;
 220:Source\FilteringFunctions/arm_fir_f32.c **** 
 221:Source\FilteringFunctions/arm_fir_f32.c ****          /* acc4 +=  b[numTaps-1] * x[n-numTaps-4] */
 222:Source\FilteringFunctions/arm_fir_f32.c ****          acc4 += x4 * c0;
 223:Source\FilteringFunctions/arm_fir_f32.c **** 
 224:Source\FilteringFunctions/arm_fir_f32.c ****          /* acc1 +=  b[numTaps-1] * x[n-numTaps-5] */
 225:Source\FilteringFunctions/arm_fir_f32.c ****          acc5 += x5 * c0;
 226:Source\FilteringFunctions/arm_fir_f32.c **** 
 227:Source\FilteringFunctions/arm_fir_f32.c ****          /* acc2 +=  b[numTaps-1] * x[n-numTaps-6] */
 228:Source\FilteringFunctions/arm_fir_f32.c ****          acc6 += x6 * c0;
 229:Source\FilteringFunctions/arm_fir_f32.c **** 
 230:Source\FilteringFunctions/arm_fir_f32.c ****          /* acc3 +=  b[numTaps-1] * x[n-numTaps-7] */
 231:Source\FilteringFunctions/arm_fir_f32.c ****          acc7 += x7 * c0;
 232:Source\FilteringFunctions/arm_fir_f32.c **** 
 233:Source\FilteringFunctions/arm_fir_f32.c ****          /* Read the b[numTaps-2] coefficient */
 234:Source\FilteringFunctions/arm_fir_f32.c ****          c0 = *(pb++);
 235:Source\FilteringFunctions/arm_fir_f32.c **** 
 236:Source\FilteringFunctions/arm_fir_f32.c ****          /* Read x[n-numTaps-4] sample */
 237:Source\FilteringFunctions/arm_fir_f32.c ****          x0 = *(px++);
 238:Source\FilteringFunctions/arm_fir_f32.c **** 
 239:Source\FilteringFunctions/arm_fir_f32.c ****          /* Perform the multiply-accumulate */
 240:Source\FilteringFunctions/arm_fir_f32.c ****          acc0 += x1 * c0;
 241:Source\FilteringFunctions/arm_fir_f32.c ****          acc1 += x2 * c0;
 242:Source\FilteringFunctions/arm_fir_f32.c ****          acc2 += x3 * c0;
 243:Source\FilteringFunctions/arm_fir_f32.c ****          acc3 += x4 * c0;
 244:Source\FilteringFunctions/arm_fir_f32.c ****          acc4 += x5 * c0;
 245:Source\FilteringFunctions/arm_fir_f32.c ****          acc5 += x6 * c0;
 246:Source\FilteringFunctions/arm_fir_f32.c ****          acc6 += x7 * c0;
 247:Source\FilteringFunctions/arm_fir_f32.c ****          acc7 += x0 * c0;
 248:Source\FilteringFunctions/arm_fir_f32.c **** 
 249:Source\FilteringFunctions/arm_fir_f32.c ****          /* Read the b[numTaps-3] coefficient */
 250:Source\FilteringFunctions/arm_fir_f32.c ****          c0 = *(pb++);
 251:Source\FilteringFunctions/arm_fir_f32.c **** 
 252:Source\FilteringFunctions/arm_fir_f32.c ****          /* Read x[n-numTaps-5] sample */
 253:Source\FilteringFunctions/arm_fir_f32.c ****          x1 = *(px++);
 254:Source\FilteringFunctions/arm_fir_f32.c **** 
 255:Source\FilteringFunctions/arm_fir_f32.c ****          /* Perform the multiply-accumulates */
 256:Source\FilteringFunctions/arm_fir_f32.c ****          acc0 += x2 * c0;
 257:Source\FilteringFunctions/arm_fir_f32.c ****          acc1 += x3 * c0;
 258:Source\FilteringFunctions/arm_fir_f32.c ****          acc2 += x4 * c0;
ARM GAS  C:\Users\fneves\AppData\Local\Temp\ccgHZOfJ.s 			page 6


 259:Source\FilteringFunctions/arm_fir_f32.c ****          acc3 += x5 * c0;
 260:Source\FilteringFunctions/arm_fir_f32.c ****          acc4 += x6 * c0;
 261:Source\FilteringFunctions/arm_fir_f32.c ****          acc5 += x7 * c0;
 262:Source\FilteringFunctions/arm_fir_f32.c ****          acc6 += x0 * c0;
 263:Source\FilteringFunctions/arm_fir_f32.c ****          acc7 += x1 * c0;
 264:Source\FilteringFunctions/arm_fir_f32.c **** 
 265:Source\FilteringFunctions/arm_fir_f32.c ****          /* Read the b[numTaps-4] coefficient */
 266:Source\FilteringFunctions/arm_fir_f32.c ****          c0 = *(pb++);
 267:Source\FilteringFunctions/arm_fir_f32.c **** 
 268:Source\FilteringFunctions/arm_fir_f32.c ****          /* Read x[n-numTaps-6] sample */
 269:Source\FilteringFunctions/arm_fir_f32.c ****          x2 = *(px++);
 270:Source\FilteringFunctions/arm_fir_f32.c **** 
 271:Source\FilteringFunctions/arm_fir_f32.c ****          /* Perform the multiply-accumulates */
 272:Source\FilteringFunctions/arm_fir_f32.c ****          acc0 += x3 * c0;
 273:Source\FilteringFunctions/arm_fir_f32.c ****          acc1 += x4 * c0;
 274:Source\FilteringFunctions/arm_fir_f32.c ****          acc2 += x5 * c0;
 275:Source\FilteringFunctions/arm_fir_f32.c ****          acc3 += x6 * c0;
 276:Source\FilteringFunctions/arm_fir_f32.c ****          acc4 += x7 * c0;
 277:Source\FilteringFunctions/arm_fir_f32.c ****          acc5 += x0 * c0;
 278:Source\FilteringFunctions/arm_fir_f32.c ****          acc6 += x1 * c0;
 279:Source\FilteringFunctions/arm_fir_f32.c ****          acc7 += x2 * c0;
 280:Source\FilteringFunctions/arm_fir_f32.c **** 
 281:Source\FilteringFunctions/arm_fir_f32.c ****          /* Read the b[numTaps-4] coefficient */
 282:Source\FilteringFunctions/arm_fir_f32.c ****          c0 = *(pb++);
 283:Source\FilteringFunctions/arm_fir_f32.c **** 
 284:Source\FilteringFunctions/arm_fir_f32.c ****          /* Read x[n-numTaps-6] sample */
 285:Source\FilteringFunctions/arm_fir_f32.c ****          x3 = *(px++);
 286:Source\FilteringFunctions/arm_fir_f32.c ****          /* Perform the multiply-accumulates */
 287:Source\FilteringFunctions/arm_fir_f32.c ****          acc0 += x4 * c0;
 288:Source\FilteringFunctions/arm_fir_f32.c ****          acc1 += x5 * c0;
 289:Source\FilteringFunctions/arm_fir_f32.c ****          acc2 += x6 * c0;
 290:Source\FilteringFunctions/arm_fir_f32.c ****          acc3 += x7 * c0;
 291:Source\FilteringFunctions/arm_fir_f32.c ****          acc4 += x0 * c0;
 292:Source\FilteringFunctions/arm_fir_f32.c ****          acc5 += x1 * c0;
 293:Source\FilteringFunctions/arm_fir_f32.c ****          acc6 += x2 * c0;
 294:Source\FilteringFunctions/arm_fir_f32.c ****          acc7 += x3 * c0;
 295:Source\FilteringFunctions/arm_fir_f32.c **** 
 296:Source\FilteringFunctions/arm_fir_f32.c ****          /* Read the b[numTaps-4] coefficient */
 297:Source\FilteringFunctions/arm_fir_f32.c ****          c0 = *(pb++);
 298:Source\FilteringFunctions/arm_fir_f32.c **** 
 299:Source\FilteringFunctions/arm_fir_f32.c ****          /* Read x[n-numTaps-6] sample */
 300:Source\FilteringFunctions/arm_fir_f32.c ****          x4 = *(px++);
 301:Source\FilteringFunctions/arm_fir_f32.c **** 
 302:Source\FilteringFunctions/arm_fir_f32.c ****          /* Perform the multiply-accumulates */
 303:Source\FilteringFunctions/arm_fir_f32.c ****          acc0 += x5 * c0;
 304:Source\FilteringFunctions/arm_fir_f32.c ****          acc1 += x6 * c0;
 305:Source\FilteringFunctions/arm_fir_f32.c ****          acc2 += x7 * c0;
 306:Source\FilteringFunctions/arm_fir_f32.c ****          acc3 += x0 * c0;
 307:Source\FilteringFunctions/arm_fir_f32.c ****          acc4 += x1 * c0;
 308:Source\FilteringFunctions/arm_fir_f32.c ****          acc5 += x2 * c0;
 309:Source\FilteringFunctions/arm_fir_f32.c ****          acc6 += x3 * c0;
 310:Source\FilteringFunctions/arm_fir_f32.c ****          acc7 += x4 * c0;
 311:Source\FilteringFunctions/arm_fir_f32.c **** 
 312:Source\FilteringFunctions/arm_fir_f32.c ****          /* Read the b[numTaps-4] coefficient */
 313:Source\FilteringFunctions/arm_fir_f32.c ****          c0 = *(pb++);
 314:Source\FilteringFunctions/arm_fir_f32.c **** 
 315:Source\FilteringFunctions/arm_fir_f32.c ****          /* Read x[n-numTaps-6] sample */
ARM GAS  C:\Users\fneves\AppData\Local\Temp\ccgHZOfJ.s 			page 7


 316:Source\FilteringFunctions/arm_fir_f32.c ****          x5 = *(px++);
 317:Source\FilteringFunctions/arm_fir_f32.c **** 
 318:Source\FilteringFunctions/arm_fir_f32.c ****          /* Perform the multiply-accumulates */
 319:Source\FilteringFunctions/arm_fir_f32.c ****          acc0 += x6 * c0;
 320:Source\FilteringFunctions/arm_fir_f32.c ****          acc1 += x7 * c0;
 321:Source\FilteringFunctions/arm_fir_f32.c ****          acc2 += x0 * c0;
 322:Source\FilteringFunctions/arm_fir_f32.c ****          acc3 += x1 * c0;
 323:Source\FilteringFunctions/arm_fir_f32.c ****          acc4 += x2 * c0;
 324:Source\FilteringFunctions/arm_fir_f32.c ****          acc5 += x3 * c0;
 325:Source\FilteringFunctions/arm_fir_f32.c ****          acc6 += x4 * c0;
 326:Source\FilteringFunctions/arm_fir_f32.c ****          acc7 += x5 * c0;
 327:Source\FilteringFunctions/arm_fir_f32.c **** 
 328:Source\FilteringFunctions/arm_fir_f32.c ****          /* Read the b[numTaps-4] coefficient */
 329:Source\FilteringFunctions/arm_fir_f32.c ****          c0 = *(pb++);
 330:Source\FilteringFunctions/arm_fir_f32.c **** 
 331:Source\FilteringFunctions/arm_fir_f32.c ****          /* Read x[n-numTaps-6] sample */
 332:Source\FilteringFunctions/arm_fir_f32.c ****          x6 = *(px++);
 333:Source\FilteringFunctions/arm_fir_f32.c **** 
 334:Source\FilteringFunctions/arm_fir_f32.c ****          /* Perform the multiply-accumulates */
 335:Source\FilteringFunctions/arm_fir_f32.c ****          acc0 += x7 * c0;
 336:Source\FilteringFunctions/arm_fir_f32.c ****          acc1 += x0 * c0;
 337:Source\FilteringFunctions/arm_fir_f32.c ****          acc2 += x1 * c0;
 338:Source\FilteringFunctions/arm_fir_f32.c ****          acc3 += x2 * c0;
 339:Source\FilteringFunctions/arm_fir_f32.c ****          acc4 += x3 * c0;
 340:Source\FilteringFunctions/arm_fir_f32.c ****          acc5 += x4 * c0;
 341:Source\FilteringFunctions/arm_fir_f32.c ****          acc6 += x5 * c0;
 342:Source\FilteringFunctions/arm_fir_f32.c ****          acc7 += x6 * c0;
 343:Source\FilteringFunctions/arm_fir_f32.c **** 
 344:Source\FilteringFunctions/arm_fir_f32.c ****          tapCnt--;
 345:Source\FilteringFunctions/arm_fir_f32.c ****       }
 346:Source\FilteringFunctions/arm_fir_f32.c **** 
 347:Source\FilteringFunctions/arm_fir_f32.c ****       /* If the filter length is not a multiple of 8, compute the remaining filter taps */
 348:Source\FilteringFunctions/arm_fir_f32.c ****       tapCnt = numTaps % 0x8u;
 349:Source\FilteringFunctions/arm_fir_f32.c **** 
 350:Source\FilteringFunctions/arm_fir_f32.c ****       while (tapCnt > 0u)
 351:Source\FilteringFunctions/arm_fir_f32.c ****       {
 352:Source\FilteringFunctions/arm_fir_f32.c ****          /* Read coefficients */
 353:Source\FilteringFunctions/arm_fir_f32.c ****          c0 = *(pb++);
 354:Source\FilteringFunctions/arm_fir_f32.c **** 
 355:Source\FilteringFunctions/arm_fir_f32.c ****          /* Fetch 1 state variable */
 356:Source\FilteringFunctions/arm_fir_f32.c ****          x7 = *(px++);
 357:Source\FilteringFunctions/arm_fir_f32.c **** 
 358:Source\FilteringFunctions/arm_fir_f32.c ****          /* Perform the multiply-accumulates */
 359:Source\FilteringFunctions/arm_fir_f32.c ****          acc0 += x0 * c0;
 360:Source\FilteringFunctions/arm_fir_f32.c ****          acc1 += x1 * c0;
 361:Source\FilteringFunctions/arm_fir_f32.c ****          acc2 += x2 * c0;
 362:Source\FilteringFunctions/arm_fir_f32.c ****          acc3 += x3 * c0;
 363:Source\FilteringFunctions/arm_fir_f32.c ****          acc4 += x4 * c0;
 364:Source\FilteringFunctions/arm_fir_f32.c ****          acc5 += x5 * c0;
 365:Source\FilteringFunctions/arm_fir_f32.c ****          acc6 += x6 * c0;
 366:Source\FilteringFunctions/arm_fir_f32.c ****          acc7 += x7 * c0;
 367:Source\FilteringFunctions/arm_fir_f32.c **** 
 368:Source\FilteringFunctions/arm_fir_f32.c ****          /* Reuse the present sample states for next sample */
 369:Source\FilteringFunctions/arm_fir_f32.c ****          x0 = x1;
 370:Source\FilteringFunctions/arm_fir_f32.c ****          x1 = x2;
 371:Source\FilteringFunctions/arm_fir_f32.c ****          x2 = x3;
 372:Source\FilteringFunctions/arm_fir_f32.c ****          x3 = x4;
ARM GAS  C:\Users\fneves\AppData\Local\Temp\ccgHZOfJ.s 			page 8


 373:Source\FilteringFunctions/arm_fir_f32.c ****          x4 = x5;
 374:Source\FilteringFunctions/arm_fir_f32.c ****          x5 = x6;
 375:Source\FilteringFunctions/arm_fir_f32.c ****          x6 = x7;
 376:Source\FilteringFunctions/arm_fir_f32.c **** 
 377:Source\FilteringFunctions/arm_fir_f32.c ****          /* Decrement the loop counter */
 378:Source\FilteringFunctions/arm_fir_f32.c ****          tapCnt--;
 379:Source\FilteringFunctions/arm_fir_f32.c ****       }
 380:Source\FilteringFunctions/arm_fir_f32.c **** 
 381:Source\FilteringFunctions/arm_fir_f32.c ****       /* Advance the state pointer by 8 to process the next group of 8 samples */
 382:Source\FilteringFunctions/arm_fir_f32.c ****       pState = pState + 8;
 383:Source\FilteringFunctions/arm_fir_f32.c **** 
 384:Source\FilteringFunctions/arm_fir_f32.c ****       /* The results in the 8 accumulators, store in the destination buffer. */
 385:Source\FilteringFunctions/arm_fir_f32.c ****       *pDst++ = acc0;
 386:Source\FilteringFunctions/arm_fir_f32.c ****       *pDst++ = acc1;
 387:Source\FilteringFunctions/arm_fir_f32.c ****       *pDst++ = acc2;
 388:Source\FilteringFunctions/arm_fir_f32.c ****       *pDst++ = acc3;
 389:Source\FilteringFunctions/arm_fir_f32.c ****       *pDst++ = acc4;
 390:Source\FilteringFunctions/arm_fir_f32.c ****       *pDst++ = acc5;
 391:Source\FilteringFunctions/arm_fir_f32.c ****       *pDst++ = acc6;
 392:Source\FilteringFunctions/arm_fir_f32.c ****       *pDst++ = acc7;
 393:Source\FilteringFunctions/arm_fir_f32.c **** 
 394:Source\FilteringFunctions/arm_fir_f32.c ****       blkCnt--;
 395:Source\FilteringFunctions/arm_fir_f32.c ****    }
 396:Source\FilteringFunctions/arm_fir_f32.c **** 
 397:Source\FilteringFunctions/arm_fir_f32.c ****    /* If the blockSize is not a multiple of 8, compute any remaining output samples here.
 398:Source\FilteringFunctions/arm_fir_f32.c ****    ** No loop unrolling is used. */
 399:Source\FilteringFunctions/arm_fir_f32.c ****    blkCnt = blockSize % 0x8u;
 400:Source\FilteringFunctions/arm_fir_f32.c **** 
 401:Source\FilteringFunctions/arm_fir_f32.c ****    while (blkCnt > 0u)
 402:Source\FilteringFunctions/arm_fir_f32.c ****    {
 403:Source\FilteringFunctions/arm_fir_f32.c ****       /* Copy one sample at a time into state buffer */
 404:Source\FilteringFunctions/arm_fir_f32.c ****       *pStateCurnt++ = *pSrc++;
 405:Source\FilteringFunctions/arm_fir_f32.c **** 
 406:Source\FilteringFunctions/arm_fir_f32.c ****       /* Set the accumulator to zero */
 407:Source\FilteringFunctions/arm_fir_f32.c ****       acc0 = 0.0f;
 408:Source\FilteringFunctions/arm_fir_f32.c **** 
 409:Source\FilteringFunctions/arm_fir_f32.c ****       /* Initialize state pointer */
 410:Source\FilteringFunctions/arm_fir_f32.c ****       px = pState;
 411:Source\FilteringFunctions/arm_fir_f32.c **** 
 412:Source\FilteringFunctions/arm_fir_f32.c ****       /* Initialize Coefficient pointer */
 413:Source\FilteringFunctions/arm_fir_f32.c ****       pb = (pCoeffs);
 414:Source\FilteringFunctions/arm_fir_f32.c **** 
 415:Source\FilteringFunctions/arm_fir_f32.c ****       i = numTaps;
 416:Source\FilteringFunctions/arm_fir_f32.c **** 
 417:Source\FilteringFunctions/arm_fir_f32.c ****       /* Perform the multiply-accumulates */
 418:Source\FilteringFunctions/arm_fir_f32.c ****       do
 419:Source\FilteringFunctions/arm_fir_f32.c ****       {
 420:Source\FilteringFunctions/arm_fir_f32.c ****          acc0 += *px++ * *pb++;
 421:Source\FilteringFunctions/arm_fir_f32.c ****          i--;
 422:Source\FilteringFunctions/arm_fir_f32.c **** 
 423:Source\FilteringFunctions/arm_fir_f32.c ****       } while (i > 0u);
 424:Source\FilteringFunctions/arm_fir_f32.c **** 
 425:Source\FilteringFunctions/arm_fir_f32.c ****       /* The result is store in the destination buffer. */
 426:Source\FilteringFunctions/arm_fir_f32.c ****       *pDst++ = acc0;
 427:Source\FilteringFunctions/arm_fir_f32.c **** 
 428:Source\FilteringFunctions/arm_fir_f32.c ****       /* Advance state pointer by 1 for the next sample */
 429:Source\FilteringFunctions/arm_fir_f32.c ****       pState = pState + 1;
ARM GAS  C:\Users\fneves\AppData\Local\Temp\ccgHZOfJ.s 			page 9


 430:Source\FilteringFunctions/arm_fir_f32.c **** 
 431:Source\FilteringFunctions/arm_fir_f32.c ****       blkCnt--;
 432:Source\FilteringFunctions/arm_fir_f32.c ****    }
 433:Source\FilteringFunctions/arm_fir_f32.c **** 
 434:Source\FilteringFunctions/arm_fir_f32.c ****    /* Processing is complete.
 435:Source\FilteringFunctions/arm_fir_f32.c ****    ** Now copy the last numTaps - 1 samples to the start of the state buffer.
 436:Source\FilteringFunctions/arm_fir_f32.c ****    ** This prepares the state buffer for the next function call. */
 437:Source\FilteringFunctions/arm_fir_f32.c **** 
 438:Source\FilteringFunctions/arm_fir_f32.c ****    /* Points to the start of the state buffer */
 439:Source\FilteringFunctions/arm_fir_f32.c ****    pStateCurnt = S->pState;
 440:Source\FilteringFunctions/arm_fir_f32.c **** 
 441:Source\FilteringFunctions/arm_fir_f32.c ****    tapCnt = (numTaps - 1u) >> 2u;
 442:Source\FilteringFunctions/arm_fir_f32.c **** 
 443:Source\FilteringFunctions/arm_fir_f32.c ****    /* copy data */
 444:Source\FilteringFunctions/arm_fir_f32.c ****    while (tapCnt > 0u)
 445:Source\FilteringFunctions/arm_fir_f32.c ****    {
 446:Source\FilteringFunctions/arm_fir_f32.c ****       *pStateCurnt++ = *pState++;
 447:Source\FilteringFunctions/arm_fir_f32.c ****       *pStateCurnt++ = *pState++;
 448:Source\FilteringFunctions/arm_fir_f32.c ****       *pStateCurnt++ = *pState++;
 449:Source\FilteringFunctions/arm_fir_f32.c ****       *pStateCurnt++ = *pState++;
 450:Source\FilteringFunctions/arm_fir_f32.c **** 
 451:Source\FilteringFunctions/arm_fir_f32.c ****       /* Decrement the loop counter */
 452:Source\FilteringFunctions/arm_fir_f32.c ****       tapCnt--;
 453:Source\FilteringFunctions/arm_fir_f32.c ****    }
 454:Source\FilteringFunctions/arm_fir_f32.c **** 
 455:Source\FilteringFunctions/arm_fir_f32.c ****    /* Calculate remaining number of copies */
 456:Source\FilteringFunctions/arm_fir_f32.c ****    tapCnt = (numTaps - 1u) % 0x4u;
 457:Source\FilteringFunctions/arm_fir_f32.c **** 
 458:Source\FilteringFunctions/arm_fir_f32.c ****    /* Copy the remaining q31_t data */
 459:Source\FilteringFunctions/arm_fir_f32.c ****    while (tapCnt > 0u)
 460:Source\FilteringFunctions/arm_fir_f32.c ****    {
 461:Source\FilteringFunctions/arm_fir_f32.c ****       *pStateCurnt++ = *pState++;
 462:Source\FilteringFunctions/arm_fir_f32.c **** 
 463:Source\FilteringFunctions/arm_fir_f32.c ****       /* Decrement the loop counter */
 464:Source\FilteringFunctions/arm_fir_f32.c ****       tapCnt--;
 465:Source\FilteringFunctions/arm_fir_f32.c ****    }
 466:Source\FilteringFunctions/arm_fir_f32.c **** }
 467:Source\FilteringFunctions/arm_fir_f32.c **** 
 468:Source\FilteringFunctions/arm_fir_f32.c **** #elif defined(ARM_MATH_CM0_FAMILY)
 469:Source\FilteringFunctions/arm_fir_f32.c **** 
 470:Source\FilteringFunctions/arm_fir_f32.c **** void arm_fir_f32(
 471:Source\FilteringFunctions/arm_fir_f32.c **** const arm_fir_instance_f32 * S,
 472:Source\FilteringFunctions/arm_fir_f32.c **** float32_t * pSrc,
 473:Source\FilteringFunctions/arm_fir_f32.c **** float32_t * pDst,
 474:Source\FilteringFunctions/arm_fir_f32.c **** uint32_t blockSize)
 475:Source\FilteringFunctions/arm_fir_f32.c **** {
  28              		.loc 1 475 0
  29              		.cfi_startproc
  30 0000 80B5     		push	{r7, lr}
  31              		.cfi_def_cfa_offset 8
  32              		.cfi_offset 7, -8
  33              		.cfi_offset 14, -4
  34 0002 8EB0     		sub	sp, sp, #56
  35              		.cfi_def_cfa_offset 64
  36 0004 00AF     		add	r7, sp, #0
  37              		.cfi_def_cfa_register 7
  38 0006 F860     		str	r0, [r7, #12]
ARM GAS  C:\Users\fneves\AppData\Local\Temp\ccgHZOfJ.s 			page 10


  39 0008 B960     		str	r1, [r7, #8]
  40 000a 7A60     		str	r2, [r7, #4]
  41 000c 3B60     		str	r3, [r7]
 476:Source\FilteringFunctions/arm_fir_f32.c ****    float32_t *pState = S->pState;                 /* State pointer */
  42              		.loc 1 476 0
  43 000e FB68     		ldr	r3, [r7, #12]
  44 0010 5B68     		ldr	r3, [r3, #4]
  45 0012 7B63     		str	r3, [r7, #52]
 477:Source\FilteringFunctions/arm_fir_f32.c ****    float32_t *pCoeffs = S->pCoeffs;               /* Coefficient pointer */
  46              		.loc 1 477 0
  47 0014 FB68     		ldr	r3, [r7, #12]
  48 0016 9B68     		ldr	r3, [r3, #8]
  49 0018 7B61     		str	r3, [r7, #20]
 478:Source\FilteringFunctions/arm_fir_f32.c ****    float32_t *pStateCurnt;                        /* Points to the current sample of the state */
 479:Source\FilteringFunctions/arm_fir_f32.c ****    float32_t *px, *pb;                            /* Temporary pointers for state and coefficient b
 480:Source\FilteringFunctions/arm_fir_f32.c ****    uint32_t numTaps = S->numTaps;                 /* Number of filter coefficients in the filter */
  50              		.loc 1 480 0
  51 001a FB68     		ldr	r3, [r7, #12]
  52 001c 1B88     		ldrh	r3, [r3]
  53 001e 3B61     		str	r3, [r7, #16]
 481:Source\FilteringFunctions/arm_fir_f32.c ****    uint32_t i, tapCnt, blkCnt;                    /* Loop counters */
 482:Source\FilteringFunctions/arm_fir_f32.c **** 
 483:Source\FilteringFunctions/arm_fir_f32.c ****    /* Run the below code for Cortex-M0 */
 484:Source\FilteringFunctions/arm_fir_f32.c **** 
 485:Source\FilteringFunctions/arm_fir_f32.c ****    float32_t acc;
 486:Source\FilteringFunctions/arm_fir_f32.c **** 
 487:Source\FilteringFunctions/arm_fir_f32.c ****    /* S->pState points to state array which contains previous frame (numTaps - 1) samples */
 488:Source\FilteringFunctions/arm_fir_f32.c ****    /* pStateCurnt points to the location where the new input data should be written */
 489:Source\FilteringFunctions/arm_fir_f32.c ****    pStateCurnt = &(S->pState[(numTaps - 1u)]);
  54              		.loc 1 489 0
  55 0020 FB68     		ldr	r3, [r7, #12]
  56 0022 5A68     		ldr	r2, [r3, #4]
  57 0024 3B69     		ldr	r3, [r7, #16]
  58 0026 2C49     		ldr	r1, .L7
  59 0028 8C46     		mov	ip, r1
  60 002a 6344     		add	r3, r3, ip
  61 002c 9B00     		lsl	r3, r3, #2
  62 002e D318     		add	r3, r2, r3
  63 0030 3B63     		str	r3, [r7, #48]
 490:Source\FilteringFunctions/arm_fir_f32.c **** 
 491:Source\FilteringFunctions/arm_fir_f32.c ****    /* Initialize blkCnt with blockSize */
 492:Source\FilteringFunctions/arm_fir_f32.c ****    blkCnt = blockSize;
  64              		.loc 1 492 0
  65 0032 3B68     		ldr	r3, [r7]
  66 0034 FB61     		str	r3, [r7, #28]
 493:Source\FilteringFunctions/arm_fir_f32.c **** 
 494:Source\FilteringFunctions/arm_fir_f32.c ****    while (blkCnt > 0u)
  67              		.loc 1 494 0
  68 0036 33E0     		b	.L2
  69              	.L4:
 495:Source\FilteringFunctions/arm_fir_f32.c ****    {
 496:Source\FilteringFunctions/arm_fir_f32.c ****       /* Copy one sample at a time into state buffer */
 497:Source\FilteringFunctions/arm_fir_f32.c ****       *pStateCurnt++ = *pSrc++;
  70              		.loc 1 497 0
  71 0038 3B6B     		ldr	r3, [r7, #48]
  72 003a 1A1D     		add	r2, r3, #4
  73 003c 3A63     		str	r2, [r7, #48]
ARM GAS  C:\Users\fneves\AppData\Local\Temp\ccgHZOfJ.s 			page 11


  74 003e BA68     		ldr	r2, [r7, #8]
  75 0040 111D     		add	r1, r2, #4
  76 0042 B960     		str	r1, [r7, #8]
  77 0044 1268     		ldr	r2, [r2]
  78 0046 1A60     		str	r2, [r3]
 498:Source\FilteringFunctions/arm_fir_f32.c **** 
 499:Source\FilteringFunctions/arm_fir_f32.c ****       /* Set the accumulator to zero */
 500:Source\FilteringFunctions/arm_fir_f32.c ****       acc = 0.0f;
  79              		.loc 1 500 0
  80 0048 0023     		mov	r3, #0
  81 004a BB61     		str	r3, [r7, #24]
 501:Source\FilteringFunctions/arm_fir_f32.c **** 
 502:Source\FilteringFunctions/arm_fir_f32.c ****       /* Initialize state pointer */
 503:Source\FilteringFunctions/arm_fir_f32.c ****       px = pState;
  82              		.loc 1 503 0
  83 004c 7B6B     		ldr	r3, [r7, #52]
  84 004e FB62     		str	r3, [r7, #44]
 504:Source\FilteringFunctions/arm_fir_f32.c **** 
 505:Source\FilteringFunctions/arm_fir_f32.c ****       /* Initialize Coefficient pointer */
 506:Source\FilteringFunctions/arm_fir_f32.c ****       pb = pCoeffs;
  85              		.loc 1 506 0
  86 0050 7B69     		ldr	r3, [r7, #20]
  87 0052 BB62     		str	r3, [r7, #40]
 507:Source\FilteringFunctions/arm_fir_f32.c **** 
 508:Source\FilteringFunctions/arm_fir_f32.c ****       i = numTaps;
  88              		.loc 1 508 0
  89 0054 3B69     		ldr	r3, [r7, #16]
  90 0056 7B62     		str	r3, [r7, #36]
  91              	.L3:
 509:Source\FilteringFunctions/arm_fir_f32.c **** 
 510:Source\FilteringFunctions/arm_fir_f32.c ****       /* Perform the multiply-accumulates */
 511:Source\FilteringFunctions/arm_fir_f32.c ****       do
 512:Source\FilteringFunctions/arm_fir_f32.c ****       {
 513:Source\FilteringFunctions/arm_fir_f32.c ****          /* acc =  b[numTaps-1] * x[n-numTaps-1] + b[numTaps-2] * x[n-numTaps-2] + b[numTaps-3] * x
 514:Source\FilteringFunctions/arm_fir_f32.c ****          acc += *px++ * *pb++;
  92              		.loc 1 514 0 discriminator 1
  93 0058 FB6A     		ldr	r3, [r7, #44]
  94 005a 1A1D     		add	r2, r3, #4
  95 005c FA62     		str	r2, [r7, #44]
  96 005e 1968     		ldr	r1, [r3]
  97 0060 BB6A     		ldr	r3, [r7, #40]
  98 0062 1A1D     		add	r2, r3, #4
  99 0064 BA62     		str	r2, [r7, #40]
 100 0066 1B68     		ldr	r3, [r3]
 101 0068 081C     		add	r0, r1, #0
 102 006a 191C     		add	r1, r3, #0
 103 006c FFF7FEFF 		bl	__aeabi_fmul
 104 0070 031C     		add	r3, r0, #0
 105 0072 B869     		ldr	r0, [r7, #24]
 106 0074 191C     		add	r1, r3, #0
 107 0076 FFF7FEFF 		bl	__aeabi_fadd
 108 007a 031C     		add	r3, r0, #0
 109 007c BB61     		str	r3, [r7, #24]
 515:Source\FilteringFunctions/arm_fir_f32.c ****          i--;
 110              		.loc 1 515 0 discriminator 1
 111 007e 7B6A     		ldr	r3, [r7, #36]
 112 0080 013B     		sub	r3, r3, #1
ARM GAS  C:\Users\fneves\AppData\Local\Temp\ccgHZOfJ.s 			page 12


 113 0082 7B62     		str	r3, [r7, #36]
 516:Source\FilteringFunctions/arm_fir_f32.c **** 
 517:Source\FilteringFunctions/arm_fir_f32.c ****       } while (i > 0u);
 114              		.loc 1 517 0 discriminator 1
 115 0084 7B6A     		ldr	r3, [r7, #36]
 116 0086 002B     		cmp	r3, #0
 117 0088 E6D1     		bne	.L3
 518:Source\FilteringFunctions/arm_fir_f32.c **** 
 519:Source\FilteringFunctions/arm_fir_f32.c ****       /* The result is store in the destination buffer. */
 520:Source\FilteringFunctions/arm_fir_f32.c ****       *pDst++ = acc;
 118              		.loc 1 520 0
 119 008a 7B68     		ldr	r3, [r7, #4]
 120 008c 1A1D     		add	r2, r3, #4
 121 008e 7A60     		str	r2, [r7, #4]
 122 0090 BA69     		ldr	r2, [r7, #24]
 123 0092 1A60     		str	r2, [r3]
 521:Source\FilteringFunctions/arm_fir_f32.c **** 
 522:Source\FilteringFunctions/arm_fir_f32.c ****       /* Advance state pointer by 1 for the next sample */
 523:Source\FilteringFunctions/arm_fir_f32.c ****       pState = pState + 1;
 124              		.loc 1 523 0
 125 0094 7B6B     		ldr	r3, [r7, #52]
 126 0096 0433     		add	r3, r3, #4
 127 0098 7B63     		str	r3, [r7, #52]
 524:Source\FilteringFunctions/arm_fir_f32.c **** 
 525:Source\FilteringFunctions/arm_fir_f32.c ****       blkCnt--;
 128              		.loc 1 525 0
 129 009a FB69     		ldr	r3, [r7, #28]
 130 009c 013B     		sub	r3, r3, #1
 131 009e FB61     		str	r3, [r7, #28]
 132              	.L2:
 494:Source\FilteringFunctions/arm_fir_f32.c ****    {
 133              		.loc 1 494 0
 134 00a0 FB69     		ldr	r3, [r7, #28]
 135 00a2 002B     		cmp	r3, #0
 136 00a4 C8D1     		bne	.L4
 526:Source\FilteringFunctions/arm_fir_f32.c ****    }
 527:Source\FilteringFunctions/arm_fir_f32.c **** 
 528:Source\FilteringFunctions/arm_fir_f32.c ****    /* Processing is complete.
 529:Source\FilteringFunctions/arm_fir_f32.c ****    ** Now copy the last numTaps - 1 samples to the starting of the state buffer.
 530:Source\FilteringFunctions/arm_fir_f32.c ****    ** This prepares the state buffer for the next function call. */
 531:Source\FilteringFunctions/arm_fir_f32.c **** 
 532:Source\FilteringFunctions/arm_fir_f32.c ****    /* Points to the start of the state buffer */
 533:Source\FilteringFunctions/arm_fir_f32.c ****    pStateCurnt = S->pState;
 137              		.loc 1 533 0
 138 00a6 FB68     		ldr	r3, [r7, #12]
 139 00a8 5B68     		ldr	r3, [r3, #4]
 140 00aa 3B63     		str	r3, [r7, #48]
 534:Source\FilteringFunctions/arm_fir_f32.c **** 
 535:Source\FilteringFunctions/arm_fir_f32.c ****    /* Copy numTaps number of values */
 536:Source\FilteringFunctions/arm_fir_f32.c ****    tapCnt = numTaps - 1u;
 141              		.loc 1 536 0
 142 00ac 3B69     		ldr	r3, [r7, #16]
 143 00ae 013B     		sub	r3, r3, #1
 144 00b0 3B62     		str	r3, [r7, #32]
 537:Source\FilteringFunctions/arm_fir_f32.c **** 
 538:Source\FilteringFunctions/arm_fir_f32.c ****    /* Copy data */
 539:Source\FilteringFunctions/arm_fir_f32.c ****    while (tapCnt > 0u)
ARM GAS  C:\Users\fneves\AppData\Local\Temp\ccgHZOfJ.s 			page 13


 145              		.loc 1 539 0
 146 00b2 0AE0     		b	.L5
 147              	.L6:
 540:Source\FilteringFunctions/arm_fir_f32.c ****    {
 541:Source\FilteringFunctions/arm_fir_f32.c ****       *pStateCurnt++ = *pState++;
 148              		.loc 1 541 0
 149 00b4 3B6B     		ldr	r3, [r7, #48]
 150 00b6 1A1D     		add	r2, r3, #4
 151 00b8 3A63     		str	r2, [r7, #48]
 152 00ba 7A6B     		ldr	r2, [r7, #52]
 153 00bc 111D     		add	r1, r2, #4
 154 00be 7963     		str	r1, [r7, #52]
 155 00c0 1268     		ldr	r2, [r2]
 156 00c2 1A60     		str	r2, [r3]
 542:Source\FilteringFunctions/arm_fir_f32.c **** 
 543:Source\FilteringFunctions/arm_fir_f32.c ****       /* Decrement the loop counter */
 544:Source\FilteringFunctions/arm_fir_f32.c ****       tapCnt--;
 157              		.loc 1 544 0
 158 00c4 3B6A     		ldr	r3, [r7, #32]
 159 00c6 013B     		sub	r3, r3, #1
 160 00c8 3B62     		str	r3, [r7, #32]
 161              	.L5:
 539:Source\FilteringFunctions/arm_fir_f32.c ****    {
 162              		.loc 1 539 0
 163 00ca 3B6A     		ldr	r3, [r7, #32]
 164 00cc 002B     		cmp	r3, #0
 165 00ce F1D1     		bne	.L6
 545:Source\FilteringFunctions/arm_fir_f32.c ****    }
 546:Source\FilteringFunctions/arm_fir_f32.c **** 
 547:Source\FilteringFunctions/arm_fir_f32.c **** }
 166              		.loc 1 547 0
 167 00d0 BD46     		mov	sp, r7
 168 00d2 0EB0     		add	sp, sp, #56
 169              		@ sp needed
 170 00d4 80BD     		pop	{r7, pc}
 171              	.L8:
 172 00d6 C046     		.align	2
 173              	.L7:
 174 00d8 FFFFFF3F 		.word	1073741823
 175              		.cfi_endproc
 176              	.LFE82:
 177              		.size	arm_fir_f32, .-arm_fir_f32
 178              		.text
 179              	.Letext0:
 180              		.file 2 "c:\\program files (x86)\\cypress\\psoc creator\\4.0\\psoc creator\\import\\gnu\\arm\\4.9.
 181              		.file 3 "c:\\program files (x86)\\cypress\\psoc creator\\4.0\\psoc creator\\import\\gnu\\arm\\4.9.
 182              		.file 4 ".\\Include/arm_math.h"