ARM GAS  C:\Users\fneves\AppData\Local\Temp\ccBoVlaK.s 			page 1


   1              		.cpu cortex-m0plus
   2              		.fpu softvfp
   3              		.eabi_attribute 20, 1
   4              		.eabi_attribute 21, 1
   5              		.eabi_attribute 23, 3
   6              		.eabi_attribute 24, 1
   7              		.eabi_attribute 25, 1
   8              		.eabi_attribute 26, 1
   9              		.eabi_attribute 30, 6
  10              		.eabi_attribute 34, 0
  11              		.eabi_attribute 18, 4
  12              		.code	16
  13              		.file	"arm_mat_init_q15.c"
  14              		.text
  15              	.Ltext0:
  16              		.cfi_sections	.debug_frame
  17              		.section	.text.arm_mat_init_q15,"ax",%progbits
  18              		.align	2
  19              		.global	arm_mat_init_q15
  20              		.code	16
  21              		.thumb_func
  22              		.type	arm_mat_init_q15, %function
  23              	arm_mat_init_q15:
  24              	.LFB82:
  25              		.file 1 "Source\\MatrixFunctions\\arm_mat_init_q15.c"
   1:Source\MatrixFunctions/arm_mat_init_q15.c **** /* ----------------------------------------------------------------------
   2:Source\MatrixFunctions/arm_mat_init_q15.c ****  * Project:      CMSIS DSP Library
   3:Source\MatrixFunctions/arm_mat_init_q15.c ****  * Title:        arm_mat_init_q15.c
   4:Source\MatrixFunctions/arm_mat_init_q15.c ****  * Description:  Q15 matrix initialization
   5:Source\MatrixFunctions/arm_mat_init_q15.c ****  *
   6:Source\MatrixFunctions/arm_mat_init_q15.c ****  * $Date:        27. January 2017
   7:Source\MatrixFunctions/arm_mat_init_q15.c ****  * $Revision:    V.1.5.1
   8:Source\MatrixFunctions/arm_mat_init_q15.c ****  *
   9:Source\MatrixFunctions/arm_mat_init_q15.c ****  * Target Processor: Cortex-M cores
  10:Source\MatrixFunctions/arm_mat_init_q15.c ****  * -------------------------------------------------------------------- */
  11:Source\MatrixFunctions/arm_mat_init_q15.c **** /*
  12:Source\MatrixFunctions/arm_mat_init_q15.c ****  * Copyright (C) 2010-2017 ARM Limited or its affiliates. All rights reserved.
  13:Source\MatrixFunctions/arm_mat_init_q15.c ****  *
  14:Source\MatrixFunctions/arm_mat_init_q15.c ****  * SPDX-License-Identifier: Apache-2.0
  15:Source\MatrixFunctions/arm_mat_init_q15.c ****  *
  16:Source\MatrixFunctions/arm_mat_init_q15.c ****  * Licensed under the Apache License, Version 2.0 (the License); you may
  17:Source\MatrixFunctions/arm_mat_init_q15.c ****  * not use this file except in compliance with the License.
  18:Source\MatrixFunctions/arm_mat_init_q15.c ****  * You may obtain a copy of the License at
  19:Source\MatrixFunctions/arm_mat_init_q15.c ****  *
  20:Source\MatrixFunctions/arm_mat_init_q15.c ****  * www.apache.org/licenses/LICENSE-2.0
  21:Source\MatrixFunctions/arm_mat_init_q15.c ****  *
  22:Source\MatrixFunctions/arm_mat_init_q15.c ****  * Unless required by applicable law or agreed to in writing, software
  23:Source\MatrixFunctions/arm_mat_init_q15.c ****  * distributed under the License is distributed on an AS IS BASIS, WITHOUT
  24:Source\MatrixFunctions/arm_mat_init_q15.c ****  * WARRANTIES OR CONDITIONS OF ANY KIND, either express or implied.
  25:Source\MatrixFunctions/arm_mat_init_q15.c ****  * See the License for the specific language governing permissions and
  26:Source\MatrixFunctions/arm_mat_init_q15.c ****  * limitations under the License.
  27:Source\MatrixFunctions/arm_mat_init_q15.c ****  */
  28:Source\MatrixFunctions/arm_mat_init_q15.c **** 
  29:Source\MatrixFunctions/arm_mat_init_q15.c **** #include "arm_math.h"
  30:Source\MatrixFunctions/arm_mat_init_q15.c **** 
  31:Source\MatrixFunctions/arm_mat_init_q15.c **** /**
  32:Source\MatrixFunctions/arm_mat_init_q15.c ****  * @ingroup groupMatrix
ARM GAS  C:\Users\fneves\AppData\Local\Temp\ccBoVlaK.s 			page 2


  33:Source\MatrixFunctions/arm_mat_init_q15.c ****  */
  34:Source\MatrixFunctions/arm_mat_init_q15.c **** 
  35:Source\MatrixFunctions/arm_mat_init_q15.c **** /**
  36:Source\MatrixFunctions/arm_mat_init_q15.c ****  * @addtogroup MatrixInit
  37:Source\MatrixFunctions/arm_mat_init_q15.c ****  * @{
  38:Source\MatrixFunctions/arm_mat_init_q15.c ****  */
  39:Source\MatrixFunctions/arm_mat_init_q15.c **** 
  40:Source\MatrixFunctions/arm_mat_init_q15.c ****   /**
  41:Source\MatrixFunctions/arm_mat_init_q15.c ****    * @brief  Q15 matrix initialization.
  42:Source\MatrixFunctions/arm_mat_init_q15.c ****    * @param[in,out] *S             points to an instance of the floating-point matrix structure.
  43:Source\MatrixFunctions/arm_mat_init_q15.c ****    * @param[in]     nRows          number of rows in the matrix.
  44:Source\MatrixFunctions/arm_mat_init_q15.c ****    * @param[in]     nColumns       number of columns in the matrix.
  45:Source\MatrixFunctions/arm_mat_init_q15.c ****    * @param[in]     *pData	   points to the matrix data array.
  46:Source\MatrixFunctions/arm_mat_init_q15.c ****    * @return        none
  47:Source\MatrixFunctions/arm_mat_init_q15.c ****    */
  48:Source\MatrixFunctions/arm_mat_init_q15.c **** 
  49:Source\MatrixFunctions/arm_mat_init_q15.c **** void arm_mat_init_q15(
  50:Source\MatrixFunctions/arm_mat_init_q15.c ****   arm_matrix_instance_q15 * S,
  51:Source\MatrixFunctions/arm_mat_init_q15.c ****   uint16_t nRows,
  52:Source\MatrixFunctions/arm_mat_init_q15.c ****   uint16_t nColumns,
  53:Source\MatrixFunctions/arm_mat_init_q15.c ****   q15_t * pData)
  54:Source\MatrixFunctions/arm_mat_init_q15.c **** {
  26              		.loc 1 54 0
  27              		.cfi_startproc
  28 0000 80B5     		push	{r7, lr}
  29              		.cfi_def_cfa_offset 8
  30              		.cfi_offset 7, -8
  31              		.cfi_offset 14, -4
  32 0002 84B0     		sub	sp, sp, #16
  33              		.cfi_def_cfa_offset 24
  34 0004 00AF     		add	r7, sp, #0
  35              		.cfi_def_cfa_register 7
  36 0006 F860     		str	r0, [r7, #12]
  37 0008 081C     		mov	r0, r1
  38 000a 111C     		mov	r1, r2
  39 000c 7B60     		str	r3, [r7, #4]
  40 000e 0A23     		mov	r3, #10
  41 0010 FB18     		add	r3, r7, r3
  42 0012 021C     		add	r2, r0, #0
  43 0014 1A80     		strh	r2, [r3]
  44 0016 0823     		mov	r3, #8
  45 0018 FB18     		add	r3, r7, r3
  46 001a 0A1C     		add	r2, r1, #0
  47 001c 1A80     		strh	r2, [r3]
  55:Source\MatrixFunctions/arm_mat_init_q15.c ****   /* Assign Number of Rows */
  56:Source\MatrixFunctions/arm_mat_init_q15.c ****   S->numRows = nRows;
  48              		.loc 1 56 0
  49 001e FB68     		ldr	r3, [r7, #12]
  50 0020 0A22     		mov	r2, #10
  51 0022 BA18     		add	r2, r7, r2
  52 0024 1288     		ldrh	r2, [r2]
  53 0026 1A80     		strh	r2, [r3]
  57:Source\MatrixFunctions/arm_mat_init_q15.c **** 
  58:Source\MatrixFunctions/arm_mat_init_q15.c ****   /* Assign Number of Columns */
  59:Source\MatrixFunctions/arm_mat_init_q15.c ****   S->numCols = nColumns;
  54              		.loc 1 59 0
  55 0028 FB68     		ldr	r3, [r7, #12]
ARM GAS  C:\Users\fneves\AppData\Local\Temp\ccBoVlaK.s 			page 3


  56 002a 0822     		mov	r2, #8
  57 002c BA18     		add	r2, r7, r2
  58 002e 1288     		ldrh	r2, [r2]
  59 0030 5A80     		strh	r2, [r3, #2]
  60:Source\MatrixFunctions/arm_mat_init_q15.c **** 
  61:Source\MatrixFunctions/arm_mat_init_q15.c ****   /* Assign Data pointer */
  62:Source\MatrixFunctions/arm_mat_init_q15.c ****   S->pData = pData;
  60              		.loc 1 62 0
  61 0032 FB68     		ldr	r3, [r7, #12]
  62 0034 7A68     		ldr	r2, [r7, #4]
  63 0036 5A60     		str	r2, [r3, #4]
  63:Source\MatrixFunctions/arm_mat_init_q15.c **** }
  64              		.loc 1 63 0
  65 0038 BD46     		mov	sp, r7
  66 003a 04B0     		add	sp, sp, #16
  67              		@ sp needed
  68 003c 80BD     		pop	{r7, pc}
  69              		.cfi_endproc
  70              	.LFE82:
  71              		.size	arm_mat_init_q15, .-arm_mat_init_q15
  72 003e C046     		.text
  73              	.Letext0:
  74              		.file 2 "c:\\program files (x86)\\cypress\\psoc creator\\4.0\\psoc creator\\import\\gnu\\arm\\4.9.
  75              		.file 3 "c:\\program files (x86)\\cypress\\psoc creator\\4.0\\psoc creator\\import\\gnu\\arm\\4.9.
  76              		.file 4 ".\\Include/arm_math.h"