ARM GAS  C:\Users\fneves\AppData\Local\Temp\ccMrqurY.s 			page 1


   1              		.cpu cortex-m0plus
   2              		.fpu softvfp
   3              		.eabi_attribute 20, 1
   4              		.eabi_attribute 21, 1
   5              		.eabi_attribute 23, 3
   6              		.eabi_attribute 24, 1
   7              		.eabi_attribute 25, 1
   8              		.eabi_attribute 26, 1
   9              		.eabi_attribute 30, 6
  10              		.eabi_attribute 34, 0
  11              		.eabi_attribute 18, 4
  12              		.code	16
  13              		.file	"arm_biquad_cascade_df1_q31.c"
  14              		.text
  15              	.Ltext0:
  16              		.cfi_sections	.debug_frame
  17              		.global	__aeabi_lmul
  18              		.section	.text.arm_biquad_cascade_df1_q31,"ax",%progbits
  19              		.align	2
  20              		.global	arm_biquad_cascade_df1_q31
  21              		.code	16
  22              		.thumb_func
  23              		.type	arm_biquad_cascade_df1_q31, %function
  24              	arm_biquad_cascade_df1_q31:
  25              	.LFB82:
  26              		.file 1 "Source\\FilteringFunctions\\arm_biquad_cascade_df1_q31.c"
   1:Source\FilteringFunctions/arm_biquad_cascade_df1_q31.c **** /* ----------------------------------------------------------------------
   2:Source\FilteringFunctions/arm_biquad_cascade_df1_q31.c ****  * Project:      CMSIS DSP Library
   3:Source\FilteringFunctions/arm_biquad_cascade_df1_q31.c ****  * Title:        arm_biquad_cascade_df1_q31.c
   4:Source\FilteringFunctions/arm_biquad_cascade_df1_q31.c ****  * Description:  Processing function for the Q31 Biquad cascade filter
   5:Source\FilteringFunctions/arm_biquad_cascade_df1_q31.c ****  *
   6:Source\FilteringFunctions/arm_biquad_cascade_df1_q31.c ****  * $Date:        27. January 2017
   7:Source\FilteringFunctions/arm_biquad_cascade_df1_q31.c ****  * $Revision:    V.1.5.1
   8:Source\FilteringFunctions/arm_biquad_cascade_df1_q31.c ****  *
   9:Source\FilteringFunctions/arm_biquad_cascade_df1_q31.c ****  * Target Processor: Cortex-M cores
  10:Source\FilteringFunctions/arm_biquad_cascade_df1_q31.c ****  * -------------------------------------------------------------------- */
  11:Source\FilteringFunctions/arm_biquad_cascade_df1_q31.c **** /*
  12:Source\FilteringFunctions/arm_biquad_cascade_df1_q31.c ****  * Copyright (C) 2010-2017 ARM Limited or its affiliates. All rights reserved.
  13:Source\FilteringFunctions/arm_biquad_cascade_df1_q31.c ****  *
  14:Source\FilteringFunctions/arm_biquad_cascade_df1_q31.c ****  * SPDX-License-Identifier: Apache-2.0
  15:Source\FilteringFunctions/arm_biquad_cascade_df1_q31.c ****  *
  16:Source\FilteringFunctions/arm_biquad_cascade_df1_q31.c ****  * Licensed under the Apache License, Version 2.0 (the License); you may
  17:Source\FilteringFunctions/arm_biquad_cascade_df1_q31.c ****  * not use this file except in compliance with the License.
  18:Source\FilteringFunctions/arm_biquad_cascade_df1_q31.c ****  * You may obtain a copy of the License at
  19:Source\FilteringFunctions/arm_biquad_cascade_df1_q31.c ****  *
  20:Source\FilteringFunctions/arm_biquad_cascade_df1_q31.c ****  * www.apache.org/licenses/LICENSE-2.0
  21:Source\FilteringFunctions/arm_biquad_cascade_df1_q31.c ****  *
  22:Source\FilteringFunctions/arm_biquad_cascade_df1_q31.c ****  * Unless required by applicable law or agreed to in writing, software
  23:Source\FilteringFunctions/arm_biquad_cascade_df1_q31.c ****  * distributed under the License is distributed on an AS IS BASIS, WITHOUT
  24:Source\FilteringFunctions/arm_biquad_cascade_df1_q31.c ****  * WARRANTIES OR CONDITIONS OF ANY KIND, either express or implied.
  25:Source\FilteringFunctions/arm_biquad_cascade_df1_q31.c ****  * See the License for the specific language governing permissions and
  26:Source\FilteringFunctions/arm_biquad_cascade_df1_q31.c ****  * limitations under the License.
  27:Source\FilteringFunctions/arm_biquad_cascade_df1_q31.c ****  */
  28:Source\FilteringFunctions/arm_biquad_cascade_df1_q31.c **** 
  29:Source\FilteringFunctions/arm_biquad_cascade_df1_q31.c **** #include "arm_math.h"
  30:Source\FilteringFunctions/arm_biquad_cascade_df1_q31.c **** 
  31:Source\FilteringFunctions/arm_biquad_cascade_df1_q31.c **** /**
ARM GAS  C:\Users\fneves\AppData\Local\Temp\ccMrqurY.s 			page 2


  32:Source\FilteringFunctions/arm_biquad_cascade_df1_q31.c ****  * @ingroup groupFilters
  33:Source\FilteringFunctions/arm_biquad_cascade_df1_q31.c ****  */
  34:Source\FilteringFunctions/arm_biquad_cascade_df1_q31.c **** 
  35:Source\FilteringFunctions/arm_biquad_cascade_df1_q31.c **** /**
  36:Source\FilteringFunctions/arm_biquad_cascade_df1_q31.c ****  * @addtogroup BiquadCascadeDF1
  37:Source\FilteringFunctions/arm_biquad_cascade_df1_q31.c ****  * @{
  38:Source\FilteringFunctions/arm_biquad_cascade_df1_q31.c ****  */
  39:Source\FilteringFunctions/arm_biquad_cascade_df1_q31.c **** 
  40:Source\FilteringFunctions/arm_biquad_cascade_df1_q31.c **** /**
  41:Source\FilteringFunctions/arm_biquad_cascade_df1_q31.c ****  * @brief Processing function for the Q31 Biquad cascade filter.
  42:Source\FilteringFunctions/arm_biquad_cascade_df1_q31.c ****  * @param[in]  *S         points to an instance of the Q31 Biquad cascade structure.
  43:Source\FilteringFunctions/arm_biquad_cascade_df1_q31.c ****  * @param[in]  *pSrc      points to the block of input data.
  44:Source\FilteringFunctions/arm_biquad_cascade_df1_q31.c ****  * @param[out] *pDst      points to the block of output data.
  45:Source\FilteringFunctions/arm_biquad_cascade_df1_q31.c ****  * @param[in]  blockSize  number of samples to process per call.
  46:Source\FilteringFunctions/arm_biquad_cascade_df1_q31.c ****  * @return none.
  47:Source\FilteringFunctions/arm_biquad_cascade_df1_q31.c ****  *
  48:Source\FilteringFunctions/arm_biquad_cascade_df1_q31.c ****  * <b>Scaling and Overflow Behavior:</b>
  49:Source\FilteringFunctions/arm_biquad_cascade_df1_q31.c ****  * \par
  50:Source\FilteringFunctions/arm_biquad_cascade_df1_q31.c ****  * The function is implemented using an internal 64-bit accumulator.
  51:Source\FilteringFunctions/arm_biquad_cascade_df1_q31.c ****  * The accumulator has a 2.62 format and maintains full precision of the intermediate multiplicatio
  52:Source\FilteringFunctions/arm_biquad_cascade_df1_q31.c ****  * Thus, if the accumulator result overflows it wraps around rather than clip.
  53:Source\FilteringFunctions/arm_biquad_cascade_df1_q31.c ****  * In order to avoid overflows completely the input signal must be scaled down by 2 bits and lie in
  54:Source\FilteringFunctions/arm_biquad_cascade_df1_q31.c ****  * After all 5 multiply-accumulates are performed, the 2.62 accumulator is shifted by <code>postShi
  55:Source\FilteringFunctions/arm_biquad_cascade_df1_q31.c ****  * 1.31 format by discarding the low 32 bits.
  56:Source\FilteringFunctions/arm_biquad_cascade_df1_q31.c ****  *
  57:Source\FilteringFunctions/arm_biquad_cascade_df1_q31.c ****  * \par
  58:Source\FilteringFunctions/arm_biquad_cascade_df1_q31.c ****  * Refer to the function <code>arm_biquad_cascade_df1_fast_q31()</code> for a faster but less preci
  59:Source\FilteringFunctions/arm_biquad_cascade_df1_q31.c ****  */
  60:Source\FilteringFunctions/arm_biquad_cascade_df1_q31.c **** 
  61:Source\FilteringFunctions/arm_biquad_cascade_df1_q31.c **** void arm_biquad_cascade_df1_q31(
  62:Source\FilteringFunctions/arm_biquad_cascade_df1_q31.c ****   const arm_biquad_casd_df1_inst_q31 * S,
  63:Source\FilteringFunctions/arm_biquad_cascade_df1_q31.c ****   q31_t * pSrc,
  64:Source\FilteringFunctions/arm_biquad_cascade_df1_q31.c ****   q31_t * pDst,
  65:Source\FilteringFunctions/arm_biquad_cascade_df1_q31.c ****   uint32_t blockSize)
  66:Source\FilteringFunctions/arm_biquad_cascade_df1_q31.c **** {
  27              		.loc 1 66 0
  28              		.cfi_startproc
  29 0000 F0B5     		push	{r4, r5, r6, r7, lr}
  30              		.cfi_def_cfa_offset 20
  31              		.cfi_offset 4, -20
  32              		.cfi_offset 5, -16
  33              		.cfi_offset 6, -12
  34              		.cfi_offset 7, -8
  35              		.cfi_offset 14, -4
  36 0002 ABB0     		sub	sp, sp, #172
  37              		.cfi_def_cfa_offset 192
  38 0004 00AF     		add	r7, sp, #0
  39              		.cfi_def_cfa_register 7
  40 0006 7865     		str	r0, [r7, #84]
  41 0008 3965     		str	r1, [r7, #80]
  42 000a FA64     		str	r2, [r7, #76]
  43 000c BB64     		str	r3, [r7, #72]
  67:Source\FilteringFunctions/arm_biquad_cascade_df1_q31.c ****   q63_t acc;                                     /*  accumulator                   */
  68:Source\FilteringFunctions/arm_biquad_cascade_df1_q31.c ****   uint32_t uShift = ((uint32_t) S->postShift + 1u);
  44              		.loc 1 68 0
  45 000e 7B6D     		ldr	r3, [r7, #84]
  46 0010 1B7B     		ldrb	r3, [r3, #12]
ARM GAS  C:\Users\fneves\AppData\Local\Temp\ccMrqurY.s 			page 3


  47 0012 0133     		add	r3, r3, #1
  48 0014 FB67     		str	r3, [r7, #124]
  69:Source\FilteringFunctions/arm_biquad_cascade_df1_q31.c ****   uint32_t lShift = 32u - uShift;                /*  Shift to be applied to the output */
  49              		.loc 1 69 0
  50 0016 FA6F     		ldr	r2, [r7, #124]
  51 0018 2023     		mov	r3, #32
  52 001a 9B1A     		sub	r3, r3, r2
  53 001c BB67     		str	r3, [r7, #120]
  70:Source\FilteringFunctions/arm_biquad_cascade_df1_q31.c ****   q31_t *pIn = pSrc;                             /*  input pointer initialization  */
  54              		.loc 1 70 0
  55 001e 3B6D     		ldr	r3, [r7, #80]
  56 0020 A422     		mov	r2, #164
  57 0022 BA18     		add	r2, r7, r2
  58 0024 1360     		str	r3, [r2]
  71:Source\FilteringFunctions/arm_biquad_cascade_df1_q31.c ****   q31_t *pOut = pDst;                            /*  output pointer initialization */
  59              		.loc 1 71 0
  60 0026 FB6C     		ldr	r3, [r7, #76]
  61 0028 A022     		mov	r2, #160
  62 002a BA18     		add	r2, r7, r2
  63 002c 1360     		str	r3, [r2]
  72:Source\FilteringFunctions/arm_biquad_cascade_df1_q31.c ****   q31_t *pState = S->pState;                     /*  pState pointer initialization */
  64              		.loc 1 72 0
  65 002e 7B6D     		ldr	r3, [r7, #84]
  66 0030 5B68     		ldr	r3, [r3, #4]
  67 0032 9C22     		mov	r2, #156
  68 0034 BA18     		add	r2, r7, r2
  69 0036 1360     		str	r3, [r2]
  73:Source\FilteringFunctions/arm_biquad_cascade_df1_q31.c ****   q31_t *pCoeffs = S->pCoeffs;                   /*  coeff pointer initialization  */
  70              		.loc 1 73 0
  71 0038 7B6D     		ldr	r3, [r7, #84]
  72 003a 9B68     		ldr	r3, [r3, #8]
  73 003c 9822     		mov	r2, #152
  74 003e BA18     		add	r2, r7, r2
  75 0040 1360     		str	r3, [r2]
  74:Source\FilteringFunctions/arm_biquad_cascade_df1_q31.c ****   q31_t Xn1, Xn2, Yn1, Yn2;                      /*  Filter state variables        */
  75:Source\FilteringFunctions/arm_biquad_cascade_df1_q31.c ****   q31_t b0, b1, b2, a1, a2;                      /*  Filter coefficients           */
  76:Source\FilteringFunctions/arm_biquad_cascade_df1_q31.c ****   q31_t Xn;                                      /*  temporary input               */
  77:Source\FilteringFunctions/arm_biquad_cascade_df1_q31.c ****   uint32_t sample, stage = S->numStages;         /*  loop counters                     */
  76              		.loc 1 77 0
  77 0042 7B6D     		ldr	r3, [r7, #84]
  78 0044 1B68     		ldr	r3, [r3]
  79 0046 8022     		mov	r2, #128
  80 0048 BA18     		add	r2, r7, r2
  81 004a 1360     		str	r3, [r2]
  82              	.L6:
  78:Source\FilteringFunctions/arm_biquad_cascade_df1_q31.c **** 
  79:Source\FilteringFunctions/arm_biquad_cascade_df1_q31.c **** 
  80:Source\FilteringFunctions/arm_biquad_cascade_df1_q31.c **** #if defined (ARM_MATH_DSP)
  81:Source\FilteringFunctions/arm_biquad_cascade_df1_q31.c **** 
  82:Source\FilteringFunctions/arm_biquad_cascade_df1_q31.c ****   q31_t acc_l, acc_h;                            /*  temporary output variables    */
  83:Source\FilteringFunctions/arm_biquad_cascade_df1_q31.c **** 
  84:Source\FilteringFunctions/arm_biquad_cascade_df1_q31.c ****   /* Run the below code for Cortex-M4 and Cortex-M3 */
  85:Source\FilteringFunctions/arm_biquad_cascade_df1_q31.c **** 
  86:Source\FilteringFunctions/arm_biquad_cascade_df1_q31.c ****   do
  87:Source\FilteringFunctions/arm_biquad_cascade_df1_q31.c ****   {
  88:Source\FilteringFunctions/arm_biquad_cascade_df1_q31.c ****     /* Reading the coefficients */
  89:Source\FilteringFunctions/arm_biquad_cascade_df1_q31.c ****     b0 = *pCoeffs++;
ARM GAS  C:\Users\fneves\AppData\Local\Temp\ccMrqurY.s 			page 4


  90:Source\FilteringFunctions/arm_biquad_cascade_df1_q31.c ****     b1 = *pCoeffs++;
  91:Source\FilteringFunctions/arm_biquad_cascade_df1_q31.c ****     b2 = *pCoeffs++;
  92:Source\FilteringFunctions/arm_biquad_cascade_df1_q31.c ****     a1 = *pCoeffs++;
  93:Source\FilteringFunctions/arm_biquad_cascade_df1_q31.c ****     a2 = *pCoeffs++;
  94:Source\FilteringFunctions/arm_biquad_cascade_df1_q31.c **** 
  95:Source\FilteringFunctions/arm_biquad_cascade_df1_q31.c ****     /* Reading the state values */
  96:Source\FilteringFunctions/arm_biquad_cascade_df1_q31.c ****     Xn1 = pState[0];
  97:Source\FilteringFunctions/arm_biquad_cascade_df1_q31.c ****     Xn2 = pState[1];
  98:Source\FilteringFunctions/arm_biquad_cascade_df1_q31.c ****     Yn1 = pState[2];
  99:Source\FilteringFunctions/arm_biquad_cascade_df1_q31.c ****     Yn2 = pState[3];
 100:Source\FilteringFunctions/arm_biquad_cascade_df1_q31.c **** 
 101:Source\FilteringFunctions/arm_biquad_cascade_df1_q31.c ****     /* Apply loop unrolling and compute 4 output values simultaneously. */
 102:Source\FilteringFunctions/arm_biquad_cascade_df1_q31.c ****     /*      The variable acc hold output values that are being computed:
 103:Source\FilteringFunctions/arm_biquad_cascade_df1_q31.c ****      *
 104:Source\FilteringFunctions/arm_biquad_cascade_df1_q31.c ****      *    acc =  b0 * x[n] + b1 * x[n-1] + b2 * x[n-2] + a1 * y[n-1] + a2 * y[n-2]
 105:Source\FilteringFunctions/arm_biquad_cascade_df1_q31.c ****      */
 106:Source\FilteringFunctions/arm_biquad_cascade_df1_q31.c **** 
 107:Source\FilteringFunctions/arm_biquad_cascade_df1_q31.c ****     sample = blockSize >> 2u;
 108:Source\FilteringFunctions/arm_biquad_cascade_df1_q31.c **** 
 109:Source\FilteringFunctions/arm_biquad_cascade_df1_q31.c ****     /* First part of the processing with loop unrolling.  Compute 4 outputs at a time.
 110:Source\FilteringFunctions/arm_biquad_cascade_df1_q31.c ****      ** a second loop below computes the remaining 1 to 3 samples. */
 111:Source\FilteringFunctions/arm_biquad_cascade_df1_q31.c ****     while (sample > 0u)
 112:Source\FilteringFunctions/arm_biquad_cascade_df1_q31.c ****     {
 113:Source\FilteringFunctions/arm_biquad_cascade_df1_q31.c ****       /* Read the input */
 114:Source\FilteringFunctions/arm_biquad_cascade_df1_q31.c ****       Xn = *pIn++;
 115:Source\FilteringFunctions/arm_biquad_cascade_df1_q31.c **** 
 116:Source\FilteringFunctions/arm_biquad_cascade_df1_q31.c ****       /* acc =  b0 * x[n] + b1 * x[n-1] + b2 * x[n-2] + a1 * y[n-1] + a2 * y[n-2] */
 117:Source\FilteringFunctions/arm_biquad_cascade_df1_q31.c **** 
 118:Source\FilteringFunctions/arm_biquad_cascade_df1_q31.c ****       /* acc =  b0 * x[n] */
 119:Source\FilteringFunctions/arm_biquad_cascade_df1_q31.c ****       acc = (q63_t) b0 *Xn;
 120:Source\FilteringFunctions/arm_biquad_cascade_df1_q31.c ****       /* acc +=  b1 * x[n-1] */
 121:Source\FilteringFunctions/arm_biquad_cascade_df1_q31.c ****       acc += (q63_t) b1 *Xn1;
 122:Source\FilteringFunctions/arm_biquad_cascade_df1_q31.c ****       /* acc +=  b[2] * x[n-2] */
 123:Source\FilteringFunctions/arm_biquad_cascade_df1_q31.c ****       acc += (q63_t) b2 *Xn2;
 124:Source\FilteringFunctions/arm_biquad_cascade_df1_q31.c ****       /* acc +=  a1 * y[n-1] */
 125:Source\FilteringFunctions/arm_biquad_cascade_df1_q31.c ****       acc += (q63_t) a1 *Yn1;
 126:Source\FilteringFunctions/arm_biquad_cascade_df1_q31.c ****       /* acc +=  a2 * y[n-2] */
 127:Source\FilteringFunctions/arm_biquad_cascade_df1_q31.c ****       acc += (q63_t) a2 *Yn2;
 128:Source\FilteringFunctions/arm_biquad_cascade_df1_q31.c **** 
 129:Source\FilteringFunctions/arm_biquad_cascade_df1_q31.c ****       /* The result is converted to 1.31 , Yn2 variable is reused */
 130:Source\FilteringFunctions/arm_biquad_cascade_df1_q31.c **** 
 131:Source\FilteringFunctions/arm_biquad_cascade_df1_q31.c ****       /* Calc lower part of acc */
 132:Source\FilteringFunctions/arm_biquad_cascade_df1_q31.c ****       acc_l = acc & 0xffffffff;
 133:Source\FilteringFunctions/arm_biquad_cascade_df1_q31.c **** 
 134:Source\FilteringFunctions/arm_biquad_cascade_df1_q31.c ****       /* Calc upper part of acc */
 135:Source\FilteringFunctions/arm_biquad_cascade_df1_q31.c ****       acc_h = (acc >> 32) & 0xffffffff;
 136:Source\FilteringFunctions/arm_biquad_cascade_df1_q31.c **** 
 137:Source\FilteringFunctions/arm_biquad_cascade_df1_q31.c ****       /* Apply shift for lower part of acc and upper part of acc */
 138:Source\FilteringFunctions/arm_biquad_cascade_df1_q31.c ****       Yn2 = (uint32_t) acc_l >> lShift | acc_h << uShift;
 139:Source\FilteringFunctions/arm_biquad_cascade_df1_q31.c **** 
 140:Source\FilteringFunctions/arm_biquad_cascade_df1_q31.c ****       /* Store the output in the destination buffer. */
 141:Source\FilteringFunctions/arm_biquad_cascade_df1_q31.c ****       *pOut++ = Yn2;
 142:Source\FilteringFunctions/arm_biquad_cascade_df1_q31.c **** 
 143:Source\FilteringFunctions/arm_biquad_cascade_df1_q31.c ****       /* Read the second input */
 144:Source\FilteringFunctions/arm_biquad_cascade_df1_q31.c ****       Xn2 = *pIn++;
 145:Source\FilteringFunctions/arm_biquad_cascade_df1_q31.c **** 
 146:Source\FilteringFunctions/arm_biquad_cascade_df1_q31.c ****       /* acc =  b0 * x[n] + b1 * x[n-1] + b2 * x[n-2] + a1 * y[n-1] + a2 * y[n-2] */
ARM GAS  C:\Users\fneves\AppData\Local\Temp\ccMrqurY.s 			page 5


 147:Source\FilteringFunctions/arm_biquad_cascade_df1_q31.c **** 
 148:Source\FilteringFunctions/arm_biquad_cascade_df1_q31.c ****       /* acc =  b0 * x[n] */
 149:Source\FilteringFunctions/arm_biquad_cascade_df1_q31.c ****       acc = (q63_t) b0 *Xn2;
 150:Source\FilteringFunctions/arm_biquad_cascade_df1_q31.c ****       /* acc +=  b1 * x[n-1] */
 151:Source\FilteringFunctions/arm_biquad_cascade_df1_q31.c ****       acc += (q63_t) b1 *Xn;
 152:Source\FilteringFunctions/arm_biquad_cascade_df1_q31.c ****       /* acc +=  b[2] * x[n-2] */
 153:Source\FilteringFunctions/arm_biquad_cascade_df1_q31.c ****       acc += (q63_t) b2 *Xn1;
 154:Source\FilteringFunctions/arm_biquad_cascade_df1_q31.c ****       /* acc +=  a1 * y[n-1] */
 155:Source\FilteringFunctions/arm_biquad_cascade_df1_q31.c ****       acc += (q63_t) a1 *Yn2;
 156:Source\FilteringFunctions/arm_biquad_cascade_df1_q31.c ****       /* acc +=  a2 * y[n-2] */
 157:Source\FilteringFunctions/arm_biquad_cascade_df1_q31.c ****       acc += (q63_t) a2 *Yn1;
 158:Source\FilteringFunctions/arm_biquad_cascade_df1_q31.c **** 
 159:Source\FilteringFunctions/arm_biquad_cascade_df1_q31.c **** 
 160:Source\FilteringFunctions/arm_biquad_cascade_df1_q31.c ****       /* The result is converted to 1.31, Yn1 variable is reused  */
 161:Source\FilteringFunctions/arm_biquad_cascade_df1_q31.c **** 
 162:Source\FilteringFunctions/arm_biquad_cascade_df1_q31.c ****       /* Calc lower part of acc */
 163:Source\FilteringFunctions/arm_biquad_cascade_df1_q31.c ****       acc_l = acc & 0xffffffff;
 164:Source\FilteringFunctions/arm_biquad_cascade_df1_q31.c **** 
 165:Source\FilteringFunctions/arm_biquad_cascade_df1_q31.c ****       /* Calc upper part of acc */
 166:Source\FilteringFunctions/arm_biquad_cascade_df1_q31.c ****       acc_h = (acc >> 32) & 0xffffffff;
 167:Source\FilteringFunctions/arm_biquad_cascade_df1_q31.c **** 
 168:Source\FilteringFunctions/arm_biquad_cascade_df1_q31.c **** 
 169:Source\FilteringFunctions/arm_biquad_cascade_df1_q31.c ****       /* Apply shift for lower part of acc and upper part of acc */
 170:Source\FilteringFunctions/arm_biquad_cascade_df1_q31.c ****       Yn1 = (uint32_t) acc_l >> lShift | acc_h << uShift;
 171:Source\FilteringFunctions/arm_biquad_cascade_df1_q31.c **** 
 172:Source\FilteringFunctions/arm_biquad_cascade_df1_q31.c ****       /* Store the output in the destination buffer. */
 173:Source\FilteringFunctions/arm_biquad_cascade_df1_q31.c ****       *pOut++ = Yn1;
 174:Source\FilteringFunctions/arm_biquad_cascade_df1_q31.c **** 
 175:Source\FilteringFunctions/arm_biquad_cascade_df1_q31.c ****       /* Read the third input  */
 176:Source\FilteringFunctions/arm_biquad_cascade_df1_q31.c ****       Xn1 = *pIn++;
 177:Source\FilteringFunctions/arm_biquad_cascade_df1_q31.c **** 
 178:Source\FilteringFunctions/arm_biquad_cascade_df1_q31.c ****       /* acc =  b0 * x[n] + b1 * x[n-1] + b2 * x[n-2] + a1 * y[n-1] + a2 * y[n-2] */
 179:Source\FilteringFunctions/arm_biquad_cascade_df1_q31.c **** 
 180:Source\FilteringFunctions/arm_biquad_cascade_df1_q31.c ****       /* acc =  b0 * x[n] */
 181:Source\FilteringFunctions/arm_biquad_cascade_df1_q31.c ****       acc = (q63_t) b0 *Xn1;
 182:Source\FilteringFunctions/arm_biquad_cascade_df1_q31.c ****       /* acc +=  b1 * x[n-1] */
 183:Source\FilteringFunctions/arm_biquad_cascade_df1_q31.c ****       acc += (q63_t) b1 *Xn2;
 184:Source\FilteringFunctions/arm_biquad_cascade_df1_q31.c ****       /* acc +=  b[2] * x[n-2] */
 185:Source\FilteringFunctions/arm_biquad_cascade_df1_q31.c ****       acc += (q63_t) b2 *Xn;
 186:Source\FilteringFunctions/arm_biquad_cascade_df1_q31.c ****       /* acc +=  a1 * y[n-1] */
 187:Source\FilteringFunctions/arm_biquad_cascade_df1_q31.c ****       acc += (q63_t) a1 *Yn1;
 188:Source\FilteringFunctions/arm_biquad_cascade_df1_q31.c ****       /* acc +=  a2 * y[n-2] */
 189:Source\FilteringFunctions/arm_biquad_cascade_df1_q31.c ****       acc += (q63_t) a2 *Yn2;
 190:Source\FilteringFunctions/arm_biquad_cascade_df1_q31.c **** 
 191:Source\FilteringFunctions/arm_biquad_cascade_df1_q31.c ****       /* The result is converted to 1.31, Yn2 variable is reused  */
 192:Source\FilteringFunctions/arm_biquad_cascade_df1_q31.c ****       /* Calc lower part of acc */
 193:Source\FilteringFunctions/arm_biquad_cascade_df1_q31.c ****       acc_l = acc & 0xffffffff;
 194:Source\FilteringFunctions/arm_biquad_cascade_df1_q31.c **** 
 195:Source\FilteringFunctions/arm_biquad_cascade_df1_q31.c ****       /* Calc upper part of acc */
 196:Source\FilteringFunctions/arm_biquad_cascade_df1_q31.c ****       acc_h = (acc >> 32) & 0xffffffff;
 197:Source\FilteringFunctions/arm_biquad_cascade_df1_q31.c **** 
 198:Source\FilteringFunctions/arm_biquad_cascade_df1_q31.c **** 
 199:Source\FilteringFunctions/arm_biquad_cascade_df1_q31.c ****       /* Apply shift for lower part of acc and upper part of acc */
 200:Source\FilteringFunctions/arm_biquad_cascade_df1_q31.c ****       Yn2 = (uint32_t) acc_l >> lShift | acc_h << uShift;
 201:Source\FilteringFunctions/arm_biquad_cascade_df1_q31.c **** 
 202:Source\FilteringFunctions/arm_biquad_cascade_df1_q31.c ****       /* Store the output in the destination buffer. */
 203:Source\FilteringFunctions/arm_biquad_cascade_df1_q31.c ****       *pOut++ = Yn2;
ARM GAS  C:\Users\fneves\AppData\Local\Temp\ccMrqurY.s 			page 6


 204:Source\FilteringFunctions/arm_biquad_cascade_df1_q31.c **** 
 205:Source\FilteringFunctions/arm_biquad_cascade_df1_q31.c ****       /* Read the forth input */
 206:Source\FilteringFunctions/arm_biquad_cascade_df1_q31.c ****       Xn = *pIn++;
 207:Source\FilteringFunctions/arm_biquad_cascade_df1_q31.c **** 
 208:Source\FilteringFunctions/arm_biquad_cascade_df1_q31.c ****       /* acc =  b0 * x[n] + b1 * x[n-1] + b2 * x[n-2] + a1 * y[n-1] + a2 * y[n-2] */
 209:Source\FilteringFunctions/arm_biquad_cascade_df1_q31.c **** 
 210:Source\FilteringFunctions/arm_biquad_cascade_df1_q31.c ****       /* acc =  b0 * x[n] */
 211:Source\FilteringFunctions/arm_biquad_cascade_df1_q31.c ****       acc = (q63_t) b0 *Xn;
 212:Source\FilteringFunctions/arm_biquad_cascade_df1_q31.c ****       /* acc +=  b1 * x[n-1] */
 213:Source\FilteringFunctions/arm_biquad_cascade_df1_q31.c ****       acc += (q63_t) b1 *Xn1;
 214:Source\FilteringFunctions/arm_biquad_cascade_df1_q31.c ****       /* acc +=  b[2] * x[n-2] */
 215:Source\FilteringFunctions/arm_biquad_cascade_df1_q31.c ****       acc += (q63_t) b2 *Xn2;
 216:Source\FilteringFunctions/arm_biquad_cascade_df1_q31.c ****       /* acc +=  a1 * y[n-1] */
 217:Source\FilteringFunctions/arm_biquad_cascade_df1_q31.c ****       acc += (q63_t) a1 *Yn2;
 218:Source\FilteringFunctions/arm_biquad_cascade_df1_q31.c ****       /* acc +=  a2 * y[n-2] */
 219:Source\FilteringFunctions/arm_biquad_cascade_df1_q31.c ****       acc += (q63_t) a2 *Yn1;
 220:Source\FilteringFunctions/arm_biquad_cascade_df1_q31.c **** 
 221:Source\FilteringFunctions/arm_biquad_cascade_df1_q31.c ****       /* The result is converted to 1.31, Yn1 variable is reused  */
 222:Source\FilteringFunctions/arm_biquad_cascade_df1_q31.c ****       /* Calc lower part of acc */
 223:Source\FilteringFunctions/arm_biquad_cascade_df1_q31.c ****       acc_l = acc & 0xffffffff;
 224:Source\FilteringFunctions/arm_biquad_cascade_df1_q31.c **** 
 225:Source\FilteringFunctions/arm_biquad_cascade_df1_q31.c ****       /* Calc upper part of acc */
 226:Source\FilteringFunctions/arm_biquad_cascade_df1_q31.c ****       acc_h = (acc >> 32) & 0xffffffff;
 227:Source\FilteringFunctions/arm_biquad_cascade_df1_q31.c **** 
 228:Source\FilteringFunctions/arm_biquad_cascade_df1_q31.c ****       /* Apply shift for lower part of acc and upper part of acc */
 229:Source\FilteringFunctions/arm_biquad_cascade_df1_q31.c ****       Yn1 = (uint32_t) acc_l >> lShift | acc_h << uShift;
 230:Source\FilteringFunctions/arm_biquad_cascade_df1_q31.c **** 
 231:Source\FilteringFunctions/arm_biquad_cascade_df1_q31.c ****       /* Every time after the output is computed state should be updated. */
 232:Source\FilteringFunctions/arm_biquad_cascade_df1_q31.c ****       /* The states should be updated as:  */
 233:Source\FilteringFunctions/arm_biquad_cascade_df1_q31.c ****       /* Xn2 = Xn1    */
 234:Source\FilteringFunctions/arm_biquad_cascade_df1_q31.c ****       /* Xn1 = Xn     */
 235:Source\FilteringFunctions/arm_biquad_cascade_df1_q31.c ****       /* Yn2 = Yn1    */
 236:Source\FilteringFunctions/arm_biquad_cascade_df1_q31.c ****       /* Yn1 = acc    */
 237:Source\FilteringFunctions/arm_biquad_cascade_df1_q31.c ****       Xn2 = Xn1;
 238:Source\FilteringFunctions/arm_biquad_cascade_df1_q31.c ****       Xn1 = Xn;
 239:Source\FilteringFunctions/arm_biquad_cascade_df1_q31.c **** 
 240:Source\FilteringFunctions/arm_biquad_cascade_df1_q31.c ****       /* Store the output in the destination buffer. */
 241:Source\FilteringFunctions/arm_biquad_cascade_df1_q31.c ****       *pOut++ = Yn1;
 242:Source\FilteringFunctions/arm_biquad_cascade_df1_q31.c **** 
 243:Source\FilteringFunctions/arm_biquad_cascade_df1_q31.c ****       /* decrement the loop counter */
 244:Source\FilteringFunctions/arm_biquad_cascade_df1_q31.c ****       sample--;
 245:Source\FilteringFunctions/arm_biquad_cascade_df1_q31.c ****     }
 246:Source\FilteringFunctions/arm_biquad_cascade_df1_q31.c **** 
 247:Source\FilteringFunctions/arm_biquad_cascade_df1_q31.c ****     /* If the blockSize is not a multiple of 4, compute any remaining output samples here.
 248:Source\FilteringFunctions/arm_biquad_cascade_df1_q31.c ****      ** No loop unrolling is used. */
 249:Source\FilteringFunctions/arm_biquad_cascade_df1_q31.c ****     sample = (blockSize & 0x3u);
 250:Source\FilteringFunctions/arm_biquad_cascade_df1_q31.c **** 
 251:Source\FilteringFunctions/arm_biquad_cascade_df1_q31.c ****     while (sample > 0u)
 252:Source\FilteringFunctions/arm_biquad_cascade_df1_q31.c ****     {
 253:Source\FilteringFunctions/arm_biquad_cascade_df1_q31.c ****       /* Read the input */
 254:Source\FilteringFunctions/arm_biquad_cascade_df1_q31.c ****       Xn = *pIn++;
 255:Source\FilteringFunctions/arm_biquad_cascade_df1_q31.c **** 
 256:Source\FilteringFunctions/arm_biquad_cascade_df1_q31.c ****       /* acc =  b0 * x[n] + b1 * x[n-1] + b2 * x[n-2] + a1 * y[n-1] + a2 * y[n-2] */
 257:Source\FilteringFunctions/arm_biquad_cascade_df1_q31.c **** 
 258:Source\FilteringFunctions/arm_biquad_cascade_df1_q31.c ****       /* acc =  b0 * x[n] */
 259:Source\FilteringFunctions/arm_biquad_cascade_df1_q31.c ****       acc = (q63_t) b0 *Xn;
 260:Source\FilteringFunctions/arm_biquad_cascade_df1_q31.c ****       /* acc +=  b1 * x[n-1] */
ARM GAS  C:\Users\fneves\AppData\Local\Temp\ccMrqurY.s 			page 7


 261:Source\FilteringFunctions/arm_biquad_cascade_df1_q31.c ****       acc += (q63_t) b1 *Xn1;
 262:Source\FilteringFunctions/arm_biquad_cascade_df1_q31.c ****       /* acc +=  b[2] * x[n-2] */
 263:Source\FilteringFunctions/arm_biquad_cascade_df1_q31.c ****       acc += (q63_t) b2 *Xn2;
 264:Source\FilteringFunctions/arm_biquad_cascade_df1_q31.c ****       /* acc +=  a1 * y[n-1] */
 265:Source\FilteringFunctions/arm_biquad_cascade_df1_q31.c ****       acc += (q63_t) a1 *Yn1;
 266:Source\FilteringFunctions/arm_biquad_cascade_df1_q31.c ****       /* acc +=  a2 * y[n-2] */
 267:Source\FilteringFunctions/arm_biquad_cascade_df1_q31.c ****       acc += (q63_t) a2 *Yn2;
 268:Source\FilteringFunctions/arm_biquad_cascade_df1_q31.c **** 
 269:Source\FilteringFunctions/arm_biquad_cascade_df1_q31.c ****       /* The result is converted to 1.31  */
 270:Source\FilteringFunctions/arm_biquad_cascade_df1_q31.c ****       acc = acc >> lShift;
 271:Source\FilteringFunctions/arm_biquad_cascade_df1_q31.c **** 
 272:Source\FilteringFunctions/arm_biquad_cascade_df1_q31.c ****       /* Every time after the output is computed state should be updated. */
 273:Source\FilteringFunctions/arm_biquad_cascade_df1_q31.c ****       /* The states should be updated as:  */
 274:Source\FilteringFunctions/arm_biquad_cascade_df1_q31.c ****       /* Xn2 = Xn1    */
 275:Source\FilteringFunctions/arm_biquad_cascade_df1_q31.c ****       /* Xn1 = Xn     */
 276:Source\FilteringFunctions/arm_biquad_cascade_df1_q31.c ****       /* Yn2 = Yn1    */
 277:Source\FilteringFunctions/arm_biquad_cascade_df1_q31.c ****       /* Yn1 = acc    */
 278:Source\FilteringFunctions/arm_biquad_cascade_df1_q31.c ****       Xn2 = Xn1;
 279:Source\FilteringFunctions/arm_biquad_cascade_df1_q31.c ****       Xn1 = Xn;
 280:Source\FilteringFunctions/arm_biquad_cascade_df1_q31.c ****       Yn2 = Yn1;
 281:Source\FilteringFunctions/arm_biquad_cascade_df1_q31.c ****       Yn1 = (q31_t) acc;
 282:Source\FilteringFunctions/arm_biquad_cascade_df1_q31.c **** 
 283:Source\FilteringFunctions/arm_biquad_cascade_df1_q31.c ****       /* Store the output in the destination buffer. */
 284:Source\FilteringFunctions/arm_biquad_cascade_df1_q31.c ****       *pOut++ = (q31_t) acc;
 285:Source\FilteringFunctions/arm_biquad_cascade_df1_q31.c **** 
 286:Source\FilteringFunctions/arm_biquad_cascade_df1_q31.c ****       /* decrement the loop counter */
 287:Source\FilteringFunctions/arm_biquad_cascade_df1_q31.c ****       sample--;
 288:Source\FilteringFunctions/arm_biquad_cascade_df1_q31.c ****     }
 289:Source\FilteringFunctions/arm_biquad_cascade_df1_q31.c **** 
 290:Source\FilteringFunctions/arm_biquad_cascade_df1_q31.c ****     /*  The first stage goes from the input buffer to the output buffer. */
 291:Source\FilteringFunctions/arm_biquad_cascade_df1_q31.c ****     /*  Subsequent stages occur in-place in the output buffer */
 292:Source\FilteringFunctions/arm_biquad_cascade_df1_q31.c ****     pIn = pDst;
 293:Source\FilteringFunctions/arm_biquad_cascade_df1_q31.c **** 
 294:Source\FilteringFunctions/arm_biquad_cascade_df1_q31.c ****     /* Reset to destination pointer */
 295:Source\FilteringFunctions/arm_biquad_cascade_df1_q31.c ****     pOut = pDst;
 296:Source\FilteringFunctions/arm_biquad_cascade_df1_q31.c **** 
 297:Source\FilteringFunctions/arm_biquad_cascade_df1_q31.c ****     /*  Store the updated state variables back into the pState array */
 298:Source\FilteringFunctions/arm_biquad_cascade_df1_q31.c ****     *pState++ = Xn1;
 299:Source\FilteringFunctions/arm_biquad_cascade_df1_q31.c ****     *pState++ = Xn2;
 300:Source\FilteringFunctions/arm_biquad_cascade_df1_q31.c ****     *pState++ = Yn1;
 301:Source\FilteringFunctions/arm_biquad_cascade_df1_q31.c ****     *pState++ = Yn2;
 302:Source\FilteringFunctions/arm_biquad_cascade_df1_q31.c **** 
 303:Source\FilteringFunctions/arm_biquad_cascade_df1_q31.c ****   } while (--stage);
 304:Source\FilteringFunctions/arm_biquad_cascade_df1_q31.c **** 
 305:Source\FilteringFunctions/arm_biquad_cascade_df1_q31.c **** #else
 306:Source\FilteringFunctions/arm_biquad_cascade_df1_q31.c **** 
 307:Source\FilteringFunctions/arm_biquad_cascade_df1_q31.c ****   /* Run the below code for Cortex-M0 */
 308:Source\FilteringFunctions/arm_biquad_cascade_df1_q31.c **** 
 309:Source\FilteringFunctions/arm_biquad_cascade_df1_q31.c ****   do
 310:Source\FilteringFunctions/arm_biquad_cascade_df1_q31.c ****   {
 311:Source\FilteringFunctions/arm_biquad_cascade_df1_q31.c ****     /* Reading the coefficients */
 312:Source\FilteringFunctions/arm_biquad_cascade_df1_q31.c ****     b0 = *pCoeffs++;
  83              		.loc 1 312 0
  84 004c 9823     		mov	r3, #152
  85 004e FB18     		add	r3, r7, r3
  86 0050 1A68     		ldr	r2, [r3]
  87 0052 131D     		add	r3, r2, #4
ARM GAS  C:\Users\fneves\AppData\Local\Temp\ccMrqurY.s 			page 8


  88 0054 9821     		mov	r1, #152
  89 0056 7918     		add	r1, r7, r1
  90 0058 0B60     		str	r3, [r1]
  91 005a 1368     		ldr	r3, [r2]
  92 005c 7B67     		str	r3, [r7, #116]
 313:Source\FilteringFunctions/arm_biquad_cascade_df1_q31.c ****     b1 = *pCoeffs++;
  93              		.loc 1 313 0
  94 005e 9823     		mov	r3, #152
  95 0060 FB18     		add	r3, r7, r3
  96 0062 1A68     		ldr	r2, [r3]
  97 0064 131D     		add	r3, r2, #4
  98 0066 9821     		mov	r1, #152
  99 0068 7918     		add	r1, r7, r1
 100 006a 0B60     		str	r3, [r1]
 101 006c 1368     		ldr	r3, [r2]
 102 006e 3B67     		str	r3, [r7, #112]
 314:Source\FilteringFunctions/arm_biquad_cascade_df1_q31.c ****     b2 = *pCoeffs++;
 103              		.loc 1 314 0
 104 0070 9823     		mov	r3, #152
 105 0072 FB18     		add	r3, r7, r3
 106 0074 1A68     		ldr	r2, [r3]
 107 0076 131D     		add	r3, r2, #4
 108 0078 9821     		mov	r1, #152
 109 007a 7918     		add	r1, r7, r1
 110 007c 0B60     		str	r3, [r1]
 111 007e 1368     		ldr	r3, [r2]
 112 0080 FB66     		str	r3, [r7, #108]
 315:Source\FilteringFunctions/arm_biquad_cascade_df1_q31.c ****     a1 = *pCoeffs++;
 113              		.loc 1 315 0
 114 0082 9823     		mov	r3, #152
 115 0084 FB18     		add	r3, r7, r3
 116 0086 1A68     		ldr	r2, [r3]
 117 0088 131D     		add	r3, r2, #4
 118 008a 9821     		mov	r1, #152
 119 008c 7918     		add	r1, r7, r1
 120 008e 0B60     		str	r3, [r1]
 121 0090 1368     		ldr	r3, [r2]
 122 0092 BB66     		str	r3, [r7, #104]
 316:Source\FilteringFunctions/arm_biquad_cascade_df1_q31.c ****     a2 = *pCoeffs++;
 123              		.loc 1 316 0
 124 0094 9823     		mov	r3, #152
 125 0096 FB18     		add	r3, r7, r3
 126 0098 1A68     		ldr	r2, [r3]
 127 009a 131D     		add	r3, r2, #4
 128 009c 9821     		mov	r1, #152
 129 009e 7918     		add	r1, r7, r1
 130 00a0 0B60     		str	r3, [r1]
 131 00a2 1368     		ldr	r3, [r2]
 132 00a4 7B66     		str	r3, [r7, #100]
 317:Source\FilteringFunctions/arm_biquad_cascade_df1_q31.c **** 
 318:Source\FilteringFunctions/arm_biquad_cascade_df1_q31.c ****     /* Reading the state values */
 319:Source\FilteringFunctions/arm_biquad_cascade_df1_q31.c ****     Xn1 = pState[0];
 133              		.loc 1 319 0
 134 00a6 9C23     		mov	r3, #156
 135 00a8 FB18     		add	r3, r7, r3
 136 00aa 1B68     		ldr	r3, [r3]
 137 00ac 1B68     		ldr	r3, [r3]
ARM GAS  C:\Users\fneves\AppData\Local\Temp\ccMrqurY.s 			page 9


 138 00ae 9422     		mov	r2, #148
 139 00b0 BA18     		add	r2, r7, r2
 140 00b2 1360     		str	r3, [r2]
 320:Source\FilteringFunctions/arm_biquad_cascade_df1_q31.c ****     Xn2 = pState[1];
 141              		.loc 1 320 0
 142 00b4 9C23     		mov	r3, #156
 143 00b6 FB18     		add	r3, r7, r3
 144 00b8 1B68     		ldr	r3, [r3]
 145 00ba 5B68     		ldr	r3, [r3, #4]
 146 00bc 9022     		mov	r2, #144
 147 00be BA18     		add	r2, r7, r2
 148 00c0 1360     		str	r3, [r2]
 321:Source\FilteringFunctions/arm_biquad_cascade_df1_q31.c ****     Yn1 = pState[2];
 149              		.loc 1 321 0
 150 00c2 9C23     		mov	r3, #156
 151 00c4 FB18     		add	r3, r7, r3
 152 00c6 1B68     		ldr	r3, [r3]
 153 00c8 9B68     		ldr	r3, [r3, #8]
 154 00ca 8C22     		mov	r2, #140
 155 00cc BA18     		add	r2, r7, r2
 156 00ce 1360     		str	r3, [r2]
 322:Source\FilteringFunctions/arm_biquad_cascade_df1_q31.c ****     Yn2 = pState[3];
 157              		.loc 1 322 0
 158 00d0 9C23     		mov	r3, #156
 159 00d2 FB18     		add	r3, r7, r3
 160 00d4 1B68     		ldr	r3, [r3]
 161 00d6 DB68     		ldr	r3, [r3, #12]
 162 00d8 8822     		mov	r2, #136
 163 00da BA18     		add	r2, r7, r2
 164 00dc 1360     		str	r3, [r2]
 323:Source\FilteringFunctions/arm_biquad_cascade_df1_q31.c **** 
 324:Source\FilteringFunctions/arm_biquad_cascade_df1_q31.c ****     /*      The variables acc holds the output value that is computed:
 325:Source\FilteringFunctions/arm_biquad_cascade_df1_q31.c ****      *    acc =  b0 * x[n] + b1 * x[n-1] + b2 * x[n-2] + a1 * y[n-1] + a2 * y[n-2]
 326:Source\FilteringFunctions/arm_biquad_cascade_df1_q31.c ****      */
 327:Source\FilteringFunctions/arm_biquad_cascade_df1_q31.c **** 
 328:Source\FilteringFunctions/arm_biquad_cascade_df1_q31.c ****     sample = blockSize;
 165              		.loc 1 328 0
 166 00de BB6C     		ldr	r3, [r7, #72]
 167 00e0 8422     		mov	r2, #132
 168 00e2 BA18     		add	r2, r7, r2
 169 00e4 1360     		str	r3, [r2]
 329:Source\FilteringFunctions/arm_biquad_cascade_df1_q31.c **** 
 330:Source\FilteringFunctions/arm_biquad_cascade_df1_q31.c ****     while (sample > 0u)
 170              		.loc 1 330 0
 171 00e6 BBE0     		b	.L2
 172              	.L5:
 331:Source\FilteringFunctions/arm_biquad_cascade_df1_q31.c ****     {
 332:Source\FilteringFunctions/arm_biquad_cascade_df1_q31.c ****       /* Read the input */
 333:Source\FilteringFunctions/arm_biquad_cascade_df1_q31.c ****       Xn = *pIn++;
 173              		.loc 1 333 0
 174 00e8 A423     		mov	r3, #164
 175 00ea FB18     		add	r3, r7, r3
 176 00ec 1A68     		ldr	r2, [r3]
 177 00ee 131D     		add	r3, r2, #4
 178 00f0 A421     		mov	r1, #164
 179 00f2 7918     		add	r1, r7, r1
 180 00f4 0B60     		str	r3, [r1]
ARM GAS  C:\Users\fneves\AppData\Local\Temp\ccMrqurY.s 			page 10


 181 00f6 1368     		ldr	r3, [r2]
 182 00f8 3B66     		str	r3, [r7, #96]
 334:Source\FilteringFunctions/arm_biquad_cascade_df1_q31.c **** 
 335:Source\FilteringFunctions/arm_biquad_cascade_df1_q31.c ****       /* acc =  b0 * x[n] + b1 * x[n-1] + b2 * x[n-2] + a1 * y[n-1] + a2 * y[n-2] */
 336:Source\FilteringFunctions/arm_biquad_cascade_df1_q31.c ****       /* acc =  b0 * x[n] */
 337:Source\FilteringFunctions/arm_biquad_cascade_df1_q31.c ****       acc = (q63_t) b0 *Xn;
 183              		.loc 1 337 0
 184 00fa 7B6F     		ldr	r3, [r7, #116]
 185 00fc 3B64     		str	r3, [r7, #64]
 186 00fe DB17     		asr	r3, r3, #31
 187 0100 7B64     		str	r3, [r7, #68]
 188 0102 3B6E     		ldr	r3, [r7, #96]
 189 0104 BB63     		str	r3, [r7, #56]
 190 0106 DB17     		asr	r3, r3, #31
 191 0108 FB63     		str	r3, [r7, #60]
 192 010a 386C     		ldr	r0, [r7, #64]
 193 010c 796C     		ldr	r1, [r7, #68]
 194 010e BA6B     		ldr	r2, [r7, #56]
 195 0110 FB6B     		ldr	r3, [r7, #60]
 196 0112 FFF7FEFF 		bl	__aeabi_lmul
 197 0116 031C     		mov	r3, r0
 198 0118 0C1C     		mov	r4, r1
 199 011a BB65     		str	r3, [r7, #88]
 200 011c FC65     		str	r4, [r7, #92]
 338:Source\FilteringFunctions/arm_biquad_cascade_df1_q31.c **** 
 339:Source\FilteringFunctions/arm_biquad_cascade_df1_q31.c ****       /* acc +=  b1 * x[n-1] */
 340:Source\FilteringFunctions/arm_biquad_cascade_df1_q31.c ****       acc += (q63_t) b1 *Xn1;
 201              		.loc 1 340 0
 202 011e 3B6F     		ldr	r3, [r7, #112]
 203 0120 3B63     		str	r3, [r7, #48]
 204 0122 DB17     		asr	r3, r3, #31
 205 0124 7B63     		str	r3, [r7, #52]
 206 0126 9423     		mov	r3, #148
 207 0128 FB18     		add	r3, r7, r3
 208 012a 1B68     		ldr	r3, [r3]
 209 012c BB62     		str	r3, [r7, #40]
 210 012e DB17     		asr	r3, r3, #31
 211 0130 FB62     		str	r3, [r7, #44]
 212 0132 386B     		ldr	r0, [r7, #48]
 213 0134 796B     		ldr	r1, [r7, #52]
 214 0136 BA6A     		ldr	r2, [r7, #40]
 215 0138 FB6A     		ldr	r3, [r7, #44]
 216 013a FFF7FEFF 		bl	__aeabi_lmul
 217 013e 031C     		mov	r3, r0
 218 0140 0C1C     		mov	r4, r1
 219 0142 191C     		mov	r1, r3
 220 0144 221C     		mov	r2, r4
 221 0146 BB6D     		ldr	r3, [r7, #88]
 222 0148 FC6D     		ldr	r4, [r7, #92]
 223 014a 5B18     		add	r3, r3, r1
 224 014c 5441     		adc	r4, r4, r2
 225 014e BB65     		str	r3, [r7, #88]
 226 0150 FC65     		str	r4, [r7, #92]
 341:Source\FilteringFunctions/arm_biquad_cascade_df1_q31.c ****       /* acc +=  b[2] * x[n-2] */
 342:Source\FilteringFunctions/arm_biquad_cascade_df1_q31.c ****       acc += (q63_t) b2 *Xn2;
 227              		.loc 1 342 0
 228 0152 FB6E     		ldr	r3, [r7, #108]
ARM GAS  C:\Users\fneves\AppData\Local\Temp\ccMrqurY.s 			page 11


 229 0154 3B62     		str	r3, [r7, #32]
 230 0156 DB17     		asr	r3, r3, #31
 231 0158 7B62     		str	r3, [r7, #36]
 232 015a 9023     		mov	r3, #144
 233 015c FB18     		add	r3, r7, r3
 234 015e 1B68     		ldr	r3, [r3]
 235 0160 BB61     		str	r3, [r7, #24]
 236 0162 DB17     		asr	r3, r3, #31
 237 0164 FB61     		str	r3, [r7, #28]
 238 0166 386A     		ldr	r0, [r7, #32]
 239 0168 796A     		ldr	r1, [r7, #36]
 240 016a BA69     		ldr	r2, [r7, #24]
 241 016c FB69     		ldr	r3, [r7, #28]
 242 016e FFF7FEFF 		bl	__aeabi_lmul
 243 0172 031C     		mov	r3, r0
 244 0174 0C1C     		mov	r4, r1
 245 0176 191C     		mov	r1, r3
 246 0178 221C     		mov	r2, r4
 247 017a BB6D     		ldr	r3, [r7, #88]
 248 017c FC6D     		ldr	r4, [r7, #92]
 249 017e 5B18     		add	r3, r3, r1
 250 0180 5441     		adc	r4, r4, r2
 251 0182 BB65     		str	r3, [r7, #88]
 252 0184 FC65     		str	r4, [r7, #92]
 343:Source\FilteringFunctions/arm_biquad_cascade_df1_q31.c ****       /* acc +=  a1 * y[n-1] */
 344:Source\FilteringFunctions/arm_biquad_cascade_df1_q31.c ****       acc += (q63_t) a1 *Yn1;
 253              		.loc 1 344 0
 254 0186 BB6E     		ldr	r3, [r7, #104]
 255 0188 3B61     		str	r3, [r7, #16]
 256 018a DB17     		asr	r3, r3, #31
 257 018c 7B61     		str	r3, [r7, #20]
 258 018e 8C23     		mov	r3, #140
 259 0190 FB18     		add	r3, r7, r3
 260 0192 1B68     		ldr	r3, [r3]
 261 0194 BB60     		str	r3, [r7, #8]
 262 0196 DB17     		asr	r3, r3, #31
 263 0198 FB60     		str	r3, [r7, #12]
 264 019a 3869     		ldr	r0, [r7, #16]
 265 019c 7969     		ldr	r1, [r7, #20]
 266 019e BA68     		ldr	r2, [r7, #8]
 267 01a0 FB68     		ldr	r3, [r7, #12]
 268 01a2 FFF7FEFF 		bl	__aeabi_lmul
 269 01a6 031C     		mov	r3, r0
 270 01a8 0C1C     		mov	r4, r1
 271 01aa 191C     		mov	r1, r3
 272 01ac 221C     		mov	r2, r4
 273 01ae BB6D     		ldr	r3, [r7, #88]
 274 01b0 FC6D     		ldr	r4, [r7, #92]
 275 01b2 5B18     		add	r3, r3, r1
 276 01b4 5441     		adc	r4, r4, r2
 277 01b6 BB65     		str	r3, [r7, #88]
 278 01b8 FC65     		str	r4, [r7, #92]
 345:Source\FilteringFunctions/arm_biquad_cascade_df1_q31.c ****       /* acc +=  a2 * y[n-2] */
 346:Source\FilteringFunctions/arm_biquad_cascade_df1_q31.c ****       acc += (q63_t) a2 *Yn2;
 279              		.loc 1 346 0
 280 01ba 7B6E     		ldr	r3, [r7, #100]
 281 01bc 3B60     		str	r3, [r7]
ARM GAS  C:\Users\fneves\AppData\Local\Temp\ccMrqurY.s 			page 12


 282 01be DB17     		asr	r3, r3, #31
 283 01c0 7B60     		str	r3, [r7, #4]
 284 01c2 8823     		mov	r3, #136
 285 01c4 FB18     		add	r3, r7, r3
 286 01c6 1B68     		ldr	r3, [r3]
 287 01c8 1D1C     		mov	r5, r3
 288 01ca DB17     		asr	r3, r3, #31
 289 01cc 1E1C     		mov	r6, r3
 290 01ce 3868     		ldr	r0, [r7]
 291 01d0 7968     		ldr	r1, [r7, #4]
 292 01d2 2A1C     		mov	r2, r5
 293 01d4 331C     		mov	r3, r6
 294 01d6 FFF7FEFF 		bl	__aeabi_lmul
 295 01da 031C     		mov	r3, r0
 296 01dc 0C1C     		mov	r4, r1
 297 01de 191C     		mov	r1, r3
 298 01e0 221C     		mov	r2, r4
 299 01e2 BB6D     		ldr	r3, [r7, #88]
 300 01e4 FC6D     		ldr	r4, [r7, #92]
 301 01e6 5B18     		add	r3, r3, r1
 302 01e8 5441     		adc	r4, r4, r2
 303 01ea BB65     		str	r3, [r7, #88]
 304 01ec FC65     		str	r4, [r7, #92]
 347:Source\FilteringFunctions/arm_biquad_cascade_df1_q31.c **** 
 348:Source\FilteringFunctions/arm_biquad_cascade_df1_q31.c ****       /* The result is converted to 1.31  */
 349:Source\FilteringFunctions/arm_biquad_cascade_df1_q31.c ****       acc = acc >> lShift;
 305              		.loc 1 349 0
 306 01ee B96F     		ldr	r1, [r7, #120]
 307 01f0 0A1C     		mov	r2, r1
 308 01f2 203A     		sub	r2, r2, #32
 309 01f4 002A     		cmp	r2, #0
 310 01f6 03DB     		blt	.L3
 311 01f8 FB6D     		ldr	r3, [r7, #92]
 312 01fa 1341     		asr	r3, r3, r2
 313 01fc BB65     		str	r3, [r7, #88]
 314 01fe 08E0     		b	.L4
 315              	.L3:
 316 0200 2023     		mov	r3, #32
 317 0202 5A1A     		sub	r2, r3, r1
 318 0204 FB6D     		ldr	r3, [r7, #92]
 319 0206 9340     		lsl	r3, r3, r2
 320 0208 1A1C     		mov	r2, r3
 321 020a BB6D     		ldr	r3, [r7, #88]
 322 020c CB40     		lsr	r3, r3, r1
 323 020e 1343     		orr	r3, r2
 324 0210 BB65     		str	r3, [r7, #88]
 325              	.L4:
 326 0212 FB6D     		ldr	r3, [r7, #92]
 327 0214 0B41     		asr	r3, r3, r1
 328 0216 FB65     		str	r3, [r7, #92]
 350:Source\FilteringFunctions/arm_biquad_cascade_df1_q31.c **** 
 351:Source\FilteringFunctions/arm_biquad_cascade_df1_q31.c ****       /* Every time after the output is computed state should be updated. */
 352:Source\FilteringFunctions/arm_biquad_cascade_df1_q31.c ****       /* The states should be updated as:  */
 353:Source\FilteringFunctions/arm_biquad_cascade_df1_q31.c ****       /* Xn2 = Xn1    */
 354:Source\FilteringFunctions/arm_biquad_cascade_df1_q31.c ****       /* Xn1 = Xn     */
 355:Source\FilteringFunctions/arm_biquad_cascade_df1_q31.c ****       /* Yn2 = Yn1    */
 356:Source\FilteringFunctions/arm_biquad_cascade_df1_q31.c ****       /* Yn1 = acc    */
ARM GAS  C:\Users\fneves\AppData\Local\Temp\ccMrqurY.s 			page 13


 357:Source\FilteringFunctions/arm_biquad_cascade_df1_q31.c ****       Xn2 = Xn1;
 329              		.loc 1 357 0
 330 0218 9423     		mov	r3, #148
 331 021a FB18     		add	r3, r7, r3
 332 021c 1B68     		ldr	r3, [r3]
 333 021e 9022     		mov	r2, #144
 334 0220 BA18     		add	r2, r7, r2
 335 0222 1360     		str	r3, [r2]
 358:Source\FilteringFunctions/arm_biquad_cascade_df1_q31.c ****       Xn1 = Xn;
 336              		.loc 1 358 0
 337 0224 3B6E     		ldr	r3, [r7, #96]
 338 0226 9422     		mov	r2, #148
 339 0228 BA18     		add	r2, r7, r2
 340 022a 1360     		str	r3, [r2]
 359:Source\FilteringFunctions/arm_biquad_cascade_df1_q31.c ****       Yn2 = Yn1;
 341              		.loc 1 359 0
 342 022c 8C23     		mov	r3, #140
 343 022e FB18     		add	r3, r7, r3
 344 0230 1B68     		ldr	r3, [r3]
 345 0232 8822     		mov	r2, #136
 346 0234 BA18     		add	r2, r7, r2
 347 0236 1360     		str	r3, [r2]
 360:Source\FilteringFunctions/arm_biquad_cascade_df1_q31.c ****       Yn1 = (q31_t) acc;
 348              		.loc 1 360 0
 349 0238 BB6D     		ldr	r3, [r7, #88]
 350 023a 8C22     		mov	r2, #140
 351 023c BA18     		add	r2, r7, r2
 352 023e 1360     		str	r3, [r2]
 361:Source\FilteringFunctions/arm_biquad_cascade_df1_q31.c **** 
 362:Source\FilteringFunctions/arm_biquad_cascade_df1_q31.c ****       /* Store the output in the destination buffer. */
 363:Source\FilteringFunctions/arm_biquad_cascade_df1_q31.c ****       *pOut++ = (q31_t) acc;
 353              		.loc 1 363 0
 354 0240 A023     		mov	r3, #160
 355 0242 FB18     		add	r3, r7, r3
 356 0244 1A68     		ldr	r2, [r3]
 357 0246 131D     		add	r3, r2, #4
 358 0248 A021     		mov	r1, #160
 359 024a 7918     		add	r1, r7, r1
 360 024c 0B60     		str	r3, [r1]
 361 024e BB6D     		ldr	r3, [r7, #88]
 362 0250 1360     		str	r3, [r2]
 364:Source\FilteringFunctions/arm_biquad_cascade_df1_q31.c **** 
 365:Source\FilteringFunctions/arm_biquad_cascade_df1_q31.c ****       /* decrement the loop counter */
 366:Source\FilteringFunctions/arm_biquad_cascade_df1_q31.c ****       sample--;
 363              		.loc 1 366 0
 364 0252 8423     		mov	r3, #132
 365 0254 FB18     		add	r3, r7, r3
 366 0256 1B68     		ldr	r3, [r3]
 367 0258 013B     		sub	r3, r3, #1
 368 025a 8422     		mov	r2, #132
 369 025c BA18     		add	r2, r7, r2
 370 025e 1360     		str	r3, [r2]
 371              	.L2:
 330:Source\FilteringFunctions/arm_biquad_cascade_df1_q31.c ****     {
 372              		.loc 1 330 0
 373 0260 8423     		mov	r3, #132
 374 0262 FB18     		add	r3, r7, r3
ARM GAS  C:\Users\fneves\AppData\Local\Temp\ccMrqurY.s 			page 14


 375 0264 1B68     		ldr	r3, [r3]
 376 0266 002B     		cmp	r3, #0
 377 0268 00D0     		beq	.LCB305
 378 026a 3DE7     		b	.L5	@long jump
 379              	.LCB305:
 367:Source\FilteringFunctions/arm_biquad_cascade_df1_q31.c ****     }
 368:Source\FilteringFunctions/arm_biquad_cascade_df1_q31.c **** 
 369:Source\FilteringFunctions/arm_biquad_cascade_df1_q31.c ****     /*  The first stage goes from the input buffer to the output buffer. */
 370:Source\FilteringFunctions/arm_biquad_cascade_df1_q31.c ****     /*  Subsequent stages occur in-place in the output buffer */
 371:Source\FilteringFunctions/arm_biquad_cascade_df1_q31.c ****     pIn = pDst;
 380              		.loc 1 371 0
 381 026c FB6C     		ldr	r3, [r7, #76]
 382 026e A422     		mov	r2, #164
 383 0270 BA18     		add	r2, r7, r2
 384 0272 1360     		str	r3, [r2]
 372:Source\FilteringFunctions/arm_biquad_cascade_df1_q31.c **** 
 373:Source\FilteringFunctions/arm_biquad_cascade_df1_q31.c ****     /* Reset to destination pointer */
 374:Source\FilteringFunctions/arm_biquad_cascade_df1_q31.c ****     pOut = pDst;
 385              		.loc 1 374 0
 386 0274 FB6C     		ldr	r3, [r7, #76]
 387 0276 A022     		mov	r2, #160
 388 0278 BA18     		add	r2, r7, r2
 389 027a 1360     		str	r3, [r2]
 375:Source\FilteringFunctions/arm_biquad_cascade_df1_q31.c **** 
 376:Source\FilteringFunctions/arm_biquad_cascade_df1_q31.c ****     /*  Store the updated state variables back into the pState array */
 377:Source\FilteringFunctions/arm_biquad_cascade_df1_q31.c ****     *pState++ = Xn1;
 390              		.loc 1 377 0
 391 027c 9C23     		mov	r3, #156
 392 027e FB18     		add	r3, r7, r3
 393 0280 1A68     		ldr	r2, [r3]
 394 0282 131D     		add	r3, r2, #4
 395 0284 9C21     		mov	r1, #156
 396 0286 7918     		add	r1, r7, r1
 397 0288 0B60     		str	r3, [r1]
 398 028a 9423     		mov	r3, #148
 399 028c FB18     		add	r3, r7, r3
 400 028e 1B68     		ldr	r3, [r3]
 401 0290 1360     		str	r3, [r2]
 378:Source\FilteringFunctions/arm_biquad_cascade_df1_q31.c ****     *pState++ = Xn2;
 402              		.loc 1 378 0
 403 0292 9C23     		mov	r3, #156
 404 0294 FB18     		add	r3, r7, r3
 405 0296 1A68     		ldr	r2, [r3]
 406 0298 131D     		add	r3, r2, #4
 407 029a 9C21     		mov	r1, #156
 408 029c 7918     		add	r1, r7, r1
 409 029e 0B60     		str	r3, [r1]
 410 02a0 9023     		mov	r3, #144
 411 02a2 FB18     		add	r3, r7, r3
 412 02a4 1B68     		ldr	r3, [r3]
 413 02a6 1360     		str	r3, [r2]
 379:Source\FilteringFunctions/arm_biquad_cascade_df1_q31.c ****     *pState++ = Yn1;
 414              		.loc 1 379 0
 415 02a8 9C23     		mov	r3, #156
 416 02aa FB18     		add	r3, r7, r3
 417 02ac 1A68     		ldr	r2, [r3]
 418 02ae 131D     		add	r3, r2, #4
ARM GAS  C:\Users\fneves\AppData\Local\Temp\ccMrqurY.s 			page 15


 419 02b0 9C21     		mov	r1, #156
 420 02b2 7918     		add	r1, r7, r1
 421 02b4 0B60     		str	r3, [r1]
 422 02b6 8C23     		mov	r3, #140
 423 02b8 FB18     		add	r3, r7, r3
 424 02ba 1B68     		ldr	r3, [r3]
 425 02bc 1360     		str	r3, [r2]
 380:Source\FilteringFunctions/arm_biquad_cascade_df1_q31.c ****     *pState++ = Yn2;
 426              		.loc 1 380 0
 427 02be 9C23     		mov	r3, #156
 428 02c0 FB18     		add	r3, r7, r3
 429 02c2 1A68     		ldr	r2, [r3]
 430 02c4 131D     		add	r3, r2, #4
 431 02c6 9C21     		mov	r1, #156
 432 02c8 7918     		add	r1, r7, r1
 433 02ca 0B60     		str	r3, [r1]
 434 02cc 8823     		mov	r3, #136
 435 02ce FB18     		add	r3, r7, r3
 436 02d0 1B68     		ldr	r3, [r3]
 437 02d2 1360     		str	r3, [r2]
 381:Source\FilteringFunctions/arm_biquad_cascade_df1_q31.c **** 
 382:Source\FilteringFunctions/arm_biquad_cascade_df1_q31.c ****   } while (--stage);
 438              		.loc 1 382 0
 439 02d4 8023     		mov	r3, #128
 440 02d6 FB18     		add	r3, r7, r3
 441 02d8 1B68     		ldr	r3, [r3]
 442 02da 013B     		sub	r3, r3, #1
 443 02dc 8022     		mov	r2, #128
 444 02de BA18     		add	r2, r7, r2
 445 02e0 1360     		str	r3, [r2]
 446 02e2 8023     		mov	r3, #128
 447 02e4 FB18     		add	r3, r7, r3
 448 02e6 1B68     		ldr	r3, [r3]
 449 02e8 002B     		cmp	r3, #0
 450 02ea 00D0     		beq	.LCB369
 451 02ec AEE6     		b	.L6	@long jump
 452              	.LCB369:
 383:Source\FilteringFunctions/arm_biquad_cascade_df1_q31.c **** 
 384:Source\FilteringFunctions/arm_biquad_cascade_df1_q31.c **** #endif /*  #if defined (ARM_MATH_DSP) */
 385:Source\FilteringFunctions/arm_biquad_cascade_df1_q31.c **** }
 453              		.loc 1 385 0
 454 02ee BD46     		mov	sp, r7
 455 02f0 2BB0     		add	sp, sp, #172
 456              		@ sp needed
 457 02f2 F0BD     		pop	{r4, r5, r6, r7, pc}
 458              		.cfi_endproc
 459              	.LFE82:
 460              		.size	arm_biquad_cascade_df1_q31, .-arm_biquad_cascade_df1_q31
 461              		.text
 462              	.Letext0:
 463              		.file 2 "c:\\program files (x86)\\cypress\\psoc creator\\4.0\\psoc creator\\import\\gnu\\arm\\4.9.
 464              		.file 3 "c:\\program files (x86)\\cypress\\psoc creator\\4.0\\psoc creator\\import\\gnu\\arm\\4.9.
 465              		.file 4 ".\\Include/arm_math.h"