ARM GAS  C:\Users\fneves\AppData\Local\Temp\ccUiFCKc.s 			page 1


   1              		.cpu cortex-m0plus
   2              		.fpu softvfp
   3              		.eabi_attribute 20, 1
   4              		.eabi_attribute 21, 1
   5              		.eabi_attribute 23, 3
   6              		.eabi_attribute 24, 1
   7              		.eabi_attribute 25, 1
   8              		.eabi_attribute 26, 1
   9              		.eabi_attribute 30, 6
  10              		.eabi_attribute 34, 0
  11              		.eabi_attribute 18, 4
  12              		.code	16
  13              		.file	"arm_cfft_q31.c"
  14              		.text
  15              	.Ltext0:
  16              		.cfi_sections	.debug_frame
  17              		.section	.text.arm_cfft_q31,"ax",%progbits
  18              		.align	2
  19              		.global	arm_cfft_q31
  20              		.code	16
  21              		.thumb_func
  22              		.type	arm_cfft_q31, %function
  23              	arm_cfft_q31:
  24              	.LFB82:
  25              		.file 1 "Source\\TransformFunctions\\arm_cfft_q31.c"
   1:Source\TransformFunctions/arm_cfft_q31.c **** /* ----------------------------------------------------------------------
   2:Source\TransformFunctions/arm_cfft_q31.c ****  * Project:      CMSIS DSP Library
   3:Source\TransformFunctions/arm_cfft_q31.c ****  * Title:        arm_cfft_q31.c
   4:Source\TransformFunctions/arm_cfft_q31.c ****  * Description:  Combined Radix Decimation in Frequency CFFT fixed point processing function
   5:Source\TransformFunctions/arm_cfft_q31.c ****  *
   6:Source\TransformFunctions/arm_cfft_q31.c ****  * $Date:        27. January 2017
   7:Source\TransformFunctions/arm_cfft_q31.c ****  * $Revision:    V.1.5.1
   8:Source\TransformFunctions/arm_cfft_q31.c ****  *
   9:Source\TransformFunctions/arm_cfft_q31.c ****  * Target Processor: Cortex-M cores
  10:Source\TransformFunctions/arm_cfft_q31.c ****  * -------------------------------------------------------------------- */
  11:Source\TransformFunctions/arm_cfft_q31.c **** /*
  12:Source\TransformFunctions/arm_cfft_q31.c ****  * Copyright (C) 2010-2017 ARM Limited or its affiliates. All rights reserved.
  13:Source\TransformFunctions/arm_cfft_q31.c ****  *
  14:Source\TransformFunctions/arm_cfft_q31.c ****  * SPDX-License-Identifier: Apache-2.0
  15:Source\TransformFunctions/arm_cfft_q31.c ****  *
  16:Source\TransformFunctions/arm_cfft_q31.c ****  * Licensed under the Apache License, Version 2.0 (the License); you may
  17:Source\TransformFunctions/arm_cfft_q31.c ****  * not use this file except in compliance with the License.
  18:Source\TransformFunctions/arm_cfft_q31.c ****  * You may obtain a copy of the License at
  19:Source\TransformFunctions/arm_cfft_q31.c ****  *
  20:Source\TransformFunctions/arm_cfft_q31.c ****  * www.apache.org/licenses/LICENSE-2.0
  21:Source\TransformFunctions/arm_cfft_q31.c ****  *
  22:Source\TransformFunctions/arm_cfft_q31.c ****  * Unless required by applicable law or agreed to in writing, software
  23:Source\TransformFunctions/arm_cfft_q31.c ****  * distributed under the License is distributed on an AS IS BASIS, WITHOUT
  24:Source\TransformFunctions/arm_cfft_q31.c ****  * WARRANTIES OR CONDITIONS OF ANY KIND, either express or implied.
  25:Source\TransformFunctions/arm_cfft_q31.c ****  * See the License for the specific language governing permissions and
  26:Source\TransformFunctions/arm_cfft_q31.c ****  * limitations under the License.
  27:Source\TransformFunctions/arm_cfft_q31.c ****  */
  28:Source\TransformFunctions/arm_cfft_q31.c **** 
  29:Source\TransformFunctions/arm_cfft_q31.c **** #include "arm_math.h"
  30:Source\TransformFunctions/arm_cfft_q31.c **** 
  31:Source\TransformFunctions/arm_cfft_q31.c **** extern void arm_radix4_butterfly_q31(
  32:Source\TransformFunctions/arm_cfft_q31.c ****     q31_t * pSrc,
ARM GAS  C:\Users\fneves\AppData\Local\Temp\ccUiFCKc.s 			page 2


  33:Source\TransformFunctions/arm_cfft_q31.c ****     uint32_t fftLen,
  34:Source\TransformFunctions/arm_cfft_q31.c ****     q31_t * pCoef,
  35:Source\TransformFunctions/arm_cfft_q31.c ****     uint32_t twidCoefModifier);
  36:Source\TransformFunctions/arm_cfft_q31.c **** 
  37:Source\TransformFunctions/arm_cfft_q31.c **** extern void arm_radix4_butterfly_inverse_q31(
  38:Source\TransformFunctions/arm_cfft_q31.c ****     q31_t * pSrc,
  39:Source\TransformFunctions/arm_cfft_q31.c ****     uint32_t fftLen,
  40:Source\TransformFunctions/arm_cfft_q31.c ****     q31_t * pCoef,
  41:Source\TransformFunctions/arm_cfft_q31.c ****     uint32_t twidCoefModifier);
  42:Source\TransformFunctions/arm_cfft_q31.c **** 
  43:Source\TransformFunctions/arm_cfft_q31.c **** extern void arm_bitreversal_32(
  44:Source\TransformFunctions/arm_cfft_q31.c ****     uint32_t * pSrc,
  45:Source\TransformFunctions/arm_cfft_q31.c ****     const uint16_t bitRevLen,
  46:Source\TransformFunctions/arm_cfft_q31.c ****     const uint16_t * pBitRevTable);
  47:Source\TransformFunctions/arm_cfft_q31.c **** 
  48:Source\TransformFunctions/arm_cfft_q31.c **** void arm_cfft_radix4by2_q31(
  49:Source\TransformFunctions/arm_cfft_q31.c ****     q31_t * pSrc,
  50:Source\TransformFunctions/arm_cfft_q31.c ****     uint32_t fftLen,
  51:Source\TransformFunctions/arm_cfft_q31.c ****     const q31_t * pCoef);
  52:Source\TransformFunctions/arm_cfft_q31.c **** 
  53:Source\TransformFunctions/arm_cfft_q31.c **** void arm_cfft_radix4by2_inverse_q31(
  54:Source\TransformFunctions/arm_cfft_q31.c ****     q31_t * pSrc,
  55:Source\TransformFunctions/arm_cfft_q31.c ****     uint32_t fftLen,
  56:Source\TransformFunctions/arm_cfft_q31.c ****     const q31_t * pCoef);
  57:Source\TransformFunctions/arm_cfft_q31.c **** 
  58:Source\TransformFunctions/arm_cfft_q31.c **** /**
  59:Source\TransformFunctions/arm_cfft_q31.c **** * @ingroup groupTransforms
  60:Source\TransformFunctions/arm_cfft_q31.c **** */
  61:Source\TransformFunctions/arm_cfft_q31.c **** 
  62:Source\TransformFunctions/arm_cfft_q31.c **** /**
  63:Source\TransformFunctions/arm_cfft_q31.c **** * @addtogroup ComplexFFT
  64:Source\TransformFunctions/arm_cfft_q31.c **** * @{
  65:Source\TransformFunctions/arm_cfft_q31.c **** */
  66:Source\TransformFunctions/arm_cfft_q31.c **** 
  67:Source\TransformFunctions/arm_cfft_q31.c **** /**
  68:Source\TransformFunctions/arm_cfft_q31.c **** * @details
  69:Source\TransformFunctions/arm_cfft_q31.c **** * @brief       Processing function for the fixed-point complex FFT in Q31 format.
  70:Source\TransformFunctions/arm_cfft_q31.c **** * @param[in]      *S    points to an instance of the fixed-point CFFT structure.
  71:Source\TransformFunctions/arm_cfft_q31.c **** * @param[in, out] *p1   points to the complex data buffer of size <code>2*fftLen</code>. Processing
  72:Source\TransformFunctions/arm_cfft_q31.c **** * @param[in]     ifftFlag       flag that selects forward (ifftFlag=0) or inverse (ifftFlag=1) tran
  73:Source\TransformFunctions/arm_cfft_q31.c **** * @param[in]     bitReverseFlag flag that enables (bitReverseFlag=1) or disables (bitReverseFlag=0)
  74:Source\TransformFunctions/arm_cfft_q31.c **** * @return none.
  75:Source\TransformFunctions/arm_cfft_q31.c **** */
  76:Source\TransformFunctions/arm_cfft_q31.c **** 
  77:Source\TransformFunctions/arm_cfft_q31.c **** void arm_cfft_q31(
  78:Source\TransformFunctions/arm_cfft_q31.c ****     const arm_cfft_instance_q31 * S,
  79:Source\TransformFunctions/arm_cfft_q31.c ****     q31_t * p1,
  80:Source\TransformFunctions/arm_cfft_q31.c ****     uint8_t ifftFlag,
  81:Source\TransformFunctions/arm_cfft_q31.c ****     uint8_t bitReverseFlag)
  82:Source\TransformFunctions/arm_cfft_q31.c **** {
  26              		.loc 1 82 0
  27              		.cfi_startproc
  28 0000 80B5     		push	{r7, lr}
  29              		.cfi_def_cfa_offset 8
  30              		.cfi_offset 7, -8
  31              		.cfi_offset 14, -4
  32 0002 86B0     		sub	sp, sp, #24
ARM GAS  C:\Users\fneves\AppData\Local\Temp\ccUiFCKc.s 			page 3


  33              		.cfi_def_cfa_offset 32
  34 0004 00AF     		add	r7, sp, #0
  35              		.cfi_def_cfa_register 7
  36 0006 F860     		str	r0, [r7, #12]
  37 0008 B960     		str	r1, [r7, #8]
  38 000a 191C     		mov	r1, r3
  39 000c FB1D     		add	r3, r7, #7
  40 000e 1A70     		strb	r2, [r3]
  41 0010 BB1D     		add	r3, r7, #6
  42 0012 0A1C     		add	r2, r1, #0
  43 0014 1A70     		strb	r2, [r3]
  83:Source\TransformFunctions/arm_cfft_q31.c ****     uint32_t L = S->fftLen;
  44              		.loc 1 83 0
  45 0016 FB68     		ldr	r3, [r7, #12]
  46 0018 1B88     		ldrh	r3, [r3]
  47 001a 7B61     		str	r3, [r7, #20]
  84:Source\TransformFunctions/arm_cfft_q31.c **** 
  85:Source\TransformFunctions/arm_cfft_q31.c ****     if (ifftFlag == 1u)
  48              		.loc 1 85 0
  49 001c FB1D     		add	r3, r7, #7
  50 001e 1B78     		ldrb	r3, [r3]
  51 0020 012B     		cmp	r3, #1
  52 0022 3FD1     		bne	.L2
  86:Source\TransformFunctions/arm_cfft_q31.c ****     {
  87:Source\TransformFunctions/arm_cfft_q31.c ****         switch (L)
  53              		.loc 1 87 0
  54 0024 7B69     		ldr	r3, [r7, #20]
  55 0026 8022     		mov	r2, #128
  56 0028 5200     		lsl	r2, r2, #1
  57 002a 9342     		cmp	r3, r2
  58 002c 24D0     		beq	.L4
  59 002e 8022     		mov	r2, #128
  60 0030 5200     		lsl	r2, r2, #1
  61 0032 9342     		cmp	r3, r2
  62 0034 0AD8     		bhi	.L5
  63 0036 202B     		cmp	r3, #32
  64 0038 29D0     		beq	.L6
  65 003a 02D8     		bhi	.L7
  66 003c 102B     		cmp	r3, #16
  67 003e 1BD0     		beq	.L4
  68 0040 6EE0     		b	.L9
  69              	.L7:
  70 0042 402B     		cmp	r3, #64
  71 0044 18D0     		beq	.L4
  72 0046 802B     		cmp	r3, #128
  73 0048 21D0     		beq	.L6
  74 004a 69E0     		b	.L9
  75              	.L5:
  76 004c 8022     		mov	r2, #128
  77 004e D200     		lsl	r2, r2, #3
  78 0050 9342     		cmp	r3, r2
  79 0052 11D0     		beq	.L4
  80 0054 8022     		mov	r2, #128
  81 0056 D200     		lsl	r2, r2, #3
  82 0058 9342     		cmp	r3, r2
  83 005a 04D8     		bhi	.L8
  84 005c 8022     		mov	r2, #128
ARM GAS  C:\Users\fneves\AppData\Local\Temp\ccUiFCKc.s 			page 4


  85 005e 9200     		lsl	r2, r2, #2
  86 0060 9342     		cmp	r3, r2
  87 0062 14D0     		beq	.L6
  88 0064 5CE0     		b	.L9
  89              	.L8:
  90 0066 8022     		mov	r2, #128
  91 0068 1201     		lsl	r2, r2, #4
  92 006a 9342     		cmp	r3, r2
  93 006c 0FD0     		beq	.L6
  94 006e 8022     		mov	r2, #128
  95 0070 5201     		lsl	r2, r2, #5
  96 0072 9342     		cmp	r3, r2
  97 0074 00D0     		beq	.L4
  98 0076 53E0     		b	.L9
  99              	.L4:
  88:Source\TransformFunctions/arm_cfft_q31.c ****         {
  89:Source\TransformFunctions/arm_cfft_q31.c ****         case 16:
  90:Source\TransformFunctions/arm_cfft_q31.c ****         case 64:
  91:Source\TransformFunctions/arm_cfft_q31.c ****         case 256:
  92:Source\TransformFunctions/arm_cfft_q31.c ****         case 1024:
  93:Source\TransformFunctions/arm_cfft_q31.c ****         case 4096:
  94:Source\TransformFunctions/arm_cfft_q31.c ****             arm_radix4_butterfly_inverse_q31  ( p1, L, (q31_t*)S->pTwiddle, 1 );
 100              		.loc 1 94 0
 101 0078 FB68     		ldr	r3, [r7, #12]
 102 007a 5B68     		ldr	r3, [r3, #4]
 103 007c B968     		ldr	r1, [r7, #8]
 104 007e 7A69     		ldr	r2, [r7, #20]
 105 0080 081C     		mov	r0, r1
 106 0082 111C     		mov	r1, r2
 107 0084 1A1C     		mov	r2, r3
 108 0086 0123     		mov	r3, #1
 109 0088 FFF7FEFF 		bl	arm_radix4_butterfly_inverse_q31
  95:Source\TransformFunctions/arm_cfft_q31.c ****             break;
 110              		.loc 1 95 0
 111 008c 09E0     		b	.L3
 112              	.L6:
  96:Source\TransformFunctions/arm_cfft_q31.c **** 
  97:Source\TransformFunctions/arm_cfft_q31.c ****         case 32:
  98:Source\TransformFunctions/arm_cfft_q31.c ****         case 128:
  99:Source\TransformFunctions/arm_cfft_q31.c ****         case 512:
 100:Source\TransformFunctions/arm_cfft_q31.c ****         case 2048:
 101:Source\TransformFunctions/arm_cfft_q31.c ****             arm_cfft_radix4by2_inverse_q31  ( p1, L, S->pTwiddle );
 113              		.loc 1 101 0
 114 008e FB68     		ldr	r3, [r7, #12]
 115 0090 5B68     		ldr	r3, [r3, #4]
 116 0092 B968     		ldr	r1, [r7, #8]
 117 0094 7A69     		ldr	r2, [r7, #20]
 118 0096 081C     		mov	r0, r1
 119 0098 111C     		mov	r1, r2
 120 009a 1A1C     		mov	r2, r3
 121 009c FFF7FEFF 		bl	arm_cfft_radix4by2_inverse_q31
 102:Source\TransformFunctions/arm_cfft_q31.c ****             break;
 122              		.loc 1 102 0
 123 00a0 C046     		mov	r8, r8
 124              	.L3:
 125 00a2 3DE0     		b	.L9
 126              	.L2:
ARM GAS  C:\Users\fneves\AppData\Local\Temp\ccUiFCKc.s 			page 5


 103:Source\TransformFunctions/arm_cfft_q31.c ****         }
 104:Source\TransformFunctions/arm_cfft_q31.c ****     }
 105:Source\TransformFunctions/arm_cfft_q31.c ****     else
 106:Source\TransformFunctions/arm_cfft_q31.c ****     {
 107:Source\TransformFunctions/arm_cfft_q31.c ****         switch (L)
 127              		.loc 1 107 0
 128 00a4 7B69     		ldr	r3, [r7, #20]
 129 00a6 8022     		mov	r2, #128
 130 00a8 5200     		lsl	r2, r2, #1
 131 00aa 9342     		cmp	r3, r2
 132 00ac 23D0     		beq	.L10
 133 00ae 8022     		mov	r2, #128
 134 00b0 5200     		lsl	r2, r2, #1
 135 00b2 9342     		cmp	r3, r2
 136 00b4 0AD8     		bhi	.L11
 137 00b6 202B     		cmp	r3, #32
 138 00b8 28D0     		beq	.L12
 139 00ba 02D8     		bhi	.L13
 140 00bc 102B     		cmp	r3, #16
 141 00be 1AD0     		beq	.L10
 142 00c0 2EE0     		b	.L9
 143              	.L13:
 144 00c2 402B     		cmp	r3, #64
 145 00c4 17D0     		beq	.L10
 146 00c6 802B     		cmp	r3, #128
 147 00c8 20D0     		beq	.L12
 148 00ca 29E0     		b	.L9
 149              	.L11:
 150 00cc 8022     		mov	r2, #128
 151 00ce D200     		lsl	r2, r2, #3
 152 00d0 9342     		cmp	r3, r2
 153 00d2 10D0     		beq	.L10
 154 00d4 8022     		mov	r2, #128
 155 00d6 D200     		lsl	r2, r2, #3
 156 00d8 9342     		cmp	r3, r2
 157 00da 04D8     		bhi	.L14
 158 00dc 8022     		mov	r2, #128
 159 00de 9200     		lsl	r2, r2, #2
 160 00e0 9342     		cmp	r3, r2
 161 00e2 13D0     		beq	.L12
 162 00e4 1CE0     		b	.L9
 163              	.L14:
 164 00e6 8022     		mov	r2, #128
 165 00e8 1201     		lsl	r2, r2, #4
 166 00ea 9342     		cmp	r3, r2
 167 00ec 0ED0     		beq	.L12
 168 00ee 8022     		mov	r2, #128
 169 00f0 5201     		lsl	r2, r2, #5
 170 00f2 9342     		cmp	r3, r2
 171 00f4 14D1     		bne	.L9
 172              	.L10:
 108:Source\TransformFunctions/arm_cfft_q31.c ****         {
 109:Source\TransformFunctions/arm_cfft_q31.c ****         case 16:
 110:Source\TransformFunctions/arm_cfft_q31.c ****         case 64:
 111:Source\TransformFunctions/arm_cfft_q31.c ****         case 256:
 112:Source\TransformFunctions/arm_cfft_q31.c ****         case 1024:
 113:Source\TransformFunctions/arm_cfft_q31.c ****         case 4096:
ARM GAS  C:\Users\fneves\AppData\Local\Temp\ccUiFCKc.s 			page 6


 114:Source\TransformFunctions/arm_cfft_q31.c ****             arm_radix4_butterfly_q31  ( p1, L, (q31_t*)S->pTwiddle, 1 );
 173              		.loc 1 114 0
 174 00f6 FB68     		ldr	r3, [r7, #12]
 175 00f8 5B68     		ldr	r3, [r3, #4]
 176 00fa B968     		ldr	r1, [r7, #8]
 177 00fc 7A69     		ldr	r2, [r7, #20]
 178 00fe 081C     		mov	r0, r1
 179 0100 111C     		mov	r1, r2
 180 0102 1A1C     		mov	r2, r3
 181 0104 0123     		mov	r3, #1
 182 0106 FFF7FEFF 		bl	arm_radix4_butterfly_q31
 115:Source\TransformFunctions/arm_cfft_q31.c ****             break;
 183              		.loc 1 115 0
 184 010a 09E0     		b	.L9
 185              	.L12:
 116:Source\TransformFunctions/arm_cfft_q31.c **** 
 117:Source\TransformFunctions/arm_cfft_q31.c ****         case 32:
 118:Source\TransformFunctions/arm_cfft_q31.c ****         case 128:
 119:Source\TransformFunctions/arm_cfft_q31.c ****         case 512:
 120:Source\TransformFunctions/arm_cfft_q31.c ****         case 2048:
 121:Source\TransformFunctions/arm_cfft_q31.c ****             arm_cfft_radix4by2_q31  ( p1, L, S->pTwiddle );
 186              		.loc 1 121 0
 187 010c FB68     		ldr	r3, [r7, #12]
 188 010e 5B68     		ldr	r3, [r3, #4]
 189 0110 B968     		ldr	r1, [r7, #8]
 190 0112 7A69     		ldr	r2, [r7, #20]
 191 0114 081C     		mov	r0, r1
 192 0116 111C     		mov	r1, r2
 193 0118 1A1C     		mov	r2, r3
 194 011a FFF7FEFF 		bl	arm_cfft_radix4by2_q31
 122:Source\TransformFunctions/arm_cfft_q31.c ****             break;
 195              		.loc 1 122 0
 196 011e C046     		mov	r8, r8
 197              	.L9:
 123:Source\TransformFunctions/arm_cfft_q31.c ****         }
 124:Source\TransformFunctions/arm_cfft_q31.c ****     }
 125:Source\TransformFunctions/arm_cfft_q31.c **** 
 126:Source\TransformFunctions/arm_cfft_q31.c ****     if ( bitReverseFlag )
 198              		.loc 1 126 0
 199 0120 BB1D     		add	r3, r7, #6
 200 0122 1B78     		ldrb	r3, [r3]
 201 0124 002B     		cmp	r3, #0
 202 0126 09D0     		beq	.L1
 127:Source\TransformFunctions/arm_cfft_q31.c ****         arm_bitreversal_32((uint32_t*)p1,S->bitRevLength,S->pBitRevTable);
 203              		.loc 1 127 0
 204 0128 FB68     		ldr	r3, [r7, #12]
 205 012a 9A89     		ldrh	r2, [r3, #12]
 206 012c FB68     		ldr	r3, [r7, #12]
 207 012e 9B68     		ldr	r3, [r3, #8]
 208 0130 B968     		ldr	r1, [r7, #8]
 209 0132 081C     		mov	r0, r1
 210 0134 111C     		mov	r1, r2
 211 0136 1A1C     		mov	r2, r3
 212 0138 FFF7FEFF 		bl	arm_bitreversal_32
 213              	.L1:
 128:Source\TransformFunctions/arm_cfft_q31.c **** }
 214              		.loc 1 128 0
ARM GAS  C:\Users\fneves\AppData\Local\Temp\ccUiFCKc.s 			page 7


 215 013c BD46     		mov	sp, r7
 216 013e 06B0     		add	sp, sp, #24
 217              		@ sp needed
 218 0140 80BD     		pop	{r7, pc}
 219              		.cfi_endproc
 220              	.LFE82:
 221              		.size	arm_cfft_q31, .-arm_cfft_q31
 222              		.global	__aeabi_lmul
 223 0142 C046     		.section	.text.arm_cfft_radix4by2_q31,"ax",%progbits
 224              		.align	2
 225              		.global	arm_cfft_radix4by2_q31
 226              		.code	16
 227              		.thumb_func
 228              		.type	arm_cfft_radix4by2_q31, %function
 229              	arm_cfft_radix4by2_q31:
 230              	.LFB83:
 129:Source\TransformFunctions/arm_cfft_q31.c **** 
 130:Source\TransformFunctions/arm_cfft_q31.c **** /**
 131:Source\TransformFunctions/arm_cfft_q31.c **** * @} end of ComplexFFT group
 132:Source\TransformFunctions/arm_cfft_q31.c **** */
 133:Source\TransformFunctions/arm_cfft_q31.c **** 
 134:Source\TransformFunctions/arm_cfft_q31.c **** void arm_cfft_radix4by2_q31(
 135:Source\TransformFunctions/arm_cfft_q31.c ****     q31_t * pSrc,
 136:Source\TransformFunctions/arm_cfft_q31.c ****     uint32_t fftLen,
 137:Source\TransformFunctions/arm_cfft_q31.c ****     const q31_t * pCoef)
 138:Source\TransformFunctions/arm_cfft_q31.c **** {
 231              		.loc 1 138 0
 232              		.cfi_startproc
 233 0000 F0B5     		push	{r4, r5, r6, r7, lr}
 234              		.cfi_def_cfa_offset 20
 235              		.cfi_offset 4, -20
 236              		.cfi_offset 5, -16
 237              		.cfi_offset 6, -12
 238              		.cfi_offset 7, -8
 239              		.cfi_offset 14, -4
 240 0002 ADB0     		sub	sp, sp, #180
 241              		.cfi_def_cfa_offset 200
 242 0004 00AF     		add	r7, sp, #0
 243              		.cfi_def_cfa_register 7
 244 0006 8423     		mov	r3, #132
 245 0008 FB18     		add	r3, r7, r3
 246 000a 1860     		str	r0, [r3]
 247 000c 8023     		mov	r3, #128
 248 000e FB18     		add	r3, r7, r3
 249 0010 1960     		str	r1, [r3]
 250 0012 FA67     		str	r2, [r7, #124]
 139:Source\TransformFunctions/arm_cfft_q31.c ****     uint32_t i, l;
 140:Source\TransformFunctions/arm_cfft_q31.c ****     uint32_t n2, ia;
 141:Source\TransformFunctions/arm_cfft_q31.c ****     q31_t xt, yt, cosVal, sinVal;
 142:Source\TransformFunctions/arm_cfft_q31.c ****     q31_t p0, p1;
 143:Source\TransformFunctions/arm_cfft_q31.c **** 
 144:Source\TransformFunctions/arm_cfft_q31.c ****     n2 = fftLen >> 1;
 251              		.loc 1 144 0
 252 0014 8023     		mov	r3, #128
 253 0016 FB18     		add	r3, r7, r3
 254 0018 1B68     		ldr	r3, [r3]
 255 001a 5B08     		lsr	r3, r3, #1
ARM GAS  C:\Users\fneves\AppData\Local\Temp\ccUiFCKc.s 			page 8


 256 001c A422     		mov	r2, #164
 257 001e BA18     		add	r2, r7, r2
 258 0020 1360     		str	r3, [r2]
 145:Source\TransformFunctions/arm_cfft_q31.c ****     ia = 0;
 259              		.loc 1 145 0
 260 0022 0023     		mov	r3, #0
 261 0024 A822     		mov	r2, #168
 262 0026 BA18     		add	r2, r7, r2
 263 0028 1360     		str	r3, [r2]
 146:Source\TransformFunctions/arm_cfft_q31.c ****     for (i = 0; i < n2; i++)
 264              		.loc 1 146 0
 265 002a 0023     		mov	r3, #0
 266 002c AC22     		mov	r2, #172
 267 002e BA18     		add	r2, r7, r2
 268 0030 1360     		str	r3, [r2]
 269 0032 5DE1     		b	.L17
 270              	.L18:
 147:Source\TransformFunctions/arm_cfft_q31.c ****     {
 148:Source\TransformFunctions/arm_cfft_q31.c ****         cosVal = pCoef[2*ia];
 271              		.loc 1 148 0 discriminator 3
 272 0034 A823     		mov	r3, #168
 273 0036 FB18     		add	r3, r7, r3
 274 0038 1B68     		ldr	r3, [r3]
 275 003a DA00     		lsl	r2, r3, #3
 276 003c FB6F     		ldr	r3, [r7, #124]
 277 003e 9B18     		add	r3, r3, r2
 278 0040 1B68     		ldr	r3, [r3]
 279 0042 A022     		mov	r2, #160
 280 0044 BA18     		add	r2, r7, r2
 281 0046 1360     		str	r3, [r2]
 149:Source\TransformFunctions/arm_cfft_q31.c ****         sinVal = pCoef[2*ia + 1];
 282              		.loc 1 149 0 discriminator 3
 283 0048 A823     		mov	r3, #168
 284 004a FB18     		add	r3, r7, r3
 285 004c 1B68     		ldr	r3, [r3]
 286 004e DB00     		lsl	r3, r3, #3
 287 0050 1A1D     		add	r2, r3, #4
 288 0052 FB6F     		ldr	r3, [r7, #124]
 289 0054 9B18     		add	r3, r3, r2
 290 0056 1B68     		ldr	r3, [r3]
 291 0058 9C22     		mov	r2, #156
 292 005a BA18     		add	r2, r7, r2
 293 005c 1360     		str	r3, [r2]
 150:Source\TransformFunctions/arm_cfft_q31.c ****         ia++;
 294              		.loc 1 150 0 discriminator 3
 295 005e A823     		mov	r3, #168
 296 0060 FB18     		add	r3, r7, r3
 297 0062 1B68     		ldr	r3, [r3]
 298 0064 0133     		add	r3, r3, #1
 299 0066 A822     		mov	r2, #168
 300 0068 BA18     		add	r2, r7, r2
 301 006a 1360     		str	r3, [r2]
 151:Source\TransformFunctions/arm_cfft_q31.c **** 
 152:Source\TransformFunctions/arm_cfft_q31.c ****         l = i + n2;
 302              		.loc 1 152 0 discriminator 3
 303 006c AC23     		mov	r3, #172
 304 006e FB18     		add	r3, r7, r3
ARM GAS  C:\Users\fneves\AppData\Local\Temp\ccUiFCKc.s 			page 9


 305 0070 1A68     		ldr	r2, [r3]
 306 0072 A423     		mov	r3, #164
 307 0074 FB18     		add	r3, r7, r3
 308 0076 1B68     		ldr	r3, [r3]
 309 0078 D318     		add	r3, r2, r3
 310 007a 9822     		mov	r2, #152
 311 007c BA18     		add	r2, r7, r2
 312 007e 1360     		str	r3, [r2]
 153:Source\TransformFunctions/arm_cfft_q31.c ****         xt = (pSrc[2 * i] >> 2) - (pSrc[2 * l] >> 2);
 313              		.loc 1 153 0 discriminator 3
 314 0080 AC23     		mov	r3, #172
 315 0082 FB18     		add	r3, r7, r3
 316 0084 1B68     		ldr	r3, [r3]
 317 0086 DA00     		lsl	r2, r3, #3
 318 0088 8423     		mov	r3, #132
 319 008a FB18     		add	r3, r7, r3
 320 008c 1B68     		ldr	r3, [r3]
 321 008e 9B18     		add	r3, r3, r2
 322 0090 1B68     		ldr	r3, [r3]
 323 0092 9910     		asr	r1, r3, #2
 324 0094 9823     		mov	r3, #152
 325 0096 FB18     		add	r3, r7, r3
 326 0098 1B68     		ldr	r3, [r3]
 327 009a DA00     		lsl	r2, r3, #3
 328 009c 8423     		mov	r3, #132
 329 009e FB18     		add	r3, r7, r3
 330 00a0 1B68     		ldr	r3, [r3]
 331 00a2 9B18     		add	r3, r3, r2
 332 00a4 1B68     		ldr	r3, [r3]
 333 00a6 9B10     		asr	r3, r3, #2
 334 00a8 CB1A     		sub	r3, r1, r3
 335 00aa 9422     		mov	r2, #148
 336 00ac BA18     		add	r2, r7, r2
 337 00ae 1360     		str	r3, [r2]
 154:Source\TransformFunctions/arm_cfft_q31.c ****         pSrc[2 * i] = (pSrc[2 * i] >> 2) + (pSrc[2 * l] >> 2);
 338              		.loc 1 154 0 discriminator 3
 339 00b0 AC23     		mov	r3, #172
 340 00b2 FB18     		add	r3, r7, r3
 341 00b4 1B68     		ldr	r3, [r3]
 342 00b6 DA00     		lsl	r2, r3, #3
 343 00b8 8423     		mov	r3, #132
 344 00ba FB18     		add	r3, r7, r3
 345 00bc 1B68     		ldr	r3, [r3]
 346 00be 9818     		add	r0, r3, r2
 347 00c0 AC23     		mov	r3, #172
 348 00c2 FB18     		add	r3, r7, r3
 349 00c4 1B68     		ldr	r3, [r3]
 350 00c6 DA00     		lsl	r2, r3, #3
 351 00c8 8423     		mov	r3, #132
 352 00ca FB18     		add	r3, r7, r3
 353 00cc 1B68     		ldr	r3, [r3]
 354 00ce 9B18     		add	r3, r3, r2
 355 00d0 1B68     		ldr	r3, [r3]
 356 00d2 9910     		asr	r1, r3, #2
 357 00d4 9823     		mov	r3, #152
 358 00d6 FB18     		add	r3, r7, r3
 359 00d8 1B68     		ldr	r3, [r3]
ARM GAS  C:\Users\fneves\AppData\Local\Temp\ccUiFCKc.s 			page 10


 360 00da DA00     		lsl	r2, r3, #3
 361 00dc 8423     		mov	r3, #132
 362 00de FB18     		add	r3, r7, r3
 363 00e0 1B68     		ldr	r3, [r3]
 364 00e2 9B18     		add	r3, r3, r2
 365 00e4 1B68     		ldr	r3, [r3]
 366 00e6 9B10     		asr	r3, r3, #2
 367 00e8 CB18     		add	r3, r1, r3
 368 00ea 0360     		str	r3, [r0]
 155:Source\TransformFunctions/arm_cfft_q31.c **** 
 156:Source\TransformFunctions/arm_cfft_q31.c ****         yt = (pSrc[2 * i + 1] >> 2) - (pSrc[2 * l + 1] >> 2);
 369              		.loc 1 156 0 discriminator 3
 370 00ec AC23     		mov	r3, #172
 371 00ee FB18     		add	r3, r7, r3
 372 00f0 1B68     		ldr	r3, [r3]
 373 00f2 DB00     		lsl	r3, r3, #3
 374 00f4 1A1D     		add	r2, r3, #4
 375 00f6 8423     		mov	r3, #132
 376 00f8 FB18     		add	r3, r7, r3
 377 00fa 1B68     		ldr	r3, [r3]
 378 00fc 9B18     		add	r3, r3, r2
 379 00fe 1B68     		ldr	r3, [r3]
 380 0100 9910     		asr	r1, r3, #2
 381 0102 9823     		mov	r3, #152
 382 0104 FB18     		add	r3, r7, r3
 383 0106 1B68     		ldr	r3, [r3]
 384 0108 DB00     		lsl	r3, r3, #3
 385 010a 1A1D     		add	r2, r3, #4
 386 010c 8423     		mov	r3, #132
 387 010e FB18     		add	r3, r7, r3
 388 0110 1B68     		ldr	r3, [r3]
 389 0112 9B18     		add	r3, r3, r2
 390 0114 1B68     		ldr	r3, [r3]
 391 0116 9B10     		asr	r3, r3, #2
 392 0118 CB1A     		sub	r3, r1, r3
 393 011a 9022     		mov	r2, #144
 394 011c BA18     		add	r2, r7, r2
 395 011e 1360     		str	r3, [r2]
 157:Source\TransformFunctions/arm_cfft_q31.c ****         pSrc[2 * i + 1] = (pSrc[2 * l + 1] >> 2) + (pSrc[2 * i + 1] >> 2);
 396              		.loc 1 157 0 discriminator 3
 397 0120 AC23     		mov	r3, #172
 398 0122 FB18     		add	r3, r7, r3
 399 0124 1B68     		ldr	r3, [r3]
 400 0126 DB00     		lsl	r3, r3, #3
 401 0128 1A1D     		add	r2, r3, #4
 402 012a 8423     		mov	r3, #132
 403 012c FB18     		add	r3, r7, r3
 404 012e 1B68     		ldr	r3, [r3]
 405 0130 9818     		add	r0, r3, r2
 406 0132 9823     		mov	r3, #152
 407 0134 FB18     		add	r3, r7, r3
 408 0136 1B68     		ldr	r3, [r3]
 409 0138 DB00     		lsl	r3, r3, #3
 410 013a 1A1D     		add	r2, r3, #4
 411 013c 8423     		mov	r3, #132
 412 013e FB18     		add	r3, r7, r3
 413 0140 1B68     		ldr	r3, [r3]
ARM GAS  C:\Users\fneves\AppData\Local\Temp\ccUiFCKc.s 			page 11


 414 0142 9B18     		add	r3, r3, r2
 415 0144 1B68     		ldr	r3, [r3]
 416 0146 9910     		asr	r1, r3, #2
 417 0148 AC23     		mov	r3, #172
 418 014a FB18     		add	r3, r7, r3
 419 014c 1B68     		ldr	r3, [r3]
 420 014e DB00     		lsl	r3, r3, #3
 421 0150 1A1D     		add	r2, r3, #4
 422 0152 8423     		mov	r3, #132
 423 0154 FB18     		add	r3, r7, r3
 424 0156 1B68     		ldr	r3, [r3]
 425 0158 9B18     		add	r3, r3, r2
 426 015a 1B68     		ldr	r3, [r3]
 427 015c 9B10     		asr	r3, r3, #2
 428 015e CB18     		add	r3, r1, r3
 429 0160 0360     		str	r3, [r0]
 158:Source\TransformFunctions/arm_cfft_q31.c **** 
 159:Source\TransformFunctions/arm_cfft_q31.c ****         mult_32x32_keep32_R(p0, xt, cosVal);
 430              		.loc 1 159 0 discriminator 3
 431 0162 9423     		mov	r3, #148
 432 0164 FB18     		add	r3, r7, r3
 433 0166 1B68     		ldr	r3, [r3]
 434 0168 3B67     		str	r3, [r7, #112]
 435 016a DB17     		asr	r3, r3, #31
 436 016c 7B67     		str	r3, [r7, #116]
 437 016e A023     		mov	r3, #160
 438 0170 FB18     		add	r3, r7, r3
 439 0172 1B68     		ldr	r3, [r3]
 440 0174 BB66     		str	r3, [r7, #104]
 441 0176 DB17     		asr	r3, r3, #31
 442 0178 FB66     		str	r3, [r7, #108]
 443 017a 386F     		ldr	r0, [r7, #112]
 444 017c 796F     		ldr	r1, [r7, #116]
 445 017e BA6E     		ldr	r2, [r7, #104]
 446 0180 FB6E     		ldr	r3, [r7, #108]
 447 0182 FFF7FEFF 		bl	__aeabi_lmul
 448 0186 031C     		mov	r3, r0
 449 0188 0C1C     		mov	r4, r1
 450 018a 191C     		mov	r1, r3
 451 018c 221C     		mov	r2, r4
 452 018e 8023     		mov	r3, #128
 453 0190 1B06     		lsl	r3, r3, #24
 454 0192 0024     		mov	r4, #0
 455 0194 5B18     		add	r3, r3, r1
 456 0196 5441     		adc	r4, r4, r2
 457 0198 2200     		asr	r2, r4, #0
 458 019a 3A66     		str	r2, [r7, #96]
 459 019c E317     		asr	r3, r4, #31
 460 019e 7B66     		str	r3, [r7, #100]
 461 01a0 3B6E     		ldr	r3, [r7, #96]
 462 01a2 8C22     		mov	r2, #140
 463 01a4 BA18     		add	r2, r7, r2
 464 01a6 1360     		str	r3, [r2]
 160:Source\TransformFunctions/arm_cfft_q31.c ****         mult_32x32_keep32_R(p1, yt, cosVal);
 465              		.loc 1 160 0 discriminator 3
 466 01a8 9023     		mov	r3, #144
 467 01aa FB18     		add	r3, r7, r3
ARM GAS  C:\Users\fneves\AppData\Local\Temp\ccUiFCKc.s 			page 12


 468 01ac 1B68     		ldr	r3, [r3]
 469 01ae BB65     		str	r3, [r7, #88]
 470 01b0 DB17     		asr	r3, r3, #31
 471 01b2 FB65     		str	r3, [r7, #92]
 472 01b4 A023     		mov	r3, #160
 473 01b6 FB18     		add	r3, r7, r3
 474 01b8 1B68     		ldr	r3, [r3]
 475 01ba 3B65     		str	r3, [r7, #80]
 476 01bc DB17     		asr	r3, r3, #31
 477 01be 7B65     		str	r3, [r7, #84]
 478 01c0 B86D     		ldr	r0, [r7, #88]
 479 01c2 F96D     		ldr	r1, [r7, #92]
 480 01c4 3A6D     		ldr	r2, [r7, #80]
 481 01c6 7B6D     		ldr	r3, [r7, #84]
 482 01c8 FFF7FEFF 		bl	__aeabi_lmul
 483 01cc 031C     		mov	r3, r0
 484 01ce 0C1C     		mov	r4, r1
 485 01d0 191C     		mov	r1, r3
 486 01d2 221C     		mov	r2, r4
 487 01d4 8023     		mov	r3, #128
 488 01d6 1B06     		lsl	r3, r3, #24
 489 01d8 0024     		mov	r4, #0
 490 01da 5B18     		add	r3, r3, r1
 491 01dc 5441     		adc	r4, r4, r2
 492 01de 2200     		asr	r2, r4, #0
 493 01e0 BA64     		str	r2, [r7, #72]
 494 01e2 E317     		asr	r3, r4, #31
 495 01e4 FB64     		str	r3, [r7, #76]
 496 01e6 BB6C     		ldr	r3, [r7, #72]
 497 01e8 8822     		mov	r2, #136
 498 01ea BA18     		add	r2, r7, r2
 499 01ec 1360     		str	r3, [r2]
 161:Source\TransformFunctions/arm_cfft_q31.c ****         multAcc_32x32_keep32_R(p0, yt, sinVal);
 500              		.loc 1 161 0 discriminator 3
 501 01ee 8C23     		mov	r3, #140
 502 01f0 FB18     		add	r3, r7, r3
 503 01f2 1B68     		ldr	r3, [r3]
 504 01f4 3B64     		str	r3, [r7, #64]
 505 01f6 DB17     		asr	r3, r3, #31
 506 01f8 7B64     		str	r3, [r7, #68]
 507 01fa 3B6C     		ldr	r3, [r7, #64]
 508 01fc 1B00     		lsl	r3, r3, #0
 509 01fe FB63     		str	r3, [r7, #60]
 510 0200 0023     		mov	r3, #0
 511 0202 BB63     		str	r3, [r7, #56]
 512 0204 9023     		mov	r3, #144
 513 0206 FB18     		add	r3, r7, r3
 514 0208 1B68     		ldr	r3, [r3]
 515 020a 3B63     		str	r3, [r7, #48]
 516 020c DB17     		asr	r3, r3, #31
 517 020e 7B63     		str	r3, [r7, #52]
 518 0210 9C23     		mov	r3, #156
 519 0212 FB18     		add	r3, r7, r3
 520 0214 1B68     		ldr	r3, [r3]
 521 0216 BB62     		str	r3, [r7, #40]
 522 0218 DB17     		asr	r3, r3, #31
 523 021a FB62     		str	r3, [r7, #44]
ARM GAS  C:\Users\fneves\AppData\Local\Temp\ccUiFCKc.s 			page 13


 524 021c 386B     		ldr	r0, [r7, #48]
 525 021e 796B     		ldr	r1, [r7, #52]
 526 0220 BA6A     		ldr	r2, [r7, #40]
 527 0222 FB6A     		ldr	r3, [r7, #44]
 528 0224 FFF7FEFF 		bl	__aeabi_lmul
 529 0228 031C     		mov	r3, r0
 530 022a 0C1C     		mov	r4, r1
 531 022c B96B     		ldr	r1, [r7, #56]
 532 022e FA6B     		ldr	r2, [r7, #60]
 533 0230 C918     		add	r1, r1, r3
 534 0232 6241     		adc	r2, r2, r4
 535 0234 8023     		mov	r3, #128
 536 0236 1B06     		lsl	r3, r3, #24
 537 0238 0024     		mov	r4, #0
 538 023a 5B18     		add	r3, r3, r1
 539 023c 5441     		adc	r4, r4, r2
 540 023e 2200     		asr	r2, r4, #0
 541 0240 3A62     		str	r2, [r7, #32]
 542 0242 E317     		asr	r3, r4, #31
 543 0244 7B62     		str	r3, [r7, #36]
 544 0246 3B6A     		ldr	r3, [r7, #32]
 545 0248 8C22     		mov	r2, #140
 546 024a BA18     		add	r2, r7, r2
 547 024c 1360     		str	r3, [r2]
 162:Source\TransformFunctions/arm_cfft_q31.c ****         multSub_32x32_keep32_R(p1, xt, sinVal);
 548              		.loc 1 162 0 discriminator 3
 549 024e 8823     		mov	r3, #136
 550 0250 FB18     		add	r3, r7, r3
 551 0252 1B68     		ldr	r3, [r3]
 552 0254 BB61     		str	r3, [r7, #24]
 553 0256 DB17     		asr	r3, r3, #31
 554 0258 FB61     		str	r3, [r7, #28]
 555 025a BB69     		ldr	r3, [r7, #24]
 556 025c 1E00     		lsl	r6, r3, #0
 557 025e 0023     		mov	r3, #0
 558 0260 1D1C     		mov	r5, r3
 559 0262 9423     		mov	r3, #148
 560 0264 FB18     		add	r3, r7, r3
 561 0266 1B68     		ldr	r3, [r3]
 562 0268 3B61     		str	r3, [r7, #16]
 563 026a DB17     		asr	r3, r3, #31
 564 026c 7B61     		str	r3, [r7, #20]
 565 026e 9C23     		mov	r3, #156
 566 0270 FB18     		add	r3, r7, r3
 567 0272 1B68     		ldr	r3, [r3]
 568 0274 BB60     		str	r3, [r7, #8]
 569 0276 DB17     		asr	r3, r3, #31
 570 0278 FB60     		str	r3, [r7, #12]
 571 027a 3869     		ldr	r0, [r7, #16]
 572 027c 7969     		ldr	r1, [r7, #20]
 573 027e BA68     		ldr	r2, [r7, #8]
 574 0280 FB68     		ldr	r3, [r7, #12]
 575 0282 FFF7FEFF 		bl	__aeabi_lmul
 576 0286 031C     		mov	r3, r0
 577 0288 0C1C     		mov	r4, r1
 578 028a 291C     		mov	r1, r5
 579 028c 321C     		mov	r2, r6
ARM GAS  C:\Users\fneves\AppData\Local\Temp\ccUiFCKc.s 			page 14


 580 028e C91A     		sub	r1, r1, r3
 581 0290 A241     		sbc	r2, r2, r4
 582 0292 8023     		mov	r3, #128
 583 0294 1B06     		lsl	r3, r3, #24
 584 0296 0024     		mov	r4, #0
 585 0298 5B18     		add	r3, r3, r1
 586 029a 5441     		adc	r4, r4, r2
 587 029c 2200     		asr	r2, r4, #0
 588 029e 3A60     		str	r2, [r7]
 589 02a0 E317     		asr	r3, r4, #31
 590 02a2 7B60     		str	r3, [r7, #4]
 591 02a4 3B68     		ldr	r3, [r7]
 592 02a6 8822     		mov	r2, #136
 593 02a8 BA18     		add	r2, r7, r2
 594 02aa 1360     		str	r3, [r2]
 163:Source\TransformFunctions/arm_cfft_q31.c **** 
 164:Source\TransformFunctions/arm_cfft_q31.c ****         pSrc[2u * l] = p0 << 1;
 595              		.loc 1 164 0 discriminator 3
 596 02ac 9823     		mov	r3, #152
 597 02ae FB18     		add	r3, r7, r3
 598 02b0 1B68     		ldr	r3, [r3]
 599 02b2 DA00     		lsl	r2, r3, #3
 600 02b4 8423     		mov	r3, #132
 601 02b6 FB18     		add	r3, r7, r3
 602 02b8 1B68     		ldr	r3, [r3]
 603 02ba 9A18     		add	r2, r3, r2
 604 02bc 8C23     		mov	r3, #140
 605 02be FB18     		add	r3, r7, r3
 606 02c0 1B68     		ldr	r3, [r3]
 607 02c2 5B00     		lsl	r3, r3, #1
 608 02c4 1360     		str	r3, [r2]
 165:Source\TransformFunctions/arm_cfft_q31.c ****         pSrc[2u * l + 1u] = p1 << 1;
 609              		.loc 1 165 0 discriminator 3
 610 02c6 9823     		mov	r3, #152
 611 02c8 FB18     		add	r3, r7, r3
 612 02ca 1B68     		ldr	r3, [r3]
 613 02cc DB00     		lsl	r3, r3, #3
 614 02ce 1A1D     		add	r2, r3, #4
 615 02d0 8423     		mov	r3, #132
 616 02d2 FB18     		add	r3, r7, r3
 617 02d4 1B68     		ldr	r3, [r3]
 618 02d6 9A18     		add	r2, r3, r2
 619 02d8 8823     		mov	r3, #136
 620 02da FB18     		add	r3, r7, r3
 621 02dc 1B68     		ldr	r3, [r3]
 622 02de 5B00     		lsl	r3, r3, #1
 623 02e0 1360     		str	r3, [r2]
 146:Source\TransformFunctions/arm_cfft_q31.c ****     {
 624              		.loc 1 146 0 discriminator 3
 625 02e2 AC23     		mov	r3, #172
 626 02e4 FB18     		add	r3, r7, r3
 627 02e6 1B68     		ldr	r3, [r3]
 628 02e8 0133     		add	r3, r3, #1
 629 02ea AC22     		mov	r2, #172
 630 02ec BA18     		add	r2, r7, r2
 631 02ee 1360     		str	r3, [r2]
 632              	.L17:
ARM GAS  C:\Users\fneves\AppData\Local\Temp\ccUiFCKc.s 			page 15


 146:Source\TransformFunctions/arm_cfft_q31.c ****     {
 633              		.loc 1 146 0 is_stmt 0 discriminator 1
 634 02f0 AC23     		mov	r3, #172
 635 02f2 FB18     		add	r3, r7, r3
 636 02f4 1A68     		ldr	r2, [r3]
 637 02f6 A423     		mov	r3, #164
 638 02f8 FB18     		add	r3, r7, r3
 639 02fa 1B68     		ldr	r3, [r3]
 640 02fc 9A42     		cmp	r2, r3
 641 02fe 00D2     		bcs	.LCB591
 642 0300 98E6     		b	.L18	@long jump
 643              	.LCB591:
 166:Source\TransformFunctions/arm_cfft_q31.c **** 
 167:Source\TransformFunctions/arm_cfft_q31.c ****     }
 168:Source\TransformFunctions/arm_cfft_q31.c **** 
 169:Source\TransformFunctions/arm_cfft_q31.c ****     // first col
 170:Source\TransformFunctions/arm_cfft_q31.c ****     arm_radix4_butterfly_q31( pSrc, n2, (q31_t*)pCoef, 2u);
 644              		.loc 1 170 0 is_stmt 1
 645 0302 8423     		mov	r3, #132
 646 0304 FB18     		add	r3, r7, r3
 647 0306 1968     		ldr	r1, [r3]
 648 0308 A423     		mov	r3, #164
 649 030a FB18     		add	r3, r7, r3
 650 030c 1A68     		ldr	r2, [r3]
 651 030e FB6F     		ldr	r3, [r7, #124]
 652 0310 081C     		mov	r0, r1
 653 0312 111C     		mov	r1, r2
 654 0314 1A1C     		mov	r2, r3
 655 0316 0223     		mov	r3, #2
 656 0318 FFF7FEFF 		bl	arm_radix4_butterfly_q31
 171:Source\TransformFunctions/arm_cfft_q31.c ****     // second col
 172:Source\TransformFunctions/arm_cfft_q31.c ****     arm_radix4_butterfly_q31( pSrc + fftLen, n2, (q31_t*)pCoef, 2u);
 657              		.loc 1 172 0
 658 031c 8023     		mov	r3, #128
 659 031e FB18     		add	r3, r7, r3
 660 0320 1B68     		ldr	r3, [r3]
 661 0322 9B00     		lsl	r3, r3, #2
 662 0324 8422     		mov	r2, #132
 663 0326 BA18     		add	r2, r7, r2
 664 0328 1268     		ldr	r2, [r2]
 665 032a D118     		add	r1, r2, r3
 666 032c A423     		mov	r3, #164
 667 032e FB18     		add	r3, r7, r3
 668 0330 1A68     		ldr	r2, [r3]
 669 0332 FB6F     		ldr	r3, [r7, #124]
 670 0334 081C     		mov	r0, r1
 671 0336 111C     		mov	r1, r2
 672 0338 1A1C     		mov	r2, r3
 673 033a 0223     		mov	r3, #2
 674 033c FFF7FEFF 		bl	arm_radix4_butterfly_q31
 173:Source\TransformFunctions/arm_cfft_q31.c **** 
 174:Source\TransformFunctions/arm_cfft_q31.c ****     for (i = 0; i < fftLen >> 1; i++)
 675              		.loc 1 174 0
 676 0340 0023     		mov	r3, #0
 677 0342 AC22     		mov	r2, #172
 678 0344 BA18     		add	r2, r7, r2
 679 0346 1360     		str	r3, [r2]
ARM GAS  C:\Users\fneves\AppData\Local\Temp\ccUiFCKc.s 			page 16


 680 0348 88E0     		b	.L19
 681              	.L20:
 175:Source\TransformFunctions/arm_cfft_q31.c ****     {
 176:Source\TransformFunctions/arm_cfft_q31.c ****         p0 = pSrc[4*i+0];
 682              		.loc 1 176 0 discriminator 3
 683 034a AC23     		mov	r3, #172
 684 034c FB18     		add	r3, r7, r3
 685 034e 1B68     		ldr	r3, [r3]
 686 0350 1B01     		lsl	r3, r3, #4
 687 0352 8422     		mov	r2, #132
 688 0354 BA18     		add	r2, r7, r2
 689 0356 1268     		ldr	r2, [r2]
 690 0358 D318     		add	r3, r2, r3
 691 035a 1B68     		ldr	r3, [r3]
 692 035c 8C22     		mov	r2, #140
 693 035e BA18     		add	r2, r7, r2
 694 0360 1360     		str	r3, [r2]
 177:Source\TransformFunctions/arm_cfft_q31.c ****         p1 = pSrc[4*i+1];
 695              		.loc 1 177 0 discriminator 3
 696 0362 AC23     		mov	r3, #172
 697 0364 FB18     		add	r3, r7, r3
 698 0366 1B68     		ldr	r3, [r3]
 699 0368 1B01     		lsl	r3, r3, #4
 700 036a 0433     		add	r3, r3, #4
 701 036c 8422     		mov	r2, #132
 702 036e BA18     		add	r2, r7, r2
 703 0370 1268     		ldr	r2, [r2]
 704 0372 D318     		add	r3, r2, r3
 705 0374 1B68     		ldr	r3, [r3]
 706 0376 8822     		mov	r2, #136
 707 0378 BA18     		add	r2, r7, r2
 708 037a 1360     		str	r3, [r2]
 178:Source\TransformFunctions/arm_cfft_q31.c ****         xt = pSrc[4*i+2];
 709              		.loc 1 178 0 discriminator 3
 710 037c AC23     		mov	r3, #172
 711 037e FB18     		add	r3, r7, r3
 712 0380 1B68     		ldr	r3, [r3]
 713 0382 1B01     		lsl	r3, r3, #4
 714 0384 0833     		add	r3, r3, #8
 715 0386 8422     		mov	r2, #132
 716 0388 BA18     		add	r2, r7, r2
 717 038a 1268     		ldr	r2, [r2]
 718 038c D318     		add	r3, r2, r3
 719 038e 1B68     		ldr	r3, [r3]
 720 0390 9422     		mov	r2, #148
 721 0392 BA18     		add	r2, r7, r2
 722 0394 1360     		str	r3, [r2]
 179:Source\TransformFunctions/arm_cfft_q31.c ****         yt = pSrc[4*i+3];
 723              		.loc 1 179 0 discriminator 3
 724 0396 AC23     		mov	r3, #172
 725 0398 FB18     		add	r3, r7, r3
 726 039a 1B68     		ldr	r3, [r3]
 727 039c 1B01     		lsl	r3, r3, #4
 728 039e 0C33     		add	r3, r3, #12
 729 03a0 8422     		mov	r2, #132
 730 03a2 BA18     		add	r2, r7, r2
 731 03a4 1268     		ldr	r2, [r2]
ARM GAS  C:\Users\fneves\AppData\Local\Temp\ccUiFCKc.s 			page 17


 732 03a6 D318     		add	r3, r2, r3
 733 03a8 1B68     		ldr	r3, [r3]
 734 03aa 9022     		mov	r2, #144
 735 03ac BA18     		add	r2, r7, r2
 736 03ae 1360     		str	r3, [r2]
 180:Source\TransformFunctions/arm_cfft_q31.c **** 
 181:Source\TransformFunctions/arm_cfft_q31.c ****         p0 <<= 1;
 737              		.loc 1 181 0 discriminator 3
 738 03b0 8C23     		mov	r3, #140
 739 03b2 FB18     		add	r3, r7, r3
 740 03b4 1B68     		ldr	r3, [r3]
 741 03b6 5B00     		lsl	r3, r3, #1
 742 03b8 8C22     		mov	r2, #140
 743 03ba BA18     		add	r2, r7, r2
 744 03bc 1360     		str	r3, [r2]
 182:Source\TransformFunctions/arm_cfft_q31.c ****         p1 <<= 1;
 745              		.loc 1 182 0 discriminator 3
 746 03be 8823     		mov	r3, #136
 747 03c0 FB18     		add	r3, r7, r3
 748 03c2 1B68     		ldr	r3, [r3]
 749 03c4 5B00     		lsl	r3, r3, #1
 750 03c6 8822     		mov	r2, #136
 751 03c8 BA18     		add	r2, r7, r2
 752 03ca 1360     		str	r3, [r2]
 183:Source\TransformFunctions/arm_cfft_q31.c ****         xt <<= 1;
 753              		.loc 1 183 0 discriminator 3
 754 03cc 9423     		mov	r3, #148
 755 03ce FB18     		add	r3, r7, r3
 756 03d0 1B68     		ldr	r3, [r3]
 757 03d2 5B00     		lsl	r3, r3, #1
 758 03d4 9422     		mov	r2, #148
 759 03d6 BA18     		add	r2, r7, r2
 760 03d8 1360     		str	r3, [r2]
 184:Source\TransformFunctions/arm_cfft_q31.c ****         yt <<= 1;
 761              		.loc 1 184 0 discriminator 3
 762 03da 9023     		mov	r3, #144
 763 03dc FB18     		add	r3, r7, r3
 764 03de 1B68     		ldr	r3, [r3]
 765 03e0 5B00     		lsl	r3, r3, #1
 766 03e2 9022     		mov	r2, #144
 767 03e4 BA18     		add	r2, r7, r2
 768 03e6 1360     		str	r3, [r2]
 185:Source\TransformFunctions/arm_cfft_q31.c **** 
 186:Source\TransformFunctions/arm_cfft_q31.c ****         pSrc[4*i+0] = p0;
 769              		.loc 1 186 0 discriminator 3
 770 03e8 AC23     		mov	r3, #172
 771 03ea FB18     		add	r3, r7, r3
 772 03ec 1B68     		ldr	r3, [r3]
 773 03ee 1B01     		lsl	r3, r3, #4
 774 03f0 8422     		mov	r2, #132
 775 03f2 BA18     		add	r2, r7, r2
 776 03f4 1268     		ldr	r2, [r2]
 777 03f6 D318     		add	r3, r2, r3
 778 03f8 8C22     		mov	r2, #140
 779 03fa BA18     		add	r2, r7, r2
 780 03fc 1268     		ldr	r2, [r2]
 781 03fe 1A60     		str	r2, [r3]
ARM GAS  C:\Users\fneves\AppData\Local\Temp\ccUiFCKc.s 			page 18


 187:Source\TransformFunctions/arm_cfft_q31.c ****         pSrc[4*i+1] = p1;
 782              		.loc 1 187 0 discriminator 3
 783 0400 AC23     		mov	r3, #172
 784 0402 FB18     		add	r3, r7, r3
 785 0404 1B68     		ldr	r3, [r3]
 786 0406 1B01     		lsl	r3, r3, #4
 787 0408 0433     		add	r3, r3, #4
 788 040a 8422     		mov	r2, #132
 789 040c BA18     		add	r2, r7, r2
 790 040e 1268     		ldr	r2, [r2]
 791 0410 D318     		add	r3, r2, r3
 792 0412 8822     		mov	r2, #136
 793 0414 BA18     		add	r2, r7, r2
 794 0416 1268     		ldr	r2, [r2]
 795 0418 1A60     		str	r2, [r3]
 188:Source\TransformFunctions/arm_cfft_q31.c ****         pSrc[4*i+2] = xt;
 796              		.loc 1 188 0 discriminator 3
 797 041a AC23     		mov	r3, #172
 798 041c FB18     		add	r3, r7, r3
 799 041e 1B68     		ldr	r3, [r3]
 800 0420 1B01     		lsl	r3, r3, #4
 801 0422 0833     		add	r3, r3, #8
 802 0424 8422     		mov	r2, #132
 803 0426 BA18     		add	r2, r7, r2
 804 0428 1268     		ldr	r2, [r2]
 805 042a D318     		add	r3, r2, r3
 806 042c 9422     		mov	r2, #148
 807 042e BA18     		add	r2, r7, r2
 808 0430 1268     		ldr	r2, [r2]
 809 0432 1A60     		str	r2, [r3]
 189:Source\TransformFunctions/arm_cfft_q31.c ****         pSrc[4*i+3] = yt;
 810              		.loc 1 189 0 discriminator 3
 811 0434 AC23     		mov	r3, #172
 812 0436 FB18     		add	r3, r7, r3
 813 0438 1B68     		ldr	r3, [r3]
 814 043a 1B01     		lsl	r3, r3, #4
 815 043c 0C33     		add	r3, r3, #12
 816 043e 8422     		mov	r2, #132
 817 0440 BA18     		add	r2, r7, r2
 818 0442 1268     		ldr	r2, [r2]
 819 0444 D318     		add	r3, r2, r3
 820 0446 9022     		mov	r2, #144
 821 0448 BA18     		add	r2, r7, r2
 822 044a 1268     		ldr	r2, [r2]
 823 044c 1A60     		str	r2, [r3]
 174:Source\TransformFunctions/arm_cfft_q31.c ****     {
 824              		.loc 1 174 0 discriminator 3
 825 044e AC23     		mov	r3, #172
 826 0450 FB18     		add	r3, r7, r3
 827 0452 1B68     		ldr	r3, [r3]
 828 0454 0133     		add	r3, r3, #1
 829 0456 AC22     		mov	r2, #172
 830 0458 BA18     		add	r2, r7, r2
 831 045a 1360     		str	r3, [r2]
 832              	.L19:
 174:Source\TransformFunctions/arm_cfft_q31.c ****     {
 833              		.loc 1 174 0 is_stmt 0 discriminator 1
ARM GAS  C:\Users\fneves\AppData\Local\Temp\ccUiFCKc.s 			page 19


 834 045c 8023     		mov	r3, #128
 835 045e FB18     		add	r3, r7, r3
 836 0460 1B68     		ldr	r3, [r3]
 837 0462 5A08     		lsr	r2, r3, #1
 838 0464 AC23     		mov	r3, #172
 839 0466 FB18     		add	r3, r7, r3
 840 0468 1B68     		ldr	r3, [r3]
 841 046a 9A42     		cmp	r2, r3
 842 046c 00D9     		bls	.LCB776
 843 046e 6CE7     		b	.L20	@long jump
 844              	.LCB776:
 190:Source\TransformFunctions/arm_cfft_q31.c ****     }
 191:Source\TransformFunctions/arm_cfft_q31.c **** 
 192:Source\TransformFunctions/arm_cfft_q31.c **** }
 845              		.loc 1 192 0 is_stmt 1
 846 0470 BD46     		mov	sp, r7
 847 0472 2DB0     		add	sp, sp, #180
 848              		@ sp needed
 849 0474 F0BD     		pop	{r4, r5, r6, r7, pc}
 850              		.cfi_endproc
 851              	.LFE83:
 852              		.size	arm_cfft_radix4by2_q31, .-arm_cfft_radix4by2_q31
 853 0476 C046     		.section	.text.arm_cfft_radix4by2_inverse_q31,"ax",%progbits
 854              		.align	2
 855              		.global	arm_cfft_radix4by2_inverse_q31
 856              		.code	16
 857              		.thumb_func
 858              		.type	arm_cfft_radix4by2_inverse_q31, %function
 859              	arm_cfft_radix4by2_inverse_q31:
 860              	.LFB84:
 193:Source\TransformFunctions/arm_cfft_q31.c **** 
 194:Source\TransformFunctions/arm_cfft_q31.c **** void arm_cfft_radix4by2_inverse_q31(
 195:Source\TransformFunctions/arm_cfft_q31.c ****     q31_t * pSrc,
 196:Source\TransformFunctions/arm_cfft_q31.c ****     uint32_t fftLen,
 197:Source\TransformFunctions/arm_cfft_q31.c ****     const q31_t * pCoef)
 198:Source\TransformFunctions/arm_cfft_q31.c **** {
 861              		.loc 1 198 0
 862              		.cfi_startproc
 863 0000 F0B5     		push	{r4, r5, r6, r7, lr}
 864              		.cfi_def_cfa_offset 20
 865              		.cfi_offset 4, -20
 866              		.cfi_offset 5, -16
 867              		.cfi_offset 6, -12
 868              		.cfi_offset 7, -8
 869              		.cfi_offset 14, -4
 870 0002 ADB0     		sub	sp, sp, #180
 871              		.cfi_def_cfa_offset 200
 872 0004 00AF     		add	r7, sp, #0
 873              		.cfi_def_cfa_register 7
 874 0006 8423     		mov	r3, #132
 875 0008 FB18     		add	r3, r7, r3
 876 000a 1860     		str	r0, [r3]
 877 000c 8023     		mov	r3, #128
 878 000e FB18     		add	r3, r7, r3
 879 0010 1960     		str	r1, [r3]
 880 0012 FA67     		str	r2, [r7, #124]
 199:Source\TransformFunctions/arm_cfft_q31.c ****     uint32_t i, l;
ARM GAS  C:\Users\fneves\AppData\Local\Temp\ccUiFCKc.s 			page 20


 200:Source\TransformFunctions/arm_cfft_q31.c ****     uint32_t n2, ia;
 201:Source\TransformFunctions/arm_cfft_q31.c ****     q31_t xt, yt, cosVal, sinVal;
 202:Source\TransformFunctions/arm_cfft_q31.c ****     q31_t p0, p1;
 203:Source\TransformFunctions/arm_cfft_q31.c **** 
 204:Source\TransformFunctions/arm_cfft_q31.c ****     n2 = fftLen >> 1;
 881              		.loc 1 204 0
 882 0014 8023     		mov	r3, #128
 883 0016 FB18     		add	r3, r7, r3
 884 0018 1B68     		ldr	r3, [r3]
 885 001a 5B08     		lsr	r3, r3, #1
 886 001c A422     		mov	r2, #164
 887 001e BA18     		add	r2, r7, r2
 888 0020 1360     		str	r3, [r2]
 205:Source\TransformFunctions/arm_cfft_q31.c ****     ia = 0;
 889              		.loc 1 205 0
 890 0022 0023     		mov	r3, #0
 891 0024 A822     		mov	r2, #168
 892 0026 BA18     		add	r2, r7, r2
 893 0028 1360     		str	r3, [r2]
 206:Source\TransformFunctions/arm_cfft_q31.c ****     for (i = 0; i < n2; i++)
 894              		.loc 1 206 0
 895 002a 0023     		mov	r3, #0
 896 002c AC22     		mov	r2, #172
 897 002e BA18     		add	r2, r7, r2
 898 0030 1360     		str	r3, [r2]
 899 0032 5DE1     		b	.L22
 900              	.L23:
 207:Source\TransformFunctions/arm_cfft_q31.c ****     {
 208:Source\TransformFunctions/arm_cfft_q31.c ****         cosVal = pCoef[2*ia];
 901              		.loc 1 208 0 discriminator 3
 902 0034 A823     		mov	r3, #168
 903 0036 FB18     		add	r3, r7, r3
 904 0038 1B68     		ldr	r3, [r3]
 905 003a DA00     		lsl	r2, r3, #3
 906 003c FB6F     		ldr	r3, [r7, #124]
 907 003e 9B18     		add	r3, r3, r2
 908 0040 1B68     		ldr	r3, [r3]
 909 0042 A022     		mov	r2, #160
 910 0044 BA18     		add	r2, r7, r2
 911 0046 1360     		str	r3, [r2]
 209:Source\TransformFunctions/arm_cfft_q31.c ****         sinVal = pCoef[2*ia + 1];
 912              		.loc 1 209 0 discriminator 3
 913 0048 A823     		mov	r3, #168
 914 004a FB18     		add	r3, r7, r3
 915 004c 1B68     		ldr	r3, [r3]
 916 004e DB00     		lsl	r3, r3, #3
 917 0050 1A1D     		add	r2, r3, #4
 918 0052 FB6F     		ldr	r3, [r7, #124]
 919 0054 9B18     		add	r3, r3, r2
 920 0056 1B68     		ldr	r3, [r3]
 921 0058 9C22     		mov	r2, #156
 922 005a BA18     		add	r2, r7, r2
 923 005c 1360     		str	r3, [r2]
 210:Source\TransformFunctions/arm_cfft_q31.c ****         ia++;
 924              		.loc 1 210 0 discriminator 3
 925 005e A823     		mov	r3, #168
 926 0060 FB18     		add	r3, r7, r3
ARM GAS  C:\Users\fneves\AppData\Local\Temp\ccUiFCKc.s 			page 21


 927 0062 1B68     		ldr	r3, [r3]
 928 0064 0133     		add	r3, r3, #1
 929 0066 A822     		mov	r2, #168
 930 0068 BA18     		add	r2, r7, r2
 931 006a 1360     		str	r3, [r2]
 211:Source\TransformFunctions/arm_cfft_q31.c **** 
 212:Source\TransformFunctions/arm_cfft_q31.c ****         l = i + n2;
 932              		.loc 1 212 0 discriminator 3
 933 006c AC23     		mov	r3, #172
 934 006e FB18     		add	r3, r7, r3
 935 0070 1A68     		ldr	r2, [r3]
 936 0072 A423     		mov	r3, #164
 937 0074 FB18     		add	r3, r7, r3
 938 0076 1B68     		ldr	r3, [r3]
 939 0078 D318     		add	r3, r2, r3
 940 007a 9822     		mov	r2, #152
 941 007c BA18     		add	r2, r7, r2
 942 007e 1360     		str	r3, [r2]
 213:Source\TransformFunctions/arm_cfft_q31.c ****         xt = (pSrc[2 * i] >> 2) - (pSrc[2 * l] >> 2);
 943              		.loc 1 213 0 discriminator 3
 944 0080 AC23     		mov	r3, #172
 945 0082 FB18     		add	r3, r7, r3
 946 0084 1B68     		ldr	r3, [r3]
 947 0086 DA00     		lsl	r2, r3, #3
 948 0088 8423     		mov	r3, #132
 949 008a FB18     		add	r3, r7, r3
 950 008c 1B68     		ldr	r3, [r3]
 951 008e 9B18     		add	r3, r3, r2
 952 0090 1B68     		ldr	r3, [r3]
 953 0092 9910     		asr	r1, r3, #2
 954 0094 9823     		mov	r3, #152
 955 0096 FB18     		add	r3, r7, r3
 956 0098 1B68     		ldr	r3, [r3]
 957 009a DA00     		lsl	r2, r3, #3
 958 009c 8423     		mov	r3, #132
 959 009e FB18     		add	r3, r7, r3
 960 00a0 1B68     		ldr	r3, [r3]
 961 00a2 9B18     		add	r3, r3, r2
 962 00a4 1B68     		ldr	r3, [r3]
 963 00a6 9B10     		asr	r3, r3, #2
 964 00a8 CB1A     		sub	r3, r1, r3
 965 00aa 9422     		mov	r2, #148
 966 00ac BA18     		add	r2, r7, r2
 967 00ae 1360     		str	r3, [r2]
 214:Source\TransformFunctions/arm_cfft_q31.c ****         pSrc[2 * i] = (pSrc[2 * i] >> 2) + (pSrc[2 * l] >> 2);
 968              		.loc 1 214 0 discriminator 3
 969 00b0 AC23     		mov	r3, #172
 970 00b2 FB18     		add	r3, r7, r3
 971 00b4 1B68     		ldr	r3, [r3]
 972 00b6 DA00     		lsl	r2, r3, #3
 973 00b8 8423     		mov	r3, #132
 974 00ba FB18     		add	r3, r7, r3
 975 00bc 1B68     		ldr	r3, [r3]
 976 00be 9818     		add	r0, r3, r2
 977 00c0 AC23     		mov	r3, #172
 978 00c2 FB18     		add	r3, r7, r3
 979 00c4 1B68     		ldr	r3, [r3]
ARM GAS  C:\Users\fneves\AppData\Local\Temp\ccUiFCKc.s 			page 22


 980 00c6 DA00     		lsl	r2, r3, #3
 981 00c8 8423     		mov	r3, #132
 982 00ca FB18     		add	r3, r7, r3
 983 00cc 1B68     		ldr	r3, [r3]
 984 00ce 9B18     		add	r3, r3, r2
 985 00d0 1B68     		ldr	r3, [r3]
 986 00d2 9910     		asr	r1, r3, #2
 987 00d4 9823     		mov	r3, #152
 988 00d6 FB18     		add	r3, r7, r3
 989 00d8 1B68     		ldr	r3, [r3]
 990 00da DA00     		lsl	r2, r3, #3
 991 00dc 8423     		mov	r3, #132
 992 00de FB18     		add	r3, r7, r3
 993 00e0 1B68     		ldr	r3, [r3]
 994 00e2 9B18     		add	r3, r3, r2
 995 00e4 1B68     		ldr	r3, [r3]
 996 00e6 9B10     		asr	r3, r3, #2
 997 00e8 CB18     		add	r3, r1, r3
 998 00ea 0360     		str	r3, [r0]
 215:Source\TransformFunctions/arm_cfft_q31.c **** 
 216:Source\TransformFunctions/arm_cfft_q31.c ****         yt = (pSrc[2 * i + 1] >> 2) - (pSrc[2 * l + 1] >> 2);
 999              		.loc 1 216 0 discriminator 3
 1000 00ec AC23     		mov	r3, #172
 1001 00ee FB18     		add	r3, r7, r3
 1002 00f0 1B68     		ldr	r3, [r3]
 1003 00f2 DB00     		lsl	r3, r3, #3
 1004 00f4 1A1D     		add	r2, r3, #4
 1005 00f6 8423     		mov	r3, #132
 1006 00f8 FB18     		add	r3, r7, r3
 1007 00fa 1B68     		ldr	r3, [r3]
 1008 00fc 9B18     		add	r3, r3, r2
 1009 00fe 1B68     		ldr	r3, [r3]
 1010 0100 9910     		asr	r1, r3, #2
 1011 0102 9823     		mov	r3, #152
 1012 0104 FB18     		add	r3, r7, r3
 1013 0106 1B68     		ldr	r3, [r3]
 1014 0108 DB00     		lsl	r3, r3, #3
 1015 010a 1A1D     		add	r2, r3, #4
 1016 010c 8423     		mov	r3, #132
 1017 010e FB18     		add	r3, r7, r3
 1018 0110 1B68     		ldr	r3, [r3]
 1019 0112 9B18     		add	r3, r3, r2
 1020 0114 1B68     		ldr	r3, [r3]
 1021 0116 9B10     		asr	r3, r3, #2
 1022 0118 CB1A     		sub	r3, r1, r3
 1023 011a 9022     		mov	r2, #144
 1024 011c BA18     		add	r2, r7, r2
 1025 011e 1360     		str	r3, [r2]
 217:Source\TransformFunctions/arm_cfft_q31.c ****         pSrc[2 * i + 1] = (pSrc[2 * l + 1] >> 2) + (pSrc[2 * i + 1] >> 2);
 1026              		.loc 1 217 0 discriminator 3
 1027 0120 AC23     		mov	r3, #172
 1028 0122 FB18     		add	r3, r7, r3
 1029 0124 1B68     		ldr	r3, [r3]
 1030 0126 DB00     		lsl	r3, r3, #3
 1031 0128 1A1D     		add	r2, r3, #4
 1032 012a 8423     		mov	r3, #132
 1033 012c FB18     		add	r3, r7, r3
ARM GAS  C:\Users\fneves\AppData\Local\Temp\ccUiFCKc.s 			page 23


 1034 012e 1B68     		ldr	r3, [r3]
 1035 0130 9818     		add	r0, r3, r2
 1036 0132 9823     		mov	r3, #152
 1037 0134 FB18     		add	r3, r7, r3
 1038 0136 1B68     		ldr	r3, [r3]
 1039 0138 DB00     		lsl	r3, r3, #3
 1040 013a 1A1D     		add	r2, r3, #4
 1041 013c 8423     		mov	r3, #132
 1042 013e FB18     		add	r3, r7, r3
 1043 0140 1B68     		ldr	r3, [r3]
 1044 0142 9B18     		add	r3, r3, r2
 1045 0144 1B68     		ldr	r3, [r3]
 1046 0146 9910     		asr	r1, r3, #2
 1047 0148 AC23     		mov	r3, #172
 1048 014a FB18     		add	r3, r7, r3
 1049 014c 1B68     		ldr	r3, [r3]
 1050 014e DB00     		lsl	r3, r3, #3
 1051 0150 1A1D     		add	r2, r3, #4
 1052 0152 8423     		mov	r3, #132
 1053 0154 FB18     		add	r3, r7, r3
 1054 0156 1B68     		ldr	r3, [r3]
 1055 0158 9B18     		add	r3, r3, r2
 1056 015a 1B68     		ldr	r3, [r3]
 1057 015c 9B10     		asr	r3, r3, #2
 1058 015e CB18     		add	r3, r1, r3
 1059 0160 0360     		str	r3, [r0]
 218:Source\TransformFunctions/arm_cfft_q31.c **** 
 219:Source\TransformFunctions/arm_cfft_q31.c ****         mult_32x32_keep32_R(p0, xt, cosVal);
 1060              		.loc 1 219 0 discriminator 3
 1061 0162 9423     		mov	r3, #148
 1062 0164 FB18     		add	r3, r7, r3
 1063 0166 1B68     		ldr	r3, [r3]
 1064 0168 3B67     		str	r3, [r7, #112]
 1065 016a DB17     		asr	r3, r3, #31
 1066 016c 7B67     		str	r3, [r7, #116]
 1067 016e A023     		mov	r3, #160
 1068 0170 FB18     		add	r3, r7, r3
 1069 0172 1B68     		ldr	r3, [r3]
 1070 0174 BB66     		str	r3, [r7, #104]
 1071 0176 DB17     		asr	r3, r3, #31
 1072 0178 FB66     		str	r3, [r7, #108]
 1073 017a 386F     		ldr	r0, [r7, #112]
 1074 017c 796F     		ldr	r1, [r7, #116]
 1075 017e BA6E     		ldr	r2, [r7, #104]
 1076 0180 FB6E     		ldr	r3, [r7, #108]
 1077 0182 FFF7FEFF 		bl	__aeabi_lmul
 1078 0186 031C     		mov	r3, r0
 1079 0188 0C1C     		mov	r4, r1
 1080 018a 191C     		mov	r1, r3
 1081 018c 221C     		mov	r2, r4
 1082 018e 8023     		mov	r3, #128
 1083 0190 1B06     		lsl	r3, r3, #24
 1084 0192 0024     		mov	r4, #0
 1085 0194 5B18     		add	r3, r3, r1
 1086 0196 5441     		adc	r4, r4, r2
 1087 0198 2200     		asr	r2, r4, #0
 1088 019a 3A66     		str	r2, [r7, #96]
ARM GAS  C:\Users\fneves\AppData\Local\Temp\ccUiFCKc.s 			page 24


 1089 019c E317     		asr	r3, r4, #31
 1090 019e 7B66     		str	r3, [r7, #100]
 1091 01a0 3B6E     		ldr	r3, [r7, #96]
 1092 01a2 8C22     		mov	r2, #140
 1093 01a4 BA18     		add	r2, r7, r2
 1094 01a6 1360     		str	r3, [r2]
 220:Source\TransformFunctions/arm_cfft_q31.c ****         mult_32x32_keep32_R(p1, yt, cosVal);
 1095              		.loc 1 220 0 discriminator 3
 1096 01a8 9023     		mov	r3, #144
 1097 01aa FB18     		add	r3, r7, r3
 1098 01ac 1B68     		ldr	r3, [r3]
 1099 01ae BB65     		str	r3, [r7, #88]
 1100 01b0 DB17     		asr	r3, r3, #31
 1101 01b2 FB65     		str	r3, [r7, #92]
 1102 01b4 A023     		mov	r3, #160
 1103 01b6 FB18     		add	r3, r7, r3
 1104 01b8 1B68     		ldr	r3, [r3]
 1105 01ba 3B65     		str	r3, [r7, #80]
 1106 01bc DB17     		asr	r3, r3, #31
 1107 01be 7B65     		str	r3, [r7, #84]
 1108 01c0 B86D     		ldr	r0, [r7, #88]
 1109 01c2 F96D     		ldr	r1, [r7, #92]
 1110 01c4 3A6D     		ldr	r2, [r7, #80]
 1111 01c6 7B6D     		ldr	r3, [r7, #84]
 1112 01c8 FFF7FEFF 		bl	__aeabi_lmul
 1113 01cc 031C     		mov	r3, r0
 1114 01ce 0C1C     		mov	r4, r1
 1115 01d0 191C     		mov	r1, r3
 1116 01d2 221C     		mov	r2, r4
 1117 01d4 8023     		mov	r3, #128
 1118 01d6 1B06     		lsl	r3, r3, #24
 1119 01d8 0024     		mov	r4, #0
 1120 01da 5B18     		add	r3, r3, r1
 1121 01dc 5441     		adc	r4, r4, r2
 1122 01de 2200     		asr	r2, r4, #0
 1123 01e0 BA64     		str	r2, [r7, #72]
 1124 01e2 E317     		asr	r3, r4, #31
 1125 01e4 FB64     		str	r3, [r7, #76]
 1126 01e6 BB6C     		ldr	r3, [r7, #72]
 1127 01e8 8822     		mov	r2, #136
 1128 01ea BA18     		add	r2, r7, r2
 1129 01ec 1360     		str	r3, [r2]
 221:Source\TransformFunctions/arm_cfft_q31.c ****         multSub_32x32_keep32_R(p0, yt, sinVal);
 1130              		.loc 1 221 0 discriminator 3
 1131 01ee 8C23     		mov	r3, #140
 1132 01f0 FB18     		add	r3, r7, r3
 1133 01f2 1B68     		ldr	r3, [r3]
 1134 01f4 3B64     		str	r3, [r7, #64]
 1135 01f6 DB17     		asr	r3, r3, #31
 1136 01f8 7B64     		str	r3, [r7, #68]
 1137 01fa 3B6C     		ldr	r3, [r7, #64]
 1138 01fc 1B00     		lsl	r3, r3, #0
 1139 01fe FB63     		str	r3, [r7, #60]
 1140 0200 0023     		mov	r3, #0
 1141 0202 BB63     		str	r3, [r7, #56]
 1142 0204 9023     		mov	r3, #144
 1143 0206 FB18     		add	r3, r7, r3
ARM GAS  C:\Users\fneves\AppData\Local\Temp\ccUiFCKc.s 			page 25


 1144 0208 1B68     		ldr	r3, [r3]
 1145 020a 3B63     		str	r3, [r7, #48]
 1146 020c DB17     		asr	r3, r3, #31
 1147 020e 7B63     		str	r3, [r7, #52]
 1148 0210 9C23     		mov	r3, #156
 1149 0212 FB18     		add	r3, r7, r3
 1150 0214 1B68     		ldr	r3, [r3]
 1151 0216 BB62     		str	r3, [r7, #40]
 1152 0218 DB17     		asr	r3, r3, #31
 1153 021a FB62     		str	r3, [r7, #44]
 1154 021c 386B     		ldr	r0, [r7, #48]
 1155 021e 796B     		ldr	r1, [r7, #52]
 1156 0220 BA6A     		ldr	r2, [r7, #40]
 1157 0222 FB6A     		ldr	r3, [r7, #44]
 1158 0224 FFF7FEFF 		bl	__aeabi_lmul
 1159 0228 031C     		mov	r3, r0
 1160 022a 0C1C     		mov	r4, r1
 1161 022c B96B     		ldr	r1, [r7, #56]
 1162 022e FA6B     		ldr	r2, [r7, #60]
 1163 0230 C91A     		sub	r1, r1, r3
 1164 0232 A241     		sbc	r2, r2, r4
 1165 0234 8023     		mov	r3, #128
 1166 0236 1B06     		lsl	r3, r3, #24
 1167 0238 0024     		mov	r4, #0
 1168 023a 5B18     		add	r3, r3, r1
 1169 023c 5441     		adc	r4, r4, r2
 1170 023e 2200     		asr	r2, r4, #0
 1171 0240 3A62     		str	r2, [r7, #32]
 1172 0242 E317     		asr	r3, r4, #31
 1173 0244 7B62     		str	r3, [r7, #36]
 1174 0246 3B6A     		ldr	r3, [r7, #32]
 1175 0248 8C22     		mov	r2, #140
 1176 024a BA18     		add	r2, r7, r2
 1177 024c 1360     		str	r3, [r2]
 222:Source\TransformFunctions/arm_cfft_q31.c ****         multAcc_32x32_keep32_R(p1, xt, sinVal);
 1178              		.loc 1 222 0 discriminator 3
 1179 024e 8823     		mov	r3, #136
 1180 0250 FB18     		add	r3, r7, r3
 1181 0252 1B68     		ldr	r3, [r3]
 1182 0254 BB61     		str	r3, [r7, #24]
 1183 0256 DB17     		asr	r3, r3, #31
 1184 0258 FB61     		str	r3, [r7, #28]
 1185 025a BB69     		ldr	r3, [r7, #24]
 1186 025c 1E00     		lsl	r6, r3, #0
 1187 025e 0023     		mov	r3, #0
 1188 0260 1D1C     		mov	r5, r3
 1189 0262 9423     		mov	r3, #148
 1190 0264 FB18     		add	r3, r7, r3
 1191 0266 1B68     		ldr	r3, [r3]
 1192 0268 3B61     		str	r3, [r7, #16]
 1193 026a DB17     		asr	r3, r3, #31
 1194 026c 7B61     		str	r3, [r7, #20]
 1195 026e 9C23     		mov	r3, #156
 1196 0270 FB18     		add	r3, r7, r3
 1197 0272 1B68     		ldr	r3, [r3]
 1198 0274 BB60     		str	r3, [r7, #8]
 1199 0276 DB17     		asr	r3, r3, #31
ARM GAS  C:\Users\fneves\AppData\Local\Temp\ccUiFCKc.s 			page 26


 1200 0278 FB60     		str	r3, [r7, #12]
 1201 027a 3869     		ldr	r0, [r7, #16]
 1202 027c 7969     		ldr	r1, [r7, #20]
 1203 027e BA68     		ldr	r2, [r7, #8]
 1204 0280 FB68     		ldr	r3, [r7, #12]
 1205 0282 FFF7FEFF 		bl	__aeabi_lmul
 1206 0286 031C     		mov	r3, r0
 1207 0288 0C1C     		mov	r4, r1
 1208 028a 5B19     		add	r3, r3, r5
 1209 028c 7441     		adc	r4, r4, r6
 1210 028e 191C     		mov	r1, r3
 1211 0290 221C     		mov	r2, r4
 1212 0292 8023     		mov	r3, #128
 1213 0294 1B06     		lsl	r3, r3, #24
 1214 0296 0024     		mov	r4, #0
 1215 0298 5B18     		add	r3, r3, r1
 1216 029a 5441     		adc	r4, r4, r2
 1217 029c 2200     		asr	r2, r4, #0
 1218 029e 3A60     		str	r2, [r7]
 1219 02a0 E317     		asr	r3, r4, #31
 1220 02a2 7B60     		str	r3, [r7, #4]
 1221 02a4 3B68     		ldr	r3, [r7]
 1222 02a6 8822     		mov	r2, #136
 1223 02a8 BA18     		add	r2, r7, r2
 1224 02aa 1360     		str	r3, [r2]
 223:Source\TransformFunctions/arm_cfft_q31.c **** 
 224:Source\TransformFunctions/arm_cfft_q31.c ****         pSrc[2u * l] = p0 << 1;
 1225              		.loc 1 224 0 discriminator 3
 1226 02ac 9823     		mov	r3, #152
 1227 02ae FB18     		add	r3, r7, r3
 1228 02b0 1B68     		ldr	r3, [r3]
 1229 02b2 DA00     		lsl	r2, r3, #3
 1230 02b4 8423     		mov	r3, #132
 1231 02b6 FB18     		add	r3, r7, r3
 1232 02b8 1B68     		ldr	r3, [r3]
 1233 02ba 9A18     		add	r2, r3, r2
 1234 02bc 8C23     		mov	r3, #140
 1235 02be FB18     		add	r3, r7, r3
 1236 02c0 1B68     		ldr	r3, [r3]
 1237 02c2 5B00     		lsl	r3, r3, #1
 1238 02c4 1360     		str	r3, [r2]
 225:Source\TransformFunctions/arm_cfft_q31.c ****         pSrc[2u * l + 1u] = p1 << 1;
 1239              		.loc 1 225 0 discriminator 3
 1240 02c6 9823     		mov	r3, #152
 1241 02c8 FB18     		add	r3, r7, r3
 1242 02ca 1B68     		ldr	r3, [r3]
 1243 02cc DB00     		lsl	r3, r3, #3
 1244 02ce 1A1D     		add	r2, r3, #4
 1245 02d0 8423     		mov	r3, #132
 1246 02d2 FB18     		add	r3, r7, r3
 1247 02d4 1B68     		ldr	r3, [r3]
 1248 02d6 9A18     		add	r2, r3, r2
 1249 02d8 8823     		mov	r3, #136
 1250 02da FB18     		add	r3, r7, r3
 1251 02dc 1B68     		ldr	r3, [r3]
 1252 02de 5B00     		lsl	r3, r3, #1
 1253 02e0 1360     		str	r3, [r2]
ARM GAS  C:\Users\fneves\AppData\Local\Temp\ccUiFCKc.s 			page 27


 206:Source\TransformFunctions/arm_cfft_q31.c ****     {
 1254              		.loc 1 206 0 discriminator 3
 1255 02e2 AC23     		mov	r3, #172
 1256 02e4 FB18     		add	r3, r7, r3
 1257 02e6 1B68     		ldr	r3, [r3]
 1258 02e8 0133     		add	r3, r3, #1
 1259 02ea AC22     		mov	r2, #172
 1260 02ec BA18     		add	r2, r7, r2
 1261 02ee 1360     		str	r3, [r2]
 1262              	.L22:
 206:Source\TransformFunctions/arm_cfft_q31.c ****     {
 1263              		.loc 1 206 0 is_stmt 0 discriminator 1
 1264 02f0 AC23     		mov	r3, #172
 1265 02f2 FB18     		add	r3, r7, r3
 1266 02f4 1A68     		ldr	r2, [r3]
 1267 02f6 A423     		mov	r3, #164
 1268 02f8 FB18     		add	r3, r7, r3
 1269 02fa 1B68     		ldr	r3, [r3]
 1270 02fc 9A42     		cmp	r2, r3
 1271 02fe 00D2     		bcs	.LCB1170
 1272 0300 98E6     		b	.L23	@long jump
 1273              	.LCB1170:
 226:Source\TransformFunctions/arm_cfft_q31.c **** 
 227:Source\TransformFunctions/arm_cfft_q31.c ****     }
 228:Source\TransformFunctions/arm_cfft_q31.c **** 
 229:Source\TransformFunctions/arm_cfft_q31.c ****     // first col
 230:Source\TransformFunctions/arm_cfft_q31.c ****     arm_radix4_butterfly_inverse_q31( pSrc, n2, (q31_t*)pCoef, 2u);
 1274              		.loc 1 230 0 is_stmt 1
 1275 0302 8423     		mov	r3, #132
 1276 0304 FB18     		add	r3, r7, r3
 1277 0306 1968     		ldr	r1, [r3]
 1278 0308 A423     		mov	r3, #164
 1279 030a FB18     		add	r3, r7, r3
 1280 030c 1A68     		ldr	r2, [r3]
 1281 030e FB6F     		ldr	r3, [r7, #124]
 1282 0310 081C     		mov	r0, r1
 1283 0312 111C     		mov	r1, r2
 1284 0314 1A1C     		mov	r2, r3
 1285 0316 0223     		mov	r3, #2
 1286 0318 FFF7FEFF 		bl	arm_radix4_butterfly_inverse_q31
 231:Source\TransformFunctions/arm_cfft_q31.c ****     // second col
 232:Source\TransformFunctions/arm_cfft_q31.c ****     arm_radix4_butterfly_inverse_q31( pSrc + fftLen, n2, (q31_t*)pCoef, 2u);
 1287              		.loc 1 232 0
 1288 031c 8023     		mov	r3, #128
 1289 031e FB18     		add	r3, r7, r3
 1290 0320 1B68     		ldr	r3, [r3]
 1291 0322 9B00     		lsl	r3, r3, #2
 1292 0324 8422     		mov	r2, #132
 1293 0326 BA18     		add	r2, r7, r2
 1294 0328 1268     		ldr	r2, [r2]
 1295 032a D118     		add	r1, r2, r3
 1296 032c A423     		mov	r3, #164
 1297 032e FB18     		add	r3, r7, r3
 1298 0330 1A68     		ldr	r2, [r3]
 1299 0332 FB6F     		ldr	r3, [r7, #124]
 1300 0334 081C     		mov	r0, r1
 1301 0336 111C     		mov	r1, r2
ARM GAS  C:\Users\fneves\AppData\Local\Temp\ccUiFCKc.s 			page 28


 1302 0338 1A1C     		mov	r2, r3
 1303 033a 0223     		mov	r3, #2
 1304 033c FFF7FEFF 		bl	arm_radix4_butterfly_inverse_q31
 233:Source\TransformFunctions/arm_cfft_q31.c **** 
 234:Source\TransformFunctions/arm_cfft_q31.c ****     for (i = 0; i < fftLen >> 1; i++)
 1305              		.loc 1 234 0
 1306 0340 0023     		mov	r3, #0
 1307 0342 AC22     		mov	r2, #172
 1308 0344 BA18     		add	r2, r7, r2
 1309 0346 1360     		str	r3, [r2]
 1310 0348 88E0     		b	.L24
 1311              	.L25:
 235:Source\TransformFunctions/arm_cfft_q31.c ****     {
 236:Source\TransformFunctions/arm_cfft_q31.c ****         p0 = pSrc[4*i+0];
 1312              		.loc 1 236 0 discriminator 3
 1313 034a AC23     		mov	r3, #172
 1314 034c FB18     		add	r3, r7, r3
 1315 034e 1B68     		ldr	r3, [r3]
 1316 0350 1B01     		lsl	r3, r3, #4
 1317 0352 8422     		mov	r2, #132
 1318 0354 BA18     		add	r2, r7, r2
 1319 0356 1268     		ldr	r2, [r2]
 1320 0358 D318     		add	r3, r2, r3
 1321 035a 1B68     		ldr	r3, [r3]
 1322 035c 8C22     		mov	r2, #140
 1323 035e BA18     		add	r2, r7, r2
 1324 0360 1360     		str	r3, [r2]
 237:Source\TransformFunctions/arm_cfft_q31.c ****         p1 = pSrc[4*i+1];
 1325              		.loc 1 237 0 discriminator 3
 1326 0362 AC23     		mov	r3, #172
 1327 0364 FB18     		add	r3, r7, r3
 1328 0366 1B68     		ldr	r3, [r3]
 1329 0368 1B01     		lsl	r3, r3, #4
 1330 036a 0433     		add	r3, r3, #4
 1331 036c 8422     		mov	r2, #132
 1332 036e BA18     		add	r2, r7, r2
 1333 0370 1268     		ldr	r2, [r2]
 1334 0372 D318     		add	r3, r2, r3
 1335 0374 1B68     		ldr	r3, [r3]
 1336 0376 8822     		mov	r2, #136
 1337 0378 BA18     		add	r2, r7, r2
 1338 037a 1360     		str	r3, [r2]
 238:Source\TransformFunctions/arm_cfft_q31.c ****         xt = pSrc[4*i+2];
 1339              		.loc 1 238 0 discriminator 3
 1340 037c AC23     		mov	r3, #172
 1341 037e FB18     		add	r3, r7, r3
 1342 0380 1B68     		ldr	r3, [r3]
 1343 0382 1B01     		lsl	r3, r3, #4
 1344 0384 0833     		add	r3, r3, #8
 1345 0386 8422     		mov	r2, #132
 1346 0388 BA18     		add	r2, r7, r2
 1347 038a 1268     		ldr	r2, [r2]
 1348 038c D318     		add	r3, r2, r3
 1349 038e 1B68     		ldr	r3, [r3]
 1350 0390 9422     		mov	r2, #148
 1351 0392 BA18     		add	r2, r7, r2
 1352 0394 1360     		str	r3, [r2]
ARM GAS  C:\Users\fneves\AppData\Local\Temp\ccUiFCKc.s 			page 29


 239:Source\TransformFunctions/arm_cfft_q31.c ****         yt = pSrc[4*i+3];
 1353              		.loc 1 239 0 discriminator 3
 1354 0396 AC23     		mov	r3, #172
 1355 0398 FB18     		add	r3, r7, r3
 1356 039a 1B68     		ldr	r3, [r3]
 1357 039c 1B01     		lsl	r3, r3, #4
 1358 039e 0C33     		add	r3, r3, #12
 1359 03a0 8422     		mov	r2, #132
 1360 03a2 BA18     		add	r2, r7, r2
 1361 03a4 1268     		ldr	r2, [r2]
 1362 03a6 D318     		add	r3, r2, r3
 1363 03a8 1B68     		ldr	r3, [r3]
 1364 03aa 9022     		mov	r2, #144
 1365 03ac BA18     		add	r2, r7, r2
 1366 03ae 1360     		str	r3, [r2]
 240:Source\TransformFunctions/arm_cfft_q31.c **** 
 241:Source\TransformFunctions/arm_cfft_q31.c ****         p0 <<= 1;
 1367              		.loc 1 241 0 discriminator 3
 1368 03b0 8C23     		mov	r3, #140
 1369 03b2 FB18     		add	r3, r7, r3
 1370 03b4 1B68     		ldr	r3, [r3]
 1371 03b6 5B00     		lsl	r3, r3, #1
 1372 03b8 8C22     		mov	r2, #140
 1373 03ba BA18     		add	r2, r7, r2
 1374 03bc 1360     		str	r3, [r2]
 242:Source\TransformFunctions/arm_cfft_q31.c ****         p1 <<= 1;
 1375              		.loc 1 242 0 discriminator 3
 1376 03be 8823     		mov	r3, #136
 1377 03c0 FB18     		add	r3, r7, r3
 1378 03c2 1B68     		ldr	r3, [r3]
 1379 03c4 5B00     		lsl	r3, r3, #1
 1380 03c6 8822     		mov	r2, #136
 1381 03c8 BA18     		add	r2, r7, r2
 1382 03ca 1360     		str	r3, [r2]
 243:Source\TransformFunctions/arm_cfft_q31.c ****         xt <<= 1;
 1383              		.loc 1 243 0 discriminator 3
 1384 03cc 9423     		mov	r3, #148
 1385 03ce FB18     		add	r3, r7, r3
 1386 03d0 1B68     		ldr	r3, [r3]
 1387 03d2 5B00     		lsl	r3, r3, #1
 1388 03d4 9422     		mov	r2, #148
 1389 03d6 BA18     		add	r2, r7, r2
 1390 03d8 1360     		str	r3, [r2]
 244:Source\TransformFunctions/arm_cfft_q31.c ****         yt <<= 1;
 1391              		.loc 1 244 0 discriminator 3
 1392 03da 9023     		mov	r3, #144
 1393 03dc FB18     		add	r3, r7, r3
 1394 03de 1B68     		ldr	r3, [r3]
 1395 03e0 5B00     		lsl	r3, r3, #1
 1396 03e2 9022     		mov	r2, #144
 1397 03e4 BA18     		add	r2, r7, r2
 1398 03e6 1360     		str	r3, [r2]
 245:Source\TransformFunctions/arm_cfft_q31.c **** 
 246:Source\TransformFunctions/arm_cfft_q31.c ****         pSrc[4*i+0] = p0;
 1399              		.loc 1 246 0 discriminator 3
 1400 03e8 AC23     		mov	r3, #172
 1401 03ea FB18     		add	r3, r7, r3
ARM GAS  C:\Users\fneves\AppData\Local\Temp\ccUiFCKc.s 			page 30


 1402 03ec 1B68     		ldr	r3, [r3]
 1403 03ee 1B01     		lsl	r3, r3, #4
 1404 03f0 8422     		mov	r2, #132
 1405 03f2 BA18     		add	r2, r7, r2
 1406 03f4 1268     		ldr	r2, [r2]
 1407 03f6 D318     		add	r3, r2, r3
 1408 03f8 8C22     		mov	r2, #140
 1409 03fa BA18     		add	r2, r7, r2
 1410 03fc 1268     		ldr	r2, [r2]
 1411 03fe 1A60     		str	r2, [r3]
 247:Source\TransformFunctions/arm_cfft_q31.c ****         pSrc[4*i+1] = p1;
 1412              		.loc 1 247 0 discriminator 3
 1413 0400 AC23     		mov	r3, #172
 1414 0402 FB18     		add	r3, r7, r3
 1415 0404 1B68     		ldr	r3, [r3]
 1416 0406 1B01     		lsl	r3, r3, #4
 1417 0408 0433     		add	r3, r3, #4
 1418 040a 8422     		mov	r2, #132
 1419 040c BA18     		add	r2, r7, r2
 1420 040e 1268     		ldr	r2, [r2]
 1421 0410 D318     		add	r3, r2, r3
 1422 0412 8822     		mov	r2, #136
 1423 0414 BA18     		add	r2, r7, r2
 1424 0416 1268     		ldr	r2, [r2]
 1425 0418 1A60     		str	r2, [r3]
 248:Source\TransformFunctions/arm_cfft_q31.c ****         pSrc[4*i+2] = xt;
 1426              		.loc 1 248 0 discriminator 3
 1427 041a AC23     		mov	r3, #172
 1428 041c FB18     		add	r3, r7, r3
 1429 041e 1B68     		ldr	r3, [r3]
 1430 0420 1B01     		lsl	r3, r3, #4
 1431 0422 0833     		add	r3, r3, #8
 1432 0424 8422     		mov	r2, #132
 1433 0426 BA18     		add	r2, r7, r2
 1434 0428 1268     		ldr	r2, [r2]
 1435 042a D318     		add	r3, r2, r3
 1436 042c 9422     		mov	r2, #148
 1437 042e BA18     		add	r2, r7, r2
 1438 0430 1268     		ldr	r2, [r2]
 1439 0432 1A60     		str	r2, [r3]
 249:Source\TransformFunctions/arm_cfft_q31.c ****         pSrc[4*i+3] = yt;
 1440              		.loc 1 249 0 discriminator 3
 1441 0434 AC23     		mov	r3, #172
 1442 0436 FB18     		add	r3, r7, r3
 1443 0438 1B68     		ldr	r3, [r3]
 1444 043a 1B01     		lsl	r3, r3, #4
 1445 043c 0C33     		add	r3, r3, #12
 1446 043e 8422     		mov	r2, #132
 1447 0440 BA18     		add	r2, r7, r2
 1448 0442 1268     		ldr	r2, [r2]
 1449 0444 D318     		add	r3, r2, r3
 1450 0446 9022     		mov	r2, #144
 1451 0448 BA18     		add	r2, r7, r2
 1452 044a 1268     		ldr	r2, [r2]
 1453 044c 1A60     		str	r2, [r3]
 234:Source\TransformFunctions/arm_cfft_q31.c ****     {
 1454              		.loc 1 234 0 discriminator 3
ARM GAS  C:\Users\fneves\AppData\Local\Temp\ccUiFCKc.s 			page 31


 1455 044e AC23     		mov	r3, #172
 1456 0450 FB18     		add	r3, r7, r3
 1457 0452 1B68     		ldr	r3, [r3]
 1458 0454 0133     		add	r3, r3, #1
 1459 0456 AC22     		mov	r2, #172
 1460 0458 BA18     		add	r2, r7, r2
 1461 045a 1360     		str	r3, [r2]
 1462              	.L24:
 234:Source\TransformFunctions/arm_cfft_q31.c ****     {
 1463              		.loc 1 234 0 is_stmt 0 discriminator 1
 1464 045c 8023     		mov	r3, #128
 1465 045e FB18     		add	r3, r7, r3
 1466 0460 1B68     		ldr	r3, [r3]
 1467 0462 5A08     		lsr	r2, r3, #1
 1468 0464 AC23     		mov	r3, #172
 1469 0466 FB18     		add	r3, r7, r3
 1470 0468 1B68     		ldr	r3, [r3]
 1471 046a 9A42     		cmp	r2, r3
 1472 046c 00D9     		bls	.LCB1355
 1473 046e 6CE7     		b	.L25	@long jump
 1474              	.LCB1355:
 250:Source\TransformFunctions/arm_cfft_q31.c ****     }
 251:Source\TransformFunctions/arm_cfft_q31.c **** }
 1475              		.loc 1 251 0 is_stmt 1
 1476 0470 BD46     		mov	sp, r7
 1477 0472 2DB0     		add	sp, sp, #180
 1478              		@ sp needed
 1479 0474 F0BD     		pop	{r4, r5, r6, r7, pc}
 1480              		.cfi_endproc
 1481              	.LFE84:
 1482              		.size	arm_cfft_radix4by2_inverse_q31, .-arm_cfft_radix4by2_inverse_q31
 1483 0476 C046     		.text
 1484              	.Letext0:
 1485              		.file 2 "c:\\program files (x86)\\cypress\\psoc creator\\4.0\\psoc creator\\import\\gnu\\arm\\4.9.
 1486              		.file 3 "c:\\program files (x86)\\cypress\\psoc creator\\4.0\\psoc creator\\import\\gnu\\arm\\4.9.
 1487              		.file 4 ".\\Include/arm_math.h"