ARM GAS  C:\Users\fneves\AppData\Local\Temp\ccjaneW9.s 			page 1


   1              		.cpu cortex-m0plus
   2              		.fpu softvfp
   3              		.eabi_attribute 20, 1
   4              		.eabi_attribute 21, 1
   5              		.eabi_attribute 23, 3
   6              		.eabi_attribute 24, 1
   7              		.eabi_attribute 25, 1
   8              		.eabi_attribute 26, 1
   9              		.eabi_attribute 30, 6
  10              		.eabi_attribute 34, 0
  11              		.eabi_attribute 18, 4
  12              		.code	16
  13              		.file	"arm_scale_f32.c"
  14              		.text
  15              	.Ltext0:
  16              		.cfi_sections	.debug_frame
  17              		.global	__aeabi_fmul
  18              		.section	.text.arm_scale_f32,"ax",%progbits
  19              		.align	2
  20              		.global	arm_scale_f32
  21              		.code	16
  22              		.thumb_func
  23              		.type	arm_scale_f32, %function
  24              	arm_scale_f32:
  25              	.LFB82:
  26              		.file 1 "Source\\BasicMathFunctions\\arm_scale_f32.c"
   1:Source\BasicMathFunctions/arm_scale_f32.c **** /* ----------------------------------------------------------------------
   2:Source\BasicMathFunctions/arm_scale_f32.c ****  * Project:      CMSIS DSP Library
   3:Source\BasicMathFunctions/arm_scale_f32.c ****  * Title:        arm_scale_f32.c
   4:Source\BasicMathFunctions/arm_scale_f32.c ****  * Description:  Multiplies a floating-point vector by a scalar
   5:Source\BasicMathFunctions/arm_scale_f32.c ****  *
   6:Source\BasicMathFunctions/arm_scale_f32.c ****  * $Date:        27. January 2017
   7:Source\BasicMathFunctions/arm_scale_f32.c ****  * $Revision:    V.1.5.1
   8:Source\BasicMathFunctions/arm_scale_f32.c ****  *
   9:Source\BasicMathFunctions/arm_scale_f32.c ****  * Target Processor: Cortex-M cores
  10:Source\BasicMathFunctions/arm_scale_f32.c ****  * -------------------------------------------------------------------- */
  11:Source\BasicMathFunctions/arm_scale_f32.c **** /*
  12:Source\BasicMathFunctions/arm_scale_f32.c ****  * Copyright (C) 2010-2017 ARM Limited or its affiliates. All rights reserved.
  13:Source\BasicMathFunctions/arm_scale_f32.c ****  *
  14:Source\BasicMathFunctions/arm_scale_f32.c ****  * SPDX-License-Identifier: Apache-2.0
  15:Source\BasicMathFunctions/arm_scale_f32.c ****  *
  16:Source\BasicMathFunctions/arm_scale_f32.c ****  * Licensed under the Apache License, Version 2.0 (the License); you may
  17:Source\BasicMathFunctions/arm_scale_f32.c ****  * not use this file except in compliance with the License.
  18:Source\BasicMathFunctions/arm_scale_f32.c ****  * You may obtain a copy of the License at
  19:Source\BasicMathFunctions/arm_scale_f32.c ****  *
  20:Source\BasicMathFunctions/arm_scale_f32.c ****  * www.apache.org/licenses/LICENSE-2.0
  21:Source\BasicMathFunctions/arm_scale_f32.c ****  *
  22:Source\BasicMathFunctions/arm_scale_f32.c ****  * Unless required by applicable law or agreed to in writing, software
  23:Source\BasicMathFunctions/arm_scale_f32.c ****  * distributed under the License is distributed on an AS IS BASIS, WITHOUT
  24:Source\BasicMathFunctions/arm_scale_f32.c ****  * WARRANTIES OR CONDITIONS OF ANY KIND, either express or implied.
  25:Source\BasicMathFunctions/arm_scale_f32.c ****  * See the License for the specific language governing permissions and
  26:Source\BasicMathFunctions/arm_scale_f32.c ****  * limitations under the License.
  27:Source\BasicMathFunctions/arm_scale_f32.c ****  */
  28:Source\BasicMathFunctions/arm_scale_f32.c **** 
  29:Source\BasicMathFunctions/arm_scale_f32.c **** #include "arm_math.h"
  30:Source\BasicMathFunctions/arm_scale_f32.c **** 
  31:Source\BasicMathFunctions/arm_scale_f32.c **** /**
ARM GAS  C:\Users\fneves\AppData\Local\Temp\ccjaneW9.s 			page 2


  32:Source\BasicMathFunctions/arm_scale_f32.c ****  * @ingroup groupMath
  33:Source\BasicMathFunctions/arm_scale_f32.c ****  */
  34:Source\BasicMathFunctions/arm_scale_f32.c **** 
  35:Source\BasicMathFunctions/arm_scale_f32.c **** /**
  36:Source\BasicMathFunctions/arm_scale_f32.c ****  * @defgroup scale Vector Scale
  37:Source\BasicMathFunctions/arm_scale_f32.c ****  *
  38:Source\BasicMathFunctions/arm_scale_f32.c ****  * Multiply a vector by a scalar value.  For floating-point data, the algorithm used is:
  39:Source\BasicMathFunctions/arm_scale_f32.c ****  *
  40:Source\BasicMathFunctions/arm_scale_f32.c ****  * <pre>
  41:Source\BasicMathFunctions/arm_scale_f32.c ****  *     pDst[n] = pSrc[n] * scale,   0 <= n < blockSize.
  42:Source\BasicMathFunctions/arm_scale_f32.c ****  * </pre>
  43:Source\BasicMathFunctions/arm_scale_f32.c ****  *
  44:Source\BasicMathFunctions/arm_scale_f32.c ****  * In the fixed-point Q7, Q15, and Q31 functions, <code>scale</code> is represented by
  45:Source\BasicMathFunctions/arm_scale_f32.c ****  * a fractional multiplication <code>scaleFract</code> and an arithmetic shift <code>shift</code>.
  46:Source\BasicMathFunctions/arm_scale_f32.c ****  * The shift allows the gain of the scaling operation to exceed 1.0.
  47:Source\BasicMathFunctions/arm_scale_f32.c ****  * The algorithm used with fixed-point data is:
  48:Source\BasicMathFunctions/arm_scale_f32.c ****  *
  49:Source\BasicMathFunctions/arm_scale_f32.c ****  * <pre>
  50:Source\BasicMathFunctions/arm_scale_f32.c ****  *     pDst[n] = (pSrc[n] * scaleFract) << shift,   0 <= n < blockSize.
  51:Source\BasicMathFunctions/arm_scale_f32.c ****  * </pre>
  52:Source\BasicMathFunctions/arm_scale_f32.c ****  *
  53:Source\BasicMathFunctions/arm_scale_f32.c ****  * The overall scale factor applied to the fixed-point data is
  54:Source\BasicMathFunctions/arm_scale_f32.c ****  * <pre>
  55:Source\BasicMathFunctions/arm_scale_f32.c ****  *     scale = scaleFract * 2^shift.
  56:Source\BasicMathFunctions/arm_scale_f32.c ****  * </pre>
  57:Source\BasicMathFunctions/arm_scale_f32.c ****  *
  58:Source\BasicMathFunctions/arm_scale_f32.c ****  * The functions support in-place computation allowing the source and destination
  59:Source\BasicMathFunctions/arm_scale_f32.c ****  * pointers to reference the same memory buffer.
  60:Source\BasicMathFunctions/arm_scale_f32.c ****  */
  61:Source\BasicMathFunctions/arm_scale_f32.c **** 
  62:Source\BasicMathFunctions/arm_scale_f32.c **** /**
  63:Source\BasicMathFunctions/arm_scale_f32.c ****  * @addtogroup scale
  64:Source\BasicMathFunctions/arm_scale_f32.c ****  * @{
  65:Source\BasicMathFunctions/arm_scale_f32.c ****  */
  66:Source\BasicMathFunctions/arm_scale_f32.c **** 
  67:Source\BasicMathFunctions/arm_scale_f32.c **** /**
  68:Source\BasicMathFunctions/arm_scale_f32.c ****  * @brief Multiplies a floating-point vector by a scalar.
  69:Source\BasicMathFunctions/arm_scale_f32.c ****  * @param[in]       *pSrc points to the input vector
  70:Source\BasicMathFunctions/arm_scale_f32.c ****  * @param[in]       scale scale factor to be applied
  71:Source\BasicMathFunctions/arm_scale_f32.c ****  * @param[out]      *pDst points to the output vector
  72:Source\BasicMathFunctions/arm_scale_f32.c ****  * @param[in]       blockSize number of samples in the vector
  73:Source\BasicMathFunctions/arm_scale_f32.c ****  * @return none.
  74:Source\BasicMathFunctions/arm_scale_f32.c ****  */
  75:Source\BasicMathFunctions/arm_scale_f32.c **** 
  76:Source\BasicMathFunctions/arm_scale_f32.c **** 
  77:Source\BasicMathFunctions/arm_scale_f32.c **** void arm_scale_f32(
  78:Source\BasicMathFunctions/arm_scale_f32.c ****   float32_t * pSrc,
  79:Source\BasicMathFunctions/arm_scale_f32.c ****   float32_t scale,
  80:Source\BasicMathFunctions/arm_scale_f32.c ****   float32_t * pDst,
  81:Source\BasicMathFunctions/arm_scale_f32.c ****   uint32_t blockSize)
  82:Source\BasicMathFunctions/arm_scale_f32.c **** {
  27              		.loc 1 82 0
  28              		.cfi_startproc
  29 0000 90B5     		push	{r4, r7, lr}
  30              		.cfi_def_cfa_offset 12
  31              		.cfi_offset 4, -12
  32              		.cfi_offset 7, -8
ARM GAS  C:\Users\fneves\AppData\Local\Temp\ccjaneW9.s 			page 3


  33              		.cfi_offset 14, -4
  34 0002 87B0     		sub	sp, sp, #28
  35              		.cfi_def_cfa_offset 40
  36 0004 00AF     		add	r7, sp, #0
  37              		.cfi_def_cfa_register 7
  38 0006 F860     		str	r0, [r7, #12]
  39 0008 B960     		str	r1, [r7, #8]
  40 000a 7A60     		str	r2, [r7, #4]
  41 000c 3B60     		str	r3, [r7]
  83:Source\BasicMathFunctions/arm_scale_f32.c ****   uint32_t blkCnt;                               /* loop counter */
  84:Source\BasicMathFunctions/arm_scale_f32.c **** #if defined (ARM_MATH_DSP)
  85:Source\BasicMathFunctions/arm_scale_f32.c **** 
  86:Source\BasicMathFunctions/arm_scale_f32.c **** /* Run the below code for Cortex-M4 and Cortex-M3 */
  87:Source\BasicMathFunctions/arm_scale_f32.c ****   float32_t in1, in2, in3, in4;                  /* temporary variabels */
  88:Source\BasicMathFunctions/arm_scale_f32.c **** 
  89:Source\BasicMathFunctions/arm_scale_f32.c ****   /*loop Unrolling */
  90:Source\BasicMathFunctions/arm_scale_f32.c ****   blkCnt = blockSize >> 2u;
  91:Source\BasicMathFunctions/arm_scale_f32.c **** 
  92:Source\BasicMathFunctions/arm_scale_f32.c ****   /* First part of the processing with loop unrolling.  Compute 4 outputs at a time.
  93:Source\BasicMathFunctions/arm_scale_f32.c ****    ** a second loop below computes the remaining 1 to 3 samples. */
  94:Source\BasicMathFunctions/arm_scale_f32.c ****   while (blkCnt > 0u)
  95:Source\BasicMathFunctions/arm_scale_f32.c ****   {
  96:Source\BasicMathFunctions/arm_scale_f32.c ****     /* C = A * scale */
  97:Source\BasicMathFunctions/arm_scale_f32.c ****     /* Scale the input and then store the results in the destination buffer. */
  98:Source\BasicMathFunctions/arm_scale_f32.c ****     /* read input samples from source */
  99:Source\BasicMathFunctions/arm_scale_f32.c ****     in1 = *pSrc;
 100:Source\BasicMathFunctions/arm_scale_f32.c ****     in2 = *(pSrc + 1);
 101:Source\BasicMathFunctions/arm_scale_f32.c **** 
 102:Source\BasicMathFunctions/arm_scale_f32.c ****     /* multiply with scaling factor */
 103:Source\BasicMathFunctions/arm_scale_f32.c ****     in1 = in1 * scale;
 104:Source\BasicMathFunctions/arm_scale_f32.c **** 
 105:Source\BasicMathFunctions/arm_scale_f32.c ****     /* read input sample from source */
 106:Source\BasicMathFunctions/arm_scale_f32.c ****     in3 = *(pSrc + 2);
 107:Source\BasicMathFunctions/arm_scale_f32.c **** 
 108:Source\BasicMathFunctions/arm_scale_f32.c ****     /* multiply with scaling factor */
 109:Source\BasicMathFunctions/arm_scale_f32.c ****     in2 = in2 * scale;
 110:Source\BasicMathFunctions/arm_scale_f32.c **** 
 111:Source\BasicMathFunctions/arm_scale_f32.c ****     /* read input sample from source */
 112:Source\BasicMathFunctions/arm_scale_f32.c ****     in4 = *(pSrc + 3);
 113:Source\BasicMathFunctions/arm_scale_f32.c **** 
 114:Source\BasicMathFunctions/arm_scale_f32.c ****     /* multiply with scaling factor */
 115:Source\BasicMathFunctions/arm_scale_f32.c ****     in3 = in3 * scale;
 116:Source\BasicMathFunctions/arm_scale_f32.c ****     in4 = in4 * scale;
 117:Source\BasicMathFunctions/arm_scale_f32.c ****     /* store the result to destination */
 118:Source\BasicMathFunctions/arm_scale_f32.c ****     *pDst = in1;
 119:Source\BasicMathFunctions/arm_scale_f32.c ****     *(pDst + 1) = in2;
 120:Source\BasicMathFunctions/arm_scale_f32.c ****     *(pDst + 2) = in3;
 121:Source\BasicMathFunctions/arm_scale_f32.c ****     *(pDst + 3) = in4;
 122:Source\BasicMathFunctions/arm_scale_f32.c **** 
 123:Source\BasicMathFunctions/arm_scale_f32.c ****     /* update pointers to process next samples */
 124:Source\BasicMathFunctions/arm_scale_f32.c ****     pSrc += 4u;
 125:Source\BasicMathFunctions/arm_scale_f32.c ****     pDst += 4u;
 126:Source\BasicMathFunctions/arm_scale_f32.c **** 
 127:Source\BasicMathFunctions/arm_scale_f32.c ****     /* Decrement the loop counter */
 128:Source\BasicMathFunctions/arm_scale_f32.c ****     blkCnt--;
 129:Source\BasicMathFunctions/arm_scale_f32.c ****   }
 130:Source\BasicMathFunctions/arm_scale_f32.c **** 
ARM GAS  C:\Users\fneves\AppData\Local\Temp\ccjaneW9.s 			page 4


 131:Source\BasicMathFunctions/arm_scale_f32.c ****   /* If the blockSize is not a multiple of 4, compute any remaining output samples here.
 132:Source\BasicMathFunctions/arm_scale_f32.c ****    ** No loop unrolling is used. */
 133:Source\BasicMathFunctions/arm_scale_f32.c ****   blkCnt = blockSize % 0x4u;
 134:Source\BasicMathFunctions/arm_scale_f32.c **** 
 135:Source\BasicMathFunctions/arm_scale_f32.c **** #else
 136:Source\BasicMathFunctions/arm_scale_f32.c **** 
 137:Source\BasicMathFunctions/arm_scale_f32.c ****   /* Run the below code for Cortex-M0 */
 138:Source\BasicMathFunctions/arm_scale_f32.c **** 
 139:Source\BasicMathFunctions/arm_scale_f32.c ****   /* Initialize blkCnt with number of samples */
 140:Source\BasicMathFunctions/arm_scale_f32.c ****   blkCnt = blockSize;
  42              		.loc 1 140 0
  43 000e 3B68     		ldr	r3, [r7]
  44 0010 7B61     		str	r3, [r7, #20]
 141:Source\BasicMathFunctions/arm_scale_f32.c **** 
 142:Source\BasicMathFunctions/arm_scale_f32.c **** #endif /* #if defined (ARM_MATH_DSP) */
 143:Source\BasicMathFunctions/arm_scale_f32.c **** 
 144:Source\BasicMathFunctions/arm_scale_f32.c ****   while (blkCnt > 0u)
  45              		.loc 1 144 0
  46 0012 0FE0     		b	.L2
  47              	.L3:
 145:Source\BasicMathFunctions/arm_scale_f32.c ****   {
 146:Source\BasicMathFunctions/arm_scale_f32.c ****     /* C = A * scale */
 147:Source\BasicMathFunctions/arm_scale_f32.c ****     /* Scale the input and then store the result in the destination buffer. */
 148:Source\BasicMathFunctions/arm_scale_f32.c ****     *pDst++ = (*pSrc++) * scale;
  48              		.loc 1 148 0
  49 0014 7C68     		ldr	r4, [r7, #4]
  50 0016 231D     		add	r3, r4, #4
  51 0018 7B60     		str	r3, [r7, #4]
  52 001a FB68     		ldr	r3, [r7, #12]
  53 001c 1A1D     		add	r2, r3, #4
  54 001e FA60     		str	r2, [r7, #12]
  55 0020 1B68     		ldr	r3, [r3]
  56 0022 181C     		add	r0, r3, #0
  57 0024 B968     		ldr	r1, [r7, #8]
  58 0026 FFF7FEFF 		bl	__aeabi_fmul
  59 002a 031C     		add	r3, r0, #0
  60 002c 2360     		str	r3, [r4]
 149:Source\BasicMathFunctions/arm_scale_f32.c **** 
 150:Source\BasicMathFunctions/arm_scale_f32.c ****     /* Decrement the loop counter */
 151:Source\BasicMathFunctions/arm_scale_f32.c ****     blkCnt--;
  61              		.loc 1 151 0
  62 002e 7B69     		ldr	r3, [r7, #20]
  63 0030 013B     		sub	r3, r3, #1
  64 0032 7B61     		str	r3, [r7, #20]
  65              	.L2:
 144:Source\BasicMathFunctions/arm_scale_f32.c ****   {
  66              		.loc 1 144 0
  67 0034 7B69     		ldr	r3, [r7, #20]
  68 0036 002B     		cmp	r3, #0
  69 0038 ECD1     		bne	.L3
 152:Source\BasicMathFunctions/arm_scale_f32.c ****   }
 153:Source\BasicMathFunctions/arm_scale_f32.c **** }
  70              		.loc 1 153 0
  71 003a BD46     		mov	sp, r7
  72 003c 07B0     		add	sp, sp, #28
  73              		@ sp needed
  74 003e 90BD     		pop	{r4, r7, pc}
ARM GAS  C:\Users\fneves\AppData\Local\Temp\ccjaneW9.s 			page 5


  75              		.cfi_endproc
  76              	.LFE82:
  77              		.size	arm_scale_f32, .-arm_scale_f32
  78              		.text
  79              	.Letext0:
  80              		.file 2 "c:\\program files (x86)\\cypress\\psoc creator\\4.0\\psoc creator\\import\\gnu\\arm\\4.9.
  81              		.file 3 "c:\\program files (x86)\\cypress\\psoc creator\\4.0\\psoc creator\\import\\gnu\\arm\\4.9.
  82              		.file 4 ".\\Include/arm_math.h"