ARM GAS  C:\Users\fneves\AppData\Local\Temp\ccFC0Rzs.s 			page 1


   1              		.cpu cortex-m0plus
   2              		.fpu softvfp
   3              		.eabi_attribute 20, 1
   4              		.eabi_attribute 21, 1
   5              		.eabi_attribute 23, 3
   6              		.eabi_attribute 24, 1
   7              		.eabi_attribute 25, 1
   8              		.eabi_attribute 26, 1
   9              		.eabi_attribute 30, 6
  10              		.eabi_attribute 34, 0
  11              		.eabi_attribute 18, 4
  12              		.code	16
  13              		.file	"arm_cfft_radix2_init_f32.c"
  14              		.text
  15              	.Ltext0:
  16              		.cfi_sections	.debug_frame
  17              		.section	.text.arm_cfft_radix2_init_f32,"ax",%progbits
  18              		.align	2
  19              		.global	arm_cfft_radix2_init_f32
  20              		.code	16
  21              		.thumb_func
  22              		.type	arm_cfft_radix2_init_f32, %function
  23              	arm_cfft_radix2_init_f32:
  24              	.LFB82:
  25              		.file 1 "Source\\TransformFunctions\\arm_cfft_radix2_init_f32.c"
   1:Source\TransformFunctions/arm_cfft_radix2_init_f32.c **** /* ----------------------------------------------------------------------
   2:Source\TransformFunctions/arm_cfft_radix2_init_f32.c ****  * Project:      CMSIS DSP Library
   3:Source\TransformFunctions/arm_cfft_radix2_init_f32.c ****  * Title:        arm_cfft_radix2_init_f32.c
   4:Source\TransformFunctions/arm_cfft_radix2_init_f32.c ****  * Description:  Radix-2 Decimation in Frequency Floating-point CFFT & CIFFT Initialization functio
   5:Source\TransformFunctions/arm_cfft_radix2_init_f32.c ****  *
   6:Source\TransformFunctions/arm_cfft_radix2_init_f32.c ****  * $Date:        27. January 2017
   7:Source\TransformFunctions/arm_cfft_radix2_init_f32.c ****  * $Revision:    V.1.5.1
   8:Source\TransformFunctions/arm_cfft_radix2_init_f32.c ****  *
   9:Source\TransformFunctions/arm_cfft_radix2_init_f32.c ****  * Target Processor: Cortex-M cores
  10:Source\TransformFunctions/arm_cfft_radix2_init_f32.c ****  * -------------------------------------------------------------------- */
  11:Source\TransformFunctions/arm_cfft_radix2_init_f32.c **** /*
  12:Source\TransformFunctions/arm_cfft_radix2_init_f32.c ****  * Copyright (C) 2010-2017 ARM Limited or its affiliates. All rights reserved.
  13:Source\TransformFunctions/arm_cfft_radix2_init_f32.c ****  *
  14:Source\TransformFunctions/arm_cfft_radix2_init_f32.c ****  * SPDX-License-Identifier: Apache-2.0
  15:Source\TransformFunctions/arm_cfft_radix2_init_f32.c ****  *
  16:Source\TransformFunctions/arm_cfft_radix2_init_f32.c ****  * Licensed under the Apache License, Version 2.0 (the License); you may
  17:Source\TransformFunctions/arm_cfft_radix2_init_f32.c ****  * not use this file except in compliance with the License.
  18:Source\TransformFunctions/arm_cfft_radix2_init_f32.c ****  * You may obtain a copy of the License at
  19:Source\TransformFunctions/arm_cfft_radix2_init_f32.c ****  *
  20:Source\TransformFunctions/arm_cfft_radix2_init_f32.c ****  * www.apache.org/licenses/LICENSE-2.0
  21:Source\TransformFunctions/arm_cfft_radix2_init_f32.c ****  *
  22:Source\TransformFunctions/arm_cfft_radix2_init_f32.c ****  * Unless required by applicable law or agreed to in writing, software
  23:Source\TransformFunctions/arm_cfft_radix2_init_f32.c ****  * distributed under the License is distributed on an AS IS BASIS, WITHOUT
  24:Source\TransformFunctions/arm_cfft_radix2_init_f32.c ****  * WARRANTIES OR CONDITIONS OF ANY KIND, either express or implied.
  25:Source\TransformFunctions/arm_cfft_radix2_init_f32.c ****  * See the License for the specific language governing permissions and
  26:Source\TransformFunctions/arm_cfft_radix2_init_f32.c ****  * limitations under the License.
  27:Source\TransformFunctions/arm_cfft_radix2_init_f32.c ****  */
  28:Source\TransformFunctions/arm_cfft_radix2_init_f32.c **** 
  29:Source\TransformFunctions/arm_cfft_radix2_init_f32.c **** #include "arm_math.h"
  30:Source\TransformFunctions/arm_cfft_radix2_init_f32.c **** #include "arm_common_tables.h"
  31:Source\TransformFunctions/arm_cfft_radix2_init_f32.c **** 
  32:Source\TransformFunctions/arm_cfft_radix2_init_f32.c **** /**
ARM GAS  C:\Users\fneves\AppData\Local\Temp\ccFC0Rzs.s 			page 2


  33:Source\TransformFunctions/arm_cfft_radix2_init_f32.c ****  * @ingroup groupTransforms
  34:Source\TransformFunctions/arm_cfft_radix2_init_f32.c ****  */
  35:Source\TransformFunctions/arm_cfft_radix2_init_f32.c **** 
  36:Source\TransformFunctions/arm_cfft_radix2_init_f32.c **** /**
  37:Source\TransformFunctions/arm_cfft_radix2_init_f32.c ****  * @addtogroup ComplexFFT
  38:Source\TransformFunctions/arm_cfft_radix2_init_f32.c ****  * @{
  39:Source\TransformFunctions/arm_cfft_radix2_init_f32.c ****  */
  40:Source\TransformFunctions/arm_cfft_radix2_init_f32.c **** 
  41:Source\TransformFunctions/arm_cfft_radix2_init_f32.c **** /**
  42:Source\TransformFunctions/arm_cfft_radix2_init_f32.c **** * @brief  Initialization function for the floating-point CFFT/CIFFT.
  43:Source\TransformFunctions/arm_cfft_radix2_init_f32.c **** * @deprecated Do not use this function.  It has been superseded by \ref arm_cfft_f32 and will be re
  44:Source\TransformFunctions/arm_cfft_radix2_init_f32.c **** * in the future.
  45:Source\TransformFunctions/arm_cfft_radix2_init_f32.c **** * @param[in,out] *S             points to an instance of the floating-point CFFT/CIFFT structure.
  46:Source\TransformFunctions/arm_cfft_radix2_init_f32.c **** * @param[in]     fftLen         length of the FFT.
  47:Source\TransformFunctions/arm_cfft_radix2_init_f32.c **** * @param[in]     ifftFlag       flag that selects forward (ifftFlag=0) or inverse (ifftFlag=1) tran
  48:Source\TransformFunctions/arm_cfft_radix2_init_f32.c **** * @param[in]     bitReverseFlag flag that enables (bitReverseFlag=1) or disables (bitReverseFlag=0)
  49:Source\TransformFunctions/arm_cfft_radix2_init_f32.c **** * @return        The function returns ARM_MATH_SUCCESS if initialization is successful or ARM_MATH_
  50:Source\TransformFunctions/arm_cfft_radix2_init_f32.c **** *
  51:Source\TransformFunctions/arm_cfft_radix2_init_f32.c **** * \par Description:
  52:Source\TransformFunctions/arm_cfft_radix2_init_f32.c **** * \par
  53:Source\TransformFunctions/arm_cfft_radix2_init_f32.c **** * The parameter <code>ifftFlag</code> controls whether a forward or inverse transform is computed.
  54:Source\TransformFunctions/arm_cfft_radix2_init_f32.c **** * Set(=1) ifftFlag for calculation of CIFFT otherwise  CFFT is calculated
  55:Source\TransformFunctions/arm_cfft_radix2_init_f32.c **** * \par
  56:Source\TransformFunctions/arm_cfft_radix2_init_f32.c **** * The parameter <code>bitReverseFlag</code> controls whether output is in normal order or bit rever
  57:Source\TransformFunctions/arm_cfft_radix2_init_f32.c **** * Set(=1) bitReverseFlag for output to be in normal order otherwise output is in bit reversed order
  58:Source\TransformFunctions/arm_cfft_radix2_init_f32.c **** * \par
  59:Source\TransformFunctions/arm_cfft_radix2_init_f32.c **** * The parameter <code>fftLen</code>	Specifies length of CFFT/CIFFT process. Supported FFT Lengths a
  60:Source\TransformFunctions/arm_cfft_radix2_init_f32.c **** * \par
  61:Source\TransformFunctions/arm_cfft_radix2_init_f32.c **** * This Function also initializes Twiddle factor table pointer and Bit reversal table pointer.
  62:Source\TransformFunctions/arm_cfft_radix2_init_f32.c **** */
  63:Source\TransformFunctions/arm_cfft_radix2_init_f32.c **** arm_status arm_cfft_radix2_init_f32(
  64:Source\TransformFunctions/arm_cfft_radix2_init_f32.c ****   arm_cfft_radix2_instance_f32 * S,
  65:Source\TransformFunctions/arm_cfft_radix2_init_f32.c ****   uint16_t fftLen,
  66:Source\TransformFunctions/arm_cfft_radix2_init_f32.c ****   uint8_t ifftFlag,
  67:Source\TransformFunctions/arm_cfft_radix2_init_f32.c ****   uint8_t bitReverseFlag)
  68:Source\TransformFunctions/arm_cfft_radix2_init_f32.c **** {
  26              		.loc 1 68 0
  27              		.cfi_startproc
  28 0000 90B5     		push	{r4, r7, lr}
  29              		.cfi_def_cfa_offset 12
  30              		.cfi_offset 4, -12
  31              		.cfi_offset 7, -8
  32              		.cfi_offset 14, -4
  33 0002 85B0     		sub	sp, sp, #20
  34              		.cfi_def_cfa_offset 32
  35 0004 00AF     		add	r7, sp, #0
  36              		.cfi_def_cfa_register 7
  37 0006 7860     		str	r0, [r7, #4]
  38 0008 0C1C     		mov	r4, r1
  39 000a 101C     		mov	r0, r2
  40 000c 191C     		mov	r1, r3
  41 000e BB1C     		add	r3, r7, #2
  42 0010 221C     		add	r2, r4, #0
  43 0012 1A80     		strh	r2, [r3]
  44 0014 7B1C     		add	r3, r7, #1
  45 0016 021C     		add	r2, r0, #0
  46 0018 1A70     		strb	r2, [r3]
ARM GAS  C:\Users\fneves\AppData\Local\Temp\ccFC0Rzs.s 			page 3


  47 001a 3B1C     		mov	r3, r7
  48 001c 0A1C     		add	r2, r1, #0
  49 001e 1A70     		strb	r2, [r3]
  69:Source\TransformFunctions/arm_cfft_radix2_init_f32.c ****   /*  Initialise the default arm status */
  70:Source\TransformFunctions/arm_cfft_radix2_init_f32.c ****   arm_status status = ARM_MATH_SUCCESS;
  50              		.loc 1 70 0
  51 0020 0F23     		mov	r3, #15
  52 0022 FB18     		add	r3, r7, r3
  53 0024 0022     		mov	r2, #0
  54 0026 1A70     		strb	r2, [r3]
  71:Source\TransformFunctions/arm_cfft_radix2_init_f32.c **** 
  72:Source\TransformFunctions/arm_cfft_radix2_init_f32.c ****   /*  Initialise the FFT length */
  73:Source\TransformFunctions/arm_cfft_radix2_init_f32.c ****   S->fftLen = fftLen;
  55              		.loc 1 73 0
  56 0028 7B68     		ldr	r3, [r7, #4]
  57 002a BA1C     		add	r2, r7, #2
  58 002c 1288     		ldrh	r2, [r2]
  59 002e 1A80     		strh	r2, [r3]
  74:Source\TransformFunctions/arm_cfft_radix2_init_f32.c **** 
  75:Source\TransformFunctions/arm_cfft_radix2_init_f32.c ****   /*  Initialise the Twiddle coefficient pointer */
  76:Source\TransformFunctions/arm_cfft_radix2_init_f32.c ****   S->pTwiddle = (float32_t *) twiddleCoef;
  60              		.loc 1 76 0
  61 0030 7B68     		ldr	r3, [r7, #4]
  62 0032 624A     		ldr	r2, .L17
  63 0034 5A60     		str	r2, [r3, #4]
  77:Source\TransformFunctions/arm_cfft_radix2_init_f32.c **** 
  78:Source\TransformFunctions/arm_cfft_radix2_init_f32.c ****   /*  Initialise the Flag for selection of CFFT or CIFFT */
  79:Source\TransformFunctions/arm_cfft_radix2_init_f32.c ****   S->ifftFlag = ifftFlag;
  64              		.loc 1 79 0
  65 0036 7B68     		ldr	r3, [r7, #4]
  66 0038 7A1C     		add	r2, r7, #1
  67 003a 1278     		ldrb	r2, [r2]
  68 003c 9A70     		strb	r2, [r3, #2]
  80:Source\TransformFunctions/arm_cfft_radix2_init_f32.c **** 
  81:Source\TransformFunctions/arm_cfft_radix2_init_f32.c ****   /*  Initialise the Flag for calculation Bit reversal or not */
  82:Source\TransformFunctions/arm_cfft_radix2_init_f32.c ****   S->bitReverseFlag = bitReverseFlag;
  69              		.loc 1 82 0
  70 003e 7B68     		ldr	r3, [r7, #4]
  71 0040 3A1C     		mov	r2, r7
  72 0042 1278     		ldrb	r2, [r2]
  73 0044 DA70     		strb	r2, [r3, #3]
  83:Source\TransformFunctions/arm_cfft_radix2_init_f32.c **** 
  84:Source\TransformFunctions/arm_cfft_radix2_init_f32.c ****   /*  Initializations of structure parameters depending on the FFT length */
  85:Source\TransformFunctions/arm_cfft_radix2_init_f32.c ****   switch (S->fftLen)
  74              		.loc 1 85 0
  75 0046 7B68     		ldr	r3, [r7, #4]
  76 0048 1B88     		ldrh	r3, [r3]
  77 004a 8022     		mov	r2, #128
  78 004c 5200     		lsl	r2, r2, #1
  79 004e 9342     		cmp	r3, r2
  80 0050 5ED0     		beq	.L3
  81 0052 8022     		mov	r2, #128
  82 0054 5200     		lsl	r2, r2, #1
  83 0056 9342     		cmp	r3, r2
  84 0058 0CDC     		bgt	.L4
  85 005a 202B     		cmp	r3, #32
  86 005c 00D1     		bne	.LCB56
ARM GAS  C:\Users\fneves\AppData\Local\Temp\ccFC0Rzs.s 			page 4


  87 005e 81E0     		b	.L5	@long jump
  88              	.LCB56:
  89 0060 03DC     		bgt	.L6
  90 0062 102B     		cmp	r3, #16
  91 0064 00D1     		bne	.LCB60
  92 0066 8BE0     		b	.L7	@long jump
  93              	.LCB60:
  94 0068 9AE0     		b	.L2
  95              	.L6:
  96 006a 402B     		cmp	r3, #64
  97 006c 6CD0     		beq	.L8
  98 006e 802B     		cmp	r3, #128
  99 0070 5CD0     		beq	.L9
 100 0072 95E0     		b	.L2
 101              	.L4:
 102 0074 8022     		mov	r2, #128
 103 0076 D200     		lsl	r2, r2, #3
 104 0078 9342     		cmp	r3, r2
 105 007a 2DD0     		beq	.L10
 106 007c 8022     		mov	r2, #128
 107 007e D200     		lsl	r2, r2, #3
 108 0080 9342     		cmp	r3, r2
 109 0082 04DC     		bgt	.L11
 110 0084 8022     		mov	r2, #128
 111 0086 9200     		lsl	r2, r2, #2
 112 0088 9342     		cmp	r3, r2
 113 008a 33D0     		beq	.L12
 114 008c 88E0     		b	.L2
 115              	.L11:
 116 008e 8022     		mov	r2, #128
 117 0090 1201     		lsl	r2, r2, #4
 118 0092 9342     		cmp	r3, r2
 119 0094 12D0     		beq	.L13
 120 0096 8022     		mov	r2, #128
 121 0098 5201     		lsl	r2, r2, #5
 122 009a 9342     		cmp	r3, r2
 123 009c 00D0     		beq	.LCB96
 124 009e 7FE0     		b	.L2	@long jump
 125              	.LCB96:
  86:Source\TransformFunctions/arm_cfft_radix2_init_f32.c ****   {
  87:Source\TransformFunctions/arm_cfft_radix2_init_f32.c **** 
  88:Source\TransformFunctions/arm_cfft_radix2_init_f32.c ****   case 4096u:
  89:Source\TransformFunctions/arm_cfft_radix2_init_f32.c ****     /*  Initializations of structure parameters for 4096 point FFT */
  90:Source\TransformFunctions/arm_cfft_radix2_init_f32.c **** 
  91:Source\TransformFunctions/arm_cfft_radix2_init_f32.c ****     /*  Initialise the twiddle coef modifier value */
  92:Source\TransformFunctions/arm_cfft_radix2_init_f32.c ****     S->twidCoefModifier = 1u;
 126              		.loc 1 92 0
 127 00a0 7B68     		ldr	r3, [r7, #4]
 128 00a2 0122     		mov	r2, #1
 129 00a4 9A81     		strh	r2, [r3, #12]
  93:Source\TransformFunctions/arm_cfft_radix2_init_f32.c ****     /*  Initialise the bit reversal table modifier */
  94:Source\TransformFunctions/arm_cfft_radix2_init_f32.c ****     S->bitRevFactor = 1u;
 130              		.loc 1 94 0
 131 00a6 7B68     		ldr	r3, [r7, #4]
 132 00a8 0122     		mov	r2, #1
 133 00aa DA81     		strh	r2, [r3, #14]
  95:Source\TransformFunctions/arm_cfft_radix2_init_f32.c ****     /*  Initialise the bit reversal table pointer */
ARM GAS  C:\Users\fneves\AppData\Local\Temp\ccFC0Rzs.s 			page 5


  96:Source\TransformFunctions/arm_cfft_radix2_init_f32.c ****     S->pBitRevTable = (uint16_t *) armBitRevTable;
 134              		.loc 1 96 0
 135 00ac 7B68     		ldr	r3, [r7, #4]
 136 00ae 444A     		ldr	r2, .L17+4
 137 00b0 9A60     		str	r2, [r3, #8]
  97:Source\TransformFunctions/arm_cfft_radix2_init_f32.c ****     /*  Initialise the 1/fftLen Value */
  98:Source\TransformFunctions/arm_cfft_radix2_init_f32.c ****     S->onebyfftLen = 0.000244140625;
 138              		.loc 1 98 0
 139 00b2 7B68     		ldr	r3, [r7, #4]
 140 00b4 E622     		mov	r2, #230
 141 00b6 9205     		lsl	r2, r2, #22
 142 00b8 1A61     		str	r2, [r3, #16]
  99:Source\TransformFunctions/arm_cfft_radix2_init_f32.c ****     break;
 143              		.loc 1 99 0
 144 00ba 76E0     		b	.L15
 145              	.L13:
 100:Source\TransformFunctions/arm_cfft_radix2_init_f32.c **** 
 101:Source\TransformFunctions/arm_cfft_radix2_init_f32.c ****   case 2048u:
 102:Source\TransformFunctions/arm_cfft_radix2_init_f32.c ****     /*  Initializations of structure parameters for 2048 point FFT */
 103:Source\TransformFunctions/arm_cfft_radix2_init_f32.c **** 
 104:Source\TransformFunctions/arm_cfft_radix2_init_f32.c ****     /*  Initialise the twiddle coef modifier value */
 105:Source\TransformFunctions/arm_cfft_radix2_init_f32.c ****     S->twidCoefModifier = 2u;
 146              		.loc 1 105 0
 147 00bc 7B68     		ldr	r3, [r7, #4]
 148 00be 0222     		mov	r2, #2
 149 00c0 9A81     		strh	r2, [r3, #12]
 106:Source\TransformFunctions/arm_cfft_radix2_init_f32.c ****     /*  Initialise the bit reversal table modifier */
 107:Source\TransformFunctions/arm_cfft_radix2_init_f32.c ****     S->bitRevFactor = 2u;
 150              		.loc 1 107 0
 151 00c2 7B68     		ldr	r3, [r7, #4]
 152 00c4 0222     		mov	r2, #2
 153 00c6 DA81     		strh	r2, [r3, #14]
 108:Source\TransformFunctions/arm_cfft_radix2_init_f32.c ****     /*  Initialise the bit reversal table pointer */
 109:Source\TransformFunctions/arm_cfft_radix2_init_f32.c ****     S->pBitRevTable = (uint16_t *) & armBitRevTable[1];
 154              		.loc 1 109 0
 155 00c8 7B68     		ldr	r3, [r7, #4]
 156 00ca 3E4A     		ldr	r2, .L17+8
 157 00cc 9A60     		str	r2, [r3, #8]
 110:Source\TransformFunctions/arm_cfft_radix2_init_f32.c ****     /*  Initialise the 1/fftLen Value */
 111:Source\TransformFunctions/arm_cfft_radix2_init_f32.c ****     S->onebyfftLen = 0.00048828125;
 158              		.loc 1 111 0
 159 00ce 7B68     		ldr	r3, [r7, #4]
 160 00d0 E822     		mov	r2, #232
 161 00d2 9205     		lsl	r2, r2, #22
 162 00d4 1A61     		str	r2, [r3, #16]
 112:Source\TransformFunctions/arm_cfft_radix2_init_f32.c ****     break;
 163              		.loc 1 112 0
 164 00d6 68E0     		b	.L15
 165              	.L10:
 113:Source\TransformFunctions/arm_cfft_radix2_init_f32.c **** 
 114:Source\TransformFunctions/arm_cfft_radix2_init_f32.c ****   case 1024u:
 115:Source\TransformFunctions/arm_cfft_radix2_init_f32.c ****     /*  Initializations of structure parameters for 1024 point FFT */
 116:Source\TransformFunctions/arm_cfft_radix2_init_f32.c **** 
 117:Source\TransformFunctions/arm_cfft_radix2_init_f32.c ****     /*  Initialise the twiddle coef modifier value */
 118:Source\TransformFunctions/arm_cfft_radix2_init_f32.c ****     S->twidCoefModifier = 4u;
 166              		.loc 1 118 0
 167 00d8 7B68     		ldr	r3, [r7, #4]
ARM GAS  C:\Users\fneves\AppData\Local\Temp\ccFC0Rzs.s 			page 6


 168 00da 0422     		mov	r2, #4
 169 00dc 9A81     		strh	r2, [r3, #12]
 119:Source\TransformFunctions/arm_cfft_radix2_init_f32.c ****     /*  Initialise the bit reversal table modifier */
 120:Source\TransformFunctions/arm_cfft_radix2_init_f32.c ****     S->bitRevFactor = 4u;
 170              		.loc 1 120 0
 171 00de 7B68     		ldr	r3, [r7, #4]
 172 00e0 0422     		mov	r2, #4
 173 00e2 DA81     		strh	r2, [r3, #14]
 121:Source\TransformFunctions/arm_cfft_radix2_init_f32.c ****     /*  Initialise the bit reversal table pointer */
 122:Source\TransformFunctions/arm_cfft_radix2_init_f32.c ****     S->pBitRevTable = (uint16_t *) & armBitRevTable[3];
 174              		.loc 1 122 0
 175 00e4 7B68     		ldr	r3, [r7, #4]
 176 00e6 384A     		ldr	r2, .L17+12
 177 00e8 9A60     		str	r2, [r3, #8]
 123:Source\TransformFunctions/arm_cfft_radix2_init_f32.c ****     /*  Initialise the 1/fftLen Value */
 124:Source\TransformFunctions/arm_cfft_radix2_init_f32.c ****     S->onebyfftLen = 0.0009765625f;
 178              		.loc 1 124 0
 179 00ea 7B68     		ldr	r3, [r7, #4]
 180 00ec EA22     		mov	r2, #234
 181 00ee 9205     		lsl	r2, r2, #22
 182 00f0 1A61     		str	r2, [r3, #16]
 125:Source\TransformFunctions/arm_cfft_radix2_init_f32.c ****     break;
 183              		.loc 1 125 0
 184 00f2 5AE0     		b	.L15
 185              	.L12:
 126:Source\TransformFunctions/arm_cfft_radix2_init_f32.c **** 
 127:Source\TransformFunctions/arm_cfft_radix2_init_f32.c ****   case 512u:
 128:Source\TransformFunctions/arm_cfft_radix2_init_f32.c ****     /*  Initializations of structure parameters for 512 point FFT */
 129:Source\TransformFunctions/arm_cfft_radix2_init_f32.c **** 
 130:Source\TransformFunctions/arm_cfft_radix2_init_f32.c ****     /*  Initialise the twiddle coef modifier value */
 131:Source\TransformFunctions/arm_cfft_radix2_init_f32.c ****     S->twidCoefModifier = 8u;
 186              		.loc 1 131 0
 187 00f4 7B68     		ldr	r3, [r7, #4]
 188 00f6 0822     		mov	r2, #8
 189 00f8 9A81     		strh	r2, [r3, #12]
 132:Source\TransformFunctions/arm_cfft_radix2_init_f32.c ****     /*  Initialise the bit reversal table modifier */
 133:Source\TransformFunctions/arm_cfft_radix2_init_f32.c ****     S->bitRevFactor = 8u;
 190              		.loc 1 133 0
 191 00fa 7B68     		ldr	r3, [r7, #4]
 192 00fc 0822     		mov	r2, #8
 193 00fe DA81     		strh	r2, [r3, #14]
 134:Source\TransformFunctions/arm_cfft_radix2_init_f32.c ****     /*  Initialise the bit reversal table pointer */
 135:Source\TransformFunctions/arm_cfft_radix2_init_f32.c ****     S->pBitRevTable = (uint16_t *) & armBitRevTable[7];
 194              		.loc 1 135 0
 195 0100 7B68     		ldr	r3, [r7, #4]
 196 0102 324A     		ldr	r2, .L17+16
 197 0104 9A60     		str	r2, [r3, #8]
 136:Source\TransformFunctions/arm_cfft_radix2_init_f32.c ****     /*  Initialise the 1/fftLen Value */
 137:Source\TransformFunctions/arm_cfft_radix2_init_f32.c ****     S->onebyfftLen = 0.001953125;
 198              		.loc 1 137 0
 199 0106 7B68     		ldr	r3, [r7, #4]
 200 0108 EC22     		mov	r2, #236
 201 010a 9205     		lsl	r2, r2, #22
 202 010c 1A61     		str	r2, [r3, #16]
 138:Source\TransformFunctions/arm_cfft_radix2_init_f32.c ****     break;
 203              		.loc 1 138 0
 204 010e 4CE0     		b	.L15
ARM GAS  C:\Users\fneves\AppData\Local\Temp\ccFC0Rzs.s 			page 7


 205              	.L3:
 139:Source\TransformFunctions/arm_cfft_radix2_init_f32.c **** 
 140:Source\TransformFunctions/arm_cfft_radix2_init_f32.c ****   case 256u:
 141:Source\TransformFunctions/arm_cfft_radix2_init_f32.c ****     /*  Initializations of structure parameters for 256 point FFT */
 142:Source\TransformFunctions/arm_cfft_radix2_init_f32.c ****     S->twidCoefModifier = 16u;
 206              		.loc 1 142 0
 207 0110 7B68     		ldr	r3, [r7, #4]
 208 0112 1022     		mov	r2, #16
 209 0114 9A81     		strh	r2, [r3, #12]
 143:Source\TransformFunctions/arm_cfft_radix2_init_f32.c ****     S->bitRevFactor = 16u;
 210              		.loc 1 143 0
 211 0116 7B68     		ldr	r3, [r7, #4]
 212 0118 1022     		mov	r2, #16
 213 011a DA81     		strh	r2, [r3, #14]
 144:Source\TransformFunctions/arm_cfft_radix2_init_f32.c ****     S->pBitRevTable = (uint16_t *) & armBitRevTable[15];
 214              		.loc 1 144 0
 215 011c 7B68     		ldr	r3, [r7, #4]
 216 011e 2C4A     		ldr	r2, .L17+20
 217 0120 9A60     		str	r2, [r3, #8]
 145:Source\TransformFunctions/arm_cfft_radix2_init_f32.c ****     S->onebyfftLen = 0.00390625f;
 218              		.loc 1 145 0
 219 0122 7B68     		ldr	r3, [r7, #4]
 220 0124 EE22     		mov	r2, #238
 221 0126 9205     		lsl	r2, r2, #22
 222 0128 1A61     		str	r2, [r3, #16]
 146:Source\TransformFunctions/arm_cfft_radix2_init_f32.c ****     break;
 223              		.loc 1 146 0
 224 012a 3EE0     		b	.L15
 225              	.L9:
 147:Source\TransformFunctions/arm_cfft_radix2_init_f32.c **** 
 148:Source\TransformFunctions/arm_cfft_radix2_init_f32.c ****   case 128u:
 149:Source\TransformFunctions/arm_cfft_radix2_init_f32.c ****     /*  Initializations of structure parameters for 128 point FFT */
 150:Source\TransformFunctions/arm_cfft_radix2_init_f32.c ****     S->twidCoefModifier = 32u;
 226              		.loc 1 150 0
 227 012c 7B68     		ldr	r3, [r7, #4]
 228 012e 2022     		mov	r2, #32
 229 0130 9A81     		strh	r2, [r3, #12]
 151:Source\TransformFunctions/arm_cfft_radix2_init_f32.c ****     S->bitRevFactor = 32u;
 230              		.loc 1 151 0
 231 0132 7B68     		ldr	r3, [r7, #4]
 232 0134 2022     		mov	r2, #32
 233 0136 DA81     		strh	r2, [r3, #14]
 152:Source\TransformFunctions/arm_cfft_radix2_init_f32.c ****     S->pBitRevTable = (uint16_t *) & armBitRevTable[31];
 234              		.loc 1 152 0
 235 0138 7B68     		ldr	r3, [r7, #4]
 236 013a 264A     		ldr	r2, .L17+24
 237 013c 9A60     		str	r2, [r3, #8]
 153:Source\TransformFunctions/arm_cfft_radix2_init_f32.c ****     S->onebyfftLen = 0.0078125;
 238              		.loc 1 153 0
 239 013e 7B68     		ldr	r3, [r7, #4]
 240 0140 F022     		mov	r2, #240
 241 0142 9205     		lsl	r2, r2, #22
 242 0144 1A61     		str	r2, [r3, #16]
 154:Source\TransformFunctions/arm_cfft_radix2_init_f32.c ****     break;
 243              		.loc 1 154 0
 244 0146 30E0     		b	.L15
 245              	.L8:
ARM GAS  C:\Users\fneves\AppData\Local\Temp\ccFC0Rzs.s 			page 8


 155:Source\TransformFunctions/arm_cfft_radix2_init_f32.c **** 
 156:Source\TransformFunctions/arm_cfft_radix2_init_f32.c ****   case 64u:
 157:Source\TransformFunctions/arm_cfft_radix2_init_f32.c ****     /*  Initializations of structure parameters for 64 point FFT */
 158:Source\TransformFunctions/arm_cfft_radix2_init_f32.c ****     S->twidCoefModifier = 64u;
 246              		.loc 1 158 0
 247 0148 7B68     		ldr	r3, [r7, #4]
 248 014a 4022     		mov	r2, #64
 249 014c 9A81     		strh	r2, [r3, #12]
 159:Source\TransformFunctions/arm_cfft_radix2_init_f32.c ****     S->bitRevFactor = 64u;
 250              		.loc 1 159 0
 251 014e 7B68     		ldr	r3, [r7, #4]
 252 0150 4022     		mov	r2, #64
 253 0152 DA81     		strh	r2, [r3, #14]
 160:Source\TransformFunctions/arm_cfft_radix2_init_f32.c ****     S->pBitRevTable = (uint16_t *) & armBitRevTable[63];
 254              		.loc 1 160 0
 255 0154 7B68     		ldr	r3, [r7, #4]
 256 0156 204A     		ldr	r2, .L17+28
 257 0158 9A60     		str	r2, [r3, #8]
 161:Source\TransformFunctions/arm_cfft_radix2_init_f32.c ****     S->onebyfftLen = 0.015625f;
 258              		.loc 1 161 0
 259 015a 7B68     		ldr	r3, [r7, #4]
 260 015c F222     		mov	r2, #242
 261 015e 9205     		lsl	r2, r2, #22
 262 0160 1A61     		str	r2, [r3, #16]
 162:Source\TransformFunctions/arm_cfft_radix2_init_f32.c ****     break;
 263              		.loc 1 162 0
 264 0162 22E0     		b	.L15
 265              	.L5:
 163:Source\TransformFunctions/arm_cfft_radix2_init_f32.c **** 
 164:Source\TransformFunctions/arm_cfft_radix2_init_f32.c ****   case 32u:
 165:Source\TransformFunctions/arm_cfft_radix2_init_f32.c ****     /*  Initializations of structure parameters for 64 point FFT */
 166:Source\TransformFunctions/arm_cfft_radix2_init_f32.c ****     S->twidCoefModifier = 128u;
 266              		.loc 1 166 0
 267 0164 7B68     		ldr	r3, [r7, #4]
 268 0166 8022     		mov	r2, #128
 269 0168 9A81     		strh	r2, [r3, #12]
 167:Source\TransformFunctions/arm_cfft_radix2_init_f32.c ****     S->bitRevFactor = 128u;
 270              		.loc 1 167 0
 271 016a 7B68     		ldr	r3, [r7, #4]
 272 016c 8022     		mov	r2, #128
 273 016e DA81     		strh	r2, [r3, #14]
 168:Source\TransformFunctions/arm_cfft_radix2_init_f32.c ****     S->pBitRevTable = (uint16_t *) & armBitRevTable[127];
 274              		.loc 1 168 0
 275 0170 7B68     		ldr	r3, [r7, #4]
 276 0172 1A4A     		ldr	r2, .L17+32
 277 0174 9A60     		str	r2, [r3, #8]
 169:Source\TransformFunctions/arm_cfft_radix2_init_f32.c ****     S->onebyfftLen = 0.03125;
 278              		.loc 1 169 0
 279 0176 7B68     		ldr	r3, [r7, #4]
 280 0178 F422     		mov	r2, #244
 281 017a 9205     		lsl	r2, r2, #22
 282 017c 1A61     		str	r2, [r3, #16]
 170:Source\TransformFunctions/arm_cfft_radix2_init_f32.c ****     break;
 283              		.loc 1 170 0
 284 017e 14E0     		b	.L15
 285              	.L7:
 171:Source\TransformFunctions/arm_cfft_radix2_init_f32.c **** 
ARM GAS  C:\Users\fneves\AppData\Local\Temp\ccFC0Rzs.s 			page 9


 172:Source\TransformFunctions/arm_cfft_radix2_init_f32.c ****   case 16u:
 173:Source\TransformFunctions/arm_cfft_radix2_init_f32.c ****     /*  Initializations of structure parameters for 16 point FFT */
 174:Source\TransformFunctions/arm_cfft_radix2_init_f32.c ****     S->twidCoefModifier = 256u;
 286              		.loc 1 174 0
 287 0180 7B68     		ldr	r3, [r7, #4]
 288 0182 8022     		mov	r2, #128
 289 0184 5200     		lsl	r2, r2, #1
 290 0186 9A81     		strh	r2, [r3, #12]
 175:Source\TransformFunctions/arm_cfft_radix2_init_f32.c ****     S->bitRevFactor = 256u;
 291              		.loc 1 175 0
 292 0188 7B68     		ldr	r3, [r7, #4]
 293 018a 8022     		mov	r2, #128
 294 018c 5200     		lsl	r2, r2, #1
 295 018e DA81     		strh	r2, [r3, #14]
 176:Source\TransformFunctions/arm_cfft_radix2_init_f32.c ****     S->pBitRevTable = (uint16_t *) & armBitRevTable[255];
 296              		.loc 1 176 0
 297 0190 7B68     		ldr	r3, [r7, #4]
 298 0192 134A     		ldr	r2, .L17+36
 299 0194 9A60     		str	r2, [r3, #8]
 177:Source\TransformFunctions/arm_cfft_radix2_init_f32.c ****     S->onebyfftLen = 0.0625f;
 300              		.loc 1 177 0
 301 0196 7B68     		ldr	r3, [r7, #4]
 302 0198 F622     		mov	r2, #246
 303 019a 9205     		lsl	r2, r2, #22
 304 019c 1A61     		str	r2, [r3, #16]
 178:Source\TransformFunctions/arm_cfft_radix2_init_f32.c ****     break;
 305              		.loc 1 178 0
 306 019e 04E0     		b	.L15
 307              	.L2:
 179:Source\TransformFunctions/arm_cfft_radix2_init_f32.c **** 
 180:Source\TransformFunctions/arm_cfft_radix2_init_f32.c **** 
 181:Source\TransformFunctions/arm_cfft_radix2_init_f32.c ****   default:
 182:Source\TransformFunctions/arm_cfft_radix2_init_f32.c ****     /*  Reporting argument error if fftSize is not valid value */
 183:Source\TransformFunctions/arm_cfft_radix2_init_f32.c ****     status = ARM_MATH_ARGUMENT_ERROR;
 308              		.loc 1 183 0
 309 01a0 0F23     		mov	r3, #15
 310 01a2 FB18     		add	r3, r7, r3
 311 01a4 FF22     		mov	r2, #255
 312 01a6 1A70     		strb	r2, [r3]
 184:Source\TransformFunctions/arm_cfft_radix2_init_f32.c ****     break;
 313              		.loc 1 184 0
 314 01a8 C046     		mov	r8, r8
 315              	.L15:
 185:Source\TransformFunctions/arm_cfft_radix2_init_f32.c ****   }
 186:Source\TransformFunctions/arm_cfft_radix2_init_f32.c **** 
 187:Source\TransformFunctions/arm_cfft_radix2_init_f32.c ****   return (status);
 316              		.loc 1 187 0
 317 01aa 0F23     		mov	r3, #15
 318 01ac FB18     		add	r3, r7, r3
 319 01ae 1B78     		ldrb	r3, [r3]
 320 01b0 5BB2     		sxtb	r3, r3
 188:Source\TransformFunctions/arm_cfft_radix2_init_f32.c **** }
 321              		.loc 1 188 0
 322 01b2 181C     		mov	r0, r3
 323 01b4 BD46     		mov	sp, r7
 324 01b6 05B0     		add	sp, sp, #20
 325              		@ sp needed
ARM GAS  C:\Users\fneves\AppData\Local\Temp\ccFC0Rzs.s 			page 10


 326 01b8 90BD     		pop	{r4, r7, pc}
 327              	.L18:
 328 01ba C046     		.align	2
 329              	.L17:
 330 01bc 00000000 		.word	twiddleCoef_4096
 331 01c0 00000000 		.word	armBitRevTable
 332 01c4 02000000 		.word	armBitRevTable+2
 333 01c8 06000000 		.word	armBitRevTable+6
 334 01cc 0E000000 		.word	armBitRevTable+14
 335 01d0 1E000000 		.word	armBitRevTable+30
 336 01d4 3E000000 		.word	armBitRevTable+62
 337 01d8 7E000000 		.word	armBitRevTable+126
 338 01dc FE000000 		.word	armBitRevTable+254
 339 01e0 FE010000 		.word	armBitRevTable+510
 340              		.cfi_endproc
 341              	.LFE82:
 342              		.size	arm_cfft_radix2_init_f32, .-arm_cfft_radix2_init_f32
 343              		.text
 344              	.Letext0:
 345              		.file 2 "c:\\program files (x86)\\cypress\\psoc creator\\4.0\\psoc creator\\import\\gnu\\arm\\4.9.
 346              		.file 3 "c:\\program files (x86)\\cypress\\psoc creator\\4.0\\psoc creator\\import\\gnu\\arm\\4.9.
 347              		.file 4 ".\\Include/arm_math.h"
 348              		.file 5 ".\\Include/arm_common_tables.h"
 349              		.section	.debug_info,"",%progbits
 350              	.Ldebug_info0:
 351 0000 33020000 		.4byte	0x233
 352 0004 0400     		.2byte	0x4
 353 0006 00000000 		.4byte	.Ldebug_abbrev0
 354 000a 04       		.byte	0x4
 355 000b 01       		.uleb128 0x1
 356 000c E5010000 		.4byte	.LASF38
 357 0010 01       		.byte	0x1
 358 0011 83010000 		.4byte	.LASF39
 359 0015 4F000000 		.4byte	.LASF40
 360 0019 00000000 		.4byte	.Ldebug_ranges0+0
 361 001d 00000000 		.4byte	0
 362 0021 00000000 		.4byte	.Ldebug_line0
 363 0025 02       		.uleb128 0x2
 364 0026 01       		.byte	0x1
 365 0027 06       		.byte	0x6
 366 0028 14030000 		.4byte	.LASF0
 367 002c 03       		.uleb128 0x3
 368 002d 19000000 		.4byte	.LASF3
 369 0031 02       		.byte	0x2
 370 0032 1D       		.byte	0x1d
 371 0033 37000000 		.4byte	0x37
 372 0037 02       		.uleb128 0x2
 373 0038 01       		.byte	0x1
 374 0039 08       		.byte	0x8
 375 003a DF000000 		.4byte	.LASF1
 376 003e 02       		.uleb128 0x2
 377 003f 02       		.byte	0x2
 378 0040 05       		.byte	0x5
 379 0041 EC020000 		.4byte	.LASF2
 380 0045 03       		.uleb128 0x3
 381 0046 59010000 		.4byte	.LASF4
 382 004a 02       		.byte	0x2
ARM GAS  C:\Users\fneves\AppData\Local\Temp\ccFC0Rzs.s 			page 11


 383 004b 2B       		.byte	0x2b
 384 004c 50000000 		.4byte	0x50
 385 0050 02       		.uleb128 0x2
 386 0051 02       		.byte	0x2
 387 0052 07       		.byte	0x7
 388 0053 29010000 		.4byte	.LASF5
 389 0057 02       		.uleb128 0x2
 390 0058 04       		.byte	0x4
 391 0059 05       		.byte	0x5
 392 005a FF020000 		.4byte	.LASF6
 393 005e 02       		.uleb128 0x2
 394 005f 04       		.byte	0x4
 395 0060 07       		.byte	0x7
 396 0061 17010000 		.4byte	.LASF7
 397 0065 02       		.uleb128 0x2
 398 0066 08       		.byte	0x8
 399 0067 05       		.byte	0x5
 400 0068 B5020000 		.4byte	.LASF8
 401 006c 02       		.uleb128 0x2
 402 006d 08       		.byte	0x8
 403 006e 07       		.byte	0x7
 404 006f CE010000 		.4byte	.LASF9
 405 0073 04       		.uleb128 0x4
 406 0074 04       		.byte	0x4
 407 0075 05       		.byte	0x5
 408 0076 696E7400 		.ascii	"int\000"
 409 007a 02       		.uleb128 0x2
 410 007b 04       		.byte	0x4
 411 007c 07       		.byte	0x7
 412 007d C1010000 		.4byte	.LASF10
 413 0081 03       		.uleb128 0x3
 414 0082 95000000 		.4byte	.LASF11
 415 0086 03       		.byte	0x3
 416 0087 15       		.byte	0x15
 417 0088 2C000000 		.4byte	0x2c
 418 008c 03       		.uleb128 0x3
 419 008d F6020000 		.4byte	.LASF12
 420 0091 03       		.byte	0x3
 421 0092 21       		.byte	0x21
 422 0093 45000000 		.4byte	0x45
 423 0097 02       		.uleb128 0x2
 424 0098 04       		.byte	0x4
 425 0099 07       		.byte	0x7
 426 009a AC020000 		.4byte	.LASF13
 427 009e 02       		.uleb128 0x2
 428 009f 01       		.byte	0x1
 429 00a0 08       		.byte	0x8
 430 00a1 CC020000 		.4byte	.LASF14
 431 00a5 02       		.uleb128 0x2
 432 00a6 08       		.byte	0x8
 433 00a7 04       		.byte	0x4
 434 00a8 64010000 		.4byte	.LASF15
 435 00ac 02       		.uleb128 0x2
 436 00ad 04       		.byte	0x4
 437 00ae 04       		.byte	0x4
 438 00af D9000000 		.4byte	.LASF16
 439 00b3 02       		.uleb128 0x2
ARM GAS  C:\Users\fneves\AppData\Local\Temp\ccFC0Rzs.s 			page 12


 440 00b4 08       		.byte	0x8
 441 00b5 04       		.byte	0x4
 442 00b6 08030000 		.4byte	.LASF17
 443 00ba 05       		.uleb128 0x5
 444 00bb 01       		.byte	0x1
 445 00bc 04       		.byte	0x4
 446 00bd 8401     		.2byte	0x184
 447 00bf EE000000 		.4byte	0xee
 448 00c3 06       		.uleb128 0x6
 449 00c4 DB020000 		.4byte	.LASF18
 450 00c8 00       		.sleb128 0
 451 00c9 06       		.uleb128 0x6
 452 00ca 6B010000 		.4byte	.LASF19
 453 00ce 7F       		.sleb128 -1
 454 00cf 06       		.uleb128 0x6
 455 00d0 96020000 		.4byte	.LASF20
 456 00d4 7E       		.sleb128 -2
 457 00d5 06       		.uleb128 0x6
 458 00d6 B5000000 		.4byte	.LASF21
 459 00da 7D       		.sleb128 -3
 460 00db 06       		.uleb128 0x6
 461 00dc 86020000 		.4byte	.LASF22
 462 00e0 7C       		.sleb128 -4
 463 00e1 06       		.uleb128 0x6
 464 00e2 2B030000 		.4byte	.LASF23
 465 00e6 7B       		.sleb128 -5
 466 00e7 06       		.uleb128 0x6
 467 00e8 43010000 		.4byte	.LASF24
 468 00ec 7A       		.sleb128 -6
 469 00ed 00       		.byte	0
 470 00ee 07       		.uleb128 0x7
 471 00ef 20030000 		.4byte	.LASF25
 472 00f3 04       		.byte	0x4
 473 00f4 8C01     		.2byte	0x18c
 474 00f6 BA000000 		.4byte	0xba
 475 00fa 07       		.uleb128 0x7
 476 00fb D1020000 		.4byte	.LASF26
 477 00ff 04       		.byte	0x4
 478 0100 A501     		.2byte	0x1a5
 479 0102 AC000000 		.4byte	0xac
 480 0106 08       		.uleb128 0x8
 481 0107 04       		.byte	0x4
 482 0108 FA000000 		.4byte	0xfa
 483 010c 08       		.uleb128 0x8
 484 010d 04       		.byte	0x4
 485 010e 8C000000 		.4byte	0x8c
 486 0112 09       		.uleb128 0x9
 487 0113 14       		.byte	0x14
 488 0114 04       		.byte	0x4
 489 0115 4608     		.2byte	0x846
 490 0117 84010000 		.4byte	0x184
 491 011b 0A       		.uleb128 0xa
 492 011c 3C010000 		.4byte	.LASF27
 493 0120 04       		.byte	0x4
 494 0121 4808     		.2byte	0x848
 495 0123 8C000000 		.4byte	0x8c
 496 0127 00       		.byte	0
ARM GAS  C:\Users\fneves\AppData\Local\Temp\ccFC0Rzs.s 			page 13


 497 0128 0A       		.uleb128 0xa
 498 0129 B8010000 		.4byte	.LASF28
 499 012d 04       		.byte	0x4
 500 012e 4908     		.2byte	0x849
 501 0130 81000000 		.4byte	0x81
 502 0134 02       		.byte	0x2
 503 0135 0A       		.uleb128 0xa
 504 0136 77020000 		.4byte	.LASF29
 505 013a 04       		.byte	0x4
 506 013b 4A08     		.2byte	0x84a
 507 013d 81000000 		.4byte	0x81
 508 0141 03       		.byte	0x3
 509 0142 0A       		.uleb128 0xa
 510 0143 C3020000 		.4byte	.LASF30
 511 0147 04       		.byte	0x4
 512 0148 4B08     		.2byte	0x84b
 513 014a 06010000 		.4byte	0x106
 514 014e 04       		.byte	0x4
 515 014f 0A       		.uleb128 0xa
 516 0150 CC000000 		.4byte	.LASF31
 517 0154 04       		.byte	0x4
 518 0155 4C08     		.2byte	0x84c
 519 0157 0C010000 		.4byte	0x10c
 520 015b 08       		.byte	0x8
 521 015c 0A       		.uleb128 0xa
 522 015d 9D000000 		.4byte	.LASF32
 523 0161 04       		.byte	0x4
 524 0162 4D08     		.2byte	0x84d
 525 0164 8C000000 		.4byte	0x8c
 526 0168 0C       		.byte	0xc
 527 0169 0A       		.uleb128 0xa
 528 016a ED000000 		.4byte	.LASF33
 529 016e 04       		.byte	0x4
 530 016f 4E08     		.2byte	0x84e
 531 0171 8C000000 		.4byte	0x8c
 532 0175 0E       		.byte	0xe
 533 0176 0A       		.uleb128 0xa
 534 0177 0B010000 		.4byte	.LASF34
 535 017b 04       		.byte	0x4
 536 017c 4F08     		.2byte	0x84f
 537 017e FA000000 		.4byte	0xfa
 538 0182 10       		.byte	0x10
 539 0183 00       		.byte	0
 540 0184 07       		.uleb128 0x7
 541 0185 32000000 		.4byte	.LASF35
 542 0189 04       		.byte	0x4
 543 018a 5008     		.2byte	0x850
 544 018c 12010000 		.4byte	0x112
 545 0190 0B       		.uleb128 0xb
 546 0191 00000000 		.4byte	.LASF41
 547 0195 01       		.byte	0x1
 548 0196 3F       		.byte	0x3f
 549 0197 EE000000 		.4byte	0xee
 550 019b 00000000 		.4byte	.LFB82
 551 019f E4010000 		.4byte	.LFE82-.LFB82
 552 01a3 01       		.uleb128 0x1
 553 01a4 9C       		.byte	0x9c
ARM GAS  C:\Users\fneves\AppData\Local\Temp\ccFC0Rzs.s 			page 14


 554 01a5 EE010000 		.4byte	0x1ee
 555 01a9 0C       		.uleb128 0xc
 556 01aa 5300     		.ascii	"S\000"
 557 01ac 01       		.byte	0x1
 558 01ad 40       		.byte	0x40
 559 01ae EE010000 		.4byte	0x1ee
 560 01b2 02       		.uleb128 0x2
 561 01b3 91       		.byte	0x91
 562 01b4 64       		.sleb128 -28
 563 01b5 0D       		.uleb128 0xd
 564 01b6 3C010000 		.4byte	.LASF27
 565 01ba 01       		.byte	0x1
 566 01bb 41       		.byte	0x41
 567 01bc 8C000000 		.4byte	0x8c
 568 01c0 02       		.uleb128 0x2
 569 01c1 91       		.byte	0x91
 570 01c2 62       		.sleb128 -30
 571 01c3 0D       		.uleb128 0xd
 572 01c4 B8010000 		.4byte	.LASF28
 573 01c8 01       		.byte	0x1
 574 01c9 42       		.byte	0x42
 575 01ca 81000000 		.4byte	0x81
 576 01ce 02       		.uleb128 0x2
 577 01cf 91       		.byte	0x91
 578 01d0 61       		.sleb128 -31
 579 01d1 0D       		.uleb128 0xd
 580 01d2 77020000 		.4byte	.LASF29
 581 01d6 01       		.byte	0x1
 582 01d7 43       		.byte	0x43
 583 01d8 81000000 		.4byte	0x81
 584 01dc 02       		.uleb128 0x2
 585 01dd 91       		.byte	0x91
 586 01de 60       		.sleb128 -32
 587 01df 0E       		.uleb128 0xe
 588 01e0 AE000000 		.4byte	.LASF42
 589 01e4 01       		.byte	0x1
 590 01e5 46       		.byte	0x46
 591 01e6 EE000000 		.4byte	0xee
 592 01ea 02       		.uleb128 0x2
 593 01eb 91       		.byte	0x91
 594 01ec 6F       		.sleb128 -17
 595 01ed 00       		.byte	0
 596 01ee 08       		.uleb128 0x8
 597 01ef 04       		.byte	0x4
 598 01f0 84010000 		.4byte	0x184
 599 01f4 0F       		.uleb128 0xf
 600 01f5 8C000000 		.4byte	0x8c
 601 01f9 05020000 		.4byte	0x205
 602 01fd 10       		.uleb128 0x10
 603 01fe 97000000 		.4byte	0x97
 604 0202 FF03     		.2byte	0x3ff
 605 0204 00       		.byte	0
 606 0205 11       		.uleb128 0x11
 607 0206 23000000 		.4byte	.LASF36
 608 020a 05       		.byte	0x5
 609 020b 22       		.byte	0x22
 610 020c 10020000 		.4byte	0x210
ARM GAS  C:\Users\fneves\AppData\Local\Temp\ccFC0Rzs.s 			page 15


 611 0210 12       		.uleb128 0x12
 612 0211 F4010000 		.4byte	0x1f4
 613 0215 0F       		.uleb128 0xf
 614 0216 FA000000 		.4byte	0xfa
 615 021a 26020000 		.4byte	0x226
 616 021e 10       		.uleb128 0x10
 617 021f 97000000 		.4byte	0x97
 618 0223 FF1F     		.2byte	0x1fff
 619 0225 00       		.byte	0
 620 0226 11       		.uleb128 0x11
 621 0227 FA000000 		.4byte	.LASF37
 622 022b 05       		.byte	0x5
 623 022c 2D       		.byte	0x2d
 624 022d 31020000 		.4byte	0x231
 625 0231 12       		.uleb128 0x12
 626 0232 15020000 		.4byte	0x215
 627 0236 00       		.byte	0
 628              		.section	.debug_abbrev,"",%progbits
 629              	.Ldebug_abbrev0:
 630 0000 01       		.uleb128 0x1
 631 0001 11       		.uleb128 0x11
 632 0002 01       		.byte	0x1
 633 0003 25       		.uleb128 0x25
 634 0004 0E       		.uleb128 0xe
 635 0005 13       		.uleb128 0x13
 636 0006 0B       		.uleb128 0xb
 637 0007 03       		.uleb128 0x3
 638 0008 0E       		.uleb128 0xe
 639 0009 1B       		.uleb128 0x1b
 640 000a 0E       		.uleb128 0xe
 641 000b 55       		.uleb128 0x55
 642 000c 17       		.uleb128 0x17
 643 000d 11       		.uleb128 0x11
 644 000e 01       		.uleb128 0x1
 645 000f 10       		.uleb128 0x10
 646 0010 17       		.uleb128 0x17
 647 0011 00       		.byte	0
 648 0012 00       		.byte	0
 649 0013 02       		.uleb128 0x2
 650 0014 24       		.uleb128 0x24
 651 0015 00       		.byte	0
 652 0016 0B       		.uleb128 0xb
 653 0017 0B       		.uleb128 0xb
 654 0018 3E       		.uleb128 0x3e
 655 0019 0B       		.uleb128 0xb
 656 001a 03       		.uleb128 0x3
 657 001b 0E       		.uleb128 0xe
 658 001c 00       		.byte	0
 659 001d 00       		.byte	0
 660 001e 03       		.uleb128 0x3
 661 001f 16       		.uleb128 0x16
 662 0020 00       		.byte	0
 663 0021 03       		.uleb128 0x3
 664 0022 0E       		.uleb128 0xe
 665 0023 3A       		.uleb128 0x3a
 666 0024 0B       		.uleb128 0xb
 667 0025 3B       		.uleb128 0x3b
ARM GAS  C:\Users\fneves\AppData\Local\Temp\ccFC0Rzs.s 			page 16


 668 0026 0B       		.uleb128 0xb
 669 0027 49       		.uleb128 0x49
 670 0028 13       		.uleb128 0x13
 671 0029 00       		.byte	0
 672 002a 00       		.byte	0
 673 002b 04       		.uleb128 0x4
 674 002c 24       		.uleb128 0x24
 675 002d 00       		.byte	0
 676 002e 0B       		.uleb128 0xb
 677 002f 0B       		.uleb128 0xb
 678 0030 3E       		.uleb128 0x3e
 679 0031 0B       		.uleb128 0xb
 680 0032 03       		.uleb128 0x3
 681 0033 08       		.uleb128 0x8
 682 0034 00       		.byte	0
 683 0035 00       		.byte	0
 684 0036 05       		.uleb128 0x5
 685 0037 04       		.uleb128 0x4
 686 0038 01       		.byte	0x1
 687 0039 0B       		.uleb128 0xb
 688 003a 0B       		.uleb128 0xb
 689 003b 3A       		.uleb128 0x3a
 690 003c 0B       		.uleb128 0xb
 691 003d 3B       		.uleb128 0x3b
 692 003e 05       		.uleb128 0x5
 693 003f 01       		.uleb128 0x1
 694 0040 13       		.uleb128 0x13
 695 0041 00       		.byte	0
 696 0042 00       		.byte	0
 697 0043 06       		.uleb128 0x6
 698 0044 28       		.uleb128 0x28
 699 0045 00       		.byte	0
 700 0046 03       		.uleb128 0x3
 701 0047 0E       		.uleb128 0xe
 702 0048 1C       		.uleb128 0x1c
 703 0049 0D       		.uleb128 0xd
 704 004a 00       		.byte	0
 705 004b 00       		.byte	0
 706 004c 07       		.uleb128 0x7
 707 004d 16       		.uleb128 0x16
 708 004e 00       		.byte	0
 709 004f 03       		.uleb128 0x3
 710 0050 0E       		.uleb128 0xe
 711 0051 3A       		.uleb128 0x3a
 712 0052 0B       		.uleb128 0xb
 713 0053 3B       		.uleb128 0x3b
 714 0054 05       		.uleb128 0x5
 715 0055 49       		.uleb128 0x49
 716 0056 13       		.uleb128 0x13
 717 0057 00       		.byte	0
 718 0058 00       		.byte	0
 719 0059 08       		.uleb128 0x8
 720 005a 0F       		.uleb128 0xf
 721 005b 00       		.byte	0
 722 005c 0B       		.uleb128 0xb
 723 005d 0B       		.uleb128 0xb
 724 005e 49       		.uleb128 0x49
ARM GAS  C:\Users\fneves\AppData\Local\Temp\ccFC0Rzs.s 			page 17


 725 005f 13       		.uleb128 0x13
 726 0060 00       		.byte	0
 727 0061 00       		.byte	0
 728 0062 09       		.uleb128 0x9
 729 0063 13       		.uleb128 0x13
 730 0064 01       		.byte	0x1
 731 0065 0B       		.uleb128 0xb
 732 0066 0B       		.uleb128 0xb
 733 0067 3A       		.uleb128 0x3a
 734 0068 0B       		.uleb128 0xb
 735 0069 3B       		.uleb128 0x3b
 736 006a 05       		.uleb128 0x5
 737 006b 01       		.uleb128 0x1
 738 006c 13       		.uleb128 0x13
 739 006d 00       		.byte	0
 740 006e 00       		.byte	0
 741 006f 0A       		.uleb128 0xa
 742 0070 0D       		.uleb128 0xd
 743 0071 00       		.byte	0
 744 0072 03       		.uleb128 0x3
 745 0073 0E       		.uleb128 0xe
 746 0074 3A       		.uleb128 0x3a
 747 0075 0B       		.uleb128 0xb
 748 0076 3B       		.uleb128 0x3b
 749 0077 05       		.uleb128 0x5
 750 0078 49       		.uleb128 0x49
 751 0079 13       		.uleb128 0x13
 752 007a 38       		.uleb128 0x38
 753 007b 0B       		.uleb128 0xb
 754 007c 00       		.byte	0
 755 007d 00       		.byte	0
 756 007e 0B       		.uleb128 0xb
 757 007f 2E       		.uleb128 0x2e
 758 0080 01       		.byte	0x1
 759 0081 3F       		.uleb128 0x3f
 760 0082 19       		.uleb128 0x19
 761 0083 03       		.uleb128 0x3
 762 0084 0E       		.uleb128 0xe
 763 0085 3A       		.uleb128 0x3a
 764 0086 0B       		.uleb128 0xb
 765 0087 3B       		.uleb128 0x3b
 766 0088 0B       		.uleb128 0xb
 767 0089 27       		.uleb128 0x27
 768 008a 19       		.uleb128 0x19
 769 008b 49       		.uleb128 0x49
 770 008c 13       		.uleb128 0x13
 771 008d 11       		.uleb128 0x11
 772 008e 01       		.uleb128 0x1
 773 008f 12       		.uleb128 0x12
 774 0090 06       		.uleb128 0x6
 775 0091 40       		.uleb128 0x40
 776 0092 18       		.uleb128 0x18
 777 0093 9742     		.uleb128 0x2117
 778 0095 19       		.uleb128 0x19
 779 0096 01       		.uleb128 0x1
 780 0097 13       		.uleb128 0x13
 781 0098 00       		.byte	0
ARM GAS  C:\Users\fneves\AppData\Local\Temp\ccFC0Rzs.s 			page 18


 782 0099 00       		.byte	0
 783 009a 0C       		.uleb128 0xc
 784 009b 05       		.uleb128 0x5
 785 009c 00       		.byte	0
 786 009d 03       		.uleb128 0x3
 787 009e 08       		.uleb128 0x8
 788 009f 3A       		.uleb128 0x3a
 789 00a0 0B       		.uleb128 0xb
 790 00a1 3B       		.uleb128 0x3b
 791 00a2 0B       		.uleb128 0xb
 792 00a3 49       		.uleb128 0x49
 793 00a4 13       		.uleb128 0x13
 794 00a5 02       		.uleb128 0x2
 795 00a6 18       		.uleb128 0x18
 796 00a7 00       		.byte	0
 797 00a8 00       		.byte	0
 798 00a9 0D       		.uleb128 0xd
 799 00aa 05       		.uleb128 0x5
 800 00ab 00       		.byte	0
 801 00ac 03       		.uleb128 0x3
 802 00ad 0E       		.uleb128 0xe
 803 00ae 3A       		.uleb128 0x3a
 804 00af 0B       		.uleb128 0xb
 805 00b0 3B       		.uleb128 0x3b
 806 00b1 0B       		.uleb128 0xb
 807 00b2 49       		.uleb128 0x49
 808 00b3 13       		.uleb128 0x13
 809 00b4 02       		.uleb128 0x2
 810 00b5 18       		.uleb128 0x18
 811 00b6 00       		.byte	0
 812 00b7 00       		.byte	0
 813 00b8 0E       		.uleb128 0xe
 814 00b9 34       		.uleb128 0x34
 815 00ba 00       		.byte	0
 816 00bb 03       		.uleb128 0x3
 817 00bc 0E       		.uleb128 0xe
 818 00bd 3A       		.uleb128 0x3a
 819 00be 0B       		.uleb128 0xb
 820 00bf 3B       		.uleb128 0x3b
 821 00c0 0B       		.uleb128 0xb
 822 00c1 49       		.uleb128 0x49
 823 00c2 13       		.uleb128 0x13
 824 00c3 02       		.uleb128 0x2
 825 00c4 18       		.uleb128 0x18
 826 00c5 00       		.byte	0
 827 00c6 00       		.byte	0
 828 00c7 0F       		.uleb128 0xf
 829 00c8 01       		.uleb128 0x1
 830 00c9 01       		.byte	0x1
 831 00ca 49       		.uleb128 0x49
 832 00cb 13       		.uleb128 0x13
 833 00cc 01       		.uleb128 0x1
 834 00cd 13       		.uleb128 0x13
 835 00ce 00       		.byte	0
 836 00cf 00       		.byte	0
 837 00d0 10       		.uleb128 0x10
 838 00d1 21       		.uleb128 0x21
ARM GAS  C:\Users\fneves\AppData\Local\Temp\ccFC0Rzs.s 			page 19


 839 00d2 00       		.byte	0
 840 00d3 49       		.uleb128 0x49
 841 00d4 13       		.uleb128 0x13
 842 00d5 2F       		.uleb128 0x2f
 843 00d6 05       		.uleb128 0x5
 844 00d7 00       		.byte	0
 845 00d8 00       		.byte	0
 846 00d9 11       		.uleb128 0x11
 847 00da 34       		.uleb128 0x34
 848 00db 00       		.byte	0
 849 00dc 03       		.uleb128 0x3
 850 00dd 0E       		.uleb128 0xe
 851 00de 3A       		.uleb128 0x3a
 852 00df 0B       		.uleb128 0xb
 853 00e0 3B       		.uleb128 0x3b
 854 00e1 0B       		.uleb128 0xb
 855 00e2 49       		.uleb128 0x49
 856 00e3 13       		.uleb128 0x13
 857 00e4 3F       		.uleb128 0x3f
 858 00e5 19       		.uleb128 0x19
 859 00e6 3C       		.uleb128 0x3c
 860 00e7 19       		.uleb128 0x19
 861 00e8 00       		.byte	0
 862 00e9 00       		.byte	0
 863 00ea 12       		.uleb128 0x12
 864 00eb 26       		.uleb128 0x26
 865 00ec 00       		.byte	0
 866 00ed 49       		.uleb128 0x49
 867 00ee 13       		.uleb128 0x13
 868 00ef 00       		.byte	0
 869 00f0 00       		.byte	0
 870 00f1 00       		.byte	0
 871              		.section	.debug_aranges,"",%progbits
 872 0000 1C000000 		.4byte	0x1c
 873 0004 0200     		.2byte	0x2
 874 0006 00000000 		.4byte	.Ldebug_info0
 875 000a 04       		.byte	0x4
 876 000b 00       		.byte	0
 877 000c 0000     		.2byte	0
 878 000e 0000     		.2byte	0
 879 0010 00000000 		.4byte	.LFB82
 880 0014 E4010000 		.4byte	.LFE82-.LFB82
 881 0018 00000000 		.4byte	0
 882 001c 00000000 		.4byte	0
 883              		.section	.debug_ranges,"",%progbits
 884              	.Ldebug_ranges0:
 885 0000 00000000 		.4byte	.LFB82
 886 0004 E4010000 		.4byte	.LFE82
 887 0008 00000000 		.4byte	0
 888 000c 00000000 		.4byte	0
 889              		.section	.debug_line,"",%progbits
 890              	.Ldebug_line0:
 891 0000 C1010000 		.section	.debug_str,"MS",%progbits,1
 891      02007201 
 891      00000201 
 891      FB0E0D00 
 891      01010101 
ARM GAS  C:\Users\fneves\AppData\Local\Temp\ccFC0Rzs.s 			page 20


 892              	.LASF41:
 893 0000 61726D5F 		.ascii	"arm_cfft_radix2_init_f32\000"
 893      63666674 
 893      5F726164 
 893      6978325F 
 893      696E6974 
 894              	.LASF3:
 895 0019 5F5F7569 		.ascii	"__uint8_t\000"
 895      6E74385F 
 895      7400
 896              	.LASF36:
 897 0023 61726D42 		.ascii	"armBitRevTable\000"
 897      69745265 
 897      76546162 
 897      6C6500
 898              	.LASF35:
 899 0032 61726D5F 		.ascii	"arm_cfft_radix2_instance_f32\000"
 899      63666674 
 899      5F726164 
 899      6978325F 
 899      696E7374 
 900              	.LASF40:
 901 004f 433A5C55 		.ascii	"C:\\Users\\fneves\\Documents\\PSoC Creator\\wp_1\\e"
 901      73657273 
 901      5C666E65 
 901      7665735C 
 901      446F6375 
 902 007c 6E67696E 		.ascii	"ngine_speed_sensor.cydsn\000"
 902      655F7370 
 902      6565645F 
 902      73656E73 
 902      6F722E63 
 903              	.LASF11:
 904 0095 75696E74 		.ascii	"uint8_t\000"
 904      385F7400 
 905              	.LASF32:
 906 009d 74776964 		.ascii	"twidCoefModifier\000"
 906      436F6566 
 906      4D6F6469 
 906      66696572 
 906      00
 907              	.LASF42:
 908 00ae 73746174 		.ascii	"status\000"
 908      757300
 909              	.LASF21:
 910 00b5 41524D5F 		.ascii	"ARM_MATH_SIZE_MISMATCH\000"
 910      4D415448 
 910      5F53495A 
 910      455F4D49 
 910      534D4154 
 911              	.LASF31:
 912 00cc 70426974 		.ascii	"pBitRevTable\000"
 912      52657654 
 912      61626C65 
 912      00
 913              	.LASF16:
 914 00d9 666C6F61 		.ascii	"float\000"
ARM GAS  C:\Users\fneves\AppData\Local\Temp\ccFC0Rzs.s 			page 21


 914      7400
 915              	.LASF1:
 916 00df 756E7369 		.ascii	"unsigned char\000"
 916      676E6564 
 916      20636861 
 916      7200
 917              	.LASF33:
 918 00ed 62697452 		.ascii	"bitRevFactor\000"
 918      65764661 
 918      63746F72 
 918      00
 919              	.LASF37:
 920 00fa 74776964 		.ascii	"twiddleCoef_4096\000"
 920      646C6543 
 920      6F65665F 
 920      34303936 
 920      00
 921              	.LASF34:
 922 010b 6F6E6562 		.ascii	"onebyfftLen\000"
 922      79666674 
 922      4C656E00 
 923              	.LASF7:
 924 0117 6C6F6E67 		.ascii	"long unsigned int\000"
 924      20756E73 
 924      69676E65 
 924      6420696E 
 924      7400
 925              	.LASF5:
 926 0129 73686F72 		.ascii	"short unsigned int\000"
 926      7420756E 
 926      7369676E 
 926      65642069 
 926      6E7400
 927              	.LASF27:
 928 013c 6666744C 		.ascii	"fftLen\000"
 928      656E00
 929              	.LASF24:
 930 0143 41524D5F 		.ascii	"ARM_MATH_TEST_FAILURE\000"
 930      4D415448 
 930      5F544553 
 930      545F4641 
 930      494C5552 
 931              	.LASF4:
 932 0159 5F5F7569 		.ascii	"__uint16_t\000"
 932      6E743136 
 932      5F7400
 933              	.LASF15:
 934 0164 646F7562 		.ascii	"double\000"
 934      6C6500
 935              	.LASF19:
 936 016b 41524D5F 		.ascii	"ARM_MATH_ARGUMENT_ERROR\000"
 936      4D415448 
 936      5F415247 
 936      554D454E 
 936      545F4552 
 937              	.LASF39:
 938 0183 536F7572 		.ascii	"Source\\TransformFunctions\\arm_cfft_radix2_init_f3"
ARM GAS  C:\Users\fneves\AppData\Local\Temp\ccFC0Rzs.s 			page 22


 938      63655C54 
 938      72616E73 
 938      666F726D 
 938      46756E63 
 939 01b4 322E6300 		.ascii	"2.c\000"
 940              	.LASF28:
 941 01b8 69666674 		.ascii	"ifftFlag\000"
 941      466C6167 
 941      00
 942              	.LASF10:
 943 01c1 756E7369 		.ascii	"unsigned int\000"
 943      676E6564 
 943      20696E74 
 943      00
 944              	.LASF9:
 945 01ce 6C6F6E67 		.ascii	"long long unsigned int\000"
 945      206C6F6E 
 945      6720756E 
 945      7369676E 
 945      65642069 
 946              	.LASF38:
 947 01e5 474E5520 		.ascii	"GNU C 4.9.3 20150303 (release) [ARM/embedded-4_9-br"
 947      4320342E 
 947      392E3320 
 947      32303135 
 947      30333033 
 948 0218 616E6368 		.ascii	"anch revision 221220] -mcpu=cortex-m0plus -mthumb -"
 948      20726576 
 948      6973696F 
 948      6E203232 
 948      31323230 
 949 024b 67202D4F 		.ascii	"g -O0 -ffunction-sections -ffat-lto-objects\000"
 949      30202D66 
 949      66756E63 
 949      74696F6E 
 949      2D736563 
 950              	.LASF29:
 951 0277 62697452 		.ascii	"bitReverseFlag\000"
 951      65766572 
 951      7365466C 
 951      616700
 952              	.LASF22:
 953 0286 41524D5F 		.ascii	"ARM_MATH_NANINF\000"
 953      4D415448 
 953      5F4E414E 
 953      494E4600 
 954              	.LASF20:
 955 0296 41524D5F 		.ascii	"ARM_MATH_LENGTH_ERROR\000"
 955      4D415448 
 955      5F4C454E 
 955      4754485F 
 955      4552524F 
 956              	.LASF13:
 957 02ac 73697A65 		.ascii	"sizetype\000"
 957      74797065 
 957      00
 958              	.LASF8:
ARM GAS  C:\Users\fneves\AppData\Local\Temp\ccFC0Rzs.s 			page 23


 959 02b5 6C6F6E67 		.ascii	"long long int\000"
 959      206C6F6E 
 959      6720696E 
 959      7400
 960              	.LASF30:
 961 02c3 70547769 		.ascii	"pTwiddle\000"
 961      64646C65 
 961      00
 962              	.LASF14:
 963 02cc 63686172 		.ascii	"char\000"
 963      00
 964              	.LASF26:
 965 02d1 666C6F61 		.ascii	"float32_t\000"
 965      7433325F 
 965      7400
 966              	.LASF18:
 967 02db 41524D5F 		.ascii	"ARM_MATH_SUCCESS\000"
 967      4D415448 
 967      5F535543 
 967      43455353 
 967      00
 968              	.LASF2:
 969 02ec 73686F72 		.ascii	"short int\000"
 969      7420696E 
 969      7400
 970              	.LASF12:
 971 02f6 75696E74 		.ascii	"uint16_t\000"
 971      31365F74 
 971      00
 972              	.LASF6:
 973 02ff 6C6F6E67 		.ascii	"long int\000"
 973      20696E74 
 973      00
 974              	.LASF17:
 975 0308 6C6F6E67 		.ascii	"long double\000"
 975      20646F75 
 975      626C6500 
 976              	.LASF0:
 977 0314 7369676E 		.ascii	"signed char\000"
 977      65642063 
 977      68617200 
 978              	.LASF25:
 979 0320 61726D5F 		.ascii	"arm_status\000"
 979      73746174 
 979      757300
 980              	.LASF23:
 981 032b 41524D5F 		.ascii	"ARM_MATH_SINGULAR\000"
 981      4D415448 
 981      5F53494E 
 981      47554C41 
 981      5200
 982              		.ident	"GCC: (GNU Tools for ARM Embedded Processors) 4.9.3 20150303 (release) [ARM/embedded-4_9-br
