ARM GAS  C:\Users\fneves\AppData\Local\Temp\cc6u4kkQ.s 			page 1


   1              		.cpu cortex-m0plus
   2              		.fpu softvfp
   3              		.eabi_attribute 20, 1
   4              		.eabi_attribute 21, 1
   5              		.eabi_attribute 23, 3
   6              		.eabi_attribute 24, 1
   7              		.eabi_attribute 25, 1
   8              		.eabi_attribute 26, 1
   9              		.eabi_attribute 30, 6
  10              		.eabi_attribute 34, 0
  11              		.eabi_attribute 18, 4
  12              		.code	16
  13              		.file	"arm_fir_interpolate_init_q15.c"
  14              		.text
  15              	.Ltext0:
  16              		.cfi_sections	.debug_frame
  17              		.global	__aeabi_idivmod
  18              		.global	__aeabi_idiv
  19              		.section	.text.arm_fir_interpolate_init_q15,"ax",%progbits
  20              		.align	2
  21              		.global	arm_fir_interpolate_init_q15
  22              		.code	16
  23              		.thumb_func
  24              		.type	arm_fir_interpolate_init_q15, %function
  25              	arm_fir_interpolate_init_q15:
  26              	.LFB82:
  27              		.file 1 "Source\\FilteringFunctions\\arm_fir_interpolate_init_q15.c"
   1:Source\FilteringFunctions/arm_fir_interpolate_init_q15.c **** /* ----------------------------------------------------------------------
   2:Source\FilteringFunctions/arm_fir_interpolate_init_q15.c ****  * Project:      CMSIS DSP Library
   3:Source\FilteringFunctions/arm_fir_interpolate_init_q15.c ****  * Title:        arm_fir_interpolate_init_q15.c
   4:Source\FilteringFunctions/arm_fir_interpolate_init_q15.c ****  * Description:  Q15 FIR interpolator initialization function
   5:Source\FilteringFunctions/arm_fir_interpolate_init_q15.c ****  *
   6:Source\FilteringFunctions/arm_fir_interpolate_init_q15.c ****  * $Date:        27. January 2017
   7:Source\FilteringFunctions/arm_fir_interpolate_init_q15.c ****  * $Revision:    V.1.5.1
   8:Source\FilteringFunctions/arm_fir_interpolate_init_q15.c ****  *
   9:Source\FilteringFunctions/arm_fir_interpolate_init_q15.c ****  * Target Processor: Cortex-M cores
  10:Source\FilteringFunctions/arm_fir_interpolate_init_q15.c ****  * -------------------------------------------------------------------- */
  11:Source\FilteringFunctions/arm_fir_interpolate_init_q15.c **** /*
  12:Source\FilteringFunctions/arm_fir_interpolate_init_q15.c ****  * Copyright (C) 2010-2017 ARM Limited or its affiliates. All rights reserved.
  13:Source\FilteringFunctions/arm_fir_interpolate_init_q15.c ****  *
  14:Source\FilteringFunctions/arm_fir_interpolate_init_q15.c ****  * SPDX-License-Identifier: Apache-2.0
  15:Source\FilteringFunctions/arm_fir_interpolate_init_q15.c ****  *
  16:Source\FilteringFunctions/arm_fir_interpolate_init_q15.c ****  * Licensed under the Apache License, Version 2.0 (the License); you may
  17:Source\FilteringFunctions/arm_fir_interpolate_init_q15.c ****  * not use this file except in compliance with the License.
  18:Source\FilteringFunctions/arm_fir_interpolate_init_q15.c ****  * You may obtain a copy of the License at
  19:Source\FilteringFunctions/arm_fir_interpolate_init_q15.c ****  *
  20:Source\FilteringFunctions/arm_fir_interpolate_init_q15.c ****  * www.apache.org/licenses/LICENSE-2.0
  21:Source\FilteringFunctions/arm_fir_interpolate_init_q15.c ****  *
  22:Source\FilteringFunctions/arm_fir_interpolate_init_q15.c ****  * Unless required by applicable law or agreed to in writing, software
  23:Source\FilteringFunctions/arm_fir_interpolate_init_q15.c ****  * distributed under the License is distributed on an AS IS BASIS, WITHOUT
  24:Source\FilteringFunctions/arm_fir_interpolate_init_q15.c ****  * WARRANTIES OR CONDITIONS OF ANY KIND, either express or implied.
  25:Source\FilteringFunctions/arm_fir_interpolate_init_q15.c ****  * See the License for the specific language governing permissions and
  26:Source\FilteringFunctions/arm_fir_interpolate_init_q15.c ****  * limitations under the License.
  27:Source\FilteringFunctions/arm_fir_interpolate_init_q15.c ****  */
  28:Source\FilteringFunctions/arm_fir_interpolate_init_q15.c **** 
  29:Source\FilteringFunctions/arm_fir_interpolate_init_q15.c **** #include "arm_math.h"
  30:Source\FilteringFunctions/arm_fir_interpolate_init_q15.c **** 
ARM GAS  C:\Users\fneves\AppData\Local\Temp\cc6u4kkQ.s 			page 2


  31:Source\FilteringFunctions/arm_fir_interpolate_init_q15.c **** /**
  32:Source\FilteringFunctions/arm_fir_interpolate_init_q15.c ****  * @ingroup groupFilters
  33:Source\FilteringFunctions/arm_fir_interpolate_init_q15.c ****  */
  34:Source\FilteringFunctions/arm_fir_interpolate_init_q15.c **** 
  35:Source\FilteringFunctions/arm_fir_interpolate_init_q15.c **** /**
  36:Source\FilteringFunctions/arm_fir_interpolate_init_q15.c ****  * @addtogroup FIR_Interpolate
  37:Source\FilteringFunctions/arm_fir_interpolate_init_q15.c ****  * @{
  38:Source\FilteringFunctions/arm_fir_interpolate_init_q15.c ****  */
  39:Source\FilteringFunctions/arm_fir_interpolate_init_q15.c **** 
  40:Source\FilteringFunctions/arm_fir_interpolate_init_q15.c **** /**
  41:Source\FilteringFunctions/arm_fir_interpolate_init_q15.c ****  * @brief  Initialization function for the Q15 FIR interpolator.
  42:Source\FilteringFunctions/arm_fir_interpolate_init_q15.c ****  * @param[in,out] *S        points to an instance of the Q15 FIR interpolator structure.
  43:Source\FilteringFunctions/arm_fir_interpolate_init_q15.c ****  * @param[in]     L         upsample factor.
  44:Source\FilteringFunctions/arm_fir_interpolate_init_q15.c ****  * @param[in]     numTaps   number of filter coefficients in the filter.
  45:Source\FilteringFunctions/arm_fir_interpolate_init_q15.c ****  * @param[in]     *pCoeffs  points to the filter coefficient buffer.
  46:Source\FilteringFunctions/arm_fir_interpolate_init_q15.c ****  * @param[in]     *pState   points to the state buffer.
  47:Source\FilteringFunctions/arm_fir_interpolate_init_q15.c ****  * @param[in]     blockSize number of input samples to process per call.
  48:Source\FilteringFunctions/arm_fir_interpolate_init_q15.c ****  * @return        The function returns ARM_MATH_SUCCESS if initialization was successful or ARM_MAT
  49:Source\FilteringFunctions/arm_fir_interpolate_init_q15.c ****  * the filter length <code>numTaps</code> is not a multiple of the interpolation factor <code>L</co
  50:Source\FilteringFunctions/arm_fir_interpolate_init_q15.c ****  *
  51:Source\FilteringFunctions/arm_fir_interpolate_init_q15.c ****  * <b>Description:</b>
  52:Source\FilteringFunctions/arm_fir_interpolate_init_q15.c ****  * \par
  53:Source\FilteringFunctions/arm_fir_interpolate_init_q15.c ****  * <code>pCoeffs</code> points to the array of filter coefficients stored in time reversed order:
  54:Source\FilteringFunctions/arm_fir_interpolate_init_q15.c ****  * <pre>
  55:Source\FilteringFunctions/arm_fir_interpolate_init_q15.c ****  *    {b[numTaps-1], b[numTaps-2], b[numTaps-2], ..., b[1], b[0]}
  56:Source\FilteringFunctions/arm_fir_interpolate_init_q15.c ****  * </pre>
  57:Source\FilteringFunctions/arm_fir_interpolate_init_q15.c ****  * The length of the filter <code>numTaps</code> must be a multiple of the interpolation factor <co
  58:Source\FilteringFunctions/arm_fir_interpolate_init_q15.c ****  * \par
  59:Source\FilteringFunctions/arm_fir_interpolate_init_q15.c ****  * <code>pState</code> points to the array of state variables.
  60:Source\FilteringFunctions/arm_fir_interpolate_init_q15.c ****  * <code>pState</code> is of length <code>(numTaps/L)+blockSize-1</code> words
  61:Source\FilteringFunctions/arm_fir_interpolate_init_q15.c ****  * where <code>blockSize</code> is the number of input samples processed by each call to <code>arm_
  62:Source\FilteringFunctions/arm_fir_interpolate_init_q15.c ****  */
  63:Source\FilteringFunctions/arm_fir_interpolate_init_q15.c **** 
  64:Source\FilteringFunctions/arm_fir_interpolate_init_q15.c **** arm_status arm_fir_interpolate_init_q15(
  65:Source\FilteringFunctions/arm_fir_interpolate_init_q15.c ****   arm_fir_interpolate_instance_q15 * S,
  66:Source\FilteringFunctions/arm_fir_interpolate_init_q15.c ****   uint8_t L,
  67:Source\FilteringFunctions/arm_fir_interpolate_init_q15.c ****   uint16_t numTaps,
  68:Source\FilteringFunctions/arm_fir_interpolate_init_q15.c ****   q15_t * pCoeffs,
  69:Source\FilteringFunctions/arm_fir_interpolate_init_q15.c ****   q15_t * pState,
  70:Source\FilteringFunctions/arm_fir_interpolate_init_q15.c ****   uint32_t blockSize)
  71:Source\FilteringFunctions/arm_fir_interpolate_init_q15.c **** {
  28              		.loc 1 71 0
  29              		.cfi_startproc
  30 0000 80B5     		push	{r7, lr}
  31              		.cfi_def_cfa_offset 8
  32              		.cfi_offset 7, -8
  33              		.cfi_offset 14, -4
  34 0002 86B0     		sub	sp, sp, #24
  35              		.cfi_def_cfa_offset 32
  36 0004 00AF     		add	r7, sp, #0
  37              		.cfi_def_cfa_register 7
  38 0006 F860     		str	r0, [r7, #12]
  39 0008 081C     		mov	r0, r1
  40 000a 111C     		mov	r1, r2
  41 000c 7B60     		str	r3, [r7, #4]
  42 000e 0B23     		mov	r3, #11
  43 0010 FB18     		add	r3, r7, r3
ARM GAS  C:\Users\fneves\AppData\Local\Temp\cc6u4kkQ.s 			page 3


  44 0012 021C     		add	r2, r0, #0
  45 0014 1A70     		strb	r2, [r3]
  46 0016 0823     		mov	r3, #8
  47 0018 FB18     		add	r3, r7, r3
  48 001a 0A1C     		add	r2, r1, #0
  49 001c 1A80     		strh	r2, [r3]
  72:Source\FilteringFunctions/arm_fir_interpolate_init_q15.c ****   arm_status status;
  73:Source\FilteringFunctions/arm_fir_interpolate_init_q15.c **** 
  74:Source\FilteringFunctions/arm_fir_interpolate_init_q15.c ****   /* The filter length must be a multiple of the interpolation factor */
  75:Source\FilteringFunctions/arm_fir_interpolate_init_q15.c ****   if ((numTaps % L) != 0u)
  50              		.loc 1 75 0
  51 001e 0823     		mov	r3, #8
  52 0020 FB18     		add	r3, r7, r3
  53 0022 1A88     		ldrh	r2, [r3]
  54 0024 0B23     		mov	r3, #11
  55 0026 FB18     		add	r3, r7, r3
  56 0028 1B78     		ldrb	r3, [r3]
  57 002a 101C     		mov	r0, r2
  58 002c 191C     		mov	r1, r3
  59 002e FFF7FEFF 		bl	__aeabi_idivmod
  60 0032 0B1E     		sub	r3, r1, #0
  61 0034 04D0     		beq	.L2
  76:Source\FilteringFunctions/arm_fir_interpolate_init_q15.c ****   {
  77:Source\FilteringFunctions/arm_fir_interpolate_init_q15.c ****     /* Set status as ARM_MATH_LENGTH_ERROR */
  78:Source\FilteringFunctions/arm_fir_interpolate_init_q15.c ****     status = ARM_MATH_LENGTH_ERROR;
  62              		.loc 1 78 0
  63 0036 1723     		mov	r3, #23
  64 0038 FB18     		add	r3, r7, r3
  65 003a FE22     		mov	r2, #254
  66 003c 1A70     		strb	r2, [r3]
  67 003e 2BE0     		b	.L3
  68              	.L2:
  79:Source\FilteringFunctions/arm_fir_interpolate_init_q15.c ****   }
  80:Source\FilteringFunctions/arm_fir_interpolate_init_q15.c ****   else
  81:Source\FilteringFunctions/arm_fir_interpolate_init_q15.c ****   {
  82:Source\FilteringFunctions/arm_fir_interpolate_init_q15.c **** 
  83:Source\FilteringFunctions/arm_fir_interpolate_init_q15.c ****     /* Assign coefficient pointer */
  84:Source\FilteringFunctions/arm_fir_interpolate_init_q15.c ****     S->pCoeffs = pCoeffs;
  69              		.loc 1 84 0
  70 0040 FB68     		ldr	r3, [r7, #12]
  71 0042 7A68     		ldr	r2, [r7, #4]
  72 0044 5A60     		str	r2, [r3, #4]
  85:Source\FilteringFunctions/arm_fir_interpolate_init_q15.c **** 
  86:Source\FilteringFunctions/arm_fir_interpolate_init_q15.c ****     /* Assign Interpolation factor */
  87:Source\FilteringFunctions/arm_fir_interpolate_init_q15.c ****     S->L = L;
  73              		.loc 1 87 0
  74 0046 FB68     		ldr	r3, [r7, #12]
  75 0048 0B22     		mov	r2, #11
  76 004a BA18     		add	r2, r7, r2
  77 004c 1278     		ldrb	r2, [r2]
  78 004e 1A70     		strb	r2, [r3]
  88:Source\FilteringFunctions/arm_fir_interpolate_init_q15.c **** 
  89:Source\FilteringFunctions/arm_fir_interpolate_init_q15.c ****     /* Assign polyPhaseLength */
  90:Source\FilteringFunctions/arm_fir_interpolate_init_q15.c ****     S->phaseLength = numTaps / L;
  79              		.loc 1 90 0
  80 0050 0823     		mov	r3, #8
  81 0052 FB18     		add	r3, r7, r3
ARM GAS  C:\Users\fneves\AppData\Local\Temp\cc6u4kkQ.s 			page 4


  82 0054 1A88     		ldrh	r2, [r3]
  83 0056 0B23     		mov	r3, #11
  84 0058 FB18     		add	r3, r7, r3
  85 005a 1B78     		ldrb	r3, [r3]
  86 005c 101C     		mov	r0, r2
  87 005e 191C     		mov	r1, r3
  88 0060 FFF7FEFF 		bl	__aeabi_idiv
  89 0064 031C     		mov	r3, r0
  90 0066 9AB2     		uxth	r2, r3
  91 0068 FB68     		ldr	r3, [r7, #12]
  92 006a 5A80     		strh	r2, [r3, #2]
  91:Source\FilteringFunctions/arm_fir_interpolate_init_q15.c **** 
  92:Source\FilteringFunctions/arm_fir_interpolate_init_q15.c ****     /* Clear state buffer and size of buffer is always phaseLength + blockSize - 1 */
  93:Source\FilteringFunctions/arm_fir_interpolate_init_q15.c ****     memset(pState, 0,
  94:Source\FilteringFunctions/arm_fir_interpolate_init_q15.c ****            (blockSize + ((uint32_t) S->phaseLength - 1u)) * sizeof(q15_t));
  93              		.loc 1 94 0
  94 006c FB68     		ldr	r3, [r7, #12]
  95 006e 5B88     		ldrh	r3, [r3, #2]
  96 0070 1A1C     		mov	r2, r3
  97 0072 7B6A     		ldr	r3, [r7, #36]
  98 0074 D318     		add	r3, r2, r3
  93:Source\FilteringFunctions/arm_fir_interpolate_init_q15.c ****            (blockSize + ((uint32_t) S->phaseLength - 1u)) * sizeof(q15_t));
  99              		.loc 1 93 0
 100 0076 0C4A     		ldr	r2, .L5
 101 0078 9446     		mov	ip, r2
 102 007a 6344     		add	r3, r3, ip
 103              		.loc 1 94 0
 104 007c 5B00     		lsl	r3, r3, #1
  93:Source\FilteringFunctions/arm_fir_interpolate_init_q15.c ****            (blockSize + ((uint32_t) S->phaseLength - 1u)) * sizeof(q15_t));
 105              		.loc 1 93 0
 106 007e 3A6A     		ldr	r2, [r7, #32]
 107 0080 101C     		mov	r0, r2
 108 0082 0021     		mov	r1, #0
 109 0084 1A1C     		mov	r2, r3
 110 0086 FFF7FEFF 		bl	memset
  95:Source\FilteringFunctions/arm_fir_interpolate_init_q15.c **** 
  96:Source\FilteringFunctions/arm_fir_interpolate_init_q15.c ****     /* Assign state pointer */
  97:Source\FilteringFunctions/arm_fir_interpolate_init_q15.c ****     S->pState = pState;
 111              		.loc 1 97 0
 112 008a FB68     		ldr	r3, [r7, #12]
 113 008c 3A6A     		ldr	r2, [r7, #32]
 114 008e 9A60     		str	r2, [r3, #8]
  98:Source\FilteringFunctions/arm_fir_interpolate_init_q15.c **** 
  99:Source\FilteringFunctions/arm_fir_interpolate_init_q15.c ****     status = ARM_MATH_SUCCESS;
 115              		.loc 1 99 0
 116 0090 1723     		mov	r3, #23
 117 0092 FB18     		add	r3, r7, r3
 118 0094 0022     		mov	r2, #0
 119 0096 1A70     		strb	r2, [r3]
 120              	.L3:
 100:Source\FilteringFunctions/arm_fir_interpolate_init_q15.c ****   }
 101:Source\FilteringFunctions/arm_fir_interpolate_init_q15.c **** 
 102:Source\FilteringFunctions/arm_fir_interpolate_init_q15.c ****   return (status);
 121              		.loc 1 102 0
 122 0098 1723     		mov	r3, #23
 123 009a FB18     		add	r3, r7, r3
 124 009c 1B78     		ldrb	r3, [r3]
ARM GAS  C:\Users\fneves\AppData\Local\Temp\cc6u4kkQ.s 			page 5


 125 009e 5BB2     		sxtb	r3, r3
 103:Source\FilteringFunctions/arm_fir_interpolate_init_q15.c **** 
 104:Source\FilteringFunctions/arm_fir_interpolate_init_q15.c **** }
 126              		.loc 1 104 0
 127 00a0 181C     		mov	r0, r3
 128 00a2 BD46     		mov	sp, r7
 129 00a4 06B0     		add	sp, sp, #24
 130              		@ sp needed
 131 00a6 80BD     		pop	{r7, pc}
 132              	.L6:
 133              		.align	2
 134              	.L5:
 135 00a8 FFFFFF7F 		.word	2147483647
 136              		.cfi_endproc
 137              	.LFE82:
 138              		.size	arm_fir_interpolate_init_q15, .-arm_fir_interpolate_init_q15
 139              		.text
 140              	.Letext0:
 141              		.file 2 "c:\\program files (x86)\\cypress\\psoc creator\\4.0\\psoc creator\\import\\gnu\\arm\\4.9.
 142              		.file 3 "c:\\program files (x86)\\cypress\\psoc creator\\4.0\\psoc creator\\import\\gnu\\arm\\4.9.
 143              		.file 4 ".\\Include/arm_math.h"