ARM GAS  C:\Users\fneves\AppData\Local\Temp\ccIPL1jR.s 			page 1


   1              		.cpu cortex-m0plus
   2              		.fpu softvfp
   3              		.eabi_attribute 20, 1
   4              		.eabi_attribute 21, 1
   5              		.eabi_attribute 23, 3
   6              		.eabi_attribute 24, 1
   7              		.eabi_attribute 25, 1
   8              		.eabi_attribute 26, 1
   9              		.eabi_attribute 30, 6
  10              		.eabi_attribute 34, 0
  11              		.eabi_attribute 18, 4
  12              		.code	16
  13              		.file	"arm_fir_q31.c"
  14              		.text
  15              	.Ltext0:
  16              		.cfi_sections	.debug_frame
  17              		.global	__aeabi_lmul
  18              		.section	.text.arm_fir_q31,"ax",%progbits
  19              		.align	2
  20              		.global	arm_fir_q31
  21              		.code	16
  22              		.thumb_func
  23              		.type	arm_fir_q31, %function
  24              	arm_fir_q31:
  25              	.LFB82:
  26              		.file 1 "Source\\FilteringFunctions\\arm_fir_q31.c"
   1:Source\FilteringFunctions/arm_fir_q31.c **** /* ----------------------------------------------------------------------
   2:Source\FilteringFunctions/arm_fir_q31.c ****  * Project:      CMSIS DSP Library
   3:Source\FilteringFunctions/arm_fir_q31.c ****  * Title:        arm_fir_q31.c
   4:Source\FilteringFunctions/arm_fir_q31.c ****  * Description:  Q31 FIR filter processing function
   5:Source\FilteringFunctions/arm_fir_q31.c ****  *
   6:Source\FilteringFunctions/arm_fir_q31.c ****  * $Date:        27. January 2017
   7:Source\FilteringFunctions/arm_fir_q31.c ****  * $Revision:    V.1.5.1
   8:Source\FilteringFunctions/arm_fir_q31.c ****  *
   9:Source\FilteringFunctions/arm_fir_q31.c ****  * Target Processor: Cortex-M cores
  10:Source\FilteringFunctions/arm_fir_q31.c ****  * -------------------------------------------------------------------- */
  11:Source\FilteringFunctions/arm_fir_q31.c **** /*
  12:Source\FilteringFunctions/arm_fir_q31.c ****  * Copyright (C) 2010-2017 ARM Limited or its affiliates. All rights reserved.
  13:Source\FilteringFunctions/arm_fir_q31.c ****  *
  14:Source\FilteringFunctions/arm_fir_q31.c ****  * SPDX-License-Identifier: Apache-2.0
  15:Source\FilteringFunctions/arm_fir_q31.c ****  *
  16:Source\FilteringFunctions/arm_fir_q31.c ****  * Licensed under the Apache License, Version 2.0 (the License); you may
  17:Source\FilteringFunctions/arm_fir_q31.c ****  * not use this file except in compliance with the License.
  18:Source\FilteringFunctions/arm_fir_q31.c ****  * You may obtain a copy of the License at
  19:Source\FilteringFunctions/arm_fir_q31.c ****  *
  20:Source\FilteringFunctions/arm_fir_q31.c ****  * www.apache.org/licenses/LICENSE-2.0
  21:Source\FilteringFunctions/arm_fir_q31.c ****  *
  22:Source\FilteringFunctions/arm_fir_q31.c ****  * Unless required by applicable law or agreed to in writing, software
  23:Source\FilteringFunctions/arm_fir_q31.c ****  * distributed under the License is distributed on an AS IS BASIS, WITHOUT
  24:Source\FilteringFunctions/arm_fir_q31.c ****  * WARRANTIES OR CONDITIONS OF ANY KIND, either express or implied.
  25:Source\FilteringFunctions/arm_fir_q31.c ****  * See the License for the specific language governing permissions and
  26:Source\FilteringFunctions/arm_fir_q31.c ****  * limitations under the License.
  27:Source\FilteringFunctions/arm_fir_q31.c ****  */
  28:Source\FilteringFunctions/arm_fir_q31.c **** 
  29:Source\FilteringFunctions/arm_fir_q31.c **** #include "arm_math.h"
  30:Source\FilteringFunctions/arm_fir_q31.c **** 
  31:Source\FilteringFunctions/arm_fir_q31.c **** /**
ARM GAS  C:\Users\fneves\AppData\Local\Temp\ccIPL1jR.s 			page 2


  32:Source\FilteringFunctions/arm_fir_q31.c ****  * @ingroup groupFilters
  33:Source\FilteringFunctions/arm_fir_q31.c ****  */
  34:Source\FilteringFunctions/arm_fir_q31.c **** 
  35:Source\FilteringFunctions/arm_fir_q31.c **** /**
  36:Source\FilteringFunctions/arm_fir_q31.c ****  * @addtogroup FIR
  37:Source\FilteringFunctions/arm_fir_q31.c ****  * @{
  38:Source\FilteringFunctions/arm_fir_q31.c ****  */
  39:Source\FilteringFunctions/arm_fir_q31.c **** 
  40:Source\FilteringFunctions/arm_fir_q31.c **** /**
  41:Source\FilteringFunctions/arm_fir_q31.c ****  * @param[in] *S points to an instance of the Q31 FIR filter structure.
  42:Source\FilteringFunctions/arm_fir_q31.c ****  * @param[in] *pSrc points to the block of input data.
  43:Source\FilteringFunctions/arm_fir_q31.c ****  * @param[out] *pDst points to the block of output data.
  44:Source\FilteringFunctions/arm_fir_q31.c ****  * @param[in] blockSize number of samples to process per call.
  45:Source\FilteringFunctions/arm_fir_q31.c ****  * @return none.
  46:Source\FilteringFunctions/arm_fir_q31.c ****  *
  47:Source\FilteringFunctions/arm_fir_q31.c ****  * @details
  48:Source\FilteringFunctions/arm_fir_q31.c ****  * <b>Scaling and Overflow Behavior:</b>
  49:Source\FilteringFunctions/arm_fir_q31.c ****  * \par
  50:Source\FilteringFunctions/arm_fir_q31.c ****  * The function is implemented using an internal 64-bit accumulator.
  51:Source\FilteringFunctions/arm_fir_q31.c ****  * The accumulator has a 2.62 format and maintains full precision of the intermediate multiplicatio
  52:Source\FilteringFunctions/arm_fir_q31.c ****  * Thus, if the accumulator result overflows it wraps around rather than clip.
  53:Source\FilteringFunctions/arm_fir_q31.c ****  * In order to avoid overflows completely the input signal must be scaled down by log2(numTaps) bit
  54:Source\FilteringFunctions/arm_fir_q31.c ****  * After all multiply-accumulates are performed, the 2.62 accumulator is right shifted by 31 bits a
  55:Source\FilteringFunctions/arm_fir_q31.c ****  *
  56:Source\FilteringFunctions/arm_fir_q31.c ****  * \par
  57:Source\FilteringFunctions/arm_fir_q31.c ****  * Refer to the function <code>arm_fir_fast_q31()</code> for a faster but less precise implementati
  58:Source\FilteringFunctions/arm_fir_q31.c ****  */
  59:Source\FilteringFunctions/arm_fir_q31.c **** 
  60:Source\FilteringFunctions/arm_fir_q31.c **** void arm_fir_q31(
  61:Source\FilteringFunctions/arm_fir_q31.c ****   const arm_fir_instance_q31 * S,
  62:Source\FilteringFunctions/arm_fir_q31.c ****   q31_t * pSrc,
  63:Source\FilteringFunctions/arm_fir_q31.c ****   q31_t * pDst,
  64:Source\FilteringFunctions/arm_fir_q31.c ****   uint32_t blockSize)
  65:Source\FilteringFunctions/arm_fir_q31.c **** {
  27              		.loc 1 65 0
  28              		.cfi_startproc
  29 0000 B0B5     		push	{r4, r5, r7, lr}
  30              		.cfi_def_cfa_offset 16
  31              		.cfi_offset 4, -16
  32              		.cfi_offset 5, -12
  33              		.cfi_offset 7, -8
  34              		.cfi_offset 14, -4
  35 0002 94B0     		sub	sp, sp, #80
  36              		.cfi_def_cfa_offset 96
  37 0004 00AF     		add	r7, sp, #0
  38              		.cfi_def_cfa_register 7
  39 0006 F861     		str	r0, [r7, #28]
  40 0008 B961     		str	r1, [r7, #24]
  41 000a 7A61     		str	r2, [r7, #20]
  42 000c 3B61     		str	r3, [r7, #16]
  66:Source\FilteringFunctions/arm_fir_q31.c ****   q31_t *pState = S->pState;                     /* State pointer */
  43              		.loc 1 66 0
  44 000e FB69     		ldr	r3, [r7, #28]
  45 0010 5B68     		ldr	r3, [r3, #4]
  46 0012 FB64     		str	r3, [r7, #76]
  67:Source\FilteringFunctions/arm_fir_q31.c ****   q31_t *pCoeffs = S->pCoeffs;                   /* Coefficient pointer */
  47              		.loc 1 67 0
ARM GAS  C:\Users\fneves\AppData\Local\Temp\ccIPL1jR.s 			page 3


  48 0014 FB69     		ldr	r3, [r7, #28]
  49 0016 9B68     		ldr	r3, [r3, #8]
  50 0018 BB62     		str	r3, [r7, #40]
  68:Source\FilteringFunctions/arm_fir_q31.c ****   q31_t *pStateCurnt;                            /* Points to the current sample of the state */
  69:Source\FilteringFunctions/arm_fir_q31.c **** 
  70:Source\FilteringFunctions/arm_fir_q31.c **** 
  71:Source\FilteringFunctions/arm_fir_q31.c **** #if defined (ARM_MATH_DSP)
  72:Source\FilteringFunctions/arm_fir_q31.c **** 
  73:Source\FilteringFunctions/arm_fir_q31.c ****   /* Run the below code for Cortex-M4 and Cortex-M3 */
  74:Source\FilteringFunctions/arm_fir_q31.c **** 
  75:Source\FilteringFunctions/arm_fir_q31.c ****   q31_t x0, x1, x2;                              /* Temporary variables to hold state */
  76:Source\FilteringFunctions/arm_fir_q31.c ****   q31_t c0;                                      /* Temporary variable to hold coefficient value */
  77:Source\FilteringFunctions/arm_fir_q31.c ****   q31_t *px;                                     /* Temporary pointer for state */
  78:Source\FilteringFunctions/arm_fir_q31.c ****   q31_t *pb;                                     /* Temporary pointer for coefficient buffer */
  79:Source\FilteringFunctions/arm_fir_q31.c ****   q63_t acc0, acc1, acc2;                        /* Accumulators */
  80:Source\FilteringFunctions/arm_fir_q31.c ****   uint32_t numTaps = S->numTaps;                 /* Number of filter coefficients in the filter */
  81:Source\FilteringFunctions/arm_fir_q31.c ****   uint32_t i, tapCnt, blkCnt, tapCntN3;          /* Loop counters */
  82:Source\FilteringFunctions/arm_fir_q31.c **** 
  83:Source\FilteringFunctions/arm_fir_q31.c ****   /* S->pState points to state array which contains previous frame (numTaps - 1) samples */
  84:Source\FilteringFunctions/arm_fir_q31.c ****   /* pStateCurnt points to the location where the new input data should be written */
  85:Source\FilteringFunctions/arm_fir_q31.c ****   pStateCurnt = &(S->pState[(numTaps - 1u)]);
  86:Source\FilteringFunctions/arm_fir_q31.c **** 
  87:Source\FilteringFunctions/arm_fir_q31.c ****   /* Apply loop unrolling and compute 4 output values simultaneously.
  88:Source\FilteringFunctions/arm_fir_q31.c ****    * The variables acc0 ... acc3 hold output values that are being computed:
  89:Source\FilteringFunctions/arm_fir_q31.c ****    *
  90:Source\FilteringFunctions/arm_fir_q31.c ****    *    acc0 =  b[numTaps-1] * x[n-numTaps-1] + b[numTaps-2] * x[n-numTaps-2] + b[numTaps-3] * x[n-
  91:Source\FilteringFunctions/arm_fir_q31.c ****    *    acc1 =  b[numTaps-1] * x[n-numTaps] +   b[numTaps-2] * x[n-numTaps-1] + b[numTaps-3] * x[n-
  92:Source\FilteringFunctions/arm_fir_q31.c ****    *    acc2 =  b[numTaps-1] * x[n-numTaps+1] + b[numTaps-2] * x[n-numTaps] +   b[numTaps-3] * x[n-
  93:Source\FilteringFunctions/arm_fir_q31.c ****    *    acc3 =  b[numTaps-1] * x[n-numTaps+2] + b[numTaps-2] * x[n-numTaps+1] + b[numTaps-3] * x[n-
  94:Source\FilteringFunctions/arm_fir_q31.c ****    */
  95:Source\FilteringFunctions/arm_fir_q31.c ****   blkCnt = blockSize / 3;
  96:Source\FilteringFunctions/arm_fir_q31.c ****   blockSize = blockSize - (3 * blkCnt);
  97:Source\FilteringFunctions/arm_fir_q31.c **** 
  98:Source\FilteringFunctions/arm_fir_q31.c ****   tapCnt = numTaps / 3;
  99:Source\FilteringFunctions/arm_fir_q31.c ****   tapCntN3 = numTaps - (3 * tapCnt);
 100:Source\FilteringFunctions/arm_fir_q31.c **** 
 101:Source\FilteringFunctions/arm_fir_q31.c ****   /* First part of the processing with loop unrolling.  Compute 4 outputs at a time.
 102:Source\FilteringFunctions/arm_fir_q31.c ****    ** a second loop below computes the remaining 1 to 3 samples. */
 103:Source\FilteringFunctions/arm_fir_q31.c ****   while (blkCnt > 0u)
 104:Source\FilteringFunctions/arm_fir_q31.c ****   {
 105:Source\FilteringFunctions/arm_fir_q31.c ****     /* Copy three new input samples into the state buffer */
 106:Source\FilteringFunctions/arm_fir_q31.c ****     *pStateCurnt++ = *pSrc++;
 107:Source\FilteringFunctions/arm_fir_q31.c ****     *pStateCurnt++ = *pSrc++;
 108:Source\FilteringFunctions/arm_fir_q31.c ****     *pStateCurnt++ = *pSrc++;
 109:Source\FilteringFunctions/arm_fir_q31.c **** 
 110:Source\FilteringFunctions/arm_fir_q31.c ****     /* Set all accumulators to zero */
 111:Source\FilteringFunctions/arm_fir_q31.c ****     acc0 = 0;
 112:Source\FilteringFunctions/arm_fir_q31.c ****     acc1 = 0;
 113:Source\FilteringFunctions/arm_fir_q31.c ****     acc2 = 0;
 114:Source\FilteringFunctions/arm_fir_q31.c **** 
 115:Source\FilteringFunctions/arm_fir_q31.c ****     /* Initialize state pointer */
 116:Source\FilteringFunctions/arm_fir_q31.c ****     px = pState;
 117:Source\FilteringFunctions/arm_fir_q31.c **** 
 118:Source\FilteringFunctions/arm_fir_q31.c ****     /* Initialize coefficient pointer */
 119:Source\FilteringFunctions/arm_fir_q31.c ****     pb = pCoeffs;
 120:Source\FilteringFunctions/arm_fir_q31.c **** 
 121:Source\FilteringFunctions/arm_fir_q31.c ****     /* Read the first two samples from the state buffer:
ARM GAS  C:\Users\fneves\AppData\Local\Temp\ccIPL1jR.s 			page 4


 122:Source\FilteringFunctions/arm_fir_q31.c ****      *  x[n-numTaps], x[n-numTaps-1] */
 123:Source\FilteringFunctions/arm_fir_q31.c ****     x0 = *(px++);
 124:Source\FilteringFunctions/arm_fir_q31.c ****     x1 = *(px++);
 125:Source\FilteringFunctions/arm_fir_q31.c **** 
 126:Source\FilteringFunctions/arm_fir_q31.c ****     /* Loop unrolling.  Process 3 taps at a time. */
 127:Source\FilteringFunctions/arm_fir_q31.c ****     i = tapCnt;
 128:Source\FilteringFunctions/arm_fir_q31.c **** 
 129:Source\FilteringFunctions/arm_fir_q31.c ****     while (i > 0u)
 130:Source\FilteringFunctions/arm_fir_q31.c ****     {
 131:Source\FilteringFunctions/arm_fir_q31.c ****       /* Read the b[numTaps] coefficient */
 132:Source\FilteringFunctions/arm_fir_q31.c ****       c0 = *pb;
 133:Source\FilteringFunctions/arm_fir_q31.c **** 
 134:Source\FilteringFunctions/arm_fir_q31.c ****       /* Read x[n-numTaps-2] sample */
 135:Source\FilteringFunctions/arm_fir_q31.c ****       x2 = *(px++);
 136:Source\FilteringFunctions/arm_fir_q31.c **** 
 137:Source\FilteringFunctions/arm_fir_q31.c ****       /* Perform the multiply-accumulates */
 138:Source\FilteringFunctions/arm_fir_q31.c ****       acc0 += ((q63_t) x0 * c0);
 139:Source\FilteringFunctions/arm_fir_q31.c ****       acc1 += ((q63_t) x1 * c0);
 140:Source\FilteringFunctions/arm_fir_q31.c ****       acc2 += ((q63_t) x2 * c0);
 141:Source\FilteringFunctions/arm_fir_q31.c **** 
 142:Source\FilteringFunctions/arm_fir_q31.c ****       /* Read the coefficient and state */
 143:Source\FilteringFunctions/arm_fir_q31.c ****       c0 = *(pb + 1u);
 144:Source\FilteringFunctions/arm_fir_q31.c ****       x0 = *(px++);
 145:Source\FilteringFunctions/arm_fir_q31.c **** 
 146:Source\FilteringFunctions/arm_fir_q31.c ****       /* Perform the multiply-accumulates */
 147:Source\FilteringFunctions/arm_fir_q31.c ****       acc0 += ((q63_t) x1 * c0);
 148:Source\FilteringFunctions/arm_fir_q31.c ****       acc1 += ((q63_t) x2 * c0);
 149:Source\FilteringFunctions/arm_fir_q31.c ****       acc2 += ((q63_t) x0 * c0);
 150:Source\FilteringFunctions/arm_fir_q31.c **** 
 151:Source\FilteringFunctions/arm_fir_q31.c ****       /* Read the coefficient and state */
 152:Source\FilteringFunctions/arm_fir_q31.c ****       c0 = *(pb + 2u);
 153:Source\FilteringFunctions/arm_fir_q31.c ****       x1 = *(px++);
 154:Source\FilteringFunctions/arm_fir_q31.c **** 
 155:Source\FilteringFunctions/arm_fir_q31.c ****       /* update coefficient pointer */
 156:Source\FilteringFunctions/arm_fir_q31.c ****       pb += 3u;
 157:Source\FilteringFunctions/arm_fir_q31.c **** 
 158:Source\FilteringFunctions/arm_fir_q31.c ****       /* Perform the multiply-accumulates */
 159:Source\FilteringFunctions/arm_fir_q31.c ****       acc0 += ((q63_t) x2 * c0);
 160:Source\FilteringFunctions/arm_fir_q31.c ****       acc1 += ((q63_t) x0 * c0);
 161:Source\FilteringFunctions/arm_fir_q31.c ****       acc2 += ((q63_t) x1 * c0);
 162:Source\FilteringFunctions/arm_fir_q31.c **** 
 163:Source\FilteringFunctions/arm_fir_q31.c ****       /* Decrement the loop counter */
 164:Source\FilteringFunctions/arm_fir_q31.c ****       i--;
 165:Source\FilteringFunctions/arm_fir_q31.c ****     }
 166:Source\FilteringFunctions/arm_fir_q31.c **** 
 167:Source\FilteringFunctions/arm_fir_q31.c ****     /* If the filter length is not a multiple of 3, compute the remaining filter taps */
 168:Source\FilteringFunctions/arm_fir_q31.c **** 
 169:Source\FilteringFunctions/arm_fir_q31.c ****     i = tapCntN3;
 170:Source\FilteringFunctions/arm_fir_q31.c **** 
 171:Source\FilteringFunctions/arm_fir_q31.c ****     while (i > 0u)
 172:Source\FilteringFunctions/arm_fir_q31.c ****     {
 173:Source\FilteringFunctions/arm_fir_q31.c ****       /* Read coefficients */
 174:Source\FilteringFunctions/arm_fir_q31.c ****       c0 = *(pb++);
 175:Source\FilteringFunctions/arm_fir_q31.c **** 
 176:Source\FilteringFunctions/arm_fir_q31.c ****       /* Fetch 1 state variable */
 177:Source\FilteringFunctions/arm_fir_q31.c ****       x2 = *(px++);
 178:Source\FilteringFunctions/arm_fir_q31.c **** 
ARM GAS  C:\Users\fneves\AppData\Local\Temp\ccIPL1jR.s 			page 5


 179:Source\FilteringFunctions/arm_fir_q31.c ****       /* Perform the multiply-accumulates */
 180:Source\FilteringFunctions/arm_fir_q31.c ****       acc0 += ((q63_t) x0 * c0);
 181:Source\FilteringFunctions/arm_fir_q31.c ****       acc1 += ((q63_t) x1 * c0);
 182:Source\FilteringFunctions/arm_fir_q31.c ****       acc2 += ((q63_t) x2 * c0);
 183:Source\FilteringFunctions/arm_fir_q31.c **** 
 184:Source\FilteringFunctions/arm_fir_q31.c ****       /* Reuse the present sample states for next sample */
 185:Source\FilteringFunctions/arm_fir_q31.c ****       x0 = x1;
 186:Source\FilteringFunctions/arm_fir_q31.c ****       x1 = x2;
 187:Source\FilteringFunctions/arm_fir_q31.c **** 
 188:Source\FilteringFunctions/arm_fir_q31.c ****       /* Decrement the loop counter */
 189:Source\FilteringFunctions/arm_fir_q31.c ****       i--;
 190:Source\FilteringFunctions/arm_fir_q31.c ****     }
 191:Source\FilteringFunctions/arm_fir_q31.c **** 
 192:Source\FilteringFunctions/arm_fir_q31.c ****     /* Advance the state pointer by 3 to process the next group of 3 samples */
 193:Source\FilteringFunctions/arm_fir_q31.c ****     pState = pState + 3;
 194:Source\FilteringFunctions/arm_fir_q31.c **** 
 195:Source\FilteringFunctions/arm_fir_q31.c ****     /* The results in the 3 accumulators are in 2.30 format.  Convert to 1.31
 196:Source\FilteringFunctions/arm_fir_q31.c ****      ** Then store the 3 outputs in the destination buffer. */
 197:Source\FilteringFunctions/arm_fir_q31.c ****     *pDst++ = (q31_t) (acc0 >> 31u);
 198:Source\FilteringFunctions/arm_fir_q31.c ****     *pDst++ = (q31_t) (acc1 >> 31u);
 199:Source\FilteringFunctions/arm_fir_q31.c ****     *pDst++ = (q31_t) (acc2 >> 31u);
 200:Source\FilteringFunctions/arm_fir_q31.c **** 
 201:Source\FilteringFunctions/arm_fir_q31.c ****     /* Decrement the samples loop counter */
 202:Source\FilteringFunctions/arm_fir_q31.c ****     blkCnt--;
 203:Source\FilteringFunctions/arm_fir_q31.c ****   }
 204:Source\FilteringFunctions/arm_fir_q31.c **** 
 205:Source\FilteringFunctions/arm_fir_q31.c ****   /* If the blockSize is not a multiple of 3, compute any remaining output samples here.
 206:Source\FilteringFunctions/arm_fir_q31.c ****    ** No loop unrolling is used. */
 207:Source\FilteringFunctions/arm_fir_q31.c **** 
 208:Source\FilteringFunctions/arm_fir_q31.c ****   while (blockSize > 0u)
 209:Source\FilteringFunctions/arm_fir_q31.c ****   {
 210:Source\FilteringFunctions/arm_fir_q31.c ****     /* Copy one sample at a time into state buffer */
 211:Source\FilteringFunctions/arm_fir_q31.c ****     *pStateCurnt++ = *pSrc++;
 212:Source\FilteringFunctions/arm_fir_q31.c **** 
 213:Source\FilteringFunctions/arm_fir_q31.c ****     /* Set the accumulator to zero */
 214:Source\FilteringFunctions/arm_fir_q31.c ****     acc0 = 0;
 215:Source\FilteringFunctions/arm_fir_q31.c **** 
 216:Source\FilteringFunctions/arm_fir_q31.c ****     /* Initialize state pointer */
 217:Source\FilteringFunctions/arm_fir_q31.c ****     px = pState;
 218:Source\FilteringFunctions/arm_fir_q31.c **** 
 219:Source\FilteringFunctions/arm_fir_q31.c ****     /* Initialize Coefficient pointer */
 220:Source\FilteringFunctions/arm_fir_q31.c ****     pb = (pCoeffs);
 221:Source\FilteringFunctions/arm_fir_q31.c **** 
 222:Source\FilteringFunctions/arm_fir_q31.c ****     i = numTaps;
 223:Source\FilteringFunctions/arm_fir_q31.c **** 
 224:Source\FilteringFunctions/arm_fir_q31.c ****     /* Perform the multiply-accumulates */
 225:Source\FilteringFunctions/arm_fir_q31.c ****     do
 226:Source\FilteringFunctions/arm_fir_q31.c ****     {
 227:Source\FilteringFunctions/arm_fir_q31.c ****       acc0 += (q63_t) * (px++) * (*(pb++));
 228:Source\FilteringFunctions/arm_fir_q31.c ****       i--;
 229:Source\FilteringFunctions/arm_fir_q31.c ****     } while (i > 0u);
 230:Source\FilteringFunctions/arm_fir_q31.c **** 
 231:Source\FilteringFunctions/arm_fir_q31.c ****     /* The result is in 2.62 format.  Convert to 1.31
 232:Source\FilteringFunctions/arm_fir_q31.c ****      ** Then store the output in the destination buffer. */
 233:Source\FilteringFunctions/arm_fir_q31.c ****     *pDst++ = (q31_t) (acc0 >> 31u);
 234:Source\FilteringFunctions/arm_fir_q31.c **** 
 235:Source\FilteringFunctions/arm_fir_q31.c ****     /* Advance state pointer by 1 for the next sample */
ARM GAS  C:\Users\fneves\AppData\Local\Temp\ccIPL1jR.s 			page 6


 236:Source\FilteringFunctions/arm_fir_q31.c ****     pState = pState + 1;
 237:Source\FilteringFunctions/arm_fir_q31.c **** 
 238:Source\FilteringFunctions/arm_fir_q31.c ****     /* Decrement the samples loop counter */
 239:Source\FilteringFunctions/arm_fir_q31.c ****     blockSize--;
 240:Source\FilteringFunctions/arm_fir_q31.c ****   }
 241:Source\FilteringFunctions/arm_fir_q31.c **** 
 242:Source\FilteringFunctions/arm_fir_q31.c ****   /* Processing is complete.
 243:Source\FilteringFunctions/arm_fir_q31.c ****    ** Now copy the last numTaps - 1 samples to the satrt of the state buffer.
 244:Source\FilteringFunctions/arm_fir_q31.c ****    ** This prepares the state buffer for the next function call. */
 245:Source\FilteringFunctions/arm_fir_q31.c **** 
 246:Source\FilteringFunctions/arm_fir_q31.c ****   /* Points to the start of the state buffer */
 247:Source\FilteringFunctions/arm_fir_q31.c ****   pStateCurnt = S->pState;
 248:Source\FilteringFunctions/arm_fir_q31.c **** 
 249:Source\FilteringFunctions/arm_fir_q31.c ****   tapCnt = (numTaps - 1u) >> 2u;
 250:Source\FilteringFunctions/arm_fir_q31.c **** 
 251:Source\FilteringFunctions/arm_fir_q31.c ****   /* copy data */
 252:Source\FilteringFunctions/arm_fir_q31.c ****   while (tapCnt > 0u)
 253:Source\FilteringFunctions/arm_fir_q31.c ****   {
 254:Source\FilteringFunctions/arm_fir_q31.c ****     *pStateCurnt++ = *pState++;
 255:Source\FilteringFunctions/arm_fir_q31.c ****     *pStateCurnt++ = *pState++;
 256:Source\FilteringFunctions/arm_fir_q31.c ****     *pStateCurnt++ = *pState++;
 257:Source\FilteringFunctions/arm_fir_q31.c ****     *pStateCurnt++ = *pState++;
 258:Source\FilteringFunctions/arm_fir_q31.c **** 
 259:Source\FilteringFunctions/arm_fir_q31.c ****     /* Decrement the loop counter */
 260:Source\FilteringFunctions/arm_fir_q31.c ****     tapCnt--;
 261:Source\FilteringFunctions/arm_fir_q31.c ****   }
 262:Source\FilteringFunctions/arm_fir_q31.c **** 
 263:Source\FilteringFunctions/arm_fir_q31.c ****   /* Calculate remaining number of copies */
 264:Source\FilteringFunctions/arm_fir_q31.c ****   tapCnt = (numTaps - 1u) % 0x4u;
 265:Source\FilteringFunctions/arm_fir_q31.c **** 
 266:Source\FilteringFunctions/arm_fir_q31.c ****   /* Copy the remaining q31_t data */
 267:Source\FilteringFunctions/arm_fir_q31.c ****   while (tapCnt > 0u)
 268:Source\FilteringFunctions/arm_fir_q31.c ****   {
 269:Source\FilteringFunctions/arm_fir_q31.c ****     *pStateCurnt++ = *pState++;
 270:Source\FilteringFunctions/arm_fir_q31.c **** 
 271:Source\FilteringFunctions/arm_fir_q31.c ****     /* Decrement the loop counter */
 272:Source\FilteringFunctions/arm_fir_q31.c ****     tapCnt--;
 273:Source\FilteringFunctions/arm_fir_q31.c ****   }
 274:Source\FilteringFunctions/arm_fir_q31.c **** 
 275:Source\FilteringFunctions/arm_fir_q31.c **** #else
 276:Source\FilteringFunctions/arm_fir_q31.c **** 
 277:Source\FilteringFunctions/arm_fir_q31.c **** /* Run the below code for Cortex-M0 */
 278:Source\FilteringFunctions/arm_fir_q31.c **** 
 279:Source\FilteringFunctions/arm_fir_q31.c ****   q31_t *px;                                     /* Temporary pointer for state */
 280:Source\FilteringFunctions/arm_fir_q31.c ****   q31_t *pb;                                     /* Temporary pointer for coefficient buffer */
 281:Source\FilteringFunctions/arm_fir_q31.c ****   q63_t acc;                                     /* Accumulator */
 282:Source\FilteringFunctions/arm_fir_q31.c ****   uint32_t numTaps = S->numTaps;                 /* Length of the filter */
  51              		.loc 1 282 0
  52 001a FB69     		ldr	r3, [r7, #28]
  53 001c 1B88     		ldrh	r3, [r3]
  54 001e 7B62     		str	r3, [r7, #36]
 283:Source\FilteringFunctions/arm_fir_q31.c ****   uint32_t i, tapCnt, blkCnt;                    /* Loop counters */
 284:Source\FilteringFunctions/arm_fir_q31.c **** 
 285:Source\FilteringFunctions/arm_fir_q31.c ****   /* S->pState buffer contains previous frame (numTaps - 1) samples */
 286:Source\FilteringFunctions/arm_fir_q31.c ****   /* pStateCurnt points to the location where the new input data should be written */
 287:Source\FilteringFunctions/arm_fir_q31.c ****   pStateCurnt = &(S->pState[(numTaps - 1u)]);
  55              		.loc 1 287 0
ARM GAS  C:\Users\fneves\AppData\Local\Temp\ccIPL1jR.s 			page 7


  56 0020 FB69     		ldr	r3, [r7, #28]
  57 0022 5A68     		ldr	r2, [r3, #4]
  58 0024 7B6A     		ldr	r3, [r7, #36]
  59 0026 3649     		ldr	r1, .L7
  60 0028 8C46     		mov	ip, r1
  61 002a 6344     		add	r3, r3, ip
  62 002c 9B00     		lsl	r3, r3, #2
  63 002e D318     		add	r3, r2, r3
  64 0030 BB64     		str	r3, [r7, #72]
 288:Source\FilteringFunctions/arm_fir_q31.c **** 
 289:Source\FilteringFunctions/arm_fir_q31.c ****   /* Initialize blkCnt with blockSize */
 290:Source\FilteringFunctions/arm_fir_q31.c ****   blkCnt = blockSize;
  65              		.loc 1 290 0
  66 0032 3B69     		ldr	r3, [r7, #16]
  67 0034 FB62     		str	r3, [r7, #44]
 291:Source\FilteringFunctions/arm_fir_q31.c **** 
 292:Source\FilteringFunctions/arm_fir_q31.c ****   while (blkCnt > 0u)
  68              		.loc 1 292 0
  69 0036 47E0     		b	.L2
  70              	.L4:
 293:Source\FilteringFunctions/arm_fir_q31.c ****   {
 294:Source\FilteringFunctions/arm_fir_q31.c ****     /* Copy one sample at a time into state buffer */
 295:Source\FilteringFunctions/arm_fir_q31.c ****     *pStateCurnt++ = *pSrc++;
  71              		.loc 1 295 0
  72 0038 BB6C     		ldr	r3, [r7, #72]
  73 003a 1A1D     		add	r2, r3, #4
  74 003c BA64     		str	r2, [r7, #72]
  75 003e BA69     		ldr	r2, [r7, #24]
  76 0040 111D     		add	r1, r2, #4
  77 0042 B961     		str	r1, [r7, #24]
  78 0044 1268     		ldr	r2, [r2]
  79 0046 1A60     		str	r2, [r3]
 296:Source\FilteringFunctions/arm_fir_q31.c **** 
 297:Source\FilteringFunctions/arm_fir_q31.c ****     /* Set the accumulator to zero */
 298:Source\FilteringFunctions/arm_fir_q31.c ****     acc = 0;
  80              		.loc 1 298 0
  81 0048 0022     		mov	r2, #0
  82 004a 0023     		mov	r3, #0
  83 004c BA63     		str	r2, [r7, #56]
  84 004e FB63     		str	r3, [r7, #60]
 299:Source\FilteringFunctions/arm_fir_q31.c **** 
 300:Source\FilteringFunctions/arm_fir_q31.c ****     /* Initialize state pointer */
 301:Source\FilteringFunctions/arm_fir_q31.c ****     px = pState;
  85              		.loc 1 301 0
  86 0050 FB6C     		ldr	r3, [r7, #76]
  87 0052 7B64     		str	r3, [r7, #68]
 302:Source\FilteringFunctions/arm_fir_q31.c **** 
 303:Source\FilteringFunctions/arm_fir_q31.c ****     /* Initialize Coefficient pointer */
 304:Source\FilteringFunctions/arm_fir_q31.c ****     pb = pCoeffs;
  88              		.loc 1 304 0
  89 0054 BB6A     		ldr	r3, [r7, #40]
  90 0056 3B64     		str	r3, [r7, #64]
 305:Source\FilteringFunctions/arm_fir_q31.c **** 
 306:Source\FilteringFunctions/arm_fir_q31.c ****     i = numTaps;
  91              		.loc 1 306 0
  92 0058 7B6A     		ldr	r3, [r7, #36]
  93 005a 7B63     		str	r3, [r7, #52]
ARM GAS  C:\Users\fneves\AppData\Local\Temp\ccIPL1jR.s 			page 8


  94              	.L3:
 307:Source\FilteringFunctions/arm_fir_q31.c **** 
 308:Source\FilteringFunctions/arm_fir_q31.c ****     /* Perform the multiply-accumulates */
 309:Source\FilteringFunctions/arm_fir_q31.c ****     do
 310:Source\FilteringFunctions/arm_fir_q31.c ****     {
 311:Source\FilteringFunctions/arm_fir_q31.c ****       /* acc =  b[numTaps-1] * x[n-numTaps-1] + b[numTaps-2] * x[n-numTaps-2] + b[numTaps-3] * x[n-
 312:Source\FilteringFunctions/arm_fir_q31.c ****       acc += (q63_t) * px++ * *pb++;
  95              		.loc 1 312 0 discriminator 1
  96 005c 7B6C     		ldr	r3, [r7, #68]
  97 005e 1A1D     		add	r2, r3, #4
  98 0060 7A64     		str	r2, [r7, #68]
  99 0062 1B68     		ldr	r3, [r3]
 100 0064 BB60     		str	r3, [r7, #8]
 101 0066 DB17     		asr	r3, r3, #31
 102 0068 FB60     		str	r3, [r7, #12]
 103 006a 3B6C     		ldr	r3, [r7, #64]
 104 006c 1A1D     		add	r2, r3, #4
 105 006e 3A64     		str	r2, [r7, #64]
 106 0070 1B68     		ldr	r3, [r3]
 107 0072 3B60     		str	r3, [r7]
 108 0074 DB17     		asr	r3, r3, #31
 109 0076 7B60     		str	r3, [r7, #4]
 110 0078 B868     		ldr	r0, [r7, #8]
 111 007a F968     		ldr	r1, [r7, #12]
 112 007c 3A68     		ldr	r2, [r7]
 113 007e 7B68     		ldr	r3, [r7, #4]
 114 0080 FFF7FEFF 		bl	__aeabi_lmul
 115 0084 021C     		mov	r2, r0
 116 0086 0B1C     		mov	r3, r1
 117 0088 101C     		mov	r0, r2
 118 008a 191C     		mov	r1, r3
 119 008c BA6B     		ldr	r2, [r7, #56]
 120 008e FB6B     		ldr	r3, [r7, #60]
 121 0090 1218     		add	r2, r2, r0
 122 0092 4B41     		adc	r3, r3, r1
 123 0094 BA63     		str	r2, [r7, #56]
 124 0096 FB63     		str	r3, [r7, #60]
 313:Source\FilteringFunctions/arm_fir_q31.c ****       i--;
 125              		.loc 1 313 0 discriminator 1
 126 0098 7B6B     		ldr	r3, [r7, #52]
 127 009a 013B     		sub	r3, r3, #1
 128 009c 7B63     		str	r3, [r7, #52]
 314:Source\FilteringFunctions/arm_fir_q31.c ****     } while (i > 0u);
 129              		.loc 1 314 0 discriminator 1
 130 009e 7B6B     		ldr	r3, [r7, #52]
 131 00a0 002B     		cmp	r3, #0
 132 00a2 DBD1     		bne	.L3
 315:Source\FilteringFunctions/arm_fir_q31.c **** 
 316:Source\FilteringFunctions/arm_fir_q31.c ****     /* The result is in 2.62 format.  Convert to 1.31
 317:Source\FilteringFunctions/arm_fir_q31.c ****      ** Then store the output in the destination buffer. */
 318:Source\FilteringFunctions/arm_fir_q31.c ****     *pDst++ = (q31_t) (acc >> 31u);
 133              		.loc 1 318 0
 134 00a4 7B69     		ldr	r3, [r7, #20]
 135 00a6 1A1D     		add	r2, r3, #4
 136 00a8 7A61     		str	r2, [r7, #20]
 137 00aa FA6B     		ldr	r2, [r7, #60]
 138 00ac 5200     		lsl	r2, r2, #1
ARM GAS  C:\Users\fneves\AppData\Local\Temp\ccIPL1jR.s 			page 9


 139 00ae B96B     		ldr	r1, [r7, #56]
 140 00b0 CC0F     		lsr	r4, r1, #31
 141 00b2 1443     		orr	r4, r2
 142 00b4 FA6B     		ldr	r2, [r7, #60]
 143 00b6 D517     		asr	r5, r2, #31
 144 00b8 221C     		mov	r2, r4
 145 00ba 1A60     		str	r2, [r3]
 319:Source\FilteringFunctions/arm_fir_q31.c **** 
 320:Source\FilteringFunctions/arm_fir_q31.c ****     /* Advance state pointer by 1 for the next sample */
 321:Source\FilteringFunctions/arm_fir_q31.c ****     pState = pState + 1;
 146              		.loc 1 321 0
 147 00bc FB6C     		ldr	r3, [r7, #76]
 148 00be 0433     		add	r3, r3, #4
 149 00c0 FB64     		str	r3, [r7, #76]
 322:Source\FilteringFunctions/arm_fir_q31.c **** 
 323:Source\FilteringFunctions/arm_fir_q31.c ****     /* Decrement the samples loop counter */
 324:Source\FilteringFunctions/arm_fir_q31.c ****     blkCnt--;
 150              		.loc 1 324 0
 151 00c2 FB6A     		ldr	r3, [r7, #44]
 152 00c4 013B     		sub	r3, r3, #1
 153 00c6 FB62     		str	r3, [r7, #44]
 154              	.L2:
 292:Source\FilteringFunctions/arm_fir_q31.c ****   {
 155              		.loc 1 292 0
 156 00c8 FB6A     		ldr	r3, [r7, #44]
 157 00ca 002B     		cmp	r3, #0
 158 00cc B4D1     		bne	.L4
 325:Source\FilteringFunctions/arm_fir_q31.c ****   }
 326:Source\FilteringFunctions/arm_fir_q31.c **** 
 327:Source\FilteringFunctions/arm_fir_q31.c ****   /* Processing is complete.
 328:Source\FilteringFunctions/arm_fir_q31.c ****    ** Now copy the last numTaps - 1 samples to the starting of the state buffer.
 329:Source\FilteringFunctions/arm_fir_q31.c ****    ** This prepares the state buffer for the next function call. */
 330:Source\FilteringFunctions/arm_fir_q31.c **** 
 331:Source\FilteringFunctions/arm_fir_q31.c ****   /* Points to the start of the state buffer */
 332:Source\FilteringFunctions/arm_fir_q31.c ****   pStateCurnt = S->pState;
 159              		.loc 1 332 0
 160 00ce FB69     		ldr	r3, [r7, #28]
 161 00d0 5B68     		ldr	r3, [r3, #4]
 162 00d2 BB64     		str	r3, [r7, #72]
 333:Source\FilteringFunctions/arm_fir_q31.c **** 
 334:Source\FilteringFunctions/arm_fir_q31.c ****   /* Copy numTaps number of values */
 335:Source\FilteringFunctions/arm_fir_q31.c ****   tapCnt = numTaps - 1u;
 163              		.loc 1 335 0
 164 00d4 7B6A     		ldr	r3, [r7, #36]
 165 00d6 013B     		sub	r3, r3, #1
 166 00d8 3B63     		str	r3, [r7, #48]
 336:Source\FilteringFunctions/arm_fir_q31.c **** 
 337:Source\FilteringFunctions/arm_fir_q31.c ****   /* Copy the data */
 338:Source\FilteringFunctions/arm_fir_q31.c ****   while (tapCnt > 0u)
 167              		.loc 1 338 0
 168 00da 0AE0     		b	.L5
 169              	.L6:
 339:Source\FilteringFunctions/arm_fir_q31.c ****   {
 340:Source\FilteringFunctions/arm_fir_q31.c ****     *pStateCurnt++ = *pState++;
 170              		.loc 1 340 0
 171 00dc BB6C     		ldr	r3, [r7, #72]
 172 00de 1A1D     		add	r2, r3, #4
ARM GAS  C:\Users\fneves\AppData\Local\Temp\ccIPL1jR.s 			page 10


 173 00e0 BA64     		str	r2, [r7, #72]
 174 00e2 FA6C     		ldr	r2, [r7, #76]
 175 00e4 111D     		add	r1, r2, #4
 176 00e6 F964     		str	r1, [r7, #76]
 177 00e8 1268     		ldr	r2, [r2]
 178 00ea 1A60     		str	r2, [r3]
 341:Source\FilteringFunctions/arm_fir_q31.c **** 
 342:Source\FilteringFunctions/arm_fir_q31.c ****     /* Decrement the loop counter */
 343:Source\FilteringFunctions/arm_fir_q31.c ****     tapCnt--;
 179              		.loc 1 343 0
 180 00ec 3B6B     		ldr	r3, [r7, #48]
 181 00ee 013B     		sub	r3, r3, #1
 182 00f0 3B63     		str	r3, [r7, #48]
 183              	.L5:
 338:Source\FilteringFunctions/arm_fir_q31.c ****   {
 184              		.loc 1 338 0
 185 00f2 3B6B     		ldr	r3, [r7, #48]
 186 00f4 002B     		cmp	r3, #0
 187 00f6 F1D1     		bne	.L6
 344:Source\FilteringFunctions/arm_fir_q31.c ****   }
 345:Source\FilteringFunctions/arm_fir_q31.c **** 
 346:Source\FilteringFunctions/arm_fir_q31.c **** 
 347:Source\FilteringFunctions/arm_fir_q31.c **** #endif /*  #if defined (ARM_MATH_DSP) */
 348:Source\FilteringFunctions/arm_fir_q31.c **** 
 349:Source\FilteringFunctions/arm_fir_q31.c **** }
 188              		.loc 1 349 0
 189 00f8 BD46     		mov	sp, r7
 190 00fa 14B0     		add	sp, sp, #80
 191              		@ sp needed
 192 00fc B0BD     		pop	{r4, r5, r7, pc}
 193              	.L8:
 194 00fe C046     		.align	2
 195              	.L7:
 196 0100 FFFFFF3F 		.word	1073741823
 197              		.cfi_endproc
 198              	.LFE82:
 199              		.size	arm_fir_q31, .-arm_fir_q31
 200              		.text
 201              	.Letext0:
 202              		.file 2 "c:\\program files (x86)\\cypress\\psoc creator\\4.0\\psoc creator\\import\\gnu\\arm\\4.9.
 203              		.file 3 "c:\\program files (x86)\\cypress\\psoc creator\\4.0\\psoc creator\\import\\gnu\\arm\\4.9.
 204              		.file 4 ".\\Include/arm_math.h"