ARM GAS  C:\Users\fneves\AppData\Local\Temp\cci3Ndsy.s 			page 1


   1              		.cpu cortex-m0plus
   2              		.fpu softvfp
   3              		.eabi_attribute 20, 1
   4              		.eabi_attribute 21, 1
   5              		.eabi_attribute 23, 3
   6              		.eabi_attribute 24, 1
   7              		.eabi_attribute 25, 1
   8              		.eabi_attribute 26, 1
   9              		.eabi_attribute 30, 6
  10              		.eabi_attribute 34, 0
  11              		.eabi_attribute 18, 4
  12              		.code	16
  13              		.file	"arm_dot_prod_q7.c"
  14              		.text
  15              	.Ltext0:
  16              		.cfi_sections	.debug_frame
  17              		.section	.text.arm_dot_prod_q7,"ax",%progbits
  18              		.align	2
  19              		.global	arm_dot_prod_q7
  20              		.code	16
  21              		.thumb_func
  22              		.type	arm_dot_prod_q7, %function
  23              	arm_dot_prod_q7:
  24              	.LFB82:
  25              		.file 1 "Source\\BasicMathFunctions\\arm_dot_prod_q7.c"
   1:Source\BasicMathFunctions/arm_dot_prod_q7.c **** /* ----------------------------------------------------------------------
   2:Source\BasicMathFunctions/arm_dot_prod_q7.c ****  * Project:      CMSIS DSP Library
   3:Source\BasicMathFunctions/arm_dot_prod_q7.c ****  * Title:        arm_dot_prod_q7.c
   4:Source\BasicMathFunctions/arm_dot_prod_q7.c ****  * Description:  Q7 dot product
   5:Source\BasicMathFunctions/arm_dot_prod_q7.c ****  *
   6:Source\BasicMathFunctions/arm_dot_prod_q7.c ****  * $Date:        27. January 2017
   7:Source\BasicMathFunctions/arm_dot_prod_q7.c ****  * $Revision:    V.1.5.1
   8:Source\BasicMathFunctions/arm_dot_prod_q7.c ****  *
   9:Source\BasicMathFunctions/arm_dot_prod_q7.c ****  * Target Processor: Cortex-M cores
  10:Source\BasicMathFunctions/arm_dot_prod_q7.c ****  * -------------------------------------------------------------------- */
  11:Source\BasicMathFunctions/arm_dot_prod_q7.c **** /*
  12:Source\BasicMathFunctions/arm_dot_prod_q7.c ****  * Copyright (C) 2010-2017 ARM Limited or its affiliates. All rights reserved.
  13:Source\BasicMathFunctions/arm_dot_prod_q7.c ****  *
  14:Source\BasicMathFunctions/arm_dot_prod_q7.c ****  * SPDX-License-Identifier: Apache-2.0
  15:Source\BasicMathFunctions/arm_dot_prod_q7.c ****  *
  16:Source\BasicMathFunctions/arm_dot_prod_q7.c ****  * Licensed under the Apache License, Version 2.0 (the License); you may
  17:Source\BasicMathFunctions/arm_dot_prod_q7.c ****  * not use this file except in compliance with the License.
  18:Source\BasicMathFunctions/arm_dot_prod_q7.c ****  * You may obtain a copy of the License at
  19:Source\BasicMathFunctions/arm_dot_prod_q7.c ****  *
  20:Source\BasicMathFunctions/arm_dot_prod_q7.c ****  * www.apache.org/licenses/LICENSE-2.0
  21:Source\BasicMathFunctions/arm_dot_prod_q7.c ****  *
  22:Source\BasicMathFunctions/arm_dot_prod_q7.c ****  * Unless required by applicable law or agreed to in writing, software
  23:Source\BasicMathFunctions/arm_dot_prod_q7.c ****  * distributed under the License is distributed on an AS IS BASIS, WITHOUT
  24:Source\BasicMathFunctions/arm_dot_prod_q7.c ****  * WARRANTIES OR CONDITIONS OF ANY KIND, either express or implied.
  25:Source\BasicMathFunctions/arm_dot_prod_q7.c ****  * See the License for the specific language governing permissions and
  26:Source\BasicMathFunctions/arm_dot_prod_q7.c ****  * limitations under the License.
  27:Source\BasicMathFunctions/arm_dot_prod_q7.c ****  */
  28:Source\BasicMathFunctions/arm_dot_prod_q7.c **** 
  29:Source\BasicMathFunctions/arm_dot_prod_q7.c **** #include "arm_math.h"
  30:Source\BasicMathFunctions/arm_dot_prod_q7.c **** 
  31:Source\BasicMathFunctions/arm_dot_prod_q7.c **** /**
  32:Source\BasicMathFunctions/arm_dot_prod_q7.c ****  * @ingroup groupMath
ARM GAS  C:\Users\fneves\AppData\Local\Temp\cci3Ndsy.s 			page 2


  33:Source\BasicMathFunctions/arm_dot_prod_q7.c ****  */
  34:Source\BasicMathFunctions/arm_dot_prod_q7.c **** 
  35:Source\BasicMathFunctions/arm_dot_prod_q7.c **** /**
  36:Source\BasicMathFunctions/arm_dot_prod_q7.c ****  * @addtogroup dot_prod
  37:Source\BasicMathFunctions/arm_dot_prod_q7.c ****  * @{
  38:Source\BasicMathFunctions/arm_dot_prod_q7.c ****  */
  39:Source\BasicMathFunctions/arm_dot_prod_q7.c **** 
  40:Source\BasicMathFunctions/arm_dot_prod_q7.c **** /**
  41:Source\BasicMathFunctions/arm_dot_prod_q7.c ****  * @brief Dot product of Q7 vectors.
  42:Source\BasicMathFunctions/arm_dot_prod_q7.c ****  * @param[in]       *pSrcA points to the first input vector
  43:Source\BasicMathFunctions/arm_dot_prod_q7.c ****  * @param[in]       *pSrcB points to the second input vector
  44:Source\BasicMathFunctions/arm_dot_prod_q7.c ****  * @param[in]       blockSize number of samples in each vector
  45:Source\BasicMathFunctions/arm_dot_prod_q7.c ****  * @param[out]      *result output result returned here
  46:Source\BasicMathFunctions/arm_dot_prod_q7.c ****  * @return none.
  47:Source\BasicMathFunctions/arm_dot_prod_q7.c ****  *
  48:Source\BasicMathFunctions/arm_dot_prod_q7.c ****  * <b>Scaling and Overflow Behavior:</b>
  49:Source\BasicMathFunctions/arm_dot_prod_q7.c ****  * \par
  50:Source\BasicMathFunctions/arm_dot_prod_q7.c ****  * The intermediate multiplications are in 1.7 x 1.7 = 2.14 format and these
  51:Source\BasicMathFunctions/arm_dot_prod_q7.c ****  * results are added to an accumulator in 18.14 format.
  52:Source\BasicMathFunctions/arm_dot_prod_q7.c ****  * Nonsaturating additions are used and there is no danger of wrap around as long as
  53:Source\BasicMathFunctions/arm_dot_prod_q7.c ****  * the vectors are less than 2^18 elements long.
  54:Source\BasicMathFunctions/arm_dot_prod_q7.c ****  * The return result is in 18.14 format.
  55:Source\BasicMathFunctions/arm_dot_prod_q7.c ****  */
  56:Source\BasicMathFunctions/arm_dot_prod_q7.c **** 
  57:Source\BasicMathFunctions/arm_dot_prod_q7.c **** void arm_dot_prod_q7(
  58:Source\BasicMathFunctions/arm_dot_prod_q7.c ****   q7_t * pSrcA,
  59:Source\BasicMathFunctions/arm_dot_prod_q7.c ****   q7_t * pSrcB,
  60:Source\BasicMathFunctions/arm_dot_prod_q7.c ****   uint32_t blockSize,
  61:Source\BasicMathFunctions/arm_dot_prod_q7.c ****   q31_t * result)
  62:Source\BasicMathFunctions/arm_dot_prod_q7.c **** {
  26              		.loc 1 62 0
  27              		.cfi_startproc
  28 0000 80B5     		push	{r7, lr}
  29              		.cfi_def_cfa_offset 8
  30              		.cfi_offset 7, -8
  31              		.cfi_offset 14, -4
  32 0002 86B0     		sub	sp, sp, #24
  33              		.cfi_def_cfa_offset 32
  34 0004 00AF     		add	r7, sp, #0
  35              		.cfi_def_cfa_register 7
  36 0006 F860     		str	r0, [r7, #12]
  37 0008 B960     		str	r1, [r7, #8]
  38 000a 7A60     		str	r2, [r7, #4]
  39 000c 3B60     		str	r3, [r7]
  63:Source\BasicMathFunctions/arm_dot_prod_q7.c ****   uint32_t blkCnt;                               /* loop counter */
  64:Source\BasicMathFunctions/arm_dot_prod_q7.c **** 
  65:Source\BasicMathFunctions/arm_dot_prod_q7.c ****   q31_t sum = 0;                                 /* Temporary variables to store output */
  40              		.loc 1 65 0
  41 000e 0023     		mov	r3, #0
  42 0010 3B61     		str	r3, [r7, #16]
  66:Source\BasicMathFunctions/arm_dot_prod_q7.c **** 
  67:Source\BasicMathFunctions/arm_dot_prod_q7.c **** #if defined (ARM_MATH_DSP)
  68:Source\BasicMathFunctions/arm_dot_prod_q7.c **** 
  69:Source\BasicMathFunctions/arm_dot_prod_q7.c **** /* Run the below code for Cortex-M4 and Cortex-M3 */
  70:Source\BasicMathFunctions/arm_dot_prod_q7.c **** 
  71:Source\BasicMathFunctions/arm_dot_prod_q7.c ****   q31_t input1, input2;                          /* Temporary variables to store input */
  72:Source\BasicMathFunctions/arm_dot_prod_q7.c ****   q31_t inA1, inA2, inB1, inB2;                  /* Temporary variables to store input */
ARM GAS  C:\Users\fneves\AppData\Local\Temp\cci3Ndsy.s 			page 3


  73:Source\BasicMathFunctions/arm_dot_prod_q7.c **** 
  74:Source\BasicMathFunctions/arm_dot_prod_q7.c **** 
  75:Source\BasicMathFunctions/arm_dot_prod_q7.c **** 
  76:Source\BasicMathFunctions/arm_dot_prod_q7.c ****   /*loop Unrolling */
  77:Source\BasicMathFunctions/arm_dot_prod_q7.c ****   blkCnt = blockSize >> 2u;
  78:Source\BasicMathFunctions/arm_dot_prod_q7.c **** 
  79:Source\BasicMathFunctions/arm_dot_prod_q7.c ****   /* First part of the processing with loop unrolling.  Compute 4 outputs at a time.
  80:Source\BasicMathFunctions/arm_dot_prod_q7.c ****    ** a second loop below computes the remaining 1 to 3 samples. */
  81:Source\BasicMathFunctions/arm_dot_prod_q7.c ****   while (blkCnt > 0u)
  82:Source\BasicMathFunctions/arm_dot_prod_q7.c ****   {
  83:Source\BasicMathFunctions/arm_dot_prod_q7.c ****     /* read 4 samples at a time from sourceA */
  84:Source\BasicMathFunctions/arm_dot_prod_q7.c ****     input1 = *__SIMD32(pSrcA)++;
  85:Source\BasicMathFunctions/arm_dot_prod_q7.c ****     /* read 4 samples at a time from sourceB */
  86:Source\BasicMathFunctions/arm_dot_prod_q7.c ****     input2 = *__SIMD32(pSrcB)++;
  87:Source\BasicMathFunctions/arm_dot_prod_q7.c **** 
  88:Source\BasicMathFunctions/arm_dot_prod_q7.c ****     /* extract two q7_t samples to q15_t samples */
  89:Source\BasicMathFunctions/arm_dot_prod_q7.c ****     inA1 = __SXTB16(__ROR(input1, 8));
  90:Source\BasicMathFunctions/arm_dot_prod_q7.c ****     /* extract reminaing two samples */
  91:Source\BasicMathFunctions/arm_dot_prod_q7.c ****     inA2 = __SXTB16(input1);
  92:Source\BasicMathFunctions/arm_dot_prod_q7.c ****     /* extract two q7_t samples to q15_t samples */
  93:Source\BasicMathFunctions/arm_dot_prod_q7.c ****     inB1 = __SXTB16(__ROR(input2, 8));
  94:Source\BasicMathFunctions/arm_dot_prod_q7.c ****     /* extract reminaing two samples */
  95:Source\BasicMathFunctions/arm_dot_prod_q7.c ****     inB2 = __SXTB16(input2);
  96:Source\BasicMathFunctions/arm_dot_prod_q7.c **** 
  97:Source\BasicMathFunctions/arm_dot_prod_q7.c ****     /* multiply and accumulate two samples at a time */
  98:Source\BasicMathFunctions/arm_dot_prod_q7.c ****     sum = __SMLAD(inA1, inB1, sum);
  99:Source\BasicMathFunctions/arm_dot_prod_q7.c ****     sum = __SMLAD(inA2, inB2, sum);
 100:Source\BasicMathFunctions/arm_dot_prod_q7.c **** 
 101:Source\BasicMathFunctions/arm_dot_prod_q7.c ****     /* Decrement the loop counter */
 102:Source\BasicMathFunctions/arm_dot_prod_q7.c ****     blkCnt--;
 103:Source\BasicMathFunctions/arm_dot_prod_q7.c ****   }
 104:Source\BasicMathFunctions/arm_dot_prod_q7.c **** 
 105:Source\BasicMathFunctions/arm_dot_prod_q7.c ****   /* If the blockSize is not a multiple of 4, compute any remaining output samples here.
 106:Source\BasicMathFunctions/arm_dot_prod_q7.c ****    ** No loop unrolling is used. */
 107:Source\BasicMathFunctions/arm_dot_prod_q7.c ****   blkCnt = blockSize % 0x4u;
 108:Source\BasicMathFunctions/arm_dot_prod_q7.c **** 
 109:Source\BasicMathFunctions/arm_dot_prod_q7.c ****   while (blkCnt > 0u)
 110:Source\BasicMathFunctions/arm_dot_prod_q7.c ****   {
 111:Source\BasicMathFunctions/arm_dot_prod_q7.c ****     /* C = A[0]* B[0] + A[1]* B[1] + A[2]* B[2] + .....+ A[blockSize-1]* B[blockSize-1] */
 112:Source\BasicMathFunctions/arm_dot_prod_q7.c ****     /* Dot product and then store the results in a temporary buffer. */
 113:Source\BasicMathFunctions/arm_dot_prod_q7.c ****     sum = __SMLAD(*pSrcA++, *pSrcB++, sum);
 114:Source\BasicMathFunctions/arm_dot_prod_q7.c **** 
 115:Source\BasicMathFunctions/arm_dot_prod_q7.c ****     /* Decrement the loop counter */
 116:Source\BasicMathFunctions/arm_dot_prod_q7.c ****     blkCnt--;
 117:Source\BasicMathFunctions/arm_dot_prod_q7.c ****   }
 118:Source\BasicMathFunctions/arm_dot_prod_q7.c **** 
 119:Source\BasicMathFunctions/arm_dot_prod_q7.c **** #else
 120:Source\BasicMathFunctions/arm_dot_prod_q7.c **** 
 121:Source\BasicMathFunctions/arm_dot_prod_q7.c ****   /* Run the below code for Cortex-M0 */
 122:Source\BasicMathFunctions/arm_dot_prod_q7.c **** 
 123:Source\BasicMathFunctions/arm_dot_prod_q7.c **** 
 124:Source\BasicMathFunctions/arm_dot_prod_q7.c **** 
 125:Source\BasicMathFunctions/arm_dot_prod_q7.c ****   /* Initialize blkCnt with number of samples */
 126:Source\BasicMathFunctions/arm_dot_prod_q7.c ****   blkCnt = blockSize;
  43              		.loc 1 126 0
  44 0012 7B68     		ldr	r3, [r7, #4]
  45 0014 7B61     		str	r3, [r7, #20]
ARM GAS  C:\Users\fneves\AppData\Local\Temp\cci3Ndsy.s 			page 4


 127:Source\BasicMathFunctions/arm_dot_prod_q7.c **** 
 128:Source\BasicMathFunctions/arm_dot_prod_q7.c ****   while (blkCnt > 0u)
  46              		.loc 1 128 0
  47 0016 10E0     		b	.L2
  48              	.L3:
 129:Source\BasicMathFunctions/arm_dot_prod_q7.c ****   {
 130:Source\BasicMathFunctions/arm_dot_prod_q7.c ****     /* C = A[0]* B[0] + A[1]* B[1] + A[2]* B[2] + .....+ A[blockSize-1]* B[blockSize-1] */
 131:Source\BasicMathFunctions/arm_dot_prod_q7.c ****     /* Dot product and then store the results in a temporary buffer. */
 132:Source\BasicMathFunctions/arm_dot_prod_q7.c ****     sum += (q31_t) ((q15_t) * pSrcA++ * *pSrcB++);
  49              		.loc 1 132 0
  50 0018 FB68     		ldr	r3, [r7, #12]
  51 001a 5A1C     		add	r2, r3, #1
  52 001c FA60     		str	r2, [r7, #12]
  53 001e 1B78     		ldrb	r3, [r3]
  54 0020 5AB2     		sxtb	r2, r3
  55 0022 BB68     		ldr	r3, [r7, #8]
  56 0024 591C     		add	r1, r3, #1
  57 0026 B960     		str	r1, [r7, #8]
  58 0028 1B78     		ldrb	r3, [r3]
  59 002a 5BB2     		sxtb	r3, r3
  60 002c 5343     		mul	r3, r2
  61 002e 3A69     		ldr	r2, [r7, #16]
  62 0030 D318     		add	r3, r2, r3
  63 0032 3B61     		str	r3, [r7, #16]
 133:Source\BasicMathFunctions/arm_dot_prod_q7.c **** 
 134:Source\BasicMathFunctions/arm_dot_prod_q7.c ****     /* Decrement the loop counter */
 135:Source\BasicMathFunctions/arm_dot_prod_q7.c ****     blkCnt--;
  64              		.loc 1 135 0
  65 0034 7B69     		ldr	r3, [r7, #20]
  66 0036 013B     		sub	r3, r3, #1
  67 0038 7B61     		str	r3, [r7, #20]
  68              	.L2:
 128:Source\BasicMathFunctions/arm_dot_prod_q7.c ****   {
  69              		.loc 1 128 0
  70 003a 7B69     		ldr	r3, [r7, #20]
  71 003c 002B     		cmp	r3, #0
  72 003e EBD1     		bne	.L3
 136:Source\BasicMathFunctions/arm_dot_prod_q7.c ****   }
 137:Source\BasicMathFunctions/arm_dot_prod_q7.c **** 
 138:Source\BasicMathFunctions/arm_dot_prod_q7.c **** #endif /* #if defined (ARM_MATH_DSP) */
 139:Source\BasicMathFunctions/arm_dot_prod_q7.c **** 
 140:Source\BasicMathFunctions/arm_dot_prod_q7.c **** 
 141:Source\BasicMathFunctions/arm_dot_prod_q7.c ****   /* Store the result in the destination buffer in 18.14 format */
 142:Source\BasicMathFunctions/arm_dot_prod_q7.c ****   *result = sum;
  73              		.loc 1 142 0
  74 0040 3B68     		ldr	r3, [r7]
  75 0042 3A69     		ldr	r2, [r7, #16]
  76 0044 1A60     		str	r2, [r3]
 143:Source\BasicMathFunctions/arm_dot_prod_q7.c **** }
  77              		.loc 1 143 0
  78 0046 BD46     		mov	sp, r7
  79 0048 06B0     		add	sp, sp, #24
  80              		@ sp needed
  81 004a 80BD     		pop	{r7, pc}
  82              		.cfi_endproc
  83              	.LFE82:
  84              		.size	arm_dot_prod_q7, .-arm_dot_prod_q7
ARM GAS  C:\Users\fneves\AppData\Local\Temp\cci3Ndsy.s 			page 5


  85              		.text
  86              	.Letext0:
  87              		.file 2 "c:\\program files (x86)\\cypress\\psoc creator\\4.0\\psoc creator\\import\\gnu\\arm\\4.9.
  88              		.file 3 "c:\\program files (x86)\\cypress\\psoc creator\\4.0\\psoc creator\\import\\gnu\\arm\\4.9.
  89              		.file 4 ".\\Include/arm_math.h"