ARM GAS  C:\Users\fneves\AppData\Local\Temp\ccj9210P.s 			page 1


   1              		.cpu cortex-m0plus
   2              		.fpu softvfp
   3              		.eabi_attribute 20, 1
   4              		.eabi_attribute 21, 1
   5              		.eabi_attribute 23, 3
   6              		.eabi_attribute 24, 1
   7              		.eabi_attribute 25, 1
   8              		.eabi_attribute 26, 1
   9              		.eabi_attribute 30, 6
  10              		.eabi_attribute 34, 0
  11              		.eabi_attribute 18, 4
  12              		.code	16
  13              		.file	"arm_fill_f32.c"
  14              		.text
  15              	.Ltext0:
  16              		.cfi_sections	.debug_frame
  17              		.section	.text.arm_fill_f32,"ax",%progbits
  18              		.align	2
  19              		.global	arm_fill_f32
  20              		.code	16
  21              		.thumb_func
  22              		.type	arm_fill_f32, %function
  23              	arm_fill_f32:
  24              	.LFB82:
  25              		.file 1 "Source\\SupportFunctions\\arm_fill_f32.c"
   1:Source\SupportFunctions/arm_fill_f32.c **** /* ----------------------------------------------------------------------
   2:Source\SupportFunctions/arm_fill_f32.c ****  * Project:      CMSIS DSP Library
   3:Source\SupportFunctions/arm_fill_f32.c ****  * Title:        arm_fill_f32.c
   4:Source\SupportFunctions/arm_fill_f32.c ****  * Description:  Fills a constant value into a floating-point vector
   5:Source\SupportFunctions/arm_fill_f32.c ****  *
   6:Source\SupportFunctions/arm_fill_f32.c ****  * $Date:        27. January 2017
   7:Source\SupportFunctions/arm_fill_f32.c ****  * $Revision:    V.1.5.1
   8:Source\SupportFunctions/arm_fill_f32.c ****  *
   9:Source\SupportFunctions/arm_fill_f32.c ****  * Target Processor: Cortex-M cores
  10:Source\SupportFunctions/arm_fill_f32.c ****  * -------------------------------------------------------------------- */
  11:Source\SupportFunctions/arm_fill_f32.c **** /*
  12:Source\SupportFunctions/arm_fill_f32.c ****  * Copyright (C) 2010-2017 ARM Limited or its affiliates. All rights reserved.
  13:Source\SupportFunctions/arm_fill_f32.c ****  *
  14:Source\SupportFunctions/arm_fill_f32.c ****  * SPDX-License-Identifier: Apache-2.0
  15:Source\SupportFunctions/arm_fill_f32.c ****  *
  16:Source\SupportFunctions/arm_fill_f32.c ****  * Licensed under the Apache License, Version 2.0 (the License); you may
  17:Source\SupportFunctions/arm_fill_f32.c ****  * not use this file except in compliance with the License.
  18:Source\SupportFunctions/arm_fill_f32.c ****  * You may obtain a copy of the License at
  19:Source\SupportFunctions/arm_fill_f32.c ****  *
  20:Source\SupportFunctions/arm_fill_f32.c ****  * www.apache.org/licenses/LICENSE-2.0
  21:Source\SupportFunctions/arm_fill_f32.c ****  *
  22:Source\SupportFunctions/arm_fill_f32.c ****  * Unless required by applicable law or agreed to in writing, software
  23:Source\SupportFunctions/arm_fill_f32.c ****  * distributed under the License is distributed on an AS IS BASIS, WITHOUT
  24:Source\SupportFunctions/arm_fill_f32.c ****  * WARRANTIES OR CONDITIONS OF ANY KIND, either express or implied.
  25:Source\SupportFunctions/arm_fill_f32.c ****  * See the License for the specific language governing permissions and
  26:Source\SupportFunctions/arm_fill_f32.c ****  * limitations under the License.
  27:Source\SupportFunctions/arm_fill_f32.c ****  */
  28:Source\SupportFunctions/arm_fill_f32.c **** 
  29:Source\SupportFunctions/arm_fill_f32.c **** #include "arm_math.h"
  30:Source\SupportFunctions/arm_fill_f32.c **** 
  31:Source\SupportFunctions/arm_fill_f32.c **** /**
  32:Source\SupportFunctions/arm_fill_f32.c ****  * @ingroup groupSupport
ARM GAS  C:\Users\fneves\AppData\Local\Temp\ccj9210P.s 			page 2


  33:Source\SupportFunctions/arm_fill_f32.c ****  */
  34:Source\SupportFunctions/arm_fill_f32.c **** 
  35:Source\SupportFunctions/arm_fill_f32.c **** /**
  36:Source\SupportFunctions/arm_fill_f32.c ****  * @defgroup Fill Vector Fill
  37:Source\SupportFunctions/arm_fill_f32.c ****  *
  38:Source\SupportFunctions/arm_fill_f32.c ****  * Fills the destination vector with a constant value.
  39:Source\SupportFunctions/arm_fill_f32.c ****  *
  40:Source\SupportFunctions/arm_fill_f32.c ****  * <pre>
  41:Source\SupportFunctions/arm_fill_f32.c ****  * 	pDst[n] = value;   0 <= n < blockSize.
  42:Source\SupportFunctions/arm_fill_f32.c ****  * </pre>
  43:Source\SupportFunctions/arm_fill_f32.c ****  *
  44:Source\SupportFunctions/arm_fill_f32.c ****  * There are separate functions for floating point, Q31, Q15, and Q7 data types.
  45:Source\SupportFunctions/arm_fill_f32.c ****  */
  46:Source\SupportFunctions/arm_fill_f32.c **** 
  47:Source\SupportFunctions/arm_fill_f32.c **** /**
  48:Source\SupportFunctions/arm_fill_f32.c ****  * @addtogroup Fill
  49:Source\SupportFunctions/arm_fill_f32.c ****  * @{
  50:Source\SupportFunctions/arm_fill_f32.c ****  */
  51:Source\SupportFunctions/arm_fill_f32.c **** 
  52:Source\SupportFunctions/arm_fill_f32.c **** /**
  53:Source\SupportFunctions/arm_fill_f32.c ****  * @brief Fills a constant value into a floating-point vector.
  54:Source\SupportFunctions/arm_fill_f32.c ****  * @param[in]       value input value to be filled
  55:Source\SupportFunctions/arm_fill_f32.c ****  * @param[out]      *pDst points to output vector
  56:Source\SupportFunctions/arm_fill_f32.c ****  * @param[in]       blockSize length of the output vector
  57:Source\SupportFunctions/arm_fill_f32.c ****  * @return none.
  58:Source\SupportFunctions/arm_fill_f32.c ****  *
  59:Source\SupportFunctions/arm_fill_f32.c ****  */
  60:Source\SupportFunctions/arm_fill_f32.c **** 
  61:Source\SupportFunctions/arm_fill_f32.c **** 
  62:Source\SupportFunctions/arm_fill_f32.c **** void arm_fill_f32(
  63:Source\SupportFunctions/arm_fill_f32.c ****   float32_t value,
  64:Source\SupportFunctions/arm_fill_f32.c ****   float32_t * pDst,
  65:Source\SupportFunctions/arm_fill_f32.c ****   uint32_t blockSize)
  66:Source\SupportFunctions/arm_fill_f32.c **** {
  26              		.loc 1 66 0
  27              		.cfi_startproc
  28 0000 80B5     		push	{r7, lr}
  29              		.cfi_def_cfa_offset 8
  30              		.cfi_offset 7, -8
  31              		.cfi_offset 14, -4
  32 0002 86B0     		sub	sp, sp, #24
  33              		.cfi_def_cfa_offset 32
  34 0004 00AF     		add	r7, sp, #0
  35              		.cfi_def_cfa_register 7
  36 0006 F860     		str	r0, [r7, #12]
  37 0008 B960     		str	r1, [r7, #8]
  38 000a 7A60     		str	r2, [r7, #4]
  67:Source\SupportFunctions/arm_fill_f32.c ****   uint32_t blkCnt;                               /* loop counter */
  68:Source\SupportFunctions/arm_fill_f32.c **** 
  69:Source\SupportFunctions/arm_fill_f32.c **** #if defined (ARM_MATH_DSP)
  70:Source\SupportFunctions/arm_fill_f32.c **** 
  71:Source\SupportFunctions/arm_fill_f32.c ****   /* Run the below code for Cortex-M4 and Cortex-M3 */
  72:Source\SupportFunctions/arm_fill_f32.c ****   float32_t in1 = value;
  73:Source\SupportFunctions/arm_fill_f32.c ****   float32_t in2 = value;
  74:Source\SupportFunctions/arm_fill_f32.c ****   float32_t in3 = value;
  75:Source\SupportFunctions/arm_fill_f32.c ****   float32_t in4 = value;
  76:Source\SupportFunctions/arm_fill_f32.c **** 
ARM GAS  C:\Users\fneves\AppData\Local\Temp\ccj9210P.s 			page 3


  77:Source\SupportFunctions/arm_fill_f32.c ****   /*loop Unrolling */
  78:Source\SupportFunctions/arm_fill_f32.c ****   blkCnt = blockSize >> 2u;
  79:Source\SupportFunctions/arm_fill_f32.c **** 
  80:Source\SupportFunctions/arm_fill_f32.c ****   /* First part of the processing with loop unrolling.  Compute 4 outputs at a time.
  81:Source\SupportFunctions/arm_fill_f32.c ****    ** a second loop below computes the remaining 1 to 3 samples. */
  82:Source\SupportFunctions/arm_fill_f32.c ****   while (blkCnt > 0u)
  83:Source\SupportFunctions/arm_fill_f32.c ****   {
  84:Source\SupportFunctions/arm_fill_f32.c ****     /* C = value */
  85:Source\SupportFunctions/arm_fill_f32.c ****     /* Fill the value in the destination buffer */
  86:Source\SupportFunctions/arm_fill_f32.c ****     *pDst++ = in1;
  87:Source\SupportFunctions/arm_fill_f32.c ****     *pDst++ = in2;
  88:Source\SupportFunctions/arm_fill_f32.c ****     *pDst++ = in3;
  89:Source\SupportFunctions/arm_fill_f32.c ****     *pDst++ = in4;
  90:Source\SupportFunctions/arm_fill_f32.c **** 
  91:Source\SupportFunctions/arm_fill_f32.c ****     /* Decrement the loop counter */
  92:Source\SupportFunctions/arm_fill_f32.c ****     blkCnt--;
  93:Source\SupportFunctions/arm_fill_f32.c ****   }
  94:Source\SupportFunctions/arm_fill_f32.c **** 
  95:Source\SupportFunctions/arm_fill_f32.c ****   /* If the blockSize is not a multiple of 4, compute any remaining output samples here.
  96:Source\SupportFunctions/arm_fill_f32.c ****    ** No loop unrolling is used. */
  97:Source\SupportFunctions/arm_fill_f32.c ****   blkCnt = blockSize % 0x4u;
  98:Source\SupportFunctions/arm_fill_f32.c **** 
  99:Source\SupportFunctions/arm_fill_f32.c **** #else
 100:Source\SupportFunctions/arm_fill_f32.c **** 
 101:Source\SupportFunctions/arm_fill_f32.c ****   /* Run the below code for Cortex-M0 */
 102:Source\SupportFunctions/arm_fill_f32.c **** 
 103:Source\SupportFunctions/arm_fill_f32.c ****   /* Loop over blockSize number of values */
 104:Source\SupportFunctions/arm_fill_f32.c ****   blkCnt = blockSize;
  39              		.loc 1 104 0
  40 000c 7B68     		ldr	r3, [r7, #4]
  41 000e 7B61     		str	r3, [r7, #20]
 105:Source\SupportFunctions/arm_fill_f32.c **** 
 106:Source\SupportFunctions/arm_fill_f32.c **** #endif /* #if defined (ARM_MATH_DSP) */
 107:Source\SupportFunctions/arm_fill_f32.c **** 
 108:Source\SupportFunctions/arm_fill_f32.c **** 
 109:Source\SupportFunctions/arm_fill_f32.c ****   while (blkCnt > 0u)
  42              		.loc 1 109 0
  43 0010 07E0     		b	.L2
  44              	.L3:
 110:Source\SupportFunctions/arm_fill_f32.c ****   {
 111:Source\SupportFunctions/arm_fill_f32.c ****     /* C = value */
 112:Source\SupportFunctions/arm_fill_f32.c ****     /* Fill the value in the destination buffer */
 113:Source\SupportFunctions/arm_fill_f32.c ****     *pDst++ = value;
  45              		.loc 1 113 0
  46 0012 BB68     		ldr	r3, [r7, #8]
  47 0014 1A1D     		add	r2, r3, #4
  48 0016 BA60     		str	r2, [r7, #8]
  49 0018 FA68     		ldr	r2, [r7, #12]
  50 001a 1A60     		str	r2, [r3]
 114:Source\SupportFunctions/arm_fill_f32.c **** 
 115:Source\SupportFunctions/arm_fill_f32.c ****     /* Decrement the loop counter */
 116:Source\SupportFunctions/arm_fill_f32.c ****     blkCnt--;
  51              		.loc 1 116 0
  52 001c 7B69     		ldr	r3, [r7, #20]
  53 001e 013B     		sub	r3, r3, #1
  54 0020 7B61     		str	r3, [r7, #20]
  55              	.L2:
ARM GAS  C:\Users\fneves\AppData\Local\Temp\ccj9210P.s 			page 4


 109:Source\SupportFunctions/arm_fill_f32.c ****   {
  56              		.loc 1 109 0
  57 0022 7B69     		ldr	r3, [r7, #20]
  58 0024 002B     		cmp	r3, #0
  59 0026 F4D1     		bne	.L3
 117:Source\SupportFunctions/arm_fill_f32.c ****   }
 118:Source\SupportFunctions/arm_fill_f32.c **** }
  60              		.loc 1 118 0
  61 0028 BD46     		mov	sp, r7
  62 002a 06B0     		add	sp, sp, #24
  63              		@ sp needed
  64 002c 80BD     		pop	{r7, pc}
  65              		.cfi_endproc
  66              	.LFE82:
  67              		.size	arm_fill_f32, .-arm_fill_f32
  68 002e C046     		.text
  69              	.Letext0:
  70              		.file 2 "c:\\program files (x86)\\cypress\\psoc creator\\4.0\\psoc creator\\import\\gnu\\arm\\4.9.
  71              		.file 3 "c:\\program files (x86)\\cypress\\psoc creator\\4.0\\psoc creator\\import\\gnu\\arm\\4.9.
  72              		.file 4 ".\\Include/arm_math.h"