ARM GAS  C:\Users\fneves\AppData\Local\Temp\ccyXw0na.s 			page 1


   1              		.cpu cortex-m0plus
   2              		.fpu softvfp
   3              		.eabi_attribute 20, 1
   4              		.eabi_attribute 21, 1
   5              		.eabi_attribute 23, 3
   6              		.eabi_attribute 24, 1
   7              		.eabi_attribute 25, 1
   8              		.eabi_attribute 26, 1
   9              		.eabi_attribute 30, 6
  10              		.eabi_attribute 34, 0
  11              		.eabi_attribute 18, 4
  12              		.code	16
  13              		.file	"arm_fir_interpolate_f32.c"
  14              		.text
  15              	.Ltext0:
  16              		.cfi_sections	.debug_frame
  17              		.global	__aeabi_fmul
  18              		.global	__aeabi_fadd
  19              		.section	.text.arm_fir_interpolate_f32,"ax",%progbits
  20              		.align	2
  21              		.global	arm_fir_interpolate_f32
  22              		.code	16
  23              		.thumb_func
  24              		.type	arm_fir_interpolate_f32, %function
  25              	arm_fir_interpolate_f32:
  26              	.LFB82:
  27              		.file 1 "Source\\FilteringFunctions\\arm_fir_interpolate_f32.c"
   1:Source\FilteringFunctions/arm_fir_interpolate_f32.c **** /* ----------------------------------------------------------------------
   2:Source\FilteringFunctions/arm_fir_interpolate_f32.c ****  * Project:      CMSIS DSP Library
   3:Source\FilteringFunctions/arm_fir_interpolate_f32.c ****  * Title:        arm_fir_interpolate_f32.c
   4:Source\FilteringFunctions/arm_fir_interpolate_f32.c ****  * Description:  Floating-point FIR interpolation sequences
   5:Source\FilteringFunctions/arm_fir_interpolate_f32.c ****  *
   6:Source\FilteringFunctions/arm_fir_interpolate_f32.c ****  * $Date:        27. January 2017
   7:Source\FilteringFunctions/arm_fir_interpolate_f32.c ****  * $Revision:    V.1.5.1
   8:Source\FilteringFunctions/arm_fir_interpolate_f32.c ****  *
   9:Source\FilteringFunctions/arm_fir_interpolate_f32.c ****  * Target Processor: Cortex-M cores
  10:Source\FilteringFunctions/arm_fir_interpolate_f32.c ****  * -------------------------------------------------------------------- */
  11:Source\FilteringFunctions/arm_fir_interpolate_f32.c **** /*
  12:Source\FilteringFunctions/arm_fir_interpolate_f32.c ****  * Copyright (C) 2010-2017 ARM Limited or its affiliates. All rights reserved.
  13:Source\FilteringFunctions/arm_fir_interpolate_f32.c ****  *
  14:Source\FilteringFunctions/arm_fir_interpolate_f32.c ****  * SPDX-License-Identifier: Apache-2.0
  15:Source\FilteringFunctions/arm_fir_interpolate_f32.c ****  *
  16:Source\FilteringFunctions/arm_fir_interpolate_f32.c ****  * Licensed under the Apache License, Version 2.0 (the License); you may
  17:Source\FilteringFunctions/arm_fir_interpolate_f32.c ****  * not use this file except in compliance with the License.
  18:Source\FilteringFunctions/arm_fir_interpolate_f32.c ****  * You may obtain a copy of the License at
  19:Source\FilteringFunctions/arm_fir_interpolate_f32.c ****  *
  20:Source\FilteringFunctions/arm_fir_interpolate_f32.c ****  * www.apache.org/licenses/LICENSE-2.0
  21:Source\FilteringFunctions/arm_fir_interpolate_f32.c ****  *
  22:Source\FilteringFunctions/arm_fir_interpolate_f32.c ****  * Unless required by applicable law or agreed to in writing, software
  23:Source\FilteringFunctions/arm_fir_interpolate_f32.c ****  * distributed under the License is distributed on an AS IS BASIS, WITHOUT
  24:Source\FilteringFunctions/arm_fir_interpolate_f32.c ****  * WARRANTIES OR CONDITIONS OF ANY KIND, either express or implied.
  25:Source\FilteringFunctions/arm_fir_interpolate_f32.c ****  * See the License for the specific language governing permissions and
  26:Source\FilteringFunctions/arm_fir_interpolate_f32.c ****  * limitations under the License.
  27:Source\FilteringFunctions/arm_fir_interpolate_f32.c ****  */
  28:Source\FilteringFunctions/arm_fir_interpolate_f32.c **** 
  29:Source\FilteringFunctions/arm_fir_interpolate_f32.c **** #include "arm_math.h"
  30:Source\FilteringFunctions/arm_fir_interpolate_f32.c **** 
ARM GAS  C:\Users\fneves\AppData\Local\Temp\ccyXw0na.s 			page 2


  31:Source\FilteringFunctions/arm_fir_interpolate_f32.c **** /**
  32:Source\FilteringFunctions/arm_fir_interpolate_f32.c ****  * @defgroup FIR_Interpolate Finite Impulse Response (FIR) Interpolator
  33:Source\FilteringFunctions/arm_fir_interpolate_f32.c ****  *
  34:Source\FilteringFunctions/arm_fir_interpolate_f32.c ****  * These functions combine an upsampler (zero stuffer) and an FIR filter.
  35:Source\FilteringFunctions/arm_fir_interpolate_f32.c ****  * They are used in multirate systems for increasing the sample rate of a signal without introducin
  36:Source\FilteringFunctions/arm_fir_interpolate_f32.c ****  * Conceptually, the functions are equivalent to the block diagram below:
  37:Source\FilteringFunctions/arm_fir_interpolate_f32.c ****  * \image html FIRInterpolator.gif "Components included in the FIR Interpolator functions"
  38:Source\FilteringFunctions/arm_fir_interpolate_f32.c ****  * After upsampling by a factor of <code>L</code>, the signal should be filtered by a lowpass filte
  39:Source\FilteringFunctions/arm_fir_interpolate_f32.c ****  * cutoff frequency of <code>1/L</code> in order to eliminate high frequency copies of the spectrum
  40:Source\FilteringFunctions/arm_fir_interpolate_f32.c ****  * The user of the function is responsible for providing the filter coefficients.
  41:Source\FilteringFunctions/arm_fir_interpolate_f32.c ****  *
  42:Source\FilteringFunctions/arm_fir_interpolate_f32.c ****  * The FIR interpolator functions provided in the CMSIS DSP Library combine the upsampler and FIR f
  43:Source\FilteringFunctions/arm_fir_interpolate_f32.c ****  * The upsampler inserts <code>L-1</code> zeros between each sample.
  44:Source\FilteringFunctions/arm_fir_interpolate_f32.c ****  * Instead of multiplying by these zero values, the FIR filter is designed to skip them.
  45:Source\FilteringFunctions/arm_fir_interpolate_f32.c ****  * This leads to an efficient implementation without any wasted effort.
  46:Source\FilteringFunctions/arm_fir_interpolate_f32.c ****  * The functions operate on blocks of input and output data.
  47:Source\FilteringFunctions/arm_fir_interpolate_f32.c ****  * <code>pSrc</code> points to an array of <code>blockSize</code> input values and
  48:Source\FilteringFunctions/arm_fir_interpolate_f32.c ****  * <code>pDst</code> points to an array of <code>blockSize*L</code> output values.
  49:Source\FilteringFunctions/arm_fir_interpolate_f32.c ****  *
  50:Source\FilteringFunctions/arm_fir_interpolate_f32.c ****  * The library provides separate functions for Q15, Q31, and floating-point data types.
  51:Source\FilteringFunctions/arm_fir_interpolate_f32.c ****  *
  52:Source\FilteringFunctions/arm_fir_interpolate_f32.c ****  * \par Algorithm:
  53:Source\FilteringFunctions/arm_fir_interpolate_f32.c ****  * The functions use a polyphase filter structure:
  54:Source\FilteringFunctions/arm_fir_interpolate_f32.c ****  * <pre>
  55:Source\FilteringFunctions/arm_fir_interpolate_f32.c ****  *    y[n] = b[0] * x[n] + b[L]   * x[n-1] + ... + b[L*(phaseLength-1)] * x[n-phaseLength+1]
  56:Source\FilteringFunctions/arm_fir_interpolate_f32.c ****  *    y[n+1] = b[1] * x[n] + b[L+1] * x[n-1] + ... + b[L*(phaseLength-1)+1] * x[n-phaseLength+1]
  57:Source\FilteringFunctions/arm_fir_interpolate_f32.c ****  *    ...
  58:Source\FilteringFunctions/arm_fir_interpolate_f32.c ****  *    y[n+(L-1)] = b[L-1] * x[n] + b[2*L-1] * x[n-1] + ....+ b[L*(phaseLength-1)+(L-1)] * x[n-phase
  59:Source\FilteringFunctions/arm_fir_interpolate_f32.c ****  * </pre>
  60:Source\FilteringFunctions/arm_fir_interpolate_f32.c ****  * This approach is more efficient than straightforward upsample-then-filter algorithms.
  61:Source\FilteringFunctions/arm_fir_interpolate_f32.c ****  * With this method the computation is reduced by a factor of <code>1/L</code> when compared to usi
  62:Source\FilteringFunctions/arm_fir_interpolate_f32.c ****  * \par
  63:Source\FilteringFunctions/arm_fir_interpolate_f32.c ****  * <code>pCoeffs</code> points to a coefficient array of size <code>numTaps</code>.
  64:Source\FilteringFunctions/arm_fir_interpolate_f32.c ****  * <code>numTaps</code> must be a multiple of the interpolation factor <code>L</code> and this is c
  65:Source\FilteringFunctions/arm_fir_interpolate_f32.c ****  * initialization functions.
  66:Source\FilteringFunctions/arm_fir_interpolate_f32.c ****  * Internally, the function divides the FIR filter's impulse response into shorter filters of lengt
  67:Source\FilteringFunctions/arm_fir_interpolate_f32.c ****  * <code>phaseLength=numTaps/L</code>.
  68:Source\FilteringFunctions/arm_fir_interpolate_f32.c ****  * Coefficients are stored in time reversed order.
  69:Source\FilteringFunctions/arm_fir_interpolate_f32.c ****  * \par
  70:Source\FilteringFunctions/arm_fir_interpolate_f32.c ****  * <pre>
  71:Source\FilteringFunctions/arm_fir_interpolate_f32.c ****  *    {b[numTaps-1], b[numTaps-2], b[N-2], ..., b[1], b[0]}
  72:Source\FilteringFunctions/arm_fir_interpolate_f32.c ****  * </pre>
  73:Source\FilteringFunctions/arm_fir_interpolate_f32.c ****  * \par
  74:Source\FilteringFunctions/arm_fir_interpolate_f32.c ****  * <code>pState</code> points to a state array of size <code>blockSize + phaseLength - 1</code>.
  75:Source\FilteringFunctions/arm_fir_interpolate_f32.c ****  * Samples in the state buffer are stored in the order:
  76:Source\FilteringFunctions/arm_fir_interpolate_f32.c ****  * \par
  77:Source\FilteringFunctions/arm_fir_interpolate_f32.c ****  * <pre>
  78:Source\FilteringFunctions/arm_fir_interpolate_f32.c ****  *    {x[n-phaseLength+1], x[n-phaseLength], x[n-phaseLength-1], x[n-phaseLength-2]....x[0], x[1], 
  79:Source\FilteringFunctions/arm_fir_interpolate_f32.c ****  * </pre>
  80:Source\FilteringFunctions/arm_fir_interpolate_f32.c ****  * The state variables are updated after each block of data is processed, the coefficients are unto
  81:Source\FilteringFunctions/arm_fir_interpolate_f32.c ****  *
  82:Source\FilteringFunctions/arm_fir_interpolate_f32.c ****  * \par Instance Structure
  83:Source\FilteringFunctions/arm_fir_interpolate_f32.c ****  * The coefficients and state variables for a filter are stored together in an instance data struct
  84:Source\FilteringFunctions/arm_fir_interpolate_f32.c ****  * A separate instance structure must be defined for each filter.
  85:Source\FilteringFunctions/arm_fir_interpolate_f32.c ****  * Coefficient arrays may be shared among several instances while state variable array should be al
  86:Source\FilteringFunctions/arm_fir_interpolate_f32.c ****  * There are separate instance structure declarations for each of the 3 supported data types.
  87:Source\FilteringFunctions/arm_fir_interpolate_f32.c ****  *
ARM GAS  C:\Users\fneves\AppData\Local\Temp\ccyXw0na.s 			page 3


  88:Source\FilteringFunctions/arm_fir_interpolate_f32.c ****  * \par Initialization Functions
  89:Source\FilteringFunctions/arm_fir_interpolate_f32.c ****  * There is also an associated initialization function for each data type.
  90:Source\FilteringFunctions/arm_fir_interpolate_f32.c ****  * The initialization function performs the following operations:
  91:Source\FilteringFunctions/arm_fir_interpolate_f32.c ****  * - Sets the values of the internal structure fields.
  92:Source\FilteringFunctions/arm_fir_interpolate_f32.c ****  * - Zeros out the values in the state buffer.
  93:Source\FilteringFunctions/arm_fir_interpolate_f32.c ****  * - Checks to make sure that the length of the filter is a multiple of the interpolation factor.
  94:Source\FilteringFunctions/arm_fir_interpolate_f32.c ****  * To do this manually without calling the init function, assign the follow subfields of the instan
  95:Source\FilteringFunctions/arm_fir_interpolate_f32.c ****  * L (interpolation factor), pCoeffs, phaseLength (numTaps / L), pState. Also set all of the values
  96:Source\FilteringFunctions/arm_fir_interpolate_f32.c ****  *
  97:Source\FilteringFunctions/arm_fir_interpolate_f32.c ****  * \par
  98:Source\FilteringFunctions/arm_fir_interpolate_f32.c ****  * Use of the initialization function is optional.
  99:Source\FilteringFunctions/arm_fir_interpolate_f32.c ****  * However, if the initialization function is used, then the instance structure cannot be placed in
 100:Source\FilteringFunctions/arm_fir_interpolate_f32.c ****  * To place an instance structure into a const data section, the instance structure must be manuall
 101:Source\FilteringFunctions/arm_fir_interpolate_f32.c ****  * The code below statically initializes each of the 3 different data type filter instance structur
 102:Source\FilteringFunctions/arm_fir_interpolate_f32.c ****  * <pre>
 103:Source\FilteringFunctions/arm_fir_interpolate_f32.c ****  * arm_fir_interpolate_instance_f32 S = {L, phaseLength, pCoeffs, pState};
 104:Source\FilteringFunctions/arm_fir_interpolate_f32.c ****  * arm_fir_interpolate_instance_q31 S = {L, phaseLength, pCoeffs, pState};
 105:Source\FilteringFunctions/arm_fir_interpolate_f32.c ****  * arm_fir_interpolate_instance_q15 S = {L, phaseLength, pCoeffs, pState};
 106:Source\FilteringFunctions/arm_fir_interpolate_f32.c ****  * </pre>
 107:Source\FilteringFunctions/arm_fir_interpolate_f32.c ****  * where <code>L</code> is the interpolation factor; <code>phaseLength=numTaps/L</code> is the
 108:Source\FilteringFunctions/arm_fir_interpolate_f32.c ****  * length of each of the shorter FIR filters used internally,
 109:Source\FilteringFunctions/arm_fir_interpolate_f32.c ****  * <code>pCoeffs</code> is the address of the coefficient buffer;
 110:Source\FilteringFunctions/arm_fir_interpolate_f32.c ****  * <code>pState</code> is the address of the state buffer.
 111:Source\FilteringFunctions/arm_fir_interpolate_f32.c ****  * Be sure to set the values in the state buffer to zeros when doing static initialization.
 112:Source\FilteringFunctions/arm_fir_interpolate_f32.c ****  *
 113:Source\FilteringFunctions/arm_fir_interpolate_f32.c ****  * \par Fixed-Point Behavior
 114:Source\FilteringFunctions/arm_fir_interpolate_f32.c ****  * Care must be taken when using the fixed-point versions of the FIR interpolate filter functions.
 115:Source\FilteringFunctions/arm_fir_interpolate_f32.c ****  * In particular, the overflow and saturation behavior of the accumulator used in each function mus
 116:Source\FilteringFunctions/arm_fir_interpolate_f32.c ****  * Refer to the function specific documentation below for usage guidelines.
 117:Source\FilteringFunctions/arm_fir_interpolate_f32.c ****  */
 118:Source\FilteringFunctions/arm_fir_interpolate_f32.c **** 
 119:Source\FilteringFunctions/arm_fir_interpolate_f32.c **** /**
 120:Source\FilteringFunctions/arm_fir_interpolate_f32.c ****  * @addtogroup FIR_Interpolate
 121:Source\FilteringFunctions/arm_fir_interpolate_f32.c ****  * @{
 122:Source\FilteringFunctions/arm_fir_interpolate_f32.c ****  */
 123:Source\FilteringFunctions/arm_fir_interpolate_f32.c **** 
 124:Source\FilteringFunctions/arm_fir_interpolate_f32.c **** /**
 125:Source\FilteringFunctions/arm_fir_interpolate_f32.c ****  * @brief Processing function for the floating-point FIR interpolator.
 126:Source\FilteringFunctions/arm_fir_interpolate_f32.c ****  * @param[in] *S        points to an instance of the floating-point FIR interpolator structure.
 127:Source\FilteringFunctions/arm_fir_interpolate_f32.c ****  * @param[in] *pSrc     points to the block of input data.
 128:Source\FilteringFunctions/arm_fir_interpolate_f32.c ****  * @param[out] *pDst    points to the block of output data.
 129:Source\FilteringFunctions/arm_fir_interpolate_f32.c ****  * @param[in] blockSize number of input samples to process per call.
 130:Source\FilteringFunctions/arm_fir_interpolate_f32.c ****  * @return none.
 131:Source\FilteringFunctions/arm_fir_interpolate_f32.c ****  */
 132:Source\FilteringFunctions/arm_fir_interpolate_f32.c **** #if defined (ARM_MATH_DSP)
 133:Source\FilteringFunctions/arm_fir_interpolate_f32.c **** 
 134:Source\FilteringFunctions/arm_fir_interpolate_f32.c ****   /* Run the below code for Cortex-M4 and Cortex-M3 */
 135:Source\FilteringFunctions/arm_fir_interpolate_f32.c **** 
 136:Source\FilteringFunctions/arm_fir_interpolate_f32.c **** void arm_fir_interpolate_f32(
 137:Source\FilteringFunctions/arm_fir_interpolate_f32.c ****   const arm_fir_interpolate_instance_f32 * S,
 138:Source\FilteringFunctions/arm_fir_interpolate_f32.c ****   float32_t * pSrc,
 139:Source\FilteringFunctions/arm_fir_interpolate_f32.c ****   float32_t * pDst,
 140:Source\FilteringFunctions/arm_fir_interpolate_f32.c ****   uint32_t blockSize)
 141:Source\FilteringFunctions/arm_fir_interpolate_f32.c **** {
 142:Source\FilteringFunctions/arm_fir_interpolate_f32.c ****   float32_t *pState = S->pState;                 /* State pointer */
 143:Source\FilteringFunctions/arm_fir_interpolate_f32.c ****   float32_t *pCoeffs = S->pCoeffs;               /* Coefficient pointer */
 144:Source\FilteringFunctions/arm_fir_interpolate_f32.c ****   float32_t *pStateCurnt;                        /* Points to the current sample of the state */
ARM GAS  C:\Users\fneves\AppData\Local\Temp\ccyXw0na.s 			page 4


 145:Source\FilteringFunctions/arm_fir_interpolate_f32.c ****   float32_t *ptr1, *ptr2;                        /* Temporary pointers for state and coefficient bu
 146:Source\FilteringFunctions/arm_fir_interpolate_f32.c ****   float32_t sum0;                                /* Accumulators */
 147:Source\FilteringFunctions/arm_fir_interpolate_f32.c ****   float32_t x0, c0;                              /* Temporary variables to hold state and coefficie
 148:Source\FilteringFunctions/arm_fir_interpolate_f32.c ****   uint32_t i, blkCnt, j;                         /* Loop counters */
 149:Source\FilteringFunctions/arm_fir_interpolate_f32.c ****   uint16_t phaseLen = S->phaseLength, tapCnt;    /* Length of each polyphase filter component */
 150:Source\FilteringFunctions/arm_fir_interpolate_f32.c ****   float32_t acc0, acc1, acc2, acc3;
 151:Source\FilteringFunctions/arm_fir_interpolate_f32.c ****   float32_t x1, x2, x3;
 152:Source\FilteringFunctions/arm_fir_interpolate_f32.c ****   uint32_t blkCntN4;
 153:Source\FilteringFunctions/arm_fir_interpolate_f32.c ****   float32_t c1, c2, c3;
 154:Source\FilteringFunctions/arm_fir_interpolate_f32.c **** 
 155:Source\FilteringFunctions/arm_fir_interpolate_f32.c ****   /* S->pState buffer contains previous frame (phaseLen - 1) samples */
 156:Source\FilteringFunctions/arm_fir_interpolate_f32.c ****   /* pStateCurnt points to the location where the new input data should be written */
 157:Source\FilteringFunctions/arm_fir_interpolate_f32.c ****   pStateCurnt = S->pState + (phaseLen - 1u);
 158:Source\FilteringFunctions/arm_fir_interpolate_f32.c **** 
 159:Source\FilteringFunctions/arm_fir_interpolate_f32.c ****   /* Initialise  blkCnt */
 160:Source\FilteringFunctions/arm_fir_interpolate_f32.c ****   blkCnt = blockSize / 4;
 161:Source\FilteringFunctions/arm_fir_interpolate_f32.c ****   blkCntN4 = blockSize - (4 * blkCnt);
 162:Source\FilteringFunctions/arm_fir_interpolate_f32.c **** 
 163:Source\FilteringFunctions/arm_fir_interpolate_f32.c ****   /* Samples loop unrolled by 4 */
 164:Source\FilteringFunctions/arm_fir_interpolate_f32.c ****   while (blkCnt > 0u)
 165:Source\FilteringFunctions/arm_fir_interpolate_f32.c ****   {
 166:Source\FilteringFunctions/arm_fir_interpolate_f32.c ****     /* Copy new input sample into the state buffer */
 167:Source\FilteringFunctions/arm_fir_interpolate_f32.c ****     *pStateCurnt++ = *pSrc++;
 168:Source\FilteringFunctions/arm_fir_interpolate_f32.c ****     *pStateCurnt++ = *pSrc++;
 169:Source\FilteringFunctions/arm_fir_interpolate_f32.c ****     *pStateCurnt++ = *pSrc++;
 170:Source\FilteringFunctions/arm_fir_interpolate_f32.c ****     *pStateCurnt++ = *pSrc++;
 171:Source\FilteringFunctions/arm_fir_interpolate_f32.c **** 
 172:Source\FilteringFunctions/arm_fir_interpolate_f32.c ****     /* Address modifier index of coefficient buffer */
 173:Source\FilteringFunctions/arm_fir_interpolate_f32.c ****     j = 1u;
 174:Source\FilteringFunctions/arm_fir_interpolate_f32.c **** 
 175:Source\FilteringFunctions/arm_fir_interpolate_f32.c ****     /* Loop over the Interpolation factor. */
 176:Source\FilteringFunctions/arm_fir_interpolate_f32.c ****     i = (S->L);
 177:Source\FilteringFunctions/arm_fir_interpolate_f32.c **** 
 178:Source\FilteringFunctions/arm_fir_interpolate_f32.c ****     while (i > 0u)
 179:Source\FilteringFunctions/arm_fir_interpolate_f32.c ****     {
 180:Source\FilteringFunctions/arm_fir_interpolate_f32.c ****       /* Set accumulator to zero */
 181:Source\FilteringFunctions/arm_fir_interpolate_f32.c ****       acc0 = 0.0f;
 182:Source\FilteringFunctions/arm_fir_interpolate_f32.c ****       acc1 = 0.0f;
 183:Source\FilteringFunctions/arm_fir_interpolate_f32.c ****       acc2 = 0.0f;
 184:Source\FilteringFunctions/arm_fir_interpolate_f32.c ****       acc3 = 0.0f;
 185:Source\FilteringFunctions/arm_fir_interpolate_f32.c **** 
 186:Source\FilteringFunctions/arm_fir_interpolate_f32.c ****       /* Initialize state pointer */
 187:Source\FilteringFunctions/arm_fir_interpolate_f32.c ****       ptr1 = pState;
 188:Source\FilteringFunctions/arm_fir_interpolate_f32.c **** 
 189:Source\FilteringFunctions/arm_fir_interpolate_f32.c ****       /* Initialize coefficient pointer */
 190:Source\FilteringFunctions/arm_fir_interpolate_f32.c ****       ptr2 = pCoeffs + (S->L - j);
 191:Source\FilteringFunctions/arm_fir_interpolate_f32.c **** 
 192:Source\FilteringFunctions/arm_fir_interpolate_f32.c ****       /* Loop over the polyPhase length. Unroll by a factor of 4.
 193:Source\FilteringFunctions/arm_fir_interpolate_f32.c ****        ** Repeat until we've computed numTaps-(4*S->L) coefficients. */
 194:Source\FilteringFunctions/arm_fir_interpolate_f32.c ****       tapCnt = phaseLen >> 2u;
 195:Source\FilteringFunctions/arm_fir_interpolate_f32.c **** 
 196:Source\FilteringFunctions/arm_fir_interpolate_f32.c ****       x0 = *(ptr1++);
 197:Source\FilteringFunctions/arm_fir_interpolate_f32.c ****       x1 = *(ptr1++);
 198:Source\FilteringFunctions/arm_fir_interpolate_f32.c ****       x2 = *(ptr1++);
 199:Source\FilteringFunctions/arm_fir_interpolate_f32.c **** 
 200:Source\FilteringFunctions/arm_fir_interpolate_f32.c ****       while (tapCnt > 0u)
 201:Source\FilteringFunctions/arm_fir_interpolate_f32.c ****       {
ARM GAS  C:\Users\fneves\AppData\Local\Temp\ccyXw0na.s 			page 5


 202:Source\FilteringFunctions/arm_fir_interpolate_f32.c **** 
 203:Source\FilteringFunctions/arm_fir_interpolate_f32.c ****         /* Read the input sample */
 204:Source\FilteringFunctions/arm_fir_interpolate_f32.c ****         x3 = *(ptr1++);
 205:Source\FilteringFunctions/arm_fir_interpolate_f32.c **** 
 206:Source\FilteringFunctions/arm_fir_interpolate_f32.c ****         /* Read the coefficient */
 207:Source\FilteringFunctions/arm_fir_interpolate_f32.c ****         c0 = *(ptr2);
 208:Source\FilteringFunctions/arm_fir_interpolate_f32.c **** 
 209:Source\FilteringFunctions/arm_fir_interpolate_f32.c ****         /* Perform the multiply-accumulate */
 210:Source\FilteringFunctions/arm_fir_interpolate_f32.c ****         acc0 += x0 * c0;
 211:Source\FilteringFunctions/arm_fir_interpolate_f32.c ****         acc1 += x1 * c0;
 212:Source\FilteringFunctions/arm_fir_interpolate_f32.c ****         acc2 += x2 * c0;
 213:Source\FilteringFunctions/arm_fir_interpolate_f32.c ****         acc3 += x3 * c0;
 214:Source\FilteringFunctions/arm_fir_interpolate_f32.c **** 
 215:Source\FilteringFunctions/arm_fir_interpolate_f32.c ****         /* Read the coefficient */
 216:Source\FilteringFunctions/arm_fir_interpolate_f32.c ****         c1 = *(ptr2 + S->L);
 217:Source\FilteringFunctions/arm_fir_interpolate_f32.c **** 
 218:Source\FilteringFunctions/arm_fir_interpolate_f32.c ****         /* Read the input sample */
 219:Source\FilteringFunctions/arm_fir_interpolate_f32.c ****         x0 = *(ptr1++);
 220:Source\FilteringFunctions/arm_fir_interpolate_f32.c **** 
 221:Source\FilteringFunctions/arm_fir_interpolate_f32.c ****         /* Perform the multiply-accumulate */
 222:Source\FilteringFunctions/arm_fir_interpolate_f32.c ****         acc0 += x1 * c1;
 223:Source\FilteringFunctions/arm_fir_interpolate_f32.c ****         acc1 += x2 * c1;
 224:Source\FilteringFunctions/arm_fir_interpolate_f32.c ****         acc2 += x3 * c1;
 225:Source\FilteringFunctions/arm_fir_interpolate_f32.c ****         acc3 += x0 * c1;
 226:Source\FilteringFunctions/arm_fir_interpolate_f32.c **** 
 227:Source\FilteringFunctions/arm_fir_interpolate_f32.c ****         /* Read the coefficient */
 228:Source\FilteringFunctions/arm_fir_interpolate_f32.c ****         c2 = *(ptr2 + S->L * 2);
 229:Source\FilteringFunctions/arm_fir_interpolate_f32.c **** 
 230:Source\FilteringFunctions/arm_fir_interpolate_f32.c ****         /* Read the input sample */
 231:Source\FilteringFunctions/arm_fir_interpolate_f32.c ****         x1 = *(ptr1++);
 232:Source\FilteringFunctions/arm_fir_interpolate_f32.c **** 
 233:Source\FilteringFunctions/arm_fir_interpolate_f32.c ****         /* Perform the multiply-accumulate */
 234:Source\FilteringFunctions/arm_fir_interpolate_f32.c ****         acc0 += x2 * c2;
 235:Source\FilteringFunctions/arm_fir_interpolate_f32.c ****         acc1 += x3 * c2;
 236:Source\FilteringFunctions/arm_fir_interpolate_f32.c ****         acc2 += x0 * c2;
 237:Source\FilteringFunctions/arm_fir_interpolate_f32.c ****         acc3 += x1 * c2;
 238:Source\FilteringFunctions/arm_fir_interpolate_f32.c **** 
 239:Source\FilteringFunctions/arm_fir_interpolate_f32.c ****         /* Read the coefficient */
 240:Source\FilteringFunctions/arm_fir_interpolate_f32.c ****         c3 = *(ptr2 + S->L * 3);
 241:Source\FilteringFunctions/arm_fir_interpolate_f32.c **** 
 242:Source\FilteringFunctions/arm_fir_interpolate_f32.c ****         /* Read the input sample */
 243:Source\FilteringFunctions/arm_fir_interpolate_f32.c ****         x2 = *(ptr1++);
 244:Source\FilteringFunctions/arm_fir_interpolate_f32.c **** 
 245:Source\FilteringFunctions/arm_fir_interpolate_f32.c ****         /* Perform the multiply-accumulate */
 246:Source\FilteringFunctions/arm_fir_interpolate_f32.c ****         acc0 += x3 * c3;
 247:Source\FilteringFunctions/arm_fir_interpolate_f32.c ****         acc1 += x0 * c3;
 248:Source\FilteringFunctions/arm_fir_interpolate_f32.c ****         acc2 += x1 * c3;
 249:Source\FilteringFunctions/arm_fir_interpolate_f32.c ****         acc3 += x2 * c3;
 250:Source\FilteringFunctions/arm_fir_interpolate_f32.c **** 
 251:Source\FilteringFunctions/arm_fir_interpolate_f32.c **** 
 252:Source\FilteringFunctions/arm_fir_interpolate_f32.c ****         /* Upsampling is done by stuffing L-1 zeros between each sample.
 253:Source\FilteringFunctions/arm_fir_interpolate_f32.c ****          * So instead of multiplying zeros with coefficients,
 254:Source\FilteringFunctions/arm_fir_interpolate_f32.c ****          * Increment the coefficient pointer by interpolation factor times. */
 255:Source\FilteringFunctions/arm_fir_interpolate_f32.c ****         ptr2 += 4 * S->L;
 256:Source\FilteringFunctions/arm_fir_interpolate_f32.c **** 
 257:Source\FilteringFunctions/arm_fir_interpolate_f32.c ****         /* Decrement the loop counter */
 258:Source\FilteringFunctions/arm_fir_interpolate_f32.c ****         tapCnt--;
ARM GAS  C:\Users\fneves\AppData\Local\Temp\ccyXw0na.s 			page 6


 259:Source\FilteringFunctions/arm_fir_interpolate_f32.c ****       }
 260:Source\FilteringFunctions/arm_fir_interpolate_f32.c **** 
 261:Source\FilteringFunctions/arm_fir_interpolate_f32.c ****       /* If the polyPhase length is not a multiple of 4, compute the remaining filter taps */
 262:Source\FilteringFunctions/arm_fir_interpolate_f32.c ****       tapCnt = phaseLen % 0x4u;
 263:Source\FilteringFunctions/arm_fir_interpolate_f32.c **** 
 264:Source\FilteringFunctions/arm_fir_interpolate_f32.c ****       while (tapCnt > 0u)
 265:Source\FilteringFunctions/arm_fir_interpolate_f32.c ****       {
 266:Source\FilteringFunctions/arm_fir_interpolate_f32.c **** 
 267:Source\FilteringFunctions/arm_fir_interpolate_f32.c ****         /* Read the input sample */
 268:Source\FilteringFunctions/arm_fir_interpolate_f32.c ****         x3 = *(ptr1++);
 269:Source\FilteringFunctions/arm_fir_interpolate_f32.c **** 
 270:Source\FilteringFunctions/arm_fir_interpolate_f32.c ****         /* Read the coefficient */
 271:Source\FilteringFunctions/arm_fir_interpolate_f32.c ****         c0 = *(ptr2);
 272:Source\FilteringFunctions/arm_fir_interpolate_f32.c **** 
 273:Source\FilteringFunctions/arm_fir_interpolate_f32.c ****         /* Perform the multiply-accumulate */
 274:Source\FilteringFunctions/arm_fir_interpolate_f32.c ****         acc0 += x0 * c0;
 275:Source\FilteringFunctions/arm_fir_interpolate_f32.c ****         acc1 += x1 * c0;
 276:Source\FilteringFunctions/arm_fir_interpolate_f32.c ****         acc2 += x2 * c0;
 277:Source\FilteringFunctions/arm_fir_interpolate_f32.c ****         acc3 += x3 * c0;
 278:Source\FilteringFunctions/arm_fir_interpolate_f32.c **** 
 279:Source\FilteringFunctions/arm_fir_interpolate_f32.c ****         /* Increment the coefficient pointer by interpolation factor times. */
 280:Source\FilteringFunctions/arm_fir_interpolate_f32.c ****         ptr2 += S->L;
 281:Source\FilteringFunctions/arm_fir_interpolate_f32.c **** 
 282:Source\FilteringFunctions/arm_fir_interpolate_f32.c ****         /* update states for next sample processing */
 283:Source\FilteringFunctions/arm_fir_interpolate_f32.c ****         x0 = x1;
 284:Source\FilteringFunctions/arm_fir_interpolate_f32.c ****         x1 = x2;
 285:Source\FilteringFunctions/arm_fir_interpolate_f32.c ****         x2 = x3;
 286:Source\FilteringFunctions/arm_fir_interpolate_f32.c **** 
 287:Source\FilteringFunctions/arm_fir_interpolate_f32.c ****         /* Decrement the loop counter */
 288:Source\FilteringFunctions/arm_fir_interpolate_f32.c ****         tapCnt--;
 289:Source\FilteringFunctions/arm_fir_interpolate_f32.c ****       }
 290:Source\FilteringFunctions/arm_fir_interpolate_f32.c **** 
 291:Source\FilteringFunctions/arm_fir_interpolate_f32.c ****       /* The result is in the accumulator, store in the destination buffer. */
 292:Source\FilteringFunctions/arm_fir_interpolate_f32.c ****       *pDst = acc0;
 293:Source\FilteringFunctions/arm_fir_interpolate_f32.c ****       *(pDst + S->L) = acc1;
 294:Source\FilteringFunctions/arm_fir_interpolate_f32.c ****       *(pDst + 2 * S->L) = acc2;
 295:Source\FilteringFunctions/arm_fir_interpolate_f32.c ****       *(pDst + 3 * S->L) = acc3;
 296:Source\FilteringFunctions/arm_fir_interpolate_f32.c **** 
 297:Source\FilteringFunctions/arm_fir_interpolate_f32.c ****       pDst++;
 298:Source\FilteringFunctions/arm_fir_interpolate_f32.c **** 
 299:Source\FilteringFunctions/arm_fir_interpolate_f32.c ****       /* Increment the address modifier index of coefficient buffer */
 300:Source\FilteringFunctions/arm_fir_interpolate_f32.c ****       j++;
 301:Source\FilteringFunctions/arm_fir_interpolate_f32.c **** 
 302:Source\FilteringFunctions/arm_fir_interpolate_f32.c ****       /* Decrement the loop counter */
 303:Source\FilteringFunctions/arm_fir_interpolate_f32.c ****       i--;
 304:Source\FilteringFunctions/arm_fir_interpolate_f32.c ****     }
 305:Source\FilteringFunctions/arm_fir_interpolate_f32.c **** 
 306:Source\FilteringFunctions/arm_fir_interpolate_f32.c ****     /* Advance the state pointer by 1
 307:Source\FilteringFunctions/arm_fir_interpolate_f32.c ****      * to process the next group of interpolation factor number samples */
 308:Source\FilteringFunctions/arm_fir_interpolate_f32.c ****     pState = pState + 4;
 309:Source\FilteringFunctions/arm_fir_interpolate_f32.c **** 
 310:Source\FilteringFunctions/arm_fir_interpolate_f32.c ****     pDst += S->L * 3;
 311:Source\FilteringFunctions/arm_fir_interpolate_f32.c **** 
 312:Source\FilteringFunctions/arm_fir_interpolate_f32.c ****     /* Decrement the loop counter */
 313:Source\FilteringFunctions/arm_fir_interpolate_f32.c ****     blkCnt--;
 314:Source\FilteringFunctions/arm_fir_interpolate_f32.c ****   }
 315:Source\FilteringFunctions/arm_fir_interpolate_f32.c **** 
ARM GAS  C:\Users\fneves\AppData\Local\Temp\ccyXw0na.s 			page 7


 316:Source\FilteringFunctions/arm_fir_interpolate_f32.c ****   /* If the blockSize is not a multiple of 4, compute any remaining output samples here.
 317:Source\FilteringFunctions/arm_fir_interpolate_f32.c ****    ** No loop unrolling is used. */
 318:Source\FilteringFunctions/arm_fir_interpolate_f32.c **** 
 319:Source\FilteringFunctions/arm_fir_interpolate_f32.c ****   while (blkCntN4 > 0u)
 320:Source\FilteringFunctions/arm_fir_interpolate_f32.c ****   {
 321:Source\FilteringFunctions/arm_fir_interpolate_f32.c ****     /* Copy new input sample into the state buffer */
 322:Source\FilteringFunctions/arm_fir_interpolate_f32.c ****     *pStateCurnt++ = *pSrc++;
 323:Source\FilteringFunctions/arm_fir_interpolate_f32.c **** 
 324:Source\FilteringFunctions/arm_fir_interpolate_f32.c ****     /* Address modifier index of coefficient buffer */
 325:Source\FilteringFunctions/arm_fir_interpolate_f32.c ****     j = 1u;
 326:Source\FilteringFunctions/arm_fir_interpolate_f32.c **** 
 327:Source\FilteringFunctions/arm_fir_interpolate_f32.c ****     /* Loop over the Interpolation factor. */
 328:Source\FilteringFunctions/arm_fir_interpolate_f32.c ****     i = S->L;
 329:Source\FilteringFunctions/arm_fir_interpolate_f32.c ****     while (i > 0u)
 330:Source\FilteringFunctions/arm_fir_interpolate_f32.c ****     {
 331:Source\FilteringFunctions/arm_fir_interpolate_f32.c ****       /* Set accumulator to zero */
 332:Source\FilteringFunctions/arm_fir_interpolate_f32.c ****       sum0 = 0.0f;
 333:Source\FilteringFunctions/arm_fir_interpolate_f32.c **** 
 334:Source\FilteringFunctions/arm_fir_interpolate_f32.c ****       /* Initialize state pointer */
 335:Source\FilteringFunctions/arm_fir_interpolate_f32.c ****       ptr1 = pState;
 336:Source\FilteringFunctions/arm_fir_interpolate_f32.c **** 
 337:Source\FilteringFunctions/arm_fir_interpolate_f32.c ****       /* Initialize coefficient pointer */
 338:Source\FilteringFunctions/arm_fir_interpolate_f32.c ****       ptr2 = pCoeffs + (S->L - j);
 339:Source\FilteringFunctions/arm_fir_interpolate_f32.c **** 
 340:Source\FilteringFunctions/arm_fir_interpolate_f32.c ****       /* Loop over the polyPhase length. Unroll by a factor of 4.
 341:Source\FilteringFunctions/arm_fir_interpolate_f32.c ****        ** Repeat until we've computed numTaps-(4*S->L) coefficients. */
 342:Source\FilteringFunctions/arm_fir_interpolate_f32.c ****       tapCnt = phaseLen >> 2u;
 343:Source\FilteringFunctions/arm_fir_interpolate_f32.c ****       while (tapCnt > 0u)
 344:Source\FilteringFunctions/arm_fir_interpolate_f32.c ****       {
 345:Source\FilteringFunctions/arm_fir_interpolate_f32.c **** 
 346:Source\FilteringFunctions/arm_fir_interpolate_f32.c ****         /* Read the coefficient */
 347:Source\FilteringFunctions/arm_fir_interpolate_f32.c ****         c0 = *(ptr2);
 348:Source\FilteringFunctions/arm_fir_interpolate_f32.c **** 
 349:Source\FilteringFunctions/arm_fir_interpolate_f32.c ****         /* Upsampling is done by stuffing L-1 zeros between each sample.
 350:Source\FilteringFunctions/arm_fir_interpolate_f32.c ****          * So instead of multiplying zeros with coefficients,
 351:Source\FilteringFunctions/arm_fir_interpolate_f32.c ****          * Increment the coefficient pointer by interpolation factor times. */
 352:Source\FilteringFunctions/arm_fir_interpolate_f32.c ****         ptr2 += S->L;
 353:Source\FilteringFunctions/arm_fir_interpolate_f32.c **** 
 354:Source\FilteringFunctions/arm_fir_interpolate_f32.c ****         /* Read the input sample */
 355:Source\FilteringFunctions/arm_fir_interpolate_f32.c ****         x0 = *(ptr1++);
 356:Source\FilteringFunctions/arm_fir_interpolate_f32.c **** 
 357:Source\FilteringFunctions/arm_fir_interpolate_f32.c ****         /* Perform the multiply-accumulate */
 358:Source\FilteringFunctions/arm_fir_interpolate_f32.c ****         sum0 += x0 * c0;
 359:Source\FilteringFunctions/arm_fir_interpolate_f32.c **** 
 360:Source\FilteringFunctions/arm_fir_interpolate_f32.c ****         /* Read the coefficient */
 361:Source\FilteringFunctions/arm_fir_interpolate_f32.c ****         c0 = *(ptr2);
 362:Source\FilteringFunctions/arm_fir_interpolate_f32.c **** 
 363:Source\FilteringFunctions/arm_fir_interpolate_f32.c ****         /* Increment the coefficient pointer by interpolation factor times. */
 364:Source\FilteringFunctions/arm_fir_interpolate_f32.c ****         ptr2 += S->L;
 365:Source\FilteringFunctions/arm_fir_interpolate_f32.c **** 
 366:Source\FilteringFunctions/arm_fir_interpolate_f32.c ****         /* Read the input sample */
 367:Source\FilteringFunctions/arm_fir_interpolate_f32.c ****         x0 = *(ptr1++);
 368:Source\FilteringFunctions/arm_fir_interpolate_f32.c **** 
 369:Source\FilteringFunctions/arm_fir_interpolate_f32.c ****         /* Perform the multiply-accumulate */
 370:Source\FilteringFunctions/arm_fir_interpolate_f32.c ****         sum0 += x0 * c0;
 371:Source\FilteringFunctions/arm_fir_interpolate_f32.c **** 
 372:Source\FilteringFunctions/arm_fir_interpolate_f32.c ****         /* Read the coefficient */
ARM GAS  C:\Users\fneves\AppData\Local\Temp\ccyXw0na.s 			page 8


 373:Source\FilteringFunctions/arm_fir_interpolate_f32.c ****         c0 = *(ptr2);
 374:Source\FilteringFunctions/arm_fir_interpolate_f32.c **** 
 375:Source\FilteringFunctions/arm_fir_interpolate_f32.c ****         /* Increment the coefficient pointer by interpolation factor times. */
 376:Source\FilteringFunctions/arm_fir_interpolate_f32.c ****         ptr2 += S->L;
 377:Source\FilteringFunctions/arm_fir_interpolate_f32.c **** 
 378:Source\FilteringFunctions/arm_fir_interpolate_f32.c ****         /* Read the input sample */
 379:Source\FilteringFunctions/arm_fir_interpolate_f32.c ****         x0 = *(ptr1++);
 380:Source\FilteringFunctions/arm_fir_interpolate_f32.c **** 
 381:Source\FilteringFunctions/arm_fir_interpolate_f32.c ****         /* Perform the multiply-accumulate */
 382:Source\FilteringFunctions/arm_fir_interpolate_f32.c ****         sum0 += x0 * c0;
 383:Source\FilteringFunctions/arm_fir_interpolate_f32.c **** 
 384:Source\FilteringFunctions/arm_fir_interpolate_f32.c ****         /* Read the coefficient */
 385:Source\FilteringFunctions/arm_fir_interpolate_f32.c ****         c0 = *(ptr2);
 386:Source\FilteringFunctions/arm_fir_interpolate_f32.c **** 
 387:Source\FilteringFunctions/arm_fir_interpolate_f32.c ****         /* Increment the coefficient pointer by interpolation factor times. */
 388:Source\FilteringFunctions/arm_fir_interpolate_f32.c ****         ptr2 += S->L;
 389:Source\FilteringFunctions/arm_fir_interpolate_f32.c **** 
 390:Source\FilteringFunctions/arm_fir_interpolate_f32.c ****         /* Read the input sample */
 391:Source\FilteringFunctions/arm_fir_interpolate_f32.c ****         x0 = *(ptr1++);
 392:Source\FilteringFunctions/arm_fir_interpolate_f32.c **** 
 393:Source\FilteringFunctions/arm_fir_interpolate_f32.c ****         /* Perform the multiply-accumulate */
 394:Source\FilteringFunctions/arm_fir_interpolate_f32.c ****         sum0 += x0 * c0;
 395:Source\FilteringFunctions/arm_fir_interpolate_f32.c **** 
 396:Source\FilteringFunctions/arm_fir_interpolate_f32.c ****         /* Decrement the loop counter */
 397:Source\FilteringFunctions/arm_fir_interpolate_f32.c ****         tapCnt--;
 398:Source\FilteringFunctions/arm_fir_interpolate_f32.c ****       }
 399:Source\FilteringFunctions/arm_fir_interpolate_f32.c **** 
 400:Source\FilteringFunctions/arm_fir_interpolate_f32.c ****       /* If the polyPhase length is not a multiple of 4, compute the remaining filter taps */
 401:Source\FilteringFunctions/arm_fir_interpolate_f32.c ****       tapCnt = phaseLen % 0x4u;
 402:Source\FilteringFunctions/arm_fir_interpolate_f32.c **** 
 403:Source\FilteringFunctions/arm_fir_interpolate_f32.c ****       while (tapCnt > 0u)
 404:Source\FilteringFunctions/arm_fir_interpolate_f32.c ****       {
 405:Source\FilteringFunctions/arm_fir_interpolate_f32.c ****         /* Perform the multiply-accumulate */
 406:Source\FilteringFunctions/arm_fir_interpolate_f32.c ****         sum0 += *(ptr1++) * (*ptr2);
 407:Source\FilteringFunctions/arm_fir_interpolate_f32.c **** 
 408:Source\FilteringFunctions/arm_fir_interpolate_f32.c ****         /* Increment the coefficient pointer by interpolation factor times. */
 409:Source\FilteringFunctions/arm_fir_interpolate_f32.c ****         ptr2 += S->L;
 410:Source\FilteringFunctions/arm_fir_interpolate_f32.c **** 
 411:Source\FilteringFunctions/arm_fir_interpolate_f32.c ****         /* Decrement the loop counter */
 412:Source\FilteringFunctions/arm_fir_interpolate_f32.c ****         tapCnt--;
 413:Source\FilteringFunctions/arm_fir_interpolate_f32.c ****       }
 414:Source\FilteringFunctions/arm_fir_interpolate_f32.c **** 
 415:Source\FilteringFunctions/arm_fir_interpolate_f32.c ****       /* The result is in the accumulator, store in the destination buffer. */
 416:Source\FilteringFunctions/arm_fir_interpolate_f32.c ****       *pDst++ = sum0;
 417:Source\FilteringFunctions/arm_fir_interpolate_f32.c **** 
 418:Source\FilteringFunctions/arm_fir_interpolate_f32.c ****       /* Increment the address modifier index of coefficient buffer */
 419:Source\FilteringFunctions/arm_fir_interpolate_f32.c ****       j++;
 420:Source\FilteringFunctions/arm_fir_interpolate_f32.c **** 
 421:Source\FilteringFunctions/arm_fir_interpolate_f32.c ****       /* Decrement the loop counter */
 422:Source\FilteringFunctions/arm_fir_interpolate_f32.c ****       i--;
 423:Source\FilteringFunctions/arm_fir_interpolate_f32.c ****     }
 424:Source\FilteringFunctions/arm_fir_interpolate_f32.c **** 
 425:Source\FilteringFunctions/arm_fir_interpolate_f32.c ****     /* Advance the state pointer by 1
 426:Source\FilteringFunctions/arm_fir_interpolate_f32.c ****      * to process the next group of interpolation factor number samples */
 427:Source\FilteringFunctions/arm_fir_interpolate_f32.c ****     pState = pState + 1;
 428:Source\FilteringFunctions/arm_fir_interpolate_f32.c **** 
 429:Source\FilteringFunctions/arm_fir_interpolate_f32.c ****     /* Decrement the loop counter */
ARM GAS  C:\Users\fneves\AppData\Local\Temp\ccyXw0na.s 			page 9


 430:Source\FilteringFunctions/arm_fir_interpolate_f32.c ****     blkCntN4--;
 431:Source\FilteringFunctions/arm_fir_interpolate_f32.c ****   }
 432:Source\FilteringFunctions/arm_fir_interpolate_f32.c **** 
 433:Source\FilteringFunctions/arm_fir_interpolate_f32.c ****   /* Processing is complete.
 434:Source\FilteringFunctions/arm_fir_interpolate_f32.c ****    ** Now copy the last phaseLen - 1 samples to the satrt of the state buffer.
 435:Source\FilteringFunctions/arm_fir_interpolate_f32.c ****    ** This prepares the state buffer for the next function call. */
 436:Source\FilteringFunctions/arm_fir_interpolate_f32.c **** 
 437:Source\FilteringFunctions/arm_fir_interpolate_f32.c ****   /* Points to the start of the state buffer */
 438:Source\FilteringFunctions/arm_fir_interpolate_f32.c ****   pStateCurnt = S->pState;
 439:Source\FilteringFunctions/arm_fir_interpolate_f32.c **** 
 440:Source\FilteringFunctions/arm_fir_interpolate_f32.c ****   tapCnt = (phaseLen - 1u) >> 2u;
 441:Source\FilteringFunctions/arm_fir_interpolate_f32.c **** 
 442:Source\FilteringFunctions/arm_fir_interpolate_f32.c ****   /* copy data */
 443:Source\FilteringFunctions/arm_fir_interpolate_f32.c ****   while (tapCnt > 0u)
 444:Source\FilteringFunctions/arm_fir_interpolate_f32.c ****   {
 445:Source\FilteringFunctions/arm_fir_interpolate_f32.c ****     *pStateCurnt++ = *pState++;
 446:Source\FilteringFunctions/arm_fir_interpolate_f32.c ****     *pStateCurnt++ = *pState++;
 447:Source\FilteringFunctions/arm_fir_interpolate_f32.c ****     *pStateCurnt++ = *pState++;
 448:Source\FilteringFunctions/arm_fir_interpolate_f32.c ****     *pStateCurnt++ = *pState++;
 449:Source\FilteringFunctions/arm_fir_interpolate_f32.c **** 
 450:Source\FilteringFunctions/arm_fir_interpolate_f32.c ****     /* Decrement the loop counter */
 451:Source\FilteringFunctions/arm_fir_interpolate_f32.c ****     tapCnt--;
 452:Source\FilteringFunctions/arm_fir_interpolate_f32.c ****   }
 453:Source\FilteringFunctions/arm_fir_interpolate_f32.c **** 
 454:Source\FilteringFunctions/arm_fir_interpolate_f32.c ****   tapCnt = (phaseLen - 1u) % 0x04u;
 455:Source\FilteringFunctions/arm_fir_interpolate_f32.c **** 
 456:Source\FilteringFunctions/arm_fir_interpolate_f32.c ****   /* copy data */
 457:Source\FilteringFunctions/arm_fir_interpolate_f32.c ****   while (tapCnt > 0u)
 458:Source\FilteringFunctions/arm_fir_interpolate_f32.c ****   {
 459:Source\FilteringFunctions/arm_fir_interpolate_f32.c ****     *pStateCurnt++ = *pState++;
 460:Source\FilteringFunctions/arm_fir_interpolate_f32.c **** 
 461:Source\FilteringFunctions/arm_fir_interpolate_f32.c ****     /* Decrement the loop counter */
 462:Source\FilteringFunctions/arm_fir_interpolate_f32.c ****     tapCnt--;
 463:Source\FilteringFunctions/arm_fir_interpolate_f32.c ****   }
 464:Source\FilteringFunctions/arm_fir_interpolate_f32.c **** }
 465:Source\FilteringFunctions/arm_fir_interpolate_f32.c **** 
 466:Source\FilteringFunctions/arm_fir_interpolate_f32.c **** #else
 467:Source\FilteringFunctions/arm_fir_interpolate_f32.c **** 
 468:Source\FilteringFunctions/arm_fir_interpolate_f32.c ****   /* Run the below code for Cortex-M0 */
 469:Source\FilteringFunctions/arm_fir_interpolate_f32.c **** 
 470:Source\FilteringFunctions/arm_fir_interpolate_f32.c **** void arm_fir_interpolate_f32(
 471:Source\FilteringFunctions/arm_fir_interpolate_f32.c ****   const arm_fir_interpolate_instance_f32 * S,
 472:Source\FilteringFunctions/arm_fir_interpolate_f32.c ****   float32_t * pSrc,
 473:Source\FilteringFunctions/arm_fir_interpolate_f32.c ****   float32_t * pDst,
 474:Source\FilteringFunctions/arm_fir_interpolate_f32.c ****   uint32_t blockSize)
 475:Source\FilteringFunctions/arm_fir_interpolate_f32.c **** {
  28              		.loc 1 475 0
  29              		.cfi_startproc
  30 0000 80B5     		push	{r7, lr}
  31              		.cfi_def_cfa_offset 8
  32              		.cfi_offset 7, -8
  33              		.cfi_offset 14, -4
  34 0002 8EB0     		sub	sp, sp, #56
  35              		.cfi_def_cfa_offset 64
  36 0004 00AF     		add	r7, sp, #0
  37              		.cfi_def_cfa_register 7
  38 0006 F860     		str	r0, [r7, #12]
ARM GAS  C:\Users\fneves\AppData\Local\Temp\ccyXw0na.s 			page 10


  39 0008 B960     		str	r1, [r7, #8]
  40 000a 7A60     		str	r2, [r7, #4]
  41 000c 3B60     		str	r3, [r7]
 476:Source\FilteringFunctions/arm_fir_interpolate_f32.c ****   float32_t *pState = S->pState;                 /* State pointer */
  42              		.loc 1 476 0
  43 000e FB68     		ldr	r3, [r7, #12]
  44 0010 9B68     		ldr	r3, [r3, #8]
  45 0012 7B63     		str	r3, [r7, #52]
 477:Source\FilteringFunctions/arm_fir_interpolate_f32.c ****   float32_t *pCoeffs = S->pCoeffs;               /* Coefficient pointer */
  46              		.loc 1 477 0
  47 0014 FB68     		ldr	r3, [r7, #12]
  48 0016 5B68     		ldr	r3, [r3, #4]
  49 0018 7B61     		str	r3, [r7, #20]
 478:Source\FilteringFunctions/arm_fir_interpolate_f32.c ****   float32_t *pStateCurnt;                        /* Points to the current sample of the state */
 479:Source\FilteringFunctions/arm_fir_interpolate_f32.c ****   float32_t *ptr1, *ptr2;                        /* Temporary pointers for state and coefficient bu
 480:Source\FilteringFunctions/arm_fir_interpolate_f32.c **** 
 481:Source\FilteringFunctions/arm_fir_interpolate_f32.c **** 
 482:Source\FilteringFunctions/arm_fir_interpolate_f32.c ****   float32_t sum;                                 /* Accumulator */
 483:Source\FilteringFunctions/arm_fir_interpolate_f32.c ****   uint32_t i, blkCnt;                            /* Loop counters */
 484:Source\FilteringFunctions/arm_fir_interpolate_f32.c ****   uint16_t phaseLen = S->phaseLength, tapCnt;    /* Length of each polyphase filter component */
  50              		.loc 1 484 0
  51 001a 1223     		mov	r3, #18
  52 001c FB18     		add	r3, r7, r3
  53 001e FA68     		ldr	r2, [r7, #12]
  54 0020 5288     		ldrh	r2, [r2, #2]
  55 0022 1A80     		strh	r2, [r3]
 485:Source\FilteringFunctions/arm_fir_interpolate_f32.c **** 
 486:Source\FilteringFunctions/arm_fir_interpolate_f32.c **** 
 487:Source\FilteringFunctions/arm_fir_interpolate_f32.c ****   /* S->pState buffer contains previous frame (phaseLen - 1) samples */
 488:Source\FilteringFunctions/arm_fir_interpolate_f32.c ****   /* pStateCurnt points to the location where the new input data should be written */
 489:Source\FilteringFunctions/arm_fir_interpolate_f32.c ****   pStateCurnt = S->pState + (phaseLen - 1u);
  56              		.loc 1 489 0
  57 0024 FB68     		ldr	r3, [r7, #12]
  58 0026 9A68     		ldr	r2, [r3, #8]
  59 0028 1223     		mov	r3, #18
  60 002a FB18     		add	r3, r7, r3
  61 002c 1B88     		ldrh	r3, [r3]
  62 002e 4049     		ldr	r1, .L10
  63 0030 8C46     		mov	ip, r1
  64 0032 6344     		add	r3, r3, ip
  65 0034 9B00     		lsl	r3, r3, #2
  66 0036 D318     		add	r3, r2, r3
  67 0038 3B63     		str	r3, [r7, #48]
 490:Source\FilteringFunctions/arm_fir_interpolate_f32.c **** 
 491:Source\FilteringFunctions/arm_fir_interpolate_f32.c ****   /* Total number of intput samples */
 492:Source\FilteringFunctions/arm_fir_interpolate_f32.c ****   blkCnt = blockSize;
  68              		.loc 1 492 0
  69 003a 3B68     		ldr	r3, [r7]
  70 003c FB61     		str	r3, [r7, #28]
 493:Source\FilteringFunctions/arm_fir_interpolate_f32.c **** 
 494:Source\FilteringFunctions/arm_fir_interpolate_f32.c ****   /* Loop over the blockSize. */
 495:Source\FilteringFunctions/arm_fir_interpolate_f32.c ****   while (blkCnt > 0u)
  71              		.loc 1 495 0
  72 003e 52E0     		b	.L2
  73              	.L7:
 496:Source\FilteringFunctions/arm_fir_interpolate_f32.c ****   {
 497:Source\FilteringFunctions/arm_fir_interpolate_f32.c ****     /* Copy new input sample into the state buffer */
ARM GAS  C:\Users\fneves\AppData\Local\Temp\ccyXw0na.s 			page 11


 498:Source\FilteringFunctions/arm_fir_interpolate_f32.c ****     *pStateCurnt++ = *pSrc++;
  74              		.loc 1 498 0
  75 0040 3B6B     		ldr	r3, [r7, #48]
  76 0042 1A1D     		add	r2, r3, #4
  77 0044 3A63     		str	r2, [r7, #48]
  78 0046 BA68     		ldr	r2, [r7, #8]
  79 0048 111D     		add	r1, r2, #4
  80 004a B960     		str	r1, [r7, #8]
  81 004c 1268     		ldr	r2, [r2]
  82 004e 1A60     		str	r2, [r3]
 499:Source\FilteringFunctions/arm_fir_interpolate_f32.c **** 
 500:Source\FilteringFunctions/arm_fir_interpolate_f32.c ****     /* Loop over the Interpolation factor. */
 501:Source\FilteringFunctions/arm_fir_interpolate_f32.c ****     i = S->L;
  83              		.loc 1 501 0
  84 0050 FB68     		ldr	r3, [r7, #12]
  85 0052 1B78     		ldrb	r3, [r3]
  86 0054 3B62     		str	r3, [r7, #32]
 502:Source\FilteringFunctions/arm_fir_interpolate_f32.c **** 
 503:Source\FilteringFunctions/arm_fir_interpolate_f32.c ****     while (i > 0u)
  87              		.loc 1 503 0
  88 0056 3DE0     		b	.L3
  89              	.L6:
 504:Source\FilteringFunctions/arm_fir_interpolate_f32.c ****     {
 505:Source\FilteringFunctions/arm_fir_interpolate_f32.c ****       /* Set accumulator to zero */
 506:Source\FilteringFunctions/arm_fir_interpolate_f32.c ****       sum = 0.0f;
  90              		.loc 1 506 0
  91 0058 0023     		mov	r3, #0
  92 005a 7B62     		str	r3, [r7, #36]
 507:Source\FilteringFunctions/arm_fir_interpolate_f32.c **** 
 508:Source\FilteringFunctions/arm_fir_interpolate_f32.c ****       /* Initialize state pointer */
 509:Source\FilteringFunctions/arm_fir_interpolate_f32.c ****       ptr1 = pState;
  93              		.loc 1 509 0
  94 005c 7B6B     		ldr	r3, [r7, #52]
  95 005e FB62     		str	r3, [r7, #44]
 510:Source\FilteringFunctions/arm_fir_interpolate_f32.c **** 
 511:Source\FilteringFunctions/arm_fir_interpolate_f32.c ****       /* Initialize coefficient pointer */
 512:Source\FilteringFunctions/arm_fir_interpolate_f32.c ****       ptr2 = pCoeffs + (i - 1u);
  96              		.loc 1 512 0
  97 0060 3B6A     		ldr	r3, [r7, #32]
  98 0062 334A     		ldr	r2, .L10
  99 0064 9446     		mov	ip, r2
 100 0066 6344     		add	r3, r3, ip
 101 0068 9B00     		lsl	r3, r3, #2
 102 006a 7A69     		ldr	r2, [r7, #20]
 103 006c D318     		add	r3, r2, r3
 104 006e BB62     		str	r3, [r7, #40]
 513:Source\FilteringFunctions/arm_fir_interpolate_f32.c **** 
 514:Source\FilteringFunctions/arm_fir_interpolate_f32.c ****       /* Loop over the polyPhase length */
 515:Source\FilteringFunctions/arm_fir_interpolate_f32.c ****       tapCnt = phaseLen;
 105              		.loc 1 515 0
 106 0070 1A23     		mov	r3, #26
 107 0072 FB18     		add	r3, r7, r3
 108 0074 1222     		mov	r2, #18
 109 0076 BA18     		add	r2, r7, r2
 110 0078 1288     		ldrh	r2, [r2]
 111 007a 1A80     		strh	r2, [r3]
 516:Source\FilteringFunctions/arm_fir_interpolate_f32.c **** 
ARM GAS  C:\Users\fneves\AppData\Local\Temp\ccyXw0na.s 			page 12


 517:Source\FilteringFunctions/arm_fir_interpolate_f32.c ****       while (tapCnt > 0u)
 112              		.loc 1 517 0
 113 007c 1DE0     		b	.L4
 114              	.L5:
 518:Source\FilteringFunctions/arm_fir_interpolate_f32.c ****       {
 519:Source\FilteringFunctions/arm_fir_interpolate_f32.c ****         /* Perform the multiply-accumulate */
 520:Source\FilteringFunctions/arm_fir_interpolate_f32.c ****         sum += *ptr1++ * *ptr2;
 115              		.loc 1 520 0
 116 007e FB6A     		ldr	r3, [r7, #44]
 117 0080 1A1D     		add	r2, r3, #4
 118 0082 FA62     		str	r2, [r7, #44]
 119 0084 1A68     		ldr	r2, [r3]
 120 0086 BB6A     		ldr	r3, [r7, #40]
 121 0088 1B68     		ldr	r3, [r3]
 122 008a 101C     		add	r0, r2, #0
 123 008c 191C     		add	r1, r3, #0
 124 008e FFF7FEFF 		bl	__aeabi_fmul
 125 0092 031C     		add	r3, r0, #0
 126 0094 786A     		ldr	r0, [r7, #36]
 127 0096 191C     		add	r1, r3, #0
 128 0098 FFF7FEFF 		bl	__aeabi_fadd
 129 009c 031C     		add	r3, r0, #0
 130 009e 7B62     		str	r3, [r7, #36]
 521:Source\FilteringFunctions/arm_fir_interpolate_f32.c **** 
 522:Source\FilteringFunctions/arm_fir_interpolate_f32.c ****         /* Increment the coefficient pointer by interpolation factor times. */
 523:Source\FilteringFunctions/arm_fir_interpolate_f32.c ****         ptr2 += S->L;
 131              		.loc 1 523 0
 132 00a0 FB68     		ldr	r3, [r7, #12]
 133 00a2 1B78     		ldrb	r3, [r3]
 134 00a4 9B00     		lsl	r3, r3, #2
 135 00a6 BA6A     		ldr	r2, [r7, #40]
 136 00a8 D318     		add	r3, r2, r3
 137 00aa BB62     		str	r3, [r7, #40]
 524:Source\FilteringFunctions/arm_fir_interpolate_f32.c **** 
 525:Source\FilteringFunctions/arm_fir_interpolate_f32.c ****         /* Decrement the loop counter */
 526:Source\FilteringFunctions/arm_fir_interpolate_f32.c ****         tapCnt--;
 138              		.loc 1 526 0
 139 00ac 1A23     		mov	r3, #26
 140 00ae FB18     		add	r3, r7, r3
 141 00b0 1A88     		ldrh	r2, [r3]
 142 00b2 1A23     		mov	r3, #26
 143 00b4 FB18     		add	r3, r7, r3
 144 00b6 013A     		sub	r2, r2, #1
 145 00b8 1A80     		strh	r2, [r3]
 146              	.L4:
 517:Source\FilteringFunctions/arm_fir_interpolate_f32.c ****       {
 147              		.loc 1 517 0
 148 00ba 1A23     		mov	r3, #26
 149 00bc FB18     		add	r3, r7, r3
 150 00be 1B88     		ldrh	r3, [r3]
 151 00c0 002B     		cmp	r3, #0
 152 00c2 DCD1     		bne	.L5
 527:Source\FilteringFunctions/arm_fir_interpolate_f32.c ****       }
 528:Source\FilteringFunctions/arm_fir_interpolate_f32.c **** 
 529:Source\FilteringFunctions/arm_fir_interpolate_f32.c ****       /* The result is in the accumulator, store in the destination buffer. */
 530:Source\FilteringFunctions/arm_fir_interpolate_f32.c ****       *pDst++ = sum;
 153              		.loc 1 530 0
ARM GAS  C:\Users\fneves\AppData\Local\Temp\ccyXw0na.s 			page 13


 154 00c4 7B68     		ldr	r3, [r7, #4]
 155 00c6 1A1D     		add	r2, r3, #4
 156 00c8 7A60     		str	r2, [r7, #4]
 157 00ca 7A6A     		ldr	r2, [r7, #36]
 158 00cc 1A60     		str	r2, [r3]
 531:Source\FilteringFunctions/arm_fir_interpolate_f32.c **** 
 532:Source\FilteringFunctions/arm_fir_interpolate_f32.c ****       /* Decrement the loop counter */
 533:Source\FilteringFunctions/arm_fir_interpolate_f32.c ****       i--;
 159              		.loc 1 533 0
 160 00ce 3B6A     		ldr	r3, [r7, #32]
 161 00d0 013B     		sub	r3, r3, #1
 162 00d2 3B62     		str	r3, [r7, #32]
 163              	.L3:
 503:Source\FilteringFunctions/arm_fir_interpolate_f32.c ****     {
 164              		.loc 1 503 0
 165 00d4 3B6A     		ldr	r3, [r7, #32]
 166 00d6 002B     		cmp	r3, #0
 167 00d8 BED1     		bne	.L6
 534:Source\FilteringFunctions/arm_fir_interpolate_f32.c ****     }
 535:Source\FilteringFunctions/arm_fir_interpolate_f32.c **** 
 536:Source\FilteringFunctions/arm_fir_interpolate_f32.c ****     /* Advance the state pointer by 1
 537:Source\FilteringFunctions/arm_fir_interpolate_f32.c ****      * to process the next group of interpolation factor number samples */
 538:Source\FilteringFunctions/arm_fir_interpolate_f32.c ****     pState = pState + 1;
 168              		.loc 1 538 0
 169 00da 7B6B     		ldr	r3, [r7, #52]
 170 00dc 0433     		add	r3, r3, #4
 171 00de 7B63     		str	r3, [r7, #52]
 539:Source\FilteringFunctions/arm_fir_interpolate_f32.c **** 
 540:Source\FilteringFunctions/arm_fir_interpolate_f32.c ****     /* Decrement the loop counter */
 541:Source\FilteringFunctions/arm_fir_interpolate_f32.c ****     blkCnt--;
 172              		.loc 1 541 0
 173 00e0 FB69     		ldr	r3, [r7, #28]
 174 00e2 013B     		sub	r3, r3, #1
 175 00e4 FB61     		str	r3, [r7, #28]
 176              	.L2:
 495:Source\FilteringFunctions/arm_fir_interpolate_f32.c ****   {
 177              		.loc 1 495 0
 178 00e6 FB69     		ldr	r3, [r7, #28]
 179 00e8 002B     		cmp	r3, #0
 180 00ea A9D1     		bne	.L7
 542:Source\FilteringFunctions/arm_fir_interpolate_f32.c ****   }
 543:Source\FilteringFunctions/arm_fir_interpolate_f32.c **** 
 544:Source\FilteringFunctions/arm_fir_interpolate_f32.c ****   /* Processing is complete.
 545:Source\FilteringFunctions/arm_fir_interpolate_f32.c ****    ** Now copy the last phaseLen - 1 samples to the start of the state buffer.
 546:Source\FilteringFunctions/arm_fir_interpolate_f32.c ****    ** This prepares the state buffer for the next function call. */
 547:Source\FilteringFunctions/arm_fir_interpolate_f32.c **** 
 548:Source\FilteringFunctions/arm_fir_interpolate_f32.c ****   /* Points to the start of the state buffer */
 549:Source\FilteringFunctions/arm_fir_interpolate_f32.c ****   pStateCurnt = S->pState;
 181              		.loc 1 549 0
 182 00ec FB68     		ldr	r3, [r7, #12]
 183 00ee 9B68     		ldr	r3, [r3, #8]
 184 00f0 3B63     		str	r3, [r7, #48]
 550:Source\FilteringFunctions/arm_fir_interpolate_f32.c **** 
 551:Source\FilteringFunctions/arm_fir_interpolate_f32.c ****   tapCnt = phaseLen - 1u;
 185              		.loc 1 551 0
 186 00f2 1A23     		mov	r3, #26
 187 00f4 FB18     		add	r3, r7, r3
ARM GAS  C:\Users\fneves\AppData\Local\Temp\ccyXw0na.s 			page 14


 188 00f6 1222     		mov	r2, #18
 189 00f8 BA18     		add	r2, r7, r2
 190 00fa 1288     		ldrh	r2, [r2]
 191 00fc 013A     		sub	r2, r2, #1
 192 00fe 1A80     		strh	r2, [r3]
 552:Source\FilteringFunctions/arm_fir_interpolate_f32.c **** 
 553:Source\FilteringFunctions/arm_fir_interpolate_f32.c ****   while (tapCnt > 0u)
 193              		.loc 1 553 0
 194 0100 0EE0     		b	.L8
 195              	.L9:
 554:Source\FilteringFunctions/arm_fir_interpolate_f32.c ****   {
 555:Source\FilteringFunctions/arm_fir_interpolate_f32.c ****     *pStateCurnt++ = *pState++;
 196              		.loc 1 555 0
 197 0102 3B6B     		ldr	r3, [r7, #48]
 198 0104 1A1D     		add	r2, r3, #4
 199 0106 3A63     		str	r2, [r7, #48]
 200 0108 7A6B     		ldr	r2, [r7, #52]
 201 010a 111D     		add	r1, r2, #4
 202 010c 7963     		str	r1, [r7, #52]
 203 010e 1268     		ldr	r2, [r2]
 204 0110 1A60     		str	r2, [r3]
 556:Source\FilteringFunctions/arm_fir_interpolate_f32.c **** 
 557:Source\FilteringFunctions/arm_fir_interpolate_f32.c ****     /* Decrement the loop counter */
 558:Source\FilteringFunctions/arm_fir_interpolate_f32.c ****     tapCnt--;
 205              		.loc 1 558 0
 206 0112 1A23     		mov	r3, #26
 207 0114 FB18     		add	r3, r7, r3
 208 0116 1A88     		ldrh	r2, [r3]
 209 0118 1A23     		mov	r3, #26
 210 011a FB18     		add	r3, r7, r3
 211 011c 013A     		sub	r2, r2, #1
 212 011e 1A80     		strh	r2, [r3]
 213              	.L8:
 553:Source\FilteringFunctions/arm_fir_interpolate_f32.c ****   {
 214              		.loc 1 553 0
 215 0120 1A23     		mov	r3, #26
 216 0122 FB18     		add	r3, r7, r3
 217 0124 1B88     		ldrh	r3, [r3]
 218 0126 002B     		cmp	r3, #0
 219 0128 EBD1     		bne	.L9
 559:Source\FilteringFunctions/arm_fir_interpolate_f32.c ****   }
 560:Source\FilteringFunctions/arm_fir_interpolate_f32.c **** 
 561:Source\FilteringFunctions/arm_fir_interpolate_f32.c **** }
 220              		.loc 1 561 0
 221 012a BD46     		mov	sp, r7
 222 012c 0EB0     		add	sp, sp, #56
 223              		@ sp needed
 224 012e 80BD     		pop	{r7, pc}
 225              	.L11:
 226              		.align	2
 227              	.L10:
 228 0130 FFFFFF3F 		.word	1073741823
 229              		.cfi_endproc
 230              	.LFE82:
 231              		.size	arm_fir_interpolate_f32, .-arm_fir_interpolate_f32
 232              		.text
 233              	.Letext0:
ARM GAS  C:\Users\fneves\AppData\Local\Temp\ccyXw0na.s 			page 15


 234              		.file 2 "c:\\program files (x86)\\cypress\\psoc creator\\4.0\\psoc creator\\import\\gnu\\arm\\4.9.
 235              		.file 3 "c:\\program files (x86)\\cypress\\psoc creator\\4.0\\psoc creator\\import\\gnu\\arm\\4.9.
 236              		.file 4 ".\\Include/arm_math.h"