ARM GAS  C:\Users\fneves\AppData\Local\Temp\cc7ndVOj.s 			page 1


   1              		.cpu cortex-m0plus
   2              		.fpu softvfp
   3              		.eabi_attribute 20, 1
   4              		.eabi_attribute 21, 1
   5              		.eabi_attribute 23, 3
   6              		.eabi_attribute 24, 1
   7              		.eabi_attribute 25, 1
   8              		.eabi_attribute 26, 1
   9              		.eabi_attribute 30, 6
  10              		.eabi_attribute 34, 0
  11              		.eabi_attribute 18, 4
  12              		.code	16
  13              		.file	"arm_cos_q31.c"
  14              		.text
  15              	.Ltext0:
  16              		.cfi_sections	.debug_frame
  17              		.global	__aeabi_lmul
  18              		.section	.text.arm_cos_q31,"ax",%progbits
  19              		.align	2
  20              		.global	arm_cos_q31
  21              		.code	16
  22              		.thumb_func
  23              		.type	arm_cos_q31, %function
  24              	arm_cos_q31:
  25              	.LFB82:
  26              		.file 1 "Source\\FastMathFunctions\\arm_cos_q31.c"
   1:Source\FastMathFunctions/arm_cos_q31.c **** /* ----------------------------------------------------------------------
   2:Source\FastMathFunctions/arm_cos_q31.c ****  * Project:      CMSIS DSP Library
   3:Source\FastMathFunctions/arm_cos_q31.c ****  * Title:        arm_cos_q31.c
   4:Source\FastMathFunctions/arm_cos_q31.c ****  * Description:  Fast cosine calculation for Q31 values
   5:Source\FastMathFunctions/arm_cos_q31.c ****  *
   6:Source\FastMathFunctions/arm_cos_q31.c ****  * $Date:        27. January 2017
   7:Source\FastMathFunctions/arm_cos_q31.c ****  * $Revision:    V.1.5.1
   8:Source\FastMathFunctions/arm_cos_q31.c ****  *
   9:Source\FastMathFunctions/arm_cos_q31.c ****  * Target Processor: Cortex-M cores
  10:Source\FastMathFunctions/arm_cos_q31.c ****  * -------------------------------------------------------------------- */
  11:Source\FastMathFunctions/arm_cos_q31.c **** /*
  12:Source\FastMathFunctions/arm_cos_q31.c ****  * Copyright (C) 2010-2017 ARM Limited or its affiliates. All rights reserved.
  13:Source\FastMathFunctions/arm_cos_q31.c ****  *
  14:Source\FastMathFunctions/arm_cos_q31.c ****  * SPDX-License-Identifier: Apache-2.0
  15:Source\FastMathFunctions/arm_cos_q31.c ****  *
  16:Source\FastMathFunctions/arm_cos_q31.c ****  * Licensed under the Apache License, Version 2.0 (the License); you may
  17:Source\FastMathFunctions/arm_cos_q31.c ****  * not use this file except in compliance with the License.
  18:Source\FastMathFunctions/arm_cos_q31.c ****  * You may obtain a copy of the License at
  19:Source\FastMathFunctions/arm_cos_q31.c ****  *
  20:Source\FastMathFunctions/arm_cos_q31.c ****  * www.apache.org/licenses/LICENSE-2.0
  21:Source\FastMathFunctions/arm_cos_q31.c ****  *
  22:Source\FastMathFunctions/arm_cos_q31.c ****  * Unless required by applicable law or agreed to in writing, software
  23:Source\FastMathFunctions/arm_cos_q31.c ****  * distributed under the License is distributed on an AS IS BASIS, WITHOUT
  24:Source\FastMathFunctions/arm_cos_q31.c ****  * WARRANTIES OR CONDITIONS OF ANY KIND, either express or implied.
  25:Source\FastMathFunctions/arm_cos_q31.c ****  * See the License for the specific language governing permissions and
  26:Source\FastMathFunctions/arm_cos_q31.c ****  * limitations under the License.
  27:Source\FastMathFunctions/arm_cos_q31.c ****  */
  28:Source\FastMathFunctions/arm_cos_q31.c **** 
  29:Source\FastMathFunctions/arm_cos_q31.c **** #include "arm_math.h"
  30:Source\FastMathFunctions/arm_cos_q31.c **** #include "arm_common_tables.h"
  31:Source\FastMathFunctions/arm_cos_q31.c **** 
ARM GAS  C:\Users\fneves\AppData\Local\Temp\cc7ndVOj.s 			page 2


  32:Source\FastMathFunctions/arm_cos_q31.c **** /**
  33:Source\FastMathFunctions/arm_cos_q31.c ****  * @ingroup groupFastMath
  34:Source\FastMathFunctions/arm_cos_q31.c ****  */
  35:Source\FastMathFunctions/arm_cos_q31.c **** 
  36:Source\FastMathFunctions/arm_cos_q31.c ****  /**
  37:Source\FastMathFunctions/arm_cos_q31.c ****  * @addtogroup cos
  38:Source\FastMathFunctions/arm_cos_q31.c ****  * @{
  39:Source\FastMathFunctions/arm_cos_q31.c ****  */
  40:Source\FastMathFunctions/arm_cos_q31.c **** 
  41:Source\FastMathFunctions/arm_cos_q31.c **** /**
  42:Source\FastMathFunctions/arm_cos_q31.c ****  * @brief Fast approximation to the trigonometric cosine function for Q31 data.
  43:Source\FastMathFunctions/arm_cos_q31.c ****  * @param[in] x Scaled input value in radians.
  44:Source\FastMathFunctions/arm_cos_q31.c ****  * @return  cos(x).
  45:Source\FastMathFunctions/arm_cos_q31.c ****  *
  46:Source\FastMathFunctions/arm_cos_q31.c ****  * The Q31 input value is in the range [0 +0.9999] and is mapped to a radian
  47:Source\FastMathFunctions/arm_cos_q31.c ****  * value in the range [0 2*pi).
  48:Source\FastMathFunctions/arm_cos_q31.c ****  */
  49:Source\FastMathFunctions/arm_cos_q31.c **** 
  50:Source\FastMathFunctions/arm_cos_q31.c **** q31_t arm_cos_q31(
  51:Source\FastMathFunctions/arm_cos_q31.c ****   q31_t x)
  52:Source\FastMathFunctions/arm_cos_q31.c **** {
  27              		.loc 1 52 0
  28              		.cfi_startproc
  29 0000 F0B5     		push	{r4, r5, r6, r7, lr}
  30              		.cfi_def_cfa_offset 20
  31              		.cfi_offset 4, -20
  32              		.cfi_offset 5, -16
  33              		.cfi_offset 6, -12
  34              		.cfi_offset 7, -8
  35              		.cfi_offset 14, -4
  36 0002 97B0     		sub	sp, sp, #92
  37              		.cfi_def_cfa_offset 112
  38 0004 00AF     		add	r7, sp, #0
  39              		.cfi_def_cfa_register 7
  40 0006 F863     		str	r0, [r7, #60]
  53:Source\FastMathFunctions/arm_cos_q31.c ****   q31_t cosVal;                                  /* Temporary variables for input, output */
  54:Source\FastMathFunctions/arm_cos_q31.c ****   int32_t index;                                 /* Index variables */
  55:Source\FastMathFunctions/arm_cos_q31.c ****   q31_t a, b;                                    /* Four nearest output values */
  56:Source\FastMathFunctions/arm_cos_q31.c ****   q31_t fract;                                   /* Temporary values for fractional values */
  57:Source\FastMathFunctions/arm_cos_q31.c **** 
  58:Source\FastMathFunctions/arm_cos_q31.c ****   /* add 0.25 (pi/2) to read sine table */
  59:Source\FastMathFunctions/arm_cos_q31.c ****   x = (uint32_t)x + 0x20000000;
  41              		.loc 1 59 0
  42 0008 FB6B     		ldr	r3, [r7, #60]
  43 000a 8022     		mov	r2, #128
  44 000c 9205     		lsl	r2, r2, #22
  45 000e 9446     		mov	ip, r2
  46 0010 6344     		add	r3, r3, ip
  47 0012 FB63     		str	r3, [r7, #60]
  60:Source\FastMathFunctions/arm_cos_q31.c ****   if (x < 0)
  48              		.loc 1 60 0
  49 0014 FB6B     		ldr	r3, [r7, #60]
  50 0016 002B     		cmp	r3, #0
  51 0018 05DA     		bge	.L2
  61:Source\FastMathFunctions/arm_cos_q31.c ****   {   /* convert negative numbers to corresponding positive ones */
  62:Source\FastMathFunctions/arm_cos_q31.c ****       x = (uint32_t)x + 0x80000000;
  52              		.loc 1 62 0
ARM GAS  C:\Users\fneves\AppData\Local\Temp\cc7ndVOj.s 			page 3


  53 001a FB6B     		ldr	r3, [r7, #60]
  54 001c 8022     		mov	r2, #128
  55 001e 1206     		lsl	r2, r2, #24
  56 0020 9446     		mov	ip, r2
  57 0022 6344     		add	r3, r3, ip
  58 0024 FB63     		str	r3, [r7, #60]
  59              	.L2:
  63:Source\FastMathFunctions/arm_cos_q31.c ****   }
  64:Source\FastMathFunctions/arm_cos_q31.c **** 
  65:Source\FastMathFunctions/arm_cos_q31.c ****   /* Calculate the nearest index */
  66:Source\FastMathFunctions/arm_cos_q31.c ****   index = (uint32_t)x >> FAST_MATH_Q31_SHIFT;
  60              		.loc 1 66 0
  61 0026 FB6B     		ldr	r3, [r7, #60]
  62 0028 9B0D     		lsr	r3, r3, #22
  63 002a 7B65     		str	r3, [r7, #84]
  67:Source\FastMathFunctions/arm_cos_q31.c **** 
  68:Source\FastMathFunctions/arm_cos_q31.c ****   /* Calculation of fractional value */
  69:Source\FastMathFunctions/arm_cos_q31.c ****   fract = (x - (index << FAST_MATH_Q31_SHIFT)) << 9;
  64              		.loc 1 69 0
  65 002c 7B6D     		ldr	r3, [r7, #84]
  66 002e 9A05     		lsl	r2, r3, #22
  67 0030 FB6B     		ldr	r3, [r7, #60]
  68 0032 9B1A     		sub	r3, r3, r2
  69 0034 5B02     		lsl	r3, r3, #9
  70 0036 3B65     		str	r3, [r7, #80]
  70:Source\FastMathFunctions/arm_cos_q31.c **** 
  71:Source\FastMathFunctions/arm_cos_q31.c ****   /* Read two nearest values of input value from the sin table */
  72:Source\FastMathFunctions/arm_cos_q31.c ****   a = sinTable_q31[index];
  71              		.loc 1 72 0
  72 0038 244A     		ldr	r2, .L4
  73 003a 7B6D     		ldr	r3, [r7, #84]
  74 003c 9B00     		lsl	r3, r3, #2
  75 003e 9B58     		ldr	r3, [r3, r2]
  76 0040 FB64     		str	r3, [r7, #76]
  73:Source\FastMathFunctions/arm_cos_q31.c ****   b = sinTable_q31[index+1];
  77              		.loc 1 73 0
  78 0042 7B6D     		ldr	r3, [r7, #84]
  79 0044 0133     		add	r3, r3, #1
  80 0046 214A     		ldr	r2, .L4
  81 0048 9B00     		lsl	r3, r3, #2
  82 004a 9B58     		ldr	r3, [r3, r2]
  83 004c BB64     		str	r3, [r7, #72]
  74:Source\FastMathFunctions/arm_cos_q31.c **** 
  75:Source\FastMathFunctions/arm_cos_q31.c ****   /* Linear interpolation process */
  76:Source\FastMathFunctions/arm_cos_q31.c ****   cosVal = (q63_t)(0x80000000-fract)*a >> 32;
  84              		.loc 1 76 0
  85 004e 3A6D     		ldr	r2, [r7, #80]
  86 0050 8023     		mov	r3, #128
  87 0052 1B06     		lsl	r3, r3, #24
  88 0054 9B1A     		sub	r3, r3, r2
  89 0056 3B63     		str	r3, [r7, #48]
  90 0058 0023     		mov	r3, #0
  91 005a 7B63     		str	r3, [r7, #52]
  92 005c FB6C     		ldr	r3, [r7, #76]
  93 005e BB62     		str	r3, [r7, #40]
  94 0060 DB17     		asr	r3, r3, #31
  95 0062 FB62     		str	r3, [r7, #44]
ARM GAS  C:\Users\fneves\AppData\Local\Temp\cc7ndVOj.s 			page 4


  96 0064 386B     		ldr	r0, [r7, #48]
  97 0066 796B     		ldr	r1, [r7, #52]
  98 0068 BA6A     		ldr	r2, [r7, #40]
  99 006a FB6A     		ldr	r3, [r7, #44]
 100 006c FFF7FEFF 		bl	__aeabi_lmul
 101 0070 031C     		mov	r3, r0
 102 0072 0C1C     		mov	r4, r1
 103 0074 2200     		asr	r2, r4, #0
 104 0076 3A62     		str	r2, [r7, #32]
 105 0078 E317     		asr	r3, r4, #31
 106 007a 7B62     		str	r3, [r7, #36]
 107 007c 3B6A     		ldr	r3, [r7, #32]
 108 007e 7B64     		str	r3, [r7, #68]
  77:Source\FastMathFunctions/arm_cos_q31.c ****   cosVal = (q31_t)((((q63_t)cosVal << 32) + ((q63_t)fract*b)) >> 32);
 109              		.loc 1 77 0
 110 0080 7B6C     		ldr	r3, [r7, #68]
 111 0082 BB61     		str	r3, [r7, #24]
 112 0084 DB17     		asr	r3, r3, #31
 113 0086 FB61     		str	r3, [r7, #28]
 114 0088 BB69     		ldr	r3, [r7, #24]
 115 008a 1E00     		lsl	r6, r3, #0
 116 008c 0023     		mov	r3, #0
 117 008e 1D1C     		mov	r5, r3
 118 0090 3B6D     		ldr	r3, [r7, #80]
 119 0092 3B61     		str	r3, [r7, #16]
 120 0094 DB17     		asr	r3, r3, #31
 121 0096 7B61     		str	r3, [r7, #20]
 122 0098 BB6C     		ldr	r3, [r7, #72]
 123 009a BB60     		str	r3, [r7, #8]
 124 009c DB17     		asr	r3, r3, #31
 125 009e FB60     		str	r3, [r7, #12]
 126 00a0 3869     		ldr	r0, [r7, #16]
 127 00a2 7969     		ldr	r1, [r7, #20]
 128 00a4 BA68     		ldr	r2, [r7, #8]
 129 00a6 FB68     		ldr	r3, [r7, #12]
 130 00a8 FFF7FEFF 		bl	__aeabi_lmul
 131 00ac 031C     		mov	r3, r0
 132 00ae 0C1C     		mov	r4, r1
 133 00b0 5B19     		add	r3, r3, r5
 134 00b2 7441     		adc	r4, r4, r6
 135 00b4 2200     		asr	r2, r4, #0
 136 00b6 3A60     		str	r2, [r7]
 137 00b8 E317     		asr	r3, r4, #31
 138 00ba 7B60     		str	r3, [r7, #4]
 139 00bc 3B68     		ldr	r3, [r7]
 140 00be 7B64     		str	r3, [r7, #68]
  78:Source\FastMathFunctions/arm_cos_q31.c **** 
  79:Source\FastMathFunctions/arm_cos_q31.c ****   return cosVal << 1;
 141              		.loc 1 79 0
 142 00c0 7B6C     		ldr	r3, [r7, #68]
 143 00c2 5B00     		lsl	r3, r3, #1
  80:Source\FastMathFunctions/arm_cos_q31.c **** }
 144              		.loc 1 80 0
 145 00c4 181C     		mov	r0, r3
 146 00c6 BD46     		mov	sp, r7
 147 00c8 17B0     		add	sp, sp, #92
 148              		@ sp needed
ARM GAS  C:\Users\fneves\AppData\Local\Temp\cc7ndVOj.s 			page 5


 149 00ca F0BD     		pop	{r4, r5, r6, r7, pc}
 150              	.L5:
 151              		.align	2
 152              	.L4:
 153 00cc 00000000 		.word	sinTable_q31
 154              		.cfi_endproc
 155              	.LFE82:
 156              		.size	arm_cos_q31, .-arm_cos_q31
 157              		.text
 158              	.Letext0:
 159              		.file 2 "c:\\program files (x86)\\cypress\\psoc creator\\4.0\\psoc creator\\import\\gnu\\arm\\4.9.
 160              		.file 3 "c:\\program files (x86)\\cypress\\psoc creator\\4.0\\psoc creator\\import\\gnu\\arm\\4.9.
 161              		.file 4 ".\\Include/arm_math.h"
 162              		.file 5 ".\\Include/arm_common_tables.h"