ARM GAS  C:\Users\fneves\AppData\Local\Temp\ccUiFCKc.s 			page 1


   1              		.cpu cortex-m0plus
   2              		.fpu softvfp
   3              		.eabi_attribute 20, 1
   4              		.eabi_attribute 21, 1
   5              		.eabi_attribute 23, 3
   6              		.eabi_attribute 24, 1
   7              		.eabi_attribute 25, 1
   8              		.eabi_attribute 26, 1
   9              		.eabi_attribute 30, 6
  10              		.eabi_attribute 34, 0
  11              		.eabi_attribute 18, 4
  12              		.code	16
  13              		.file	"arm_cfft_q31.c"
  14              		.text
  15              	.Ltext0:
  16              		.cfi_sections	.debug_frame
  17              		.section	.text.arm_cfft_q31,"ax",%progbits
  18              		.align	2
  19              		.global	arm_cfft_q31
  20              		.code	16
  21              		.thumb_func
  22              		.type	arm_cfft_q31, %function
  23              	arm_cfft_q31:
  24              	.LFB82:
  25              		.file 1 "Source\\TransformFunctions\\arm_cfft_q31.c"
   1:Source\TransformFunctions/arm_cfft_q31.c **** /* ----------------------------------------------------------------------
   2:Source\TransformFunctions/arm_cfft_q31.c ****  * Project:      CMSIS DSP Library
   3:Source\TransformFunctions/arm_cfft_q31.c ****  * Title:        arm_cfft_q31.c
   4:Source\TransformFunctions/arm_cfft_q31.c ****  * Description:  Combined Radix Decimation in Frequency CFFT fixed point processing function
   5:Source\TransformFunctions/arm_cfft_q31.c ****  *
   6:Source\TransformFunctions/arm_cfft_q31.c ****  * $Date:        27. January 2017
   7:Source\TransformFunctions/arm_cfft_q31.c ****  * $Revision:    V.1.5.1
   8:Source\TransformFunctions/arm_cfft_q31.c ****  *
   9:Source\TransformFunctions/arm_cfft_q31.c ****  * Target Processor: Cortex-M cores
  10:Source\TransformFunctions/arm_cfft_q31.c ****  * -------------------------------------------------------------------- */
  11:Source\TransformFunctions/arm_cfft_q31.c **** /*
  12:Source\TransformFunctions/arm_cfft_q31.c ****  * Copyright (C) 2010-2017 ARM Limited or its affiliates. All rights reserved.
  13:Source\TransformFunctions/arm_cfft_q31.c ****  *
  14:Source\TransformFunctions/arm_cfft_q31.c ****  * SPDX-License-Identifier: Apache-2.0
  15:Source\TransformFunctions/arm_cfft_q31.c ****  *
  16:Source\TransformFunctions/arm_cfft_q31.c ****  * Licensed under the Apache License, Version 2.0 (the License); you may
  17:Source\TransformFunctions/arm_cfft_q31.c ****  * not use this file except in compliance with the License.
  18:Source\TransformFunctions/arm_cfft_q31.c ****  * You may obtain a copy of the License at
  19:Source\TransformFunctions/arm_cfft_q31.c ****  *
  20:Source\TransformFunctions/arm_cfft_q31.c ****  * www.apache.org/licenses/LICENSE-2.0
  21:Source\TransformFunctions/arm_cfft_q31.c ****  *
  22:Source\TransformFunctions/arm_cfft_q31.c ****  * Unless required by applicable law or agreed to in writing, software
  23:Source\TransformFunctions/arm_cfft_q31.c ****  * distributed under the License is distributed on an AS IS BASIS, WITHOUT
  24:Source\TransformFunctions/arm_cfft_q31.c ****  * WARRANTIES OR CONDITIONS OF ANY KIND, either express or implied.
  25:Source\TransformFunctions/arm_cfft_q31.c ****  * See the License for the specific language governing permissions and
  26:Source\TransformFunctions/arm_cfft_q31.c ****  * limitations under the License.
  27:Source\TransformFunctions/arm_cfft_q31.c ****  */
  28:Source\TransformFunctions/arm_cfft_q31.c **** 
  29:Source\TransformFunctions/arm_cfft_q31.c **** #include "arm_math.h"
  30:Source\TransformFunctions/arm_cfft_q31.c **** 
  31:Source\TransformFunctions/arm_cfft_q31.c **** extern void arm_radix4_butterfly_q31(
  32:Source\TransformFunctions/arm_cfft_q31.c ****     q31_t * pSrc,
ARM GAS  C:\Users\fneves\AppData\Local\Temp\ccUiFCKc.s 			page 2


  33:Source\TransformFunctions/arm_cfft_q31.c ****     uint32_t fftLen,
  34:Source\TransformFunctions/arm_cfft_q31.c ****     q31_t * pCoef,
  35:Source\TransformFunctions/arm_cfft_q31.c ****     uint32_t twidCoefModifier);
  36:Source\TransformFunctions/arm_cfft_q31.c **** 
  37:Source\TransformFunctions/arm_cfft_q31.c **** extern void arm_radix4_butterfly_inverse_q31(
  38:Source\TransformFunctions/arm_cfft_q31.c ****     q31_t * pSrc,
  39:Source\TransformFunctions/arm_cfft_q31.c ****     uint32_t fftLen,
  40:Source\TransformFunctions/arm_cfft_q31.c ****     q31_t * pCoef,
  41:Source\TransformFunctions/arm_cfft_q31.c ****     uint32_t twidCoefModifier);
  42:Source\TransformFunctions/arm_cfft_q31.c **** 
  43:Source\TransformFunctions/arm_cfft_q31.c **** extern void arm_bitreversal_32(
  44:Source\TransformFunctions/arm_cfft_q31.c ****     uint32_t * pSrc,
  45:Source\TransformFunctions/arm_cfft_q31.c ****     const uint16_t bitRevLen,
  46:Source\TransformFunctions/arm_cfft_q31.c ****     const uint16_t * pBitRevTable);
  47:Source\TransformFunctions/arm_cfft_q31.c **** 
  48:Source\TransformFunctions/arm_cfft_q31.c **** void arm_cfft_radix4by2_q31(
  49:Source\TransformFunctions/arm_cfft_q31.c ****     q31_t * pSrc,
  50:Source\TransformFunctions/arm_cfft_q31.c ****     uint32_t fftLen,
  51:Source\TransformFunctions/arm_cfft_q31.c ****     const q31_t * pCoef);
  52:Source\TransformFunctions/arm_cfft_q31.c **** 
  53:Source\TransformFunctions/arm_cfft_q31.c **** void arm_cfft_radix4by2_inverse_q31(
  54:Source\TransformFunctions/arm_cfft_q31.c ****     q31_t * pSrc,
  55:Source\TransformFunctions/arm_cfft_q31.c ****     uint32_t fftLen,
  56:Source\TransformFunctions/arm_cfft_q31.c ****     const q31_t * pCoef);
  57:Source\TransformFunctions/arm_cfft_q31.c **** 
  58:Source\TransformFunctions/arm_cfft_q31.c **** /**
  59:Source\TransformFunctions/arm_cfft_q31.c **** * @ingroup groupTransforms
  60:Source\TransformFunctions/arm_cfft_q31.c **** */
  61:Source\TransformFunctions/arm_cfft_q31.c **** 
  62:Source\TransformFunctions/arm_cfft_q31.c **** /**
  63:Source\TransformFunctions/arm_cfft_q31.c **** * @addtogroup ComplexFFT
  64:Source\TransformFunctions/arm_cfft_q31.c **** * @{
  65:Source\TransformFunctions/arm_cfft_q31.c **** */
  66:Source\TransformFunctions/arm_cfft_q31.c **** 
  67:Source\TransformFunctions/arm_cfft_q31.c **** /**
  68:Source\TransformFunctions/arm_cfft_q31.c **** * @details
  69:Source\TransformFunctions/arm_cfft_q31.c **** * @brief       Processing function for the fixed-point complex FFT in Q31 format.
  70:Source\TransformFunctions/arm_cfft_q31.c **** * @param[in]      *S    points to an instance of the fixed-point CFFT structure.
  71:Source\TransformFunctions/arm_cfft_q31.c **** * @param[in, out] *p1   points to the complex data buffer of size <code>2*fftLen</code>. Processing
  72:Source\TransformFunctions/arm_cfft_q31.c **** * @param[in]     ifftFlag       flag that selects forward (ifftFlag=0) or inverse (ifftFlag=1) tran
  73:Source\TransformFunctions/arm_cfft_q31.c **** * @param[in]     bitReverseFlag flag that enables (bitReverseFlag=1) or disables (bitReverseFlag=0)
  74:Source\TransformFunctions/arm_cfft_q31.c **** * @return none.
  75:Source\TransformFunctions/arm_cfft_q31.c **** */
  76:Source\TransformFunctions/arm_cfft_q31.c **** 
  77:Source\TransformFunctions/arm_cfft_q31.c **** void arm_cfft_q31(
  78:Source\TransformFunctions/arm_cfft_q31.c ****     const arm_cfft_instance_q31 * S,
  79:Source\TransformFunctions/arm_cfft_q31.c ****     q31_t * p1,
  80:Source\TransformFunctions/arm_cfft_q31.c ****     uint8_t ifftFlag,
  81:Source\TransformFunctions/arm_cfft_q31.c ****     uint8_t bitReverseFlag)
  82:Source\TransformFunctions/arm_cfft_q31.c **** {
  26              		.loc 1 82 0
  27              		.cfi_startproc
  28 0000 80B5     		push	{r7, lr}
  29              		.cfi_def_cfa_offset 8
  30              		.cfi_offset 7, -8
  31              		.cfi_offset 14, -4
  32 0002 86B0     		sub	sp, sp, #24
ARM GAS  C:\Users\fneves\AppData\Local\Temp\ccUiFCKc.s 			page 3


  33              		.cfi_def_cfa_offset 32
  34 0004 00AF     		add	r7, sp, #0
  35              		.cfi_def_cfa_register 7
  36 0006 F860     		str	r0, [r7, #12]
  37 0008 B960     		str	r1, [r7, #8]
  38 000a 191C     		mov	r1, r3
  39 000c FB1D     		add	r3, r7, #7
  40 000e 1A70     		strb	r2, [r3]
  41 0010 BB1D     		add	r3, r7, #6
  42 0012 0A1C     		add	r2, r1, #0
  43 0014 1A70     		strb	r2, [r3]
  83:Source\TransformFunctions/arm_cfft_q31.c ****     uint32_t L = S->fftLen;
  44              		.loc 1 83 0
  45 0016 FB68     		ldr	r3, [r7, #12]
  46 0018 1B88     		ldrh	r3, [r3]
  47 001a 7B61     		str	r3, [r7, #20]
  84:Source\TransformFunctions/arm_cfft_q31.c **** 
  85:Source\TransformFunctions/arm_cfft_q31.c ****     if (ifftFlag == 1u)
  48              		.loc 1 85 0
  49 001c FB1D     		add	r3, r7, #7
  50 001e 1B78     		ldrb	r3, [r3]
  51 0020 012B     		cmp	r3, #1
  52 0022 3FD1     		bne	.L2
  86:Source\TransformFunctions/arm_cfft_q31.c ****     {
  87:Source\TransformFunctions/arm_cfft_q31.c ****         switch (L)
  53              		.loc 1 87 0
  54 0024 7B69     		ldr	r3, [r7, #20]
  55 0026 8022     		mov	r2, #128
  56 0028 5200     		lsl	r2, r2, #1
  57 002a 9342     		cmp	r3, r2
  58 002c 24D0     		beq	.L4
  59 002e 8022     		mov	r2, #128
  60 0030 5200     		lsl	r2, r2, #1
  61 0032 9342     		cmp	r3, r2
  62 0034 0AD8     		bhi	.L5
  63 0036 202B     		cmp	r3, #32
  64 0038 29D0     		beq	.L6
  65 003a 02D8     		bhi	.L7
  66 003c 102B     		cmp	r3, #16
  67 003e 1BD0     		beq	.L4
  68 0040 6EE0     		b	.L9
  69              	.L7:
  70 0042 402B     		cmp	r3, #64
  71 0044 18D0     		beq	.L4
  72 0046 802B     		cmp	r3, #128
  73 0048 21D0     		beq	.L6
  74 004a 69E0     		b	.L9
  75              	.L5:
  76 004c 8022     		mov	r2, #128
  77 004e D200     		lsl	r2, r2, #3
  78 0050 9342     		cmp	r3, r2
  79 0052 11D0     		beq	.L4
  80 0054 8022     		mov	r2, #128
  81 0056 D200     		lsl	r2, r2, #3
  82 0058 9342     		cmp	r3, r2
  83 005a 04D8     		bhi	.L8
  84 005c 8022     		mov	r2, #128
ARM GAS  C:\Users\fneves\AppData\Local\Temp\ccUiFCKc.s 			page 4


  85 005e 9200     		lsl	r2, r2, #2
  86 0060 9342     		cmp	r3, r2
  87 0062 14D0     		beq	.L6
  88 0064 5CE0     		b	.L9
  89              	.L8:
  90 0066 8022     		mov	r2, #128
  91 0068 1201     		lsl	r2, r2, #4
  92 006a 9342     		cmp	r3, r2
  93 006c 0FD0     		beq	.L6
  94 006e 8022     		mov	r2, #128
  95 0070 5201     		lsl	r2, r2, #5
  96 0072 9342     		cmp	r3, r2
  97 0074 00D0     		beq	.L4
  98 0076 53E0     		b	.L9
  99              	.L4:
  88:Source\TransformFunctions/arm_cfft_q31.c ****         {
  89:Source\TransformFunctions/arm_cfft_q31.c ****         case 16:
  90:Source\TransformFunctions/arm_cfft_q31.c ****         case 64:
  91:Source\TransformFunctions/arm_cfft_q31.c ****         case 256:
  92:Source\TransformFunctions/arm_cfft_q31.c ****         case 1024:
  93:Source\TransformFunctions/arm_cfft_q31.c ****         case 4096:
  94:Source\TransformFunctions/arm_cfft_q31.c ****             arm_radix4_butterfly_inverse_q31  ( p1, L, (q31_t*)S->pTwiddle, 1 );
 100              		.loc 1 94 0
 101 0078 FB68     		ldr	r3, [r7, #12]
 102 007a 5B68     		ldr	r3, [r3, #4]
 103 007c B968     		ldr	r1, [r7, #8]
 104 007e 7A69     		ldr	r2, [r7, #20]
 105 0080 081C     		mov	r0, r1
 106 0082 111C     		mov	r1, r2
 107 0084 1A1C     		mov	r2, r3
 108 0086 0123     		mov	r3, #1
 109 0088 FFF7FEFF 		bl	arm_radix4_butterfly_inverse_q31
  95:Source\TransformFunctions/arm_cfft_q31.c ****             break;
 110              		.loc 1 95 0
 111 008c 09E0     		b	.L3
 112              	.L6:
  96:Source\TransformFunctions/arm_cfft_q31.c **** 
  97:Source\TransformFunctions/arm_cfft_q31.c ****         case 32:
  98:Source\TransformFunctions/arm_cfft_q31.c ****         case 128:
  99:Source\TransformFunctions/arm_cfft_q31.c ****         case 512:
 100:Source\TransformFunctions/arm_cfft_q31.c ****         case 2048:
 101:Source\TransformFunctions/arm_cfft_q31.c ****             arm_cfft_radix4by2_inverse_q31  ( p1, L, S->pTwiddle );
 113              		.loc 1 101 0
 114 008e FB68     		ldr	r3, [r7, #12]
 115 0090 5B68     		ldr	r3, [r3, #4]
 116 0092 B968     		ldr	r1, [r7, #8]
 117 0094 7A69     		ldr	r2, [r7, #20]
 118 0096 081C     		mov	r0, r1
 119 0098 111C     		mov	r1, r2
 120 009a 1A1C     		mov	r2, r3
 121 009c FFF7FEFF 		bl	arm_cfft_radix4by2_inverse_q31
 102:Source\TransformFunctions/arm_cfft_q31.c ****             break;
 122              		.loc 1 102 0
 123 00a0 C046     		mov	r8, r8
 124              	.L3:
 125 00a2 3DE0     		b	.L9
 126              	.L2:
ARM GAS  C:\Users\fneves\AppData\Local\Temp\ccUiFCKc.s 			page 5


 103:Source\TransformFunctions/arm_cfft_q31.c ****         }
 104:Source\TransformFunctions/arm_cfft_q31.c ****     }
 105:Source\TransformFunctions/arm_cfft_q31.c ****     else
 106:Source\TransformFunctions/arm_cfft_q31.c ****     {
 107:Source\TransformFunctions/arm_cfft_q31.c ****         switch (L)
 127              		.loc 1 107 0
 128 00a4 7B69     		ldr	r3, [r7, #20]
 129 00a6 8022     		mov	r2, #128
 130 00a8 5200     		lsl	r2, r2, #1
 131 00aa 9342     		cmp	r3, r2
 132 00ac 23D0     		beq	.L10
 133 00ae 8022     		mov	r2, #128
 134 00b0 5200     		lsl	r2, r2, #1
 135 00b2 9342     		cmp	r3, r2
 136 00b4 0AD8     		bhi	.L11
 137 00b6 202B     		cmp	r3, #32
 138 00b8 28D0     		beq	.L12
 139 00ba 02D8     		bhi	.L13
 140 00bc 102B     		cmp	r3, #16
 141 00be 1AD0     		beq	.L10
 142 00c0 2EE0     		b	.L9
 143              	.L13:
 144 00c2 402B     		cmp	r3, #64
 145 00c4 17D0     		beq	.L10
 146 00c6 802B     		cmp	r3, #128
 147 00c8 20D0     		beq	.L12
 148 00ca 29E0     		b	.L9
 149              	.L11:
 150 00cc 8022     		mov	r2, #128
 151 00ce D200     		lsl	r2, r2, #3
 152 00d0 9342     		cmp	r3, r2
 153 00d2 10D0     		beq	.L10
 154 00d4 8022     		mov	r2, #128
 155 00d6 D200     		lsl	r2, r2, #3
 156 00d8 9342     		cmp	r3, r2
 157 00da 04D8     		bhi	.L14
 158 00dc 8022     		mov	r2, #128
 159 00de 9200     		lsl	r2, r2, #2
 160 00e0 9342     		cmp	r3, r2
 161 00e2 13D0     		beq	.L12
 162 00e4 1CE0     		b	.L9
 163              	.L14:
 164 00e6 8022     		mov	r2, #128
 165 00e8 1201     		lsl	r2, r2, #4
 166 00ea 9342     		cmp	r3, r2
 167 00ec 0ED0     		beq	.L12
 168 00ee 8022     		mov	r2, #128
 169 00f0 5201     		lsl	r2, r2, #5
 170 00f2 9342     		cmp	r3, r2
 171 00f4 14D1     		bne	.L9
 172              	.L10:
 108:Source\TransformFunctions/arm_cfft_q31.c ****         {
 109:Source\TransformFunctions/arm_cfft_q31.c ****         case 16:
 110:Source\TransformFunctions/arm_cfft_q31.c ****         case 64:
 111:Source\TransformFunctions/arm_cfft_q31.c ****         case 256:
 112:Source\TransformFunctions/arm_cfft_q31.c ****         case 1024:
 113:Source\TransformFunctions/arm_cfft_q31.c ****         case 4096:
ARM GAS  C:\Users\fneves\AppData\Local\Temp\ccUiFCKc.s 			page 6


 114:Source\TransformFunctions/arm_cfft_q31.c ****             arm_radix4_butterfly_q31  ( p1, L, (q31_t*)S->pTwiddle, 1 );
 173              		.loc 1 114 0
 174 00f6 FB68     		ldr	r3, [r7, #12]
 175 00f8 5B68     		ldr	r3, [r3, #4]
 176 00fa B968     		ldr	r1, [r7, #8]
 177 00fc 7A69     		ldr	r2, [r7, #20]
 178 00fe 081C     		mov	r0, r1
 179 0100 111C     		mov	r1, r2
 180 0102 1A1C     		mov	r2, r3
 181 0104 0123     		mov	r3, #1
 182 0106 FFF7FEFF 		bl	arm_radix4_butterfly_q31
 115:Source\TransformFunctions/arm_cfft_q31.c ****             break;
 183              		.loc 1 115 0
 184 010a 09E0     		b	.L9
 185              	.L12:
 116:Source\TransformFunctions/arm_cfft_q31.c **** 
 117:Source\TransformFunctions/arm_cfft_q31.c ****         case 32:
 118:Source\TransformFunctions/arm_cfft_q31.c ****         case 128:
 119:Source\TransformFunctions/arm_cfft_q31.c ****         case 512:
 120:Source\TransformFunctions/arm_cfft_q31.c ****         case 2048:
 121:Source\TransformFunctions/arm_cfft_q31.c ****             arm_cfft_radix4by2_q31  ( p1, L, S->pTwiddle );
 186              		.loc 1 121 0
 187 010c FB68     		ldr	r3, [r7, #12]
 188 010e 5B68     		ldr	r3, [r3, #4]
 189 0110 B968     		ldr	r1, [r7, #8]
 190 0112 7A69     		ldr	r2, [r7, #20]
 191 0114 081C     		mov	r0, r1
 192 0116 111C     		mov	r1, r2
 193 0118 1A1C     		mov	r2, r3
 194 011a FFF7FEFF 		bl	arm_cfft_radix4by2_q31
 122:Source\TransformFunctions/arm_cfft_q31.c ****             break;
 195              		.loc 1 122 0
 196 011e C046     		mov	r8, r8
 197              	.L9:
 123:Source\TransformFunctions/arm_cfft_q31.c ****         }
 124:Source\TransformFunctions/arm_cfft_q31.c ****     }
 125:Source\TransformFunctions/arm_cfft_q31.c **** 
 126:Source\TransformFunctions/arm_cfft_q31.c ****     if ( bitReverseFlag )
 198              		.loc 1 126 0
 199 0120 BB1D     		add	r3, r7, #6
 200 0122 1B78     		ldrb	r3, [r3]
 201 0124 002B     		cmp	r3, #0
 202 0126 09D0     		beq	.L1
 127:Source\TransformFunctions/arm_cfft_q31.c ****         arm_bitreversal_32((uint32_t*)p1,S->bitRevLength,S->pBitRevTable);
 203              		.loc 1 127 0
 204 0128 FB68     		ldr	r3, [r7, #12]
 205 012a 9A89     		ldrh	r2, [r3, #12]
 206 012c FB68     		ldr	r3, [r7, #12]
 207 012e 9B68     		ldr	r3, [r3, #8]
 208 0130 B968     		ldr	r1, [r7, #8]
 209 0132 081C     		mov	r0, r1
 210 0134 111C     		mov	r1, r2
 211 0136 1A1C     		mov	r2, r3
 212 0138 FFF7FEFF 		bl	arm_bitreversal_32
 213              	.L1:
 128:Source\TransformFunctions/arm_cfft_q31.c **** }
 214              		.loc 1 128 0
ARM GAS  C:\Users\fneves\AppData\Local\Temp\ccUiFCKc.s 			page 7


 215 013c BD46     		mov	sp, r7
 216 013e 06B0     		add	sp, sp, #24
 217              		@ sp needed
 218 0140 80BD     		pop	{r7, pc}
 219              		.cfi_endproc
 220              	.LFE82:
 221              		.size	arm_cfft_q31, .-arm_cfft_q31
 222              		.global	__aeabi_lmul
 223 0142 C046     		.section	.text.arm_cfft_radix4by2_q31,"ax",%progbits
 224              		.align	2
 225              		.global	arm_cfft_radix4by2_q31
 226              		.code	16
 227              		.thumb_func
 228              		.type	arm_cfft_radix4by2_q31, %function
 229              	arm_cfft_radix4by2_q31:
 230              	.LFB83:
 129:Source\TransformFunctions/arm_cfft_q31.c **** 
 130:Source\TransformFunctions/arm_cfft_q31.c **** /**
 131:Source\TransformFunctions/arm_cfft_q31.c **** * @} end of ComplexFFT group
 132:Source\TransformFunctions/arm_cfft_q31.c **** */
 133:Source\TransformFunctions/arm_cfft_q31.c **** 
 134:Source\TransformFunctions/arm_cfft_q31.c **** void arm_cfft_radix4by2_q31(
 135:Source\TransformFunctions/arm_cfft_q31.c ****     q31_t * pSrc,
 136:Source\TransformFunctions/arm_cfft_q31.c ****     uint32_t fftLen,
 137:Source\TransformFunctions/arm_cfft_q31.c ****     const q31_t * pCoef)
 138:Source\TransformFunctions/arm_cfft_q31.c **** {
 231              		.loc 1 138 0
 232              		.cfi_startproc
 233 0000 F0B5     		push	{r4, r5, r6, r7, lr}
 234              		.cfi_def_cfa_offset 20
 235              		.cfi_offset 4, -20
 236              		.cfi_offset 5, -16
 237              		.cfi_offset 6, -12
 238              		.cfi_offset 7, -8
 239              		.cfi_offset 14, -4
 240 0002 ADB0     		sub	sp, sp, #180
 241              		.cfi_def_cfa_offset 200
 242 0004 00AF     		add	r7, sp, #0
 243              		.cfi_def_cfa_register 7
 244 0006 8423     		mov	r3, #132
 245 0008 FB18     		add	r3, r7, r3
 246 000a 1860     		str	r0, [r3]
 247 000c 8023     		mov	r3, #128
 248 000e FB18     		add	r3, r7, r3
 249 0010 1960     		str	r1, [r3]
 250 0012 FA67     		str	r2, [r7, #124]
 139:Source\TransformFunctions/arm_cfft_q31.c ****     uint32_t i, l;
 140:Source\TransformFunctions/arm_cfft_q31.c ****     uint32_t n2, ia;
 141:Source\TransformFunctions/arm_cfft_q31.c ****     q31_t xt, yt, cosVal, sinVal;
 142:Source\TransformFunctions/arm_cfft_q31.c ****     q31_t p0, p1;
 143:Source\TransformFunctions/arm_cfft_q31.c **** 
 144:Source\TransformFunctions/arm_cfft_q31.c ****     n2 = fftLen >> 1;
 251              		.loc 1 144 0
 252 0014 8023     		mov	r3, #128
 253 0016 FB18     		add	r3, r7, r3
 254 0018 1B68     		ldr	r3, [r3]
 255 001a 5B08     		lsr	r3, r3, #1
ARM GAS  C:\Users\fneves\AppData\Local\Temp\ccUiFCKc.s 			page 8


 256 001c A422     		mov	r2, #164
 257 001e BA18     		add	r2, r7, r2
 258 0020 1360     		str	r3, [r2]
 145:Source\TransformFunctions/arm_cfft_q31.c ****     ia = 0;
 259              		.loc 1 145 0
 260 0022 0023     		mov	r3, #0
 261 0024 A822     		mov	r2, #168
 262 0026 BA18     		add	r2, r7, r2
 263 0028 1360     		str	r3, [r2]
 146:Source\TransformFunctions/arm_cfft_q31.c ****     for (i = 0; i < n2; i++)
 264              		.loc 1 146 0
 265 002a 0023     		mov	r3, #0
 266 002c AC22     		mov	r2, #172
 267 002e BA18     		add	r2, r7, r2
 268 0030 1360     		str	r3, [r2]
 269 0032 5DE1     		b	.L17
 270              	.L18:
 147:Source\TransformFunctions/arm_cfft_q31.c ****     {
 148:Source\TransformFunctions/arm_cfft_q31.c ****         cosVal = pCoef[2*ia];
 271              		.loc 1 148 0 discriminator 3
 272 0034 A823     		mov	r3, #168
 273 0036 FB18     		add	r3, r7, r3
 274 0038 1B68     		ldr	r3, [r3]
 275 003a DA00     		lsl	r2, r3, #3
 276 003c FB6F     		ldr	r3, [r7, #124]
 277 003e 9B18     		add	r3, r3, r2
 278 0040 1B68     		ldr	r3, [r3]
 279 0042 A022     		mov	r2, #160
 280 0044 BA18     		add	r2, r7, r2
 281 0046 1360     		str	r3, [r2]
 149:Source\TransformFunctions/arm_cfft_q31.c ****         sinVal = pCoef[2*ia + 1];
 282              		.loc 1 149 0 discriminator 3
 283 0048 A823     		mov	r3, #168
 284 004a FB18     		add	r3, r7, r3
 285 004c 1B68     		ldr	r3, [r3]
 286 004e DB00     		lsl	r3, r3, #3
 287 0050 1A1D     		add	r2, r3, #4
 288 0052 FB6F     		ldr	r3, [r7, #124]
 289 0054 9B18     		add	r3, r3, r2
 290 0056 1B68     		ldr	r3, [r3]
 291 0058 9C22     		mov	r2, #156
 292 005a BA18     		add	r2, r7, r2
 293 005c 1360     		str	r3, [r2]
 150:Source\TransformFunctions/arm_cfft_q31.c ****         ia++;
 294              		.loc 1 150 0 discriminator 3
 295 005e A823     		mov	r3, #168
 296 0060 FB18     		add	r3, r7, r3
 297 0062 1B68     		ldr	r3, [r3]
 298 0064 0133     		add	r3, r3, #1
 299 0066 A822     		mov	r2, #168
 300 0068 BA18     		add	r2, r7, r2
 301 006a 1360     		str	r3, [r2]
 151:Source\TransformFunctions/arm_cfft_q31.c **** 
 152:Source\TransformFunctions/arm_cfft_q31.c ****         l = i + n2;
 302              		.loc 1 152 0 discriminator 3
 303 006c AC23     		mov	r3, #172
 304 006e FB18     		add	r3, r7, r3
ARM GAS  C:\Users\fneves\AppData\Local\Temp\ccUiFCKc.s 			page 9


 305 0070 1A68     		ldr	r2, [r3]
 306 0072 A423     		mov	r3, #164
 307 0074 FB18     		add	r3, r7, r3
 308 0076 1B68     		ldr	r3, [r3]
 309 0078 D318     		add	r3, r2, r3
 310 007a 9822     		mov	r2, #152
 311 007c BA18     		add	r2, r7, r2
 312 007e 1360     		str	r3, [r2]
 153:Source\TransformFunctions/arm_cfft_q31.c ****         xt = (pSrc[2 * i] >> 2) - (pSrc[2 * l] >> 2);
 313              		.loc 1 153 0 discriminator 3
 314 0080 AC23     		mov	r3, #172
 315 0082 FB18     		add	r3, r7, r3
 316 0084 1B68     		ldr	r3, [r3]
 317 0086 DA00     		lsl	r2, r3, #3
 318 0088 8423     		mov	r3, #132
 319 008a FB18     		add	r3, r7, r3
 320 008c 1B68     		ldr	r3, [r3]
 321 008e 9B18     		add	r3, r3, r2
 322 0090 1B68     		ldr	r3, [r3]
 323 0092 9910     		asr	r1, r3, #2
 324 0094 9823     		mov	r3, #152
 325 0096 FB18     		add	r3, r7, r3
 326 0098 1B68     		ldr	r3, [r3]
 327 009a DA00     		lsl	r2, r3, #3
 328 009c 8423     		mov	r3, #132
 329 009e FB18     		add	r3, r7, r3
 330 00a0 1B68     		ldr	r3, [r3]
 331 00a2 9B18     		add	r3, r3, r2
 332 00a4 1B68     		ldr	r3, [r3]
 333 00a6 9B10     		asr	r3, r3, #2
 334 00a8 CB1A     		sub	r3, r1, r3
 335 00aa 9422     		mov	r2, #148
 336 00ac BA18     		add	r2, r7, r2
 337 00ae 1360     		str	r3, [r2]
 154:Source\TransformFunctions/arm_cfft_q31.c ****         pSrc[2 * i] = (pSrc[2 * i] >> 2) + (pSrc[2 * l] >> 2);
 338              		.loc 1 154 0 discriminator 3
 339 00b0 AC23     		mov	r3, #172
 340 00b2 FB18     		add	r3, r7, r3
 341 00b4 1B68     		ldr	r3, [r3]
 342 00b6 DA00     		lsl	r2, r3, #3
 343 00b8 8423     		mov	r3, #132
 344 00ba FB18     		add	r3, r7, r3
 345 00bc 1B68     		ldr	r3, [r3]
 346 00be 9818     		add	r0, r3, r2
 347 00c0 AC23     		mov	r3, #172
 348 00c2 FB18     		add	r3, r7, r3
 349 00c4 1B68     		ldr	r3, [r3]
 350 00c6 DA00     		lsl	r2, r3, #3
 351 00c8 8423     		mov	r3, #132
 352 00ca FB18     		add	r3, r7, r3
 353 00cc 1B68     		ldr	r3, [r3]
 354 00ce 9B18     		add	r3, r3, r2
 355 00d0 1B68     		ldr	r3, [r3]
 356 00d2 9910     		asr	r1, r3, #2
 357 00d4 9823     		mov	r3, #152
 358 00d6 FB18     		add	r3, r7, r3
 359 00d8 1B68     		ldr	r3, [r3]
ARM GAS  C:\Users\fneves\AppData\Local\Temp\ccUiFCKc.s 			page 10


 360 00da DA00     		lsl	r2, r3, #3
 361 00dc 8423     		mov	r3, #132
 362 00de FB18     		add	r3, r7, r3
 363 00e0 1B68     		ldr	r3, [r3]
 364 00e2 9B18     		add	r3, r3, r2
 365 00e4 1B68     		ldr	r3, [r3]
 366 00e6 9B10     		asr	r3, r3, #2
 367 00e8 CB18     		add	r3, r1, r3
 368 00ea 0360     		str	r3, [r0]
 155:Source\TransformFunctions/arm_cfft_q31.c **** 
 156:Source\TransformFunctions/arm_cfft_q31.c ****         yt = (pSrc[2 * i + 1] >> 2) - (pSrc[2 * l + 1] >> 2);
 369              		.loc 1 156 0 discriminator 3
 370 00ec AC23     		mov	r3, #172
 371 00ee FB18     		add	r3, r7, r3
 372 00f0 1B68     		ldr	r3, [r3]
 373 00f2 DB00     		lsl	r3, r3, #3
 374 00f4 1A1D     		add	r2, r3, #4
 375 00f6 8423     		mov	r3, #132
 376 00f8 FB18     		add	r3, r7, r3
 377 00fa 1B68     		ldr	r3, [r3]
 378 00fc 9B18     		add	r3, r3, r2
 379 00fe 1B68     		ldr	r3, [r3]
 380 0100 9910     		asr	r1, r3, #2
 381 0102 9823     		mov	r3, #152
 382 0104 FB18     		add	r3, r7, r3
 383 0106 1B68     		ldr	r3, [r3]
 384 0108 DB00     		lsl	r3, r3, #3
 385 010a 1A1D     		add	r2, r3, #4
 386 010c 8423     		mov	r3, #132
 387 010e FB18     		add	r3, r7, r3
 388 0110 1B68     		ldr	r3, [r3]
 389 0112 9B18     		add	r3, r3, r2
 390 0114 1B68     		ldr	r3, [r3]
 391 0116 9B10     		asr	r3, r3, #2
 392 0118 CB1A     		sub	r3, r1, r3
 393 011a 9022     		mov	r2, #144
 394 011c BA18     		add	r2, r7, r2
 395 011e 1360     		str	r3, [r2]
 157:Source\TransformFunctions/arm_cfft_q31.c ****         pSrc[2 * i + 1] = (pSrc[2 * l + 1] >> 2) + (pSrc[2 * i + 1] >> 2);
 396              		.loc 1 157 0 discriminator 3
 397 0120 AC23     		mov	r3, #172
 398 0122 FB18     		add	r3, r7, r3
 399 0124 1B68     		ldr	r3, [r3]
 400 0126 DB00     		lsl	r3, r3, #3
 401 0128 1A1D     		add	r2, r3, #4
 402 012a 8423     		mov	r3, #132
 403 012c FB18     		add	r3, r7, r3
 404 012e 1B68     		ldr	r3, [r3]
 405 0130 9818     		add	r0, r3, r2
 406 0132 9823     		mov	r3, #152
 407 0134 FB18     		add	r3, r7, r3
 408 0136 1B68     		ldr	r3, [r3]
 409 0138 DB00     		lsl	r3, r3, #3
 410 013a 1A1D     		add	r2, r3, #4
 411 013c 8423     		mov	r3, #132
 412 013e FB18     		add	r3, r7, r3
 413 0140 1B68     		ldr	r3, [r3]
ARM GAS  C:\Users\fneves\AppData\Local\Temp\ccUiFCKc.s 			page 11


 414 0142 9B18     		add	r3, r3, r2
 415 0144 1B68     		ldr	r3, [r3]
 416 0146 9910     		asr	r1, r3, #2
 417 0148 AC23     		mov	r3, #172
 418 014a FB18     		add	r3, r7, r3
 419 014c 1B68     		ldr	r3, [r3]
 420 014e DB00     		lsl	r3, r3, #3
 421 0150 1A1D     		add	r2, r3, #4
 422 0152 8423     		mov	r3, #132
 423 0154 FB18     		add	r3, r7, r3
 424 0156 1B68     		ldr	r3, [r3]
 425 0158 9B18     		add	r3, r3, r2
 426 015a 1B68     		ldr	r3, [r3]
 427 015c 9B10     		asr	r3, r3, #2
 428 015e CB18     		add	r3, r1, r3
 429 0160 0360     		str	r3, [r0]
 158:Source\TransformFunctions/arm_cfft_q31.c **** 
 159:Source\TransformFunctions/arm_cfft_q31.c ****         mult_32x32_keep32_R(p0, xt, cosVal);
 430              		.loc 1 159 0 discriminator 3
 431 0162 9423     		mov	r3, #148
 432 0164 FB18     		add	r3, r7, r3
 433 0166 1B68     		ldr	r3, [r3]
 434 0168 3B67     		str	r3, [r7, #112]
 435 016a DB17     		asr	r3, r3, #31
 436 016c 7B67     		str	r3, [r7, #116]
 437 016e A023     		mov	r3, #160
 438 0170 FB18     		add	r3, r7, r3
 439 0172 1B68     		ldr	r3, [r3]
 440 0174 BB66     		str	r3, [r7, #104]
 441 0176 DB17     		asr	r3, r3, #31
 442 0178 FB66     		str	r3, [r7, #108]
 443 017a 386F     		ldr	r0, [r7, #112]
 444 017c 796F     		ldr	r1, [r7, #116]
 445 017e BA6E     		ldr	r2, [r7, #104]
 446 0180 FB6E     		ldr	r3, [r7, #108]
 447 0182 FFF7FEFF 		bl	__aeabi_lmul
 448 0186 031C     		mov	r3, r0
 449 0188 0C1C     		mov	r4, r1
 450 018a 191C     		mov	r1, r3
 451 018c 221C     		mov	r2, r4
 452 018e 8023     		mov	r3, #128
 453 0190 1B06     		lsl	r3, r3, #24
 454 0192 0024     		mov	r4, #0
 455 0194 5B18     		add	r3, r3, r1
 456 0196 5441     		adc	r4, r4, r2
 457 0198 2200     		asr	r2, r4, #0
 458 019a 3A66     		str	r2, [r7, #96]
 459 019c E317     		asr	r3, r4, #31
 460 019e 7B66     		str	r3, [r7, #100]
 461 01a0 3B6E     		ldr	r3, [r7, #96]
 462 01a2 8C22     		mov	r2, #140
 463 01a4 BA18     		add	r2, r7, r2
 464 01a6 1360     		str	r3, [r2]
 160:Source\TransformFunctions/arm_cfft_q31.c ****         mult_32x32_keep32_R(p1, yt, cosVal);
 465              		.loc 1 160 0 discriminator 3
 466 01a8 9023     		mov	r3, #144
 467 01aa FB18     		add	r3, r7, r3
ARM GAS  C:\Users\fneves\AppData\Local\Temp\ccUiFCKc.s 			page 12


 468 01ac 1B68     		ldr	r3, [r3]
 469 01ae BB65     		str	r3, [r7, #88]
 470 01b0 DB17     		asr	r3, r3, #31
 471 01b2 FB65     		str	r3, [r7, #92]
 472 01b4 A023     		mov	r3, #160
 473 01b6 FB18     		add	r3, r7, r3
 474 01b8 1B68     		ldr	r3, [r3]
 475 01ba 3B65     		str	r3, [r7, #80]
 476 01bc DB17     		asr	r3, r3, #31
 477 01be 7B65     		str	r3, [r7, #84]
 478 01c0 B86D     		ldr	r0, [r7, #88]
 479 01c2 F96D     		ldr	r1, [r7, #92]
 480 01c4 3A6D     		ldr	r2, [r7, #80]
 481 01c6 7B6D     		ldr	r3, [r7, #84]
 482 01c8 FFF7FEFF 		bl	__aeabi_lmul
 483 01cc 031C     		mov	r3, r0
 484 01ce 0C1C     		mov	r4, r1
 485 01d0 191C     		mov	r1, r3
 486 01d2 221C     		mov	r2, r4
 487 01d4 8023     		mov	r3, #128
 488 01d6 1B06     		lsl	r3, r3, #24
 489 01d8 0024     		mov	r4, #0
 490 01da 5B18     		add	r3, r3, r1
 491 01dc 5441     		adc	r4, r4, r2
 492 01de 2200     		asr	r2, r4, #0
 493 01e0 BA64     		str	r2, [r7, #72]
 494 01e2 E317     		asr	r3, r4, #31
 495 01e4 FB64     		str	r3, [r7, #76]
 496 01e6 BB6C     		ldr	r3, [r7, #72]
 497 01e8 8822     		mov	r2, #136
 498 01ea BA18     		add	r2, r7, r2
 499 01ec 1360     		str	r3, [r2]
 161:Source\TransformFunctions/arm_cfft_q31.c ****         multAcc_32x32_keep32_R(p0, yt, sinVal);
 500              		.loc 1 161 0 discriminator 3
 501 01ee 8C23     		mov	r3, #140
 502 01f0 FB18     		add	r3, r7, r3
 503 01f2 1B68     		ldr	r3, [r3]
 504 01f4 3B64     		str	r3, [r7, #64]
 505 01f6 DB17     		asr	r3, r3, #31
 506 01f8 7B64     		str	r3, [r7, #68]
 507 01fa 3B6C     		ldr	r3, [r7, #64]
 508 01fc 1B00     		lsl	r3, r3, #0
 509 01fe FB63     		str	r3, [r7, #60]
 510 0200 0023     		mov	r3, #0
 511 0202 BB63     		str	r3, [r7, #56]
 512 0204 9023     		mov	r3, #144
 513 0206 FB18     		add	r3, r7, r3
 514 0208 1B68     		ldr	r3, [r3]
 515 020a 3B63     		str	r3, [r7, #48]
 516 020c DB17     		asr	r3, r3, #31
 517 020e 7B63     		str	r3, [r7, #52]
 518 0210 9C23     		mov	r3, #156
 519 0212 FB18     		add	r3, r7, r3
 520 0214 1B68     		ldr	r3, [r3]
 521 0216 BB62     		str	r3, [r7, #40]
 522 0218 DB17     		asr	r3, r3, #31
 523 021a FB62     		str	r3, [r7, #44]
ARM GAS  C:\Users\fneves\AppData\Local\Temp\ccUiFCKc.s 			page 13


 524 021c 386B     		ldr	r0, [r7, #48]
 525 021e 796B     		ldr	r1, [r7, #52]
 526 0220 BA6A     		ldr	r2, [r7, #40]
 527 0222 FB6A     		ldr	r3, [r7, #44]
 528 0224 FFF7FEFF 		bl	__aeabi_lmul
 529 0228 031C     		mov	r3, r0
 530 022a 0C1C     		mov	r4, r1
 531 022c B96B     		ldr	r1, [r7, #56]
 532 022e FA6B     		ldr	r2, [r7, #60]
 533 0230 C918     		add	r1, r1, r3
 534 0232 6241     		adc	r2, r2, r4
 535 0234 8023     		mov	r3, #128
 536 0236 1B06     		lsl	r3, r3, #24
 537 0238 0024     		mov	r4, #0
 538 023a 5B18     		add	r3, r3, r1
 539 023c 5441     		adc	r4, r4, r2
 540 023e 2200     		asr	r2, r4, #0
 541 0240 3A62     		str	r2, [r7, #32]
 542 0242 E317     		asr	r3, r4, #31
 543 0244 7B62     		str	r3, [r7, #36]
 544 0246 3B6A     		ldr	r3, [r7, #32]
 545 0248 8C22     		mov	r2, #140
 546 024a BA18     		add	r2, r7, r2
 547 024c 1360     		str	r3, [r2]
 162:Source\TransformFunctions/arm_cfft_q31.c ****         multSub_32x32_keep32_R(p1, xt, sinVal);
 548              		.loc 1 162 0 discriminator 3
 549 024e 8823     		mov	r3, #136
 550 0250 FB18     		add	r3, r7, r3
 551 0252 1B68     		ldr	r3, [r3]
 552 0254 BB61     		str	r3, [r7, #24]
 553 0256 DB17     		asr	r3, r3, #31
 554 0258 FB61     		str	r3, [r7, #28]
 555 025a BB69     		ldr	r3, [r7, #24]
 556 025c 1E00     		lsl	r6, r3, #0
 557 025e 0023     		mov	r3, #0
 558 0260 1D1C     		mov	r5, r3
 559 0262 9423     		mov	r3, #148
 560 0264 FB18     		add	r3, r7, r3
 561 0266 1B68     		ldr	r3, [r3]
 562 0268 3B61     		str	r3, [r7, #16]
 563 026a DB17     		asr	r3, r3, #31
 564 026c 7B61     		str	r3, [r7, #20]
 565 026e 9C23     		mov	r3, #156
 566 0270 FB18     		add	r3, r7, r3
 567 0272 1B68     		ldr	r3, [r3]
 568 0274 BB60     		str	r3, [r7, #8]
 569 0276 DB17     		asr	r3, r3, #31
 570 0278 FB60     		str	r3, [r7, #12]
 571 027a 3869     		ldr	r0, [r7, #16]
 572 027c 7969     		ldr	r1, [r7, #20]
 573 027e BA68     		ldr	r2, [r7, #8]
 574 0280 FB68     		ldr	r3, [r7, #12]
 575 0282 FFF7FEFF 		bl	__aeabi_lmul
 576 0286 031C     		mov	r3, r0
 577 0288 0C1C     		mov	r4, r1
 578 028a 291C     		mov	r1, r5
 579 028c 321C     		mov	r2, r6
ARM GAS  C:\Users\fneves\AppData\Local\Temp\ccUiFCKc.s 			page 14


 580 028e C91A     		sub	r1, r1, r3
 581 0290 A241     		sbc	r2, r2, r4
 582 0292 8023     		mov	r3, #128
 583 0294 1B06     		lsl	r3, r3, #24
 584 0296 0024     		mov	r4, #0
 585 0298 5B18     		add	r3, r3, r1
 586 029a 5441     		adc	r4, r4, r2
 587 029c 2200     		asr	r2, r4, #0
 588 029e 3A60     		str	r2, [r7]
 589 02a0 E317     		asr	r3, r4, #31
 590 02a2 7B60     		str	r3, [r7, #4]
 591 02a4 3B68     		ldr	r3, [r7]
 592 02a6 8822     		mov	r2, #136
 593 02a8 BA18     		add	r2, r7, r2
 594 02aa 1360     		str	r3, [r2]
 163:Source\TransformFunctions/arm_cfft_q31.c **** 
 164:Source\TransformFunctions/arm_cfft_q31.c ****         pSrc[2u * l] = p0 << 1;
 595              		.loc 1 164 0 discriminator 3
 596 02ac 9823     		mov	r3, #152
 597 02ae FB18     		add	r3, r7, r3
 598 02b0 1B68     		ldr	r3, [r3]
 599 02b2 DA00     		lsl	r2, r3, #3
 600 02b4 8423     		mov	r3, #132
 601 02b6 FB18     		add	r3, r7, r3
 602 02b8 1B68     		ldr	r3, [r3]
 603 02ba 9A18     		add	r2, r3, r2
 604 02bc 8C23     		mov	r3, #140
 605 02be FB18     		add	r3, r7, r3
 606 02c0 1B68     		ldr	r3, [r3]
 607 02c2 5B00     		lsl	r3, r3, #1
 608 02c4 1360     		str	r3, [r2]
 165:Source\TransformFunctions/arm_cfft_q31.c ****         pSrc[2u * l + 1u] = p1 << 1;
 609              		.loc 1 165 0 discriminator 3
 610 02c6 9823     		mov	r3, #152
 611 02c8 FB18     		add	r3, r7, r3
 612 02ca 1B68     		ldr	r3, [r3]
 613 02cc DB00     		lsl	r3, r3, #3
 614 02ce 1A1D     		add	r2, r3, #4
 615 02d0 8423     		mov	r3, #132
 616 02d2 FB18     		add	r3, r7, r3
 617 02d4 1B68     		ldr	r3, [r3]
 618 02d6 9A18     		add	r2, r3, r2
 619 02d8 8823     		mov	r3, #136
 620 02da FB18     		add	r3, r7, r3
 621 02dc 1B68     		ldr	r3, [r3]
 622 02de 5B00     		lsl	r3, r3, #1
 623 02e0 1360     		str	r3, [r2]
 146:Source\TransformFunctions/arm_cfft_q31.c ****     {
 624              		.loc 1 146 0 discriminator 3
 625 02e2 AC23     		mov	r3, #172
 626 02e4 FB18     		add	r3, r7, r3
 627 02e6 1B68     		ldr	r3, [r3]
 628 02e8 0133     		add	r3, r3, #1
 629 02ea AC22     		mov	r2, #172
 630 02ec BA18     		add	r2, r7, r2
 631 02ee 1360     		str	r3, [r2]
 632              	.L17:
ARM GAS  C:\Users\fneves\AppData\Local\Temp\ccUiFCKc.s 			page 15


 146:Source\TransformFunctions/arm_cfft_q31.c ****     {
 633              		.loc 1 146 0 is_stmt 0 discriminator 1
 634 02f0 AC23     		mov	r3, #172
 635 02f2 FB18     		add	r3, r7, r3
 636 02f4 1A68     		ldr	r2, [r3]
 637 02f6 A423     		mov	r3, #164
 638 02f8 FB18     		add	r3, r7, r3
 639 02fa 1B68     		ldr	r3, [r3]
 640 02fc 9A42     		cmp	r2, r3
 641 02fe 00D2     		bcs	.LCB591
 642 0300 98E6     		b	.L18	@long jump
 643              	.LCB591:
 166:Source\TransformFunctions/arm_cfft_q31.c **** 
 167:Source\TransformFunctions/arm_cfft_q31.c ****     }
 168:Source\TransformFunctions/arm_cfft_q31.c **** 
 169:Source\TransformFunctions/arm_cfft_q31.c ****     // first col
 170:Source\TransformFunctions/arm_cfft_q31.c ****     arm_radix4_butterfly_q31( pSrc, n2, (q31_t*)pCoef, 2u);
 644              		.loc 1 170 0 is_stmt 1
 645 0302 8423     		mov	r3, #132
 646 0304 FB18     		add	r3, r7, r3
 647 0306 1968     		ldr	r1, [r3]
 648 0308 A423     		mov	r3, #164
 649 030a FB18     		add	r3, r7, r3
 650 030c 1A68     		ldr	r2, [r3]
 651 030e FB6F     		ldr	r3, [r7, #124]
 652 0310 081C     		mov	r0, r1
 653 0312 111C     		mov	r1, r2
 654 0314 1A1C     		mov	r2, r3
 655 0316 0223     		mov	r3, #2
 656 0318 FFF7FEFF 		bl	arm_radix4_butterfly_q31
 171:Source\TransformFunctions/arm_cfft_q31.c ****     // second col
 172:Source\TransformFunctions/arm_cfft_q31.c ****     arm_radix4_butterfly_q31( pSrc + fftLen, n2, (q31_t*)pCoef, 2u);
 657              		.loc 1 172 0
 658 031c 8023     		mov	r3, #128
 659 031e FB18     		add	r3, r7, r3
 660 0320 1B68     		ldr	r3, [r3]
 661 0322 9B00     		lsl	r3, r3, #2
 662 0324 8422     		mov	r2, #132
 663 0326 BA18     		add	r2, r7, r2
 664 0328 1268     		ldr	r2, [r2]
 665 032a D118     		add	r1, r2, r3
 666 032c A423     		mov	r3, #164
 667 032e FB18     		add	r3, r7, r3
 668 0330 1A68     		ldr	r2, [r3]
 669 0332 FB6F     		ldr	r3, [r7, #124]
 670 0334 081C     		mov	r0, r1
 671 0336 111C     		mov	r1, r2
 672 0338 1A1C     		mov	r2, r3
 673 033a 0223     		mov	r3, #2
 674 033c FFF7FEFF 		bl	arm_radix4_butterfly_q31
 173:Source\TransformFunctions/arm_cfft_q31.c **** 
 174:Source\TransformFunctions/arm_cfft_q31.c ****     for (i = 0; i < fftLen >> 1; i++)
 675              		.loc 1 174 0
 676 0340 0023     		mov	r3, #0
 677 0342 AC22     		mov	r2, #172
 678 0344 BA18     		add	r2, r7, r2
 679 0346 1360     		str	r3, [r2]
ARM GAS  C:\Users\fneves\AppData\Local\Temp\ccUiFCKc.s 			page 16


 680 0348 88E0     		b	.L19
 681              	.L20:
 175:Source\TransformFunctions/arm_cfft_q31.c ****     {
 176:Source\TransformFunctions/arm_cfft_q31.c ****         p0 = pSrc[4*i+0];
 682              		.loc 1 176 0 discriminator 3
 683 034a AC23     		mov	r3, #172
 684 034c FB18     		add	r3, r7, r3
 685 034e 1B68     		ldr	r3, [r3]
 686 0350 1B01     		lsl	r3, r3, #4
 687 0352 8422     		mov	r2, #132
 688 0354 BA18     		add	r2, r7, r2
 689 0356 1268     		ldr	r2, [r2]
 690 0358 D318     		add	r3, r2, r3
 691 035a 1B68     		ldr	r3, [r3]
 692 035c 8C22     		mov	r2, #140
 693 035e BA18     		add	r2, r7, r2
 694 0360 1360     		str	r3, [r2]
 177:Source\TransformFunctions/arm_cfft_q31.c ****         p1 = pSrc[4*i+1];
 695              		.loc 1 177 0 discriminator 3
 696 0362 AC23     		mov	r3, #172
 697 0364 FB18     		add	r3, r7, r3
 698 0366 1B68     		ldr	r3, [r3]
 699 0368 1B01     		lsl	r3, r3, #4
 700 036a 0433     		add	r3, r3, #4
 701 036c 8422     		mov	r2, #132
 702 036e BA18     		add	r2, r7, r2
 703 0370 1268     		ldr	r2, [r2]
 704 0372 D318     		add	r3, r2, r3
 705 0374 1B68     		ldr	r3, [r3]
 706 0376 8822     		mov	r2, #136
 707 0378 BA18     		add	r2, r7, r2
 708 037a 1360     		str	r3, [r2]
 178:Source\TransformFunctions/arm_cfft_q31.c ****         xt = pSrc[4*i+2];
 709              		.loc 1 178 0 discriminator 3
 710 037c AC23     		mov	r3, #172
 711 037e FB18     		add	r3, r7, r3
 712 0380 1B68     		ldr	r3, [r3]
 713 0382 1B01     		lsl	r3, r3, #4
 714 0384 0833     		add	r3, r3, #8
 715 0386 8422     		mov	r2, #132
 716 0388 BA18     		add	r2, r7, r2
 717 038a 1268     		ldr	r2, [r2]
 718 038c D318     		add	r3, r2, r3
 719 038e 1B68     		ldr	r3, [r3]
 720 0390 9422     		mov	r2, #148
 721 0392 BA18     		add	r2, r7, r2
 722 0394 1360     		str	r3, [r2]
 179:Source\TransformFunctions/arm_cfft_q31.c ****         yt = pSrc[4*i+3];
 723              		.loc 1 179 0 discriminator 3
 724 0396 AC23     		mov	r3, #172
 725 0398 FB18     		add	r3, r7, r3
 726 039a 1B68     		ldr	r3, [r3]
 727 039c 1B01     		lsl	r3, r3, #4
 728 039e 0C33     		add	r3, r3, #12
 729 03a0 8422     		mov	r2, #132
 730 03a2 BA18     		add	r2, r7, r2
 731 03a4 1268     		ldr	r2, [r2]
ARM GAS  C:\Users\fneves\AppData\Local\Temp\ccUiFCKc.s 			page 17


 732 03a6 D318     		add	r3, r2, r3
 733 03a8 1B68     		ldr	r3, [r3]
 734 03aa 9022     		mov	r2, #144
 735 03ac BA18     		add	r2, r7, r2
 736 03ae 1360     		str	r3, [r2]
 180:Source\TransformFunctions/arm_cfft_q31.c **** 
 181:Source\TransformFunctions/arm_cfft_q31.c ****         p0 <<= 1;
 737              		.loc 1 181 0 discriminator 3
 738 03b0 8C23     		mov	r3, #140
 739 03b2 FB18     		add	r3, r7, r3
 740 03b4 1B68     		ldr	r3, [r3]
 741 03b6 5B00     		lsl	r3, r3, #1
 742 03b8 8C22     		mov	r2, #140
 743 03ba BA18     		add	r2, r7, r2
 744 03bc 1360     		str	r3, [r2]
 182:Source\TransformFunctions/arm_cfft_q31.c ****         p1 <<= 1;
 745              		.loc 1 182 0 discriminator 3
 746 03be 8823     		mov	r3, #136
 747 03c0 FB18     		add	r3, r7, r3
 748 03c2 1B68     		ldr	r3, [r3]
 749 03c4 5B00     		lsl	r3, r3, #1
 750 03c6 8822     		mov	r2, #136
 751 03c8 BA18     		add	r2, r7, r2
 752 03ca 1360     		str	r3, [r2]
 183:Source\TransformFunctions/arm_cfft_q31.c ****         xt <<= 1;
 753              		.loc 1 183 0 discriminator 3
 754 03cc 9423     		mov	r3, #148
 755 03ce FB18     		add	r3, r7, r3
 756 03d0 1B68     		ldr	r3, [r3]
 757 03d2 5B00     		lsl	r3, r3, #1
 758 03d4 9422     		mov	r2, #148
 759 03d6 BA18     		add	r2, r7, r2
 760 03d8 1360     		str	r3, [r2]
 184:Source\TransformFunctions/arm_cfft_q31.c ****         yt <<= 1;
 761              		.loc 1 184 0 discriminator 3
 762 03da 9023     		mov	r3, #144
 763 03dc FB18     		add	r3, r7, r3
 764 03de 1B68     		ldr	r3, [r3]
 765 03e0 5B00     		lsl	r3, r3, #1
 766 03e2 9022     		mov	r2, #144
 767 03e4 BA18     		add	r2, r7, r2
 768 03e6 1360     		str	r3, [r2]
 185:Source\TransformFunctions/arm_cfft_q31.c **** 
 186:Source\TransformFunctions/arm_cfft_q31.c ****         pSrc[4*i+0] = p0;
 769              		.loc 1 186 0 discriminator 3
 770 03e8 AC23     		mov	r3, #172
 771 03ea FB18     		add	r3, r7, r3
 772 03ec 1B68     		ldr	r3, [r3]
 773 03ee 1B01     		lsl	r3, r3, #4
 774 03f0 8422     		mov	r2, #132
 775 03f2 BA18     		add	r2, r7, r2
 776 03f4 1268     		ldr	r2, [r2]
 777 03f6 D318     		add	r3, r2, r3
 778 03f8 8C22     		mov	r2, #140
 779 03fa BA18     		add	r2, r7, r2
 780 03fc 1268     		ldr	r2, [r2]
 781 03fe 1A60     		str	r2, [r3]
ARM GAS  C:\Users\fneves\AppData\Local\Temp\ccUiFCKc.s 			page 18


 187:Source\TransformFunctions/arm_cfft_q31.c ****         pSrc[4*i+1] = p1;
 782              		.loc 1 187 0 discriminator 3
 783 0400 AC23     		mov	r3, #172
 784 0402 FB18     		add	r3, r7, r3
 785 0404 1B68     		ldr	r3, [r3]
 786 0406 1B01     		lsl	r3, r3, #4
 787 0408 0433     		add	r3, r3, #4
 788 040a 8422     		mov	r2, #132
 789 040c BA18     		add	r2, r7, r2
 790 040e 1268     		ldr	r2, [r2]
 791 0410 D318     		add	r3, r2, r3
 792 0412 8822     		mov	r2, #136
 793 0414 BA18     		add	r2, r7, r2
 794 0416 1268     		ldr	r2, [r2]
 795 0418 1A60     		str	r2, [r3]
 188:Source\TransformFunctions/arm_cfft_q31.c ****         pSrc[4*i+2] = xt;
 796              		.loc 1 188 0 discriminator 3
 797 041a AC23     		mov	r3, #172
 798 041c FB18     		add	r3, r7, r3
 799 041e 1B68     		ldr	r3, [r3]
 800 0420 1B01     		lsl	r3, r3, #4
 801 0422 0833     		add	r3, r3, #8
 802 0424 8422     		mov	r2, #132
 803 0426 BA18     		add	r2, r7, r2
 804 0428 1268     		ldr	r2, [r2]
 805 042a D318     		add	r3, r2, r3
 806 042c 9422     		mov	r2, #148
 807 042e BA18     		add	r2, r7, r2
 808 0430 1268     		ldr	r2, [r2]
 809 0432 1A60     		str	r2, [r3]
 189:Source\TransformFunctions/arm_cfft_q31.c ****         pSrc[4*i+3] = yt;
 810              		.loc 1 189 0 discriminator 3
 811 0434 AC23     		mov	r3, #172
 812 0436 FB18     		add	r3, r7, r3
 813 0438 1B68     		ldr	r3, [r3]
 814 043a 1B01     		lsl	r3, r3, #4
 815 043c 0C33     		add	r3, r3, #12
 816 043e 8422     		mov	r2, #132
 817 0440 BA18     		add	r2, r7, r2
 818 0442 1268     		ldr	r2, [r2]
 819 0444 D318     		add	r3, r2, r3
 820 0446 9022     		mov	r2, #144
 821 0448 BA18     		add	r2, r7, r2
 822 044a 1268     		ldr	r2, [r2]
 823 044c 1A60     		str	r2, [r3]
 174:Source\TransformFunctions/arm_cfft_q31.c ****     {
 824              		.loc 1 174 0 discriminator 3
 825 044e AC23     		mov	r3, #172
 826 0450 FB18     		add	r3, r7, r3
 827 0452 1B68     		ldr	r3, [r3]
 828 0454 0133     		add	r3, r3, #1
 829 0456 AC22     		mov	r2, #172
 830 0458 BA18     		add	r2, r7, r2
 831 045a 1360     		str	r3, [r2]
 832              	.L19:
 174:Source\TransformFunctions/arm_cfft_q31.c ****     {
 833              		.loc 1 174 0 is_stmt 0 discriminator 1
ARM GAS  C:\Users\fneves\AppData\Local\Temp\ccUiFCKc.s 			page 19


 834 045c 8023     		mov	r3, #128
 835 045e FB18     		add	r3, r7, r3
 836 0460 1B68     		ldr	r3, [r3]
 837 0462 5A08     		lsr	r2, r3, #1
 838 0464 AC23     		mov	r3, #172
 839 0466 FB18     		add	r3, r7, r3
 840 0468 1B68     		ldr	r3, [r3]
 841 046a 9A42     		cmp	r2, r3
 842 046c 00D9     		bls	.LCB776
 843 046e 6CE7     		b	.L20	@long jump
 844              	.LCB776:
 190:Source\TransformFunctions/arm_cfft_q31.c ****     }
 191:Source\TransformFunctions/arm_cfft_q31.c **** 
 192:Source\TransformFunctions/arm_cfft_q31.c **** }
 845              		.loc 1 192 0 is_stmt 1
 846 0470 BD46     		mov	sp, r7
 847 0472 2DB0     		add	sp, sp, #180
 848              		@ sp needed
 849 0474 F0BD     		pop	{r4, r5, r6, r7, pc}
 850              		.cfi_endproc
 851              	.LFE83:
 852              		.size	arm_cfft_radix4by2_q31, .-arm_cfft_radix4by2_q31
 853 0476 C046     		.section	.text.arm_cfft_radix4by2_inverse_q31,"ax",%progbits
 854              		.align	2
 855              		.global	arm_cfft_radix4by2_inverse_q31
 856              		.code	16
 857              		.thumb_func
 858              		.type	arm_cfft_radix4by2_inverse_q31, %function
 859              	arm_cfft_radix4by2_inverse_q31:
 860              	.LFB84:
 193:Source\TransformFunctions/arm_cfft_q31.c **** 
 194:Source\TransformFunctions/arm_cfft_q31.c **** void arm_cfft_radix4by2_inverse_q31(
 195:Source\TransformFunctions/arm_cfft_q31.c ****     q31_t * pSrc,
 196:Source\TransformFunctions/arm_cfft_q31.c ****     uint32_t fftLen,
 197:Source\TransformFunctions/arm_cfft_q31.c ****     const q31_t * pCoef)
 198:Source\TransformFunctions/arm_cfft_q31.c **** {
 861              		.loc 1 198 0
 862              		.cfi_startproc
 863 0000 F0B5     		push	{r4, r5, r6, r7, lr}
 864              		.cfi_def_cfa_offset 20
 865              		.cfi_offset 4, -20
 866              		.cfi_offset 5, -16
 867              		.cfi_offset 6, -12
 868              		.cfi_offset 7, -8
 869              		.cfi_offset 14, -4
 870 0002 ADB0     		sub	sp, sp, #180
 871              		.cfi_def_cfa_offset 200
 872 0004 00AF     		add	r7, sp, #0
 873              		.cfi_def_cfa_register 7
 874 0006 8423     		mov	r3, #132
 875 0008 FB18     		add	r3, r7, r3
 876 000a 1860     		str	r0, [r3]
 877 000c 8023     		mov	r3, #128
 878 000e FB18     		add	r3, r7, r3
 879 0010 1960     		str	r1, [r3]
 880 0012 FA67     		str	r2, [r7, #124]
 199:Source\TransformFunctions/arm_cfft_q31.c ****     uint32_t i, l;
ARM GAS  C:\Users\fneves\AppData\Local\Temp\ccUiFCKc.s 			page 20


 200:Source\TransformFunctions/arm_cfft_q31.c ****     uint32_t n2, ia;
 201:Source\TransformFunctions/arm_cfft_q31.c ****     q31_t xt, yt, cosVal, sinVal;
 202:Source\TransformFunctions/arm_cfft_q31.c ****     q31_t p0, p1;
 203:Source\TransformFunctions/arm_cfft_q31.c **** 
 204:Source\TransformFunctions/arm_cfft_q31.c ****     n2 = fftLen >> 1;
 881              		.loc 1 204 0
 882 0014 8023     		mov	r3, #128
 883 0016 FB18     		add	r3, r7, r3
 884 0018 1B68     		ldr	r3, [r3]
 885 001a 5B08     		lsr	r3, r3, #1
 886 001c A422     		mov	r2, #164
 887 001e BA18     		add	r2, r7, r2
 888 0020 1360     		str	r3, [r2]
 205:Source\TransformFunctions/arm_cfft_q31.c ****     ia = 0;
 889              		.loc 1 205 0
 890 0022 0023     		mov	r3, #0
 891 0024 A822     		mov	r2, #168
 892 0026 BA18     		add	r2, r7, r2
 893 0028 1360     		str	r3, [r2]
 206:Source\TransformFunctions/arm_cfft_q31.c ****     for (i = 0; i < n2; i++)
 894              		.loc 1 206 0
 895 002a 0023     		mov	r3, #0
 896 002c AC22     		mov	r2, #172
 897 002e BA18     		add	r2, r7, r2
 898 0030 1360     		str	r3, [r2]
 899 0032 5DE1     		b	.L22
 900              	.L23:
 207:Source\TransformFunctions/arm_cfft_q31.c ****     {
 208:Source\TransformFunctions/arm_cfft_q31.c ****         cosVal = pCoef[2*ia];
 901              		.loc 1 208 0 discriminator 3
 902 0034 A823     		mov	r3, #168
 903 0036 FB18     		add	r3, r7, r3
 904 0038 1B68     		ldr	r3, [r3]
 905 003a DA00     		lsl	r2, r3, #3
 906 003c FB6F     		ldr	r3, [r7, #124]
 907 003e 9B18     		add	r3, r3, r2
 908 0040 1B68     		ldr	r3, [r3]
 909 0042 A022     		mov	r2, #160
 910 0044 BA18     		add	r2, r7, r2
 911 0046 1360     		str	r3, [r2]
 209:Source\TransformFunctions/arm_cfft_q31.c ****         sinVal = pCoef[2*ia + 1];
 912              		.loc 1 209 0 discriminator 3
 913 0048 A823     		mov	r3, #168
 914 004a FB18     		add	r3, r7, r3
 915 004c 1B68     		ldr	r3, [r3]
 916 004e DB00     		lsl	r3, r3, #3
 917 0050 1A1D     		add	r2, r3, #4
 918 0052 FB6F     		ldr	r3, [r7, #124]
 919 0054 9B18     		add	r3, r3, r2
 920 0056 1B68     		ldr	r3, [r3]
 921 0058 9C22     		mov	r2, #156
 922 005a BA18     		add	r2, r7, r2
 923 005c 1360     		str	r3, [r2]
 210:Source\TransformFunctions/arm_cfft_q31.c ****         ia++;
 924              		.loc 1 210 0 discriminator 3
 925 005e A823     		mov	r3, #168
 926 0060 FB18     		add	r3, r7, r3
ARM GAS  C:\Users\fneves\AppData\Local\Temp\ccUiFCKc.s 			page 21


 927 0062 1B68     		ldr	r3, [r3]
 928 0064 0133     		add	r3, r3, #1
 929 0066 A822     		mov	r2, #168
 930 0068 BA18     		add	r2, r7, r2
 931 006a 1360     		str	r3, [r2]
 211:Source\TransformFunctions/arm_cfft_q31.c **** 
 212:Source\TransformFunctions/arm_cfft_q31.c ****         l = i + n2;
 932              		.loc 1 212 0 discriminator 3
 933 006c AC23     		mov	r3, #172
 934 006e FB18     		add	r3, r7, r3
 935 0070 1A68     		ldr	r2, [r3]
 936 0072 A423     		mov	r3, #164
 937 0074 FB18     		add	r3, r7, r3
 938 0076 1B68     		ldr	r3, [r3]
 939 0078 D318     		add	r3, r2, r3
 940 007a 9822     		mov	r2, #152
 941 007c BA18     		add	r2, r7, r2
 942 007e 1360     		str	r3, [r2]
 213:Source\TransformFunctions/arm_cfft_q31.c ****         xt = (pSrc[2 * i] >> 2) - (pSrc[2 * l] >> 2);
 943              		.loc 1 213 0 discriminator 3
 944 0080 AC23     		mov	r3, #172
 945 0082 FB18     		add	r3, r7, r3
 946 0084 1B68     		ldr	r3, [r3]
 947 0086 DA00     		lsl	r2, r3, #3
 948 0088 8423     		mov	r3, #132
 949 008a FB18     		add	r3, r7, r3
 950 008c 1B68     		ldr	r3, [r3]
 951 008e 9B18     		add	r3, r3, r2
 952 0090 1B68     		ldr	r3, [r3]
 953 0092 9910     		asr	r1, r3, #2
 954 0094 9823     		mov	r3, #152
 955 0096 FB18     		add	r3, r7, r3
 956 0098 1B68     		ldr	r3, [r3]
 957 009a DA00     		lsl	r2, r3, #3
 958 009c 8423     		mov	r3, #132
 959 009e FB18     		add	r3, r7, r3
 960 00a0 1B68     		ldr	r3, [r3]
 961 00a2 9B18     		add	r3, r3, r2
 962 00a4 1B68     		ldr	r3, [r3]
 963 00a6 9B10     		asr	r3, r3, #2
 964 00a8 CB1A     		sub	r3, r1, r3
 965 00aa 9422     		mov	r2, #148
 966 00ac BA18     		add	r2, r7, r2
 967 00ae 1360     		str	r3, [r2]
 214:Source\TransformFunctions/arm_cfft_q31.c ****         pSrc[2 * i] = (pSrc[2 * i] >> 2) + (pSrc[2 * l] >> 2);
 968              		.loc 1 214 0 discriminator 3
 969 00b0 AC23     		mov	r3, #172
 970 00b2 FB18     		add	r3, r7, r3
 971 00b4 1B68     		ldr	r3, [r3]
 972 00b6 DA00     		lsl	r2, r3, #3
 973 00b8 8423     		mov	r3, #132
 974 00ba FB18     		add	r3, r7, r3
 975 00bc 1B68     		ldr	r3, [r3]
 976 00be 9818     		add	r0, r3, r2
 977 00c0 AC23     		mov	r3, #172
 978 00c2 FB18     		add	r3, r7, r3
 979 00c4 1B68     		ldr	r3, [r3]
ARM GAS  C:\Users\fneves\AppData\Local\Temp\ccUiFCKc.s 			page 22


 980 00c6 DA00     		lsl	r2, r3, #3
 981 00c8 8423     		mov	r3, #132
 982 00ca FB18     		add	r3, r7, r3
 983 00cc 1B68     		ldr	r3, [r3]
 984 00ce 9B18     		add	r3, r3, r2
 985 00d0 1B68     		ldr	r3, [r3]
 986 00d2 9910     		asr	r1, r3, #2
 987 00d4 9823     		mov	r3, #152
 988 00d6 FB18     		add	r3, r7, r3
 989 00d8 1B68     		ldr	r3, [r3]
 990 00da DA00     		lsl	r2, r3, #3
 991 00dc 8423     		mov	r3, #132
 992 00de FB18     		add	r3, r7, r3
 993 00e0 1B68     		ldr	r3, [r3]
 994 00e2 9B18     		add	r3, r3, r2
 995 00e4 1B68     		ldr	r3, [r3]
 996 00e6 9B10     		asr	r3, r3, #2
 997 00e8 CB18     		add	r3, r1, r3
 998 00ea 0360     		str	r3, [r0]
 215:Source\TransformFunctions/arm_cfft_q31.c **** 
 216:Source\TransformFunctions/arm_cfft_q31.c ****         yt = (pSrc[2 * i + 1] >> 2) - (pSrc[2 * l + 1] >> 2);
 999              		.loc 1 216 0 discriminator 3
 1000 00ec AC23     		mov	r3, #172
 1001 00ee FB18     		add	r3, r7, r3
 1002 00f0 1B68     		ldr	r3, [r3]
 1003 00f2 DB00     		lsl	r3, r3, #3
 1004 00f4 1A1D     		add	r2, r3, #4
 1005 00f6 8423     		mov	r3, #132
 1006 00f8 FB18     		add	r3, r7, r3
 1007 00fa 1B68     		ldr	r3, [r3]
 1008 00fc 9B18     		add	r3, r3, r2
 1009 00fe 1B68     		ldr	r3, [r3]
 1010 0100 9910     		asr	r1, r3, #2
 1011 0102 9823     		mov	r3, #152
 1012 0104 FB18     		add	r3, r7, r3
 1013 0106 1B68     		ldr	r3, [r3]
 1014 0108 DB00     		lsl	r3, r3, #3
 1015 010a 1A1D     		add	r2, r3, #4
 1016 010c 8423     		mov	r3, #132
 1017 010e FB18     		add	r3, r7, r3
 1018 0110 1B68     		ldr	r3, [r3]
 1019 0112 9B18     		add	r3, r3, r2
 1020 0114 1B68     		ldr	r3, [r3]
 1021 0116 9B10     		asr	r3, r3, #2
 1022 0118 CB1A     		sub	r3, r1, r3
 1023 011a 9022     		mov	r2, #144
 1024 011c BA18     		add	r2, r7, r2
 1025 011e 1360     		str	r3, [r2]
 217:Source\TransformFunctions/arm_cfft_q31.c ****         pSrc[2 * i + 1] = (pSrc[2 * l + 1] >> 2) + (pSrc[2 * i + 1] >> 2);
 1026              		.loc 1 217 0 discriminator 3
 1027 0120 AC23     		mov	r3, #172
 1028 0122 FB18     		add	r3, r7, r3
 1029 0124 1B68     		ldr	r3, [r3]
 1030 0126 DB00     		lsl	r3, r3, #3
 1031 0128 1A1D     		add	r2, r3, #4
 1032 012a 8423     		mov	r3, #132
 1033 012c FB18     		add	r3, r7, r3
ARM GAS  C:\Users\fneves\AppData\Local\Temp\ccUiFCKc.s 			page 23


 1034 012e 1B68     		ldr	r3, [r3]
 1035 0130 9818     		add	r0, r3, r2
 1036 0132 9823     		mov	r3, #152
 1037 0134 FB18     		add	r3, r7, r3
 1038 0136 1B68     		ldr	r3, [r3]
 1039 0138 DB00     		lsl	r3, r3, #3
 1040 013a 1A1D     		add	r2, r3, #4
 1041 013c 8423     		mov	r3, #132
 1042 013e FB18     		add	r3, r7, r3
 1043 0140 1B68     		ldr	r3, [r3]
 1044 0142 9B18     		add	r3, r3, r2
 1045 0144 1B68     		ldr	r3, [r3]
 1046 0146 9910     		asr	r1, r3, #2
 1047 0148 AC23     		mov	r3, #172
 1048 014a FB18     		add	r3, r7, r3
 1049 014c 1B68     		ldr	r3, [r3]
 1050 014e DB00     		lsl	r3, r3, #3
 1051 0150 1A1D     		add	r2, r3, #4
 1052 0152 8423     		mov	r3, #132
 1053 0154 FB18     		add	r3, r7, r3
 1054 0156 1B68     		ldr	r3, [r3]
 1055 0158 9B18     		add	r3, r3, r2
 1056 015a 1B68     		ldr	r3, [r3]
 1057 015c 9B10     		asr	r3, r3, #2
 1058 015e CB18     		add	r3, r1, r3
 1059 0160 0360     		str	r3, [r0]
 218:Source\TransformFunctions/arm_cfft_q31.c **** 
 219:Source\TransformFunctions/arm_cfft_q31.c ****         mult_32x32_keep32_R(p0, xt, cosVal);
 1060              		.loc 1 219 0 discriminator 3
 1061 0162 9423     		mov	r3, #148
 1062 0164 FB18     		add	r3, r7, r3
 1063 0166 1B68     		ldr	r3, [r3]
 1064 0168 3B67     		str	r3, [r7, #112]
 1065 016a DB17     		asr	r3, r3, #31
 1066 016c 7B67     		str	r3, [r7, #116]
 1067 016e A023     		mov	r3, #160
 1068 0170 FB18     		add	r3, r7, r3
 1069 0172 1B68     		ldr	r3, [r3]
 1070 0174 BB66     		str	r3, [r7, #104]
 1071 0176 DB17     		asr	r3, r3, #31
 1072 0178 FB66     		str	r3, [r7, #108]
 1073 017a 386F     		ldr	r0, [r7, #112]
 1074 017c 796F     		ldr	r1, [r7, #116]
 1075 017e BA6E     		ldr	r2, [r7, #104]
 1076 0180 FB6E     		ldr	r3, [r7, #108]
 1077 0182 FFF7FEFF 		bl	__aeabi_lmul
 1078 0186 031C     		mov	r3, r0
 1079 0188 0C1C     		mov	r4, r1
 1080 018a 191C     		mov	r1, r3
 1081 018c 221C     		mov	r2, r4
 1082 018e 8023     		mov	r3, #128
 1083 0190 1B06     		lsl	r3, r3, #24
 1084 0192 0024     		mov	r4, #0
 1085 0194 5B18     		add	r3, r3, r1
 1086 0196 5441     		adc	r4, r4, r2
 1087 0198 2200     		asr	r2, r4, #0
 1088 019a 3A66     		str	r2, [r7, #96]
ARM GAS  C:\Users\fneves\AppData\Local\Temp\ccUiFCKc.s 			page 24


 1089 019c E317     		asr	r3, r4, #31
 1090 019e 7B66     		str	r3, [r7, #100]
 1091 01a0 3B6E     		ldr	r3, [r7, #96]
 1092 01a2 8C22     		mov	r2, #140
 1093 01a4 BA18     		add	r2, r7, r2
 1094 01a6 1360     		str	r3, [r2]
 220:Source\TransformFunctions/arm_cfft_q31.c ****         mult_32x32_keep32_R(p1, yt, cosVal);
 1095              		.loc 1 220 0 discriminator 3
 1096 01a8 9023     		mov	r3, #144
 1097 01aa FB18     		add	r3, r7, r3
 1098 01ac 1B68     		ldr	r3, [r3]
 1099 01ae BB65     		str	r3, [r7, #88]
 1100 01b0 DB17     		asr	r3, r3, #31
 1101 01b2 FB65     		str	r3, [r7, #92]
 1102 01b4 A023     		mov	r3, #160
 1103 01b6 FB18     		add	r3, r7, r3
 1104 01b8 1B68     		ldr	r3, [r3]
 1105 01ba 3B65     		str	r3, [r7, #80]
 1106 01bc DB17     		asr	r3, r3, #31
 1107 01be 7B65     		str	r3, [r7, #84]
 1108 01c0 B86D     		ldr	r0, [r7, #88]
 1109 01c2 F96D     		ldr	r1, [r7, #92]
 1110 01c4 3A6D     		ldr	r2, [r7, #80]
 1111 01c6 7B6D     		ldr	r3, [r7, #84]
 1112 01c8 FFF7FEFF 		bl	__aeabi_lmul
 1113 01cc 031C     		mov	r3, r0
 1114 01ce 0C1C     		mov	r4, r1
 1115 01d0 191C     		mov	r1, r3
 1116 01d2 221C     		mov	r2, r4
 1117 01d4 8023     		mov	r3, #128
 1118 01d6 1B06     		lsl	r3, r3, #24
 1119 01d8 0024     		mov	r4, #0
 1120 01da 5B18     		add	r3, r3, r1
 1121 01dc 5441     		adc	r4, r4, r2
 1122 01de 2200     		asr	r2, r4, #0
 1123 01e0 BA64     		str	r2, [r7, #72]
 1124 01e2 E317     		asr	r3, r4, #31
 1125 01e4 FB64     		str	r3, [r7, #76]
 1126 01e6 BB6C     		ldr	r3, [r7, #72]
 1127 01e8 8822     		mov	r2, #136
 1128 01ea BA18     		add	r2, r7, r2
 1129 01ec 1360     		str	r3, [r2]
 221:Source\TransformFunctions/arm_cfft_q31.c ****         multSub_32x32_keep32_R(p0, yt, sinVal);
 1130              		.loc 1 221 0 discriminator 3
 1131 01ee 8C23     		mov	r3, #140
 1132 01f0 FB18     		add	r3, r7, r3
 1133 01f2 1B68     		ldr	r3, [r3]
 1134 01f4 3B64     		str	r3, [r7, #64]
 1135 01f6 DB17     		asr	r3, r3, #31
 1136 01f8 7B64     		str	r3, [r7, #68]
 1137 01fa 3B6C     		ldr	r3, [r7, #64]
 1138 01fc 1B00     		lsl	r3, r3, #0
 1139 01fe FB63     		str	r3, [r7, #60]
 1140 0200 0023     		mov	r3, #0
 1141 0202 BB63     		str	r3, [r7, #56]
 1142 0204 9023     		mov	r3, #144
 1143 0206 FB18     		add	r3, r7, r3
ARM GAS  C:\Users\fneves\AppData\Local\Temp\ccUiFCKc.s 			page 25


 1144 0208 1B68     		ldr	r3, [r3]
 1145 020a 3B63     		str	r3, [r7, #48]
 1146 020c DB17     		asr	r3, r3, #31
 1147 020e 7B63     		str	r3, [r7, #52]
 1148 0210 9C23     		mov	r3, #156
 1149 0212 FB18     		add	r3, r7, r3
 1150 0214 1B68     		ldr	r3, [r3]
 1151 0216 BB62     		str	r3, [r7, #40]
 1152 0218 DB17     		asr	r3, r3, #31
 1153 021a FB62     		str	r3, [r7, #44]
 1154 021c 386B     		ldr	r0, [r7, #48]
 1155 021e 796B     		ldr	r1, [r7, #52]
 1156 0220 BA6A     		ldr	r2, [r7, #40]
 1157 0222 FB6A     		ldr	r3, [r7, #44]
 1158 0224 FFF7FEFF 		bl	__aeabi_lmul
 1159 0228 031C     		mov	r3, r0
 1160 022a 0C1C     		mov	r4, r1
 1161 022c B96B     		ldr	r1, [r7, #56]
 1162 022e FA6B     		ldr	r2, [r7, #60]
 1163 0230 C91A     		sub	r1, r1, r3
 1164 0232 A241     		sbc	r2, r2, r4
 1165 0234 8023     		mov	r3, #128
 1166 0236 1B06     		lsl	r3, r3, #24
 1167 0238 0024     		mov	r4, #0
 1168 023a 5B18     		add	r3, r3, r1
 1169 023c 5441     		adc	r4, r4, r2
 1170 023e 2200     		asr	r2, r4, #0
 1171 0240 3A62     		str	r2, [r7, #32]
 1172 0242 E317     		asr	r3, r4, #31
 1173 0244 7B62     		str	r3, [r7, #36]
 1174 0246 3B6A     		ldr	r3, [r7, #32]
 1175 0248 8C22     		mov	r2, #140
 1176 024a BA18     		add	r2, r7, r2
 1177 024c 1360     		str	r3, [r2]
 222:Source\TransformFunctions/arm_cfft_q31.c ****         multAcc_32x32_keep32_R(p1, xt, sinVal);
 1178              		.loc 1 222 0 discriminator 3
 1179 024e 8823     		mov	r3, #136
 1180 0250 FB18     		add	r3, r7, r3
 1181 0252 1B68     		ldr	r3, [r3]
 1182 0254 BB61     		str	r3, [r7, #24]
 1183 0256 DB17     		asr	r3, r3, #31
 1184 0258 FB61     		str	r3, [r7, #28]
 1185 025a BB69     		ldr	r3, [r7, #24]
 1186 025c 1E00     		lsl	r6, r3, #0
 1187 025e 0023     		mov	r3, #0
 1188 0260 1D1C     		mov	r5, r3
 1189 0262 9423     		mov	r3, #148
 1190 0264 FB18     		add	r3, r7, r3
 1191 0266 1B68     		ldr	r3, [r3]
 1192 0268 3B61     		str	r3, [r7, #16]
 1193 026a DB17     		asr	r3, r3, #31
 1194 026c 7B61     		str	r3, [r7, #20]
 1195 026e 9C23     		mov	r3, #156
 1196 0270 FB18     		add	r3, r7, r3
 1197 0272 1B68     		ldr	r3, [r3]
 1198 0274 BB60     		str	r3, [r7, #8]
 1199 0276 DB17     		asr	r3, r3, #31
ARM GAS  C:\Users\fneves\AppData\Local\Temp\ccUiFCKc.s 			page 26


 1200 0278 FB60     		str	r3, [r7, #12]
 1201 027a 3869     		ldr	r0, [r7, #16]
 1202 027c 7969     		ldr	r1, [r7, #20]
 1203 027e BA68     		ldr	r2, [r7, #8]
 1204 0280 FB68     		ldr	r3, [r7, #12]
 1205 0282 FFF7FEFF 		bl	__aeabi_lmul
 1206 0286 031C     		mov	r3, r0
 1207 0288 0C1C     		mov	r4, r1
 1208 028a 5B19     		add	r3, r3, r5
 1209 028c 7441     		adc	r4, r4, r6
 1210 028e 191C     		mov	r1, r3
 1211 0290 221C     		mov	r2, r4
 1212 0292 8023     		mov	r3, #128
 1213 0294 1B06     		lsl	r3, r3, #24
 1214 0296 0024     		mov	r4, #0
 1215 0298 5B18     		add	r3, r3, r1
 1216 029a 5441     		adc	r4, r4, r2
 1217 029c 2200     		asr	r2, r4, #0
 1218 029e 3A60     		str	r2, [r7]
 1219 02a0 E317     		asr	r3, r4, #31
 1220 02a2 7B60     		str	r3, [r7, #4]
 1221 02a4 3B68     		ldr	r3, [r7]
 1222 02a6 8822     		mov	r2, #136
 1223 02a8 BA18     		add	r2, r7, r2
 1224 02aa 1360     		str	r3, [r2]
 223:Source\TransformFunctions/arm_cfft_q31.c **** 
 224:Source\TransformFunctions/arm_cfft_q31.c ****         pSrc[2u * l] = p0 << 1;
 1225              		.loc 1 224 0 discriminator 3
 1226 02ac 9823     		mov	r3, #152
 1227 02ae FB18     		add	r3, r7, r3
 1228 02b0 1B68     		ldr	r3, [r3]
 1229 02b2 DA00     		lsl	r2, r3, #3
 1230 02b4 8423     		mov	r3, #132
 1231 02b6 FB18     		add	r3, r7, r3
 1232 02b8 1B68     		ldr	r3, [r3]
 1233 02ba 9A18     		add	r2, r3, r2
 1234 02bc 8C23     		mov	r3, #140
 1235 02be FB18     		add	r3, r7, r3
 1236 02c0 1B68     		ldr	r3, [r3]
 1237 02c2 5B00     		lsl	r3, r3, #1
 1238 02c4 1360     		str	r3, [r2]
 225:Source\TransformFunctions/arm_cfft_q31.c ****         pSrc[2u * l + 1u] = p1 << 1;
 1239              		.loc 1 225 0 discriminator 3
 1240 02c6 9823     		mov	r3, #152
 1241 02c8 FB18     		add	r3, r7, r3
 1242 02ca 1B68     		ldr	r3, [r3]
 1243 02cc DB00     		lsl	r3, r3, #3
 1244 02ce 1A1D     		add	r2, r3, #4
 1245 02d0 8423     		mov	r3, #132
 1246 02d2 FB18     		add	r3, r7, r3
 1247 02d4 1B68     		ldr	r3, [r3]
 1248 02d6 9A18     		add	r2, r3, r2
 1249 02d8 8823     		mov	r3, #136
 1250 02da FB18     		add	r3, r7, r3
 1251 02dc 1B68     		ldr	r3, [r3]
 1252 02de 5B00     		lsl	r3, r3, #1
 1253 02e0 1360     		str	r3, [r2]
ARM GAS  C:\Users\fneves\AppData\Local\Temp\ccUiFCKc.s 			page 27


 206:Source\TransformFunctions/arm_cfft_q31.c ****     {
 1254              		.loc 1 206 0 discriminator 3
 1255 02e2 AC23     		mov	r3, #172
 1256 02e4 FB18     		add	r3, r7, r3
 1257 02e6 1B68     		ldr	r3, [r3]
 1258 02e8 0133     		add	r3, r3, #1
 1259 02ea AC22     		mov	r2, #172
 1260 02ec BA18     		add	r2, r7, r2
 1261 02ee 1360     		str	r3, [r2]
 1262              	.L22:
 206:Source\TransformFunctions/arm_cfft_q31.c ****     {
 1263              		.loc 1 206 0 is_stmt 0 discriminator 1
 1264 02f0 AC23     		mov	r3, #172
 1265 02f2 FB18     		add	r3, r7, r3
 1266 02f4 1A68     		ldr	r2, [r3]
 1267 02f6 A423     		mov	r3, #164
 1268 02f8 FB18     		add	r3, r7, r3
 1269 02fa 1B68     		ldr	r3, [r3]
 1270 02fc 9A42     		cmp	r2, r3
 1271 02fe 00D2     		bcs	.LCB1170
 1272 0300 98E6     		b	.L23	@long jump
 1273              	.LCB1170:
 226:Source\TransformFunctions/arm_cfft_q31.c **** 
 227:Source\TransformFunctions/arm_cfft_q31.c ****     }
 228:Source\TransformFunctions/arm_cfft_q31.c **** 
 229:Source\TransformFunctions/arm_cfft_q31.c ****     // first col
 230:Source\TransformFunctions/arm_cfft_q31.c ****     arm_radix4_butterfly_inverse_q31( pSrc, n2, (q31_t*)pCoef, 2u);
 1274              		.loc 1 230 0 is_stmt 1
 1275 0302 8423     		mov	r3, #132
 1276 0304 FB18     		add	r3, r7, r3
 1277 0306 1968     		ldr	r1, [r3]
 1278 0308 A423     		mov	r3, #164
 1279 030a FB18     		add	r3, r7, r3
 1280 030c 1A68     		ldr	r2, [r3]
 1281 030e FB6F     		ldr	r3, [r7, #124]
 1282 0310 081C     		mov	r0, r1
 1283 0312 111C     		mov	r1, r2
 1284 0314 1A1C     		mov	r2, r3
 1285 0316 0223     		mov	r3, #2
 1286 0318 FFF7FEFF 		bl	arm_radix4_butterfly_inverse_q31
 231:Source\TransformFunctions/arm_cfft_q31.c ****     // second col
 232:Source\TransformFunctions/arm_cfft_q31.c ****     arm_radix4_butterfly_inverse_q31( pSrc + fftLen, n2, (q31_t*)pCoef, 2u);
 1287              		.loc 1 232 0
 1288 031c 8023     		mov	r3, #128
 1289 031e FB18     		add	r3, r7, r3
 1290 0320 1B68     		ldr	r3, [r3]
 1291 0322 9B00     		lsl	r3, r3, #2
 1292 0324 8422     		mov	r2, #132
 1293 0326 BA18     		add	r2, r7, r2
 1294 0328 1268     		ldr	r2, [r2]
 1295 032a D118     		add	r1, r2, r3
 1296 032c A423     		mov	r3, #164
 1297 032e FB18     		add	r3, r7, r3
 1298 0330 1A68     		ldr	r2, [r3]
 1299 0332 FB6F     		ldr	r3, [r7, #124]
 1300 0334 081C     		mov	r0, r1
 1301 0336 111C     		mov	r1, r2
ARM GAS  C:\Users\fneves\AppData\Local\Temp\ccUiFCKc.s 			page 28


 1302 0338 1A1C     		mov	r2, r3
 1303 033a 0223     		mov	r3, #2
 1304 033c FFF7FEFF 		bl	arm_radix4_butterfly_inverse_q31
 233:Source\TransformFunctions/arm_cfft_q31.c **** 
 234:Source\TransformFunctions/arm_cfft_q31.c ****     for (i = 0; i < fftLen >> 1; i++)
 1305              		.loc 1 234 0
 1306 0340 0023     		mov	r3, #0
 1307 0342 AC22     		mov	r2, #172
 1308 0344 BA18     		add	r2, r7, r2
 1309 0346 1360     		str	r3, [r2]
 1310 0348 88E0     		b	.L24
 1311              	.L25:
 235:Source\TransformFunctions/arm_cfft_q31.c ****     {
 236:Source\TransformFunctions/arm_cfft_q31.c ****         p0 = pSrc[4*i+0];
 1312              		.loc 1 236 0 discriminator 3
 1313 034a AC23     		mov	r3, #172
 1314 034c FB18     		add	r3, r7, r3
 1315 034e 1B68     		ldr	r3, [r3]
 1316 0350 1B01     		lsl	r3, r3, #4
 1317 0352 8422     		mov	r2, #132
 1318 0354 BA18     		add	r2, r7, r2
 1319 0356 1268     		ldr	r2, [r2]
 1320 0358 D318     		add	r3, r2, r3
 1321 035a 1B68     		ldr	r3, [r3]
 1322 035c 8C22     		mov	r2, #140
 1323 035e BA18     		add	r2, r7, r2
 1324 0360 1360     		str	r3, [r2]
 237:Source\TransformFunctions/arm_cfft_q31.c ****         p1 = pSrc[4*i+1];
 1325              		.loc 1 237 0 discriminator 3
 1326 0362 AC23     		mov	r3, #172
 1327 0364 FB18     		add	r3, r7, r3
 1328 0366 1B68     		ldr	r3, [r3]
 1329 0368 1B01     		lsl	r3, r3, #4
 1330 036a 0433     		add	r3, r3, #4
 1331 036c 8422     		mov	r2, #132
 1332 036e BA18     		add	r2, r7, r2
 1333 0370 1268     		ldr	r2, [r2]
 1334 0372 D318     		add	r3, r2, r3
 1335 0374 1B68     		ldr	r3, [r3]
 1336 0376 8822     		mov	r2, #136
 1337 0378 BA18     		add	r2, r7, r2
 1338 037a 1360     		str	r3, [r2]
 238:Source\TransformFunctions/arm_cfft_q31.c ****         xt = pSrc[4*i+2];
 1339              		.loc 1 238 0 discriminator 3
 1340 037c AC23     		mov	r3, #172
 1341 037e FB18     		add	r3, r7, r3
 1342 0380 1B68     		ldr	r3, [r3]
 1343 0382 1B01     		lsl	r3, r3, #4
 1344 0384 0833     		add	r3, r3, #8
 1345 0386 8422     		mov	r2, #132
 1346 0388 BA18     		add	r2, r7, r2
 1347 038a 1268     		ldr	r2, [r2]
 1348 038c D318     		add	r3, r2, r3
 1349 038e 1B68     		ldr	r3, [r3]
 1350 0390 9422     		mov	r2, #148
 1351 0392 BA18     		add	r2, r7, r2
 1352 0394 1360     		str	r3, [r2]
ARM GAS  C:\Users\fneves\AppData\Local\Temp\ccUiFCKc.s 			page 29


 239:Source\TransformFunctions/arm_cfft_q31.c ****         yt = pSrc[4*i+3];
 1353              		.loc 1 239 0 discriminator 3
 1354 0396 AC23     		mov	r3, #172
 1355 0398 FB18     		add	r3, r7, r3
 1356 039a 1B68     		ldr	r3, [r3]
 1357 039c 1B01     		lsl	r3, r3, #4
 1358 039e 0C33     		add	r3, r3, #12
 1359 03a0 8422     		mov	r2, #132
 1360 03a2 BA18     		add	r2, r7, r2
 1361 03a4 1268     		ldr	r2, [r2]
 1362 03a6 D318     		add	r3, r2, r3
 1363 03a8 1B68     		ldr	r3, [r3]
 1364 03aa 9022     		mov	r2, #144
 1365 03ac BA18     		add	r2, r7, r2
 1366 03ae 1360     		str	r3, [r2]
 240:Source\TransformFunctions/arm_cfft_q31.c **** 
 241:Source\TransformFunctions/arm_cfft_q31.c ****         p0 <<= 1;
 1367              		.loc 1 241 0 discriminator 3
 1368 03b0 8C23     		mov	r3, #140
 1369 03b2 FB18     		add	r3, r7, r3
 1370 03b4 1B68     		ldr	r3, [r3]
 1371 03b6 5B00     		lsl	r3, r3, #1
 1372 03b8 8C22     		mov	r2, #140
 1373 03ba BA18     		add	r2, r7, r2
 1374 03bc 1360     		str	r3, [r2]
 242:Source\TransformFunctions/arm_cfft_q31.c ****         p1 <<= 1;
 1375              		.loc 1 242 0 discriminator 3
 1376 03be 8823     		mov	r3, #136
 1377 03c0 FB18     		add	r3, r7, r3
 1378 03c2 1B68     		ldr	r3, [r3]
 1379 03c4 5B00     		lsl	r3, r3, #1
 1380 03c6 8822     		mov	r2, #136
 1381 03c8 BA18     		add	r2, r7, r2
 1382 03ca 1360     		str	r3, [r2]
 243:Source\TransformFunctions/arm_cfft_q31.c ****         xt <<= 1;
 1383              		.loc 1 243 0 discriminator 3
 1384 03cc 9423     		mov	r3, #148
 1385 03ce FB18     		add	r3, r7, r3
 1386 03d0 1B68     		ldr	r3, [r3]
 1387 03d2 5B00     		lsl	r3, r3, #1
 1388 03d4 9422     		mov	r2, #148
 1389 03d6 BA18     		add	r2, r7, r2
 1390 03d8 1360     		str	r3, [r2]
 244:Source\TransformFunctions/arm_cfft_q31.c ****         yt <<= 1;
 1391              		.loc 1 244 0 discriminator 3
 1392 03da 9023     		mov	r3, #144
 1393 03dc FB18     		add	r3, r7, r3
 1394 03de 1B68     		ldr	r3, [r3]
 1395 03e0 5B00     		lsl	r3, r3, #1
 1396 03e2 9022     		mov	r2, #144
 1397 03e4 BA18     		add	r2, r7, r2
 1398 03e6 1360     		str	r3, [r2]
 245:Source\TransformFunctions/arm_cfft_q31.c **** 
 246:Source\TransformFunctions/arm_cfft_q31.c ****         pSrc[4*i+0] = p0;
 1399              		.loc 1 246 0 discriminator 3
 1400 03e8 AC23     		mov	r3, #172
 1401 03ea FB18     		add	r3, r7, r3
ARM GAS  C:\Users\fneves\AppData\Local\Temp\ccUiFCKc.s 			page 30


 1402 03ec 1B68     		ldr	r3, [r3]
 1403 03ee 1B01     		lsl	r3, r3, #4
 1404 03f0 8422     		mov	r2, #132
 1405 03f2 BA18     		add	r2, r7, r2
 1406 03f4 1268     		ldr	r2, [r2]
 1407 03f6 D318     		add	r3, r2, r3
 1408 03f8 8C22     		mov	r2, #140
 1409 03fa BA18     		add	r2, r7, r2
 1410 03fc 1268     		ldr	r2, [r2]
 1411 03fe 1A60     		str	r2, [r3]
 247:Source\TransformFunctions/arm_cfft_q31.c ****         pSrc[4*i+1] = p1;
 1412              		.loc 1 247 0 discriminator 3
 1413 0400 AC23     		mov	r3, #172
 1414 0402 FB18     		add	r3, r7, r3
 1415 0404 1B68     		ldr	r3, [r3]
 1416 0406 1B01     		lsl	r3, r3, #4
 1417 0408 0433     		add	r3, r3, #4
 1418 040a 8422     		mov	r2, #132
 1419 040c BA18     		add	r2, r7, r2
 1420 040e 1268     		ldr	r2, [r2]
 1421 0410 D318     		add	r3, r2, r3
 1422 0412 8822     		mov	r2, #136
 1423 0414 BA18     		add	r2, r7, r2
 1424 0416 1268     		ldr	r2, [r2]
 1425 0418 1A60     		str	r2, [r3]
 248:Source\TransformFunctions/arm_cfft_q31.c ****         pSrc[4*i+2] = xt;
 1426              		.loc 1 248 0 discriminator 3
 1427 041a AC23     		mov	r3, #172
 1428 041c FB18     		add	r3, r7, r3
 1429 041e 1B68     		ldr	r3, [r3]
 1430 0420 1B01     		lsl	r3, r3, #4
 1431 0422 0833     		add	r3, r3, #8
 1432 0424 8422     		mov	r2, #132
 1433 0426 BA18     		add	r2, r7, r2
 1434 0428 1268     		ldr	r2, [r2]
 1435 042a D318     		add	r3, r2, r3
 1436 042c 9422     		mov	r2, #148
 1437 042e BA18     		add	r2, r7, r2
 1438 0430 1268     		ldr	r2, [r2]
 1439 0432 1A60     		str	r2, [r3]
 249:Source\TransformFunctions/arm_cfft_q31.c ****         pSrc[4*i+3] = yt;
 1440              		.loc 1 249 0 discriminator 3
 1441 0434 AC23     		mov	r3, #172
 1442 0436 FB18     		add	r3, r7, r3
 1443 0438 1B68     		ldr	r3, [r3]
 1444 043a 1B01     		lsl	r3, r3, #4
 1445 043c 0C33     		add	r3, r3, #12
 1446 043e 8422     		mov	r2, #132
 1447 0440 BA18     		add	r2, r7, r2
 1448 0442 1268     		ldr	r2, [r2]
 1449 0444 D318     		add	r3, r2, r3
 1450 0446 9022     		mov	r2, #144
 1451 0448 BA18     		add	r2, r7, r2
 1452 044a 1268     		ldr	r2, [r2]
 1453 044c 1A60     		str	r2, [r3]
 234:Source\TransformFunctions/arm_cfft_q31.c ****     {
 1454              		.loc 1 234 0 discriminator 3
ARM GAS  C:\Users\fneves\AppData\Local\Temp\ccUiFCKc.s 			page 31


 1455 044e AC23     		mov	r3, #172
 1456 0450 FB18     		add	r3, r7, r3
 1457 0452 1B68     		ldr	r3, [r3]
 1458 0454 0133     		add	r3, r3, #1
 1459 0456 AC22     		mov	r2, #172
 1460 0458 BA18     		add	r2, r7, r2
 1461 045a 1360     		str	r3, [r2]
 1462              	.L24:
 234:Source\TransformFunctions/arm_cfft_q31.c ****     {
 1463              		.loc 1 234 0 is_stmt 0 discriminator 1
 1464 045c 8023     		mov	r3, #128
 1465 045e FB18     		add	r3, r7, r3
 1466 0460 1B68     		ldr	r3, [r3]
 1467 0462 5A08     		lsr	r2, r3, #1
 1468 0464 AC23     		mov	r3, #172
 1469 0466 FB18     		add	r3, r7, r3
 1470 0468 1B68     		ldr	r3, [r3]
 1471 046a 9A42     		cmp	r2, r3
 1472 046c 00D9     		bls	.LCB1355
 1473 046e 6CE7     		b	.L25	@long jump
 1474              	.LCB1355:
 250:Source\TransformFunctions/arm_cfft_q31.c ****     }
 251:Source\TransformFunctions/arm_cfft_q31.c **** }
 1475              		.loc 1 251 0 is_stmt 1
 1476 0470 BD46     		mov	sp, r7
 1477 0472 2DB0     		add	sp, sp, #180
 1478              		@ sp needed
 1479 0474 F0BD     		pop	{r4, r5, r6, r7, pc}
 1480              		.cfi_endproc
 1481              	.LFE84:
 1482              		.size	arm_cfft_radix4by2_inverse_q31, .-arm_cfft_radix4by2_inverse_q31
 1483 0476 C046     		.text
 1484              	.Letext0:
 1485              		.file 2 "c:\\program files (x86)\\cypress\\psoc creator\\4.0\\psoc creator\\import\\gnu\\arm\\4.9.
 1486              		.file 3 "c:\\program files (x86)\\cypress\\psoc creator\\4.0\\psoc creator\\import\\gnu\\arm\\4.9.
 1487              		.file 4 ".\\Include/arm_math.h"
 1488              		.section	.debug_info,"",%progbits
 1489              	.Ldebug_info0:
 1490 0000 5F030000 		.4byte	0x35f
 1491 0004 0400     		.2byte	0x4
 1492 0006 00000000 		.4byte	.Ldebug_abbrev0
 1493 000a 04       		.byte	0x4
 1494 000b 01       		.uleb128 0x1
 1495 000c 81010000 		.4byte	.LASF39
 1496 0010 01       		.byte	0x1
 1497 0011 CA000000 		.4byte	.LASF40
 1498 0015 29000000 		.4byte	.LASF41
 1499 0019 00000000 		.4byte	.Ldebug_ranges0+0
 1500 001d 00000000 		.4byte	0
 1501 0021 00000000 		.4byte	.Ldebug_line0
 1502 0025 02       		.uleb128 0x2
 1503 0026 01       		.byte	0x1
 1504 0027 06       		.byte	0x6
 1505 0028 B3020000 		.4byte	.LASF0
 1506 002c 03       		.uleb128 0x3
 1507 002d 08000000 		.4byte	.LASF3
 1508 0031 02       		.byte	0x2
ARM GAS  C:\Users\fneves\AppData\Local\Temp\ccUiFCKc.s 			page 32


 1509 0032 1D       		.byte	0x1d
 1510 0033 37000000 		.4byte	0x37
 1511 0037 02       		.uleb128 0x2
 1512 0038 01       		.byte	0x1
 1513 0039 08       		.byte	0x8
 1514 003a 97000000 		.4byte	.LASF1
 1515 003e 02       		.uleb128 0x2
 1516 003f 02       		.byte	0x2
 1517 0040 05       		.byte	0x5
 1518 0041 5C020000 		.4byte	.LASF2
 1519 0045 03       		.uleb128 0x3
 1520 0046 20010000 		.4byte	.LASF4
 1521 004a 02       		.byte	0x2
 1522 004b 2B       		.byte	0x2b
 1523 004c 50000000 		.4byte	0x50
 1524 0050 02       		.uleb128 0x2
 1525 0051 02       		.byte	0x2
 1526 0052 07       		.byte	0x7
 1527 0053 B7000000 		.4byte	.LASF5
 1528 0057 03       		.uleb128 0x3
 1529 0058 12000000 		.4byte	.LASF6
 1530 005c 02       		.byte	0x2
 1531 005d 3F       		.byte	0x3f
 1532 005e 62000000 		.4byte	0x62
 1533 0062 02       		.uleb128 0x2
 1534 0063 04       		.byte	0x4
 1535 0064 05       		.byte	0x5
 1536 0065 97020000 		.4byte	.LASF7
 1537 0069 03       		.uleb128 0x3
 1538 006a 32010000 		.4byte	.LASF8
 1539 006e 02       		.byte	0x2
 1540 006f 41       		.byte	0x41
 1541 0070 74000000 		.4byte	0x74
 1542 0074 02       		.uleb128 0x2
 1543 0075 04       		.byte	0x4
 1544 0076 07       		.byte	0x7
 1545 0077 A5000000 		.4byte	.LASF9
 1546 007b 03       		.uleb128 0x3
 1547 007c 16010000 		.4byte	.LASF10
 1548 0080 02       		.byte	0x2
 1549 0081 59       		.byte	0x59
 1550 0082 86000000 		.4byte	0x86
 1551 0086 02       		.uleb128 0x2
 1552 0087 08       		.byte	0x8
 1553 0088 05       		.byte	0x5
 1554 0089 39020000 		.4byte	.LASF11
 1555 008d 02       		.uleb128 0x2
 1556 008e 08       		.byte	0x8
 1557 008f 07       		.byte	0x7
 1558 0090 6A010000 		.4byte	.LASF12
 1559 0094 04       		.uleb128 0x4
 1560 0095 04       		.byte	0x4
 1561 0096 05       		.byte	0x5
 1562 0097 696E7400 		.ascii	"int\000"
 1563 009b 02       		.uleb128 0x2
 1564 009c 04       		.byte	0x4
 1565 009d 07       		.byte	0x7
ARM GAS  C:\Users\fneves\AppData\Local\Temp\ccUiFCKc.s 			page 33


 1566 009e 46010000 		.4byte	.LASF13
 1567 00a2 03       		.uleb128 0x3
 1568 00a3 6F000000 		.4byte	.LASF14
 1569 00a7 03       		.byte	0x3
 1570 00a8 15       		.byte	0x15
 1571 00a9 2C000000 		.4byte	0x2c
 1572 00ad 03       		.uleb128 0x3
 1573 00ae 85020000 		.4byte	.LASF15
 1574 00b2 03       		.byte	0x3
 1575 00b3 21       		.byte	0x21
 1576 00b4 45000000 		.4byte	0x45
 1577 00b8 03       		.uleb128 0x3
 1578 00b9 28020000 		.4byte	.LASF16
 1579 00bd 03       		.byte	0x3
 1580 00be 2C       		.byte	0x2c
 1581 00bf 57000000 		.4byte	0x57
 1582 00c3 03       		.uleb128 0x3
 1583 00c4 8E020000 		.4byte	.LASF17
 1584 00c8 03       		.byte	0x3
 1585 00c9 2D       		.byte	0x2d
 1586 00ca 69000000 		.4byte	0x69
 1587 00ce 03       		.uleb128 0x3
 1588 00cf 00000000 		.4byte	.LASF18
 1589 00d3 03       		.byte	0x3
 1590 00d4 38       		.byte	0x38
 1591 00d5 7B000000 		.4byte	0x7b
 1592 00d9 02       		.uleb128 0x2
 1593 00da 04       		.byte	0x4
 1594 00db 07       		.byte	0x7
 1595 00dc 30020000 		.4byte	.LASF19
 1596 00e0 02       		.uleb128 0x2
 1597 00e1 01       		.byte	0x1
 1598 00e2 08       		.byte	0x8
 1599 00e3 50020000 		.4byte	.LASF20
 1600 00e7 02       		.uleb128 0x2
 1601 00e8 08       		.byte	0x8
 1602 00e9 04       		.byte	0x4
 1603 00ea 2B010000 		.4byte	.LASF21
 1604 00ee 02       		.uleb128 0x2
 1605 00ef 04       		.byte	0x4
 1606 00f0 04       		.byte	0x4
 1607 00f1 84000000 		.4byte	.LASF22
 1608 00f5 02       		.uleb128 0x2
 1609 00f6 08       		.byte	0x8
 1610 00f7 04       		.byte	0x4
 1611 00f8 A0020000 		.4byte	.LASF23
 1612 00fc 05       		.uleb128 0x5
 1613 00fd 91000000 		.4byte	.LASF24
 1614 0101 04       		.byte	0x4
 1615 0102 9B01     		.2byte	0x19b
 1616 0104 B8000000 		.4byte	0xb8
 1617 0108 05       		.uleb128 0x5
 1618 0109 22020000 		.4byte	.LASF25
 1619 010d 04       		.byte	0x4
 1620 010e A001     		.2byte	0x1a0
 1621 0110 CE000000 		.4byte	0xce
 1622 0114 06       		.uleb128 0x6
ARM GAS  C:\Users\fneves\AppData\Local\Temp\ccUiFCKc.s 			page 34


 1623 0115 04       		.byte	0x4
 1624 0116 FC000000 		.4byte	0xfc
 1625 011a 06       		.uleb128 0x6
 1626 011b 04       		.byte	0x4
 1627 011c 20010000 		.4byte	0x120
 1628 0120 07       		.uleb128 0x7
 1629 0121 AD000000 		.4byte	0xad
 1630 0125 08       		.uleb128 0x8
 1631 0126 10       		.byte	0x10
 1632 0127 04       		.byte	0x4
 1633 0128 8D08     		.2byte	0x88d
 1634 012a 63010000 		.4byte	0x163
 1635 012e 09       		.uleb128 0x9
 1636 012f AC020000 		.4byte	.LASF26
 1637 0133 04       		.byte	0x4
 1638 0134 8F08     		.2byte	0x88f
 1639 0136 AD000000 		.4byte	0xad
 1640 013a 00       		.byte	0
 1641 013b 09       		.uleb128 0x9
 1642 013c 47020000 		.4byte	.LASF27
 1643 0140 04       		.byte	0x4
 1644 0141 9008     		.2byte	0x890
 1645 0143 63010000 		.4byte	0x163
 1646 0147 04       		.byte	0x4
 1647 0148 09       		.uleb128 0x9
 1648 0149 77000000 		.4byte	.LASF28
 1649 014d 04       		.byte	0x4
 1650 014e 9108     		.2byte	0x891
 1651 0150 1A010000 		.4byte	0x11a
 1652 0154 08       		.byte	0x8
 1653 0155 09       		.uleb128 0x9
 1654 0156 09010000 		.4byte	.LASF29
 1655 015a 04       		.byte	0x4
 1656 015b 9208     		.2byte	0x892
 1657 015d AD000000 		.4byte	0xad
 1658 0161 0C       		.byte	0xc
 1659 0162 00       		.byte	0
 1660 0163 06       		.uleb128 0x6
 1661 0164 04       		.byte	0x4
 1662 0165 69010000 		.4byte	0x169
 1663 0169 07       		.uleb128 0x7
 1664 016a FC000000 		.4byte	0xfc
 1665 016e 05       		.uleb128 0x5
 1666 016f F3000000 		.4byte	.LASF30
 1667 0173 04       		.byte	0x4
 1668 0174 9308     		.2byte	0x893
 1669 0176 25010000 		.4byte	0x125
 1670 017a 06       		.uleb128 0x6
 1671 017b 04       		.byte	0x4
 1672 017c 80010000 		.4byte	0x180
 1673 0180 07       		.uleb128 0x7
 1674 0181 6E010000 		.4byte	0x16e
 1675 0185 0A       		.uleb128 0xa
 1676 0186 1C000000 		.4byte	.LASF33
 1677 018a 01       		.byte	0x1
 1678 018b 4D       		.byte	0x4d
 1679 018c 00000000 		.4byte	.LFB82
ARM GAS  C:\Users\fneves\AppData\Local\Temp\ccUiFCKc.s 			page 35


 1680 0190 42010000 		.4byte	.LFE82-.LFB82
 1681 0194 01       		.uleb128 0x1
 1682 0195 9C       		.byte	0x9c
 1683 0196 DC010000 		.4byte	0x1dc
 1684 019a 0B       		.uleb128 0xb
 1685 019b 5300     		.ascii	"S\000"
 1686 019d 01       		.byte	0x1
 1687 019e 4E       		.byte	0x4e
 1688 019f 7A010000 		.4byte	0x17a
 1689 01a3 02       		.uleb128 0x2
 1690 01a4 91       		.byte	0x91
 1691 01a5 6C       		.sleb128 -20
 1692 01a6 0B       		.uleb128 0xb
 1693 01a7 703100   		.ascii	"p1\000"
 1694 01aa 01       		.byte	0x1
 1695 01ab 4F       		.byte	0x4f
 1696 01ac 14010000 		.4byte	0x114
 1697 01b0 02       		.uleb128 0x2
 1698 01b1 91       		.byte	0x91
 1699 01b2 68       		.sleb128 -24
 1700 01b3 0C       		.uleb128 0xc
 1701 01b4 3D010000 		.4byte	.LASF31
 1702 01b8 01       		.byte	0x1
 1703 01b9 50       		.byte	0x50
 1704 01ba A2000000 		.4byte	0xa2
 1705 01be 02       		.uleb128 0x2
 1706 01bf 91       		.byte	0x91
 1707 01c0 67       		.sleb128 -25
 1708 01c1 0C       		.uleb128 0xc
 1709 01c2 13020000 		.4byte	.LASF32
 1710 01c6 01       		.byte	0x1
 1711 01c7 51       		.byte	0x51
 1712 01c8 A2000000 		.4byte	0xa2
 1713 01cc 02       		.uleb128 0x2
 1714 01cd 91       		.byte	0x91
 1715 01ce 66       		.sleb128 -26
 1716 01cf 0D       		.uleb128 0xd
 1717 01d0 4C00     		.ascii	"L\000"
 1718 01d2 01       		.byte	0x1
 1719 01d3 53       		.byte	0x53
 1720 01d4 C3000000 		.4byte	0xc3
 1721 01d8 02       		.uleb128 0x2
 1722 01d9 91       		.byte	0x91
 1723 01da 74       		.sleb128 -12
 1724 01db 00       		.byte	0
 1725 01dc 0A       		.uleb128 0xa
 1726 01dd 53010000 		.4byte	.LASF34
 1727 01e1 01       		.byte	0x1
 1728 01e2 86       		.byte	0x86
 1729 01e3 00000000 		.4byte	.LFB83
 1730 01e7 76040000 		.4byte	.LFE83-.LFB83
 1731 01eb 01       		.uleb128 0x1
 1732 01ec 9C       		.byte	0x9c
 1733 01ed A1020000 		.4byte	0x2a1
 1734 01f1 0C       		.uleb128 0xc
 1735 01f2 BF020000 		.4byte	.LASF35
 1736 01f6 01       		.byte	0x1
ARM GAS  C:\Users\fneves\AppData\Local\Temp\ccUiFCKc.s 			page 36


 1737 01f7 87       		.byte	0x87
 1738 01f8 14010000 		.4byte	0x114
 1739 01fc 03       		.uleb128 0x3
 1740 01fd 91       		.byte	0x91
 1741 01fe BC7F     		.sleb128 -68
 1742 0200 0C       		.uleb128 0xc
 1743 0201 AC020000 		.4byte	.LASF26
 1744 0205 01       		.byte	0x1
 1745 0206 88       		.byte	0x88
 1746 0207 C3000000 		.4byte	0xc3
 1747 020b 03       		.uleb128 0x3
 1748 020c 91       		.byte	0x91
 1749 020d B87F     		.sleb128 -72
 1750 020f 0C       		.uleb128 0xc
 1751 0210 C4020000 		.4byte	.LASF36
 1752 0214 01       		.byte	0x1
 1753 0215 89       		.byte	0x89
 1754 0216 63010000 		.4byte	0x163
 1755 021a 03       		.uleb128 0x3
 1756 021b 91       		.byte	0x91
 1757 021c B47F     		.sleb128 -76
 1758 021e 0D       		.uleb128 0xd
 1759 021f 6900     		.ascii	"i\000"
 1760 0221 01       		.byte	0x1
 1761 0222 8B       		.byte	0x8b
 1762 0223 C3000000 		.4byte	0xc3
 1763 0227 02       		.uleb128 0x2
 1764 0228 91       		.byte	0x91
 1765 0229 64       		.sleb128 -28
 1766 022a 0D       		.uleb128 0xd
 1767 022b 6C00     		.ascii	"l\000"
 1768 022d 01       		.byte	0x1
 1769 022e 8B       		.byte	0x8b
 1770 022f C3000000 		.4byte	0xc3
 1771 0233 02       		.uleb128 0x2
 1772 0234 91       		.byte	0x91
 1773 0235 50       		.sleb128 -48
 1774 0236 0D       		.uleb128 0xd
 1775 0237 6E3200   		.ascii	"n2\000"
 1776 023a 01       		.byte	0x1
 1777 023b 8C       		.byte	0x8c
 1778 023c C3000000 		.4byte	0xc3
 1779 0240 02       		.uleb128 0x2
 1780 0241 91       		.byte	0x91
 1781 0242 5C       		.sleb128 -36
 1782 0243 0D       		.uleb128 0xd
 1783 0244 696100   		.ascii	"ia\000"
 1784 0247 01       		.byte	0x1
 1785 0248 8C       		.byte	0x8c
 1786 0249 C3000000 		.4byte	0xc3
 1787 024d 02       		.uleb128 0x2
 1788 024e 91       		.byte	0x91
 1789 024f 60       		.sleb128 -32
 1790 0250 0D       		.uleb128 0xd
 1791 0251 787400   		.ascii	"xt\000"
 1792 0254 01       		.byte	0x1
 1793 0255 8D       		.byte	0x8d
ARM GAS  C:\Users\fneves\AppData\Local\Temp\ccUiFCKc.s 			page 37


 1794 0256 FC000000 		.4byte	0xfc
 1795 025a 02       		.uleb128 0x2
 1796 025b 91       		.byte	0x91
 1797 025c 4C       		.sleb128 -52
 1798 025d 0D       		.uleb128 0xd
 1799 025e 797400   		.ascii	"yt\000"
 1800 0261 01       		.byte	0x1
 1801 0262 8D       		.byte	0x8d
 1802 0263 FC000000 		.4byte	0xfc
 1803 0267 02       		.uleb128 0x2
 1804 0268 91       		.byte	0x91
 1805 0269 48       		.sleb128 -56
 1806 026a 0E       		.uleb128 0xe
 1807 026b 55020000 		.4byte	.LASF37
 1808 026f 01       		.byte	0x1
 1809 0270 8D       		.byte	0x8d
 1810 0271 FC000000 		.4byte	0xfc
 1811 0275 02       		.uleb128 0x2
 1812 0276 91       		.byte	0x91
 1813 0277 58       		.sleb128 -40
 1814 0278 0E       		.uleb128 0xe
 1815 0279 8A000000 		.4byte	.LASF38
 1816 027d 01       		.byte	0x1
 1817 027e 8D       		.byte	0x8d
 1818 027f FC000000 		.4byte	0xfc
 1819 0283 02       		.uleb128 0x2
 1820 0284 91       		.byte	0x91
 1821 0285 54       		.sleb128 -44
 1822 0286 0D       		.uleb128 0xd
 1823 0287 703000   		.ascii	"p0\000"
 1824 028a 01       		.byte	0x1
 1825 028b 8E       		.byte	0x8e
 1826 028c FC000000 		.4byte	0xfc
 1827 0290 02       		.uleb128 0x2
 1828 0291 91       		.byte	0x91
 1829 0292 44       		.sleb128 -60
 1830 0293 0D       		.uleb128 0xd
 1831 0294 703100   		.ascii	"p1\000"
 1832 0297 01       		.byte	0x1
 1833 0298 8E       		.byte	0x8e
 1834 0299 FC000000 		.4byte	0xfc
 1835 029d 02       		.uleb128 0x2
 1836 029e 91       		.byte	0x91
 1837 029f 40       		.sleb128 -64
 1838 02a0 00       		.byte	0
 1839 02a1 0F       		.uleb128 0xf
 1840 02a2 66020000 		.4byte	.LASF42
 1841 02a6 01       		.byte	0x1
 1842 02a7 C2       		.byte	0xc2
 1843 02a8 00000000 		.4byte	.LFB84
 1844 02ac 76040000 		.4byte	.LFE84-.LFB84
 1845 02b0 01       		.uleb128 0x1
 1846 02b1 9C       		.byte	0x9c
 1847 02b2 0C       		.uleb128 0xc
 1848 02b3 BF020000 		.4byte	.LASF35
 1849 02b7 01       		.byte	0x1
 1850 02b8 C3       		.byte	0xc3
ARM GAS  C:\Users\fneves\AppData\Local\Temp\ccUiFCKc.s 			page 38


 1851 02b9 14010000 		.4byte	0x114
 1852 02bd 03       		.uleb128 0x3
 1853 02be 91       		.byte	0x91
 1854 02bf BC7F     		.sleb128 -68
 1855 02c1 0C       		.uleb128 0xc
 1856 02c2 AC020000 		.4byte	.LASF26
 1857 02c6 01       		.byte	0x1
 1858 02c7 C4       		.byte	0xc4
 1859 02c8 C3000000 		.4byte	0xc3
 1860 02cc 03       		.uleb128 0x3
 1861 02cd 91       		.byte	0x91
 1862 02ce B87F     		.sleb128 -72
 1863 02d0 0C       		.uleb128 0xc
 1864 02d1 C4020000 		.4byte	.LASF36
 1865 02d5 01       		.byte	0x1
 1866 02d6 C5       		.byte	0xc5
 1867 02d7 63010000 		.4byte	0x163
 1868 02db 03       		.uleb128 0x3
 1869 02dc 91       		.byte	0x91
 1870 02dd B47F     		.sleb128 -76
 1871 02df 0D       		.uleb128 0xd
 1872 02e0 6900     		.ascii	"i\000"
 1873 02e2 01       		.byte	0x1
 1874 02e3 C7       		.byte	0xc7
 1875 02e4 C3000000 		.4byte	0xc3
 1876 02e8 02       		.uleb128 0x2
 1877 02e9 91       		.byte	0x91
 1878 02ea 64       		.sleb128 -28
 1879 02eb 0D       		.uleb128 0xd
 1880 02ec 6C00     		.ascii	"l\000"
 1881 02ee 01       		.byte	0x1
 1882 02ef C7       		.byte	0xc7
 1883 02f0 C3000000 		.4byte	0xc3
 1884 02f4 02       		.uleb128 0x2
 1885 02f5 91       		.byte	0x91
 1886 02f6 50       		.sleb128 -48
 1887 02f7 0D       		.uleb128 0xd
 1888 02f8 6E3200   		.ascii	"n2\000"
 1889 02fb 01       		.byte	0x1
 1890 02fc C8       		.byte	0xc8
 1891 02fd C3000000 		.4byte	0xc3
 1892 0301 02       		.uleb128 0x2
 1893 0302 91       		.byte	0x91
 1894 0303 5C       		.sleb128 -36
 1895 0304 0D       		.uleb128 0xd
 1896 0305 696100   		.ascii	"ia\000"
 1897 0308 01       		.byte	0x1
 1898 0309 C8       		.byte	0xc8
 1899 030a C3000000 		.4byte	0xc3
 1900 030e 02       		.uleb128 0x2
 1901 030f 91       		.byte	0x91
 1902 0310 60       		.sleb128 -32
 1903 0311 0D       		.uleb128 0xd
 1904 0312 787400   		.ascii	"xt\000"
 1905 0315 01       		.byte	0x1
 1906 0316 C9       		.byte	0xc9
 1907 0317 FC000000 		.4byte	0xfc
ARM GAS  C:\Users\fneves\AppData\Local\Temp\ccUiFCKc.s 			page 39


 1908 031b 02       		.uleb128 0x2
 1909 031c 91       		.byte	0x91
 1910 031d 4C       		.sleb128 -52
 1911 031e 0D       		.uleb128 0xd
 1912 031f 797400   		.ascii	"yt\000"
 1913 0322 01       		.byte	0x1
 1914 0323 C9       		.byte	0xc9
 1915 0324 FC000000 		.4byte	0xfc
 1916 0328 02       		.uleb128 0x2
 1917 0329 91       		.byte	0x91
 1918 032a 48       		.sleb128 -56
 1919 032b 0E       		.uleb128 0xe
 1920 032c 55020000 		.4byte	.LASF37
 1921 0330 01       		.byte	0x1
 1922 0331 C9       		.byte	0xc9
 1923 0332 FC000000 		.4byte	0xfc
 1924 0336 02       		.uleb128 0x2
 1925 0337 91       		.byte	0x91
 1926 0338 58       		.sleb128 -40
 1927 0339 0E       		.uleb128 0xe
 1928 033a 8A000000 		.4byte	.LASF38
 1929 033e 01       		.byte	0x1
 1930 033f C9       		.byte	0xc9
 1931 0340 FC000000 		.4byte	0xfc
 1932 0344 02       		.uleb128 0x2
 1933 0345 91       		.byte	0x91
 1934 0346 54       		.sleb128 -44
 1935 0347 0D       		.uleb128 0xd
 1936 0348 703000   		.ascii	"p0\000"
 1937 034b 01       		.byte	0x1
 1938 034c CA       		.byte	0xca
 1939 034d FC000000 		.4byte	0xfc
 1940 0351 02       		.uleb128 0x2
 1941 0352 91       		.byte	0x91
 1942 0353 44       		.sleb128 -60
 1943 0354 0D       		.uleb128 0xd
 1944 0355 703100   		.ascii	"p1\000"
 1945 0358 01       		.byte	0x1
 1946 0359 CA       		.byte	0xca
 1947 035a FC000000 		.4byte	0xfc
 1948 035e 02       		.uleb128 0x2
 1949 035f 91       		.byte	0x91
 1950 0360 40       		.sleb128 -64
 1951 0361 00       		.byte	0
 1952 0362 00       		.byte	0
 1953              		.section	.debug_abbrev,"",%progbits
 1954              	.Ldebug_abbrev0:
 1955 0000 01       		.uleb128 0x1
 1956 0001 11       		.uleb128 0x11
 1957 0002 01       		.byte	0x1
 1958 0003 25       		.uleb128 0x25
 1959 0004 0E       		.uleb128 0xe
 1960 0005 13       		.uleb128 0x13
 1961 0006 0B       		.uleb128 0xb
 1962 0007 03       		.uleb128 0x3
 1963 0008 0E       		.uleb128 0xe
 1964 0009 1B       		.uleb128 0x1b
ARM GAS  C:\Users\fneves\AppData\Local\Temp\ccUiFCKc.s 			page 40


 1965 000a 0E       		.uleb128 0xe
 1966 000b 55       		.uleb128 0x55
 1967 000c 17       		.uleb128 0x17
 1968 000d 11       		.uleb128 0x11
 1969 000e 01       		.uleb128 0x1
 1970 000f 10       		.uleb128 0x10
 1971 0010 17       		.uleb128 0x17
 1972 0011 00       		.byte	0
 1973 0012 00       		.byte	0
 1974 0013 02       		.uleb128 0x2
 1975 0014 24       		.uleb128 0x24
 1976 0015 00       		.byte	0
 1977 0016 0B       		.uleb128 0xb
 1978 0017 0B       		.uleb128 0xb
 1979 0018 3E       		.uleb128 0x3e
 1980 0019 0B       		.uleb128 0xb
 1981 001a 03       		.uleb128 0x3
 1982 001b 0E       		.uleb128 0xe
 1983 001c 00       		.byte	0
 1984 001d 00       		.byte	0
 1985 001e 03       		.uleb128 0x3
 1986 001f 16       		.uleb128 0x16
 1987 0020 00       		.byte	0
 1988 0021 03       		.uleb128 0x3
 1989 0022 0E       		.uleb128 0xe
 1990 0023 3A       		.uleb128 0x3a
 1991 0024 0B       		.uleb128 0xb
 1992 0025 3B       		.uleb128 0x3b
 1993 0026 0B       		.uleb128 0xb
 1994 0027 49       		.uleb128 0x49
 1995 0028 13       		.uleb128 0x13
 1996 0029 00       		.byte	0
 1997 002a 00       		.byte	0
 1998 002b 04       		.uleb128 0x4
 1999 002c 24       		.uleb128 0x24
 2000 002d 00       		.byte	0
 2001 002e 0B       		.uleb128 0xb
 2002 002f 0B       		.uleb128 0xb
 2003 0030 3E       		.uleb128 0x3e
 2004 0031 0B       		.uleb128 0xb
 2005 0032 03       		.uleb128 0x3
 2006 0033 08       		.uleb128 0x8
 2007 0034 00       		.byte	0
 2008 0035 00       		.byte	0
 2009 0036 05       		.uleb128 0x5
 2010 0037 16       		.uleb128 0x16
 2011 0038 00       		.byte	0
 2012 0039 03       		.uleb128 0x3
 2013 003a 0E       		.uleb128 0xe
 2014 003b 3A       		.uleb128 0x3a
 2015 003c 0B       		.uleb128 0xb
 2016 003d 3B       		.uleb128 0x3b
 2017 003e 05       		.uleb128 0x5
 2018 003f 49       		.uleb128 0x49
 2019 0040 13       		.uleb128 0x13
 2020 0041 00       		.byte	0
 2021 0042 00       		.byte	0
ARM GAS  C:\Users\fneves\AppData\Local\Temp\ccUiFCKc.s 			page 41


 2022 0043 06       		.uleb128 0x6
 2023 0044 0F       		.uleb128 0xf
 2024 0045 00       		.byte	0
 2025 0046 0B       		.uleb128 0xb
 2026 0047 0B       		.uleb128 0xb
 2027 0048 49       		.uleb128 0x49
 2028 0049 13       		.uleb128 0x13
 2029 004a 00       		.byte	0
 2030 004b 00       		.byte	0
 2031 004c 07       		.uleb128 0x7
 2032 004d 26       		.uleb128 0x26
 2033 004e 00       		.byte	0
 2034 004f 49       		.uleb128 0x49
 2035 0050 13       		.uleb128 0x13
 2036 0051 00       		.byte	0
 2037 0052 00       		.byte	0
 2038 0053 08       		.uleb128 0x8
 2039 0054 13       		.uleb128 0x13
 2040 0055 01       		.byte	0x1
 2041 0056 0B       		.uleb128 0xb
 2042 0057 0B       		.uleb128 0xb
 2043 0058 3A       		.uleb128 0x3a
 2044 0059 0B       		.uleb128 0xb
 2045 005a 3B       		.uleb128 0x3b
 2046 005b 05       		.uleb128 0x5
 2047 005c 01       		.uleb128 0x1
 2048 005d 13       		.uleb128 0x13
 2049 005e 00       		.byte	0
 2050 005f 00       		.byte	0
 2051 0060 09       		.uleb128 0x9
 2052 0061 0D       		.uleb128 0xd
 2053 0062 00       		.byte	0
 2054 0063 03       		.uleb128 0x3
 2055 0064 0E       		.uleb128 0xe
 2056 0065 3A       		.uleb128 0x3a
 2057 0066 0B       		.uleb128 0xb
 2058 0067 3B       		.uleb128 0x3b
 2059 0068 05       		.uleb128 0x5
 2060 0069 49       		.uleb128 0x49
 2061 006a 13       		.uleb128 0x13
 2062 006b 38       		.uleb128 0x38
 2063 006c 0B       		.uleb128 0xb
 2064 006d 00       		.byte	0
 2065 006e 00       		.byte	0
 2066 006f 0A       		.uleb128 0xa
 2067 0070 2E       		.uleb128 0x2e
 2068 0071 01       		.byte	0x1
 2069 0072 3F       		.uleb128 0x3f
 2070 0073 19       		.uleb128 0x19
 2071 0074 03       		.uleb128 0x3
 2072 0075 0E       		.uleb128 0xe
 2073 0076 3A       		.uleb128 0x3a
 2074 0077 0B       		.uleb128 0xb
 2075 0078 3B       		.uleb128 0x3b
 2076 0079 0B       		.uleb128 0xb
 2077 007a 27       		.uleb128 0x27
 2078 007b 19       		.uleb128 0x19
ARM GAS  C:\Users\fneves\AppData\Local\Temp\ccUiFCKc.s 			page 42


 2079 007c 11       		.uleb128 0x11
 2080 007d 01       		.uleb128 0x1
 2081 007e 12       		.uleb128 0x12
 2082 007f 06       		.uleb128 0x6
 2083 0080 40       		.uleb128 0x40
 2084 0081 18       		.uleb128 0x18
 2085 0082 9642     		.uleb128 0x2116
 2086 0084 19       		.uleb128 0x19
 2087 0085 01       		.uleb128 0x1
 2088 0086 13       		.uleb128 0x13
 2089 0087 00       		.byte	0
 2090 0088 00       		.byte	0
 2091 0089 0B       		.uleb128 0xb
 2092 008a 05       		.uleb128 0x5
 2093 008b 00       		.byte	0
 2094 008c 03       		.uleb128 0x3
 2095 008d 08       		.uleb128 0x8
 2096 008e 3A       		.uleb128 0x3a
 2097 008f 0B       		.uleb128 0xb
 2098 0090 3B       		.uleb128 0x3b
 2099 0091 0B       		.uleb128 0xb
 2100 0092 49       		.uleb128 0x49
 2101 0093 13       		.uleb128 0x13
 2102 0094 02       		.uleb128 0x2
 2103 0095 18       		.uleb128 0x18
 2104 0096 00       		.byte	0
 2105 0097 00       		.byte	0
 2106 0098 0C       		.uleb128 0xc
 2107 0099 05       		.uleb128 0x5
 2108 009a 00       		.byte	0
 2109 009b 03       		.uleb128 0x3
 2110 009c 0E       		.uleb128 0xe
 2111 009d 3A       		.uleb128 0x3a
 2112 009e 0B       		.uleb128 0xb
 2113 009f 3B       		.uleb128 0x3b
 2114 00a0 0B       		.uleb128 0xb
 2115 00a1 49       		.uleb128 0x49
 2116 00a2 13       		.uleb128 0x13
 2117 00a3 02       		.uleb128 0x2
 2118 00a4 18       		.uleb128 0x18
 2119 00a5 00       		.byte	0
 2120 00a6 00       		.byte	0
 2121 00a7 0D       		.uleb128 0xd
 2122 00a8 34       		.uleb128 0x34
 2123 00a9 00       		.byte	0
 2124 00aa 03       		.uleb128 0x3
 2125 00ab 08       		.uleb128 0x8
 2126 00ac 3A       		.uleb128 0x3a
 2127 00ad 0B       		.uleb128 0xb
 2128 00ae 3B       		.uleb128 0x3b
 2129 00af 0B       		.uleb128 0xb
 2130 00b0 49       		.uleb128 0x49
 2131 00b1 13       		.uleb128 0x13
 2132 00b2 02       		.uleb128 0x2
 2133 00b3 18       		.uleb128 0x18
 2134 00b4 00       		.byte	0
 2135 00b5 00       		.byte	0
ARM GAS  C:\Users\fneves\AppData\Local\Temp\ccUiFCKc.s 			page 43


 2136 00b6 0E       		.uleb128 0xe
 2137 00b7 34       		.uleb128 0x34
 2138 00b8 00       		.byte	0
 2139 00b9 03       		.uleb128 0x3
 2140 00ba 0E       		.uleb128 0xe
 2141 00bb 3A       		.uleb128 0x3a
 2142 00bc 0B       		.uleb128 0xb
 2143 00bd 3B       		.uleb128 0x3b
 2144 00be 0B       		.uleb128 0xb
 2145 00bf 49       		.uleb128 0x49
 2146 00c0 13       		.uleb128 0x13
 2147 00c1 02       		.uleb128 0x2
 2148 00c2 18       		.uleb128 0x18
 2149 00c3 00       		.byte	0
 2150 00c4 00       		.byte	0
 2151 00c5 0F       		.uleb128 0xf
 2152 00c6 2E       		.uleb128 0x2e
 2153 00c7 01       		.byte	0x1
 2154 00c8 3F       		.uleb128 0x3f
 2155 00c9 19       		.uleb128 0x19
 2156 00ca 03       		.uleb128 0x3
 2157 00cb 0E       		.uleb128 0xe
 2158 00cc 3A       		.uleb128 0x3a
 2159 00cd 0B       		.uleb128 0xb
 2160 00ce 3B       		.uleb128 0x3b
 2161 00cf 0B       		.uleb128 0xb
 2162 00d0 27       		.uleb128 0x27
 2163 00d1 19       		.uleb128 0x19
 2164 00d2 11       		.uleb128 0x11
 2165 00d3 01       		.uleb128 0x1
 2166 00d4 12       		.uleb128 0x12
 2167 00d5 06       		.uleb128 0x6
 2168 00d6 40       		.uleb128 0x40
 2169 00d7 18       		.uleb128 0x18
 2170 00d8 9642     		.uleb128 0x2116
 2171 00da 19       		.uleb128 0x19
 2172 00db 00       		.byte	0
 2173 00dc 00       		.byte	0
 2174 00dd 00       		.byte	0
 2175              		.section	.debug_aranges,"",%progbits
 2176 0000 2C000000 		.4byte	0x2c
 2177 0004 0200     		.2byte	0x2
 2178 0006 00000000 		.4byte	.Ldebug_info0
 2179 000a 04       		.byte	0x4
 2180 000b 00       		.byte	0
 2181 000c 0000     		.2byte	0
 2182 000e 0000     		.2byte	0
 2183 0010 00000000 		.4byte	.LFB82
 2184 0014 42010000 		.4byte	.LFE82-.LFB82
 2185 0018 00000000 		.4byte	.LFB83
 2186 001c 76040000 		.4byte	.LFE83-.LFB83
 2187 0020 00000000 		.4byte	.LFB84
 2188 0024 76040000 		.4byte	.LFE84-.LFB84
 2189 0028 00000000 		.4byte	0
 2190 002c 00000000 		.4byte	0
 2191              		.section	.debug_ranges,"",%progbits
 2192              	.Ldebug_ranges0:
ARM GAS  C:\Users\fneves\AppData\Local\Temp\ccUiFCKc.s 			page 44


 2193 0000 00000000 		.4byte	.LFB82
 2194 0004 42010000 		.4byte	.LFE82
 2195 0008 00000000 		.4byte	.LFB83
 2196 000c 76040000 		.4byte	.LFE83
 2197 0010 00000000 		.4byte	.LFB84
 2198 0014 76040000 		.4byte	.LFE84
 2199 0018 00000000 		.4byte	0
 2200 001c 00000000 		.4byte	0
 2201              		.section	.debug_line,"",%progbits
 2202              	.Ldebug_line0:
 2203 0000 04030000 		.section	.debug_str,"MS",%progbits,1
 2203      02004F01 
 2203      00000201 
 2203      FB0E0D00 
 2203      01010101 
 2204              	.LASF18:
 2205 0000 696E7436 		.ascii	"int64_t\000"
 2205      345F7400 
 2206              	.LASF3:
 2207 0008 5F5F7569 		.ascii	"__uint8_t\000"
 2207      6E74385F 
 2207      7400
 2208              	.LASF6:
 2209 0012 5F5F696E 		.ascii	"__int32_t\000"
 2209      7433325F 
 2209      7400
 2210              	.LASF33:
 2211 001c 61726D5F 		.ascii	"arm_cfft_q31\000"
 2211      63666674 
 2211      5F713331 
 2211      00
 2212              	.LASF41:
 2213 0029 433A5C55 		.ascii	"C:\\Users\\fneves\\Documents\\PSoC Creator\\wp_1\\e"
 2213      73657273 
 2213      5C666E65 
 2213      7665735C 
 2213      446F6375 
 2214 0056 6E67696E 		.ascii	"ngine_speed_sensor.cydsn\000"
 2214      655F7370 
 2214      6565645F 
 2214      73656E73 
 2214      6F722E63 
 2215              	.LASF14:
 2216 006f 75696E74 		.ascii	"uint8_t\000"
 2216      385F7400 
 2217              	.LASF28:
 2218 0077 70426974 		.ascii	"pBitRevTable\000"
 2218      52657654 
 2218      61626C65 
 2218      00
 2219              	.LASF22:
 2220 0084 666C6F61 		.ascii	"float\000"
 2220      7400
 2221              	.LASF38:
 2222 008a 73696E56 		.ascii	"sinVal\000"
 2222      616C00
 2223              	.LASF24:
ARM GAS  C:\Users\fneves\AppData\Local\Temp\ccUiFCKc.s 			page 45


 2224 0091 7133315F 		.ascii	"q31_t\000"
 2224      7400
 2225              	.LASF1:
 2226 0097 756E7369 		.ascii	"unsigned char\000"
 2226      676E6564 
 2226      20636861 
 2226      7200
 2227              	.LASF9:
 2228 00a5 6C6F6E67 		.ascii	"long unsigned int\000"
 2228      20756E73 
 2228      69676E65 
 2228      6420696E 
 2228      7400
 2229              	.LASF5:
 2230 00b7 73686F72 		.ascii	"short unsigned int\000"
 2230      7420756E 
 2230      7369676E 
 2230      65642069 
 2230      6E7400
 2231              	.LASF40:
 2232 00ca 536F7572 		.ascii	"Source\\TransformFunctions\\arm_cfft_q31.c\000"
 2232      63655C54 
 2232      72616E73 
 2232      666F726D 
 2232      46756E63 
 2233              	.LASF30:
 2234 00f3 61726D5F 		.ascii	"arm_cfft_instance_q31\000"
 2234      63666674 
 2234      5F696E73 
 2234      74616E63 
 2234      655F7133 
 2235              	.LASF29:
 2236 0109 62697452 		.ascii	"bitRevLength\000"
 2236      65764C65 
 2236      6E677468 
 2236      00
 2237              	.LASF10:
 2238 0116 5F5F696E 		.ascii	"__int64_t\000"
 2238      7436345F 
 2238      7400
 2239              	.LASF4:
 2240 0120 5F5F7569 		.ascii	"__uint16_t\000"
 2240      6E743136 
 2240      5F7400
 2241              	.LASF21:
 2242 012b 646F7562 		.ascii	"double\000"
 2242      6C6500
 2243              	.LASF8:
 2244 0132 5F5F7569 		.ascii	"__uint32_t\000"
 2244      6E743332 
 2244      5F7400
 2245              	.LASF31:
 2246 013d 69666674 		.ascii	"ifftFlag\000"
 2246      466C6167 
 2246      00
 2247              	.LASF13:
 2248 0146 756E7369 		.ascii	"unsigned int\000"
ARM GAS  C:\Users\fneves\AppData\Local\Temp\ccUiFCKc.s 			page 46


 2248      676E6564 
 2248      20696E74 
 2248      00
 2249              	.LASF34:
 2250 0153 61726D5F 		.ascii	"arm_cfft_radix4by2_q31\000"
 2250      63666674 
 2250      5F726164 
 2250      69783462 
 2250      79325F71 
 2251              	.LASF12:
 2252 016a 6C6F6E67 		.ascii	"long long unsigned int\000"
 2252      206C6F6E 
 2252      6720756E 
 2252      7369676E 
 2252      65642069 
 2253              	.LASF39:
 2254 0181 474E5520 		.ascii	"GNU C 4.9.3 20150303 (release) [ARM/embedded-4_9-br"
 2254      4320342E 
 2254      392E3320 
 2254      32303135 
 2254      30333033 
 2255 01b4 616E6368 		.ascii	"anch revision 221220] -mcpu=cortex-m0plus -mthumb -"
 2255      20726576 
 2255      6973696F 
 2255      6E203232 
 2255      31323230 
 2256 01e7 67202D4F 		.ascii	"g -O0 -ffunction-sections -ffat-lto-objects\000"
 2256      30202D66 
 2256      66756E63 
 2256      74696F6E 
 2256      2D736563 
 2257              	.LASF32:
 2258 0213 62697452 		.ascii	"bitReverseFlag\000"
 2258      65766572 
 2258      7365466C 
 2258      616700
 2259              	.LASF25:
 2260 0222 7136335F 		.ascii	"q63_t\000"
 2260      7400
 2261              	.LASF16:
 2262 0228 696E7433 		.ascii	"int32_t\000"
 2262      325F7400 
 2263              	.LASF19:
 2264 0230 73697A65 		.ascii	"sizetype\000"
 2264      74797065 
 2264      00
 2265              	.LASF11:
 2266 0239 6C6F6E67 		.ascii	"long long int\000"
 2266      206C6F6E 
 2266      6720696E 
 2266      7400
 2267              	.LASF27:
 2268 0247 70547769 		.ascii	"pTwiddle\000"
 2268      64646C65 
 2268      00
 2269              	.LASF20:
 2270 0250 63686172 		.ascii	"char\000"
ARM GAS  C:\Users\fneves\AppData\Local\Temp\ccUiFCKc.s 			page 47


 2270      00
 2271              	.LASF37:
 2272 0255 636F7356 		.ascii	"cosVal\000"
 2272      616C00
 2273              	.LASF2:
 2274 025c 73686F72 		.ascii	"short int\000"
 2274      7420696E 
 2274      7400
 2275              	.LASF42:
 2276 0266 61726D5F 		.ascii	"arm_cfft_radix4by2_inverse_q31\000"
 2276      63666674 
 2276      5F726164 
 2276      69783462 
 2276      79325F69 
 2277              	.LASF15:
 2278 0285 75696E74 		.ascii	"uint16_t\000"
 2278      31365F74 
 2278      00
 2279              	.LASF17:
 2280 028e 75696E74 		.ascii	"uint32_t\000"
 2280      33325F74 
 2280      00
 2281              	.LASF7:
 2282 0297 6C6F6E67 		.ascii	"long int\000"
 2282      20696E74 
 2282      00
 2283              	.LASF23:
 2284 02a0 6C6F6E67 		.ascii	"long double\000"
 2284      20646F75 
 2284      626C6500 
 2285              	.LASF26:
 2286 02ac 6666744C 		.ascii	"fftLen\000"
 2286      656E00
 2287              	.LASF0:
 2288 02b3 7369676E 		.ascii	"signed char\000"
 2288      65642063 
 2288      68617200 
 2289              	.LASF35:
 2290 02bf 70537263 		.ascii	"pSrc\000"
 2290      00
 2291              	.LASF36:
 2292 02c4 70436F65 		.ascii	"pCoef\000"
 2292      6600
 2293              		.ident	"GCC: (GNU Tools for ARM Embedded Processors) 4.9.3 20150303 (release) [ARM/embedded-4_9-br
