ARM GAS  C:\Users\fneves\AppData\Local\Temp\ccuit8a2.s 			page 1


   1              		.cpu cortex-m0plus
   2              		.fpu softvfp
   3              		.eabi_attribute 20, 1
   4              		.eabi_attribute 21, 1
   5              		.eabi_attribute 23, 3
   6              		.eabi_attribute 24, 1
   7              		.eabi_attribute 25, 1
   8              		.eabi_attribute 26, 1
   9              		.eabi_attribute 30, 6
  10              		.eabi_attribute 34, 0
  11              		.eabi_attribute 18, 4
  12              		.code	16
  13              		.file	"arm_abs_q15.c"
  14              		.text
  15              	.Ltext0:
  16              		.cfi_sections	.debug_frame
  17              		.section	.text.arm_abs_q15,"ax",%progbits
  18              		.align	2
  19              		.global	arm_abs_q15
  20              		.code	16
  21              		.thumb_func
  22              		.type	arm_abs_q15, %function
  23              	arm_abs_q15:
  24              	.LFB82:
  25              		.file 1 "Source\\BasicMathFunctions\\arm_abs_q15.c"
   1:Source\BasicMathFunctions/arm_abs_q15.c **** /* ----------------------------------------------------------------------
   2:Source\BasicMathFunctions/arm_abs_q15.c ****  * Project:      CMSIS DSP Library
   3:Source\BasicMathFunctions/arm_abs_q15.c ****  * Title:        arm_abs_q15.c
   4:Source\BasicMathFunctions/arm_abs_q15.c ****  * Description:  Q15 vector absolute value
   5:Source\BasicMathFunctions/arm_abs_q15.c ****  *
   6:Source\BasicMathFunctions/arm_abs_q15.c ****  * $Date:        27. January 2017
   7:Source\BasicMathFunctions/arm_abs_q15.c ****  * $Revision:    V.1.5.1
   8:Source\BasicMathFunctions/arm_abs_q15.c ****  *
   9:Source\BasicMathFunctions/arm_abs_q15.c ****  * Target Processor: Cortex-M cores
  10:Source\BasicMathFunctions/arm_abs_q15.c ****  * -------------------------------------------------------------------- */
  11:Source\BasicMathFunctions/arm_abs_q15.c **** /*
  12:Source\BasicMathFunctions/arm_abs_q15.c ****  * Copyright (C) 2010-2017 ARM Limited or its affiliates. All rights reserved.
  13:Source\BasicMathFunctions/arm_abs_q15.c ****  *
  14:Source\BasicMathFunctions/arm_abs_q15.c ****  * SPDX-License-Identifier: Apache-2.0
  15:Source\BasicMathFunctions/arm_abs_q15.c ****  *
  16:Source\BasicMathFunctions/arm_abs_q15.c ****  * Licensed under the Apache License, Version 2.0 (the License); you may
  17:Source\BasicMathFunctions/arm_abs_q15.c ****  * not use this file except in compliance with the License.
  18:Source\BasicMathFunctions/arm_abs_q15.c ****  * You may obtain a copy of the License at
  19:Source\BasicMathFunctions/arm_abs_q15.c ****  *
  20:Source\BasicMathFunctions/arm_abs_q15.c ****  * www.apache.org/licenses/LICENSE-2.0
  21:Source\BasicMathFunctions/arm_abs_q15.c ****  *
  22:Source\BasicMathFunctions/arm_abs_q15.c ****  * Unless required by applicable law or agreed to in writing, software
  23:Source\BasicMathFunctions/arm_abs_q15.c ****  * distributed under the License is distributed on an AS IS BASIS, WITHOUT
  24:Source\BasicMathFunctions/arm_abs_q15.c ****  * WARRANTIES OR CONDITIONS OF ANY KIND, either express or implied.
  25:Source\BasicMathFunctions/arm_abs_q15.c ****  * See the License for the specific language governing permissions and
  26:Source\BasicMathFunctions/arm_abs_q15.c ****  * limitations under the License.
  27:Source\BasicMathFunctions/arm_abs_q15.c ****  */
  28:Source\BasicMathFunctions/arm_abs_q15.c **** 
  29:Source\BasicMathFunctions/arm_abs_q15.c **** #include "arm_math.h"
  30:Source\BasicMathFunctions/arm_abs_q15.c **** 
  31:Source\BasicMathFunctions/arm_abs_q15.c **** /**
  32:Source\BasicMathFunctions/arm_abs_q15.c ****  * @ingroup groupMath
ARM GAS  C:\Users\fneves\AppData\Local\Temp\ccuit8a2.s 			page 2


  33:Source\BasicMathFunctions/arm_abs_q15.c ****  */
  34:Source\BasicMathFunctions/arm_abs_q15.c **** 
  35:Source\BasicMathFunctions/arm_abs_q15.c **** /**
  36:Source\BasicMathFunctions/arm_abs_q15.c ****  * @addtogroup BasicAbs
  37:Source\BasicMathFunctions/arm_abs_q15.c ****  * @{
  38:Source\BasicMathFunctions/arm_abs_q15.c ****  */
  39:Source\BasicMathFunctions/arm_abs_q15.c **** 
  40:Source\BasicMathFunctions/arm_abs_q15.c **** /**
  41:Source\BasicMathFunctions/arm_abs_q15.c ****  * @brief Q15 vector absolute value.
  42:Source\BasicMathFunctions/arm_abs_q15.c ****  * @param[in]       *pSrc points to the input buffer
  43:Source\BasicMathFunctions/arm_abs_q15.c ****  * @param[out]      *pDst points to the output buffer
  44:Source\BasicMathFunctions/arm_abs_q15.c ****  * @param[in]       blockSize number of samples in each vector
  45:Source\BasicMathFunctions/arm_abs_q15.c ****  * @return none.
  46:Source\BasicMathFunctions/arm_abs_q15.c ****  *
  47:Source\BasicMathFunctions/arm_abs_q15.c ****  * <b>Scaling and Overflow Behavior:</b>
  48:Source\BasicMathFunctions/arm_abs_q15.c ****  * \par
  49:Source\BasicMathFunctions/arm_abs_q15.c ****  * The function uses saturating arithmetic.
  50:Source\BasicMathFunctions/arm_abs_q15.c ****  * The Q15 value -1 (0x8000) will be saturated to the maximum allowable positive value 0x7FFF.
  51:Source\BasicMathFunctions/arm_abs_q15.c ****  */
  52:Source\BasicMathFunctions/arm_abs_q15.c **** 
  53:Source\BasicMathFunctions/arm_abs_q15.c **** void arm_abs_q15(
  54:Source\BasicMathFunctions/arm_abs_q15.c ****   q15_t * pSrc,
  55:Source\BasicMathFunctions/arm_abs_q15.c ****   q15_t * pDst,
  56:Source\BasicMathFunctions/arm_abs_q15.c ****   uint32_t blockSize)
  57:Source\BasicMathFunctions/arm_abs_q15.c **** {
  26              		.loc 1 57 0
  27              		.cfi_startproc
  28 0000 80B5     		push	{r7, lr}
  29              		.cfi_def_cfa_offset 8
  30              		.cfi_offset 7, -8
  31              		.cfi_offset 14, -4
  32 0002 86B0     		sub	sp, sp, #24
  33              		.cfi_def_cfa_offset 32
  34 0004 00AF     		add	r7, sp, #0
  35              		.cfi_def_cfa_register 7
  36 0006 F860     		str	r0, [r7, #12]
  37 0008 B960     		str	r1, [r7, #8]
  38 000a 7A60     		str	r2, [r7, #4]
  58:Source\BasicMathFunctions/arm_abs_q15.c ****   uint32_t blkCnt;                               /* loop counter */
  59:Source\BasicMathFunctions/arm_abs_q15.c **** 
  60:Source\BasicMathFunctions/arm_abs_q15.c **** #if defined (ARM_MATH_DSP)
  61:Source\BasicMathFunctions/arm_abs_q15.c ****   __SIMD32_TYPE *simd;
  62:Source\BasicMathFunctions/arm_abs_q15.c **** 
  63:Source\BasicMathFunctions/arm_abs_q15.c **** /* Run the below code for Cortex-M4 and Cortex-M3 */
  64:Source\BasicMathFunctions/arm_abs_q15.c **** 
  65:Source\BasicMathFunctions/arm_abs_q15.c ****   q15_t in1;                                     /* Input value1 */
  66:Source\BasicMathFunctions/arm_abs_q15.c ****   q15_t in2;                                     /* Input value2 */
  67:Source\BasicMathFunctions/arm_abs_q15.c **** 
  68:Source\BasicMathFunctions/arm_abs_q15.c **** 
  69:Source\BasicMathFunctions/arm_abs_q15.c ****   /*loop Unrolling */
  70:Source\BasicMathFunctions/arm_abs_q15.c ****   blkCnt = blockSize >> 2u;
  71:Source\BasicMathFunctions/arm_abs_q15.c **** 
  72:Source\BasicMathFunctions/arm_abs_q15.c ****   /* First part of the processing with loop unrolling.  Compute 4 outputs at a time.
  73:Source\BasicMathFunctions/arm_abs_q15.c ****    ** a second loop below computes the remaining 1 to 3 samples. */
  74:Source\BasicMathFunctions/arm_abs_q15.c ****   simd = __SIMD32_CONST(pDst);
  75:Source\BasicMathFunctions/arm_abs_q15.c ****   while (blkCnt > 0u)
  76:Source\BasicMathFunctions/arm_abs_q15.c ****   {
ARM GAS  C:\Users\fneves\AppData\Local\Temp\ccuit8a2.s 			page 3


  77:Source\BasicMathFunctions/arm_abs_q15.c ****     /* C = |A| */
  78:Source\BasicMathFunctions/arm_abs_q15.c ****     /* Read two inputs */
  79:Source\BasicMathFunctions/arm_abs_q15.c ****     in1 = *pSrc++;
  80:Source\BasicMathFunctions/arm_abs_q15.c ****     in2 = *pSrc++;
  81:Source\BasicMathFunctions/arm_abs_q15.c **** 
  82:Source\BasicMathFunctions/arm_abs_q15.c **** 
  83:Source\BasicMathFunctions/arm_abs_q15.c ****     /* Store the Absolute result in the destination buffer by packing the two values, in a single c
  84:Source\BasicMathFunctions/arm_abs_q15.c **** #ifndef  ARM_MATH_BIG_ENDIAN
  85:Source\BasicMathFunctions/arm_abs_q15.c ****     *simd++ =
  86:Source\BasicMathFunctions/arm_abs_q15.c ****       __PKHBT(((in1 > 0) ? in1 : (q15_t)__QSUB16(0, in1)),
  87:Source\BasicMathFunctions/arm_abs_q15.c ****               ((in2 > 0) ? in2 : (q15_t)__QSUB16(0, in2)), 16);
  88:Source\BasicMathFunctions/arm_abs_q15.c **** 
  89:Source\BasicMathFunctions/arm_abs_q15.c **** #else
  90:Source\BasicMathFunctions/arm_abs_q15.c **** 
  91:Source\BasicMathFunctions/arm_abs_q15.c **** 
  92:Source\BasicMathFunctions/arm_abs_q15.c ****     *simd++ =
  93:Source\BasicMathFunctions/arm_abs_q15.c ****       __PKHBT(((in2 > 0) ? in2 : (q15_t)__QSUB16(0, in2)),
  94:Source\BasicMathFunctions/arm_abs_q15.c ****               ((in1 > 0) ? in1 : (q15_t)__QSUB16(0, in1)), 16);
  95:Source\BasicMathFunctions/arm_abs_q15.c **** 
  96:Source\BasicMathFunctions/arm_abs_q15.c **** #endif /* #ifndef  ARM_MATH_BIG_ENDIAN    */
  97:Source\BasicMathFunctions/arm_abs_q15.c **** 
  98:Source\BasicMathFunctions/arm_abs_q15.c ****     in1 = *pSrc++;
  99:Source\BasicMathFunctions/arm_abs_q15.c ****     in2 = *pSrc++;
 100:Source\BasicMathFunctions/arm_abs_q15.c **** 
 101:Source\BasicMathFunctions/arm_abs_q15.c **** 
 102:Source\BasicMathFunctions/arm_abs_q15.c **** #ifndef  ARM_MATH_BIG_ENDIAN
 103:Source\BasicMathFunctions/arm_abs_q15.c **** 
 104:Source\BasicMathFunctions/arm_abs_q15.c ****     *simd++ =
 105:Source\BasicMathFunctions/arm_abs_q15.c ****       __PKHBT(((in1 > 0) ? in1 : (q15_t)__QSUB16(0, in1)),
 106:Source\BasicMathFunctions/arm_abs_q15.c ****               ((in2 > 0) ? in2 : (q15_t)__QSUB16(0, in2)), 16);
 107:Source\BasicMathFunctions/arm_abs_q15.c **** 
 108:Source\BasicMathFunctions/arm_abs_q15.c **** #else
 109:Source\BasicMathFunctions/arm_abs_q15.c **** 
 110:Source\BasicMathFunctions/arm_abs_q15.c **** 
 111:Source\BasicMathFunctions/arm_abs_q15.c ****     *simd++ =
 112:Source\BasicMathFunctions/arm_abs_q15.c ****       __PKHBT(((in2 > 0) ? in2 : (q15_t)__QSUB16(0, in2)),
 113:Source\BasicMathFunctions/arm_abs_q15.c ****               ((in1 > 0) ? in1 : (q15_t)__QSUB16(0, in1)), 16);
 114:Source\BasicMathFunctions/arm_abs_q15.c **** 
 115:Source\BasicMathFunctions/arm_abs_q15.c **** #endif /* #ifndef  ARM_MATH_BIG_ENDIAN    */
 116:Source\BasicMathFunctions/arm_abs_q15.c **** 
 117:Source\BasicMathFunctions/arm_abs_q15.c ****     /* Decrement the loop counter */
 118:Source\BasicMathFunctions/arm_abs_q15.c ****     blkCnt--;
 119:Source\BasicMathFunctions/arm_abs_q15.c ****   }
 120:Source\BasicMathFunctions/arm_abs_q15.c ****   pDst = (q15_t *)simd;
 121:Source\BasicMathFunctions/arm_abs_q15.c **** 
 122:Source\BasicMathFunctions/arm_abs_q15.c ****   /* If the blockSize is not a multiple of 4, compute any remaining output samples here.
 123:Source\BasicMathFunctions/arm_abs_q15.c ****    ** No loop unrolling is used. */
 124:Source\BasicMathFunctions/arm_abs_q15.c ****   blkCnt = blockSize % 0x4u;
 125:Source\BasicMathFunctions/arm_abs_q15.c **** 
 126:Source\BasicMathFunctions/arm_abs_q15.c ****   while (blkCnt > 0u)
 127:Source\BasicMathFunctions/arm_abs_q15.c ****   {
 128:Source\BasicMathFunctions/arm_abs_q15.c ****     /* C = |A| */
 129:Source\BasicMathFunctions/arm_abs_q15.c ****     /* Read the input */
 130:Source\BasicMathFunctions/arm_abs_q15.c ****     in1 = *pSrc++;
 131:Source\BasicMathFunctions/arm_abs_q15.c **** 
 132:Source\BasicMathFunctions/arm_abs_q15.c ****     /* Calculate absolute value of input and then store the result in the destination buffer. */
 133:Source\BasicMathFunctions/arm_abs_q15.c ****     *pDst++ = (in1 > 0) ? in1 : (q15_t)__QSUB16(0, in1);
ARM GAS  C:\Users\fneves\AppData\Local\Temp\ccuit8a2.s 			page 4


 134:Source\BasicMathFunctions/arm_abs_q15.c **** 
 135:Source\BasicMathFunctions/arm_abs_q15.c ****     /* Decrement the loop counter */
 136:Source\BasicMathFunctions/arm_abs_q15.c ****     blkCnt--;
 137:Source\BasicMathFunctions/arm_abs_q15.c ****   }
 138:Source\BasicMathFunctions/arm_abs_q15.c **** 
 139:Source\BasicMathFunctions/arm_abs_q15.c **** #else
 140:Source\BasicMathFunctions/arm_abs_q15.c **** 
 141:Source\BasicMathFunctions/arm_abs_q15.c ****   /* Run the below code for Cortex-M0 */
 142:Source\BasicMathFunctions/arm_abs_q15.c **** 
 143:Source\BasicMathFunctions/arm_abs_q15.c ****   q15_t in;                                      /* Temporary input variable */
 144:Source\BasicMathFunctions/arm_abs_q15.c **** 
 145:Source\BasicMathFunctions/arm_abs_q15.c ****   /* Initialize blkCnt with number of samples */
 146:Source\BasicMathFunctions/arm_abs_q15.c ****   blkCnt = blockSize;
  39              		.loc 1 146 0
  40 000c 7B68     		ldr	r3, [r7, #4]
  41 000e 7B61     		str	r3, [r7, #20]
 147:Source\BasicMathFunctions/arm_abs_q15.c **** 
 148:Source\BasicMathFunctions/arm_abs_q15.c ****   while (blkCnt > 0u)
  42              		.loc 1 148 0
  43 0010 27E0     		b	.L2
  44              	.L7:
 149:Source\BasicMathFunctions/arm_abs_q15.c ****   {
 150:Source\BasicMathFunctions/arm_abs_q15.c ****     /* C = |A| */
 151:Source\BasicMathFunctions/arm_abs_q15.c ****     /* Read the input */
 152:Source\BasicMathFunctions/arm_abs_q15.c ****     in = *pSrc++;
  45              		.loc 1 152 0
  46 0012 FB68     		ldr	r3, [r7, #12]
  47 0014 9A1C     		add	r2, r3, #2
  48 0016 FA60     		str	r2, [r7, #12]
  49 0018 1222     		mov	r2, #18
  50 001a BA18     		add	r2, r7, r2
  51 001c 1B88     		ldrh	r3, [r3]
  52 001e 1380     		strh	r3, [r2]
 153:Source\BasicMathFunctions/arm_abs_q15.c **** 
 154:Source\BasicMathFunctions/arm_abs_q15.c ****     /* Calculate absolute value of input and then store the result in the destination buffer. */
 155:Source\BasicMathFunctions/arm_abs_q15.c ****     *pDst++ = (in > 0) ? in : ((in == (q15_t) 0x8000) ? 0x7fff : -in);
  53              		.loc 1 155 0
  54 0020 BA68     		ldr	r2, [r7, #8]
  55 0022 931C     		add	r3, r2, #2
  56 0024 BB60     		str	r3, [r7, #8]
  57 0026 1223     		mov	r3, #18
  58 0028 FB18     		add	r3, r7, r3
  59 002a 0021     		mov	r1, #0
  60 002c 5B5E     		ldrsh	r3, [r3, r1]
  61 002e 002B     		cmp	r3, #0
  62 0030 10DC     		bgt	.L3
  63              		.loc 1 155 0 is_stmt 0 discriminator 1
  64 0032 1223     		mov	r3, #18
  65 0034 FB18     		add	r3, r7, r3
  66 0036 0021     		mov	r1, #0
  67 0038 5B5E     		ldrsh	r3, [r3, r1]
  68 003a 0D49     		ldr	r1, .L8
  69 003c 8B42     		cmp	r3, r1
  70 003e 06D0     		beq	.L4
  71              		.loc 1 155 0 discriminator 3
  72 0040 1223     		mov	r3, #18
  73 0042 FB18     		add	r3, r7, r3
ARM GAS  C:\Users\fneves\AppData\Local\Temp\ccuit8a2.s 			page 5


  74 0044 1B88     		ldrh	r3, [r3]
  75 0046 5B42     		neg	r3, r3
  76 0048 9BB2     		uxth	r3, r3
  77 004a 9BB2     		uxth	r3, r3
  78 004c 00E0     		b	.L5
  79              	.L4:
  80              		.loc 1 155 0 discriminator 4
  81 004e 094B     		ldr	r3, .L8+4
  82              	.L5:
  83              		.loc 1 155 0 discriminator 6
  84 0050 9BB2     		uxth	r3, r3
  85 0052 02E0     		b	.L6
  86              	.L3:
  87              		.loc 1 155 0 discriminator 2
  88 0054 1223     		mov	r3, #18
  89 0056 FB18     		add	r3, r7, r3
  90 0058 1B88     		ldrh	r3, [r3]
  91              	.L6:
  92              		.loc 1 155 0 discriminator 8
  93 005a 1380     		strh	r3, [r2]
 156:Source\BasicMathFunctions/arm_abs_q15.c **** 
 157:Source\BasicMathFunctions/arm_abs_q15.c ****     /* Decrement the loop counter */
 158:Source\BasicMathFunctions/arm_abs_q15.c ****     blkCnt--;
  94              		.loc 1 158 0 is_stmt 1 discriminator 8
  95 005c 7B69     		ldr	r3, [r7, #20]
  96 005e 013B     		sub	r3, r3, #1
  97 0060 7B61     		str	r3, [r7, #20]
  98              	.L2:
 148:Source\BasicMathFunctions/arm_abs_q15.c ****   {
  99              		.loc 1 148 0
 100 0062 7B69     		ldr	r3, [r7, #20]
 101 0064 002B     		cmp	r3, #0
 102 0066 D4D1     		bne	.L7
 159:Source\BasicMathFunctions/arm_abs_q15.c ****   }
 160:Source\BasicMathFunctions/arm_abs_q15.c **** 
 161:Source\BasicMathFunctions/arm_abs_q15.c **** #endif /* #if defined (ARM_MATH_DSP) */
 162:Source\BasicMathFunctions/arm_abs_q15.c **** 
 163:Source\BasicMathFunctions/arm_abs_q15.c **** }
 103              		.loc 1 163 0
 104 0068 BD46     		mov	sp, r7
 105 006a 06B0     		add	sp, sp, #24
 106              		@ sp needed
 107 006c 80BD     		pop	{r7, pc}
 108              	.L9:
 109 006e C046     		.align	2
 110              	.L8:
 111 0070 0080FFFF 		.word	-32768
 112 0074 FF7F0000 		.word	32767
 113              		.cfi_endproc
 114              	.LFE82:
 115              		.size	arm_abs_q15, .-arm_abs_q15
 116              		.text
 117              	.Letext0:
 118              		.file 2 "c:\\program files (x86)\\cypress\\psoc creator\\4.0\\psoc creator\\import\\gnu\\arm\\4.9.
 119              		.file 3 "c:\\program files (x86)\\cypress\\psoc creator\\4.0\\psoc creator\\import\\gnu\\arm\\4.9.
 120              		.file 4 ".\\Include/arm_math.h"