ARM GAS  C:\Users\fneves\AppData\Local\Temp\ccYehiKP.s 			page 1


   1              		.cpu cortex-m0plus
   2              		.fpu softvfp
   3              		.eabi_attribute 20, 1
   4              		.eabi_attribute 21, 1
   5              		.eabi_attribute 23, 3
   6              		.eabi_attribute 24, 1
   7              		.eabi_attribute 25, 1
   8              		.eabi_attribute 26, 1
   9              		.eabi_attribute 30, 6
  10              		.eabi_attribute 34, 0
  11              		.eabi_attribute 18, 4
  12              		.code	16
  13              		.file	"arm_var_q15.c"
  14              		.text
  15              	.Ltext0:
  16              		.cfi_sections	.debug_frame
  17              		.global	__aeabi_ldivmod
  18              		.global	__aeabi_lmul
  19              		.section	.text.arm_var_q15,"ax",%progbits
  20              		.align	2
  21              		.global	arm_var_q15
  22              		.code	16
  23              		.thumb_func
  24              		.type	arm_var_q15, %function
  25              	arm_var_q15:
  26              	.LFB82:
  27              		.file 1 "Source\\StatisticsFunctions\\arm_var_q15.c"
   1:Source\StatisticsFunctions/arm_var_q15.c **** /* ----------------------------------------------------------------------
   2:Source\StatisticsFunctions/arm_var_q15.c ****  * Project:      CMSIS DSP Library
   3:Source\StatisticsFunctions/arm_var_q15.c ****  * Title:        arm_var_q15.c
   4:Source\StatisticsFunctions/arm_var_q15.c ****  * Description:  Variance of an array of Q15 type
   5:Source\StatisticsFunctions/arm_var_q15.c ****  *
   6:Source\StatisticsFunctions/arm_var_q15.c ****  * $Date:        27. January 2017
   7:Source\StatisticsFunctions/arm_var_q15.c ****  * $Revision:    V.1.5.1
   8:Source\StatisticsFunctions/arm_var_q15.c ****  *
   9:Source\StatisticsFunctions/arm_var_q15.c ****  * Target Processor: Cortex-M cores
  10:Source\StatisticsFunctions/arm_var_q15.c ****  * -------------------------------------------------------------------- */
  11:Source\StatisticsFunctions/arm_var_q15.c **** /*
  12:Source\StatisticsFunctions/arm_var_q15.c ****  * Copyright (C) 2010-2017 ARM Limited or its affiliates. All rights reserved.
  13:Source\StatisticsFunctions/arm_var_q15.c ****  *
  14:Source\StatisticsFunctions/arm_var_q15.c ****  * SPDX-License-Identifier: Apache-2.0
  15:Source\StatisticsFunctions/arm_var_q15.c ****  *
  16:Source\StatisticsFunctions/arm_var_q15.c ****  * Licensed under the Apache License, Version 2.0 (the License); you may
  17:Source\StatisticsFunctions/arm_var_q15.c ****  * not use this file except in compliance with the License.
  18:Source\StatisticsFunctions/arm_var_q15.c ****  * You may obtain a copy of the License at
  19:Source\StatisticsFunctions/arm_var_q15.c ****  *
  20:Source\StatisticsFunctions/arm_var_q15.c ****  * www.apache.org/licenses/LICENSE-2.0
  21:Source\StatisticsFunctions/arm_var_q15.c ****  *
  22:Source\StatisticsFunctions/arm_var_q15.c ****  * Unless required by applicable law or agreed to in writing, software
  23:Source\StatisticsFunctions/arm_var_q15.c ****  * distributed under the License is distributed on an AS IS BASIS, WITHOUT
  24:Source\StatisticsFunctions/arm_var_q15.c ****  * WARRANTIES OR CONDITIONS OF ANY KIND, either express or implied.
  25:Source\StatisticsFunctions/arm_var_q15.c ****  * See the License for the specific language governing permissions and
  26:Source\StatisticsFunctions/arm_var_q15.c ****  * limitations under the License.
  27:Source\StatisticsFunctions/arm_var_q15.c ****  */
  28:Source\StatisticsFunctions/arm_var_q15.c **** 
  29:Source\StatisticsFunctions/arm_var_q15.c **** #include "arm_math.h"
  30:Source\StatisticsFunctions/arm_var_q15.c **** 
ARM GAS  C:\Users\fneves\AppData\Local\Temp\ccYehiKP.s 			page 2


  31:Source\StatisticsFunctions/arm_var_q15.c **** /**
  32:Source\StatisticsFunctions/arm_var_q15.c ****  * @ingroup groupStats
  33:Source\StatisticsFunctions/arm_var_q15.c ****  */
  34:Source\StatisticsFunctions/arm_var_q15.c **** 
  35:Source\StatisticsFunctions/arm_var_q15.c **** /**
  36:Source\StatisticsFunctions/arm_var_q15.c ****  * @addtogroup variance
  37:Source\StatisticsFunctions/arm_var_q15.c ****  * @{
  38:Source\StatisticsFunctions/arm_var_q15.c ****  */
  39:Source\StatisticsFunctions/arm_var_q15.c **** 
  40:Source\StatisticsFunctions/arm_var_q15.c **** /**
  41:Source\StatisticsFunctions/arm_var_q15.c ****  * @brief Variance of the elements of a Q15 vector.
  42:Source\StatisticsFunctions/arm_var_q15.c ****  * @param[in]       *pSrc points to the input vector
  43:Source\StatisticsFunctions/arm_var_q15.c ****  * @param[in]       blockSize length of the input vector
  44:Source\StatisticsFunctions/arm_var_q15.c ****  * @param[out]      *pResult variance value returned here
  45:Source\StatisticsFunctions/arm_var_q15.c ****  * @return none.
  46:Source\StatisticsFunctions/arm_var_q15.c ****  * @details
  47:Source\StatisticsFunctions/arm_var_q15.c ****  * <b>Scaling and Overflow Behavior:</b>
  48:Source\StatisticsFunctions/arm_var_q15.c ****  *
  49:Source\StatisticsFunctions/arm_var_q15.c ****  * \par
  50:Source\StatisticsFunctions/arm_var_q15.c ****  * The function is implemented using a 64-bit internal accumulator.
  51:Source\StatisticsFunctions/arm_var_q15.c ****  * The input is represented in 1.15 format.
  52:Source\StatisticsFunctions/arm_var_q15.c ****  * Intermediate multiplication yields a 2.30 format, and this
  53:Source\StatisticsFunctions/arm_var_q15.c ****  * result is added without saturation to a 64-bit accumulator in 34.30 format.
  54:Source\StatisticsFunctions/arm_var_q15.c ****  * With 33 guard bits in the accumulator, there is no risk of overflow, and the
  55:Source\StatisticsFunctions/arm_var_q15.c ****  * full precision of the intermediate multiplication is preserved.
  56:Source\StatisticsFunctions/arm_var_q15.c ****  * Finally, the 34.30 result is truncated to 34.15 format by discarding the lower
  57:Source\StatisticsFunctions/arm_var_q15.c ****  * 15 bits, and then saturated to yield a result in 1.15 format.
  58:Source\StatisticsFunctions/arm_var_q15.c ****  */
  59:Source\StatisticsFunctions/arm_var_q15.c **** 
  60:Source\StatisticsFunctions/arm_var_q15.c **** void arm_var_q15(
  61:Source\StatisticsFunctions/arm_var_q15.c ****   q15_t * pSrc,
  62:Source\StatisticsFunctions/arm_var_q15.c ****   uint32_t blockSize,
  63:Source\StatisticsFunctions/arm_var_q15.c ****   q15_t * pResult)
  64:Source\StatisticsFunctions/arm_var_q15.c **** {
  28              		.loc 1 64 0
  29              		.cfi_startproc
  30 0000 F0B5     		push	{r4, r5, r6, r7, lr}
  31              		.cfi_def_cfa_offset 20
  32              		.cfi_offset 4, -20
  33              		.cfi_offset 5, -16
  34              		.cfi_offset 6, -12
  35              		.cfi_offset 7, -8
  36              		.cfi_offset 14, -4
  37 0002 95B0     		sub	sp, sp, #84
  38              		.cfi_def_cfa_offset 104
  39 0004 00AF     		add	r7, sp, #0
  40              		.cfi_def_cfa_register 7
  41 0006 F862     		str	r0, [r7, #44]
  42 0008 B962     		str	r1, [r7, #40]
  43 000a 7A62     		str	r2, [r7, #36]
  65:Source\StatisticsFunctions/arm_var_q15.c ****   q31_t sum = 0;                                 /* Accumulator */
  44              		.loc 1 65 0
  45 000c 0023     		mov	r3, #0
  46 000e FB64     		str	r3, [r7, #76]
  66:Source\StatisticsFunctions/arm_var_q15.c ****   q31_t meanOfSquares, squareOfMean;             /* square of mean and mean of square */
  67:Source\StatisticsFunctions/arm_var_q15.c ****   uint32_t blkCnt;                               /* loop counter */
  68:Source\StatisticsFunctions/arm_var_q15.c ****   q63_t sumOfSquares = 0;                        /* Accumulator */
ARM GAS  C:\Users\fneves\AppData\Local\Temp\ccYehiKP.s 			page 3


  47              		.loc 1 68 0
  48 0010 0023     		mov	r3, #0
  49 0012 0024     		mov	r4, #0
  50 0014 3B64     		str	r3, [r7, #64]
  51 0016 7C64     		str	r4, [r7, #68]
  69:Source\StatisticsFunctions/arm_var_q15.c **** #if defined (ARM_MATH_DSP)
  70:Source\StatisticsFunctions/arm_var_q15.c ****   q31_t in;                                      /* input value */
  71:Source\StatisticsFunctions/arm_var_q15.c ****   q15_t in1;                                     /* input value */
  72:Source\StatisticsFunctions/arm_var_q15.c **** #else
  73:Source\StatisticsFunctions/arm_var_q15.c ****   q15_t in;                                      /* input value */
  74:Source\StatisticsFunctions/arm_var_q15.c **** #endif
  75:Source\StatisticsFunctions/arm_var_q15.c **** 
  76:Source\StatisticsFunctions/arm_var_q15.c ****   if (blockSize == 1u)
  52              		.loc 1 76 0
  53 0018 BB6A     		ldr	r3, [r7, #40]
  54 001a 012B     		cmp	r3, #1
  55 001c 03D1     		bne	.L2
  77:Source\StatisticsFunctions/arm_var_q15.c ****   {
  78:Source\StatisticsFunctions/arm_var_q15.c ****     *pResult = 0;
  56              		.loc 1 78 0
  57 001e 7B6A     		ldr	r3, [r7, #36]
  58 0020 0022     		mov	r2, #0
  59 0022 1A80     		strh	r2, [r3]
  79:Source\StatisticsFunctions/arm_var_q15.c ****     return;
  60              		.loc 1 79 0
  61 0024 69E0     		b	.L1
  62              	.L2:
  80:Source\StatisticsFunctions/arm_var_q15.c ****   }
  81:Source\StatisticsFunctions/arm_var_q15.c **** 
  82:Source\StatisticsFunctions/arm_var_q15.c **** #if defined (ARM_MATH_DSP)
  83:Source\StatisticsFunctions/arm_var_q15.c ****   /* Run the below code for Cortex-M4 and Cortex-M3 */
  84:Source\StatisticsFunctions/arm_var_q15.c **** 
  85:Source\StatisticsFunctions/arm_var_q15.c ****   /*loop Unrolling */
  86:Source\StatisticsFunctions/arm_var_q15.c ****   blkCnt = blockSize >> 2u;
  87:Source\StatisticsFunctions/arm_var_q15.c **** 
  88:Source\StatisticsFunctions/arm_var_q15.c ****   /* First part of the processing with loop unrolling.  Compute 4 outputs at a time.
  89:Source\StatisticsFunctions/arm_var_q15.c ****    ** a second loop below computes the remaining 1 to 3 samples. */
  90:Source\StatisticsFunctions/arm_var_q15.c ****   while (blkCnt > 0u)
  91:Source\StatisticsFunctions/arm_var_q15.c ****   {
  92:Source\StatisticsFunctions/arm_var_q15.c ****     /* C = (A[0] * A[0] + A[1] * A[1] + ... + A[blockSize-1] * A[blockSize-1])  */
  93:Source\StatisticsFunctions/arm_var_q15.c ****     /* Compute Sum of squares of the input samples
  94:Source\StatisticsFunctions/arm_var_q15.c ****      * and then store the result in a temporary variable, sum. */
  95:Source\StatisticsFunctions/arm_var_q15.c ****     in = *__SIMD32(pSrc)++;
  96:Source\StatisticsFunctions/arm_var_q15.c ****     sum += ((in << 16u) >> 16u);
  97:Source\StatisticsFunctions/arm_var_q15.c ****     sum +=  (in >> 16u);
  98:Source\StatisticsFunctions/arm_var_q15.c ****     sumOfSquares = __SMLALD(in, in, sumOfSquares);
  99:Source\StatisticsFunctions/arm_var_q15.c ****     in = *__SIMD32(pSrc)++;
 100:Source\StatisticsFunctions/arm_var_q15.c ****     sum += ((in << 16u) >> 16u);
 101:Source\StatisticsFunctions/arm_var_q15.c ****     sum +=  (in >> 16u);
 102:Source\StatisticsFunctions/arm_var_q15.c ****     sumOfSquares = __SMLALD(in, in, sumOfSquares);
 103:Source\StatisticsFunctions/arm_var_q15.c **** 
 104:Source\StatisticsFunctions/arm_var_q15.c ****     /* Decrement the loop counter */
 105:Source\StatisticsFunctions/arm_var_q15.c ****     blkCnt--;
 106:Source\StatisticsFunctions/arm_var_q15.c ****   }
 107:Source\StatisticsFunctions/arm_var_q15.c **** 
 108:Source\StatisticsFunctions/arm_var_q15.c ****   /* If the blockSize is not a multiple of 4, compute any remaining output samples here.
 109:Source\StatisticsFunctions/arm_var_q15.c ****    ** No loop unrolling is used. */
ARM GAS  C:\Users\fneves\AppData\Local\Temp\ccYehiKP.s 			page 4


 110:Source\StatisticsFunctions/arm_var_q15.c ****   blkCnt = blockSize % 0x4u;
 111:Source\StatisticsFunctions/arm_var_q15.c **** 
 112:Source\StatisticsFunctions/arm_var_q15.c ****   while (blkCnt > 0u)
 113:Source\StatisticsFunctions/arm_var_q15.c ****   {
 114:Source\StatisticsFunctions/arm_var_q15.c ****     /* C = (A[0] * A[0] + A[1] * A[1] + ... + A[blockSize-1] * A[blockSize-1]) */
 115:Source\StatisticsFunctions/arm_var_q15.c ****     /* Compute Sum of squares of the input samples
 116:Source\StatisticsFunctions/arm_var_q15.c ****      * and then store the result in a temporary variable, sum. */
 117:Source\StatisticsFunctions/arm_var_q15.c ****     in1 = *pSrc++;
 118:Source\StatisticsFunctions/arm_var_q15.c ****     sumOfSquares = __SMLALD(in1, in1, sumOfSquares);
 119:Source\StatisticsFunctions/arm_var_q15.c ****     sum += in1;
 120:Source\StatisticsFunctions/arm_var_q15.c **** 
 121:Source\StatisticsFunctions/arm_var_q15.c ****     /* Decrement the loop counter */
 122:Source\StatisticsFunctions/arm_var_q15.c ****     blkCnt--;
 123:Source\StatisticsFunctions/arm_var_q15.c ****   }
 124:Source\StatisticsFunctions/arm_var_q15.c **** 
 125:Source\StatisticsFunctions/arm_var_q15.c ****   /* Compute Mean of squares of the input samples
 126:Source\StatisticsFunctions/arm_var_q15.c ****    * and then store the result in a temporary variable, meanOfSquares. */
 127:Source\StatisticsFunctions/arm_var_q15.c ****   meanOfSquares = (q31_t)(sumOfSquares / (q63_t)(blockSize - 1u));
 128:Source\StatisticsFunctions/arm_var_q15.c **** 
 129:Source\StatisticsFunctions/arm_var_q15.c ****   /* Compute square of mean */
 130:Source\StatisticsFunctions/arm_var_q15.c ****   squareOfMean = (q31_t)((q63_t)sum * sum / (q63_t)(blockSize * (blockSize - 1u)));
 131:Source\StatisticsFunctions/arm_var_q15.c **** 
 132:Source\StatisticsFunctions/arm_var_q15.c ****   /* mean of the squares minus the square of the mean. */
 133:Source\StatisticsFunctions/arm_var_q15.c ****   *pResult = (meanOfSquares - squareOfMean) >> 15u;
 134:Source\StatisticsFunctions/arm_var_q15.c **** 
 135:Source\StatisticsFunctions/arm_var_q15.c **** #else
 136:Source\StatisticsFunctions/arm_var_q15.c ****   /* Run the below code for Cortex-M0 */
 137:Source\StatisticsFunctions/arm_var_q15.c **** 
 138:Source\StatisticsFunctions/arm_var_q15.c ****   /* Loop over blockSize number of values */
 139:Source\StatisticsFunctions/arm_var_q15.c ****   blkCnt = blockSize;
  63              		.loc 1 139 0
  64 0026 BB6A     		ldr	r3, [r7, #40]
  65 0028 BB64     		str	r3, [r7, #72]
 140:Source\StatisticsFunctions/arm_var_q15.c **** 
 141:Source\StatisticsFunctions/arm_var_q15.c ****   while (blkCnt > 0u)
  66              		.loc 1 141 0
  67 002a 2EE0     		b	.L4
  68              	.L5:
 142:Source\StatisticsFunctions/arm_var_q15.c ****   {
 143:Source\StatisticsFunctions/arm_var_q15.c ****     /* C = (A[0] * A[0] + A[1] * A[1] + ... + A[blockSize-1] * A[blockSize-1]) */
 144:Source\StatisticsFunctions/arm_var_q15.c ****     /* Compute Sum of squares of the input samples
 145:Source\StatisticsFunctions/arm_var_q15.c ****      * and then store the result in a temporary variable, sumOfSquares. */
 146:Source\StatisticsFunctions/arm_var_q15.c ****     in = *pSrc++;
  69              		.loc 1 146 0
  70 002c FB6A     		ldr	r3, [r7, #44]
  71 002e 9A1C     		add	r2, r3, #2
  72 0030 FA62     		str	r2, [r7, #44]
  73 0032 1E22     		mov	r2, #30
  74 0034 2021     		mov	r1, #32
  75 0036 8C46     		mov	ip, r1
  76 0038 BC44     		add	ip, ip, r7
  77 003a 6244     		add	r2, r2, ip
  78 003c 1B88     		ldrh	r3, [r3]
  79 003e 1380     		strh	r3, [r2]
 147:Source\StatisticsFunctions/arm_var_q15.c ****     sumOfSquares += (in * in);
  80              		.loc 1 147 0
  81 0040 1E23     		mov	r3, #30
ARM GAS  C:\Users\fneves\AppData\Local\Temp\ccYehiKP.s 			page 5


  82 0042 2022     		mov	r2, #32
  83 0044 9446     		mov	ip, r2
  84 0046 BC44     		add	ip, ip, r7
  85 0048 6344     		add	r3, r3, ip
  86 004a 0022     		mov	r2, #0
  87 004c 9B5E     		ldrsh	r3, [r3, r2]
  88 004e 1E22     		mov	r2, #30
  89 0050 2021     		mov	r1, #32
  90 0052 8C46     		mov	ip, r1
  91 0054 BC44     		add	ip, ip, r7
  92 0056 6244     		add	r2, r2, ip
  93 0058 0021     		mov	r1, #0
  94 005a 525E     		ldrsh	r2, [r2, r1]
  95 005c 5343     		mul	r3, r2
  96 005e 1D1C     		mov	r5, r3
  97 0060 DB17     		asr	r3, r3, #31
  98 0062 1E1C     		mov	r6, r3
  99 0064 3B6C     		ldr	r3, [r7, #64]
 100 0066 7C6C     		ldr	r4, [r7, #68]
 101 0068 5B19     		add	r3, r3, r5
 102 006a 7441     		adc	r4, r4, r6
 103 006c 3B64     		str	r3, [r7, #64]
 104 006e 7C64     		str	r4, [r7, #68]
 148:Source\StatisticsFunctions/arm_var_q15.c **** 
 149:Source\StatisticsFunctions/arm_var_q15.c ****     /* C = (A[0] + A[1] + A[2] + ... + A[blockSize-1]) */
 150:Source\StatisticsFunctions/arm_var_q15.c ****     /* Compute sum of all input values and then store the result in a temporary variable, sum. */
 151:Source\StatisticsFunctions/arm_var_q15.c ****     sum += in;
 105              		.loc 1 151 0
 106 0070 1E23     		mov	r3, #30
 107 0072 2022     		mov	r2, #32
 108 0074 9446     		mov	ip, r2
 109 0076 BC44     		add	ip, ip, r7
 110 0078 6344     		add	r3, r3, ip
 111 007a 0022     		mov	r2, #0
 112 007c 9B5E     		ldrsh	r3, [r3, r2]
 113 007e FA6C     		ldr	r2, [r7, #76]
 114 0080 D318     		add	r3, r2, r3
 115 0082 FB64     		str	r3, [r7, #76]
 152:Source\StatisticsFunctions/arm_var_q15.c **** 
 153:Source\StatisticsFunctions/arm_var_q15.c ****     /* Decrement the loop counter */
 154:Source\StatisticsFunctions/arm_var_q15.c ****     blkCnt--;
 116              		.loc 1 154 0
 117 0084 BB6C     		ldr	r3, [r7, #72]
 118 0086 013B     		sub	r3, r3, #1
 119 0088 BB64     		str	r3, [r7, #72]
 120              	.L4:
 141:Source\StatisticsFunctions/arm_var_q15.c ****   {
 121              		.loc 1 141 0
 122 008a BB6C     		ldr	r3, [r7, #72]
 123 008c 002B     		cmp	r3, #0
 124 008e CDD1     		bne	.L5
 155:Source\StatisticsFunctions/arm_var_q15.c ****   }
 156:Source\StatisticsFunctions/arm_var_q15.c **** 
 157:Source\StatisticsFunctions/arm_var_q15.c ****   /* Compute Mean of squares of the input samples
 158:Source\StatisticsFunctions/arm_var_q15.c ****    * and then store the result in a temporary variable, meanOfSquares. */
 159:Source\StatisticsFunctions/arm_var_q15.c ****   meanOfSquares = (q31_t)(sumOfSquares / (q63_t)(blockSize - 1u));
 125              		.loc 1 159 0
ARM GAS  C:\Users\fneves\AppData\Local\Temp\ccYehiKP.s 			page 6


 126 0090 BB6A     		ldr	r3, [r7, #40]
 127 0092 013B     		sub	r3, r3, #1
 128 0094 BB61     		str	r3, [r7, #24]
 129 0096 0023     		mov	r3, #0
 130 0098 FB61     		str	r3, [r7, #28]
 131 009a 386C     		ldr	r0, [r7, #64]
 132 009c 796C     		ldr	r1, [r7, #68]
 133 009e BA69     		ldr	r2, [r7, #24]
 134 00a0 FB69     		ldr	r3, [r7, #28]
 135 00a2 FFF7FEFF 		bl	__aeabi_ldivmod
 136 00a6 031C     		mov	r3, r0
 137 00a8 0C1C     		mov	r4, r1
 138 00aa BB63     		str	r3, [r7, #56]
 160:Source\StatisticsFunctions/arm_var_q15.c **** 
 161:Source\StatisticsFunctions/arm_var_q15.c ****   /* Compute square of mean */
 162:Source\StatisticsFunctions/arm_var_q15.c ****   squareOfMean = (q31_t)((q63_t)sum * sum / (q63_t)(blockSize * (blockSize - 1u)));
 139              		.loc 1 162 0
 140 00ac FB6C     		ldr	r3, [r7, #76]
 141 00ae 3B61     		str	r3, [r7, #16]
 142 00b0 DB17     		asr	r3, r3, #31
 143 00b2 7B61     		str	r3, [r7, #20]
 144 00b4 FB6C     		ldr	r3, [r7, #76]
 145 00b6 BB60     		str	r3, [r7, #8]
 146 00b8 DB17     		asr	r3, r3, #31
 147 00ba FB60     		str	r3, [r7, #12]
 148 00bc 3869     		ldr	r0, [r7, #16]
 149 00be 7969     		ldr	r1, [r7, #20]
 150 00c0 BA68     		ldr	r2, [r7, #8]
 151 00c2 FB68     		ldr	r3, [r7, #12]
 152 00c4 FFF7FEFF 		bl	__aeabi_lmul
 153 00c8 031C     		mov	r3, r0
 154 00ca 0C1C     		mov	r4, r1
 155 00cc 181C     		mov	r0, r3
 156 00ce 211C     		mov	r1, r4
 157 00d0 BB6A     		ldr	r3, [r7, #40]
 158 00d2 013B     		sub	r3, r3, #1
 159 00d4 BA6A     		ldr	r2, [r7, #40]
 160 00d6 5343     		mul	r3, r2
 161 00d8 3B60     		str	r3, [r7]
 162 00da 0023     		mov	r3, #0
 163 00dc 7B60     		str	r3, [r7, #4]
 164 00de 3A68     		ldr	r2, [r7]
 165 00e0 7B68     		ldr	r3, [r7, #4]
 166 00e2 FFF7FEFF 		bl	__aeabi_ldivmod
 167 00e6 031C     		mov	r3, r0
 168 00e8 0C1C     		mov	r4, r1
 169 00ea 7B63     		str	r3, [r7, #52]
 163:Source\StatisticsFunctions/arm_var_q15.c **** 
 164:Source\StatisticsFunctions/arm_var_q15.c ****   /* mean of the squares minus the square of the mean. */
 165:Source\StatisticsFunctions/arm_var_q15.c ****   *pResult = (meanOfSquares - squareOfMean) >> 15;
 170              		.loc 1 165 0
 171 00ec BA6B     		ldr	r2, [r7, #56]
 172 00ee 7B6B     		ldr	r3, [r7, #52]
 173 00f0 D31A     		sub	r3, r2, r3
 174 00f2 DB13     		asr	r3, r3, #15
 175 00f4 9AB2     		uxth	r2, r3
 176 00f6 7B6A     		ldr	r3, [r7, #36]
ARM GAS  C:\Users\fneves\AppData\Local\Temp\ccYehiKP.s 			page 7


 177 00f8 1A80     		strh	r2, [r3]
 178              	.L1:
 166:Source\StatisticsFunctions/arm_var_q15.c **** 
 167:Source\StatisticsFunctions/arm_var_q15.c **** #endif /* #if defined (ARM_MATH_DSP) */
 168:Source\StatisticsFunctions/arm_var_q15.c **** }
 179              		.loc 1 168 0
 180 00fa BD46     		mov	sp, r7
 181 00fc 15B0     		add	sp, sp, #84
 182              		@ sp needed
 183 00fe F0BD     		pop	{r4, r5, r6, r7, pc}
 184              		.cfi_endproc
 185              	.LFE82:
 186              		.size	arm_var_q15, .-arm_var_q15
 187              		.text
 188              	.Letext0:
 189              		.file 2 "c:\\program files (x86)\\cypress\\psoc creator\\4.0\\psoc creator\\import\\gnu\\arm\\4.9.
 190              		.file 3 "c:\\program files (x86)\\cypress\\psoc creator\\4.0\\psoc creator\\import\\gnu\\arm\\4.9.
 191              		.file 4 ".\\Include/arm_math.h"