ARM GAS  C:\Users\fneves\AppData\Local\Temp\ccInoe6m.s 			page 1


   1              		.cpu cortex-m0plus
   2              		.fpu softvfp
   3              		.eabi_attribute 20, 1
   4              		.eabi_attribute 21, 1
   5              		.eabi_attribute 23, 3
   6              		.eabi_attribute 24, 1
   7              		.eabi_attribute 25, 1
   8              		.eabi_attribute 26, 1
   9              		.eabi_attribute 30, 6
  10              		.eabi_attribute 34, 0
  11              		.eabi_attribute 18, 4
  12              		.code	16
  13              		.file	"arm_cmplx_mag_q31.c"
  14              		.text
  15              	.Ltext0:
  16              		.cfi_sections	.debug_frame
  17              		.global	__aeabi_lmul
  18              		.section	.text.arm_cmplx_mag_q31,"ax",%progbits
  19              		.align	2
  20              		.global	arm_cmplx_mag_q31
  21              		.code	16
  22              		.thumb_func
  23              		.type	arm_cmplx_mag_q31, %function
  24              	arm_cmplx_mag_q31:
  25              	.LFB82:
  26              		.file 1 "Source\\ComplexMathFunctions\\arm_cmplx_mag_q31.c"
   1:Source\ComplexMathFunctions/arm_cmplx_mag_q31.c **** /* ----------------------------------------------------------------------
   2:Source\ComplexMathFunctions/arm_cmplx_mag_q31.c ****  * Project:      CMSIS DSP Library
   3:Source\ComplexMathFunctions/arm_cmplx_mag_q31.c ****  * Title:        arm_cmplx_mag_q31.c
   4:Source\ComplexMathFunctions/arm_cmplx_mag_q31.c ****  * Description:  Q31 complex magnitude
   5:Source\ComplexMathFunctions/arm_cmplx_mag_q31.c ****  *
   6:Source\ComplexMathFunctions/arm_cmplx_mag_q31.c ****  * $Date:        27. January 2017
   7:Source\ComplexMathFunctions/arm_cmplx_mag_q31.c ****  * $Revision:    V.1.5.1
   8:Source\ComplexMathFunctions/arm_cmplx_mag_q31.c ****  *
   9:Source\ComplexMathFunctions/arm_cmplx_mag_q31.c ****  * Target Processor: Cortex-M cores
  10:Source\ComplexMathFunctions/arm_cmplx_mag_q31.c ****  * -------------------------------------------------------------------- */
  11:Source\ComplexMathFunctions/arm_cmplx_mag_q31.c **** /*
  12:Source\ComplexMathFunctions/arm_cmplx_mag_q31.c ****  * Copyright (C) 2010-2017 ARM Limited or its affiliates. All rights reserved.
  13:Source\ComplexMathFunctions/arm_cmplx_mag_q31.c ****  *
  14:Source\ComplexMathFunctions/arm_cmplx_mag_q31.c ****  * SPDX-License-Identifier: Apache-2.0
  15:Source\ComplexMathFunctions/arm_cmplx_mag_q31.c ****  *
  16:Source\ComplexMathFunctions/arm_cmplx_mag_q31.c ****  * Licensed under the Apache License, Version 2.0 (the License); you may
  17:Source\ComplexMathFunctions/arm_cmplx_mag_q31.c ****  * not use this file except in compliance with the License.
  18:Source\ComplexMathFunctions/arm_cmplx_mag_q31.c ****  * You may obtain a copy of the License at
  19:Source\ComplexMathFunctions/arm_cmplx_mag_q31.c ****  *
  20:Source\ComplexMathFunctions/arm_cmplx_mag_q31.c ****  * www.apache.org/licenses/LICENSE-2.0
  21:Source\ComplexMathFunctions/arm_cmplx_mag_q31.c ****  *
  22:Source\ComplexMathFunctions/arm_cmplx_mag_q31.c ****  * Unless required by applicable law or agreed to in writing, software
  23:Source\ComplexMathFunctions/arm_cmplx_mag_q31.c ****  * distributed under the License is distributed on an AS IS BASIS, WITHOUT
  24:Source\ComplexMathFunctions/arm_cmplx_mag_q31.c ****  * WARRANTIES OR CONDITIONS OF ANY KIND, either express or implied.
  25:Source\ComplexMathFunctions/arm_cmplx_mag_q31.c ****  * See the License for the specific language governing permissions and
  26:Source\ComplexMathFunctions/arm_cmplx_mag_q31.c ****  * limitations under the License.
  27:Source\ComplexMathFunctions/arm_cmplx_mag_q31.c ****  */
  28:Source\ComplexMathFunctions/arm_cmplx_mag_q31.c **** 
  29:Source\ComplexMathFunctions/arm_cmplx_mag_q31.c **** #include "arm_math.h"
  30:Source\ComplexMathFunctions/arm_cmplx_mag_q31.c **** 
  31:Source\ComplexMathFunctions/arm_cmplx_mag_q31.c **** /**
ARM GAS  C:\Users\fneves\AppData\Local\Temp\ccInoe6m.s 			page 2


  32:Source\ComplexMathFunctions/arm_cmplx_mag_q31.c ****  * @ingroup groupCmplxMath
  33:Source\ComplexMathFunctions/arm_cmplx_mag_q31.c ****  */
  34:Source\ComplexMathFunctions/arm_cmplx_mag_q31.c **** 
  35:Source\ComplexMathFunctions/arm_cmplx_mag_q31.c **** /**
  36:Source\ComplexMathFunctions/arm_cmplx_mag_q31.c ****  * @addtogroup cmplx_mag
  37:Source\ComplexMathFunctions/arm_cmplx_mag_q31.c ****  * @{
  38:Source\ComplexMathFunctions/arm_cmplx_mag_q31.c ****  */
  39:Source\ComplexMathFunctions/arm_cmplx_mag_q31.c **** 
  40:Source\ComplexMathFunctions/arm_cmplx_mag_q31.c **** /**
  41:Source\ComplexMathFunctions/arm_cmplx_mag_q31.c ****  * @brief  Q31 complex magnitude
  42:Source\ComplexMathFunctions/arm_cmplx_mag_q31.c ****  * @param  *pSrc points to the complex input vector
  43:Source\ComplexMathFunctions/arm_cmplx_mag_q31.c ****  * @param  *pDst points to the real output vector
  44:Source\ComplexMathFunctions/arm_cmplx_mag_q31.c ****  * @param  numSamples number of complex samples in the input vector
  45:Source\ComplexMathFunctions/arm_cmplx_mag_q31.c ****  * @return none.
  46:Source\ComplexMathFunctions/arm_cmplx_mag_q31.c ****  *
  47:Source\ComplexMathFunctions/arm_cmplx_mag_q31.c ****  * <b>Scaling and Overflow Behavior:</b>
  48:Source\ComplexMathFunctions/arm_cmplx_mag_q31.c ****  * \par
  49:Source\ComplexMathFunctions/arm_cmplx_mag_q31.c ****  * The function implements 1.31 by 1.31 multiplications and finally output is converted into 2.30 f
  50:Source\ComplexMathFunctions/arm_cmplx_mag_q31.c ****  * Input down scaling is not required.
  51:Source\ComplexMathFunctions/arm_cmplx_mag_q31.c ****  */
  52:Source\ComplexMathFunctions/arm_cmplx_mag_q31.c **** 
  53:Source\ComplexMathFunctions/arm_cmplx_mag_q31.c **** void arm_cmplx_mag_q31(
  54:Source\ComplexMathFunctions/arm_cmplx_mag_q31.c ****   q31_t * pSrc,
  55:Source\ComplexMathFunctions/arm_cmplx_mag_q31.c ****   q31_t * pDst,
  56:Source\ComplexMathFunctions/arm_cmplx_mag_q31.c ****   uint32_t numSamples)
  57:Source\ComplexMathFunctions/arm_cmplx_mag_q31.c **** {
  27              		.loc 1 57 0
  28              		.cfi_startproc
  29 0000 F0B5     		push	{r4, r5, r6, r7, lr}
  30              		.cfi_def_cfa_offset 20
  31              		.cfi_offset 4, -20
  32              		.cfi_offset 5, -16
  33              		.cfi_offset 6, -12
  34              		.cfi_offset 7, -8
  35              		.cfi_offset 14, -4
  36 0002 95B0     		sub	sp, sp, #84
  37              		.cfi_def_cfa_offset 104
  38 0004 00AF     		add	r7, sp, #0
  39              		.cfi_def_cfa_register 7
  40 0006 7863     		str	r0, [r7, #52]
  41 0008 3963     		str	r1, [r7, #48]
  42 000a FA62     		str	r2, [r7, #44]
  58:Source\ComplexMathFunctions/arm_cmplx_mag_q31.c ****   q31_t real, imag;                              /* Temporary variables to hold input values */
  59:Source\ComplexMathFunctions/arm_cmplx_mag_q31.c ****   q31_t acc0, acc1;                              /* Accumulators */
  60:Source\ComplexMathFunctions/arm_cmplx_mag_q31.c ****   uint32_t blkCnt;                               /* loop counter */
  61:Source\ComplexMathFunctions/arm_cmplx_mag_q31.c **** 
  62:Source\ComplexMathFunctions/arm_cmplx_mag_q31.c **** #if defined (ARM_MATH_DSP)
  63:Source\ComplexMathFunctions/arm_cmplx_mag_q31.c **** 
  64:Source\ComplexMathFunctions/arm_cmplx_mag_q31.c ****   /* Run the below code for Cortex-M4 and Cortex-M3 */
  65:Source\ComplexMathFunctions/arm_cmplx_mag_q31.c ****   q31_t real1, real2, imag1, imag2;              /* Temporary variables to hold input values */
  66:Source\ComplexMathFunctions/arm_cmplx_mag_q31.c ****   q31_t out1, out2, out3, out4;                  /* Accumulators */
  67:Source\ComplexMathFunctions/arm_cmplx_mag_q31.c ****   q63_t mul1, mul2, mul3, mul4;                  /* Temporary variables */
  68:Source\ComplexMathFunctions/arm_cmplx_mag_q31.c **** 
  69:Source\ComplexMathFunctions/arm_cmplx_mag_q31.c **** 
  70:Source\ComplexMathFunctions/arm_cmplx_mag_q31.c ****   /*loop Unrolling */
  71:Source\ComplexMathFunctions/arm_cmplx_mag_q31.c ****   blkCnt = numSamples >> 2u;
  72:Source\ComplexMathFunctions/arm_cmplx_mag_q31.c **** 
ARM GAS  C:\Users\fneves\AppData\Local\Temp\ccInoe6m.s 			page 3


  73:Source\ComplexMathFunctions/arm_cmplx_mag_q31.c ****   /* First part of the processing with loop unrolling.  Compute 4 outputs at a time.
  74:Source\ComplexMathFunctions/arm_cmplx_mag_q31.c ****    ** a second loop below computes the remaining 1 to 3 samples. */
  75:Source\ComplexMathFunctions/arm_cmplx_mag_q31.c ****   while (blkCnt > 0u)
  76:Source\ComplexMathFunctions/arm_cmplx_mag_q31.c ****   {
  77:Source\ComplexMathFunctions/arm_cmplx_mag_q31.c ****     /* read complex input from source buffer */
  78:Source\ComplexMathFunctions/arm_cmplx_mag_q31.c ****     real1 = pSrc[0];
  79:Source\ComplexMathFunctions/arm_cmplx_mag_q31.c ****     imag1 = pSrc[1];
  80:Source\ComplexMathFunctions/arm_cmplx_mag_q31.c ****     real2 = pSrc[2];
  81:Source\ComplexMathFunctions/arm_cmplx_mag_q31.c ****     imag2 = pSrc[3];
  82:Source\ComplexMathFunctions/arm_cmplx_mag_q31.c **** 
  83:Source\ComplexMathFunctions/arm_cmplx_mag_q31.c ****     /* calculate power of input values */
  84:Source\ComplexMathFunctions/arm_cmplx_mag_q31.c ****     mul1 = (q63_t) real1 *real1;
  85:Source\ComplexMathFunctions/arm_cmplx_mag_q31.c ****     mul2 = (q63_t) imag1 *imag1;
  86:Source\ComplexMathFunctions/arm_cmplx_mag_q31.c ****     mul3 = (q63_t) real2 *real2;
  87:Source\ComplexMathFunctions/arm_cmplx_mag_q31.c ****     mul4 = (q63_t) imag2 *imag2;
  88:Source\ComplexMathFunctions/arm_cmplx_mag_q31.c **** 
  89:Source\ComplexMathFunctions/arm_cmplx_mag_q31.c ****     /* get the result to 3.29 format */
  90:Source\ComplexMathFunctions/arm_cmplx_mag_q31.c ****     out1 = (q31_t) (mul1 >> 33);
  91:Source\ComplexMathFunctions/arm_cmplx_mag_q31.c ****     out2 = (q31_t) (mul2 >> 33);
  92:Source\ComplexMathFunctions/arm_cmplx_mag_q31.c ****     out3 = (q31_t) (mul3 >> 33);
  93:Source\ComplexMathFunctions/arm_cmplx_mag_q31.c ****     out4 = (q31_t) (mul4 >> 33);
  94:Source\ComplexMathFunctions/arm_cmplx_mag_q31.c **** 
  95:Source\ComplexMathFunctions/arm_cmplx_mag_q31.c ****     /* add real and imaginary accumulators */
  96:Source\ComplexMathFunctions/arm_cmplx_mag_q31.c ****     out1 = out1 + out2;
  97:Source\ComplexMathFunctions/arm_cmplx_mag_q31.c ****     out3 = out3 + out4;
  98:Source\ComplexMathFunctions/arm_cmplx_mag_q31.c **** 
  99:Source\ComplexMathFunctions/arm_cmplx_mag_q31.c ****     /* read complex input from source buffer */
 100:Source\ComplexMathFunctions/arm_cmplx_mag_q31.c ****     real1 = pSrc[4];
 101:Source\ComplexMathFunctions/arm_cmplx_mag_q31.c ****     imag1 = pSrc[5];
 102:Source\ComplexMathFunctions/arm_cmplx_mag_q31.c ****     real2 = pSrc[6];
 103:Source\ComplexMathFunctions/arm_cmplx_mag_q31.c ****     imag2 = pSrc[7];
 104:Source\ComplexMathFunctions/arm_cmplx_mag_q31.c **** 
 105:Source\ComplexMathFunctions/arm_cmplx_mag_q31.c ****     /* calculate square root */
 106:Source\ComplexMathFunctions/arm_cmplx_mag_q31.c ****     arm_sqrt_q31(out1, &pDst[0]);
 107:Source\ComplexMathFunctions/arm_cmplx_mag_q31.c **** 
 108:Source\ComplexMathFunctions/arm_cmplx_mag_q31.c ****     /* calculate power of input values */
 109:Source\ComplexMathFunctions/arm_cmplx_mag_q31.c ****     mul1 = (q63_t) real1 *real1;
 110:Source\ComplexMathFunctions/arm_cmplx_mag_q31.c **** 
 111:Source\ComplexMathFunctions/arm_cmplx_mag_q31.c ****     /* calculate square root */
 112:Source\ComplexMathFunctions/arm_cmplx_mag_q31.c ****     arm_sqrt_q31(out3, &pDst[1]);
 113:Source\ComplexMathFunctions/arm_cmplx_mag_q31.c **** 
 114:Source\ComplexMathFunctions/arm_cmplx_mag_q31.c ****     /* calculate power of input values */
 115:Source\ComplexMathFunctions/arm_cmplx_mag_q31.c ****     mul2 = (q63_t) imag1 *imag1;
 116:Source\ComplexMathFunctions/arm_cmplx_mag_q31.c ****     mul3 = (q63_t) real2 *real2;
 117:Source\ComplexMathFunctions/arm_cmplx_mag_q31.c ****     mul4 = (q63_t) imag2 *imag2;
 118:Source\ComplexMathFunctions/arm_cmplx_mag_q31.c **** 
 119:Source\ComplexMathFunctions/arm_cmplx_mag_q31.c ****     /* get the result to 3.29 format */
 120:Source\ComplexMathFunctions/arm_cmplx_mag_q31.c ****     out1 = (q31_t) (mul1 >> 33);
 121:Source\ComplexMathFunctions/arm_cmplx_mag_q31.c ****     out2 = (q31_t) (mul2 >> 33);
 122:Source\ComplexMathFunctions/arm_cmplx_mag_q31.c ****     out3 = (q31_t) (mul3 >> 33);
 123:Source\ComplexMathFunctions/arm_cmplx_mag_q31.c ****     out4 = (q31_t) (mul4 >> 33);
 124:Source\ComplexMathFunctions/arm_cmplx_mag_q31.c **** 
 125:Source\ComplexMathFunctions/arm_cmplx_mag_q31.c ****     /* add real and imaginary accumulators */
 126:Source\ComplexMathFunctions/arm_cmplx_mag_q31.c ****     out1 = out1 + out2;
 127:Source\ComplexMathFunctions/arm_cmplx_mag_q31.c ****     out3 = out3 + out4;
 128:Source\ComplexMathFunctions/arm_cmplx_mag_q31.c **** 
 129:Source\ComplexMathFunctions/arm_cmplx_mag_q31.c ****     /* calculate square root */
ARM GAS  C:\Users\fneves\AppData\Local\Temp\ccInoe6m.s 			page 4


 130:Source\ComplexMathFunctions/arm_cmplx_mag_q31.c ****     arm_sqrt_q31(out1, &pDst[2]);
 131:Source\ComplexMathFunctions/arm_cmplx_mag_q31.c **** 
 132:Source\ComplexMathFunctions/arm_cmplx_mag_q31.c ****     /* increment destination by 8 to process next samples */
 133:Source\ComplexMathFunctions/arm_cmplx_mag_q31.c ****     pSrc += 8u;
 134:Source\ComplexMathFunctions/arm_cmplx_mag_q31.c **** 
 135:Source\ComplexMathFunctions/arm_cmplx_mag_q31.c ****     /* calculate square root */
 136:Source\ComplexMathFunctions/arm_cmplx_mag_q31.c ****     arm_sqrt_q31(out3, &pDst[3]);
 137:Source\ComplexMathFunctions/arm_cmplx_mag_q31.c **** 
 138:Source\ComplexMathFunctions/arm_cmplx_mag_q31.c ****     /* increment destination by 4 to process next samples */
 139:Source\ComplexMathFunctions/arm_cmplx_mag_q31.c ****     pDst += 4u;
 140:Source\ComplexMathFunctions/arm_cmplx_mag_q31.c **** 
 141:Source\ComplexMathFunctions/arm_cmplx_mag_q31.c ****     /* Decrement the loop counter */
 142:Source\ComplexMathFunctions/arm_cmplx_mag_q31.c ****     blkCnt--;
 143:Source\ComplexMathFunctions/arm_cmplx_mag_q31.c ****   }
 144:Source\ComplexMathFunctions/arm_cmplx_mag_q31.c **** 
 145:Source\ComplexMathFunctions/arm_cmplx_mag_q31.c ****   /* If the numSamples is not a multiple of 4, compute any remaining output samples here.
 146:Source\ComplexMathFunctions/arm_cmplx_mag_q31.c ****    ** No loop unrolling is used. */
 147:Source\ComplexMathFunctions/arm_cmplx_mag_q31.c ****   blkCnt = numSamples % 0x4u;
 148:Source\ComplexMathFunctions/arm_cmplx_mag_q31.c **** 
 149:Source\ComplexMathFunctions/arm_cmplx_mag_q31.c **** #else
 150:Source\ComplexMathFunctions/arm_cmplx_mag_q31.c **** 
 151:Source\ComplexMathFunctions/arm_cmplx_mag_q31.c ****   /* Run the below code for Cortex-M0 */
 152:Source\ComplexMathFunctions/arm_cmplx_mag_q31.c ****   blkCnt = numSamples;
  43              		.loc 1 152 0
  44 000c FB6A     		ldr	r3, [r7, #44]
  45 000e FB64     		str	r3, [r7, #76]
 153:Source\ComplexMathFunctions/arm_cmplx_mag_q31.c **** 
 154:Source\ComplexMathFunctions/arm_cmplx_mag_q31.c **** #endif /* #if defined (ARM_MATH_DSP) */
 155:Source\ComplexMathFunctions/arm_cmplx_mag_q31.c **** 
 156:Source\ComplexMathFunctions/arm_cmplx_mag_q31.c ****   while (blkCnt > 0u)
  46              		.loc 1 156 0
  47 0010 40E0     		b	.L2
  48              	.L3:
 157:Source\ComplexMathFunctions/arm_cmplx_mag_q31.c ****   {
 158:Source\ComplexMathFunctions/arm_cmplx_mag_q31.c ****     /* C[0] = sqrt(A[0] * A[0] + A[1] * A[1]) */
 159:Source\ComplexMathFunctions/arm_cmplx_mag_q31.c ****     real = *pSrc++;
  49              		.loc 1 159 0
  50 0012 7A6B     		ldr	r2, [r7, #52]
  51 0014 131D     		add	r3, r2, #4
  52 0016 7B63     		str	r3, [r7, #52]
  53 0018 1368     		ldr	r3, [r2]
  54 001a BB64     		str	r3, [r7, #72]
 160:Source\ComplexMathFunctions/arm_cmplx_mag_q31.c ****     imag = *pSrc++;
  55              		.loc 1 160 0
  56 001c 7A6B     		ldr	r2, [r7, #52]
  57 001e 131D     		add	r3, r2, #4
  58 0020 7B63     		str	r3, [r7, #52]
  59 0022 1368     		ldr	r3, [r2]
  60 0024 7B64     		str	r3, [r7, #68]
 161:Source\ComplexMathFunctions/arm_cmplx_mag_q31.c ****     acc0 = (q31_t) (((q63_t) real * real) >> 33);
  61              		.loc 1 161 0
  62 0026 BB6C     		ldr	r3, [r7, #72]
  63 0028 3B62     		str	r3, [r7, #32]
  64 002a DB17     		asr	r3, r3, #31
  65 002c 7B62     		str	r3, [r7, #36]
  66 002e BB6C     		ldr	r3, [r7, #72]
  67 0030 BB61     		str	r3, [r7, #24]
ARM GAS  C:\Users\fneves\AppData\Local\Temp\ccInoe6m.s 			page 5


  68 0032 DB17     		asr	r3, r3, #31
  69 0034 FB61     		str	r3, [r7, #28]
  70 0036 386A     		ldr	r0, [r7, #32]
  71 0038 796A     		ldr	r1, [r7, #36]
  72 003a BA69     		ldr	r2, [r7, #24]
  73 003c FB69     		ldr	r3, [r7, #28]
  74 003e FFF7FEFF 		bl	__aeabi_lmul
  75 0042 031C     		mov	r3, r0
  76 0044 0C1C     		mov	r4, r1
  77 0046 6510     		asr	r5, r4, #1
  78 0048 E617     		asr	r6, r4, #31
  79 004a 2B1C     		mov	r3, r5
  80 004c 3B64     		str	r3, [r7, #64]
 162:Source\ComplexMathFunctions/arm_cmplx_mag_q31.c ****     acc1 = (q31_t) (((q63_t) imag * imag) >> 33);
  81              		.loc 1 162 0
  82 004e 7B6C     		ldr	r3, [r7, #68]
  83 0050 3B61     		str	r3, [r7, #16]
  84 0052 DB17     		asr	r3, r3, #31
  85 0054 7B61     		str	r3, [r7, #20]
  86 0056 7B6C     		ldr	r3, [r7, #68]
  87 0058 BB60     		str	r3, [r7, #8]
  88 005a DB17     		asr	r3, r3, #31
  89 005c FB60     		str	r3, [r7, #12]
  90 005e 3869     		ldr	r0, [r7, #16]
  91 0060 7969     		ldr	r1, [r7, #20]
  92 0062 BA68     		ldr	r2, [r7, #8]
  93 0064 FB68     		ldr	r3, [r7, #12]
  94 0066 FFF7FEFF 		bl	__aeabi_lmul
  95 006a 031C     		mov	r3, r0
  96 006c 0C1C     		mov	r4, r1
  97 006e 6210     		asr	r2, r4, #1
  98 0070 3A60     		str	r2, [r7]
  99 0072 E317     		asr	r3, r4, #31
 100 0074 7B60     		str	r3, [r7, #4]
 101 0076 3B68     		ldr	r3, [r7]
 102 0078 FB63     		str	r3, [r7, #60]
 163:Source\ComplexMathFunctions/arm_cmplx_mag_q31.c ****     /* store the result in 2.30 format in the destination buffer. */
 164:Source\ComplexMathFunctions/arm_cmplx_mag_q31.c ****     arm_sqrt_q31(acc0 + acc1, pDst++);
 103              		.loc 1 164 0
 104 007a 3A6C     		ldr	r2, [r7, #64]
 105 007c FB6B     		ldr	r3, [r7, #60]
 106 007e D118     		add	r1, r2, r3
 107 0080 3A6B     		ldr	r2, [r7, #48]
 108 0082 131D     		add	r3, r2, #4
 109 0084 3B63     		str	r3, [r7, #48]
 110 0086 081C     		mov	r0, r1
 111 0088 111C     		mov	r1, r2
 112 008a FFF7FEFF 		bl	arm_sqrt_q31
 165:Source\ComplexMathFunctions/arm_cmplx_mag_q31.c **** 
 166:Source\ComplexMathFunctions/arm_cmplx_mag_q31.c ****     /* Decrement the loop counter */
 167:Source\ComplexMathFunctions/arm_cmplx_mag_q31.c ****     blkCnt--;
 113              		.loc 1 167 0
 114 008e FB6C     		ldr	r3, [r7, #76]
 115 0090 013B     		sub	r3, r3, #1
 116 0092 FB64     		str	r3, [r7, #76]
 117              	.L2:
 156:Source\ComplexMathFunctions/arm_cmplx_mag_q31.c ****   {
ARM GAS  C:\Users\fneves\AppData\Local\Temp\ccInoe6m.s 			page 6


 118              		.loc 1 156 0
 119 0094 FB6C     		ldr	r3, [r7, #76]
 120 0096 002B     		cmp	r3, #0
 121 0098 BBD1     		bne	.L3
 168:Source\ComplexMathFunctions/arm_cmplx_mag_q31.c ****   }
 169:Source\ComplexMathFunctions/arm_cmplx_mag_q31.c **** }
 122              		.loc 1 169 0
 123 009a BD46     		mov	sp, r7
 124 009c 15B0     		add	sp, sp, #84
 125              		@ sp needed
 126 009e F0BD     		pop	{r4, r5, r6, r7, pc}
 127              		.cfi_endproc
 128              	.LFE82:
 129              		.size	arm_cmplx_mag_q31, .-arm_cmplx_mag_q31
 130              		.text
 131              	.Letext0:
 132              		.file 2 "c:\\program files (x86)\\cypress\\psoc creator\\4.0\\psoc creator\\import\\gnu\\arm\\4.9.
 133              		.file 3 "c:\\program files (x86)\\cypress\\psoc creator\\4.0\\psoc creator\\import\\gnu\\arm\\4.9.
 134              		.file 4 ".\\Include/arm_math.h"