ARM GAS  C:\Users\fneves\AppData\Local\Temp\ccn7Vl8i.s 			page 1


   1              		.cpu cortex-m0plus
   2              		.fpu softvfp
   3              		.eabi_attribute 20, 1
   4              		.eabi_attribute 21, 1
   5              		.eabi_attribute 23, 3
   6              		.eabi_attribute 24, 1
   7              		.eabi_attribute 25, 1
   8              		.eabi_attribute 26, 1
   9              		.eabi_attribute 30, 6
  10              		.eabi_attribute 34, 0
  11              		.eabi_attribute 18, 4
  12              		.code	16
  13              		.file	"arm_max_q7.c"
  14              		.text
  15              	.Ltext0:
  16              		.cfi_sections	.debug_frame
  17              		.section	.text.arm_max_q7,"ax",%progbits
  18              		.align	2
  19              		.global	arm_max_q7
  20              		.code	16
  21              		.thumb_func
  22              		.type	arm_max_q7, %function
  23              	arm_max_q7:
  24              	.LFB82:
  25              		.file 1 "Source\\StatisticsFunctions\\arm_max_q7.c"
   1:Source\StatisticsFunctions/arm_max_q7.c **** /* ----------------------------------------------------------------------
   2:Source\StatisticsFunctions/arm_max_q7.c ****  * Project:      CMSIS DSP Library
   3:Source\StatisticsFunctions/arm_max_q7.c ****  * Title:        arm_max_q7.c
   4:Source\StatisticsFunctions/arm_max_q7.c ****  * Description:  Maximum value of a Q7 vector
   5:Source\StatisticsFunctions/arm_max_q7.c ****  *
   6:Source\StatisticsFunctions/arm_max_q7.c ****  * $Date:        27. January 2017
   7:Source\StatisticsFunctions/arm_max_q7.c ****  * $Revision:    V.1.5.1
   8:Source\StatisticsFunctions/arm_max_q7.c ****  *
   9:Source\StatisticsFunctions/arm_max_q7.c ****  * Target Processor: Cortex-M cores
  10:Source\StatisticsFunctions/arm_max_q7.c ****  * -------------------------------------------------------------------- */
  11:Source\StatisticsFunctions/arm_max_q7.c **** /*
  12:Source\StatisticsFunctions/arm_max_q7.c ****  * Copyright (C) 2010-2017 ARM Limited or its affiliates. All rights reserved.
  13:Source\StatisticsFunctions/arm_max_q7.c ****  *
  14:Source\StatisticsFunctions/arm_max_q7.c ****  * SPDX-License-Identifier: Apache-2.0
  15:Source\StatisticsFunctions/arm_max_q7.c ****  *
  16:Source\StatisticsFunctions/arm_max_q7.c ****  * Licensed under the Apache License, Version 2.0 (the License); you may
  17:Source\StatisticsFunctions/arm_max_q7.c ****  * not use this file except in compliance with the License.
  18:Source\StatisticsFunctions/arm_max_q7.c ****  * You may obtain a copy of the License at
  19:Source\StatisticsFunctions/arm_max_q7.c ****  *
  20:Source\StatisticsFunctions/arm_max_q7.c ****  * www.apache.org/licenses/LICENSE-2.0
  21:Source\StatisticsFunctions/arm_max_q7.c ****  *
  22:Source\StatisticsFunctions/arm_max_q7.c ****  * Unless required by applicable law or agreed to in writing, software
  23:Source\StatisticsFunctions/arm_max_q7.c ****  * distributed under the License is distributed on an AS IS BASIS, WITHOUT
  24:Source\StatisticsFunctions/arm_max_q7.c ****  * WARRANTIES OR CONDITIONS OF ANY KIND, either express or implied.
  25:Source\StatisticsFunctions/arm_max_q7.c ****  * See the License for the specific language governing permissions and
  26:Source\StatisticsFunctions/arm_max_q7.c ****  * limitations under the License.
  27:Source\StatisticsFunctions/arm_max_q7.c ****  */
  28:Source\StatisticsFunctions/arm_max_q7.c **** 
  29:Source\StatisticsFunctions/arm_max_q7.c **** #include "arm_math.h"
  30:Source\StatisticsFunctions/arm_max_q7.c **** 
  31:Source\StatisticsFunctions/arm_max_q7.c **** /**
  32:Source\StatisticsFunctions/arm_max_q7.c ****  * @ingroup groupStats
ARM GAS  C:\Users\fneves\AppData\Local\Temp\ccn7Vl8i.s 			page 2


  33:Source\StatisticsFunctions/arm_max_q7.c ****  */
  34:Source\StatisticsFunctions/arm_max_q7.c **** 
  35:Source\StatisticsFunctions/arm_max_q7.c **** /**
  36:Source\StatisticsFunctions/arm_max_q7.c ****  * @addtogroup Max
  37:Source\StatisticsFunctions/arm_max_q7.c ****  * @{
  38:Source\StatisticsFunctions/arm_max_q7.c ****  */
  39:Source\StatisticsFunctions/arm_max_q7.c **** 
  40:Source\StatisticsFunctions/arm_max_q7.c **** 
  41:Source\StatisticsFunctions/arm_max_q7.c **** /**
  42:Source\StatisticsFunctions/arm_max_q7.c ****  * @brief Maximum value of a Q7 vector.
  43:Source\StatisticsFunctions/arm_max_q7.c ****  * @param[in]       *pSrc points to the input vector
  44:Source\StatisticsFunctions/arm_max_q7.c ****  * @param[in]       blockSize length of the input vector
  45:Source\StatisticsFunctions/arm_max_q7.c ****  * @param[out]      *pResult maximum value returned here
  46:Source\StatisticsFunctions/arm_max_q7.c ****  * @param[out]      *pIndex index of maximum value returned here
  47:Source\StatisticsFunctions/arm_max_q7.c ****  * @return none.
  48:Source\StatisticsFunctions/arm_max_q7.c ****  */
  49:Source\StatisticsFunctions/arm_max_q7.c **** 
  50:Source\StatisticsFunctions/arm_max_q7.c **** void arm_max_q7(
  51:Source\StatisticsFunctions/arm_max_q7.c ****   q7_t * pSrc,
  52:Source\StatisticsFunctions/arm_max_q7.c ****   uint32_t blockSize,
  53:Source\StatisticsFunctions/arm_max_q7.c ****   q7_t * pResult,
  54:Source\StatisticsFunctions/arm_max_q7.c ****   uint32_t * pIndex)
  55:Source\StatisticsFunctions/arm_max_q7.c **** {
  26              		.loc 1 55 0
  27              		.cfi_startproc
  28 0000 80B5     		push	{r7, lr}
  29              		.cfi_def_cfa_offset 8
  30              		.cfi_offset 7, -8
  31              		.cfi_offset 14, -4
  32 0002 88B0     		sub	sp, sp, #32
  33              		.cfi_def_cfa_offset 40
  34 0004 00AF     		add	r7, sp, #0
  35              		.cfi_def_cfa_register 7
  36 0006 F860     		str	r0, [r7, #12]
  37 0008 B960     		str	r1, [r7, #8]
  38 000a 7A60     		str	r2, [r7, #4]
  39 000c 3B60     		str	r3, [r7]
  56:Source\StatisticsFunctions/arm_max_q7.c **** #if defined (ARM_MATH_DSP)
  57:Source\StatisticsFunctions/arm_max_q7.c ****   /* Run the below code for Cortex-M4 and Cortex-M3 */
  58:Source\StatisticsFunctions/arm_max_q7.c **** 
  59:Source\StatisticsFunctions/arm_max_q7.c ****   q7_t maxVal1, maxVal2, out;                    /* Temporary variables to store the output value. 
  60:Source\StatisticsFunctions/arm_max_q7.c ****   uint32_t blkCnt, outIndex, count;              /* loop counter */
  61:Source\StatisticsFunctions/arm_max_q7.c **** 
  62:Source\StatisticsFunctions/arm_max_q7.c ****   /* Initialise the count value. */
  63:Source\StatisticsFunctions/arm_max_q7.c ****   count = 0u;
  64:Source\StatisticsFunctions/arm_max_q7.c ****   /* Initialise the index value to zero. */
  65:Source\StatisticsFunctions/arm_max_q7.c ****   outIndex = 0u;
  66:Source\StatisticsFunctions/arm_max_q7.c ****   /* Load first input value that act as reference value for comparision */
  67:Source\StatisticsFunctions/arm_max_q7.c ****   out = *pSrc++;
  68:Source\StatisticsFunctions/arm_max_q7.c **** 
  69:Source\StatisticsFunctions/arm_max_q7.c ****   /* Loop unrolling */
  70:Source\StatisticsFunctions/arm_max_q7.c ****   blkCnt = (blockSize - 1u) >> 2u;
  71:Source\StatisticsFunctions/arm_max_q7.c **** 
  72:Source\StatisticsFunctions/arm_max_q7.c ****   while (blkCnt > 0u)
  73:Source\StatisticsFunctions/arm_max_q7.c ****   {
  74:Source\StatisticsFunctions/arm_max_q7.c ****     /* Initialize maxVal to the next consecutive values one by one */
  75:Source\StatisticsFunctions/arm_max_q7.c ****     maxVal1 = *pSrc++;
ARM GAS  C:\Users\fneves\AppData\Local\Temp\ccn7Vl8i.s 			page 3


  76:Source\StatisticsFunctions/arm_max_q7.c ****     maxVal2 = *pSrc++;
  77:Source\StatisticsFunctions/arm_max_q7.c **** 
  78:Source\StatisticsFunctions/arm_max_q7.c ****     /* compare for the maximum value */
  79:Source\StatisticsFunctions/arm_max_q7.c ****     if (out < maxVal1)
  80:Source\StatisticsFunctions/arm_max_q7.c ****     {
  81:Source\StatisticsFunctions/arm_max_q7.c ****       /* Update the maximum value and its index */
  82:Source\StatisticsFunctions/arm_max_q7.c ****       out = maxVal1;
  83:Source\StatisticsFunctions/arm_max_q7.c ****       outIndex = count + 1u;
  84:Source\StatisticsFunctions/arm_max_q7.c ****     }
  85:Source\StatisticsFunctions/arm_max_q7.c **** 
  86:Source\StatisticsFunctions/arm_max_q7.c ****     /* compare for the maximum value */
  87:Source\StatisticsFunctions/arm_max_q7.c ****     if (out < maxVal2)
  88:Source\StatisticsFunctions/arm_max_q7.c ****     {
  89:Source\StatisticsFunctions/arm_max_q7.c ****       /* Update the maximum value and its index */
  90:Source\StatisticsFunctions/arm_max_q7.c ****       out = maxVal2;
  91:Source\StatisticsFunctions/arm_max_q7.c ****       outIndex = count + 2u;
  92:Source\StatisticsFunctions/arm_max_q7.c ****     }
  93:Source\StatisticsFunctions/arm_max_q7.c **** 
  94:Source\StatisticsFunctions/arm_max_q7.c ****     /* Initialize maxVal to the next consecutive values one by one */
  95:Source\StatisticsFunctions/arm_max_q7.c ****     maxVal1 = *pSrc++;
  96:Source\StatisticsFunctions/arm_max_q7.c ****     maxVal2 = *pSrc++;
  97:Source\StatisticsFunctions/arm_max_q7.c **** 
  98:Source\StatisticsFunctions/arm_max_q7.c ****     /* compare for the maximum value */
  99:Source\StatisticsFunctions/arm_max_q7.c ****     if (out < maxVal1)
 100:Source\StatisticsFunctions/arm_max_q7.c ****     {
 101:Source\StatisticsFunctions/arm_max_q7.c ****       /* Update the maximum value and its index */
 102:Source\StatisticsFunctions/arm_max_q7.c ****       out = maxVal1;
 103:Source\StatisticsFunctions/arm_max_q7.c ****       outIndex = count + 3u;
 104:Source\StatisticsFunctions/arm_max_q7.c ****     }
 105:Source\StatisticsFunctions/arm_max_q7.c **** 
 106:Source\StatisticsFunctions/arm_max_q7.c ****     /* compare for the maximum value */
 107:Source\StatisticsFunctions/arm_max_q7.c ****     if (out < maxVal2)
 108:Source\StatisticsFunctions/arm_max_q7.c ****     {
 109:Source\StatisticsFunctions/arm_max_q7.c ****       /* Update the maximum value and its index */
 110:Source\StatisticsFunctions/arm_max_q7.c ****       out = maxVal2;
 111:Source\StatisticsFunctions/arm_max_q7.c ****       outIndex = count + 4u;
 112:Source\StatisticsFunctions/arm_max_q7.c ****     }
 113:Source\StatisticsFunctions/arm_max_q7.c **** 
 114:Source\StatisticsFunctions/arm_max_q7.c ****     count += 4u;
 115:Source\StatisticsFunctions/arm_max_q7.c **** 
 116:Source\StatisticsFunctions/arm_max_q7.c ****     /* Decrement the loop counter */
 117:Source\StatisticsFunctions/arm_max_q7.c ****     blkCnt--;
 118:Source\StatisticsFunctions/arm_max_q7.c ****   }
 119:Source\StatisticsFunctions/arm_max_q7.c **** 
 120:Source\StatisticsFunctions/arm_max_q7.c ****   /* if (blockSize - 1u) is not multiple of 4 */
 121:Source\StatisticsFunctions/arm_max_q7.c ****   blkCnt = (blockSize - 1u) % 4u;
 122:Source\StatisticsFunctions/arm_max_q7.c **** 
 123:Source\StatisticsFunctions/arm_max_q7.c **** #else
 124:Source\StatisticsFunctions/arm_max_q7.c ****   /* Run the below code for Cortex-M0 */
 125:Source\StatisticsFunctions/arm_max_q7.c **** 
 126:Source\StatisticsFunctions/arm_max_q7.c ****   q7_t maxVal1, out;                             /* Temporary variables to store the output value. 
 127:Source\StatisticsFunctions/arm_max_q7.c ****   uint32_t blkCnt, outIndex;                     /* loop counter */
 128:Source\StatisticsFunctions/arm_max_q7.c **** 
 129:Source\StatisticsFunctions/arm_max_q7.c ****   /* Initialise the index value to zero. */
 130:Source\StatisticsFunctions/arm_max_q7.c ****   outIndex = 0u;
  40              		.loc 1 130 0
  41 000e 0023     		mov	r3, #0
ARM GAS  C:\Users\fneves\AppData\Local\Temp\ccn7Vl8i.s 			page 4


  42 0010 7B61     		str	r3, [r7, #20]
 131:Source\StatisticsFunctions/arm_max_q7.c ****   /* Load first input value that act as reference value for comparision */
 132:Source\StatisticsFunctions/arm_max_q7.c ****   out = *pSrc++;
  43              		.loc 1 132 0
  44 0012 FB68     		ldr	r3, [r7, #12]
  45 0014 5A1C     		add	r2, r3, #1
  46 0016 FA60     		str	r2, [r7, #12]
  47 0018 1F22     		mov	r2, #31
  48 001a BA18     		add	r2, r7, r2
  49 001c 1B78     		ldrb	r3, [r3]
  50 001e 1370     		strb	r3, [r2]
 133:Source\StatisticsFunctions/arm_max_q7.c **** 
 134:Source\StatisticsFunctions/arm_max_q7.c ****   blkCnt = (blockSize - 1u);
  51              		.loc 1 134 0
  52 0020 BB68     		ldr	r3, [r7, #8]
  53 0022 013B     		sub	r3, r3, #1
  54 0024 BB61     		str	r3, [r7, #24]
 135:Source\StatisticsFunctions/arm_max_q7.c **** 
 136:Source\StatisticsFunctions/arm_max_q7.c **** #endif /* #if defined (ARM_MATH_DSP) */
 137:Source\StatisticsFunctions/arm_max_q7.c **** 
 138:Source\StatisticsFunctions/arm_max_q7.c ****   while (blkCnt > 0u)
  55              		.loc 1 138 0
  56 0026 1DE0     		b	.L2
  57              	.L4:
 139:Source\StatisticsFunctions/arm_max_q7.c ****   {
 140:Source\StatisticsFunctions/arm_max_q7.c ****     /* Initialize maxVal to the next consecutive values one by one */
 141:Source\StatisticsFunctions/arm_max_q7.c ****     maxVal1 = *pSrc++;
  58              		.loc 1 141 0
  59 0028 FB68     		ldr	r3, [r7, #12]
  60 002a 5A1C     		add	r2, r3, #1
  61 002c FA60     		str	r2, [r7, #12]
  62 002e 1322     		mov	r2, #19
  63 0030 BA18     		add	r2, r7, r2
  64 0032 1B78     		ldrb	r3, [r3]
  65 0034 1370     		strb	r3, [r2]
 142:Source\StatisticsFunctions/arm_max_q7.c **** 
 143:Source\StatisticsFunctions/arm_max_q7.c ****     /* compare for the maximum value */
 144:Source\StatisticsFunctions/arm_max_q7.c ****     if (out < maxVal1)
  66              		.loc 1 144 0
  67 0036 1F23     		mov	r3, #31
  68 0038 FA18     		add	r2, r7, r3
  69 003a 1323     		mov	r3, #19
  70 003c FB18     		add	r3, r7, r3
  71 003e 1278     		ldrb	r2, [r2]
  72 0040 52B2     		sxtb	r2, r2
  73 0042 1B78     		ldrb	r3, [r3]
  74 0044 5BB2     		sxtb	r3, r3
  75 0046 9A42     		cmp	r2, r3
  76 0048 09DA     		bge	.L3
 145:Source\StatisticsFunctions/arm_max_q7.c ****     {
 146:Source\StatisticsFunctions/arm_max_q7.c ****       /* Update the maximum value and it's index */
 147:Source\StatisticsFunctions/arm_max_q7.c ****       out = maxVal1;
  77              		.loc 1 147 0
  78 004a 1F23     		mov	r3, #31
  79 004c FB18     		add	r3, r7, r3
  80 004e 1322     		mov	r2, #19
  81 0050 BA18     		add	r2, r7, r2
ARM GAS  C:\Users\fneves\AppData\Local\Temp\ccn7Vl8i.s 			page 5


  82 0052 1278     		ldrb	r2, [r2]
  83 0054 1A70     		strb	r2, [r3]
 148:Source\StatisticsFunctions/arm_max_q7.c ****       outIndex = blockSize - blkCnt;
  84              		.loc 1 148 0
  85 0056 BA68     		ldr	r2, [r7, #8]
  86 0058 BB69     		ldr	r3, [r7, #24]
  87 005a D31A     		sub	r3, r2, r3
  88 005c 7B61     		str	r3, [r7, #20]
  89              	.L3:
 149:Source\StatisticsFunctions/arm_max_q7.c ****     }
 150:Source\StatisticsFunctions/arm_max_q7.c **** 
 151:Source\StatisticsFunctions/arm_max_q7.c ****     /* Decrement the loop counter */
 152:Source\StatisticsFunctions/arm_max_q7.c ****     blkCnt--;
  90              		.loc 1 152 0
  91 005e BB69     		ldr	r3, [r7, #24]
  92 0060 013B     		sub	r3, r3, #1
  93 0062 BB61     		str	r3, [r7, #24]
  94              	.L2:
 138:Source\StatisticsFunctions/arm_max_q7.c ****   {
  95              		.loc 1 138 0
  96 0064 BB69     		ldr	r3, [r7, #24]
  97 0066 002B     		cmp	r3, #0
  98 0068 DED1     		bne	.L4
 153:Source\StatisticsFunctions/arm_max_q7.c ****   }
 154:Source\StatisticsFunctions/arm_max_q7.c **** 
 155:Source\StatisticsFunctions/arm_max_q7.c ****   /* Store the maximum value and it's index into destination pointers */
 156:Source\StatisticsFunctions/arm_max_q7.c ****   *pResult = out;
  99              		.loc 1 156 0
 100 006a 7B68     		ldr	r3, [r7, #4]
 101 006c 1F22     		mov	r2, #31
 102 006e BA18     		add	r2, r7, r2
 103 0070 1278     		ldrb	r2, [r2]
 104 0072 1A70     		strb	r2, [r3]
 157:Source\StatisticsFunctions/arm_max_q7.c ****   *pIndex = outIndex;
 105              		.loc 1 157 0
 106 0074 3B68     		ldr	r3, [r7]
 107 0076 7A69     		ldr	r2, [r7, #20]
 108 0078 1A60     		str	r2, [r3]
 158:Source\StatisticsFunctions/arm_max_q7.c **** }
 109              		.loc 1 158 0
 110 007a BD46     		mov	sp, r7
 111 007c 08B0     		add	sp, sp, #32
 112              		@ sp needed
 113 007e 80BD     		pop	{r7, pc}
 114              		.cfi_endproc
 115              	.LFE82:
 116              		.size	arm_max_q7, .-arm_max_q7
 117              		.text
 118              	.Letext0:
 119              		.file 2 "c:\\program files (x86)\\cypress\\psoc creator\\4.0\\psoc creator\\import\\gnu\\arm\\4.9.
 120              		.file 3 "c:\\program files (x86)\\cypress\\psoc creator\\4.0\\psoc creator\\import\\gnu\\arm\\4.9.
 121              		.file 4 ".\\Include/arm_math.h"