ARM GAS  C:\Users\fneves\AppData\Local\Temp\ccgOoZsK.s 			page 1


   1              		.cpu cortex-m0plus
   2              		.fpu softvfp
   3              		.eabi_attribute 20, 1
   4              		.eabi_attribute 21, 1
   5              		.eabi_attribute 23, 3
   6              		.eabi_attribute 24, 1
   7              		.eabi_attribute 25, 1
   8              		.eabi_attribute 26, 1
   9              		.eabi_attribute 30, 6
  10              		.eabi_attribute 34, 0
  11              		.eabi_attribute 18, 4
  12              		.code	16
  13              		.file	"arm_iir_lattice_f32.c"
  14              		.text
  15              	.Ltext0:
  16              		.cfi_sections	.debug_frame
  17              		.global	__aeabi_fmul
  18              		.global	__aeabi_fsub
  19              		.global	__aeabi_fadd
  20              		.section	.text.arm_iir_lattice_f32,"ax",%progbits
  21              		.align	2
  22              		.global	arm_iir_lattice_f32
  23              		.code	16
  24              		.thumb_func
  25              		.type	arm_iir_lattice_f32, %function
  26              	arm_iir_lattice_f32:
  27              	.LFB82:
  28              		.file 1 "Source\\FilteringFunctions\\arm_iir_lattice_f32.c"
   1:Source\FilteringFunctions/arm_iir_lattice_f32.c **** /* ----------------------------------------------------------------------
   2:Source\FilteringFunctions/arm_iir_lattice_f32.c ****  * Project:      CMSIS DSP Library
   3:Source\FilteringFunctions/arm_iir_lattice_f32.c ****  * Title:        arm_iir_lattice_f32.c
   4:Source\FilteringFunctions/arm_iir_lattice_f32.c ****  * Description:  Floating-point IIR Lattice filter processing function
   5:Source\FilteringFunctions/arm_iir_lattice_f32.c ****  *
   6:Source\FilteringFunctions/arm_iir_lattice_f32.c ****  * $Date:        27. January 2017
   7:Source\FilteringFunctions/arm_iir_lattice_f32.c ****  * $Revision:    V.1.5.1
   8:Source\FilteringFunctions/arm_iir_lattice_f32.c ****  *
   9:Source\FilteringFunctions/arm_iir_lattice_f32.c ****  * Target Processor: Cortex-M cores
  10:Source\FilteringFunctions/arm_iir_lattice_f32.c ****  * -------------------------------------------------------------------- */
  11:Source\FilteringFunctions/arm_iir_lattice_f32.c **** /*
  12:Source\FilteringFunctions/arm_iir_lattice_f32.c ****  * Copyright (C) 2010-2017 ARM Limited or its affiliates. All rights reserved.
  13:Source\FilteringFunctions/arm_iir_lattice_f32.c ****  *
  14:Source\FilteringFunctions/arm_iir_lattice_f32.c ****  * SPDX-License-Identifier: Apache-2.0
  15:Source\FilteringFunctions/arm_iir_lattice_f32.c ****  *
  16:Source\FilteringFunctions/arm_iir_lattice_f32.c ****  * Licensed under the Apache License, Version 2.0 (the License); you may
  17:Source\FilteringFunctions/arm_iir_lattice_f32.c ****  * not use this file except in compliance with the License.
  18:Source\FilteringFunctions/arm_iir_lattice_f32.c ****  * You may obtain a copy of the License at
  19:Source\FilteringFunctions/arm_iir_lattice_f32.c ****  *
  20:Source\FilteringFunctions/arm_iir_lattice_f32.c ****  * www.apache.org/licenses/LICENSE-2.0
  21:Source\FilteringFunctions/arm_iir_lattice_f32.c ****  *
  22:Source\FilteringFunctions/arm_iir_lattice_f32.c ****  * Unless required by applicable law or agreed to in writing, software
  23:Source\FilteringFunctions/arm_iir_lattice_f32.c ****  * distributed under the License is distributed on an AS IS BASIS, WITHOUT
  24:Source\FilteringFunctions/arm_iir_lattice_f32.c ****  * WARRANTIES OR CONDITIONS OF ANY KIND, either express or implied.
  25:Source\FilteringFunctions/arm_iir_lattice_f32.c ****  * See the License for the specific language governing permissions and
  26:Source\FilteringFunctions/arm_iir_lattice_f32.c ****  * limitations under the License.
  27:Source\FilteringFunctions/arm_iir_lattice_f32.c ****  */
  28:Source\FilteringFunctions/arm_iir_lattice_f32.c **** 
  29:Source\FilteringFunctions/arm_iir_lattice_f32.c **** #include "arm_math.h"
ARM GAS  C:\Users\fneves\AppData\Local\Temp\ccgOoZsK.s 			page 2


  30:Source\FilteringFunctions/arm_iir_lattice_f32.c **** 
  31:Source\FilteringFunctions/arm_iir_lattice_f32.c **** /**
  32:Source\FilteringFunctions/arm_iir_lattice_f32.c ****  * @ingroup groupFilters
  33:Source\FilteringFunctions/arm_iir_lattice_f32.c ****  */
  34:Source\FilteringFunctions/arm_iir_lattice_f32.c **** 
  35:Source\FilteringFunctions/arm_iir_lattice_f32.c **** /**
  36:Source\FilteringFunctions/arm_iir_lattice_f32.c ****  * @defgroup IIR_Lattice Infinite Impulse Response (IIR) Lattice Filters
  37:Source\FilteringFunctions/arm_iir_lattice_f32.c ****  *
  38:Source\FilteringFunctions/arm_iir_lattice_f32.c ****  * This set of functions implements lattice filters
  39:Source\FilteringFunctions/arm_iir_lattice_f32.c ****  * for Q15, Q31 and floating-point data types.  Lattice filters are used in a
  40:Source\FilteringFunctions/arm_iir_lattice_f32.c ****  * variety of adaptive filter applications.  The filter structure has feedforward and
  41:Source\FilteringFunctions/arm_iir_lattice_f32.c ****  * feedback components and the net impulse response is infinite length.
  42:Source\FilteringFunctions/arm_iir_lattice_f32.c ****  * The functions operate on blocks
  43:Source\FilteringFunctions/arm_iir_lattice_f32.c ****  * of input and output data and each call to the function processes
  44:Source\FilteringFunctions/arm_iir_lattice_f32.c ****  * <code>blockSize</code> samples through the filter.  <code>pSrc</code> and
  45:Source\FilteringFunctions/arm_iir_lattice_f32.c ****  * <code>pDst</code> point to input and output arrays containing <code>blockSize</code> values.
  46:Source\FilteringFunctions/arm_iir_lattice_f32.c **** 
  47:Source\FilteringFunctions/arm_iir_lattice_f32.c ****  * \par Algorithm:
  48:Source\FilteringFunctions/arm_iir_lattice_f32.c ****  * \image html IIRLattice.gif "Infinite Impulse Response Lattice filter"
  49:Source\FilteringFunctions/arm_iir_lattice_f32.c ****  * <pre>
  50:Source\FilteringFunctions/arm_iir_lattice_f32.c ****  *    fN(n)   =  x(n)
  51:Source\FilteringFunctions/arm_iir_lattice_f32.c ****  *    fm-1(n) = fm(n) - km * gm-1(n-1)   for m = N, N-1, ...1
  52:Source\FilteringFunctions/arm_iir_lattice_f32.c ****  *    gm(n)   = km * fm-1(n) + gm-1(n-1) for m = N, N-1, ...1
  53:Source\FilteringFunctions/arm_iir_lattice_f32.c ****  *    y(n)    = vN * gN(n) + vN-1 * gN-1(n) + ...+ v0 * g0(n)
  54:Source\FilteringFunctions/arm_iir_lattice_f32.c ****  * </pre>
  55:Source\FilteringFunctions/arm_iir_lattice_f32.c ****  * \par
  56:Source\FilteringFunctions/arm_iir_lattice_f32.c ****  * <code>pkCoeffs</code> points to array of reflection coefficients of size <code>numStages</code>.
  57:Source\FilteringFunctions/arm_iir_lattice_f32.c ****  * Reflection coefficients are stored in time-reversed order.
  58:Source\FilteringFunctions/arm_iir_lattice_f32.c ****  * \par
  59:Source\FilteringFunctions/arm_iir_lattice_f32.c ****  * <pre>
  60:Source\FilteringFunctions/arm_iir_lattice_f32.c ****  *    {kN, kN-1, ....k1}
  61:Source\FilteringFunctions/arm_iir_lattice_f32.c ****  * </pre>
  62:Source\FilteringFunctions/arm_iir_lattice_f32.c ****  * <code>pvCoeffs</code> points to the array of ladder coefficients of size <code>(numStages+1)</co
  63:Source\FilteringFunctions/arm_iir_lattice_f32.c ****  * Ladder coefficients are stored in time-reversed order.
  64:Source\FilteringFunctions/arm_iir_lattice_f32.c ****  * \par
  65:Source\FilteringFunctions/arm_iir_lattice_f32.c ****  * <pre>
  66:Source\FilteringFunctions/arm_iir_lattice_f32.c ****  *    {vN, vN-1, ...v0}
  67:Source\FilteringFunctions/arm_iir_lattice_f32.c ****  * </pre>
  68:Source\FilteringFunctions/arm_iir_lattice_f32.c ****  * <code>pState</code> points to a state array of size <code>numStages + blockSize</code>.
  69:Source\FilteringFunctions/arm_iir_lattice_f32.c ****  * The state variables shown in the figure above (the g values) are stored in the <code>pState</cod
  70:Source\FilteringFunctions/arm_iir_lattice_f32.c ****  * The state variables are updated after each block of data is processed; the coefficients are unto
  71:Source\FilteringFunctions/arm_iir_lattice_f32.c ****  * \par Instance Structure
  72:Source\FilteringFunctions/arm_iir_lattice_f32.c ****  * The coefficients and state variables for a filter are stored together in an instance data struct
  73:Source\FilteringFunctions/arm_iir_lattice_f32.c ****  * A separate instance structure must be defined for each filter.
  74:Source\FilteringFunctions/arm_iir_lattice_f32.c ****  * Coefficient arrays may be shared among several instances while state variable arrays cannot be s
  75:Source\FilteringFunctions/arm_iir_lattice_f32.c ****  * There are separate instance structure declarations for each of the 3 supported data types.
  76:Source\FilteringFunctions/arm_iir_lattice_f32.c ****   *
  77:Source\FilteringFunctions/arm_iir_lattice_f32.c ****  * \par Initialization Functions
  78:Source\FilteringFunctions/arm_iir_lattice_f32.c ****  * There is also an associated initialization function for each data type.
  79:Source\FilteringFunctions/arm_iir_lattice_f32.c ****  * The initialization function performs the following operations:
  80:Source\FilteringFunctions/arm_iir_lattice_f32.c ****  * - Sets the values of the internal structure fields.
  81:Source\FilteringFunctions/arm_iir_lattice_f32.c ****  * - Zeros out the values in the state buffer.
  82:Source\FilteringFunctions/arm_iir_lattice_f32.c ****  * To do this manually without calling the init function, assign the follow subfields of the instan
  83:Source\FilteringFunctions/arm_iir_lattice_f32.c ****  * numStages, pkCoeffs, pvCoeffs, pState. Also set all of the values in pState to zero.
  84:Source\FilteringFunctions/arm_iir_lattice_f32.c ****  *
  85:Source\FilteringFunctions/arm_iir_lattice_f32.c ****  * \par
  86:Source\FilteringFunctions/arm_iir_lattice_f32.c ****  * Use of the initialization function is optional.
ARM GAS  C:\Users\fneves\AppData\Local\Temp\ccgOoZsK.s 			page 3


  87:Source\FilteringFunctions/arm_iir_lattice_f32.c ****  * However, if the initialization function is used, then the instance structure cannot be placed in
  88:Source\FilteringFunctions/arm_iir_lattice_f32.c ****  * To place an instance structure into a const data section, the instance structure must be manuall
  89:Source\FilteringFunctions/arm_iir_lattice_f32.c ****  * Set the values in the state buffer to zeros and then manually initialize the instance structure 
  90:Source\FilteringFunctions/arm_iir_lattice_f32.c ****  * <pre>
  91:Source\FilteringFunctions/arm_iir_lattice_f32.c ****  *arm_iir_lattice_instance_f32 S = {numStages, pState, pkCoeffs, pvCoeffs};
  92:Source\FilteringFunctions/arm_iir_lattice_f32.c ****  *arm_iir_lattice_instance_q31 S = {numStages, pState, pkCoeffs, pvCoeffs};
  93:Source\FilteringFunctions/arm_iir_lattice_f32.c ****  *arm_iir_lattice_instance_q15 S = {numStages, pState, pkCoeffs, pvCoeffs};
  94:Source\FilteringFunctions/arm_iir_lattice_f32.c ****  * </pre>
  95:Source\FilteringFunctions/arm_iir_lattice_f32.c ****  * \par
  96:Source\FilteringFunctions/arm_iir_lattice_f32.c ****  * where <code>numStages</code> is the number of stages in the filter; <code>pState</code> points t
  97:Source\FilteringFunctions/arm_iir_lattice_f32.c ****  * <code>pkCoeffs</code> points to array of the reflection coefficients; <code>pvCoeffs</code> poin
  98:Source\FilteringFunctions/arm_iir_lattice_f32.c ****  * \par Fixed-Point Behavior
  99:Source\FilteringFunctions/arm_iir_lattice_f32.c ****  * Care must be taken when using the fixed-point versions of the IIR lattice filter functions.
 100:Source\FilteringFunctions/arm_iir_lattice_f32.c ****  * In particular, the overflow and saturation behavior of the accumulator used in each function mus
 101:Source\FilteringFunctions/arm_iir_lattice_f32.c ****  * Refer to the function specific documentation below for usage guidelines.
 102:Source\FilteringFunctions/arm_iir_lattice_f32.c ****  */
 103:Source\FilteringFunctions/arm_iir_lattice_f32.c **** 
 104:Source\FilteringFunctions/arm_iir_lattice_f32.c **** /**
 105:Source\FilteringFunctions/arm_iir_lattice_f32.c ****  * @addtogroup IIR_Lattice
 106:Source\FilteringFunctions/arm_iir_lattice_f32.c ****  * @{
 107:Source\FilteringFunctions/arm_iir_lattice_f32.c ****  */
 108:Source\FilteringFunctions/arm_iir_lattice_f32.c **** 
 109:Source\FilteringFunctions/arm_iir_lattice_f32.c **** /**
 110:Source\FilteringFunctions/arm_iir_lattice_f32.c ****  * @brief Processing function for the floating-point IIR lattice filter.
 111:Source\FilteringFunctions/arm_iir_lattice_f32.c ****  * @param[in] *S points to an instance of the floating-point IIR lattice structure.
 112:Source\FilteringFunctions/arm_iir_lattice_f32.c ****  * @param[in] *pSrc points to the block of input data.
 113:Source\FilteringFunctions/arm_iir_lattice_f32.c ****  * @param[out] *pDst points to the block of output data.
 114:Source\FilteringFunctions/arm_iir_lattice_f32.c ****  * @param[in] blockSize number of samples to process.
 115:Source\FilteringFunctions/arm_iir_lattice_f32.c ****  * @return none.
 116:Source\FilteringFunctions/arm_iir_lattice_f32.c ****  */
 117:Source\FilteringFunctions/arm_iir_lattice_f32.c **** 
 118:Source\FilteringFunctions/arm_iir_lattice_f32.c **** #if defined (ARM_MATH_DSP)
 119:Source\FilteringFunctions/arm_iir_lattice_f32.c **** 
 120:Source\FilteringFunctions/arm_iir_lattice_f32.c ****   /* Run the below code for Cortex-M4 and Cortex-M3 */
 121:Source\FilteringFunctions/arm_iir_lattice_f32.c **** 
 122:Source\FilteringFunctions/arm_iir_lattice_f32.c **** void arm_iir_lattice_f32(
 123:Source\FilteringFunctions/arm_iir_lattice_f32.c ****   const arm_iir_lattice_instance_f32 * S,
 124:Source\FilteringFunctions/arm_iir_lattice_f32.c ****   float32_t * pSrc,
 125:Source\FilteringFunctions/arm_iir_lattice_f32.c ****   float32_t * pDst,
 126:Source\FilteringFunctions/arm_iir_lattice_f32.c ****   uint32_t blockSize)
 127:Source\FilteringFunctions/arm_iir_lattice_f32.c **** {
 128:Source\FilteringFunctions/arm_iir_lattice_f32.c ****   float32_t fnext1, gcurr1, gnext;               /* Temporary variables for lattice stages */
 129:Source\FilteringFunctions/arm_iir_lattice_f32.c ****   float32_t acc;                                 /* Accumlator */
 130:Source\FilteringFunctions/arm_iir_lattice_f32.c ****   uint32_t blkCnt, tapCnt;                       /* temporary variables for counts */
 131:Source\FilteringFunctions/arm_iir_lattice_f32.c ****   float32_t *px1, *px2, *pk, *pv;                /* temporary pointers for state and coef */
 132:Source\FilteringFunctions/arm_iir_lattice_f32.c ****   uint32_t numStages = S->numStages;             /* number of stages */
 133:Source\FilteringFunctions/arm_iir_lattice_f32.c ****   float32_t *pState;                             /* State pointer */
 134:Source\FilteringFunctions/arm_iir_lattice_f32.c ****   float32_t *pStateCurnt;                        /* State current pointer */
 135:Source\FilteringFunctions/arm_iir_lattice_f32.c ****   float32_t k1, k2;
 136:Source\FilteringFunctions/arm_iir_lattice_f32.c ****   float32_t v1, v2, v3, v4;
 137:Source\FilteringFunctions/arm_iir_lattice_f32.c ****   float32_t gcurr2;
 138:Source\FilteringFunctions/arm_iir_lattice_f32.c ****   float32_t fnext2;
 139:Source\FilteringFunctions/arm_iir_lattice_f32.c **** 
 140:Source\FilteringFunctions/arm_iir_lattice_f32.c ****   /* initialise loop count */
 141:Source\FilteringFunctions/arm_iir_lattice_f32.c ****   blkCnt = blockSize;
 142:Source\FilteringFunctions/arm_iir_lattice_f32.c **** 
 143:Source\FilteringFunctions/arm_iir_lattice_f32.c ****   /* initialise state pointer */
ARM GAS  C:\Users\fneves\AppData\Local\Temp\ccgOoZsK.s 			page 4


 144:Source\FilteringFunctions/arm_iir_lattice_f32.c ****   pState = &S->pState[0];
 145:Source\FilteringFunctions/arm_iir_lattice_f32.c **** 
 146:Source\FilteringFunctions/arm_iir_lattice_f32.c ****   /* Sample processing */
 147:Source\FilteringFunctions/arm_iir_lattice_f32.c ****   while (blkCnt > 0u)
 148:Source\FilteringFunctions/arm_iir_lattice_f32.c ****   {
 149:Source\FilteringFunctions/arm_iir_lattice_f32.c ****     /* Read Sample from input buffer */
 150:Source\FilteringFunctions/arm_iir_lattice_f32.c ****     /* fN(n) = x(n) */
 151:Source\FilteringFunctions/arm_iir_lattice_f32.c ****     fnext2 = *pSrc++;
 152:Source\FilteringFunctions/arm_iir_lattice_f32.c **** 
 153:Source\FilteringFunctions/arm_iir_lattice_f32.c ****     /* Initialize Ladder coeff pointer */
 154:Source\FilteringFunctions/arm_iir_lattice_f32.c ****     pv = &S->pvCoeffs[0];
 155:Source\FilteringFunctions/arm_iir_lattice_f32.c ****     /* Initialize Reflection coeff pointer */
 156:Source\FilteringFunctions/arm_iir_lattice_f32.c ****     pk = &S->pkCoeffs[0];
 157:Source\FilteringFunctions/arm_iir_lattice_f32.c **** 
 158:Source\FilteringFunctions/arm_iir_lattice_f32.c ****     /* Initialize state read pointer */
 159:Source\FilteringFunctions/arm_iir_lattice_f32.c ****     px1 = pState;
 160:Source\FilteringFunctions/arm_iir_lattice_f32.c ****     /* Initialize state write pointer */
 161:Source\FilteringFunctions/arm_iir_lattice_f32.c ****     px2 = pState;
 162:Source\FilteringFunctions/arm_iir_lattice_f32.c **** 
 163:Source\FilteringFunctions/arm_iir_lattice_f32.c ****     /* Set accumulator to zero */
 164:Source\FilteringFunctions/arm_iir_lattice_f32.c ****     acc = 0.0;
 165:Source\FilteringFunctions/arm_iir_lattice_f32.c **** 
 166:Source\FilteringFunctions/arm_iir_lattice_f32.c ****     /* Loop unrolling.  Process 4 taps at a time. */
 167:Source\FilteringFunctions/arm_iir_lattice_f32.c ****     tapCnt = (numStages) >> 2;
 168:Source\FilteringFunctions/arm_iir_lattice_f32.c **** 
 169:Source\FilteringFunctions/arm_iir_lattice_f32.c ****     while (tapCnt > 0u)
 170:Source\FilteringFunctions/arm_iir_lattice_f32.c ****     {
 171:Source\FilteringFunctions/arm_iir_lattice_f32.c ****       /* Read gN-1(n-1) from state buffer */
 172:Source\FilteringFunctions/arm_iir_lattice_f32.c ****       gcurr1 = *px1;
 173:Source\FilteringFunctions/arm_iir_lattice_f32.c **** 
 174:Source\FilteringFunctions/arm_iir_lattice_f32.c ****       /* read reflection coefficient kN */
 175:Source\FilteringFunctions/arm_iir_lattice_f32.c ****       k1 = *pk;
 176:Source\FilteringFunctions/arm_iir_lattice_f32.c **** 
 177:Source\FilteringFunctions/arm_iir_lattice_f32.c ****       /* fN-1(n) = fN(n) - kN * gN-1(n-1) */
 178:Source\FilteringFunctions/arm_iir_lattice_f32.c ****       fnext1 = fnext2 - (k1 * gcurr1);
 179:Source\FilteringFunctions/arm_iir_lattice_f32.c **** 
 180:Source\FilteringFunctions/arm_iir_lattice_f32.c ****       /* read ladder coefficient vN */
 181:Source\FilteringFunctions/arm_iir_lattice_f32.c ****       v1 = *pv;
 182:Source\FilteringFunctions/arm_iir_lattice_f32.c **** 
 183:Source\FilteringFunctions/arm_iir_lattice_f32.c ****       /* read next reflection coefficient kN-1 */
 184:Source\FilteringFunctions/arm_iir_lattice_f32.c ****       k2 = *(pk + 1u);
 185:Source\FilteringFunctions/arm_iir_lattice_f32.c **** 
 186:Source\FilteringFunctions/arm_iir_lattice_f32.c ****       /* Read gN-2(n-1) from state buffer */
 187:Source\FilteringFunctions/arm_iir_lattice_f32.c ****       gcurr2 = *(px1 + 1u);
 188:Source\FilteringFunctions/arm_iir_lattice_f32.c **** 
 189:Source\FilteringFunctions/arm_iir_lattice_f32.c ****       /* read next ladder coefficient vN-1 */
 190:Source\FilteringFunctions/arm_iir_lattice_f32.c ****       v2 = *(pv + 1u);
 191:Source\FilteringFunctions/arm_iir_lattice_f32.c **** 
 192:Source\FilteringFunctions/arm_iir_lattice_f32.c ****       /* fN-2(n) = fN-1(n) - kN-1 * gN-2(n-1) */
 193:Source\FilteringFunctions/arm_iir_lattice_f32.c ****       fnext2 = fnext1 - (k2 * gcurr2);
 194:Source\FilteringFunctions/arm_iir_lattice_f32.c **** 
 195:Source\FilteringFunctions/arm_iir_lattice_f32.c ****       /* gN(n)   = kN * fN-1(n) + gN-1(n-1) */
 196:Source\FilteringFunctions/arm_iir_lattice_f32.c ****       gnext = gcurr1 + (k1 * fnext1);
 197:Source\FilteringFunctions/arm_iir_lattice_f32.c **** 
 198:Source\FilteringFunctions/arm_iir_lattice_f32.c ****       /* read reflection coefficient kN-2 */
 199:Source\FilteringFunctions/arm_iir_lattice_f32.c ****       k1 = *(pk + 2u);
 200:Source\FilteringFunctions/arm_iir_lattice_f32.c **** 
ARM GAS  C:\Users\fneves\AppData\Local\Temp\ccgOoZsK.s 			page 5


 201:Source\FilteringFunctions/arm_iir_lattice_f32.c ****       /* write gN(n) into state for next sample processing */
 202:Source\FilteringFunctions/arm_iir_lattice_f32.c ****       *px2++ = gnext;
 203:Source\FilteringFunctions/arm_iir_lattice_f32.c **** 
 204:Source\FilteringFunctions/arm_iir_lattice_f32.c ****       /* Read gN-3(n-1) from state buffer */
 205:Source\FilteringFunctions/arm_iir_lattice_f32.c ****       gcurr1 = *(px1 + 2u);
 206:Source\FilteringFunctions/arm_iir_lattice_f32.c **** 
 207:Source\FilteringFunctions/arm_iir_lattice_f32.c ****       /* y(n) += gN(n) * vN  */
 208:Source\FilteringFunctions/arm_iir_lattice_f32.c ****       acc += (gnext * v1);
 209:Source\FilteringFunctions/arm_iir_lattice_f32.c **** 
 210:Source\FilteringFunctions/arm_iir_lattice_f32.c ****       /* fN-3(n) = fN-2(n) - kN-2 * gN-3(n-1) */
 211:Source\FilteringFunctions/arm_iir_lattice_f32.c ****       fnext1 = fnext2 - (k1 * gcurr1);
 212:Source\FilteringFunctions/arm_iir_lattice_f32.c **** 
 213:Source\FilteringFunctions/arm_iir_lattice_f32.c ****       /* gN-1(n)   = kN-1 * fN-2(n) + gN-2(n-1) */
 214:Source\FilteringFunctions/arm_iir_lattice_f32.c ****       gnext = gcurr2 + (k2 * fnext2);
 215:Source\FilteringFunctions/arm_iir_lattice_f32.c **** 
 216:Source\FilteringFunctions/arm_iir_lattice_f32.c ****       /* Read gN-4(n-1) from state buffer */
 217:Source\FilteringFunctions/arm_iir_lattice_f32.c ****       gcurr2 = *(px1 + 3u);
 218:Source\FilteringFunctions/arm_iir_lattice_f32.c **** 
 219:Source\FilteringFunctions/arm_iir_lattice_f32.c ****       /* y(n) += gN-1(n) * vN-1  */
 220:Source\FilteringFunctions/arm_iir_lattice_f32.c ****       acc += (gnext * v2);
 221:Source\FilteringFunctions/arm_iir_lattice_f32.c **** 
 222:Source\FilteringFunctions/arm_iir_lattice_f32.c ****       /* read reflection coefficient kN-3 */
 223:Source\FilteringFunctions/arm_iir_lattice_f32.c ****       k2 = *(pk + 3u);
 224:Source\FilteringFunctions/arm_iir_lattice_f32.c **** 
 225:Source\FilteringFunctions/arm_iir_lattice_f32.c ****       /* write gN-1(n) into state for next sample processing */
 226:Source\FilteringFunctions/arm_iir_lattice_f32.c ****       *px2++ = gnext;
 227:Source\FilteringFunctions/arm_iir_lattice_f32.c **** 
 228:Source\FilteringFunctions/arm_iir_lattice_f32.c ****       /* fN-4(n) = fN-3(n) - kN-3 * gN-4(n-1) */
 229:Source\FilteringFunctions/arm_iir_lattice_f32.c ****       fnext2 = fnext1 - (k2 * gcurr2);
 230:Source\FilteringFunctions/arm_iir_lattice_f32.c **** 
 231:Source\FilteringFunctions/arm_iir_lattice_f32.c ****       /* gN-2(n) = kN-2 * fN-3(n) + gN-3(n-1) */
 232:Source\FilteringFunctions/arm_iir_lattice_f32.c ****       gnext = gcurr1 + (k1 * fnext1);
 233:Source\FilteringFunctions/arm_iir_lattice_f32.c **** 
 234:Source\FilteringFunctions/arm_iir_lattice_f32.c ****       /* read ladder coefficient vN-2 */
 235:Source\FilteringFunctions/arm_iir_lattice_f32.c ****       v3 = *(pv + 2u);
 236:Source\FilteringFunctions/arm_iir_lattice_f32.c **** 
 237:Source\FilteringFunctions/arm_iir_lattice_f32.c ****       /* y(n) += gN-2(n) * vN-2  */
 238:Source\FilteringFunctions/arm_iir_lattice_f32.c ****       acc += (gnext * v3);
 239:Source\FilteringFunctions/arm_iir_lattice_f32.c **** 
 240:Source\FilteringFunctions/arm_iir_lattice_f32.c ****       /* write gN-2(n) into state for next sample processing */
 241:Source\FilteringFunctions/arm_iir_lattice_f32.c ****       *px2++ = gnext;
 242:Source\FilteringFunctions/arm_iir_lattice_f32.c **** 
 243:Source\FilteringFunctions/arm_iir_lattice_f32.c ****       /* update pointer */
 244:Source\FilteringFunctions/arm_iir_lattice_f32.c ****       pk += 4u;
 245:Source\FilteringFunctions/arm_iir_lattice_f32.c **** 
 246:Source\FilteringFunctions/arm_iir_lattice_f32.c ****       /* gN-3(n) = kN-3 * fN-4(n) + gN-4(n-1) */
 247:Source\FilteringFunctions/arm_iir_lattice_f32.c ****       gnext = (fnext2 * k2) + gcurr2;
 248:Source\FilteringFunctions/arm_iir_lattice_f32.c **** 
 249:Source\FilteringFunctions/arm_iir_lattice_f32.c ****       /* read next ladder coefficient vN-3 */
 250:Source\FilteringFunctions/arm_iir_lattice_f32.c ****       v4 = *(pv + 3u);
 251:Source\FilteringFunctions/arm_iir_lattice_f32.c **** 
 252:Source\FilteringFunctions/arm_iir_lattice_f32.c ****       /* y(n) += gN-4(n) * vN-4  */
 253:Source\FilteringFunctions/arm_iir_lattice_f32.c ****       acc += (gnext * v4);
 254:Source\FilteringFunctions/arm_iir_lattice_f32.c **** 
 255:Source\FilteringFunctions/arm_iir_lattice_f32.c ****       /* write gN-3(n) into state for next sample processing */
 256:Source\FilteringFunctions/arm_iir_lattice_f32.c ****       *px2++ = gnext;
 257:Source\FilteringFunctions/arm_iir_lattice_f32.c **** 
ARM GAS  C:\Users\fneves\AppData\Local\Temp\ccgOoZsK.s 			page 6


 258:Source\FilteringFunctions/arm_iir_lattice_f32.c ****       /* update pointers */
 259:Source\FilteringFunctions/arm_iir_lattice_f32.c ****       px1 += 4u;
 260:Source\FilteringFunctions/arm_iir_lattice_f32.c ****       pv += 4u;
 261:Source\FilteringFunctions/arm_iir_lattice_f32.c **** 
 262:Source\FilteringFunctions/arm_iir_lattice_f32.c ****       tapCnt--;
 263:Source\FilteringFunctions/arm_iir_lattice_f32.c **** 
 264:Source\FilteringFunctions/arm_iir_lattice_f32.c ****     }
 265:Source\FilteringFunctions/arm_iir_lattice_f32.c **** 
 266:Source\FilteringFunctions/arm_iir_lattice_f32.c ****     /* If the filter length is not a multiple of 4, compute the remaining filter taps */
 267:Source\FilteringFunctions/arm_iir_lattice_f32.c ****     tapCnt = (numStages) % 0x4u;
 268:Source\FilteringFunctions/arm_iir_lattice_f32.c **** 
 269:Source\FilteringFunctions/arm_iir_lattice_f32.c ****     while (tapCnt > 0u)
 270:Source\FilteringFunctions/arm_iir_lattice_f32.c ****     {
 271:Source\FilteringFunctions/arm_iir_lattice_f32.c ****       gcurr1 = *px1++;
 272:Source\FilteringFunctions/arm_iir_lattice_f32.c ****       /* Process sample for last taps */
 273:Source\FilteringFunctions/arm_iir_lattice_f32.c ****       fnext1 = fnext2 - ((*pk) * gcurr1);
 274:Source\FilteringFunctions/arm_iir_lattice_f32.c ****       gnext = (fnext1 * (*pk++)) + gcurr1;
 275:Source\FilteringFunctions/arm_iir_lattice_f32.c ****       /* Output samples for last taps */
 276:Source\FilteringFunctions/arm_iir_lattice_f32.c ****       acc += (gnext * (*pv++));
 277:Source\FilteringFunctions/arm_iir_lattice_f32.c ****       *px2++ = gnext;
 278:Source\FilteringFunctions/arm_iir_lattice_f32.c ****       fnext2 = fnext1;
 279:Source\FilteringFunctions/arm_iir_lattice_f32.c **** 
 280:Source\FilteringFunctions/arm_iir_lattice_f32.c ****       tapCnt--;
 281:Source\FilteringFunctions/arm_iir_lattice_f32.c **** 
 282:Source\FilteringFunctions/arm_iir_lattice_f32.c ****     }
 283:Source\FilteringFunctions/arm_iir_lattice_f32.c **** 
 284:Source\FilteringFunctions/arm_iir_lattice_f32.c ****     /* y(n) += g0(n) * v0 */
 285:Source\FilteringFunctions/arm_iir_lattice_f32.c ****     acc += (fnext2 * (*pv));
 286:Source\FilteringFunctions/arm_iir_lattice_f32.c **** 
 287:Source\FilteringFunctions/arm_iir_lattice_f32.c ****     *px2++ = fnext2;
 288:Source\FilteringFunctions/arm_iir_lattice_f32.c **** 
 289:Source\FilteringFunctions/arm_iir_lattice_f32.c ****     /* write out into pDst */
 290:Source\FilteringFunctions/arm_iir_lattice_f32.c ****     *pDst++ = acc;
 291:Source\FilteringFunctions/arm_iir_lattice_f32.c **** 
 292:Source\FilteringFunctions/arm_iir_lattice_f32.c ****     /* Advance the state pointer by 4 to process the next group of 4 samples */
 293:Source\FilteringFunctions/arm_iir_lattice_f32.c ****     pState = pState + 1u;
 294:Source\FilteringFunctions/arm_iir_lattice_f32.c **** 
 295:Source\FilteringFunctions/arm_iir_lattice_f32.c ****     blkCnt--;
 296:Source\FilteringFunctions/arm_iir_lattice_f32.c **** 
 297:Source\FilteringFunctions/arm_iir_lattice_f32.c ****   }
 298:Source\FilteringFunctions/arm_iir_lattice_f32.c **** 
 299:Source\FilteringFunctions/arm_iir_lattice_f32.c ****   /* Processing is complete. Now copy last S->numStages samples to start of the buffer
 300:Source\FilteringFunctions/arm_iir_lattice_f32.c ****      for the preperation of next frame process */
 301:Source\FilteringFunctions/arm_iir_lattice_f32.c **** 
 302:Source\FilteringFunctions/arm_iir_lattice_f32.c ****   /* Points to the start of the state buffer */
 303:Source\FilteringFunctions/arm_iir_lattice_f32.c ****   pStateCurnt = &S->pState[0];
 304:Source\FilteringFunctions/arm_iir_lattice_f32.c ****   pState = &S->pState[blockSize];
 305:Source\FilteringFunctions/arm_iir_lattice_f32.c **** 
 306:Source\FilteringFunctions/arm_iir_lattice_f32.c ****   tapCnt = numStages >> 2u;
 307:Source\FilteringFunctions/arm_iir_lattice_f32.c **** 
 308:Source\FilteringFunctions/arm_iir_lattice_f32.c ****   /* copy data */
 309:Source\FilteringFunctions/arm_iir_lattice_f32.c ****   while (tapCnt > 0u)
 310:Source\FilteringFunctions/arm_iir_lattice_f32.c ****   {
 311:Source\FilteringFunctions/arm_iir_lattice_f32.c ****     *pStateCurnt++ = *pState++;
 312:Source\FilteringFunctions/arm_iir_lattice_f32.c ****     *pStateCurnt++ = *pState++;
 313:Source\FilteringFunctions/arm_iir_lattice_f32.c ****     *pStateCurnt++ = *pState++;
 314:Source\FilteringFunctions/arm_iir_lattice_f32.c ****     *pStateCurnt++ = *pState++;
ARM GAS  C:\Users\fneves\AppData\Local\Temp\ccgOoZsK.s 			page 7


 315:Source\FilteringFunctions/arm_iir_lattice_f32.c **** 
 316:Source\FilteringFunctions/arm_iir_lattice_f32.c ****     /* Decrement the loop counter */
 317:Source\FilteringFunctions/arm_iir_lattice_f32.c ****     tapCnt--;
 318:Source\FilteringFunctions/arm_iir_lattice_f32.c **** 
 319:Source\FilteringFunctions/arm_iir_lattice_f32.c ****   }
 320:Source\FilteringFunctions/arm_iir_lattice_f32.c **** 
 321:Source\FilteringFunctions/arm_iir_lattice_f32.c ****   /* Calculate remaining number of copies */
 322:Source\FilteringFunctions/arm_iir_lattice_f32.c ****   tapCnt = (numStages) % 0x4u;
 323:Source\FilteringFunctions/arm_iir_lattice_f32.c **** 
 324:Source\FilteringFunctions/arm_iir_lattice_f32.c ****   /* Copy the remaining q31_t data */
 325:Source\FilteringFunctions/arm_iir_lattice_f32.c ****   while (tapCnt > 0u)
 326:Source\FilteringFunctions/arm_iir_lattice_f32.c ****   {
 327:Source\FilteringFunctions/arm_iir_lattice_f32.c ****     *pStateCurnt++ = *pState++;
 328:Source\FilteringFunctions/arm_iir_lattice_f32.c **** 
 329:Source\FilteringFunctions/arm_iir_lattice_f32.c ****     /* Decrement the loop counter */
 330:Source\FilteringFunctions/arm_iir_lattice_f32.c ****     tapCnt--;
 331:Source\FilteringFunctions/arm_iir_lattice_f32.c ****   }
 332:Source\FilteringFunctions/arm_iir_lattice_f32.c **** }
 333:Source\FilteringFunctions/arm_iir_lattice_f32.c **** 
 334:Source\FilteringFunctions/arm_iir_lattice_f32.c **** #else
 335:Source\FilteringFunctions/arm_iir_lattice_f32.c **** 
 336:Source\FilteringFunctions/arm_iir_lattice_f32.c **** void arm_iir_lattice_f32(
 337:Source\FilteringFunctions/arm_iir_lattice_f32.c ****   const arm_iir_lattice_instance_f32 * S,
 338:Source\FilteringFunctions/arm_iir_lattice_f32.c ****   float32_t * pSrc,
 339:Source\FilteringFunctions/arm_iir_lattice_f32.c ****   float32_t * pDst,
 340:Source\FilteringFunctions/arm_iir_lattice_f32.c ****   uint32_t blockSize)
 341:Source\FilteringFunctions/arm_iir_lattice_f32.c **** {
  29              		.loc 1 341 0
  30              		.cfi_startproc
  31 0000 80B5     		push	{r7, lr}
  32              		.cfi_def_cfa_offset 8
  33              		.cfi_offset 7, -8
  34              		.cfi_offset 14, -4
  35 0002 92B0     		sub	sp, sp, #72
  36              		.cfi_def_cfa_offset 80
  37 0004 00AF     		add	r7, sp, #0
  38              		.cfi_def_cfa_register 7
  39 0006 F860     		str	r0, [r7, #12]
  40 0008 B960     		str	r1, [r7, #8]
  41 000a 7A60     		str	r2, [r7, #4]
  42 000c 3B60     		str	r3, [r7]
 342:Source\FilteringFunctions/arm_iir_lattice_f32.c ****   float32_t fcurr, fnext = 0, gcurr, gnext;      /* Temporary variables for lattice stages */
  43              		.loc 1 342 0
  44 000e 0023     		mov	r3, #0
  45 0010 3B64     		str	r3, [r7, #64]
 343:Source\FilteringFunctions/arm_iir_lattice_f32.c ****   float32_t acc;                                 /* Accumlator */
 344:Source\FilteringFunctions/arm_iir_lattice_f32.c ****   uint32_t blkCnt, tapCnt;                       /* temporary variables for counts */
 345:Source\FilteringFunctions/arm_iir_lattice_f32.c ****   float32_t *px1, *px2, *pk, *pv;                /* temporary pointers for state and coef */
 346:Source\FilteringFunctions/arm_iir_lattice_f32.c ****   uint32_t numStages = S->numStages;             /* number of stages */
  46              		.loc 1 346 0
  47 0012 FB68     		ldr	r3, [r7, #12]
  48 0014 1B88     		ldrh	r3, [r3]
  49 0016 BB61     		str	r3, [r7, #24]
 347:Source\FilteringFunctions/arm_iir_lattice_f32.c ****   float32_t *pState;                             /* State pointer */
 348:Source\FilteringFunctions/arm_iir_lattice_f32.c ****   float32_t *pStateCurnt;                        /* State current pointer */
 349:Source\FilteringFunctions/arm_iir_lattice_f32.c **** 
 350:Source\FilteringFunctions/arm_iir_lattice_f32.c **** 
ARM GAS  C:\Users\fneves\AppData\Local\Temp\ccgOoZsK.s 			page 8


 351:Source\FilteringFunctions/arm_iir_lattice_f32.c ****   /* Run the below code for Cortex-M0 */
 352:Source\FilteringFunctions/arm_iir_lattice_f32.c **** 
 353:Source\FilteringFunctions/arm_iir_lattice_f32.c ****   blkCnt = blockSize;
  50              		.loc 1 353 0
  51 0018 3B68     		ldr	r3, [r7]
  52 001a BB63     		str	r3, [r7, #56]
 354:Source\FilteringFunctions/arm_iir_lattice_f32.c **** 
 355:Source\FilteringFunctions/arm_iir_lattice_f32.c ****   pState = &S->pState[0];
  53              		.loc 1 355 0
  54 001c FB68     		ldr	r3, [r7, #12]
  55 001e 5B68     		ldr	r3, [r3, #4]
  56 0020 3B62     		str	r3, [r7, #32]
 356:Source\FilteringFunctions/arm_iir_lattice_f32.c **** 
 357:Source\FilteringFunctions/arm_iir_lattice_f32.c ****   /* Sample processing */
 358:Source\FilteringFunctions/arm_iir_lattice_f32.c ****   while (blkCnt > 0u)
  57              		.loc 1 358 0
  58 0022 6DE0     		b	.L2
  59              	.L5:
 359:Source\FilteringFunctions/arm_iir_lattice_f32.c ****   {
 360:Source\FilteringFunctions/arm_iir_lattice_f32.c ****     /* Read Sample from input buffer */
 361:Source\FilteringFunctions/arm_iir_lattice_f32.c ****     /* fN(n) = x(n) */
 362:Source\FilteringFunctions/arm_iir_lattice_f32.c ****     fcurr = *pSrc++;
  60              		.loc 1 362 0
  61 0024 BB68     		ldr	r3, [r7, #8]
  62 0026 1A1D     		add	r2, r3, #4
  63 0028 BA60     		str	r2, [r7, #8]
  64 002a 1B68     		ldr	r3, [r3]
  65 002c 7B64     		str	r3, [r7, #68]
 363:Source\FilteringFunctions/arm_iir_lattice_f32.c **** 
 364:Source\FilteringFunctions/arm_iir_lattice_f32.c ****     /* Initialize state read pointer */
 365:Source\FilteringFunctions/arm_iir_lattice_f32.c ****     px1 = pState;
  66              		.loc 1 365 0
  67 002e 3B6A     		ldr	r3, [r7, #32]
  68 0030 3B63     		str	r3, [r7, #48]
 366:Source\FilteringFunctions/arm_iir_lattice_f32.c ****     /* Initialize state write pointer */
 367:Source\FilteringFunctions/arm_iir_lattice_f32.c ****     px2 = pState;
  69              		.loc 1 367 0
  70 0032 3B6A     		ldr	r3, [r7, #32]
  71 0034 FB62     		str	r3, [r7, #44]
 368:Source\FilteringFunctions/arm_iir_lattice_f32.c ****     /* Set accumulator to zero */
 369:Source\FilteringFunctions/arm_iir_lattice_f32.c ****     acc = 0.0f;
  72              		.loc 1 369 0
  73 0036 0023     		mov	r3, #0
  74 0038 FB63     		str	r3, [r7, #60]
 370:Source\FilteringFunctions/arm_iir_lattice_f32.c ****     /* Initialize Ladder coeff pointer */
 371:Source\FilteringFunctions/arm_iir_lattice_f32.c ****     pv = &S->pvCoeffs[0];
  75              		.loc 1 371 0
  76 003a FB68     		ldr	r3, [r7, #12]
  77 003c DB68     		ldr	r3, [r3, #12]
  78 003e 7B62     		str	r3, [r7, #36]
 372:Source\FilteringFunctions/arm_iir_lattice_f32.c ****     /* Initialize Reflection coeff pointer */
 373:Source\FilteringFunctions/arm_iir_lattice_f32.c ****     pk = &S->pkCoeffs[0];
  79              		.loc 1 373 0
  80 0040 FB68     		ldr	r3, [r7, #12]
  81 0042 9B68     		ldr	r3, [r3, #8]
  82 0044 BB62     		str	r3, [r7, #40]
 374:Source\FilteringFunctions/arm_iir_lattice_f32.c **** 
ARM GAS  C:\Users\fneves\AppData\Local\Temp\ccgOoZsK.s 			page 9


 375:Source\FilteringFunctions/arm_iir_lattice_f32.c **** 
 376:Source\FilteringFunctions/arm_iir_lattice_f32.c ****     /* Process sample for numStages */
 377:Source\FilteringFunctions/arm_iir_lattice_f32.c ****     tapCnt = numStages;
  83              		.loc 1 377 0
  84 0046 BB69     		ldr	r3, [r7, #24]
  85 0048 7B63     		str	r3, [r7, #52]
 378:Source\FilteringFunctions/arm_iir_lattice_f32.c **** 
 379:Source\FilteringFunctions/arm_iir_lattice_f32.c ****     while (tapCnt > 0u)
  86              		.loc 1 379 0
  87 004a 39E0     		b	.L3
  88              	.L4:
 380:Source\FilteringFunctions/arm_iir_lattice_f32.c ****     {
 381:Source\FilteringFunctions/arm_iir_lattice_f32.c ****       gcurr = *px1++;
  89              		.loc 1 381 0
  90 004c 3B6B     		ldr	r3, [r7, #48]
  91 004e 1A1D     		add	r2, r3, #4
  92 0050 3A63     		str	r2, [r7, #48]
  93 0052 1B68     		ldr	r3, [r3]
  94 0054 7B61     		str	r3, [r7, #20]
 382:Source\FilteringFunctions/arm_iir_lattice_f32.c ****       /* Process sample for last taps */
 383:Source\FilteringFunctions/arm_iir_lattice_f32.c ****       fnext = fcurr - ((*pk) * gcurr);
  95              		.loc 1 383 0
  96 0056 BB6A     		ldr	r3, [r7, #40]
  97 0058 1B68     		ldr	r3, [r3]
  98 005a 181C     		add	r0, r3, #0
  99 005c 7969     		ldr	r1, [r7, #20]
 100 005e FFF7FEFF 		bl	__aeabi_fmul
 101 0062 031C     		add	r3, r0, #0
 102 0064 786C     		ldr	r0, [r7, #68]
 103 0066 191C     		add	r1, r3, #0
 104 0068 FFF7FEFF 		bl	__aeabi_fsub
 105 006c 031C     		add	r3, r0, #0
 106 006e 3B64     		str	r3, [r7, #64]
 384:Source\FilteringFunctions/arm_iir_lattice_f32.c ****       gnext = (fnext * (*pk++)) + gcurr;
 107              		.loc 1 384 0
 108 0070 BB6A     		ldr	r3, [r7, #40]
 109 0072 1A1D     		add	r2, r3, #4
 110 0074 BA62     		str	r2, [r7, #40]
 111 0076 1B68     		ldr	r3, [r3]
 112 0078 181C     		add	r0, r3, #0
 113 007a 396C     		ldr	r1, [r7, #64]
 114 007c FFF7FEFF 		bl	__aeabi_fmul
 115 0080 031C     		add	r3, r0, #0
 116 0082 181C     		add	r0, r3, #0
 117 0084 7969     		ldr	r1, [r7, #20]
 118 0086 FFF7FEFF 		bl	__aeabi_fadd
 119 008a 031C     		add	r3, r0, #0
 120 008c 3B61     		str	r3, [r7, #16]
 385:Source\FilteringFunctions/arm_iir_lattice_f32.c **** 
 386:Source\FilteringFunctions/arm_iir_lattice_f32.c ****       /* Output samples for last taps */
 387:Source\FilteringFunctions/arm_iir_lattice_f32.c ****       acc += (gnext * (*pv++));
 121              		.loc 1 387 0
 122 008e 7B6A     		ldr	r3, [r7, #36]
 123 0090 1A1D     		add	r2, r3, #4
 124 0092 7A62     		str	r2, [r7, #36]
 125 0094 1B68     		ldr	r3, [r3]
 126 0096 181C     		add	r0, r3, #0
ARM GAS  C:\Users\fneves\AppData\Local\Temp\ccgOoZsK.s 			page 10


 127 0098 3969     		ldr	r1, [r7, #16]
 128 009a FFF7FEFF 		bl	__aeabi_fmul
 129 009e 031C     		add	r3, r0, #0
 130 00a0 F86B     		ldr	r0, [r7, #60]
 131 00a2 191C     		add	r1, r3, #0
 132 00a4 FFF7FEFF 		bl	__aeabi_fadd
 133 00a8 031C     		add	r3, r0, #0
 134 00aa FB63     		str	r3, [r7, #60]
 388:Source\FilteringFunctions/arm_iir_lattice_f32.c ****       *px2++ = gnext;
 135              		.loc 1 388 0
 136 00ac FB6A     		ldr	r3, [r7, #44]
 137 00ae 1A1D     		add	r2, r3, #4
 138 00b0 FA62     		str	r2, [r7, #44]
 139 00b2 3A69     		ldr	r2, [r7, #16]
 140 00b4 1A60     		str	r2, [r3]
 389:Source\FilteringFunctions/arm_iir_lattice_f32.c ****       fcurr = fnext;
 141              		.loc 1 389 0
 142 00b6 3B6C     		ldr	r3, [r7, #64]
 143 00b8 7B64     		str	r3, [r7, #68]
 390:Source\FilteringFunctions/arm_iir_lattice_f32.c **** 
 391:Source\FilteringFunctions/arm_iir_lattice_f32.c ****       /* Decrementing loop counter */
 392:Source\FilteringFunctions/arm_iir_lattice_f32.c ****       tapCnt--;
 144              		.loc 1 392 0
 145 00ba 7B6B     		ldr	r3, [r7, #52]
 146 00bc 013B     		sub	r3, r3, #1
 147 00be 7B63     		str	r3, [r7, #52]
 148              	.L3:
 379:Source\FilteringFunctions/arm_iir_lattice_f32.c ****     {
 149              		.loc 1 379 0
 150 00c0 7B6B     		ldr	r3, [r7, #52]
 151 00c2 002B     		cmp	r3, #0
 152 00c4 C2D1     		bne	.L4
 393:Source\FilteringFunctions/arm_iir_lattice_f32.c **** 
 394:Source\FilteringFunctions/arm_iir_lattice_f32.c ****     }
 395:Source\FilteringFunctions/arm_iir_lattice_f32.c **** 
 396:Source\FilteringFunctions/arm_iir_lattice_f32.c ****     /* y(n) += g0(n) * v0 */
 397:Source\FilteringFunctions/arm_iir_lattice_f32.c ****     acc += (fnext * (*pv));
 153              		.loc 1 397 0
 154 00c6 7B6A     		ldr	r3, [r7, #36]
 155 00c8 1B68     		ldr	r3, [r3]
 156 00ca 181C     		add	r0, r3, #0
 157 00cc 396C     		ldr	r1, [r7, #64]
 158 00ce FFF7FEFF 		bl	__aeabi_fmul
 159 00d2 031C     		add	r3, r0, #0
 160 00d4 F86B     		ldr	r0, [r7, #60]
 161 00d6 191C     		add	r1, r3, #0
 162 00d8 FFF7FEFF 		bl	__aeabi_fadd
 163 00dc 031C     		add	r3, r0, #0
 164 00de FB63     		str	r3, [r7, #60]
 398:Source\FilteringFunctions/arm_iir_lattice_f32.c **** 
 399:Source\FilteringFunctions/arm_iir_lattice_f32.c ****     *px2++ = fnext;
 165              		.loc 1 399 0
 166 00e0 FB6A     		ldr	r3, [r7, #44]
 167 00e2 1A1D     		add	r2, r3, #4
 168 00e4 FA62     		str	r2, [r7, #44]
 169 00e6 3A6C     		ldr	r2, [r7, #64]
 170 00e8 1A60     		str	r2, [r3]
ARM GAS  C:\Users\fneves\AppData\Local\Temp\ccgOoZsK.s 			page 11


 400:Source\FilteringFunctions/arm_iir_lattice_f32.c **** 
 401:Source\FilteringFunctions/arm_iir_lattice_f32.c ****     /* write out into pDst */
 402:Source\FilteringFunctions/arm_iir_lattice_f32.c ****     *pDst++ = acc;
 171              		.loc 1 402 0
 172 00ea 7B68     		ldr	r3, [r7, #4]
 173 00ec 1A1D     		add	r2, r3, #4
 174 00ee 7A60     		str	r2, [r7, #4]
 175 00f0 FA6B     		ldr	r2, [r7, #60]
 176 00f2 1A60     		str	r2, [r3]
 403:Source\FilteringFunctions/arm_iir_lattice_f32.c **** 
 404:Source\FilteringFunctions/arm_iir_lattice_f32.c ****     /* Advance the state pointer by 1 to process the next group of samples */
 405:Source\FilteringFunctions/arm_iir_lattice_f32.c ****     pState = pState + 1u;
 177              		.loc 1 405 0
 178 00f4 3B6A     		ldr	r3, [r7, #32]
 179 00f6 0433     		add	r3, r3, #4
 180 00f8 3B62     		str	r3, [r7, #32]
 406:Source\FilteringFunctions/arm_iir_lattice_f32.c ****     blkCnt--;
 181              		.loc 1 406 0
 182 00fa BB6B     		ldr	r3, [r7, #56]
 183 00fc 013B     		sub	r3, r3, #1
 184 00fe BB63     		str	r3, [r7, #56]
 185              	.L2:
 358:Source\FilteringFunctions/arm_iir_lattice_f32.c ****   {
 186              		.loc 1 358 0
 187 0100 BB6B     		ldr	r3, [r7, #56]
 188 0102 002B     		cmp	r3, #0
 189 0104 8ED1     		bne	.L5
 407:Source\FilteringFunctions/arm_iir_lattice_f32.c **** 
 408:Source\FilteringFunctions/arm_iir_lattice_f32.c ****   }
 409:Source\FilteringFunctions/arm_iir_lattice_f32.c **** 
 410:Source\FilteringFunctions/arm_iir_lattice_f32.c ****   /* Processing is complete. Now copy last S->numStages samples to start of the buffer
 411:Source\FilteringFunctions/arm_iir_lattice_f32.c ****      for the preperation of next frame process */
 412:Source\FilteringFunctions/arm_iir_lattice_f32.c **** 
 413:Source\FilteringFunctions/arm_iir_lattice_f32.c ****   /* Points to the start of the state buffer */
 414:Source\FilteringFunctions/arm_iir_lattice_f32.c ****   pStateCurnt = &S->pState[0];
 190              		.loc 1 414 0
 191 0106 FB68     		ldr	r3, [r7, #12]
 192 0108 5B68     		ldr	r3, [r3, #4]
 193 010a FB61     		str	r3, [r7, #28]
 415:Source\FilteringFunctions/arm_iir_lattice_f32.c ****   pState = &S->pState[blockSize];
 194              		.loc 1 415 0
 195 010c FB68     		ldr	r3, [r7, #12]
 196 010e 5A68     		ldr	r2, [r3, #4]
 197 0110 3B68     		ldr	r3, [r7]
 198 0112 9B00     		lsl	r3, r3, #2
 199 0114 D318     		add	r3, r2, r3
 200 0116 3B62     		str	r3, [r7, #32]
 416:Source\FilteringFunctions/arm_iir_lattice_f32.c **** 
 417:Source\FilteringFunctions/arm_iir_lattice_f32.c ****   tapCnt = numStages;
 201              		.loc 1 417 0
 202 0118 BB69     		ldr	r3, [r7, #24]
 203 011a 7B63     		str	r3, [r7, #52]
 418:Source\FilteringFunctions/arm_iir_lattice_f32.c **** 
 419:Source\FilteringFunctions/arm_iir_lattice_f32.c ****   /* Copy the data */
 420:Source\FilteringFunctions/arm_iir_lattice_f32.c ****   while (tapCnt > 0u)
 204              		.loc 1 420 0
 205 011c 0AE0     		b	.L6
ARM GAS  C:\Users\fneves\AppData\Local\Temp\ccgOoZsK.s 			page 12


 206              	.L7:
 421:Source\FilteringFunctions/arm_iir_lattice_f32.c ****   {
 422:Source\FilteringFunctions/arm_iir_lattice_f32.c ****     *pStateCurnt++ = *pState++;
 207              		.loc 1 422 0
 208 011e FB69     		ldr	r3, [r7, #28]
 209 0120 1A1D     		add	r2, r3, #4
 210 0122 FA61     		str	r2, [r7, #28]
 211 0124 3A6A     		ldr	r2, [r7, #32]
 212 0126 111D     		add	r1, r2, #4
 213 0128 3962     		str	r1, [r7, #32]
 214 012a 1268     		ldr	r2, [r2]
 215 012c 1A60     		str	r2, [r3]
 423:Source\FilteringFunctions/arm_iir_lattice_f32.c **** 
 424:Source\FilteringFunctions/arm_iir_lattice_f32.c ****     /* Decrement the loop counter */
 425:Source\FilteringFunctions/arm_iir_lattice_f32.c ****     tapCnt--;
 216              		.loc 1 425 0
 217 012e 7B6B     		ldr	r3, [r7, #52]
 218 0130 013B     		sub	r3, r3, #1
 219 0132 7B63     		str	r3, [r7, #52]
 220              	.L6:
 420:Source\FilteringFunctions/arm_iir_lattice_f32.c ****   {
 221              		.loc 1 420 0
 222 0134 7B6B     		ldr	r3, [r7, #52]
 223 0136 002B     		cmp	r3, #0
 224 0138 F1D1     		bne	.L7
 426:Source\FilteringFunctions/arm_iir_lattice_f32.c ****   }
 427:Source\FilteringFunctions/arm_iir_lattice_f32.c **** 
 428:Source\FilteringFunctions/arm_iir_lattice_f32.c **** }
 225              		.loc 1 428 0
 226 013a BD46     		mov	sp, r7
 227 013c 12B0     		add	sp, sp, #72
 228              		@ sp needed
 229 013e 80BD     		pop	{r7, pc}
 230              		.cfi_endproc
 231              	.LFE82:
 232              		.size	arm_iir_lattice_f32, .-arm_iir_lattice_f32
 233              		.text
 234              	.Letext0:
 235              		.file 2 "c:\\program files (x86)\\cypress\\psoc creator\\4.0\\psoc creator\\import\\gnu\\arm\\4.9.
 236              		.file 3 "c:\\program files (x86)\\cypress\\psoc creator\\4.0\\psoc creator\\import\\gnu\\arm\\4.9.
 237              		.file 4 ".\\Include/arm_math.h"