ARM GAS  C:\Users\fneves\AppData\Local\Temp\ccSGs59u.s 			page 1


   1              		.cpu cortex-m0plus
   2              		.fpu softvfp
   3              		.eabi_attribute 20, 1
   4              		.eabi_attribute 21, 1
   5              		.eabi_attribute 23, 3
   6              		.eabi_attribute 24, 1
   7              		.eabi_attribute 25, 1
   8              		.eabi_attribute 26, 1
   9              		.eabi_attribute 30, 6
  10              		.eabi_attribute 34, 0
  11              		.eabi_attribute 18, 4
  12              		.code	16
  13              		.file	"arm_mat_mult_f32.c"
  14              		.text
  15              	.Ltext0:
  16              		.cfi_sections	.debug_frame
  17              		.global	__aeabi_fmul
  18              		.global	__aeabi_fadd
  19              		.section	.text.arm_mat_mult_f32,"ax",%progbits
  20              		.align	2
  21              		.global	arm_mat_mult_f32
  22              		.code	16
  23              		.thumb_func
  24              		.type	arm_mat_mult_f32, %function
  25              	arm_mat_mult_f32:
  26              	.LFB82:
  27              		.file 1 "Source\\MatrixFunctions\\arm_mat_mult_f32.c"
   1:Source\MatrixFunctions/arm_mat_mult_f32.c **** /* ----------------------------------------------------------------------
   2:Source\MatrixFunctions/arm_mat_mult_f32.c ****  * Project:      CMSIS DSP Library
   3:Source\MatrixFunctions/arm_mat_mult_f32.c ****  * Title:        arm_mat_mult_f32.c
   4:Source\MatrixFunctions/arm_mat_mult_f32.c ****  * Description:  Floating-point matrix multiplication
   5:Source\MatrixFunctions/arm_mat_mult_f32.c ****  *
   6:Source\MatrixFunctions/arm_mat_mult_f32.c ****  * $Date:        27. January 2017
   7:Source\MatrixFunctions/arm_mat_mult_f32.c ****  * $Revision:    V.1.5.1
   8:Source\MatrixFunctions/arm_mat_mult_f32.c ****  *
   9:Source\MatrixFunctions/arm_mat_mult_f32.c ****  * Target Processor: Cortex-M cores
  10:Source\MatrixFunctions/arm_mat_mult_f32.c ****  * -------------------------------------------------------------------- */
  11:Source\MatrixFunctions/arm_mat_mult_f32.c **** /*
  12:Source\MatrixFunctions/arm_mat_mult_f32.c ****  * Copyright (C) 2010-2017 ARM Limited or its affiliates. All rights reserved.
  13:Source\MatrixFunctions/arm_mat_mult_f32.c ****  *
  14:Source\MatrixFunctions/arm_mat_mult_f32.c ****  * SPDX-License-Identifier: Apache-2.0
  15:Source\MatrixFunctions/arm_mat_mult_f32.c ****  *
  16:Source\MatrixFunctions/arm_mat_mult_f32.c ****  * Licensed under the Apache License, Version 2.0 (the License); you may
  17:Source\MatrixFunctions/arm_mat_mult_f32.c ****  * not use this file except in compliance with the License.
  18:Source\MatrixFunctions/arm_mat_mult_f32.c ****  * You may obtain a copy of the License at
  19:Source\MatrixFunctions/arm_mat_mult_f32.c ****  *
  20:Source\MatrixFunctions/arm_mat_mult_f32.c ****  * www.apache.org/licenses/LICENSE-2.0
  21:Source\MatrixFunctions/arm_mat_mult_f32.c ****  *
  22:Source\MatrixFunctions/arm_mat_mult_f32.c ****  * Unless required by applicable law or agreed to in writing, software
  23:Source\MatrixFunctions/arm_mat_mult_f32.c ****  * distributed under the License is distributed on an AS IS BASIS, WITHOUT
  24:Source\MatrixFunctions/arm_mat_mult_f32.c ****  * WARRANTIES OR CONDITIONS OF ANY KIND, either express or implied.
  25:Source\MatrixFunctions/arm_mat_mult_f32.c ****  * See the License for the specific language governing permissions and
  26:Source\MatrixFunctions/arm_mat_mult_f32.c ****  * limitations under the License.
  27:Source\MatrixFunctions/arm_mat_mult_f32.c ****  */
  28:Source\MatrixFunctions/arm_mat_mult_f32.c **** 
  29:Source\MatrixFunctions/arm_mat_mult_f32.c **** #include "arm_math.h"
  30:Source\MatrixFunctions/arm_mat_mult_f32.c **** 
ARM GAS  C:\Users\fneves\AppData\Local\Temp\ccSGs59u.s 			page 2


  31:Source\MatrixFunctions/arm_mat_mult_f32.c **** /**
  32:Source\MatrixFunctions/arm_mat_mult_f32.c ****  * @ingroup groupMatrix
  33:Source\MatrixFunctions/arm_mat_mult_f32.c ****  */
  34:Source\MatrixFunctions/arm_mat_mult_f32.c **** 
  35:Source\MatrixFunctions/arm_mat_mult_f32.c **** /**
  36:Source\MatrixFunctions/arm_mat_mult_f32.c ****  * @defgroup MatrixMult Matrix Multiplication
  37:Source\MatrixFunctions/arm_mat_mult_f32.c ****  *
  38:Source\MatrixFunctions/arm_mat_mult_f32.c ****  * Multiplies two matrices.
  39:Source\MatrixFunctions/arm_mat_mult_f32.c ****  *
  40:Source\MatrixFunctions/arm_mat_mult_f32.c ****  * \image html MatrixMultiplication.gif "Multiplication of two 3 x 3 matrices"
  41:Source\MatrixFunctions/arm_mat_mult_f32.c **** 
  42:Source\MatrixFunctions/arm_mat_mult_f32.c ****  * Matrix multiplication is only defined if the number of columns of the
  43:Source\MatrixFunctions/arm_mat_mult_f32.c ****  * first matrix equals the number of rows of the second matrix.
  44:Source\MatrixFunctions/arm_mat_mult_f32.c ****  * Multiplying an <code>M x N</code> matrix with an <code>N x P</code> matrix results
  45:Source\MatrixFunctions/arm_mat_mult_f32.c ****  * in an <code>M x P</code> matrix.
  46:Source\MatrixFunctions/arm_mat_mult_f32.c ****  * When matrix size checking is enabled, the functions check: (1) that the inner dimensions of
  47:Source\MatrixFunctions/arm_mat_mult_f32.c ****  * <code>pSrcA</code> and <code>pSrcB</code> are equal; and (2) that the size of the output
  48:Source\MatrixFunctions/arm_mat_mult_f32.c ****  * matrix equals the outer dimensions of <code>pSrcA</code> and <code>pSrcB</code>.
  49:Source\MatrixFunctions/arm_mat_mult_f32.c ****  */
  50:Source\MatrixFunctions/arm_mat_mult_f32.c **** 
  51:Source\MatrixFunctions/arm_mat_mult_f32.c **** 
  52:Source\MatrixFunctions/arm_mat_mult_f32.c **** /**
  53:Source\MatrixFunctions/arm_mat_mult_f32.c ****  * @addtogroup MatrixMult
  54:Source\MatrixFunctions/arm_mat_mult_f32.c ****  * @{
  55:Source\MatrixFunctions/arm_mat_mult_f32.c ****  */
  56:Source\MatrixFunctions/arm_mat_mult_f32.c **** 
  57:Source\MatrixFunctions/arm_mat_mult_f32.c **** /**
  58:Source\MatrixFunctions/arm_mat_mult_f32.c ****  * @brief Floating-point matrix multiplication.
  59:Source\MatrixFunctions/arm_mat_mult_f32.c ****  * @param[in]       *pSrcA points to the first input matrix structure
  60:Source\MatrixFunctions/arm_mat_mult_f32.c ****  * @param[in]       *pSrcB points to the second input matrix structure
  61:Source\MatrixFunctions/arm_mat_mult_f32.c ****  * @param[out]      *pDst points to output matrix structure
  62:Source\MatrixFunctions/arm_mat_mult_f32.c ****  * @return     		The function returns either
  63:Source\MatrixFunctions/arm_mat_mult_f32.c ****  * <code>ARM_MATH_SIZE_MISMATCH</code> or <code>ARM_MATH_SUCCESS</code> based on the outcome of siz
  64:Source\MatrixFunctions/arm_mat_mult_f32.c ****  */
  65:Source\MatrixFunctions/arm_mat_mult_f32.c **** 
  66:Source\MatrixFunctions/arm_mat_mult_f32.c **** arm_status arm_mat_mult_f32(
  67:Source\MatrixFunctions/arm_mat_mult_f32.c ****   const arm_matrix_instance_f32 * pSrcA,
  68:Source\MatrixFunctions/arm_mat_mult_f32.c ****   const arm_matrix_instance_f32 * pSrcB,
  69:Source\MatrixFunctions/arm_mat_mult_f32.c ****   arm_matrix_instance_f32 * pDst)
  70:Source\MatrixFunctions/arm_mat_mult_f32.c **** {
  28              		.loc 1 70 0
  29              		.cfi_startproc
  30 0000 80B5     		push	{r7, lr}
  31              		.cfi_def_cfa_offset 8
  32              		.cfi_offset 7, -8
  33              		.cfi_offset 14, -4
  34 0002 90B0     		sub	sp, sp, #64
  35              		.cfi_def_cfa_offset 72
  36 0004 00AF     		add	r7, sp, #0
  37              		.cfi_def_cfa_register 7
  38 0006 F860     		str	r0, [r7, #12]
  39 0008 B960     		str	r1, [r7, #8]
  40 000a 7A60     		str	r2, [r7, #4]
  71:Source\MatrixFunctions/arm_mat_mult_f32.c ****   float32_t *pIn1 = pSrcA->pData;                /* input data matrix pointer A */
  41              		.loc 1 71 0
  42 000c FB68     		ldr	r3, [r7, #12]
  43 000e 5B68     		ldr	r3, [r3, #4]
ARM GAS  C:\Users\fneves\AppData\Local\Temp\ccSGs59u.s 			page 3


  44 0010 FB63     		str	r3, [r7, #60]
  72:Source\MatrixFunctions/arm_mat_mult_f32.c ****   float32_t *pIn2 = pSrcB->pData;                /* input data matrix pointer B */
  45              		.loc 1 72 0
  46 0012 BB68     		ldr	r3, [r7, #8]
  47 0014 5B68     		ldr	r3, [r3, #4]
  48 0016 BB63     		str	r3, [r7, #56]
  73:Source\MatrixFunctions/arm_mat_mult_f32.c ****   float32_t *pInA = pSrcA->pData;                /* input data matrix pointer A  */
  49              		.loc 1 73 0
  50 0018 FB68     		ldr	r3, [r7, #12]
  51 001a 5B68     		ldr	r3, [r3, #4]
  52 001c 7B63     		str	r3, [r7, #52]
  74:Source\MatrixFunctions/arm_mat_mult_f32.c ****   float32_t *pOut = pDst->pData;                 /* output data matrix pointer */
  53              		.loc 1 74 0
  54 001e 7B68     		ldr	r3, [r7, #4]
  55 0020 5B68     		ldr	r3, [r3, #4]
  56 0022 3B62     		str	r3, [r7, #32]
  75:Source\MatrixFunctions/arm_mat_mult_f32.c ****   float32_t *px;                                 /* Temporary output data matrix pointer */
  76:Source\MatrixFunctions/arm_mat_mult_f32.c ****   float32_t sum;                                 /* Accumulator */
  77:Source\MatrixFunctions/arm_mat_mult_f32.c ****   uint16_t numRowsA = pSrcA->numRows;            /* number of rows of input matrix A */
  57              		.loc 1 77 0
  58 0024 1E23     		mov	r3, #30
  59 0026 FB18     		add	r3, r7, r3
  60 0028 FA68     		ldr	r2, [r7, #12]
  61 002a 1288     		ldrh	r2, [r2]
  62 002c 1A80     		strh	r2, [r3]
  78:Source\MatrixFunctions/arm_mat_mult_f32.c ****   uint16_t numColsB = pSrcB->numCols;            /* number of columns of input matrix B */
  63              		.loc 1 78 0
  64 002e 1C23     		mov	r3, #28
  65 0030 FB18     		add	r3, r7, r3
  66 0032 BA68     		ldr	r2, [r7, #8]
  67 0034 5288     		ldrh	r2, [r2, #2]
  68 0036 1A80     		strh	r2, [r3]
  79:Source\MatrixFunctions/arm_mat_mult_f32.c ****   uint16_t numColsA = pSrcA->numCols;            /* number of columns of input matrix A */
  69              		.loc 1 79 0
  70 0038 1A23     		mov	r3, #26
  71 003a FB18     		add	r3, r7, r3
  72 003c FA68     		ldr	r2, [r7, #12]
  73 003e 5288     		ldrh	r2, [r2, #2]
  74 0040 1A80     		strh	r2, [r3]
  80:Source\MatrixFunctions/arm_mat_mult_f32.c **** 
  81:Source\MatrixFunctions/arm_mat_mult_f32.c **** #if defined (ARM_MATH_DSP)
  82:Source\MatrixFunctions/arm_mat_mult_f32.c **** 
  83:Source\MatrixFunctions/arm_mat_mult_f32.c ****   /* Run the below code for Cortex-M4 and Cortex-M3 */
  84:Source\MatrixFunctions/arm_mat_mult_f32.c **** 
  85:Source\MatrixFunctions/arm_mat_mult_f32.c ****   float32_t in1, in2, in3, in4;
  86:Source\MatrixFunctions/arm_mat_mult_f32.c ****   uint16_t col, i = 0u, j, row = numRowsA, colCnt;      /* loop counters */
  87:Source\MatrixFunctions/arm_mat_mult_f32.c ****   arm_status status;                             /* status of matrix multiplication */
  88:Source\MatrixFunctions/arm_mat_mult_f32.c **** 
  89:Source\MatrixFunctions/arm_mat_mult_f32.c **** #ifdef ARM_MATH_MATRIX_CHECK
  90:Source\MatrixFunctions/arm_mat_mult_f32.c **** 
  91:Source\MatrixFunctions/arm_mat_mult_f32.c **** 
  92:Source\MatrixFunctions/arm_mat_mult_f32.c ****   /* Check for matrix mismatch condition */
  93:Source\MatrixFunctions/arm_mat_mult_f32.c ****   if ((pSrcA->numCols != pSrcB->numRows) ||
  94:Source\MatrixFunctions/arm_mat_mult_f32.c ****      (pSrcA->numRows != pDst->numRows) || (pSrcB->numCols != pDst->numCols))
  95:Source\MatrixFunctions/arm_mat_mult_f32.c ****   {
  96:Source\MatrixFunctions/arm_mat_mult_f32.c **** 
  97:Source\MatrixFunctions/arm_mat_mult_f32.c ****     /* Set status as ARM_MATH_SIZE_MISMATCH */
ARM GAS  C:\Users\fneves\AppData\Local\Temp\ccSGs59u.s 			page 4


  98:Source\MatrixFunctions/arm_mat_mult_f32.c ****     status = ARM_MATH_SIZE_MISMATCH;
  99:Source\MatrixFunctions/arm_mat_mult_f32.c ****   }
 100:Source\MatrixFunctions/arm_mat_mult_f32.c ****   else
 101:Source\MatrixFunctions/arm_mat_mult_f32.c **** #endif /*      #ifdef ARM_MATH_MATRIX_CHECK    */
 102:Source\MatrixFunctions/arm_mat_mult_f32.c **** 
 103:Source\MatrixFunctions/arm_mat_mult_f32.c ****   {
 104:Source\MatrixFunctions/arm_mat_mult_f32.c ****     /* The following loop performs the dot-product of each row in pSrcA with each column in pSrcB *
 105:Source\MatrixFunctions/arm_mat_mult_f32.c ****     /* row loop */
 106:Source\MatrixFunctions/arm_mat_mult_f32.c ****     do
 107:Source\MatrixFunctions/arm_mat_mult_f32.c ****     {
 108:Source\MatrixFunctions/arm_mat_mult_f32.c ****       /* Output pointer is set to starting address of the row being processed */
 109:Source\MatrixFunctions/arm_mat_mult_f32.c ****       px = pOut + i;
 110:Source\MatrixFunctions/arm_mat_mult_f32.c **** 
 111:Source\MatrixFunctions/arm_mat_mult_f32.c ****       /* For every row wise process, the column loop counter is to be initiated */
 112:Source\MatrixFunctions/arm_mat_mult_f32.c ****       col = numColsB;
 113:Source\MatrixFunctions/arm_mat_mult_f32.c **** 
 114:Source\MatrixFunctions/arm_mat_mult_f32.c ****       /* For every row wise process, the pIn2 pointer is set
 115:Source\MatrixFunctions/arm_mat_mult_f32.c ****        ** to the starting address of the pSrcB data */
 116:Source\MatrixFunctions/arm_mat_mult_f32.c ****       pIn2 = pSrcB->pData;
 117:Source\MatrixFunctions/arm_mat_mult_f32.c **** 
 118:Source\MatrixFunctions/arm_mat_mult_f32.c ****       j = 0u;
 119:Source\MatrixFunctions/arm_mat_mult_f32.c **** 
 120:Source\MatrixFunctions/arm_mat_mult_f32.c ****       /* column loop */
 121:Source\MatrixFunctions/arm_mat_mult_f32.c ****       do
 122:Source\MatrixFunctions/arm_mat_mult_f32.c ****       {
 123:Source\MatrixFunctions/arm_mat_mult_f32.c ****         /* Set the variable sum, that acts as accumulator, to zero */
 124:Source\MatrixFunctions/arm_mat_mult_f32.c ****         sum = 0.0f;
 125:Source\MatrixFunctions/arm_mat_mult_f32.c **** 
 126:Source\MatrixFunctions/arm_mat_mult_f32.c ****         /* Initiate the pointer pIn1 to point to the starting address of the column being processed
 127:Source\MatrixFunctions/arm_mat_mult_f32.c ****         pIn1 = pInA;
 128:Source\MatrixFunctions/arm_mat_mult_f32.c **** 
 129:Source\MatrixFunctions/arm_mat_mult_f32.c ****         /* Apply loop unrolling and compute 4 MACs simultaneously. */
 130:Source\MatrixFunctions/arm_mat_mult_f32.c ****         colCnt = numColsA >> 2u;
 131:Source\MatrixFunctions/arm_mat_mult_f32.c **** 
 132:Source\MatrixFunctions/arm_mat_mult_f32.c ****         /* matrix multiplication        */
 133:Source\MatrixFunctions/arm_mat_mult_f32.c ****         while (colCnt > 0u)
 134:Source\MatrixFunctions/arm_mat_mult_f32.c ****         {
 135:Source\MatrixFunctions/arm_mat_mult_f32.c ****           /* c(m,n) = a(1,1)*b(1,1) + a(1,2) * b(2,1) + .... + a(m,p)*b(p,n) */
 136:Source\MatrixFunctions/arm_mat_mult_f32.c ****           in3 = *pIn2;
 137:Source\MatrixFunctions/arm_mat_mult_f32.c ****           pIn2 += numColsB;
 138:Source\MatrixFunctions/arm_mat_mult_f32.c ****           in1 = pIn1[0];
 139:Source\MatrixFunctions/arm_mat_mult_f32.c ****           in2 = pIn1[1];
 140:Source\MatrixFunctions/arm_mat_mult_f32.c ****           sum += in1 * in3;
 141:Source\MatrixFunctions/arm_mat_mult_f32.c ****           in4 = *pIn2;
 142:Source\MatrixFunctions/arm_mat_mult_f32.c ****           pIn2 += numColsB;
 143:Source\MatrixFunctions/arm_mat_mult_f32.c ****           sum += in2 * in4;
 144:Source\MatrixFunctions/arm_mat_mult_f32.c **** 
 145:Source\MatrixFunctions/arm_mat_mult_f32.c ****           in3 = *pIn2;
 146:Source\MatrixFunctions/arm_mat_mult_f32.c ****           pIn2 += numColsB;
 147:Source\MatrixFunctions/arm_mat_mult_f32.c ****           in1 = pIn1[2];
 148:Source\MatrixFunctions/arm_mat_mult_f32.c ****           in2 = pIn1[3];
 149:Source\MatrixFunctions/arm_mat_mult_f32.c ****           sum += in1 * in3;
 150:Source\MatrixFunctions/arm_mat_mult_f32.c ****           in4 = *pIn2;
 151:Source\MatrixFunctions/arm_mat_mult_f32.c ****           pIn2 += numColsB;
 152:Source\MatrixFunctions/arm_mat_mult_f32.c ****           sum += in2 * in4;
 153:Source\MatrixFunctions/arm_mat_mult_f32.c ****           pIn1 += 4u;
 154:Source\MatrixFunctions/arm_mat_mult_f32.c **** 
ARM GAS  C:\Users\fneves\AppData\Local\Temp\ccSGs59u.s 			page 5


 155:Source\MatrixFunctions/arm_mat_mult_f32.c ****           /* Decrement the loop count */
 156:Source\MatrixFunctions/arm_mat_mult_f32.c ****           colCnt--;
 157:Source\MatrixFunctions/arm_mat_mult_f32.c ****         }
 158:Source\MatrixFunctions/arm_mat_mult_f32.c **** 
 159:Source\MatrixFunctions/arm_mat_mult_f32.c ****         /* If the columns of pSrcA is not a multiple of 4, compute any remaining MACs here.
 160:Source\MatrixFunctions/arm_mat_mult_f32.c ****          ** No loop unrolling is used. */
 161:Source\MatrixFunctions/arm_mat_mult_f32.c ****         colCnt = numColsA % 0x4u;
 162:Source\MatrixFunctions/arm_mat_mult_f32.c **** 
 163:Source\MatrixFunctions/arm_mat_mult_f32.c ****         while (colCnt > 0u)
 164:Source\MatrixFunctions/arm_mat_mult_f32.c ****         {
 165:Source\MatrixFunctions/arm_mat_mult_f32.c ****           /* c(m,n) = a(1,1)*b(1,1) + a(1,2) * b(2,1) + .... + a(m,p)*b(p,n) */
 166:Source\MatrixFunctions/arm_mat_mult_f32.c ****           sum += *pIn1++ * (*pIn2);
 167:Source\MatrixFunctions/arm_mat_mult_f32.c ****           pIn2 += numColsB;
 168:Source\MatrixFunctions/arm_mat_mult_f32.c **** 
 169:Source\MatrixFunctions/arm_mat_mult_f32.c ****           /* Decrement the loop counter */
 170:Source\MatrixFunctions/arm_mat_mult_f32.c ****           colCnt--;
 171:Source\MatrixFunctions/arm_mat_mult_f32.c ****         }
 172:Source\MatrixFunctions/arm_mat_mult_f32.c **** 
 173:Source\MatrixFunctions/arm_mat_mult_f32.c ****         /* Store the result in the destination buffer */
 174:Source\MatrixFunctions/arm_mat_mult_f32.c ****         *px++ = sum;
 175:Source\MatrixFunctions/arm_mat_mult_f32.c **** 
 176:Source\MatrixFunctions/arm_mat_mult_f32.c ****         /* Update the pointer pIn2 to point to the  starting address of the next column */
 177:Source\MatrixFunctions/arm_mat_mult_f32.c ****         j++;
 178:Source\MatrixFunctions/arm_mat_mult_f32.c ****         pIn2 = pSrcB->pData + j;
 179:Source\MatrixFunctions/arm_mat_mult_f32.c **** 
 180:Source\MatrixFunctions/arm_mat_mult_f32.c ****         /* Decrement the column loop counter */
 181:Source\MatrixFunctions/arm_mat_mult_f32.c ****         col--;
 182:Source\MatrixFunctions/arm_mat_mult_f32.c **** 
 183:Source\MatrixFunctions/arm_mat_mult_f32.c ****       } while (col > 0u);
 184:Source\MatrixFunctions/arm_mat_mult_f32.c **** 
 185:Source\MatrixFunctions/arm_mat_mult_f32.c **** #else
 186:Source\MatrixFunctions/arm_mat_mult_f32.c **** 
 187:Source\MatrixFunctions/arm_mat_mult_f32.c ****   /* Run the below code for Cortex-M0 */
 188:Source\MatrixFunctions/arm_mat_mult_f32.c **** 
 189:Source\MatrixFunctions/arm_mat_mult_f32.c ****   float32_t *pInB = pSrcB->pData;                /* input data matrix pointer B */
  75              		.loc 1 189 0
  76 0042 BB68     		ldr	r3, [r7, #8]
  77 0044 5B68     		ldr	r3, [r3, #4]
  78 0046 7B61     		str	r3, [r7, #20]
 190:Source\MatrixFunctions/arm_mat_mult_f32.c ****   uint16_t col, i = 0u, row = numRowsA, colCnt;  /* loop counters */
  79              		.loc 1 190 0
  80 0048 2823     		mov	r3, #40
  81 004a FB18     		add	r3, r7, r3
  82 004c 0022     		mov	r2, #0
  83 004e 1A80     		strh	r2, [r3]
  84 0050 2623     		mov	r3, #38
  85 0052 FB18     		add	r3, r7, r3
  86 0054 1E22     		mov	r2, #30
  87 0056 BA18     		add	r2, r7, r2
  88 0058 1288     		ldrh	r2, [r2]
  89 005a 1A80     		strh	r2, [r3]
  90              	.L5:
 191:Source\MatrixFunctions/arm_mat_mult_f32.c ****   arm_status status;                             /* status of matrix multiplication */
 192:Source\MatrixFunctions/arm_mat_mult_f32.c **** 
 193:Source\MatrixFunctions/arm_mat_mult_f32.c **** #ifdef ARM_MATH_MATRIX_CHECK
 194:Source\MatrixFunctions/arm_mat_mult_f32.c **** 
 195:Source\MatrixFunctions/arm_mat_mult_f32.c ****   /* Check for matrix mismatch condition */
ARM GAS  C:\Users\fneves\AppData\Local\Temp\ccSGs59u.s 			page 6


 196:Source\MatrixFunctions/arm_mat_mult_f32.c ****   if ((pSrcA->numCols != pSrcB->numRows) ||
 197:Source\MatrixFunctions/arm_mat_mult_f32.c ****      (pSrcA->numRows != pDst->numRows) || (pSrcB->numCols != pDst->numCols))
 198:Source\MatrixFunctions/arm_mat_mult_f32.c ****   {
 199:Source\MatrixFunctions/arm_mat_mult_f32.c **** 
 200:Source\MatrixFunctions/arm_mat_mult_f32.c ****     /* Set status as ARM_MATH_SIZE_MISMATCH */
 201:Source\MatrixFunctions/arm_mat_mult_f32.c ****     status = ARM_MATH_SIZE_MISMATCH;
 202:Source\MatrixFunctions/arm_mat_mult_f32.c ****   }
 203:Source\MatrixFunctions/arm_mat_mult_f32.c ****   else
 204:Source\MatrixFunctions/arm_mat_mult_f32.c **** #endif /*      #ifdef ARM_MATH_MATRIX_CHECK    */
 205:Source\MatrixFunctions/arm_mat_mult_f32.c **** 
 206:Source\MatrixFunctions/arm_mat_mult_f32.c ****   {
 207:Source\MatrixFunctions/arm_mat_mult_f32.c ****     /* The following loop performs the dot-product of each row in pInA with each column in pInB */
 208:Source\MatrixFunctions/arm_mat_mult_f32.c ****     /* row loop */
 209:Source\MatrixFunctions/arm_mat_mult_f32.c ****     do
 210:Source\MatrixFunctions/arm_mat_mult_f32.c ****     {
 211:Source\MatrixFunctions/arm_mat_mult_f32.c ****       /* Output pointer is set to starting address of the row being processed */
 212:Source\MatrixFunctions/arm_mat_mult_f32.c ****       px = pOut + i;
  91              		.loc 1 212 0
  92 005c 2823     		mov	r3, #40
  93 005e FB18     		add	r3, r7, r3
  94 0060 1B88     		ldrh	r3, [r3]
  95 0062 9B00     		lsl	r3, r3, #2
  96 0064 3A6A     		ldr	r2, [r7, #32]
  97 0066 D318     		add	r3, r2, r3
  98 0068 3B63     		str	r3, [r7, #48]
 213:Source\MatrixFunctions/arm_mat_mult_f32.c **** 
 214:Source\MatrixFunctions/arm_mat_mult_f32.c ****       /* For every row wise process, the column loop counter is to be initiated */
 215:Source\MatrixFunctions/arm_mat_mult_f32.c ****       col = numColsB;
  99              		.loc 1 215 0
 100 006a 2A23     		mov	r3, #42
 101 006c FB18     		add	r3, r7, r3
 102 006e 1C22     		mov	r2, #28
 103 0070 BA18     		add	r2, r7, r2
 104 0072 1288     		ldrh	r2, [r2]
 105 0074 1A80     		strh	r2, [r3]
 216:Source\MatrixFunctions/arm_mat_mult_f32.c **** 
 217:Source\MatrixFunctions/arm_mat_mult_f32.c ****       /* For every row wise process, the pIn2 pointer is set
 218:Source\MatrixFunctions/arm_mat_mult_f32.c ****        ** to the starting address of the pSrcB data */
 219:Source\MatrixFunctions/arm_mat_mult_f32.c ****       pIn2 = pSrcB->pData;
 106              		.loc 1 219 0
 107 0076 BB68     		ldr	r3, [r7, #8]
 108 0078 5B68     		ldr	r3, [r3, #4]
 109 007a BB63     		str	r3, [r7, #56]
 110              	.L4:
 220:Source\MatrixFunctions/arm_mat_mult_f32.c **** 
 221:Source\MatrixFunctions/arm_mat_mult_f32.c ****       /* column loop */
 222:Source\MatrixFunctions/arm_mat_mult_f32.c ****       do
 223:Source\MatrixFunctions/arm_mat_mult_f32.c ****       {
 224:Source\MatrixFunctions/arm_mat_mult_f32.c ****         /* Set the variable sum, that acts as accumulator, to zero */
 225:Source\MatrixFunctions/arm_mat_mult_f32.c ****         sum = 0.0f;
 111              		.loc 1 225 0
 112 007c 0023     		mov	r3, #0
 113 007e FB62     		str	r3, [r7, #44]
 226:Source\MatrixFunctions/arm_mat_mult_f32.c **** 
 227:Source\MatrixFunctions/arm_mat_mult_f32.c ****         /* Initialize the pointer pIn1 to point to the starting address of the row being processed 
 228:Source\MatrixFunctions/arm_mat_mult_f32.c ****         pIn1 = pInA;
 114              		.loc 1 228 0
ARM GAS  C:\Users\fneves\AppData\Local\Temp\ccSGs59u.s 			page 7


 115 0080 7B6B     		ldr	r3, [r7, #52]
 116 0082 FB63     		str	r3, [r7, #60]
 229:Source\MatrixFunctions/arm_mat_mult_f32.c **** 
 230:Source\MatrixFunctions/arm_mat_mult_f32.c ****         /* Matrix A columns number of MAC operations are to be performed */
 231:Source\MatrixFunctions/arm_mat_mult_f32.c ****         colCnt = numColsA;
 117              		.loc 1 231 0
 118 0084 2423     		mov	r3, #36
 119 0086 FB18     		add	r3, r7, r3
 120 0088 1A22     		mov	r2, #26
 121 008a BA18     		add	r2, r7, r2
 122 008c 1288     		ldrh	r2, [r2]
 123 008e 1A80     		strh	r2, [r3]
 232:Source\MatrixFunctions/arm_mat_mult_f32.c **** 
 233:Source\MatrixFunctions/arm_mat_mult_f32.c ****         while (colCnt > 0u)
 124              		.loc 1 233 0
 125 0090 1EE0     		b	.L2
 126              	.L3:
 234:Source\MatrixFunctions/arm_mat_mult_f32.c ****         {
 235:Source\MatrixFunctions/arm_mat_mult_f32.c ****           /* c(m,n) = a(1,1)*b(1,1) + a(1,2) * b(2,1) + .... + a(m,p)*b(p,n) */
 236:Source\MatrixFunctions/arm_mat_mult_f32.c ****           sum += *pIn1++ * (*pIn2);
 127              		.loc 1 236 0
 128 0092 FB6B     		ldr	r3, [r7, #60]
 129 0094 1A1D     		add	r2, r3, #4
 130 0096 FA63     		str	r2, [r7, #60]
 131 0098 1A68     		ldr	r2, [r3]
 132 009a BB6B     		ldr	r3, [r7, #56]
 133 009c 1B68     		ldr	r3, [r3]
 134 009e 101C     		add	r0, r2, #0
 135 00a0 191C     		add	r1, r3, #0
 136 00a2 FFF7FEFF 		bl	__aeabi_fmul
 137 00a6 031C     		add	r3, r0, #0
 138 00a8 F86A     		ldr	r0, [r7, #44]
 139 00aa 191C     		add	r1, r3, #0
 140 00ac FFF7FEFF 		bl	__aeabi_fadd
 141 00b0 031C     		add	r3, r0, #0
 142 00b2 FB62     		str	r3, [r7, #44]
 237:Source\MatrixFunctions/arm_mat_mult_f32.c ****           pIn2 += numColsB;
 143              		.loc 1 237 0
 144 00b4 1C23     		mov	r3, #28
 145 00b6 FB18     		add	r3, r7, r3
 146 00b8 1B88     		ldrh	r3, [r3]
 147 00ba 9B00     		lsl	r3, r3, #2
 148 00bc BA6B     		ldr	r2, [r7, #56]
 149 00be D318     		add	r3, r2, r3
 150 00c0 BB63     		str	r3, [r7, #56]
 238:Source\MatrixFunctions/arm_mat_mult_f32.c **** 
 239:Source\MatrixFunctions/arm_mat_mult_f32.c ****           /* Decrement the loop counter */
 240:Source\MatrixFunctions/arm_mat_mult_f32.c ****           colCnt--;
 151              		.loc 1 240 0
 152 00c2 2423     		mov	r3, #36
 153 00c4 FB18     		add	r3, r7, r3
 154 00c6 1A88     		ldrh	r2, [r3]
 155 00c8 2423     		mov	r3, #36
 156 00ca FB18     		add	r3, r7, r3
 157 00cc 013A     		sub	r2, r2, #1
 158 00ce 1A80     		strh	r2, [r3]
 159              	.L2:
ARM GAS  C:\Users\fneves\AppData\Local\Temp\ccSGs59u.s 			page 8


 233:Source\MatrixFunctions/arm_mat_mult_f32.c ****         {
 160              		.loc 1 233 0
 161 00d0 2423     		mov	r3, #36
 162 00d2 FB18     		add	r3, r7, r3
 163 00d4 1B88     		ldrh	r3, [r3]
 164 00d6 002B     		cmp	r3, #0
 165 00d8 DBD1     		bne	.L3
 241:Source\MatrixFunctions/arm_mat_mult_f32.c ****         }
 242:Source\MatrixFunctions/arm_mat_mult_f32.c **** 
 243:Source\MatrixFunctions/arm_mat_mult_f32.c ****         /* Store the result in the destination buffer */
 244:Source\MatrixFunctions/arm_mat_mult_f32.c ****         *px++ = sum;
 166              		.loc 1 244 0
 167 00da 3B6B     		ldr	r3, [r7, #48]
 168 00dc 1A1D     		add	r2, r3, #4
 169 00de 3A63     		str	r2, [r7, #48]
 170 00e0 FA6A     		ldr	r2, [r7, #44]
 171 00e2 1A60     		str	r2, [r3]
 245:Source\MatrixFunctions/arm_mat_mult_f32.c **** 
 246:Source\MatrixFunctions/arm_mat_mult_f32.c ****         /* Decrement the column loop counter */
 247:Source\MatrixFunctions/arm_mat_mult_f32.c ****         col--;
 172              		.loc 1 247 0
 173 00e4 2A23     		mov	r3, #42
 174 00e6 FB18     		add	r3, r7, r3
 175 00e8 1A88     		ldrh	r2, [r3]
 176 00ea 2A23     		mov	r3, #42
 177 00ec FB18     		add	r3, r7, r3
 178 00ee 013A     		sub	r2, r2, #1
 179 00f0 1A80     		strh	r2, [r3]
 248:Source\MatrixFunctions/arm_mat_mult_f32.c **** 
 249:Source\MatrixFunctions/arm_mat_mult_f32.c ****         /* Update the pointer pIn2 to point to the  starting address of the next column */
 250:Source\MatrixFunctions/arm_mat_mult_f32.c ****         pIn2 = pInB + (numColsB - col);
 180              		.loc 1 250 0
 181 00f2 1C23     		mov	r3, #28
 182 00f4 FB18     		add	r3, r7, r3
 183 00f6 1A88     		ldrh	r2, [r3]
 184 00f8 2A23     		mov	r3, #42
 185 00fa FB18     		add	r3, r7, r3
 186 00fc 1B88     		ldrh	r3, [r3]
 187 00fe D31A     		sub	r3, r2, r3
 188 0100 9B00     		lsl	r3, r3, #2
 189 0102 7A69     		ldr	r2, [r7, #20]
 190 0104 D318     		add	r3, r2, r3
 191 0106 BB63     		str	r3, [r7, #56]
 251:Source\MatrixFunctions/arm_mat_mult_f32.c **** 
 252:Source\MatrixFunctions/arm_mat_mult_f32.c ****       } while (col > 0u);
 192              		.loc 1 252 0
 193 0108 2A23     		mov	r3, #42
 194 010a FB18     		add	r3, r7, r3
 195 010c 1B88     		ldrh	r3, [r3]
 196 010e 002B     		cmp	r3, #0
 197 0110 B4D1     		bne	.L4
 253:Source\MatrixFunctions/arm_mat_mult_f32.c **** 
 254:Source\MatrixFunctions/arm_mat_mult_f32.c **** #endif /* #if defined (ARM_MATH_DSP) */
 255:Source\MatrixFunctions/arm_mat_mult_f32.c **** 
 256:Source\MatrixFunctions/arm_mat_mult_f32.c ****       /* Update the pointer pInA to point to the  starting address of the next row */
 257:Source\MatrixFunctions/arm_mat_mult_f32.c ****       i = i + numColsB;
 198              		.loc 1 257 0
ARM GAS  C:\Users\fneves\AppData\Local\Temp\ccSGs59u.s 			page 9


 199 0112 2823     		mov	r3, #40
 200 0114 FB18     		add	r3, r7, r3
 201 0116 2822     		mov	r2, #40
 202 0118 B918     		add	r1, r7, r2
 203 011a 1C22     		mov	r2, #28
 204 011c BA18     		add	r2, r7, r2
 205 011e 0988     		ldrh	r1, [r1]
 206 0120 1288     		ldrh	r2, [r2]
 207 0122 8A18     		add	r2, r1, r2
 208 0124 1A80     		strh	r2, [r3]
 258:Source\MatrixFunctions/arm_mat_mult_f32.c ****       pInA = pInA + numColsA;
 209              		.loc 1 258 0
 210 0126 1A23     		mov	r3, #26
 211 0128 FB18     		add	r3, r7, r3
 212 012a 1B88     		ldrh	r3, [r3]
 213 012c 9B00     		lsl	r3, r3, #2
 214 012e 7A6B     		ldr	r2, [r7, #52]
 215 0130 D318     		add	r3, r2, r3
 216 0132 7B63     		str	r3, [r7, #52]
 259:Source\MatrixFunctions/arm_mat_mult_f32.c **** 
 260:Source\MatrixFunctions/arm_mat_mult_f32.c ****       /* Decrement the row loop counter */
 261:Source\MatrixFunctions/arm_mat_mult_f32.c ****       row--;
 217              		.loc 1 261 0
 218 0134 2623     		mov	r3, #38
 219 0136 FB18     		add	r3, r7, r3
 220 0138 1A88     		ldrh	r2, [r3]
 221 013a 2623     		mov	r3, #38
 222 013c FB18     		add	r3, r7, r3
 223 013e 013A     		sub	r2, r2, #1
 224 0140 1A80     		strh	r2, [r3]
 262:Source\MatrixFunctions/arm_mat_mult_f32.c **** 
 263:Source\MatrixFunctions/arm_mat_mult_f32.c ****     } while (row > 0u);
 225              		.loc 1 263 0
 226 0142 2623     		mov	r3, #38
 227 0144 FB18     		add	r3, r7, r3
 228 0146 1B88     		ldrh	r3, [r3]
 229 0148 002B     		cmp	r3, #0
 230 014a 00D0     		beq	.LCB181
 231 014c 86E7     		b	.L5	@long jump
 232              	.LCB181:
 264:Source\MatrixFunctions/arm_mat_mult_f32.c ****     /* Set status as ARM_MATH_SUCCESS */
 265:Source\MatrixFunctions/arm_mat_mult_f32.c ****     status = ARM_MATH_SUCCESS;
 233              		.loc 1 265 0
 234 014e 1323     		mov	r3, #19
 235 0150 FB18     		add	r3, r7, r3
 236 0152 0022     		mov	r2, #0
 237 0154 1A70     		strb	r2, [r3]
 266:Source\MatrixFunctions/arm_mat_mult_f32.c ****   }
 267:Source\MatrixFunctions/arm_mat_mult_f32.c **** 
 268:Source\MatrixFunctions/arm_mat_mult_f32.c ****   /* Return to application */
 269:Source\MatrixFunctions/arm_mat_mult_f32.c ****   return (status);
 238              		.loc 1 269 0
 239 0156 1323     		mov	r3, #19
 240 0158 FB18     		add	r3, r7, r3
 241 015a 1B78     		ldrb	r3, [r3]
 242 015c 5BB2     		sxtb	r3, r3
 270:Source\MatrixFunctions/arm_mat_mult_f32.c **** }
ARM GAS  C:\Users\fneves\AppData\Local\Temp\ccSGs59u.s 			page 10


 243              		.loc 1 270 0
 244 015e 181C     		mov	r0, r3
 245 0160 BD46     		mov	sp, r7
 246 0162 10B0     		add	sp, sp, #64
 247              		@ sp needed
 248 0164 80BD     		pop	{r7, pc}
 249              		.cfi_endproc
 250              	.LFE82:
 251              		.size	arm_mat_mult_f32, .-arm_mat_mult_f32
 252 0166 C046     		.text
 253              	.Letext0:
 254              		.file 2 "c:\\program files (x86)\\cypress\\psoc creator\\4.0\\psoc creator\\import\\gnu\\arm\\4.9.
 255              		.file 3 "c:\\program files (x86)\\cypress\\psoc creator\\4.0\\psoc creator\\import\\gnu\\arm\\4.9.
 256              		.file 4 ".\\Include/arm_math.h"