ARM GAS  C:\Users\fneves\AppData\Local\Temp\cchBqmGz.s 			page 1


   1              		.cpu cortex-m0plus
   2              		.fpu softvfp
   3              		.eabi_attribute 20, 1
   4              		.eabi_attribute 21, 1
   5              		.eabi_attribute 23, 3
   6              		.eabi_attribute 24, 1
   7              		.eabi_attribute 25, 1
   8              		.eabi_attribute 26, 1
   9              		.eabi_attribute 30, 6
  10              		.eabi_attribute 34, 0
  11              		.eabi_attribute 18, 4
  12              		.code	16
  13              		.file	"arm_fir_sparse_init_q15.c"
  14              		.text
  15              	.Ltext0:
  16              		.cfi_sections	.debug_frame
  17              		.section	.text.arm_fir_sparse_init_q15,"ax",%progbits
  18              		.align	2
  19              		.global	arm_fir_sparse_init_q15
  20              		.code	16
  21              		.thumb_func
  22              		.type	arm_fir_sparse_init_q15, %function
  23              	arm_fir_sparse_init_q15:
  24              	.LFB82:
  25              		.file 1 "Source\\FilteringFunctions\\arm_fir_sparse_init_q15.c"
   1:Source\FilteringFunctions/arm_fir_sparse_init_q15.c **** /* ----------------------------------------------------------------------
   2:Source\FilteringFunctions/arm_fir_sparse_init_q15.c ****  * Project:      CMSIS DSP Library
   3:Source\FilteringFunctions/arm_fir_sparse_init_q15.c ****  * Title:        arm_fir_sparse_init_q15.c
   4:Source\FilteringFunctions/arm_fir_sparse_init_q15.c ****  * Description:  Q15 sparse FIR filter initialization function
   5:Source\FilteringFunctions/arm_fir_sparse_init_q15.c ****  *
   6:Source\FilteringFunctions/arm_fir_sparse_init_q15.c ****  * $Date:        27. January 2017
   7:Source\FilteringFunctions/arm_fir_sparse_init_q15.c ****  * $Revision:    V.1.5.1
   8:Source\FilteringFunctions/arm_fir_sparse_init_q15.c ****  *
   9:Source\FilteringFunctions/arm_fir_sparse_init_q15.c ****  * Target Processor: Cortex-M cores
  10:Source\FilteringFunctions/arm_fir_sparse_init_q15.c ****  * -------------------------------------------------------------------- */
  11:Source\FilteringFunctions/arm_fir_sparse_init_q15.c **** /*
  12:Source\FilteringFunctions/arm_fir_sparse_init_q15.c ****  * Copyright (C) 2010-2017 ARM Limited or its affiliates. All rights reserved.
  13:Source\FilteringFunctions/arm_fir_sparse_init_q15.c ****  *
  14:Source\FilteringFunctions/arm_fir_sparse_init_q15.c ****  * SPDX-License-Identifier: Apache-2.0
  15:Source\FilteringFunctions/arm_fir_sparse_init_q15.c ****  *
  16:Source\FilteringFunctions/arm_fir_sparse_init_q15.c ****  * Licensed under the Apache License, Version 2.0 (the License); you may
  17:Source\FilteringFunctions/arm_fir_sparse_init_q15.c ****  * not use this file except in compliance with the License.
  18:Source\FilteringFunctions/arm_fir_sparse_init_q15.c ****  * You may obtain a copy of the License at
  19:Source\FilteringFunctions/arm_fir_sparse_init_q15.c ****  *
  20:Source\FilteringFunctions/arm_fir_sparse_init_q15.c ****  * www.apache.org/licenses/LICENSE-2.0
  21:Source\FilteringFunctions/arm_fir_sparse_init_q15.c ****  *
  22:Source\FilteringFunctions/arm_fir_sparse_init_q15.c ****  * Unless required by applicable law or agreed to in writing, software
  23:Source\FilteringFunctions/arm_fir_sparse_init_q15.c ****  * distributed under the License is distributed on an AS IS BASIS, WITHOUT
  24:Source\FilteringFunctions/arm_fir_sparse_init_q15.c ****  * WARRANTIES OR CONDITIONS OF ANY KIND, either express or implied.
  25:Source\FilteringFunctions/arm_fir_sparse_init_q15.c ****  * See the License for the specific language governing permissions and
  26:Source\FilteringFunctions/arm_fir_sparse_init_q15.c ****  * limitations under the License.
  27:Source\FilteringFunctions/arm_fir_sparse_init_q15.c ****  */
  28:Source\FilteringFunctions/arm_fir_sparse_init_q15.c **** 
  29:Source\FilteringFunctions/arm_fir_sparse_init_q15.c **** #include "arm_math.h"
  30:Source\FilteringFunctions/arm_fir_sparse_init_q15.c **** 
  31:Source\FilteringFunctions/arm_fir_sparse_init_q15.c **** /**
  32:Source\FilteringFunctions/arm_fir_sparse_init_q15.c ****  * @ingroup groupFilters
ARM GAS  C:\Users\fneves\AppData\Local\Temp\cchBqmGz.s 			page 2


  33:Source\FilteringFunctions/arm_fir_sparse_init_q15.c ****  */
  34:Source\FilteringFunctions/arm_fir_sparse_init_q15.c **** 
  35:Source\FilteringFunctions/arm_fir_sparse_init_q15.c **** /**
  36:Source\FilteringFunctions/arm_fir_sparse_init_q15.c ****  * @addtogroup FIR_Sparse
  37:Source\FilteringFunctions/arm_fir_sparse_init_q15.c ****  * @{
  38:Source\FilteringFunctions/arm_fir_sparse_init_q15.c ****  */
  39:Source\FilteringFunctions/arm_fir_sparse_init_q15.c **** 
  40:Source\FilteringFunctions/arm_fir_sparse_init_q15.c **** /**
  41:Source\FilteringFunctions/arm_fir_sparse_init_q15.c ****  * @brief  Initialization function for the Q15 sparse FIR filter.
  42:Source\FilteringFunctions/arm_fir_sparse_init_q15.c ****  * @param[in,out] *S         points to an instance of the Q15 sparse FIR structure.
  43:Source\FilteringFunctions/arm_fir_sparse_init_q15.c ****  * @param[in]     numTaps    number of nonzero coefficients in the filter.
  44:Source\FilteringFunctions/arm_fir_sparse_init_q15.c ****  * @param[in]     *pCoeffs   points to the array of filter coefficients.
  45:Source\FilteringFunctions/arm_fir_sparse_init_q15.c ****  * @param[in]     *pState    points to the state buffer.
  46:Source\FilteringFunctions/arm_fir_sparse_init_q15.c ****  * @param[in]     *pTapDelay points to the array of offset times.
  47:Source\FilteringFunctions/arm_fir_sparse_init_q15.c ****  * @param[in]     maxDelay   maximum offset time supported.
  48:Source\FilteringFunctions/arm_fir_sparse_init_q15.c ****  * @param[in]     blockSize  number of samples that will be processed per block.
  49:Source\FilteringFunctions/arm_fir_sparse_init_q15.c ****  * @return none
  50:Source\FilteringFunctions/arm_fir_sparse_init_q15.c ****  *
  51:Source\FilteringFunctions/arm_fir_sparse_init_q15.c ****  * <b>Description:</b>
  52:Source\FilteringFunctions/arm_fir_sparse_init_q15.c ****  * \par
  53:Source\FilteringFunctions/arm_fir_sparse_init_q15.c ****  * <code>pCoeffs</code> holds the filter coefficients and has length <code>numTaps</code>.
  54:Source\FilteringFunctions/arm_fir_sparse_init_q15.c ****  * <code>pState</code> holds the filter's state variables and must be of length
  55:Source\FilteringFunctions/arm_fir_sparse_init_q15.c ****  * <code>maxDelay + blockSize</code>, where <code>maxDelay</code>
  56:Source\FilteringFunctions/arm_fir_sparse_init_q15.c ****  * is the maximum number of delay line values.
  57:Source\FilteringFunctions/arm_fir_sparse_init_q15.c ****  * <code>blockSize</code> is the
  58:Source\FilteringFunctions/arm_fir_sparse_init_q15.c ****  * number of words processed by <code>arm_fir_sparse_q15()</code> function.
  59:Source\FilteringFunctions/arm_fir_sparse_init_q15.c ****  */
  60:Source\FilteringFunctions/arm_fir_sparse_init_q15.c **** 
  61:Source\FilteringFunctions/arm_fir_sparse_init_q15.c **** void arm_fir_sparse_init_q15(
  62:Source\FilteringFunctions/arm_fir_sparse_init_q15.c ****   arm_fir_sparse_instance_q15 * S,
  63:Source\FilteringFunctions/arm_fir_sparse_init_q15.c ****   uint16_t numTaps,
  64:Source\FilteringFunctions/arm_fir_sparse_init_q15.c ****   q15_t * pCoeffs,
  65:Source\FilteringFunctions/arm_fir_sparse_init_q15.c ****   q15_t * pState,
  66:Source\FilteringFunctions/arm_fir_sparse_init_q15.c ****   int32_t * pTapDelay,
  67:Source\FilteringFunctions/arm_fir_sparse_init_q15.c ****   uint16_t maxDelay,
  68:Source\FilteringFunctions/arm_fir_sparse_init_q15.c ****   uint32_t blockSize)
  69:Source\FilteringFunctions/arm_fir_sparse_init_q15.c **** {
  26              		.loc 1 69 0
  27              		.cfi_startproc
  28 0000 80B5     		push	{r7, lr}
  29              		.cfi_def_cfa_offset 8
  30              		.cfi_offset 7, -8
  31              		.cfi_offset 14, -4
  32 0002 84B0     		sub	sp, sp, #16
  33              		.cfi_def_cfa_offset 24
  34 0004 00AF     		add	r7, sp, #0
  35              		.cfi_def_cfa_register 7
  36 0006 F860     		str	r0, [r7, #12]
  37 0008 7A60     		str	r2, [r7, #4]
  38 000a 3B60     		str	r3, [r7]
  39 000c 0A23     		mov	r3, #10
  40 000e FB18     		add	r3, r7, r3
  41 0010 0A1C     		add	r2, r1, #0
  42 0012 1A80     		strh	r2, [r3]
  70:Source\FilteringFunctions/arm_fir_sparse_init_q15.c ****   /* Assign filter taps */
  71:Source\FilteringFunctions/arm_fir_sparse_init_q15.c ****   S->numTaps = numTaps;
  43              		.loc 1 71 0
ARM GAS  C:\Users\fneves\AppData\Local\Temp\cchBqmGz.s 			page 3


  44 0014 FB68     		ldr	r3, [r7, #12]
  45 0016 0A22     		mov	r2, #10
  46 0018 BA18     		add	r2, r7, r2
  47 001a 1288     		ldrh	r2, [r2]
  48 001c 1A80     		strh	r2, [r3]
  72:Source\FilteringFunctions/arm_fir_sparse_init_q15.c **** 
  73:Source\FilteringFunctions/arm_fir_sparse_init_q15.c ****   /* Assign coefficient pointer */
  74:Source\FilteringFunctions/arm_fir_sparse_init_q15.c ****   S->pCoeffs = pCoeffs;
  49              		.loc 1 74 0
  50 001e FB68     		ldr	r3, [r7, #12]
  51 0020 7A68     		ldr	r2, [r7, #4]
  52 0022 9A60     		str	r2, [r3, #8]
  75:Source\FilteringFunctions/arm_fir_sparse_init_q15.c **** 
  76:Source\FilteringFunctions/arm_fir_sparse_init_q15.c ****   /* Assign TapDelay pointer */
  77:Source\FilteringFunctions/arm_fir_sparse_init_q15.c ****   S->pTapDelay = pTapDelay;
  53              		.loc 1 77 0
  54 0024 FB68     		ldr	r3, [r7, #12]
  55 0026 BA69     		ldr	r2, [r7, #24]
  56 0028 1A61     		str	r2, [r3, #16]
  78:Source\FilteringFunctions/arm_fir_sparse_init_q15.c **** 
  79:Source\FilteringFunctions/arm_fir_sparse_init_q15.c ****   /* Assign MaxDelay */
  80:Source\FilteringFunctions/arm_fir_sparse_init_q15.c ****   S->maxDelay = maxDelay;
  57              		.loc 1 80 0
  58 002a FB68     		ldr	r3, [r7, #12]
  59 002c 1C22     		mov	r2, #28
  60 002e BA18     		add	r2, r7, r2
  61 0030 1288     		ldrh	r2, [r2]
  62 0032 9A81     		strh	r2, [r3, #12]
  81:Source\FilteringFunctions/arm_fir_sparse_init_q15.c **** 
  82:Source\FilteringFunctions/arm_fir_sparse_init_q15.c ****   /* reset the stateIndex to 0 */
  83:Source\FilteringFunctions/arm_fir_sparse_init_q15.c ****   S->stateIndex = 0u;
  63              		.loc 1 83 0
  64 0034 FB68     		ldr	r3, [r7, #12]
  65 0036 0022     		mov	r2, #0
  66 0038 5A80     		strh	r2, [r3, #2]
  84:Source\FilteringFunctions/arm_fir_sparse_init_q15.c **** 
  85:Source\FilteringFunctions/arm_fir_sparse_init_q15.c ****   /* Clear state buffer and size is always maxDelay + blockSize */
  86:Source\FilteringFunctions/arm_fir_sparse_init_q15.c ****   memset(pState, 0, (maxDelay + blockSize) * sizeof(q15_t));
  67              		.loc 1 86 0
  68 003a 1C23     		mov	r3, #28
  69 003c FB18     		add	r3, r7, r3
  70 003e 1A88     		ldrh	r2, [r3]
  71 0040 3B6A     		ldr	r3, [r7, #32]
  72 0042 D318     		add	r3, r2, r3
  73 0044 5B00     		lsl	r3, r3, #1
  74 0046 3A68     		ldr	r2, [r7]
  75 0048 101C     		mov	r0, r2
  76 004a 0021     		mov	r1, #0
  77 004c 1A1C     		mov	r2, r3
  78 004e FFF7FEFF 		bl	memset
  87:Source\FilteringFunctions/arm_fir_sparse_init_q15.c **** 
  88:Source\FilteringFunctions/arm_fir_sparse_init_q15.c ****   /* Assign state pointer */
  89:Source\FilteringFunctions/arm_fir_sparse_init_q15.c ****   S->pState = pState;
  79              		.loc 1 89 0
  80 0052 FB68     		ldr	r3, [r7, #12]
  81 0054 3A68     		ldr	r2, [r7]
  82 0056 5A60     		str	r2, [r3, #4]
ARM GAS  C:\Users\fneves\AppData\Local\Temp\cchBqmGz.s 			page 4


  90:Source\FilteringFunctions/arm_fir_sparse_init_q15.c **** 
  91:Source\FilteringFunctions/arm_fir_sparse_init_q15.c **** }
  83              		.loc 1 91 0
  84 0058 BD46     		mov	sp, r7
  85 005a 04B0     		add	sp, sp, #16
  86              		@ sp needed
  87 005c 80BD     		pop	{r7, pc}
  88              		.cfi_endproc
  89              	.LFE82:
  90              		.size	arm_fir_sparse_init_q15, .-arm_fir_sparse_init_q15
  91 005e C046     		.text
  92              	.Letext0:
  93              		.file 2 "c:\\program files (x86)\\cypress\\psoc creator\\4.0\\psoc creator\\import\\gnu\\arm\\4.9.
  94              		.file 3 "c:\\program files (x86)\\cypress\\psoc creator\\4.0\\psoc creator\\import\\gnu\\arm\\4.9.
  95              		.file 4 ".\\Include/arm_math.h"