ARM GAS  C:\Users\fneves\AppData\Local\Temp\cc9huDEl.s 			page 1


   1              		.cpu cortex-m0plus
   2              		.fpu softvfp
   3              		.eabi_attribute 20, 1
   4              		.eabi_attribute 21, 1
   5              		.eabi_attribute 23, 3
   6              		.eabi_attribute 24, 1
   7              		.eabi_attribute 25, 1
   8              		.eabi_attribute 26, 1
   9              		.eabi_attribute 30, 6
  10              		.eabi_attribute 34, 0
  11              		.eabi_attribute 18, 4
  12              		.code	16
  13              		.file	"arm_cmplx_dot_prod_q15.c"
  14              		.text
  15              	.Ltext0:
  16              		.cfi_sections	.debug_frame
  17              		.section	.text.arm_cmplx_dot_prod_q15,"ax",%progbits
  18              		.align	2
  19              		.global	arm_cmplx_dot_prod_q15
  20              		.code	16
  21              		.thumb_func
  22              		.type	arm_cmplx_dot_prod_q15, %function
  23              	arm_cmplx_dot_prod_q15:
  24              	.LFB82:
  25              		.file 1 "Source\\ComplexMathFunctions\\arm_cmplx_dot_prod_q15.c"
   1:Source\ComplexMathFunctions/arm_cmplx_dot_prod_q15.c **** /* ----------------------------------------------------------------------
   2:Source\ComplexMathFunctions/arm_cmplx_dot_prod_q15.c ****  * Project:      CMSIS DSP Library
   3:Source\ComplexMathFunctions/arm_cmplx_dot_prod_q15.c ****  * Title:        arm_cmplx_dot_prod_q15.c
   4:Source\ComplexMathFunctions/arm_cmplx_dot_prod_q15.c ****  * Description:  Processing function for the Q15 Complex Dot product
   5:Source\ComplexMathFunctions/arm_cmplx_dot_prod_q15.c ****  *
   6:Source\ComplexMathFunctions/arm_cmplx_dot_prod_q15.c ****  * $Date:        27. January 2017
   7:Source\ComplexMathFunctions/arm_cmplx_dot_prod_q15.c ****  * $Revision:    V.1.5.1
   8:Source\ComplexMathFunctions/arm_cmplx_dot_prod_q15.c ****  *
   9:Source\ComplexMathFunctions/arm_cmplx_dot_prod_q15.c ****  * Target Processor: Cortex-M cores
  10:Source\ComplexMathFunctions/arm_cmplx_dot_prod_q15.c ****  * -------------------------------------------------------------------- */
  11:Source\ComplexMathFunctions/arm_cmplx_dot_prod_q15.c **** /*
  12:Source\ComplexMathFunctions/arm_cmplx_dot_prod_q15.c ****  * Copyright (C) 2010-2017 ARM Limited or its affiliates. All rights reserved.
  13:Source\ComplexMathFunctions/arm_cmplx_dot_prod_q15.c ****  *
  14:Source\ComplexMathFunctions/arm_cmplx_dot_prod_q15.c ****  * SPDX-License-Identifier: Apache-2.0
  15:Source\ComplexMathFunctions/arm_cmplx_dot_prod_q15.c ****  *
  16:Source\ComplexMathFunctions/arm_cmplx_dot_prod_q15.c ****  * Licensed under the Apache License, Version 2.0 (the License); you may
  17:Source\ComplexMathFunctions/arm_cmplx_dot_prod_q15.c ****  * not use this file except in compliance with the License.
  18:Source\ComplexMathFunctions/arm_cmplx_dot_prod_q15.c ****  * You may obtain a copy of the License at
  19:Source\ComplexMathFunctions/arm_cmplx_dot_prod_q15.c ****  *
  20:Source\ComplexMathFunctions/arm_cmplx_dot_prod_q15.c ****  * www.apache.org/licenses/LICENSE-2.0
  21:Source\ComplexMathFunctions/arm_cmplx_dot_prod_q15.c ****  *
  22:Source\ComplexMathFunctions/arm_cmplx_dot_prod_q15.c ****  * Unless required by applicable law or agreed to in writing, software
  23:Source\ComplexMathFunctions/arm_cmplx_dot_prod_q15.c ****  * distributed under the License is distributed on an AS IS BASIS, WITHOUT
  24:Source\ComplexMathFunctions/arm_cmplx_dot_prod_q15.c ****  * WARRANTIES OR CONDITIONS OF ANY KIND, either express or implied.
  25:Source\ComplexMathFunctions/arm_cmplx_dot_prod_q15.c ****  * See the License for the specific language governing permissions and
  26:Source\ComplexMathFunctions/arm_cmplx_dot_prod_q15.c ****  * limitations under the License.
  27:Source\ComplexMathFunctions/arm_cmplx_dot_prod_q15.c ****  */
  28:Source\ComplexMathFunctions/arm_cmplx_dot_prod_q15.c **** 
  29:Source\ComplexMathFunctions/arm_cmplx_dot_prod_q15.c **** #include "arm_math.h"
  30:Source\ComplexMathFunctions/arm_cmplx_dot_prod_q15.c **** 
  31:Source\ComplexMathFunctions/arm_cmplx_dot_prod_q15.c **** /**
  32:Source\ComplexMathFunctions/arm_cmplx_dot_prod_q15.c ****  * @ingroup groupCmplxMath
ARM GAS  C:\Users\fneves\AppData\Local\Temp\cc9huDEl.s 			page 2


  33:Source\ComplexMathFunctions/arm_cmplx_dot_prod_q15.c ****  */
  34:Source\ComplexMathFunctions/arm_cmplx_dot_prod_q15.c **** 
  35:Source\ComplexMathFunctions/arm_cmplx_dot_prod_q15.c **** /**
  36:Source\ComplexMathFunctions/arm_cmplx_dot_prod_q15.c ****  * @addtogroup cmplx_dot_prod
  37:Source\ComplexMathFunctions/arm_cmplx_dot_prod_q15.c ****  * @{
  38:Source\ComplexMathFunctions/arm_cmplx_dot_prod_q15.c ****  */
  39:Source\ComplexMathFunctions/arm_cmplx_dot_prod_q15.c **** 
  40:Source\ComplexMathFunctions/arm_cmplx_dot_prod_q15.c **** /**
  41:Source\ComplexMathFunctions/arm_cmplx_dot_prod_q15.c ****  * @brief  Q15 complex dot product
  42:Source\ComplexMathFunctions/arm_cmplx_dot_prod_q15.c ****  * @param  *pSrcA points to the first input vector
  43:Source\ComplexMathFunctions/arm_cmplx_dot_prod_q15.c ****  * @param  *pSrcB points to the second input vector
  44:Source\ComplexMathFunctions/arm_cmplx_dot_prod_q15.c ****  * @param  numSamples number of complex samples in each vector
  45:Source\ComplexMathFunctions/arm_cmplx_dot_prod_q15.c ****  * @param  *realResult real part of the result returned here
  46:Source\ComplexMathFunctions/arm_cmplx_dot_prod_q15.c ****  * @param  *imagResult imaginary part of the result returned here
  47:Source\ComplexMathFunctions/arm_cmplx_dot_prod_q15.c ****  * @return none.
  48:Source\ComplexMathFunctions/arm_cmplx_dot_prod_q15.c ****  *
  49:Source\ComplexMathFunctions/arm_cmplx_dot_prod_q15.c ****  * <b>Scaling and Overflow Behavior:</b>
  50:Source\ComplexMathFunctions/arm_cmplx_dot_prod_q15.c ****  * \par
  51:Source\ComplexMathFunctions/arm_cmplx_dot_prod_q15.c ****  * The function is implemented using an internal 64-bit accumulator.
  52:Source\ComplexMathFunctions/arm_cmplx_dot_prod_q15.c ****  * The intermediate 1.15 by 1.15 multiplications are performed with full precision and yield a 2.30
  53:Source\ComplexMathFunctions/arm_cmplx_dot_prod_q15.c ****  * These are accumulated in a 64-bit accumulator with 34.30 precision.
  54:Source\ComplexMathFunctions/arm_cmplx_dot_prod_q15.c ****  * As a final step, the accumulators are converted to 8.24 format.
  55:Source\ComplexMathFunctions/arm_cmplx_dot_prod_q15.c ****  * The return results <code>realResult</code> and <code>imagResult</code> are in 8.24 format.
  56:Source\ComplexMathFunctions/arm_cmplx_dot_prod_q15.c ****  */
  57:Source\ComplexMathFunctions/arm_cmplx_dot_prod_q15.c **** 
  58:Source\ComplexMathFunctions/arm_cmplx_dot_prod_q15.c **** void arm_cmplx_dot_prod_q15(
  59:Source\ComplexMathFunctions/arm_cmplx_dot_prod_q15.c ****   q15_t * pSrcA,
  60:Source\ComplexMathFunctions/arm_cmplx_dot_prod_q15.c ****   q15_t * pSrcB,
  61:Source\ComplexMathFunctions/arm_cmplx_dot_prod_q15.c ****   uint32_t numSamples,
  62:Source\ComplexMathFunctions/arm_cmplx_dot_prod_q15.c ****   q31_t * realResult,
  63:Source\ComplexMathFunctions/arm_cmplx_dot_prod_q15.c ****   q31_t * imagResult)
  64:Source\ComplexMathFunctions/arm_cmplx_dot_prod_q15.c **** {
  26              		.loc 1 64 0
  27              		.cfi_startproc
  28 0000 F0B5     		push	{r4, r5, r6, r7, lr}
  29              		.cfi_def_cfa_offset 20
  30              		.cfi_offset 4, -20
  31              		.cfi_offset 5, -16
  32              		.cfi_offset 6, -12
  33              		.cfi_offset 7, -8
  34              		.cfi_offset 14, -4
  35 0002 95B0     		sub	sp, sp, #84
  36              		.cfi_def_cfa_offset 104
  37 0004 00AF     		add	r7, sp, #0
  38              		.cfi_def_cfa_register 7
  39 0006 7863     		str	r0, [r7, #52]
  40 0008 3963     		str	r1, [r7, #48]
  41 000a FA62     		str	r2, [r7, #44]
  42 000c BB62     		str	r3, [r7, #40]
  65:Source\ComplexMathFunctions/arm_cmplx_dot_prod_q15.c ****   q63_t real_sum = 0, imag_sum = 0;              /* Temporary result storage */
  43              		.loc 1 65 0
  44 000e 0023     		mov	r3, #0
  45 0010 0024     		mov	r4, #0
  46 0012 BB64     		str	r3, [r7, #72]
  47 0014 FC64     		str	r4, [r7, #76]
  48 0016 0023     		mov	r3, #0
  49 0018 0024     		mov	r4, #0
ARM GAS  C:\Users\fneves\AppData\Local\Temp\cc9huDEl.s 			page 3


  50 001a 3B64     		str	r3, [r7, #64]
  51 001c 7C64     		str	r4, [r7, #68]
  66:Source\ComplexMathFunctions/arm_cmplx_dot_prod_q15.c ****   q15_t a0,b0,c0,d0;
  67:Source\ComplexMathFunctions/arm_cmplx_dot_prod_q15.c **** 
  68:Source\ComplexMathFunctions/arm_cmplx_dot_prod_q15.c **** #if defined (ARM_MATH_DSP)
  69:Source\ComplexMathFunctions/arm_cmplx_dot_prod_q15.c **** 
  70:Source\ComplexMathFunctions/arm_cmplx_dot_prod_q15.c ****   /* Run the below code for Cortex-M4 and Cortex-M3 */
  71:Source\ComplexMathFunctions/arm_cmplx_dot_prod_q15.c ****   uint32_t blkCnt;                               /* loop counter */
  72:Source\ComplexMathFunctions/arm_cmplx_dot_prod_q15.c **** 
  73:Source\ComplexMathFunctions/arm_cmplx_dot_prod_q15.c **** 
  74:Source\ComplexMathFunctions/arm_cmplx_dot_prod_q15.c ****   /*loop Unrolling */
  75:Source\ComplexMathFunctions/arm_cmplx_dot_prod_q15.c ****   blkCnt = numSamples >> 2u;
  76:Source\ComplexMathFunctions/arm_cmplx_dot_prod_q15.c **** 
  77:Source\ComplexMathFunctions/arm_cmplx_dot_prod_q15.c ****   /* First part of the processing with loop unrolling.  Compute 4 outputs at a time.
  78:Source\ComplexMathFunctions/arm_cmplx_dot_prod_q15.c ****    ** a second loop below computes the remaining 1 to 3 samples. */
  79:Source\ComplexMathFunctions/arm_cmplx_dot_prod_q15.c ****   while (blkCnt > 0u)
  80:Source\ComplexMathFunctions/arm_cmplx_dot_prod_q15.c ****   {
  81:Source\ComplexMathFunctions/arm_cmplx_dot_prod_q15.c ****       a0 = *pSrcA++;
  82:Source\ComplexMathFunctions/arm_cmplx_dot_prod_q15.c ****       b0 = *pSrcA++;
  83:Source\ComplexMathFunctions/arm_cmplx_dot_prod_q15.c ****       c0 = *pSrcB++;
  84:Source\ComplexMathFunctions/arm_cmplx_dot_prod_q15.c ****       d0 = *pSrcB++;
  85:Source\ComplexMathFunctions/arm_cmplx_dot_prod_q15.c **** 
  86:Source\ComplexMathFunctions/arm_cmplx_dot_prod_q15.c ****       real_sum += (q31_t)a0 * c0;
  87:Source\ComplexMathFunctions/arm_cmplx_dot_prod_q15.c ****       imag_sum += (q31_t)a0 * d0;
  88:Source\ComplexMathFunctions/arm_cmplx_dot_prod_q15.c ****       real_sum -= (q31_t)b0 * d0;
  89:Source\ComplexMathFunctions/arm_cmplx_dot_prod_q15.c ****       imag_sum += (q31_t)b0 * c0;
  90:Source\ComplexMathFunctions/arm_cmplx_dot_prod_q15.c **** 
  91:Source\ComplexMathFunctions/arm_cmplx_dot_prod_q15.c ****       a0 = *pSrcA++;
  92:Source\ComplexMathFunctions/arm_cmplx_dot_prod_q15.c ****       b0 = *pSrcA++;
  93:Source\ComplexMathFunctions/arm_cmplx_dot_prod_q15.c ****       c0 = *pSrcB++;
  94:Source\ComplexMathFunctions/arm_cmplx_dot_prod_q15.c ****       d0 = *pSrcB++;
  95:Source\ComplexMathFunctions/arm_cmplx_dot_prod_q15.c **** 
  96:Source\ComplexMathFunctions/arm_cmplx_dot_prod_q15.c ****       real_sum += (q31_t)a0 * c0;
  97:Source\ComplexMathFunctions/arm_cmplx_dot_prod_q15.c ****       imag_sum += (q31_t)a0 * d0;
  98:Source\ComplexMathFunctions/arm_cmplx_dot_prod_q15.c ****       real_sum -= (q31_t)b0 * d0;
  99:Source\ComplexMathFunctions/arm_cmplx_dot_prod_q15.c ****       imag_sum += (q31_t)b0 * c0;
 100:Source\ComplexMathFunctions/arm_cmplx_dot_prod_q15.c **** 
 101:Source\ComplexMathFunctions/arm_cmplx_dot_prod_q15.c ****       a0 = *pSrcA++;
 102:Source\ComplexMathFunctions/arm_cmplx_dot_prod_q15.c ****       b0 = *pSrcA++;
 103:Source\ComplexMathFunctions/arm_cmplx_dot_prod_q15.c ****       c0 = *pSrcB++;
 104:Source\ComplexMathFunctions/arm_cmplx_dot_prod_q15.c ****       d0 = *pSrcB++;
 105:Source\ComplexMathFunctions/arm_cmplx_dot_prod_q15.c **** 
 106:Source\ComplexMathFunctions/arm_cmplx_dot_prod_q15.c ****       real_sum += (q31_t)a0 * c0;
 107:Source\ComplexMathFunctions/arm_cmplx_dot_prod_q15.c ****       imag_sum += (q31_t)a0 * d0;
 108:Source\ComplexMathFunctions/arm_cmplx_dot_prod_q15.c ****       real_sum -= (q31_t)b0 * d0;
 109:Source\ComplexMathFunctions/arm_cmplx_dot_prod_q15.c ****       imag_sum += (q31_t)b0 * c0;
 110:Source\ComplexMathFunctions/arm_cmplx_dot_prod_q15.c **** 
 111:Source\ComplexMathFunctions/arm_cmplx_dot_prod_q15.c ****       a0 = *pSrcA++;
 112:Source\ComplexMathFunctions/arm_cmplx_dot_prod_q15.c ****       b0 = *pSrcA++;
 113:Source\ComplexMathFunctions/arm_cmplx_dot_prod_q15.c ****       c0 = *pSrcB++;
 114:Source\ComplexMathFunctions/arm_cmplx_dot_prod_q15.c ****       d0 = *pSrcB++;
 115:Source\ComplexMathFunctions/arm_cmplx_dot_prod_q15.c **** 
 116:Source\ComplexMathFunctions/arm_cmplx_dot_prod_q15.c ****       real_sum += (q31_t)a0 * c0;
 117:Source\ComplexMathFunctions/arm_cmplx_dot_prod_q15.c ****       imag_sum += (q31_t)a0 * d0;
 118:Source\ComplexMathFunctions/arm_cmplx_dot_prod_q15.c ****       real_sum -= (q31_t)b0 * d0;
 119:Source\ComplexMathFunctions/arm_cmplx_dot_prod_q15.c ****       imag_sum += (q31_t)b0 * c0;
 120:Source\ComplexMathFunctions/arm_cmplx_dot_prod_q15.c **** 
ARM GAS  C:\Users\fneves\AppData\Local\Temp\cc9huDEl.s 			page 4


 121:Source\ComplexMathFunctions/arm_cmplx_dot_prod_q15.c ****       /* Decrement the loop counter */
 122:Source\ComplexMathFunctions/arm_cmplx_dot_prod_q15.c ****       blkCnt--;
 123:Source\ComplexMathFunctions/arm_cmplx_dot_prod_q15.c ****   }
 124:Source\ComplexMathFunctions/arm_cmplx_dot_prod_q15.c **** 
 125:Source\ComplexMathFunctions/arm_cmplx_dot_prod_q15.c ****   /* If the numSamples is not a multiple of 4, compute any remaining output samples here.
 126:Source\ComplexMathFunctions/arm_cmplx_dot_prod_q15.c ****    ** No loop unrolling is used. */
 127:Source\ComplexMathFunctions/arm_cmplx_dot_prod_q15.c ****   blkCnt = numSamples % 0x4u;
 128:Source\ComplexMathFunctions/arm_cmplx_dot_prod_q15.c **** 
 129:Source\ComplexMathFunctions/arm_cmplx_dot_prod_q15.c ****   while (blkCnt > 0u)
 130:Source\ComplexMathFunctions/arm_cmplx_dot_prod_q15.c ****   {
 131:Source\ComplexMathFunctions/arm_cmplx_dot_prod_q15.c ****       a0 = *pSrcA++;
 132:Source\ComplexMathFunctions/arm_cmplx_dot_prod_q15.c ****       b0 = *pSrcA++;
 133:Source\ComplexMathFunctions/arm_cmplx_dot_prod_q15.c ****       c0 = *pSrcB++;
 134:Source\ComplexMathFunctions/arm_cmplx_dot_prod_q15.c ****       d0 = *pSrcB++;
 135:Source\ComplexMathFunctions/arm_cmplx_dot_prod_q15.c **** 
 136:Source\ComplexMathFunctions/arm_cmplx_dot_prod_q15.c ****       real_sum += (q31_t)a0 * c0;
 137:Source\ComplexMathFunctions/arm_cmplx_dot_prod_q15.c ****       imag_sum += (q31_t)a0 * d0;
 138:Source\ComplexMathFunctions/arm_cmplx_dot_prod_q15.c ****       real_sum -= (q31_t)b0 * d0;
 139:Source\ComplexMathFunctions/arm_cmplx_dot_prod_q15.c ****       imag_sum += (q31_t)b0 * c0;
 140:Source\ComplexMathFunctions/arm_cmplx_dot_prod_q15.c **** 
 141:Source\ComplexMathFunctions/arm_cmplx_dot_prod_q15.c ****       /* Decrement the loop counter */
 142:Source\ComplexMathFunctions/arm_cmplx_dot_prod_q15.c ****       blkCnt--;
 143:Source\ComplexMathFunctions/arm_cmplx_dot_prod_q15.c ****   }
 144:Source\ComplexMathFunctions/arm_cmplx_dot_prod_q15.c **** 
 145:Source\ComplexMathFunctions/arm_cmplx_dot_prod_q15.c **** #else
 146:Source\ComplexMathFunctions/arm_cmplx_dot_prod_q15.c **** 
 147:Source\ComplexMathFunctions/arm_cmplx_dot_prod_q15.c ****   /* Run the below code for Cortex-M0 */
 148:Source\ComplexMathFunctions/arm_cmplx_dot_prod_q15.c **** 
 149:Source\ComplexMathFunctions/arm_cmplx_dot_prod_q15.c ****   while (numSamples > 0u)
  52              		.loc 1 149 0
  53 001e 8EE0     		b	.L2
  54              	.L3:
 150:Source\ComplexMathFunctions/arm_cmplx_dot_prod_q15.c ****   {
 151:Source\ComplexMathFunctions/arm_cmplx_dot_prod_q15.c ****       a0 = *pSrcA++;
  55              		.loc 1 151 0
  56 0020 796B     		ldr	r1, [r7, #52]
  57 0022 8B1C     		add	r3, r1, #2
  58 0024 7B63     		str	r3, [r7, #52]
  59 0026 1623     		mov	r3, #22
  60 0028 2822     		mov	r2, #40
  61 002a BA18     		add	r2, r7, r2
  62 002c D218     		add	r2, r2, r3
  63 002e 0B88     		ldrh	r3, [r1]
  64 0030 1380     		strh	r3, [r2]
 152:Source\ComplexMathFunctions/arm_cmplx_dot_prod_q15.c ****       b0 = *pSrcA++;
  65              		.loc 1 152 0
  66 0032 796B     		ldr	r1, [r7, #52]
  67 0034 8B1C     		add	r3, r1, #2
  68 0036 7B63     		str	r3, [r7, #52]
  69 0038 1423     		mov	r3, #20
  70 003a 2822     		mov	r2, #40
  71 003c BA18     		add	r2, r7, r2
  72 003e D218     		add	r2, r2, r3
  73 0040 0B88     		ldrh	r3, [r1]
  74 0042 1380     		strh	r3, [r2]
 153:Source\ComplexMathFunctions/arm_cmplx_dot_prod_q15.c ****       c0 = *pSrcB++;
  75              		.loc 1 153 0
ARM GAS  C:\Users\fneves\AppData\Local\Temp\cc9huDEl.s 			page 5


  76 0044 396B     		ldr	r1, [r7, #48]
  77 0046 8B1C     		add	r3, r1, #2
  78 0048 3B63     		str	r3, [r7, #48]
  79 004a 1223     		mov	r3, #18
  80 004c 2822     		mov	r2, #40
  81 004e BA18     		add	r2, r7, r2
  82 0050 D218     		add	r2, r2, r3
  83 0052 0B88     		ldrh	r3, [r1]
  84 0054 1380     		strh	r3, [r2]
 154:Source\ComplexMathFunctions/arm_cmplx_dot_prod_q15.c ****       d0 = *pSrcB++;
  85              		.loc 1 154 0
  86 0056 396B     		ldr	r1, [r7, #48]
  87 0058 8B1C     		add	r3, r1, #2
  88 005a 3B63     		str	r3, [r7, #48]
  89 005c 1023     		mov	r3, #16
  90 005e 2822     		mov	r2, #40
  91 0060 BA18     		add	r2, r7, r2
  92 0062 D218     		add	r2, r2, r3
  93 0064 0B88     		ldrh	r3, [r1]
  94 0066 1380     		strh	r3, [r2]
 155:Source\ComplexMathFunctions/arm_cmplx_dot_prod_q15.c **** 
 156:Source\ComplexMathFunctions/arm_cmplx_dot_prod_q15.c ****       real_sum += a0 * c0;
  95              		.loc 1 156 0
  96 0068 1623     		mov	r3, #22
  97 006a 2822     		mov	r2, #40
  98 006c 9446     		mov	ip, r2
  99 006e BC44     		add	ip, ip, r7
 100 0070 6344     		add	r3, r3, ip
 101 0072 0022     		mov	r2, #0
 102 0074 9A5E     		ldrsh	r2, [r3, r2]
 103 0076 1223     		mov	r3, #18
 104 0078 2821     		mov	r1, #40
 105 007a 8C46     		mov	ip, r1
 106 007c BC44     		add	ip, ip, r7
 107 007e 6344     		add	r3, r3, ip
 108 0080 0021     		mov	r1, #0
 109 0082 5B5E     		ldrsh	r3, [r3, r1]
 110 0084 5343     		mul	r3, r2
 111 0086 BB61     		str	r3, [r7, #24]
 112 0088 DB17     		asr	r3, r3, #31
 113 008a FB61     		str	r3, [r7, #28]
 114 008c BB6C     		ldr	r3, [r7, #72]
 115 008e FC6C     		ldr	r4, [r7, #76]
 116 0090 B969     		ldr	r1, [r7, #24]
 117 0092 FA69     		ldr	r2, [r7, #28]
 118 0094 5B18     		add	r3, r3, r1
 119 0096 5441     		adc	r4, r4, r2
 120 0098 BB64     		str	r3, [r7, #72]
 121 009a FC64     		str	r4, [r7, #76]
 157:Source\ComplexMathFunctions/arm_cmplx_dot_prod_q15.c ****       imag_sum += a0 * d0;
 122              		.loc 1 157 0
 123 009c 1623     		mov	r3, #22
 124 009e 2822     		mov	r2, #40
 125 00a0 9446     		mov	ip, r2
 126 00a2 BC44     		add	ip, ip, r7
 127 00a4 6344     		add	r3, r3, ip
 128 00a6 0022     		mov	r2, #0
ARM GAS  C:\Users\fneves\AppData\Local\Temp\cc9huDEl.s 			page 6


 129 00a8 9A5E     		ldrsh	r2, [r3, r2]
 130 00aa 1023     		mov	r3, #16
 131 00ac 2821     		mov	r1, #40
 132 00ae 8C46     		mov	ip, r1
 133 00b0 BC44     		add	ip, ip, r7
 134 00b2 6344     		add	r3, r3, ip
 135 00b4 0021     		mov	r1, #0
 136 00b6 5B5E     		ldrsh	r3, [r3, r1]
 137 00b8 5343     		mul	r3, r2
 138 00ba 3B61     		str	r3, [r7, #16]
 139 00bc DB17     		asr	r3, r3, #31
 140 00be 7B61     		str	r3, [r7, #20]
 141 00c0 3B6C     		ldr	r3, [r7, #64]
 142 00c2 7C6C     		ldr	r4, [r7, #68]
 143 00c4 3969     		ldr	r1, [r7, #16]
 144 00c6 7A69     		ldr	r2, [r7, #20]
 145 00c8 5B18     		add	r3, r3, r1
 146 00ca 5441     		adc	r4, r4, r2
 147 00cc 3B64     		str	r3, [r7, #64]
 148 00ce 7C64     		str	r4, [r7, #68]
 158:Source\ComplexMathFunctions/arm_cmplx_dot_prod_q15.c ****       real_sum -= b0 * d0;
 149              		.loc 1 158 0
 150 00d0 1423     		mov	r3, #20
 151 00d2 2822     		mov	r2, #40
 152 00d4 9446     		mov	ip, r2
 153 00d6 BC44     		add	ip, ip, r7
 154 00d8 6344     		add	r3, r3, ip
 155 00da 0022     		mov	r2, #0
 156 00dc 9A5E     		ldrsh	r2, [r3, r2]
 157 00de 1023     		mov	r3, #16
 158 00e0 2821     		mov	r1, #40
 159 00e2 8C46     		mov	ip, r1
 160 00e4 BC44     		add	ip, ip, r7
 161 00e6 6344     		add	r3, r3, ip
 162 00e8 0021     		mov	r1, #0
 163 00ea 5B5E     		ldrsh	r3, [r3, r1]
 164 00ec 5343     		mul	r3, r2
 165 00ee BB60     		str	r3, [r7, #8]
 166 00f0 DB17     		asr	r3, r3, #31
 167 00f2 FB60     		str	r3, [r7, #12]
 168 00f4 BB6C     		ldr	r3, [r7, #72]
 169 00f6 FC6C     		ldr	r4, [r7, #76]
 170 00f8 B968     		ldr	r1, [r7, #8]
 171 00fa FA68     		ldr	r2, [r7, #12]
 172 00fc 5B1A     		sub	r3, r3, r1
 173 00fe 9441     		sbc	r4, r4, r2
 174 0100 BB64     		str	r3, [r7, #72]
 175 0102 FC64     		str	r4, [r7, #76]
 159:Source\ComplexMathFunctions/arm_cmplx_dot_prod_q15.c ****       imag_sum += b0 * c0;
 176              		.loc 1 159 0
 177 0104 1423     		mov	r3, #20
 178 0106 2822     		mov	r2, #40
 179 0108 9446     		mov	ip, r2
 180 010a BC44     		add	ip, ip, r7
 181 010c 6344     		add	r3, r3, ip
 182 010e 0022     		mov	r2, #0
 183 0110 9A5E     		ldrsh	r2, [r3, r2]
ARM GAS  C:\Users\fneves\AppData\Local\Temp\cc9huDEl.s 			page 7


 184 0112 1223     		mov	r3, #18
 185 0114 2821     		mov	r1, #40
 186 0116 8C46     		mov	ip, r1
 187 0118 BC44     		add	ip, ip, r7
 188 011a 6344     		add	r3, r3, ip
 189 011c 0021     		mov	r1, #0
 190 011e 5B5E     		ldrsh	r3, [r3, r1]
 191 0120 5343     		mul	r3, r2
 192 0122 3B60     		str	r3, [r7]
 193 0124 DB17     		asr	r3, r3, #31
 194 0126 7B60     		str	r3, [r7, #4]
 195 0128 3B6C     		ldr	r3, [r7, #64]
 196 012a 7C6C     		ldr	r4, [r7, #68]
 197 012c 3968     		ldr	r1, [r7]
 198 012e 7A68     		ldr	r2, [r7, #4]
 199 0130 5B18     		add	r3, r3, r1
 200 0132 5441     		adc	r4, r4, r2
 201 0134 3B64     		str	r3, [r7, #64]
 202 0136 7C64     		str	r4, [r7, #68]
 160:Source\ComplexMathFunctions/arm_cmplx_dot_prod_q15.c **** 
 161:Source\ComplexMathFunctions/arm_cmplx_dot_prod_q15.c **** 
 162:Source\ComplexMathFunctions/arm_cmplx_dot_prod_q15.c ****       /* Decrement the loop counter */
 163:Source\ComplexMathFunctions/arm_cmplx_dot_prod_q15.c ****       numSamples--;
 203              		.loc 1 163 0
 204 0138 FB6A     		ldr	r3, [r7, #44]
 205 013a 013B     		sub	r3, r3, #1
 206 013c FB62     		str	r3, [r7, #44]
 207              	.L2:
 149:Source\ComplexMathFunctions/arm_cmplx_dot_prod_q15.c ****   {
 208              		.loc 1 149 0
 209 013e FB6A     		ldr	r3, [r7, #44]
 210 0140 002B     		cmp	r3, #0
 211 0142 00D0     		beq	.LCB152
 212 0144 6CE7     		b	.L3	@long jump
 213              	.LCB152:
 164:Source\ComplexMathFunctions/arm_cmplx_dot_prod_q15.c ****   }
 165:Source\ComplexMathFunctions/arm_cmplx_dot_prod_q15.c **** 
 166:Source\ComplexMathFunctions/arm_cmplx_dot_prod_q15.c **** #endif /* #if defined (ARM_MATH_DSP) */
 167:Source\ComplexMathFunctions/arm_cmplx_dot_prod_q15.c **** 
 168:Source\ComplexMathFunctions/arm_cmplx_dot_prod_q15.c ****   /* Store the real and imaginary results in 8.24 format  */
 169:Source\ComplexMathFunctions/arm_cmplx_dot_prod_q15.c ****   /* Convert real data in 34.30 to 8.24 by 6 right shifts */
 170:Source\ComplexMathFunctions/arm_cmplx_dot_prod_q15.c ****   *realResult = (q31_t) (real_sum >> 6);
 214              		.loc 1 170 0
 215 0146 FB6C     		ldr	r3, [r7, #76]
 216 0148 9B06     		lsl	r3, r3, #26
 217 014a BA6C     		ldr	r2, [r7, #72]
 218 014c 9209     		lsr	r2, r2, #6
 219 014e 3A62     		str	r2, [r7, #32]
 220 0150 3A6A     		ldr	r2, [r7, #32]
 221 0152 1A43     		orr	r2, r3
 222 0154 3A62     		str	r2, [r7, #32]
 223 0156 FB6C     		ldr	r3, [r7, #76]
 224 0158 9B11     		asr	r3, r3, #6
 225 015a 7B62     		str	r3, [r7, #36]
 226 015c 3A6A     		ldr	r2, [r7, #32]
 227 015e BB6A     		ldr	r3, [r7, #40]
 228 0160 1A60     		str	r2, [r3]
ARM GAS  C:\Users\fneves\AppData\Local\Temp\cc9huDEl.s 			page 8


 171:Source\ComplexMathFunctions/arm_cmplx_dot_prod_q15.c ****   /* Convert imaginary data in 34.30 to 8.24 by 6 right shifts */
 172:Source\ComplexMathFunctions/arm_cmplx_dot_prod_q15.c ****   *imagResult = (q31_t) (imag_sum >> 6);
 229              		.loc 1 172 0
 230 0162 7B6C     		ldr	r3, [r7, #68]
 231 0164 9B06     		lsl	r3, r3, #26
 232 0166 3A6C     		ldr	r2, [r7, #64]
 233 0168 9509     		lsr	r5, r2, #6
 234 016a 1D43     		orr	r5, r3
 235 016c 7B6C     		ldr	r3, [r7, #68]
 236 016e 9E11     		asr	r6, r3, #6
 237 0170 2A1C     		mov	r2, r5
 238 0172 BB6E     		ldr	r3, [r7, #104]
 239 0174 1A60     		str	r2, [r3]
 173:Source\ComplexMathFunctions/arm_cmplx_dot_prod_q15.c **** }
 240              		.loc 1 173 0
 241 0176 BD46     		mov	sp, r7
 242 0178 15B0     		add	sp, sp, #84
 243              		@ sp needed
 244 017a F0BD     		pop	{r4, r5, r6, r7, pc}
 245              		.cfi_endproc
 246              	.LFE82:
 247              		.size	arm_cmplx_dot_prod_q15, .-arm_cmplx_dot_prod_q15
 248              		.text
 249              	.Letext0:
 250              		.file 2 "c:\\program files (x86)\\cypress\\psoc creator\\4.0\\psoc creator\\import\\gnu\\arm\\4.9.
 251              		.file 3 "c:\\program files (x86)\\cypress\\psoc creator\\4.0\\psoc creator\\import\\gnu\\arm\\4.9.
 252              		.file 4 ".\\Include/arm_math.h"