ARM GAS  C:\Users\fneves\AppData\Local\Temp\ccOwtlFY.s 			page 1


   1              		.cpu cortex-m0plus
   2              		.fpu softvfp
   3              		.eabi_attribute 20, 1
   4              		.eabi_attribute 21, 1
   5              		.eabi_attribute 23, 3
   6              		.eabi_attribute 24, 1
   7              		.eabi_attribute 25, 1
   8              		.eabi_attribute 26, 1
   9              		.eabi_attribute 30, 6
  10              		.eabi_attribute 34, 0
  11              		.eabi_attribute 18, 4
  12              		.code	16
  13              		.file	"arm_rfft_f32.c"
  14              		.text
  15              	.Ltext0:
  16              		.cfi_sections	.debug_frame
  17              		.section	.text.arm_rfft_f32,"ax",%progbits
  18              		.align	2
  19              		.global	arm_rfft_f32
  20              		.code	16
  21              		.thumb_func
  22              		.type	arm_rfft_f32, %function
  23              	arm_rfft_f32:
  24              	.LFB82:
  25              		.file 1 "Source\\TransformFunctions\\arm_rfft_f32.c"
   1:Source\TransformFunctions/arm_rfft_f32.c **** /* ----------------------------------------------------------------------
   2:Source\TransformFunctions/arm_rfft_f32.c ****  * Project:      CMSIS DSP Library
   3:Source\TransformFunctions/arm_rfft_f32.c ****  * Title:        arm_rfft_f32.c
   4:Source\TransformFunctions/arm_rfft_f32.c ****  * Description:  RFFT & RIFFT Floating point process function
   5:Source\TransformFunctions/arm_rfft_f32.c ****  *
   6:Source\TransformFunctions/arm_rfft_f32.c ****  * $Date:        27. January 2017
   7:Source\TransformFunctions/arm_rfft_f32.c ****  * $Revision:    V.1.5.1
   8:Source\TransformFunctions/arm_rfft_f32.c ****  *
   9:Source\TransformFunctions/arm_rfft_f32.c ****  * Target Processor: Cortex-M cores
  10:Source\TransformFunctions/arm_rfft_f32.c ****  * -------------------------------------------------------------------- */
  11:Source\TransformFunctions/arm_rfft_f32.c **** /*
  12:Source\TransformFunctions/arm_rfft_f32.c ****  * Copyright (C) 2010-2017 ARM Limited or its affiliates. All rights reserved.
  13:Source\TransformFunctions/arm_rfft_f32.c ****  *
  14:Source\TransformFunctions/arm_rfft_f32.c ****  * SPDX-License-Identifier: Apache-2.0
  15:Source\TransformFunctions/arm_rfft_f32.c ****  *
  16:Source\TransformFunctions/arm_rfft_f32.c ****  * Licensed under the Apache License, Version 2.0 (the License); you may
  17:Source\TransformFunctions/arm_rfft_f32.c ****  * not use this file except in compliance with the License.
  18:Source\TransformFunctions/arm_rfft_f32.c ****  * You may obtain a copy of the License at
  19:Source\TransformFunctions/arm_rfft_f32.c ****  *
  20:Source\TransformFunctions/arm_rfft_f32.c ****  * www.apache.org/licenses/LICENSE-2.0
  21:Source\TransformFunctions/arm_rfft_f32.c ****  *
  22:Source\TransformFunctions/arm_rfft_f32.c ****  * Unless required by applicable law or agreed to in writing, software
  23:Source\TransformFunctions/arm_rfft_f32.c ****  * distributed under the License is distributed on an AS IS BASIS, WITHOUT
  24:Source\TransformFunctions/arm_rfft_f32.c ****  * WARRANTIES OR CONDITIONS OF ANY KIND, either express or implied.
  25:Source\TransformFunctions/arm_rfft_f32.c ****  * See the License for the specific language governing permissions and
  26:Source\TransformFunctions/arm_rfft_f32.c ****  * limitations under the License.
  27:Source\TransformFunctions/arm_rfft_f32.c ****  */
  28:Source\TransformFunctions/arm_rfft_f32.c **** 
  29:Source\TransformFunctions/arm_rfft_f32.c **** #include "arm_math.h"
  30:Source\TransformFunctions/arm_rfft_f32.c **** 
  31:Source\TransformFunctions/arm_rfft_f32.c **** /* ----------------------------------------------------------------------
  32:Source\TransformFunctions/arm_rfft_f32.c ****  * Internal functions prototypes
ARM GAS  C:\Users\fneves\AppData\Local\Temp\ccOwtlFY.s 			page 2


  33:Source\TransformFunctions/arm_rfft_f32.c ****  * -------------------------------------------------------------------- */
  34:Source\TransformFunctions/arm_rfft_f32.c **** 
  35:Source\TransformFunctions/arm_rfft_f32.c **** extern void arm_radix4_butterfly_f32(
  36:Source\TransformFunctions/arm_rfft_f32.c ****     float32_t * pSrc,
  37:Source\TransformFunctions/arm_rfft_f32.c ****     uint16_t fftLen,
  38:Source\TransformFunctions/arm_rfft_f32.c ****     float32_t * pCoef,
  39:Source\TransformFunctions/arm_rfft_f32.c ****     uint16_t twidCoefModifier);
  40:Source\TransformFunctions/arm_rfft_f32.c **** 
  41:Source\TransformFunctions/arm_rfft_f32.c **** extern void arm_radix4_butterfly_inverse_f32(
  42:Source\TransformFunctions/arm_rfft_f32.c ****     float32_t * pSrc,
  43:Source\TransformFunctions/arm_rfft_f32.c ****     uint16_t fftLen,
  44:Source\TransformFunctions/arm_rfft_f32.c ****     float32_t * pCoef,
  45:Source\TransformFunctions/arm_rfft_f32.c ****     uint16_t twidCoefModifier,
  46:Source\TransformFunctions/arm_rfft_f32.c ****     float32_t onebyfftLen);
  47:Source\TransformFunctions/arm_rfft_f32.c **** 
  48:Source\TransformFunctions/arm_rfft_f32.c **** extern void arm_bitreversal_f32(
  49:Source\TransformFunctions/arm_rfft_f32.c ****     float32_t * pSrc,
  50:Source\TransformFunctions/arm_rfft_f32.c ****     uint16_t fftSize,
  51:Source\TransformFunctions/arm_rfft_f32.c ****     uint16_t bitRevFactor,
  52:Source\TransformFunctions/arm_rfft_f32.c ****     uint16_t * pBitRevTab);
  53:Source\TransformFunctions/arm_rfft_f32.c **** 
  54:Source\TransformFunctions/arm_rfft_f32.c **** void arm_split_rfft_f32(
  55:Source\TransformFunctions/arm_rfft_f32.c ****   float32_t * pSrc,
  56:Source\TransformFunctions/arm_rfft_f32.c ****   uint32_t fftLen,
  57:Source\TransformFunctions/arm_rfft_f32.c ****   float32_t * pATable,
  58:Source\TransformFunctions/arm_rfft_f32.c ****   float32_t * pBTable,
  59:Source\TransformFunctions/arm_rfft_f32.c ****   float32_t * pDst,
  60:Source\TransformFunctions/arm_rfft_f32.c ****   uint32_t modifier);
  61:Source\TransformFunctions/arm_rfft_f32.c **** 
  62:Source\TransformFunctions/arm_rfft_f32.c **** void arm_split_rifft_f32(
  63:Source\TransformFunctions/arm_rfft_f32.c ****   float32_t * pSrc,
  64:Source\TransformFunctions/arm_rfft_f32.c ****   uint32_t fftLen,
  65:Source\TransformFunctions/arm_rfft_f32.c ****   float32_t * pATable,
  66:Source\TransformFunctions/arm_rfft_f32.c ****   float32_t * pBTable,
  67:Source\TransformFunctions/arm_rfft_f32.c ****   float32_t * pDst,
  68:Source\TransformFunctions/arm_rfft_f32.c ****   uint32_t modifier);
  69:Source\TransformFunctions/arm_rfft_f32.c **** 
  70:Source\TransformFunctions/arm_rfft_f32.c **** /**
  71:Source\TransformFunctions/arm_rfft_f32.c **** * @ingroup groupTransforms
  72:Source\TransformFunctions/arm_rfft_f32.c **** */
  73:Source\TransformFunctions/arm_rfft_f32.c **** 
  74:Source\TransformFunctions/arm_rfft_f32.c **** /**
  75:Source\TransformFunctions/arm_rfft_f32.c ****  * @addtogroup RealFFT
  76:Source\TransformFunctions/arm_rfft_f32.c ****  * @{
  77:Source\TransformFunctions/arm_rfft_f32.c ****  */
  78:Source\TransformFunctions/arm_rfft_f32.c **** 
  79:Source\TransformFunctions/arm_rfft_f32.c **** /**
  80:Source\TransformFunctions/arm_rfft_f32.c ****  * @brief Processing function for the floating-point RFFT/RIFFT.
  81:Source\TransformFunctions/arm_rfft_f32.c ****  * @deprecated Do not use this function.  It has been superceded by \ref arm_rfft_fast_f32 and will
  82:Source\TransformFunctions/arm_rfft_f32.c ****  * in the future.
  83:Source\TransformFunctions/arm_rfft_f32.c ****  * @param[in]  *S    points to an instance of the floating-point RFFT/RIFFT structure.
  84:Source\TransformFunctions/arm_rfft_f32.c ****  * @param[in]  *pSrc points to the input buffer.
  85:Source\TransformFunctions/arm_rfft_f32.c ****  * @param[out] *pDst points to the output buffer.
  86:Source\TransformFunctions/arm_rfft_f32.c ****  * @return none.
  87:Source\TransformFunctions/arm_rfft_f32.c ****  */
  88:Source\TransformFunctions/arm_rfft_f32.c **** 
  89:Source\TransformFunctions/arm_rfft_f32.c **** void arm_rfft_f32(
ARM GAS  C:\Users\fneves\AppData\Local\Temp\ccOwtlFY.s 			page 3


  90:Source\TransformFunctions/arm_rfft_f32.c ****   const arm_rfft_instance_f32 * S,
  91:Source\TransformFunctions/arm_rfft_f32.c ****   float32_t * pSrc,
  92:Source\TransformFunctions/arm_rfft_f32.c ****   float32_t * pDst)
  93:Source\TransformFunctions/arm_rfft_f32.c **** {
  26              		.loc 1 93 0
  27              		.cfi_startproc
  28 0000 F0B5     		push	{r4, r5, r6, r7, lr}
  29              		.cfi_def_cfa_offset 20
  30              		.cfi_offset 4, -20
  31              		.cfi_offset 5, -16
  32              		.cfi_offset 6, -12
  33              		.cfi_offset 7, -8
  34              		.cfi_offset 14, -4
  35 0002 89B0     		sub	sp, sp, #36
  36              		.cfi_def_cfa_offset 56
  37 0004 02AF     		add	r7, sp, #8
  38              		.cfi_def_cfa 7, 48
  39 0006 F860     		str	r0, [r7, #12]
  40 0008 B960     		str	r1, [r7, #8]
  41 000a 7A60     		str	r2, [r7, #4]
  94:Source\TransformFunctions/arm_rfft_f32.c ****   const arm_cfft_radix4_instance_f32 *S_CFFT = S->pCfft;
  42              		.loc 1 94 0
  43 000c FB68     		ldr	r3, [r7, #12]
  44 000e 5B69     		ldr	r3, [r3, #20]
  45 0010 7B61     		str	r3, [r7, #20]
  95:Source\TransformFunctions/arm_rfft_f32.c **** 
  96:Source\TransformFunctions/arm_rfft_f32.c **** 
  97:Source\TransformFunctions/arm_rfft_f32.c ****   /* Calculation of Real IFFT of input */
  98:Source\TransformFunctions/arm_rfft_f32.c ****   if (S->ifftFlagR == 1u)
  46              		.loc 1 98 0
  47 0012 FB68     		ldr	r3, [r7, #12]
  48 0014 9B79     		ldrb	r3, [r3, #6]
  49 0016 012B     		cmp	r3, #1
  50 0018 2DD1     		bne	.L2
  99:Source\TransformFunctions/arm_rfft_f32.c ****   {
 100:Source\TransformFunctions/arm_rfft_f32.c ****     /*  Real IFFT core process */
 101:Source\TransformFunctions/arm_rfft_f32.c ****     arm_split_rifft_f32(pSrc, S->fftLenBy2, S->pTwiddleAReal,
  51              		.loc 1 101 0
  52 001a FB68     		ldr	r3, [r7, #12]
  53 001c 9B88     		ldrh	r3, [r3, #4]
  54 001e 1E1C     		mov	r6, r3
  55 0020 FB68     		ldr	r3, [r7, #12]
  56 0022 DD68     		ldr	r5, [r3, #12]
  57 0024 FB68     		ldr	r3, [r7, #12]
  58 0026 1C69     		ldr	r4, [r3, #16]
  59 0028 FB68     		ldr	r3, [r7, #12]
  60 002a 9B68     		ldr	r3, [r3, #8]
  61 002c B968     		ldr	r1, [r7, #8]
  62 002e 7A68     		ldr	r2, [r7, #4]
  63 0030 0092     		str	r2, [sp]
  64 0032 0193     		str	r3, [sp, #4]
  65 0034 081C     		mov	r0, r1
  66 0036 311C     		mov	r1, r6
  67 0038 2A1C     		mov	r2, r5
  68 003a 231C     		mov	r3, r4
  69 003c FFF7FEFF 		bl	arm_split_rifft_f32
 102:Source\TransformFunctions/arm_rfft_f32.c ****                         S->pTwiddleBReal, pDst, S->twidCoefRModifier);
ARM GAS  C:\Users\fneves\AppData\Local\Temp\ccOwtlFY.s 			page 4


 103:Source\TransformFunctions/arm_rfft_f32.c **** 
 104:Source\TransformFunctions/arm_rfft_f32.c **** 
 105:Source\TransformFunctions/arm_rfft_f32.c ****     /* Complex radix-4 IFFT process */
 106:Source\TransformFunctions/arm_rfft_f32.c ****     arm_radix4_butterfly_inverse_f32(pDst, S_CFFT->fftLen,
  70              		.loc 1 106 0
  71 0040 7B69     		ldr	r3, [r7, #20]
  72 0042 1988     		ldrh	r1, [r3]
  73 0044 7B69     		ldr	r3, [r7, #20]
  74 0046 5A68     		ldr	r2, [r3, #4]
  75 0048 7B69     		ldr	r3, [r7, #20]
  76 004a 9C89     		ldrh	r4, [r3, #12]
  77 004c 7B69     		ldr	r3, [r7, #20]
  78 004e 1B69     		ldr	r3, [r3, #16]
  79 0050 7868     		ldr	r0, [r7, #4]
  80 0052 0093     		str	r3, [sp]
  81 0054 231C     		mov	r3, r4
  82 0056 FFF7FEFF 		bl	arm_radix4_butterfly_inverse_f32
 107:Source\TransformFunctions/arm_rfft_f32.c ****                                      S_CFFT->pTwiddle,
 108:Source\TransformFunctions/arm_rfft_f32.c ****                                      S_CFFT->twidCoefModifier,
 109:Source\TransformFunctions/arm_rfft_f32.c ****                                      S_CFFT->onebyfftLen);
 110:Source\TransformFunctions/arm_rfft_f32.c **** 
 111:Source\TransformFunctions/arm_rfft_f32.c ****     /* Bit reversal process */
 112:Source\TransformFunctions/arm_rfft_f32.c ****     if (S->bitReverseFlagR == 1u)
  83              		.loc 1 112 0
  84 005a FB68     		ldr	r3, [r7, #12]
  85 005c DB79     		ldrb	r3, [r3, #7]
  86 005e 012B     		cmp	r3, #1
  87 0060 32D1     		bne	.L1
 113:Source\TransformFunctions/arm_rfft_f32.c ****     {
 114:Source\TransformFunctions/arm_rfft_f32.c ****       arm_bitreversal_f32(pDst, S_CFFT->fftLen,
  88              		.loc 1 114 0
  89 0062 7B69     		ldr	r3, [r7, #20]
  90 0064 1988     		ldrh	r1, [r3]
  91 0066 7B69     		ldr	r3, [r7, #20]
  92 0068 DA89     		ldrh	r2, [r3, #14]
  93 006a 7B69     		ldr	r3, [r7, #20]
  94 006c 9B68     		ldr	r3, [r3, #8]
  95 006e 7868     		ldr	r0, [r7, #4]
  96 0070 FFF7FEFF 		bl	arm_bitreversal_f32
  97 0074 28E0     		b	.L1
  98              	.L2:
 115:Source\TransformFunctions/arm_rfft_f32.c ****                           S_CFFT->bitRevFactor, S_CFFT->pBitRevTable);
 116:Source\TransformFunctions/arm_rfft_f32.c ****     }
 117:Source\TransformFunctions/arm_rfft_f32.c ****   }
 118:Source\TransformFunctions/arm_rfft_f32.c ****   else
 119:Source\TransformFunctions/arm_rfft_f32.c ****   {
 120:Source\TransformFunctions/arm_rfft_f32.c **** 
 121:Source\TransformFunctions/arm_rfft_f32.c ****     /* Calculation of RFFT of input */
 122:Source\TransformFunctions/arm_rfft_f32.c **** 
 123:Source\TransformFunctions/arm_rfft_f32.c ****     /* Complex radix-4 FFT process */
 124:Source\TransformFunctions/arm_rfft_f32.c ****     arm_radix4_butterfly_f32(pSrc, S_CFFT->fftLen,
  99              		.loc 1 124 0
 100 0076 7B69     		ldr	r3, [r7, #20]
 101 0078 1988     		ldrh	r1, [r3]
 102 007a 7B69     		ldr	r3, [r7, #20]
 103 007c 5A68     		ldr	r2, [r3, #4]
 104 007e 7B69     		ldr	r3, [r7, #20]
ARM GAS  C:\Users\fneves\AppData\Local\Temp\ccOwtlFY.s 			page 5


 105 0080 9B89     		ldrh	r3, [r3, #12]
 106 0082 B868     		ldr	r0, [r7, #8]
 107 0084 FFF7FEFF 		bl	arm_radix4_butterfly_f32
 125:Source\TransformFunctions/arm_rfft_f32.c ****                              S_CFFT->pTwiddle, S_CFFT->twidCoefModifier);
 126:Source\TransformFunctions/arm_rfft_f32.c **** 
 127:Source\TransformFunctions/arm_rfft_f32.c ****     /* Bit reversal process */
 128:Source\TransformFunctions/arm_rfft_f32.c ****     if (S->bitReverseFlagR == 1u)
 108              		.loc 1 128 0
 109 0088 FB68     		ldr	r3, [r7, #12]
 110 008a DB79     		ldrb	r3, [r3, #7]
 111 008c 012B     		cmp	r3, #1
 112 008e 08D1     		bne	.L5
 129:Source\TransformFunctions/arm_rfft_f32.c ****     {
 130:Source\TransformFunctions/arm_rfft_f32.c ****       arm_bitreversal_f32(pSrc, S_CFFT->fftLen,
 113              		.loc 1 130 0
 114 0090 7B69     		ldr	r3, [r7, #20]
 115 0092 1988     		ldrh	r1, [r3]
 116 0094 7B69     		ldr	r3, [r7, #20]
 117 0096 DA89     		ldrh	r2, [r3, #14]
 118 0098 7B69     		ldr	r3, [r7, #20]
 119 009a 9B68     		ldr	r3, [r3, #8]
 120 009c B868     		ldr	r0, [r7, #8]
 121 009e FFF7FEFF 		bl	arm_bitreversal_f32
 122              	.L5:
 131:Source\TransformFunctions/arm_rfft_f32.c ****                           S_CFFT->bitRevFactor, S_CFFT->pBitRevTable);
 132:Source\TransformFunctions/arm_rfft_f32.c ****     }
 133:Source\TransformFunctions/arm_rfft_f32.c **** 
 134:Source\TransformFunctions/arm_rfft_f32.c **** 
 135:Source\TransformFunctions/arm_rfft_f32.c ****     /*  Real FFT core process */
 136:Source\TransformFunctions/arm_rfft_f32.c ****     arm_split_rfft_f32(pSrc, S->fftLenBy2, S->pTwiddleAReal,
 123              		.loc 1 136 0
 124 00a2 FB68     		ldr	r3, [r7, #12]
 125 00a4 9B88     		ldrh	r3, [r3, #4]
 126 00a6 1E1C     		mov	r6, r3
 127 00a8 FB68     		ldr	r3, [r7, #12]
 128 00aa DD68     		ldr	r5, [r3, #12]
 129 00ac FB68     		ldr	r3, [r7, #12]
 130 00ae 1C69     		ldr	r4, [r3, #16]
 131 00b0 FB68     		ldr	r3, [r7, #12]
 132 00b2 9B68     		ldr	r3, [r3, #8]
 133 00b4 B968     		ldr	r1, [r7, #8]
 134 00b6 7A68     		ldr	r2, [r7, #4]
 135 00b8 0092     		str	r2, [sp]
 136 00ba 0193     		str	r3, [sp, #4]
 137 00bc 081C     		mov	r0, r1
 138 00be 311C     		mov	r1, r6
 139 00c0 2A1C     		mov	r2, r5
 140 00c2 231C     		mov	r3, r4
 141 00c4 FFF7FEFF 		bl	arm_split_rfft_f32
 142              	.L1:
 137:Source\TransformFunctions/arm_rfft_f32.c ****                        S->pTwiddleBReal, pDst, S->twidCoefRModifier);
 138:Source\TransformFunctions/arm_rfft_f32.c ****   }
 139:Source\TransformFunctions/arm_rfft_f32.c **** 
 140:Source\TransformFunctions/arm_rfft_f32.c **** }
 143              		.loc 1 140 0
 144 00c8 BD46     		mov	sp, r7
 145 00ca 07B0     		add	sp, sp, #28
ARM GAS  C:\Users\fneves\AppData\Local\Temp\ccOwtlFY.s 			page 6


 146              		@ sp needed
 147 00cc F0BD     		pop	{r4, r5, r6, r7, pc}
 148              		.cfi_endproc
 149              	.LFE82:
 150              		.size	arm_rfft_f32, .-arm_rfft_f32
 151              		.global	__aeabi_fmul
 152              		.global	__aeabi_fadd
 153              		.global	__aeabi_fsub
 154 00ce C046     		.section	.text.arm_split_rfft_f32,"ax",%progbits
 155              		.align	2
 156              		.global	arm_split_rfft_f32
 157              		.code	16
 158              		.thumb_func
 159              		.type	arm_split_rfft_f32, %function
 160              	arm_split_rfft_f32:
 161              	.LFB83:
 141:Source\TransformFunctions/arm_rfft_f32.c **** 
 142:Source\TransformFunctions/arm_rfft_f32.c **** /**
 143:Source\TransformFunctions/arm_rfft_f32.c ****    * @} end of RealFFT group
 144:Source\TransformFunctions/arm_rfft_f32.c ****    */
 145:Source\TransformFunctions/arm_rfft_f32.c **** 
 146:Source\TransformFunctions/arm_rfft_f32.c **** /**
 147:Source\TransformFunctions/arm_rfft_f32.c ****  * @brief  Core Real FFT process
 148:Source\TransformFunctions/arm_rfft_f32.c ****  * @param[in]   *pSrc 				points to the input buffer.
 149:Source\TransformFunctions/arm_rfft_f32.c ****  * @param[in]   fftLen  			length of FFT.
 150:Source\TransformFunctions/arm_rfft_f32.c ****  * @param[in]   *pATable 			points to the twiddle Coef A buffer.
 151:Source\TransformFunctions/arm_rfft_f32.c ****  * @param[in]   *pBTable 			points to the twiddle Coef B buffer.
 152:Source\TransformFunctions/arm_rfft_f32.c ****  * @param[out]  *pDst 				points to the output buffer.
 153:Source\TransformFunctions/arm_rfft_f32.c ****  * @param[in]   modifier 	        twiddle coefficient modifier that supports different size FFTs wi
 154:Source\TransformFunctions/arm_rfft_f32.c ****  * @return none.
 155:Source\TransformFunctions/arm_rfft_f32.c ****  */
 156:Source\TransformFunctions/arm_rfft_f32.c **** 
 157:Source\TransformFunctions/arm_rfft_f32.c **** void arm_split_rfft_f32(
 158:Source\TransformFunctions/arm_rfft_f32.c ****   float32_t * pSrc,
 159:Source\TransformFunctions/arm_rfft_f32.c ****   uint32_t fftLen,
 160:Source\TransformFunctions/arm_rfft_f32.c ****   float32_t * pATable,
 161:Source\TransformFunctions/arm_rfft_f32.c ****   float32_t * pBTable,
 162:Source\TransformFunctions/arm_rfft_f32.c ****   float32_t * pDst,
 163:Source\TransformFunctions/arm_rfft_f32.c ****   uint32_t modifier)
 164:Source\TransformFunctions/arm_rfft_f32.c **** {
 162              		.loc 1 164 0
 163              		.cfi_startproc
 164 0000 90B5     		push	{r4, r7, lr}
 165              		.cfi_def_cfa_offset 12
 166              		.cfi_offset 4, -12
 167              		.cfi_offset 7, -8
 168              		.cfi_offset 14, -4
 169 0002 91B0     		sub	sp, sp, #68
 170              		.cfi_def_cfa_offset 80
 171 0004 00AF     		add	r7, sp, #0
 172              		.cfi_def_cfa_register 7
 173 0006 F860     		str	r0, [r7, #12]
 174 0008 B960     		str	r1, [r7, #8]
 175 000a 7A60     		str	r2, [r7, #4]
 176 000c 3B60     		str	r3, [r7]
 165:Source\TransformFunctions/arm_rfft_f32.c ****   uint32_t i;                                    /* Loop Counter */
 166:Source\TransformFunctions/arm_rfft_f32.c ****   float32_t outR, outI;                          /* Temporary variables for output */
ARM GAS  C:\Users\fneves\AppData\Local\Temp\ccOwtlFY.s 			page 7


 167:Source\TransformFunctions/arm_rfft_f32.c ****   float32_t *pCoefA, *pCoefB;                    /* Temporary pointers for twiddle factors */
 168:Source\TransformFunctions/arm_rfft_f32.c ****   float32_t CoefA1, CoefA2, CoefB1;              /* Temporary variables for twiddle coefficients */
 169:Source\TransformFunctions/arm_rfft_f32.c ****   float32_t *pDst1 = &pDst[2], *pDst2 = &pDst[(4u * fftLen) - 1u];      /* temp pointers for output
 177              		.loc 1 169 0
 178 000e 3B6D     		ldr	r3, [r7, #80]
 179 0010 0833     		add	r3, r3, #8
 180 0012 3B63     		str	r3, [r7, #48]
 181 0014 BB68     		ldr	r3, [r7, #8]
 182 0016 1B01     		lsl	r3, r3, #4
 183 0018 043B     		sub	r3, r3, #4
 184 001a 3A6D     		ldr	r2, [r7, #80]
 185 001c D318     		add	r3, r2, r3
 186 001e FB62     		str	r3, [r7, #44]
 170:Source\TransformFunctions/arm_rfft_f32.c ****   float32_t *pSrc1 = &pSrc[2], *pSrc2 = &pSrc[(2u * fftLen) - 1u];      /* temp pointers for input 
 187              		.loc 1 170 0
 188 0020 FB68     		ldr	r3, [r7, #12]
 189 0022 0833     		add	r3, r3, #8
 190 0024 BB62     		str	r3, [r7, #40]
 191 0026 BB68     		ldr	r3, [r7, #8]
 192 0028 DB00     		lsl	r3, r3, #3
 193 002a 043B     		sub	r3, r3, #4
 194 002c FA68     		ldr	r2, [r7, #12]
 195 002e D318     		add	r3, r2, r3
 196 0030 7B62     		str	r3, [r7, #36]
 171:Source\TransformFunctions/arm_rfft_f32.c **** 
 172:Source\TransformFunctions/arm_rfft_f32.c ****   /* Init coefficient pointers */
 173:Source\TransformFunctions/arm_rfft_f32.c ****   pCoefA = &pATable[modifier * 2u];
 197              		.loc 1 173 0
 198 0032 7B6D     		ldr	r3, [r7, #84]
 199 0034 DB00     		lsl	r3, r3, #3
 200 0036 7A68     		ldr	r2, [r7, #4]
 201 0038 D318     		add	r3, r2, r3
 202 003a BB63     		str	r3, [r7, #56]
 174:Source\TransformFunctions/arm_rfft_f32.c ****   pCoefB = &pBTable[modifier * 2u];
 203              		.loc 1 174 0
 204 003c 7B6D     		ldr	r3, [r7, #84]
 205 003e DB00     		lsl	r3, r3, #3
 206 0040 3A68     		ldr	r2, [r7]
 207 0042 D318     		add	r3, r2, r3
 208 0044 7B63     		str	r3, [r7, #52]
 175:Source\TransformFunctions/arm_rfft_f32.c **** 
 176:Source\TransformFunctions/arm_rfft_f32.c ****   i = fftLen - 1u;
 209              		.loc 1 176 0
 210 0046 BB68     		ldr	r3, [r7, #8]
 211 0048 013B     		sub	r3, r3, #1
 212 004a FB63     		str	r3, [r7, #60]
 177:Source\TransformFunctions/arm_rfft_f32.c **** 
 178:Source\TransformFunctions/arm_rfft_f32.c ****   while (i > 0u)
 213              		.loc 1 178 0
 214 004c 8FE0     		b	.L7
 215              	.L8:
 179:Source\TransformFunctions/arm_rfft_f32.c ****   {
 180:Source\TransformFunctions/arm_rfft_f32.c ****     /*
 181:Source\TransformFunctions/arm_rfft_f32.c ****        outR = (pSrc[2 * i] * pATable[2 * i] - pSrc[2 * i + 1] * pATable[2 * i + 1]
 182:Source\TransformFunctions/arm_rfft_f32.c ****        + pSrc[2 * n - 2 * i] * pBTable[2 * i] +
 183:Source\TransformFunctions/arm_rfft_f32.c ****        pSrc[2 * n - 2 * i + 1] * pBTable[2 * i + 1]);
 184:Source\TransformFunctions/arm_rfft_f32.c ****      */
ARM GAS  C:\Users\fneves\AppData\Local\Temp\ccOwtlFY.s 			page 8


 185:Source\TransformFunctions/arm_rfft_f32.c **** 
 186:Source\TransformFunctions/arm_rfft_f32.c ****     /* outI = (pIn[2 * i + 1] * pATable[2 * i] + pIn[2 * i] * pATable[2 * i + 1] +
 187:Source\TransformFunctions/arm_rfft_f32.c ****        pIn[2 * n - 2 * i] * pBTable[2 * i + 1] -
 188:Source\TransformFunctions/arm_rfft_f32.c ****        pIn[2 * n - 2 * i + 1] * pBTable[2 * i]); */
 189:Source\TransformFunctions/arm_rfft_f32.c **** 
 190:Source\TransformFunctions/arm_rfft_f32.c ****     /* read pATable[2 * i] */
 191:Source\TransformFunctions/arm_rfft_f32.c ****     CoefA1 = *pCoefA++;
 216              		.loc 1 191 0
 217 004e BB6B     		ldr	r3, [r7, #56]
 218 0050 1A1D     		add	r2, r3, #4
 219 0052 BA63     		str	r2, [r7, #56]
 220 0054 1B68     		ldr	r3, [r3]
 221 0056 3B62     		str	r3, [r7, #32]
 192:Source\TransformFunctions/arm_rfft_f32.c ****     /* pATable[2 * i + 1] */
 193:Source\TransformFunctions/arm_rfft_f32.c ****     CoefA2 = *pCoefA;
 222              		.loc 1 193 0
 223 0058 BB6B     		ldr	r3, [r7, #56]
 224 005a 1B68     		ldr	r3, [r3]
 225 005c FB61     		str	r3, [r7, #28]
 194:Source\TransformFunctions/arm_rfft_f32.c **** 
 195:Source\TransformFunctions/arm_rfft_f32.c ****     /* pSrc[2 * i] * pATable[2 * i] */
 196:Source\TransformFunctions/arm_rfft_f32.c ****     outR = *pSrc1 * CoefA1;
 226              		.loc 1 196 0
 227 005e BB6A     		ldr	r3, [r7, #40]
 228 0060 1B68     		ldr	r3, [r3]
 229 0062 181C     		add	r0, r3, #0
 230 0064 396A     		ldr	r1, [r7, #32]
 231 0066 FFF7FEFF 		bl	__aeabi_fmul
 232 006a 031C     		add	r3, r0, #0
 233 006c BB61     		str	r3, [r7, #24]
 197:Source\TransformFunctions/arm_rfft_f32.c ****     /* pSrc[2 * i] * CoefA2 */
 198:Source\TransformFunctions/arm_rfft_f32.c ****     outI = *pSrc1++ * CoefA2;
 234              		.loc 1 198 0
 235 006e BB6A     		ldr	r3, [r7, #40]
 236 0070 1A1D     		add	r2, r3, #4
 237 0072 BA62     		str	r2, [r7, #40]
 238 0074 1B68     		ldr	r3, [r3]
 239 0076 181C     		add	r0, r3, #0
 240 0078 F969     		ldr	r1, [r7, #28]
 241 007a FFF7FEFF 		bl	__aeabi_fmul
 242 007e 031C     		add	r3, r0, #0
 243 0080 7B61     		str	r3, [r7, #20]
 199:Source\TransformFunctions/arm_rfft_f32.c **** 
 200:Source\TransformFunctions/arm_rfft_f32.c ****     /* (pSrc[2 * i + 1] + pSrc[2 * fftLen - 2 * i + 1]) * CoefA2 */
 201:Source\TransformFunctions/arm_rfft_f32.c ****     outR -= (*pSrc1 + *pSrc2) * CoefA2;
 244              		.loc 1 201 0
 245 0082 BB6A     		ldr	r3, [r7, #40]
 246 0084 1A68     		ldr	r2, [r3]
 247 0086 7B6A     		ldr	r3, [r7, #36]
 248 0088 1B68     		ldr	r3, [r3]
 249 008a 101C     		add	r0, r2, #0
 250 008c 191C     		add	r1, r3, #0
 251 008e FFF7FEFF 		bl	__aeabi_fadd
 252 0092 031C     		add	r3, r0, #0
 253 0094 181C     		add	r0, r3, #0
 254 0096 F969     		ldr	r1, [r7, #28]
 255 0098 FFF7FEFF 		bl	__aeabi_fmul
ARM GAS  C:\Users\fneves\AppData\Local\Temp\ccOwtlFY.s 			page 9


 256 009c 031C     		add	r3, r0, #0
 257 009e B869     		ldr	r0, [r7, #24]
 258 00a0 191C     		add	r1, r3, #0
 259 00a2 FFF7FEFF 		bl	__aeabi_fsub
 260 00a6 031C     		add	r3, r0, #0
 261 00a8 BB61     		str	r3, [r7, #24]
 202:Source\TransformFunctions/arm_rfft_f32.c ****     /* pSrc[2 * i + 1] * CoefA1 */
 203:Source\TransformFunctions/arm_rfft_f32.c ****     outI += *pSrc1++ * CoefA1;
 262              		.loc 1 203 0
 263 00aa BB6A     		ldr	r3, [r7, #40]
 264 00ac 1A1D     		add	r2, r3, #4
 265 00ae BA62     		str	r2, [r7, #40]
 266 00b0 1B68     		ldr	r3, [r3]
 267 00b2 181C     		add	r0, r3, #0
 268 00b4 396A     		ldr	r1, [r7, #32]
 269 00b6 FFF7FEFF 		bl	__aeabi_fmul
 270 00ba 031C     		add	r3, r0, #0
 271 00bc 7869     		ldr	r0, [r7, #20]
 272 00be 191C     		add	r1, r3, #0
 273 00c0 FFF7FEFF 		bl	__aeabi_fadd
 274 00c4 031C     		add	r3, r0, #0
 275 00c6 7B61     		str	r3, [r7, #20]
 204:Source\TransformFunctions/arm_rfft_f32.c **** 
 205:Source\TransformFunctions/arm_rfft_f32.c ****     CoefB1 = *pCoefB;
 276              		.loc 1 205 0
 277 00c8 7B6B     		ldr	r3, [r7, #52]
 278 00ca 1B68     		ldr	r3, [r3]
 279 00cc 3B61     		str	r3, [r7, #16]
 206:Source\TransformFunctions/arm_rfft_f32.c **** 
 207:Source\TransformFunctions/arm_rfft_f32.c ****     /* pSrc[2 * fftLen - 2 * i + 1] * CoefB1 */
 208:Source\TransformFunctions/arm_rfft_f32.c ****     outI -= *pSrc2-- * CoefB1;
 280              		.loc 1 208 0
 281 00ce 7B6A     		ldr	r3, [r7, #36]
 282 00d0 1A1F     		sub	r2, r3, #4
 283 00d2 7A62     		str	r2, [r7, #36]
 284 00d4 1B68     		ldr	r3, [r3]
 285 00d6 181C     		add	r0, r3, #0
 286 00d8 3969     		ldr	r1, [r7, #16]
 287 00da FFF7FEFF 		bl	__aeabi_fmul
 288 00de 031C     		add	r3, r0, #0
 289 00e0 7869     		ldr	r0, [r7, #20]
 290 00e2 191C     		add	r1, r3, #0
 291 00e4 FFF7FEFF 		bl	__aeabi_fsub
 292 00e8 031C     		add	r3, r0, #0
 293 00ea 7B61     		str	r3, [r7, #20]
 209:Source\TransformFunctions/arm_rfft_f32.c ****     /* pSrc[2 * fftLen - 2 * i] * CoefA2 */
 210:Source\TransformFunctions/arm_rfft_f32.c ****     outI -= *pSrc2 * CoefA2;
 294              		.loc 1 210 0
 295 00ec 7B6A     		ldr	r3, [r7, #36]
 296 00ee 1B68     		ldr	r3, [r3]
 297 00f0 181C     		add	r0, r3, #0
 298 00f2 F969     		ldr	r1, [r7, #28]
 299 00f4 FFF7FEFF 		bl	__aeabi_fmul
 300 00f8 031C     		add	r3, r0, #0
 301 00fa 7869     		ldr	r0, [r7, #20]
 302 00fc 191C     		add	r1, r3, #0
 303 00fe FFF7FEFF 		bl	__aeabi_fsub
ARM GAS  C:\Users\fneves\AppData\Local\Temp\ccOwtlFY.s 			page 10


 304 0102 031C     		add	r3, r0, #0
 305 0104 7B61     		str	r3, [r7, #20]
 211:Source\TransformFunctions/arm_rfft_f32.c **** 
 212:Source\TransformFunctions/arm_rfft_f32.c ****     /* pSrc[2 * fftLen - 2 * i] * CoefB1 */
 213:Source\TransformFunctions/arm_rfft_f32.c ****     outR += *pSrc2-- * CoefB1;
 306              		.loc 1 213 0
 307 0106 7B6A     		ldr	r3, [r7, #36]
 308 0108 1A1F     		sub	r2, r3, #4
 309 010a 7A62     		str	r2, [r7, #36]
 310 010c 1B68     		ldr	r3, [r3]
 311 010e 181C     		add	r0, r3, #0
 312 0110 3969     		ldr	r1, [r7, #16]
 313 0112 FFF7FEFF 		bl	__aeabi_fmul
 314 0116 031C     		add	r3, r0, #0
 315 0118 B869     		ldr	r0, [r7, #24]
 316 011a 191C     		add	r1, r3, #0
 317 011c FFF7FEFF 		bl	__aeabi_fadd
 318 0120 031C     		add	r3, r0, #0
 319 0122 BB61     		str	r3, [r7, #24]
 214:Source\TransformFunctions/arm_rfft_f32.c **** 
 215:Source\TransformFunctions/arm_rfft_f32.c ****     /* write output */
 216:Source\TransformFunctions/arm_rfft_f32.c ****     *pDst1++ = outR;
 320              		.loc 1 216 0
 321 0124 3B6B     		ldr	r3, [r7, #48]
 322 0126 1A1D     		add	r2, r3, #4
 323 0128 3A63     		str	r2, [r7, #48]
 324 012a BA69     		ldr	r2, [r7, #24]
 325 012c 1A60     		str	r2, [r3]
 217:Source\TransformFunctions/arm_rfft_f32.c ****     *pDst1++ = outI;
 326              		.loc 1 217 0
 327 012e 3B6B     		ldr	r3, [r7, #48]
 328 0130 1A1D     		add	r2, r3, #4
 329 0132 3A63     		str	r2, [r7, #48]
 330 0134 7A69     		ldr	r2, [r7, #20]
 331 0136 1A60     		str	r2, [r3]
 218:Source\TransformFunctions/arm_rfft_f32.c **** 
 219:Source\TransformFunctions/arm_rfft_f32.c ****     /* write complex conjugate output */
 220:Source\TransformFunctions/arm_rfft_f32.c ****     *pDst2-- = -outI;
 332              		.loc 1 220 0
 333 0138 FB6A     		ldr	r3, [r7, #44]
 334 013a 1A1F     		sub	r2, r3, #4
 335 013c FA62     		str	r2, [r7, #44]
 336 013e 7A69     		ldr	r2, [r7, #20]
 337 0140 8021     		mov	r1, #128
 338 0142 0906     		lsl	r1, r1, #24
 339 0144 4A40     		eor	r2, r1
 340 0146 1A60     		str	r2, [r3]
 221:Source\TransformFunctions/arm_rfft_f32.c ****     *pDst2-- = outR;
 341              		.loc 1 221 0
 342 0148 FB6A     		ldr	r3, [r7, #44]
 343 014a 1A1F     		sub	r2, r3, #4
 344 014c FA62     		str	r2, [r7, #44]
 345 014e BA69     		ldr	r2, [r7, #24]
 346 0150 1A60     		str	r2, [r3]
 222:Source\TransformFunctions/arm_rfft_f32.c **** 
 223:Source\TransformFunctions/arm_rfft_f32.c ****     /* update coefficient pointer */
 224:Source\TransformFunctions/arm_rfft_f32.c ****     pCoefB = pCoefB + (modifier * 2u);
ARM GAS  C:\Users\fneves\AppData\Local\Temp\ccOwtlFY.s 			page 11


 347              		.loc 1 224 0
 348 0152 7B6D     		ldr	r3, [r7, #84]
 349 0154 DB00     		lsl	r3, r3, #3
 350 0156 7A6B     		ldr	r2, [r7, #52]
 351 0158 D318     		add	r3, r2, r3
 352 015a 7B63     		str	r3, [r7, #52]
 225:Source\TransformFunctions/arm_rfft_f32.c ****     pCoefA = pCoefA + ((modifier * 2u) - 1u);
 353              		.loc 1 225 0
 354 015c 7B6D     		ldr	r3, [r7, #84]
 355 015e DB00     		lsl	r3, r3, #3
 356 0160 043B     		sub	r3, r3, #4
 357 0162 BA6B     		ldr	r2, [r7, #56]
 358 0164 D318     		add	r3, r2, r3
 359 0166 BB63     		str	r3, [r7, #56]
 226:Source\TransformFunctions/arm_rfft_f32.c **** 
 227:Source\TransformFunctions/arm_rfft_f32.c ****     i--;
 360              		.loc 1 227 0
 361 0168 FB6B     		ldr	r3, [r7, #60]
 362 016a 013B     		sub	r3, r3, #1
 363 016c FB63     		str	r3, [r7, #60]
 364              	.L7:
 178:Source\TransformFunctions/arm_rfft_f32.c ****   {
 365              		.loc 1 178 0
 366 016e FB6B     		ldr	r3, [r7, #60]
 367 0170 002B     		cmp	r3, #0
 368 0172 00D0     		beq	.LCB312
 369 0174 6BE7     		b	.L8	@long jump
 370              	.LCB312:
 228:Source\TransformFunctions/arm_rfft_f32.c **** 
 229:Source\TransformFunctions/arm_rfft_f32.c ****   }
 230:Source\TransformFunctions/arm_rfft_f32.c **** 
 231:Source\TransformFunctions/arm_rfft_f32.c ****   pDst[2u * fftLen] = pSrc[0] - pSrc[1];
 371              		.loc 1 231 0
 372 0176 BB68     		ldr	r3, [r7, #8]
 373 0178 DB00     		lsl	r3, r3, #3
 374 017a 3A6D     		ldr	r2, [r7, #80]
 375 017c D418     		add	r4, r2, r3
 376 017e FB68     		ldr	r3, [r7, #12]
 377 0180 1A68     		ldr	r2, [r3]
 378 0182 FB68     		ldr	r3, [r7, #12]
 379 0184 0433     		add	r3, r3, #4
 380 0186 1B68     		ldr	r3, [r3]
 381 0188 101C     		add	r0, r2, #0
 382 018a 191C     		add	r1, r3, #0
 383 018c FFF7FEFF 		bl	__aeabi_fsub
 384 0190 031C     		add	r3, r0, #0
 385 0192 2360     		str	r3, [r4]
 232:Source\TransformFunctions/arm_rfft_f32.c ****   pDst[(2u * fftLen) + 1u] = 0.0f;
 386              		.loc 1 232 0
 387 0194 BB68     		ldr	r3, [r7, #8]
 388 0196 DB00     		lsl	r3, r3, #3
 389 0198 0433     		add	r3, r3, #4
 390 019a 3A6D     		ldr	r2, [r7, #80]
 391 019c D318     		add	r3, r2, r3
 392 019e 0022     		mov	r2, #0
 393 01a0 1A60     		str	r2, [r3]
 233:Source\TransformFunctions/arm_rfft_f32.c **** 
ARM GAS  C:\Users\fneves\AppData\Local\Temp\ccOwtlFY.s 			page 12


 234:Source\TransformFunctions/arm_rfft_f32.c ****   pDst[0] = pSrc[0] + pSrc[1];
 394              		.loc 1 234 0
 395 01a2 FB68     		ldr	r3, [r7, #12]
 396 01a4 1A68     		ldr	r2, [r3]
 397 01a6 FB68     		ldr	r3, [r7, #12]
 398 01a8 0433     		add	r3, r3, #4
 399 01aa 1B68     		ldr	r3, [r3]
 400 01ac 101C     		add	r0, r2, #0
 401 01ae 191C     		add	r1, r3, #0
 402 01b0 FFF7FEFF 		bl	__aeabi_fadd
 403 01b4 031C     		add	r3, r0, #0
 404 01b6 1A1C     		add	r2, r3, #0
 405 01b8 3B6D     		ldr	r3, [r7, #80]
 406 01ba 1A60     		str	r2, [r3]
 235:Source\TransformFunctions/arm_rfft_f32.c ****   pDst[1] = 0.0f;
 407              		.loc 1 235 0
 408 01bc 3B6D     		ldr	r3, [r7, #80]
 409 01be 0433     		add	r3, r3, #4
 410 01c0 0022     		mov	r2, #0
 411 01c2 1A60     		str	r2, [r3]
 236:Source\TransformFunctions/arm_rfft_f32.c **** 
 237:Source\TransformFunctions/arm_rfft_f32.c **** }
 412              		.loc 1 237 0
 413 01c4 BD46     		mov	sp, r7
 414 01c6 11B0     		add	sp, sp, #68
 415              		@ sp needed
 416 01c8 90BD     		pop	{r4, r7, pc}
 417              		.cfi_endproc
 418              	.LFE83:
 419              		.size	arm_split_rfft_f32, .-arm_split_rfft_f32
 420 01ca C046     		.section	.text.arm_split_rifft_f32,"ax",%progbits
 421              		.align	2
 422              		.global	arm_split_rifft_f32
 423              		.code	16
 424              		.thumb_func
 425              		.type	arm_split_rifft_f32, %function
 426              	arm_split_rifft_f32:
 427              	.LFB84:
 238:Source\TransformFunctions/arm_rfft_f32.c **** 
 239:Source\TransformFunctions/arm_rfft_f32.c **** 
 240:Source\TransformFunctions/arm_rfft_f32.c **** /**
 241:Source\TransformFunctions/arm_rfft_f32.c ****  * @brief  Core Real IFFT process
 242:Source\TransformFunctions/arm_rfft_f32.c ****  * @param[in]   *pSrc 				points to the input buffer.
 243:Source\TransformFunctions/arm_rfft_f32.c ****  * @param[in]   fftLen  			length of FFT.
 244:Source\TransformFunctions/arm_rfft_f32.c ****  * @param[in]   *pATable 			points to the twiddle Coef A buffer.
 245:Source\TransformFunctions/arm_rfft_f32.c ****  * @param[in]   *pBTable 			points to the twiddle Coef B buffer.
 246:Source\TransformFunctions/arm_rfft_f32.c ****  * @param[out]  *pDst 				points to the output buffer.
 247:Source\TransformFunctions/arm_rfft_f32.c ****  * @param[in]   modifier 	        twiddle coefficient modifier that supports different size FFTs wi
 248:Source\TransformFunctions/arm_rfft_f32.c ****  * @return none.
 249:Source\TransformFunctions/arm_rfft_f32.c ****  */
 250:Source\TransformFunctions/arm_rfft_f32.c **** 
 251:Source\TransformFunctions/arm_rfft_f32.c **** void arm_split_rifft_f32(
 252:Source\TransformFunctions/arm_rfft_f32.c ****   float32_t * pSrc,
 253:Source\TransformFunctions/arm_rfft_f32.c ****   uint32_t fftLen,
 254:Source\TransformFunctions/arm_rfft_f32.c ****   float32_t * pATable,
 255:Source\TransformFunctions/arm_rfft_f32.c ****   float32_t * pBTable,
 256:Source\TransformFunctions/arm_rfft_f32.c ****   float32_t * pDst,
ARM GAS  C:\Users\fneves\AppData\Local\Temp\ccOwtlFY.s 			page 13


 257:Source\TransformFunctions/arm_rfft_f32.c ****   uint32_t modifier)
 258:Source\TransformFunctions/arm_rfft_f32.c **** {
 428              		.loc 1 258 0
 429              		.cfi_startproc
 430 0000 80B5     		push	{r7, lr}
 431              		.cfi_def_cfa_offset 8
 432              		.cfi_offset 7, -8
 433              		.cfi_offset 14, -4
 434 0002 8EB0     		sub	sp, sp, #56
 435              		.cfi_def_cfa_offset 64
 436 0004 00AF     		add	r7, sp, #0
 437              		.cfi_def_cfa_register 7
 438 0006 F860     		str	r0, [r7, #12]
 439 0008 B960     		str	r1, [r7, #8]
 440 000a 7A60     		str	r2, [r7, #4]
 441 000c 3B60     		str	r3, [r7]
 259:Source\TransformFunctions/arm_rfft_f32.c ****   float32_t outR, outI;                          /* Temporary variables for output */
 260:Source\TransformFunctions/arm_rfft_f32.c ****   float32_t *pCoefA, *pCoefB;                    /* Temporary pointers for twiddle factors */
 261:Source\TransformFunctions/arm_rfft_f32.c ****   float32_t CoefA1, CoefA2, CoefB1;              /* Temporary variables for twiddle coefficients */
 262:Source\TransformFunctions/arm_rfft_f32.c ****   float32_t *pSrc1 = &pSrc[0], *pSrc2 = &pSrc[(2u * fftLen) + 1u];
 442              		.loc 1 262 0
 443 000e FB68     		ldr	r3, [r7, #12]
 444 0010 FB62     		str	r3, [r7, #44]
 445 0012 BB68     		ldr	r3, [r7, #8]
 446 0014 DB00     		lsl	r3, r3, #3
 447 0016 0433     		add	r3, r3, #4
 448 0018 FA68     		ldr	r2, [r7, #12]
 449 001a D318     		add	r3, r2, r3
 450 001c BB62     		str	r3, [r7, #40]
 263:Source\TransformFunctions/arm_rfft_f32.c **** 
 264:Source\TransformFunctions/arm_rfft_f32.c ****   pCoefA = &pATable[0];
 451              		.loc 1 264 0
 452 001e 7B68     		ldr	r3, [r7, #4]
 453 0020 7B63     		str	r3, [r7, #52]
 265:Source\TransformFunctions/arm_rfft_f32.c ****   pCoefB = &pBTable[0];
 454              		.loc 1 265 0
 455 0022 3B68     		ldr	r3, [r7]
 456 0024 3B63     		str	r3, [r7, #48]
 266:Source\TransformFunctions/arm_rfft_f32.c **** 
 267:Source\TransformFunctions/arm_rfft_f32.c ****   while (fftLen > 0u)
 457              		.loc 1 267 0
 458 0026 85E0     		b	.L10
 459              	.L11:
 268:Source\TransformFunctions/arm_rfft_f32.c ****   {
 269:Source\TransformFunctions/arm_rfft_f32.c ****     /*
 270:Source\TransformFunctions/arm_rfft_f32.c ****        outR = (pIn[2 * i] * pATable[2 * i] + pIn[2 * i + 1] * pATable[2 * i + 1] +
 271:Source\TransformFunctions/arm_rfft_f32.c ****        pIn[2 * n - 2 * i] * pBTable[2 * i] -
 272:Source\TransformFunctions/arm_rfft_f32.c ****        pIn[2 * n - 2 * i + 1] * pBTable[2 * i + 1]);
 273:Source\TransformFunctions/arm_rfft_f32.c **** 
 274:Source\TransformFunctions/arm_rfft_f32.c ****        outI = (pIn[2 * i + 1] * pATable[2 * i] - pIn[2 * i] * pATable[2 * i + 1] -
 275:Source\TransformFunctions/arm_rfft_f32.c ****        pIn[2 * n - 2 * i] * pBTable[2 * i + 1] -
 276:Source\TransformFunctions/arm_rfft_f32.c ****        pIn[2 * n - 2 * i + 1] * pBTable[2 * i]);
 277:Source\TransformFunctions/arm_rfft_f32.c **** 
 278:Source\TransformFunctions/arm_rfft_f32.c ****      */
 279:Source\TransformFunctions/arm_rfft_f32.c **** 
 280:Source\TransformFunctions/arm_rfft_f32.c ****     CoefA1 = *pCoefA++;
 460              		.loc 1 280 0
ARM GAS  C:\Users\fneves\AppData\Local\Temp\ccOwtlFY.s 			page 14


 461 0028 7B6B     		ldr	r3, [r7, #52]
 462 002a 1A1D     		add	r2, r3, #4
 463 002c 7A63     		str	r2, [r7, #52]
 464 002e 1B68     		ldr	r3, [r3]
 465 0030 7B62     		str	r3, [r7, #36]
 281:Source\TransformFunctions/arm_rfft_f32.c ****     CoefA2 = *pCoefA;
 466              		.loc 1 281 0
 467 0032 7B6B     		ldr	r3, [r7, #52]
 468 0034 1B68     		ldr	r3, [r3]
 469 0036 3B62     		str	r3, [r7, #32]
 282:Source\TransformFunctions/arm_rfft_f32.c **** 
 283:Source\TransformFunctions/arm_rfft_f32.c ****     /* outR = (pSrc[2 * i] * CoefA1 */
 284:Source\TransformFunctions/arm_rfft_f32.c ****     outR = *pSrc1 * CoefA1;
 470              		.loc 1 284 0
 471 0038 FB6A     		ldr	r3, [r7, #44]
 472 003a 1B68     		ldr	r3, [r3]
 473 003c 181C     		add	r0, r3, #0
 474 003e 796A     		ldr	r1, [r7, #36]
 475 0040 FFF7FEFF 		bl	__aeabi_fmul
 476 0044 031C     		add	r3, r0, #0
 477 0046 FB61     		str	r3, [r7, #28]
 285:Source\TransformFunctions/arm_rfft_f32.c **** 
 286:Source\TransformFunctions/arm_rfft_f32.c ****     /* - pSrc[2 * i] * CoefA2 */
 287:Source\TransformFunctions/arm_rfft_f32.c ****     outI = -(*pSrc1++) * CoefA2;
 478              		.loc 1 287 0
 479 0048 FB6A     		ldr	r3, [r7, #44]
 480 004a 1A1D     		add	r2, r3, #4
 481 004c FA62     		str	r2, [r7, #44]
 482 004e 1B68     		ldr	r3, [r3]
 483 0050 8022     		mov	r2, #128
 484 0052 1206     		lsl	r2, r2, #24
 485 0054 5340     		eor	r3, r2
 486 0056 181C     		add	r0, r3, #0
 487 0058 396A     		ldr	r1, [r7, #32]
 488 005a FFF7FEFF 		bl	__aeabi_fmul
 489 005e 031C     		add	r3, r0, #0
 490 0060 BB61     		str	r3, [r7, #24]
 288:Source\TransformFunctions/arm_rfft_f32.c **** 
 289:Source\TransformFunctions/arm_rfft_f32.c ****     /* (pSrc[2 * i + 1] + pSrc[2 * fftLen - 2 * i + 1]) * CoefA2 */
 290:Source\TransformFunctions/arm_rfft_f32.c ****     outR += (*pSrc1 + *pSrc2) * CoefA2;
 491              		.loc 1 290 0
 492 0062 FB6A     		ldr	r3, [r7, #44]
 493 0064 1A68     		ldr	r2, [r3]
 494 0066 BB6A     		ldr	r3, [r7, #40]
 495 0068 1B68     		ldr	r3, [r3]
 496 006a 101C     		add	r0, r2, #0
 497 006c 191C     		add	r1, r3, #0
 498 006e FFF7FEFF 		bl	__aeabi_fadd
 499 0072 031C     		add	r3, r0, #0
 500 0074 181C     		add	r0, r3, #0
 501 0076 396A     		ldr	r1, [r7, #32]
 502 0078 FFF7FEFF 		bl	__aeabi_fmul
 503 007c 031C     		add	r3, r0, #0
 504 007e F869     		ldr	r0, [r7, #28]
 505 0080 191C     		add	r1, r3, #0
 506 0082 FFF7FEFF 		bl	__aeabi_fadd
 507 0086 031C     		add	r3, r0, #0
ARM GAS  C:\Users\fneves\AppData\Local\Temp\ccOwtlFY.s 			page 15


 508 0088 FB61     		str	r3, [r7, #28]
 291:Source\TransformFunctions/arm_rfft_f32.c **** 
 292:Source\TransformFunctions/arm_rfft_f32.c ****     /* pSrc[2 * i + 1] * CoefA1 */
 293:Source\TransformFunctions/arm_rfft_f32.c ****     outI += (*pSrc1++) * CoefA1;
 509              		.loc 1 293 0
 510 008a FB6A     		ldr	r3, [r7, #44]
 511 008c 1A1D     		add	r2, r3, #4
 512 008e FA62     		str	r2, [r7, #44]
 513 0090 1B68     		ldr	r3, [r3]
 514 0092 181C     		add	r0, r3, #0
 515 0094 796A     		ldr	r1, [r7, #36]
 516 0096 FFF7FEFF 		bl	__aeabi_fmul
 517 009a 031C     		add	r3, r0, #0
 518 009c B869     		ldr	r0, [r7, #24]
 519 009e 191C     		add	r1, r3, #0
 520 00a0 FFF7FEFF 		bl	__aeabi_fadd
 521 00a4 031C     		add	r3, r0, #0
 522 00a6 BB61     		str	r3, [r7, #24]
 294:Source\TransformFunctions/arm_rfft_f32.c **** 
 295:Source\TransformFunctions/arm_rfft_f32.c ****     CoefB1 = *pCoefB;
 523              		.loc 1 295 0
 524 00a8 3B6B     		ldr	r3, [r7, #48]
 525 00aa 1B68     		ldr	r3, [r3]
 526 00ac 7B61     		str	r3, [r7, #20]
 296:Source\TransformFunctions/arm_rfft_f32.c **** 
 297:Source\TransformFunctions/arm_rfft_f32.c ****     /* - pSrc[2 * fftLen - 2 * i + 1] * CoefB1 */
 298:Source\TransformFunctions/arm_rfft_f32.c ****     outI -= *pSrc2-- * CoefB1;
 527              		.loc 1 298 0
 528 00ae BB6A     		ldr	r3, [r7, #40]
 529 00b0 1A1F     		sub	r2, r3, #4
 530 00b2 BA62     		str	r2, [r7, #40]
 531 00b4 1B68     		ldr	r3, [r3]
 532 00b6 181C     		add	r0, r3, #0
 533 00b8 7969     		ldr	r1, [r7, #20]
 534 00ba FFF7FEFF 		bl	__aeabi_fmul
 535 00be 031C     		add	r3, r0, #0
 536 00c0 B869     		ldr	r0, [r7, #24]
 537 00c2 191C     		add	r1, r3, #0
 538 00c4 FFF7FEFF 		bl	__aeabi_fsub
 539 00c8 031C     		add	r3, r0, #0
 540 00ca BB61     		str	r3, [r7, #24]
 299:Source\TransformFunctions/arm_rfft_f32.c **** 
 300:Source\TransformFunctions/arm_rfft_f32.c ****     /* pSrc[2 * fftLen - 2 * i] * CoefB1 */
 301:Source\TransformFunctions/arm_rfft_f32.c ****     outR += *pSrc2 * CoefB1;
 541              		.loc 1 301 0
 542 00cc BB6A     		ldr	r3, [r7, #40]
 543 00ce 1B68     		ldr	r3, [r3]
 544 00d0 181C     		add	r0, r3, #0
 545 00d2 7969     		ldr	r1, [r7, #20]
 546 00d4 FFF7FEFF 		bl	__aeabi_fmul
 547 00d8 031C     		add	r3, r0, #0
 548 00da F869     		ldr	r0, [r7, #28]
 549 00dc 191C     		add	r1, r3, #0
 550 00de FFF7FEFF 		bl	__aeabi_fadd
 551 00e2 031C     		add	r3, r0, #0
 552 00e4 FB61     		str	r3, [r7, #28]
 302:Source\TransformFunctions/arm_rfft_f32.c **** 
ARM GAS  C:\Users\fneves\AppData\Local\Temp\ccOwtlFY.s 			page 16


 303:Source\TransformFunctions/arm_rfft_f32.c ****     /* pSrc[2 * fftLen - 2 * i] * CoefA2 */
 304:Source\TransformFunctions/arm_rfft_f32.c ****     outI += *pSrc2-- * CoefA2;
 553              		.loc 1 304 0
 554 00e6 BB6A     		ldr	r3, [r7, #40]
 555 00e8 1A1F     		sub	r2, r3, #4
 556 00ea BA62     		str	r2, [r7, #40]
 557 00ec 1B68     		ldr	r3, [r3]
 558 00ee 181C     		add	r0, r3, #0
 559 00f0 396A     		ldr	r1, [r7, #32]
 560 00f2 FFF7FEFF 		bl	__aeabi_fmul
 561 00f6 031C     		add	r3, r0, #0
 562 00f8 B869     		ldr	r0, [r7, #24]
 563 00fa 191C     		add	r1, r3, #0
 564 00fc FFF7FEFF 		bl	__aeabi_fadd
 565 0100 031C     		add	r3, r0, #0
 566 0102 BB61     		str	r3, [r7, #24]
 305:Source\TransformFunctions/arm_rfft_f32.c **** 
 306:Source\TransformFunctions/arm_rfft_f32.c ****     /* write output */
 307:Source\TransformFunctions/arm_rfft_f32.c ****     *pDst++ = outR;
 567              		.loc 1 307 0
 568 0104 3B6C     		ldr	r3, [r7, #64]
 569 0106 1A1D     		add	r2, r3, #4
 570 0108 3A64     		str	r2, [r7, #64]
 571 010a FA69     		ldr	r2, [r7, #28]
 572 010c 1A60     		str	r2, [r3]
 308:Source\TransformFunctions/arm_rfft_f32.c ****     *pDst++ = outI;
 573              		.loc 1 308 0
 574 010e 3B6C     		ldr	r3, [r7, #64]
 575 0110 1A1D     		add	r2, r3, #4
 576 0112 3A64     		str	r2, [r7, #64]
 577 0114 BA69     		ldr	r2, [r7, #24]
 578 0116 1A60     		str	r2, [r3]
 309:Source\TransformFunctions/arm_rfft_f32.c **** 
 310:Source\TransformFunctions/arm_rfft_f32.c ****     /* update coefficient pointer */
 311:Source\TransformFunctions/arm_rfft_f32.c ****     pCoefB = pCoefB + (modifier * 2u);
 579              		.loc 1 311 0
 580 0118 7B6C     		ldr	r3, [r7, #68]
 581 011a DB00     		lsl	r3, r3, #3
 582 011c 3A6B     		ldr	r2, [r7, #48]
 583 011e D318     		add	r3, r2, r3
 584 0120 3B63     		str	r3, [r7, #48]
 312:Source\TransformFunctions/arm_rfft_f32.c ****     pCoefA = pCoefA + ((modifier * 2u) - 1u);
 585              		.loc 1 312 0
 586 0122 7B6C     		ldr	r3, [r7, #68]
 587 0124 DB00     		lsl	r3, r3, #3
 588 0126 043B     		sub	r3, r3, #4
 589 0128 7A6B     		ldr	r2, [r7, #52]
 590 012a D318     		add	r3, r2, r3
 591 012c 7B63     		str	r3, [r7, #52]
 313:Source\TransformFunctions/arm_rfft_f32.c **** 
 314:Source\TransformFunctions/arm_rfft_f32.c ****     /* Decrement loop count */
 315:Source\TransformFunctions/arm_rfft_f32.c ****     fftLen--;
 592              		.loc 1 315 0
 593 012e BB68     		ldr	r3, [r7, #8]
 594 0130 013B     		sub	r3, r3, #1
 595 0132 BB60     		str	r3, [r7, #8]
 596              	.L10:
ARM GAS  C:\Users\fneves\AppData\Local\Temp\ccOwtlFY.s 			page 17


 267:Source\TransformFunctions/arm_rfft_f32.c ****   {
 597              		.loc 1 267 0
 598 0134 BB68     		ldr	r3, [r7, #8]
 599 0136 002B     		cmp	r3, #0
 600 0138 00D0     		beq	.LCB517
 601 013a 75E7     		b	.L11	@long jump
 602              	.LCB517:
 316:Source\TransformFunctions/arm_rfft_f32.c ****   }
 317:Source\TransformFunctions/arm_rfft_f32.c **** 
 318:Source\TransformFunctions/arm_rfft_f32.c **** }
 603              		.loc 1 318 0
 604 013c BD46     		mov	sp, r7
 605 013e 0EB0     		add	sp, sp, #56
 606              		@ sp needed
 607 0140 80BD     		pop	{r7, pc}
 608              		.cfi_endproc
 609              	.LFE84:
 610              		.size	arm_split_rifft_f32, .-arm_split_rifft_f32
 611 0142 C046     		.text
 612              	.Letext0:
 613              		.file 2 "c:\\program files (x86)\\cypress\\psoc creator\\4.0\\psoc creator\\import\\gnu\\arm\\4.9.
 614              		.file 3 "c:\\program files (x86)\\cypress\\psoc creator\\4.0\\psoc creator\\import\\gnu\\arm\\4.9.
 615              		.file 4 ".\\Include/arm_math.h"