ARM GAS  C:\Users\fneves\AppData\Local\Temp\ccmlslBb.s 			page 1


   1              		.cpu cortex-m0plus
   2              		.fpu softvfp
   3              		.eabi_attribute 20, 1
   4              		.eabi_attribute 21, 1
   5              		.eabi_attribute 23, 3
   6              		.eabi_attribute 24, 1
   7              		.eabi_attribute 25, 1
   8              		.eabi_attribute 26, 1
   9              		.eabi_attribute 30, 6
  10              		.eabi_attribute 34, 0
  11              		.eabi_attribute 18, 4
  12              		.code	16
  13              		.file	"arm_cmplx_dot_prod_f32.c"
  14              		.text
  15              	.Ltext0:
  16              		.cfi_sections	.debug_frame
  17              		.global	__aeabi_fmul
  18              		.global	__aeabi_fadd
  19              		.global	__aeabi_fsub
  20              		.section	.text.arm_cmplx_dot_prod_f32,"ax",%progbits
  21              		.align	2
  22              		.global	arm_cmplx_dot_prod_f32
  23              		.code	16
  24              		.thumb_func
  25              		.type	arm_cmplx_dot_prod_f32, %function
  26              	arm_cmplx_dot_prod_f32:
  27              	.LFB82:
  28              		.file 1 "Source\\ComplexMathFunctions\\arm_cmplx_dot_prod_f32.c"
   1:Source\ComplexMathFunctions/arm_cmplx_dot_prod_f32.c **** /* ----------------------------------------------------------------------
   2:Source\ComplexMathFunctions/arm_cmplx_dot_prod_f32.c ****  * Project:      CMSIS DSP Library
   3:Source\ComplexMathFunctions/arm_cmplx_dot_prod_f32.c ****  * Title:        arm_cmplx_dot_prod_f32.c
   4:Source\ComplexMathFunctions/arm_cmplx_dot_prod_f32.c ****  * Description:  Floating-point complex dot product
   5:Source\ComplexMathFunctions/arm_cmplx_dot_prod_f32.c ****  *
   6:Source\ComplexMathFunctions/arm_cmplx_dot_prod_f32.c ****  * $Date:        27. January 2017
   7:Source\ComplexMathFunctions/arm_cmplx_dot_prod_f32.c ****  * $Revision:    V.1.5.1
   8:Source\ComplexMathFunctions/arm_cmplx_dot_prod_f32.c ****  *
   9:Source\ComplexMathFunctions/arm_cmplx_dot_prod_f32.c ****  * Target Processor: Cortex-M cores
  10:Source\ComplexMathFunctions/arm_cmplx_dot_prod_f32.c ****  * -------------------------------------------------------------------- */
  11:Source\ComplexMathFunctions/arm_cmplx_dot_prod_f32.c **** /*
  12:Source\ComplexMathFunctions/arm_cmplx_dot_prod_f32.c ****  * Copyright (C) 2010-2017 ARM Limited or its affiliates. All rights reserved.
  13:Source\ComplexMathFunctions/arm_cmplx_dot_prod_f32.c ****  *
  14:Source\ComplexMathFunctions/arm_cmplx_dot_prod_f32.c ****  * SPDX-License-Identifier: Apache-2.0
  15:Source\ComplexMathFunctions/arm_cmplx_dot_prod_f32.c ****  *
  16:Source\ComplexMathFunctions/arm_cmplx_dot_prod_f32.c ****  * Licensed under the Apache License, Version 2.0 (the License); you may
  17:Source\ComplexMathFunctions/arm_cmplx_dot_prod_f32.c ****  * not use this file except in compliance with the License.
  18:Source\ComplexMathFunctions/arm_cmplx_dot_prod_f32.c ****  * You may obtain a copy of the License at
  19:Source\ComplexMathFunctions/arm_cmplx_dot_prod_f32.c ****  *
  20:Source\ComplexMathFunctions/arm_cmplx_dot_prod_f32.c ****  * www.apache.org/licenses/LICENSE-2.0
  21:Source\ComplexMathFunctions/arm_cmplx_dot_prod_f32.c ****  *
  22:Source\ComplexMathFunctions/arm_cmplx_dot_prod_f32.c ****  * Unless required by applicable law or agreed to in writing, software
  23:Source\ComplexMathFunctions/arm_cmplx_dot_prod_f32.c ****  * distributed under the License is distributed on an AS IS BASIS, WITHOUT
  24:Source\ComplexMathFunctions/arm_cmplx_dot_prod_f32.c ****  * WARRANTIES OR CONDITIONS OF ANY KIND, either express or implied.
  25:Source\ComplexMathFunctions/arm_cmplx_dot_prod_f32.c ****  * See the License for the specific language governing permissions and
  26:Source\ComplexMathFunctions/arm_cmplx_dot_prod_f32.c ****  * limitations under the License.
  27:Source\ComplexMathFunctions/arm_cmplx_dot_prod_f32.c ****  */
  28:Source\ComplexMathFunctions/arm_cmplx_dot_prod_f32.c **** 
  29:Source\ComplexMathFunctions/arm_cmplx_dot_prod_f32.c **** #include "arm_math.h"
ARM GAS  C:\Users\fneves\AppData\Local\Temp\ccmlslBb.s 			page 2


  30:Source\ComplexMathFunctions/arm_cmplx_dot_prod_f32.c **** 
  31:Source\ComplexMathFunctions/arm_cmplx_dot_prod_f32.c **** /**
  32:Source\ComplexMathFunctions/arm_cmplx_dot_prod_f32.c ****  * @ingroup groupCmplxMath
  33:Source\ComplexMathFunctions/arm_cmplx_dot_prod_f32.c ****  */
  34:Source\ComplexMathFunctions/arm_cmplx_dot_prod_f32.c **** 
  35:Source\ComplexMathFunctions/arm_cmplx_dot_prod_f32.c **** /**
  36:Source\ComplexMathFunctions/arm_cmplx_dot_prod_f32.c ****  * @defgroup cmplx_dot_prod Complex Dot Product
  37:Source\ComplexMathFunctions/arm_cmplx_dot_prod_f32.c ****  *
  38:Source\ComplexMathFunctions/arm_cmplx_dot_prod_f32.c ****  * Computes the dot product of two complex vectors.
  39:Source\ComplexMathFunctions/arm_cmplx_dot_prod_f32.c ****  * The vectors are multiplied element-by-element and then summed.
  40:Source\ComplexMathFunctions/arm_cmplx_dot_prod_f32.c ****  *
  41:Source\ComplexMathFunctions/arm_cmplx_dot_prod_f32.c ****  * The <code>pSrcA</code> points to the first complex input vector and
  42:Source\ComplexMathFunctions/arm_cmplx_dot_prod_f32.c ****  * <code>pSrcB</code> points to the second complex input vector.
  43:Source\ComplexMathFunctions/arm_cmplx_dot_prod_f32.c ****  * <code>numSamples</code> specifies the number of complex samples
  44:Source\ComplexMathFunctions/arm_cmplx_dot_prod_f32.c ****  * and the data in each array is stored in an interleaved fashion
  45:Source\ComplexMathFunctions/arm_cmplx_dot_prod_f32.c ****  * (real, imag, real, imag, ...).
  46:Source\ComplexMathFunctions/arm_cmplx_dot_prod_f32.c ****  * Each array has a total of <code>2*numSamples</code> values.
  47:Source\ComplexMathFunctions/arm_cmplx_dot_prod_f32.c ****  *
  48:Source\ComplexMathFunctions/arm_cmplx_dot_prod_f32.c ****  * The underlying algorithm is used:
  49:Source\ComplexMathFunctions/arm_cmplx_dot_prod_f32.c ****  * <pre>
  50:Source\ComplexMathFunctions/arm_cmplx_dot_prod_f32.c ****  * realResult=0;
  51:Source\ComplexMathFunctions/arm_cmplx_dot_prod_f32.c ****  * imagResult=0;
  52:Source\ComplexMathFunctions/arm_cmplx_dot_prod_f32.c ****  * for(n=0; n<numSamples; n++) {
  53:Source\ComplexMathFunctions/arm_cmplx_dot_prod_f32.c ****  *     realResult += pSrcA[(2*n)+0]*pSrcB[(2*n)+0] - pSrcA[(2*n)+1]*pSrcB[(2*n)+1];
  54:Source\ComplexMathFunctions/arm_cmplx_dot_prod_f32.c ****  *     imagResult += pSrcA[(2*n)+0]*pSrcB[(2*n)+1] + pSrcA[(2*n)+1]*pSrcB[(2*n)+0];
  55:Source\ComplexMathFunctions/arm_cmplx_dot_prod_f32.c ****  * }
  56:Source\ComplexMathFunctions/arm_cmplx_dot_prod_f32.c ****  * </pre>
  57:Source\ComplexMathFunctions/arm_cmplx_dot_prod_f32.c ****  *
  58:Source\ComplexMathFunctions/arm_cmplx_dot_prod_f32.c ****  * There are separate functions for floating-point, Q15, and Q31 data types.
  59:Source\ComplexMathFunctions/arm_cmplx_dot_prod_f32.c ****  */
  60:Source\ComplexMathFunctions/arm_cmplx_dot_prod_f32.c **** 
  61:Source\ComplexMathFunctions/arm_cmplx_dot_prod_f32.c **** /**
  62:Source\ComplexMathFunctions/arm_cmplx_dot_prod_f32.c ****  * @addtogroup cmplx_dot_prod
  63:Source\ComplexMathFunctions/arm_cmplx_dot_prod_f32.c ****  * @{
  64:Source\ComplexMathFunctions/arm_cmplx_dot_prod_f32.c ****  */
  65:Source\ComplexMathFunctions/arm_cmplx_dot_prod_f32.c **** 
  66:Source\ComplexMathFunctions/arm_cmplx_dot_prod_f32.c **** /**
  67:Source\ComplexMathFunctions/arm_cmplx_dot_prod_f32.c ****  * @brief  Floating-point complex dot product
  68:Source\ComplexMathFunctions/arm_cmplx_dot_prod_f32.c ****  * @param  *pSrcA points to the first input vector
  69:Source\ComplexMathFunctions/arm_cmplx_dot_prod_f32.c ****  * @param  *pSrcB points to the second input vector
  70:Source\ComplexMathFunctions/arm_cmplx_dot_prod_f32.c ****  * @param  numSamples number of complex samples in each vector
  71:Source\ComplexMathFunctions/arm_cmplx_dot_prod_f32.c ****  * @param  *realResult real part of the result returned here
  72:Source\ComplexMathFunctions/arm_cmplx_dot_prod_f32.c ****  * @param  *imagResult imaginary part of the result returned here
  73:Source\ComplexMathFunctions/arm_cmplx_dot_prod_f32.c ****  * @return none.
  74:Source\ComplexMathFunctions/arm_cmplx_dot_prod_f32.c ****  */
  75:Source\ComplexMathFunctions/arm_cmplx_dot_prod_f32.c **** 
  76:Source\ComplexMathFunctions/arm_cmplx_dot_prod_f32.c **** void arm_cmplx_dot_prod_f32(
  77:Source\ComplexMathFunctions/arm_cmplx_dot_prod_f32.c ****   float32_t * pSrcA,
  78:Source\ComplexMathFunctions/arm_cmplx_dot_prod_f32.c ****   float32_t * pSrcB,
  79:Source\ComplexMathFunctions/arm_cmplx_dot_prod_f32.c ****   uint32_t numSamples,
  80:Source\ComplexMathFunctions/arm_cmplx_dot_prod_f32.c ****   float32_t * realResult,
  81:Source\ComplexMathFunctions/arm_cmplx_dot_prod_f32.c ****   float32_t * imagResult)
  82:Source\ComplexMathFunctions/arm_cmplx_dot_prod_f32.c **** {
  29              		.loc 1 82 0
  30              		.cfi_startproc
  31 0000 80B5     		push	{r7, lr}
  32              		.cfi_def_cfa_offset 8
ARM GAS  C:\Users\fneves\AppData\Local\Temp\ccmlslBb.s 			page 3


  33              		.cfi_offset 7, -8
  34              		.cfi_offset 14, -4
  35 0002 8AB0     		sub	sp, sp, #40
  36              		.cfi_def_cfa_offset 48
  37 0004 00AF     		add	r7, sp, #0
  38              		.cfi_def_cfa_register 7
  39 0006 F860     		str	r0, [r7, #12]
  40 0008 B960     		str	r1, [r7, #8]
  41 000a 7A60     		str	r2, [r7, #4]
  42 000c 3B60     		str	r3, [r7]
  83:Source\ComplexMathFunctions/arm_cmplx_dot_prod_f32.c ****   float32_t real_sum = 0.0f, imag_sum = 0.0f;    /* Temporary result storage */
  43              		.loc 1 83 0
  44 000e 0023     		mov	r3, #0
  45 0010 7B62     		str	r3, [r7, #36]
  46 0012 0023     		mov	r3, #0
  47 0014 3B62     		str	r3, [r7, #32]
  84:Source\ComplexMathFunctions/arm_cmplx_dot_prod_f32.c ****   float32_t a0,b0,c0,d0;
  85:Source\ComplexMathFunctions/arm_cmplx_dot_prod_f32.c **** 
  86:Source\ComplexMathFunctions/arm_cmplx_dot_prod_f32.c **** #if defined (ARM_MATH_DSP)
  87:Source\ComplexMathFunctions/arm_cmplx_dot_prod_f32.c **** 
  88:Source\ComplexMathFunctions/arm_cmplx_dot_prod_f32.c ****   /* Run the below code for Cortex-M4 and Cortex-M3 */
  89:Source\ComplexMathFunctions/arm_cmplx_dot_prod_f32.c ****   uint32_t blkCnt;                               /* loop counter */
  90:Source\ComplexMathFunctions/arm_cmplx_dot_prod_f32.c **** 
  91:Source\ComplexMathFunctions/arm_cmplx_dot_prod_f32.c ****   /*loop Unrolling */
  92:Source\ComplexMathFunctions/arm_cmplx_dot_prod_f32.c ****   blkCnt = numSamples >> 2u;
  93:Source\ComplexMathFunctions/arm_cmplx_dot_prod_f32.c **** 
  94:Source\ComplexMathFunctions/arm_cmplx_dot_prod_f32.c ****   /* First part of the processing with loop unrolling.  Compute 4 outputs at a time.
  95:Source\ComplexMathFunctions/arm_cmplx_dot_prod_f32.c ****    ** a second loop below computes the remaining 1 to 3 samples. */
  96:Source\ComplexMathFunctions/arm_cmplx_dot_prod_f32.c ****   while (blkCnt > 0u)
  97:Source\ComplexMathFunctions/arm_cmplx_dot_prod_f32.c ****   {
  98:Source\ComplexMathFunctions/arm_cmplx_dot_prod_f32.c ****       a0 = *pSrcA++;
  99:Source\ComplexMathFunctions/arm_cmplx_dot_prod_f32.c ****       b0 = *pSrcA++;
 100:Source\ComplexMathFunctions/arm_cmplx_dot_prod_f32.c ****       c0 = *pSrcB++;
 101:Source\ComplexMathFunctions/arm_cmplx_dot_prod_f32.c ****       d0 = *pSrcB++;
 102:Source\ComplexMathFunctions/arm_cmplx_dot_prod_f32.c **** 
 103:Source\ComplexMathFunctions/arm_cmplx_dot_prod_f32.c ****       real_sum += a0 * c0;
 104:Source\ComplexMathFunctions/arm_cmplx_dot_prod_f32.c ****       imag_sum += a0 * d0;
 105:Source\ComplexMathFunctions/arm_cmplx_dot_prod_f32.c ****       real_sum -= b0 * d0;
 106:Source\ComplexMathFunctions/arm_cmplx_dot_prod_f32.c ****       imag_sum += b0 * c0;
 107:Source\ComplexMathFunctions/arm_cmplx_dot_prod_f32.c **** 
 108:Source\ComplexMathFunctions/arm_cmplx_dot_prod_f32.c ****       a0 = *pSrcA++;
 109:Source\ComplexMathFunctions/arm_cmplx_dot_prod_f32.c ****       b0 = *pSrcA++;
 110:Source\ComplexMathFunctions/arm_cmplx_dot_prod_f32.c ****       c0 = *pSrcB++;
 111:Source\ComplexMathFunctions/arm_cmplx_dot_prod_f32.c ****       d0 = *pSrcB++;
 112:Source\ComplexMathFunctions/arm_cmplx_dot_prod_f32.c **** 
 113:Source\ComplexMathFunctions/arm_cmplx_dot_prod_f32.c ****       real_sum += a0 * c0;
 114:Source\ComplexMathFunctions/arm_cmplx_dot_prod_f32.c ****       imag_sum += a0 * d0;
 115:Source\ComplexMathFunctions/arm_cmplx_dot_prod_f32.c ****       real_sum -= b0 * d0;
 116:Source\ComplexMathFunctions/arm_cmplx_dot_prod_f32.c ****       imag_sum += b0 * c0;
 117:Source\ComplexMathFunctions/arm_cmplx_dot_prod_f32.c **** 
 118:Source\ComplexMathFunctions/arm_cmplx_dot_prod_f32.c ****       a0 = *pSrcA++;
 119:Source\ComplexMathFunctions/arm_cmplx_dot_prod_f32.c ****       b0 = *pSrcA++;
 120:Source\ComplexMathFunctions/arm_cmplx_dot_prod_f32.c ****       c0 = *pSrcB++;
 121:Source\ComplexMathFunctions/arm_cmplx_dot_prod_f32.c ****       d0 = *pSrcB++;
 122:Source\ComplexMathFunctions/arm_cmplx_dot_prod_f32.c **** 
 123:Source\ComplexMathFunctions/arm_cmplx_dot_prod_f32.c ****       real_sum += a0 * c0;
 124:Source\ComplexMathFunctions/arm_cmplx_dot_prod_f32.c ****       imag_sum += a0 * d0;
ARM GAS  C:\Users\fneves\AppData\Local\Temp\ccmlslBb.s 			page 4


 125:Source\ComplexMathFunctions/arm_cmplx_dot_prod_f32.c ****       real_sum -= b0 * d0;
 126:Source\ComplexMathFunctions/arm_cmplx_dot_prod_f32.c ****       imag_sum += b0 * c0;
 127:Source\ComplexMathFunctions/arm_cmplx_dot_prod_f32.c **** 
 128:Source\ComplexMathFunctions/arm_cmplx_dot_prod_f32.c ****       a0 = *pSrcA++;
 129:Source\ComplexMathFunctions/arm_cmplx_dot_prod_f32.c ****       b0 = *pSrcA++;
 130:Source\ComplexMathFunctions/arm_cmplx_dot_prod_f32.c ****       c0 = *pSrcB++;
 131:Source\ComplexMathFunctions/arm_cmplx_dot_prod_f32.c ****       d0 = *pSrcB++;
 132:Source\ComplexMathFunctions/arm_cmplx_dot_prod_f32.c **** 
 133:Source\ComplexMathFunctions/arm_cmplx_dot_prod_f32.c ****       real_sum += a0 * c0;
 134:Source\ComplexMathFunctions/arm_cmplx_dot_prod_f32.c ****       imag_sum += a0 * d0;
 135:Source\ComplexMathFunctions/arm_cmplx_dot_prod_f32.c ****       real_sum -= b0 * d0;
 136:Source\ComplexMathFunctions/arm_cmplx_dot_prod_f32.c ****       imag_sum += b0 * c0;
 137:Source\ComplexMathFunctions/arm_cmplx_dot_prod_f32.c **** 
 138:Source\ComplexMathFunctions/arm_cmplx_dot_prod_f32.c ****       /* Decrement the loop counter */
 139:Source\ComplexMathFunctions/arm_cmplx_dot_prod_f32.c ****       blkCnt--;
 140:Source\ComplexMathFunctions/arm_cmplx_dot_prod_f32.c ****   }
 141:Source\ComplexMathFunctions/arm_cmplx_dot_prod_f32.c **** 
 142:Source\ComplexMathFunctions/arm_cmplx_dot_prod_f32.c ****   /* If the numSamples is not a multiple of 4, compute any remaining output samples here.
 143:Source\ComplexMathFunctions/arm_cmplx_dot_prod_f32.c ****    ** No loop unrolling is used. */
 144:Source\ComplexMathFunctions/arm_cmplx_dot_prod_f32.c ****   blkCnt = numSamples & 0x3u;
 145:Source\ComplexMathFunctions/arm_cmplx_dot_prod_f32.c **** 
 146:Source\ComplexMathFunctions/arm_cmplx_dot_prod_f32.c ****   while (blkCnt > 0u)
 147:Source\ComplexMathFunctions/arm_cmplx_dot_prod_f32.c ****   {
 148:Source\ComplexMathFunctions/arm_cmplx_dot_prod_f32.c ****       a0 = *pSrcA++;
 149:Source\ComplexMathFunctions/arm_cmplx_dot_prod_f32.c ****       b0 = *pSrcA++;
 150:Source\ComplexMathFunctions/arm_cmplx_dot_prod_f32.c ****       c0 = *pSrcB++;
 151:Source\ComplexMathFunctions/arm_cmplx_dot_prod_f32.c ****       d0 = *pSrcB++;
 152:Source\ComplexMathFunctions/arm_cmplx_dot_prod_f32.c **** 
 153:Source\ComplexMathFunctions/arm_cmplx_dot_prod_f32.c ****       real_sum += a0 * c0;
 154:Source\ComplexMathFunctions/arm_cmplx_dot_prod_f32.c ****       imag_sum += a0 * d0;
 155:Source\ComplexMathFunctions/arm_cmplx_dot_prod_f32.c ****       real_sum -= b0 * d0;
 156:Source\ComplexMathFunctions/arm_cmplx_dot_prod_f32.c ****       imag_sum += b0 * c0;
 157:Source\ComplexMathFunctions/arm_cmplx_dot_prod_f32.c **** 
 158:Source\ComplexMathFunctions/arm_cmplx_dot_prod_f32.c ****       /* Decrement the loop counter */
 159:Source\ComplexMathFunctions/arm_cmplx_dot_prod_f32.c ****       blkCnt--;
 160:Source\ComplexMathFunctions/arm_cmplx_dot_prod_f32.c ****   }
 161:Source\ComplexMathFunctions/arm_cmplx_dot_prod_f32.c **** 
 162:Source\ComplexMathFunctions/arm_cmplx_dot_prod_f32.c **** #else
 163:Source\ComplexMathFunctions/arm_cmplx_dot_prod_f32.c **** 
 164:Source\ComplexMathFunctions/arm_cmplx_dot_prod_f32.c ****   /* Run the below code for Cortex-M0 */
 165:Source\ComplexMathFunctions/arm_cmplx_dot_prod_f32.c **** 
 166:Source\ComplexMathFunctions/arm_cmplx_dot_prod_f32.c ****   while (numSamples > 0u)
  48              		.loc 1 166 0
  49 0016 42E0     		b	.L2
  50              	.L3:
 167:Source\ComplexMathFunctions/arm_cmplx_dot_prod_f32.c ****   {
 168:Source\ComplexMathFunctions/arm_cmplx_dot_prod_f32.c ****       a0 = *pSrcA++;
  51              		.loc 1 168 0
  52 0018 FB68     		ldr	r3, [r7, #12]
  53 001a 1A1D     		add	r2, r3, #4
  54 001c FA60     		str	r2, [r7, #12]
  55 001e 1B68     		ldr	r3, [r3]
  56 0020 FB61     		str	r3, [r7, #28]
 169:Source\ComplexMathFunctions/arm_cmplx_dot_prod_f32.c ****       b0 = *pSrcA++;
  57              		.loc 1 169 0
  58 0022 FB68     		ldr	r3, [r7, #12]
  59 0024 1A1D     		add	r2, r3, #4
ARM GAS  C:\Users\fneves\AppData\Local\Temp\ccmlslBb.s 			page 5


  60 0026 FA60     		str	r2, [r7, #12]
  61 0028 1B68     		ldr	r3, [r3]
  62 002a BB61     		str	r3, [r7, #24]
 170:Source\ComplexMathFunctions/arm_cmplx_dot_prod_f32.c ****       c0 = *pSrcB++;
  63              		.loc 1 170 0
  64 002c BB68     		ldr	r3, [r7, #8]
  65 002e 1A1D     		add	r2, r3, #4
  66 0030 BA60     		str	r2, [r7, #8]
  67 0032 1B68     		ldr	r3, [r3]
  68 0034 7B61     		str	r3, [r7, #20]
 171:Source\ComplexMathFunctions/arm_cmplx_dot_prod_f32.c ****       d0 = *pSrcB++;
  69              		.loc 1 171 0
  70 0036 BB68     		ldr	r3, [r7, #8]
  71 0038 1A1D     		add	r2, r3, #4
  72 003a BA60     		str	r2, [r7, #8]
  73 003c 1B68     		ldr	r3, [r3]
  74 003e 3B61     		str	r3, [r7, #16]
 172:Source\ComplexMathFunctions/arm_cmplx_dot_prod_f32.c **** 
 173:Source\ComplexMathFunctions/arm_cmplx_dot_prod_f32.c ****       real_sum += a0 * c0;
  75              		.loc 1 173 0
  76 0040 F869     		ldr	r0, [r7, #28]
  77 0042 7969     		ldr	r1, [r7, #20]
  78 0044 FFF7FEFF 		bl	__aeabi_fmul
  79 0048 031C     		add	r3, r0, #0
  80 004a 786A     		ldr	r0, [r7, #36]
  81 004c 191C     		add	r1, r3, #0
  82 004e FFF7FEFF 		bl	__aeabi_fadd
  83 0052 031C     		add	r3, r0, #0
  84 0054 7B62     		str	r3, [r7, #36]
 174:Source\ComplexMathFunctions/arm_cmplx_dot_prod_f32.c ****       imag_sum += a0 * d0;
  85              		.loc 1 174 0
  86 0056 F869     		ldr	r0, [r7, #28]
  87 0058 3969     		ldr	r1, [r7, #16]
  88 005a FFF7FEFF 		bl	__aeabi_fmul
  89 005e 031C     		add	r3, r0, #0
  90 0060 386A     		ldr	r0, [r7, #32]
  91 0062 191C     		add	r1, r3, #0
  92 0064 FFF7FEFF 		bl	__aeabi_fadd
  93 0068 031C     		add	r3, r0, #0
  94 006a 3B62     		str	r3, [r7, #32]
 175:Source\ComplexMathFunctions/arm_cmplx_dot_prod_f32.c ****       real_sum -= b0 * d0;
  95              		.loc 1 175 0
  96 006c B869     		ldr	r0, [r7, #24]
  97 006e 3969     		ldr	r1, [r7, #16]
  98 0070 FFF7FEFF 		bl	__aeabi_fmul
  99 0074 031C     		add	r3, r0, #0
 100 0076 786A     		ldr	r0, [r7, #36]
 101 0078 191C     		add	r1, r3, #0
 102 007a FFF7FEFF 		bl	__aeabi_fsub
 103 007e 031C     		add	r3, r0, #0
 104 0080 7B62     		str	r3, [r7, #36]
 176:Source\ComplexMathFunctions/arm_cmplx_dot_prod_f32.c ****       imag_sum += b0 * c0;
 105              		.loc 1 176 0
 106 0082 B869     		ldr	r0, [r7, #24]
 107 0084 7969     		ldr	r1, [r7, #20]
 108 0086 FFF7FEFF 		bl	__aeabi_fmul
 109 008a 031C     		add	r3, r0, #0
ARM GAS  C:\Users\fneves\AppData\Local\Temp\ccmlslBb.s 			page 6


 110 008c 386A     		ldr	r0, [r7, #32]
 111 008e 191C     		add	r1, r3, #0
 112 0090 FFF7FEFF 		bl	__aeabi_fadd
 113 0094 031C     		add	r3, r0, #0
 114 0096 3B62     		str	r3, [r7, #32]
 177:Source\ComplexMathFunctions/arm_cmplx_dot_prod_f32.c **** 
 178:Source\ComplexMathFunctions/arm_cmplx_dot_prod_f32.c ****       /* Decrement the loop counter */
 179:Source\ComplexMathFunctions/arm_cmplx_dot_prod_f32.c ****       numSamples--;
 115              		.loc 1 179 0
 116 0098 7B68     		ldr	r3, [r7, #4]
 117 009a 013B     		sub	r3, r3, #1
 118 009c 7B60     		str	r3, [r7, #4]
 119              	.L2:
 166:Source\ComplexMathFunctions/arm_cmplx_dot_prod_f32.c ****   {
 120              		.loc 1 166 0
 121 009e 7B68     		ldr	r3, [r7, #4]
 122 00a0 002B     		cmp	r3, #0
 123 00a2 B9D1     		bne	.L3
 180:Source\ComplexMathFunctions/arm_cmplx_dot_prod_f32.c ****   }
 181:Source\ComplexMathFunctions/arm_cmplx_dot_prod_f32.c **** 
 182:Source\ComplexMathFunctions/arm_cmplx_dot_prod_f32.c **** #endif /* #if defined (ARM_MATH_DSP) */
 183:Source\ComplexMathFunctions/arm_cmplx_dot_prod_f32.c **** 
 184:Source\ComplexMathFunctions/arm_cmplx_dot_prod_f32.c ****   /* Store the real and imaginary results in the destination buffers */
 185:Source\ComplexMathFunctions/arm_cmplx_dot_prod_f32.c ****   *realResult = real_sum;
 124              		.loc 1 185 0
 125 00a4 3B68     		ldr	r3, [r7]
 126 00a6 7A6A     		ldr	r2, [r7, #36]
 127 00a8 1A60     		str	r2, [r3]
 186:Source\ComplexMathFunctions/arm_cmplx_dot_prod_f32.c ****   *imagResult = imag_sum;
 128              		.loc 1 186 0
 129 00aa 3B6B     		ldr	r3, [r7, #48]
 130 00ac 3A6A     		ldr	r2, [r7, #32]
 131 00ae 1A60     		str	r2, [r3]
 187:Source\ComplexMathFunctions/arm_cmplx_dot_prod_f32.c **** }
 132              		.loc 1 187 0
 133 00b0 BD46     		mov	sp, r7
 134 00b2 0AB0     		add	sp, sp, #40
 135              		@ sp needed
 136 00b4 80BD     		pop	{r7, pc}
 137              		.cfi_endproc
 138              	.LFE82:
 139              		.size	arm_cmplx_dot_prod_f32, .-arm_cmplx_dot_prod_f32
 140 00b6 C046     		.text
 141              	.Letext0:
 142              		.file 2 "c:\\program files (x86)\\cypress\\psoc creator\\4.0\\psoc creator\\import\\gnu\\arm\\4.9.
 143              		.file 3 "c:\\program files (x86)\\cypress\\psoc creator\\4.0\\psoc creator\\import\\gnu\\arm\\4.9.
 144              		.file 4 ".\\Include/arm_math.h"