ARM GAS  C:\Users\fneves\AppData\Local\Temp\ccYbA0zP.s 			page 1


   1              		.cpu cortex-m0plus
   2              		.fpu softvfp
   3              		.eabi_attribute 20, 1
   4              		.eabi_attribute 21, 1
   5              		.eabi_attribute 23, 3
   6              		.eabi_attribute 24, 1
   7              		.eabi_attribute 25, 1
   8              		.eabi_attribute 26, 1
   9              		.eabi_attribute 30, 6
  10              		.eabi_attribute 34, 0
  11              		.eabi_attribute 18, 4
  12              		.code	16
  13              		.file	"arm_abs_q7.c"
  14              		.text
  15              	.Ltext0:
  16              		.cfi_sections	.debug_frame
  17              		.section	.text.arm_abs_q7,"ax",%progbits
  18              		.align	2
  19              		.global	arm_abs_q7
  20              		.code	16
  21              		.thumb_func
  22              		.type	arm_abs_q7, %function
  23              	arm_abs_q7:
  24              	.LFB82:
  25              		.file 1 "Source\\BasicMathFunctions\\arm_abs_q7.c"
   1:Source\BasicMathFunctions/arm_abs_q7.c **** /* ----------------------------------------------------------------------
   2:Source\BasicMathFunctions/arm_abs_q7.c ****  * Project:      CMSIS DSP Library
   3:Source\BasicMathFunctions/arm_abs_q7.c ****  * Title:        arm_abs_q7.c
   4:Source\BasicMathFunctions/arm_abs_q7.c ****  * Description:  Q7 vector absolute value
   5:Source\BasicMathFunctions/arm_abs_q7.c ****  *
   6:Source\BasicMathFunctions/arm_abs_q7.c ****  * $Date:        27. January 2017
   7:Source\BasicMathFunctions/arm_abs_q7.c ****  * $Revision:    V.1.5.1
   8:Source\BasicMathFunctions/arm_abs_q7.c ****  *
   9:Source\BasicMathFunctions/arm_abs_q7.c ****  * Target Processor: Cortex-M cores
  10:Source\BasicMathFunctions/arm_abs_q7.c ****  * -------------------------------------------------------------------- */
  11:Source\BasicMathFunctions/arm_abs_q7.c **** /*
  12:Source\BasicMathFunctions/arm_abs_q7.c ****  * Copyright (C) 2010-2017 ARM Limited or its affiliates. All rights reserved.
  13:Source\BasicMathFunctions/arm_abs_q7.c ****  *
  14:Source\BasicMathFunctions/arm_abs_q7.c ****  * SPDX-License-Identifier: Apache-2.0
  15:Source\BasicMathFunctions/arm_abs_q7.c ****  *
  16:Source\BasicMathFunctions/arm_abs_q7.c ****  * Licensed under the Apache License, Version 2.0 (the License); you may
  17:Source\BasicMathFunctions/arm_abs_q7.c ****  * not use this file except in compliance with the License.
  18:Source\BasicMathFunctions/arm_abs_q7.c ****  * You may obtain a copy of the License at
  19:Source\BasicMathFunctions/arm_abs_q7.c ****  *
  20:Source\BasicMathFunctions/arm_abs_q7.c ****  * www.apache.org/licenses/LICENSE-2.0
  21:Source\BasicMathFunctions/arm_abs_q7.c ****  *
  22:Source\BasicMathFunctions/arm_abs_q7.c ****  * Unless required by applicable law or agreed to in writing, software
  23:Source\BasicMathFunctions/arm_abs_q7.c ****  * distributed under the License is distributed on an AS IS BASIS, WITHOUT
  24:Source\BasicMathFunctions/arm_abs_q7.c ****  * WARRANTIES OR CONDITIONS OF ANY KIND, either express or implied.
  25:Source\BasicMathFunctions/arm_abs_q7.c ****  * See the License for the specific language governing permissions and
  26:Source\BasicMathFunctions/arm_abs_q7.c ****  * limitations under the License.
  27:Source\BasicMathFunctions/arm_abs_q7.c ****  */
  28:Source\BasicMathFunctions/arm_abs_q7.c **** 
  29:Source\BasicMathFunctions/arm_abs_q7.c **** #include "arm_math.h"
  30:Source\BasicMathFunctions/arm_abs_q7.c **** 
  31:Source\BasicMathFunctions/arm_abs_q7.c **** /**
  32:Source\BasicMathFunctions/arm_abs_q7.c ****  * @ingroup groupMath
ARM GAS  C:\Users\fneves\AppData\Local\Temp\ccYbA0zP.s 			page 2


  33:Source\BasicMathFunctions/arm_abs_q7.c ****  */
  34:Source\BasicMathFunctions/arm_abs_q7.c **** 
  35:Source\BasicMathFunctions/arm_abs_q7.c **** /**
  36:Source\BasicMathFunctions/arm_abs_q7.c ****  * @addtogroup BasicAbs
  37:Source\BasicMathFunctions/arm_abs_q7.c ****  * @{
  38:Source\BasicMathFunctions/arm_abs_q7.c ****  */
  39:Source\BasicMathFunctions/arm_abs_q7.c **** 
  40:Source\BasicMathFunctions/arm_abs_q7.c **** /**
  41:Source\BasicMathFunctions/arm_abs_q7.c ****  * @brief Q7 vector absolute value.
  42:Source\BasicMathFunctions/arm_abs_q7.c ****  * @param[in]       *pSrc points to the input buffer
  43:Source\BasicMathFunctions/arm_abs_q7.c ****  * @param[out]      *pDst points to the output buffer
  44:Source\BasicMathFunctions/arm_abs_q7.c ****  * @param[in]       blockSize number of samples in each vector
  45:Source\BasicMathFunctions/arm_abs_q7.c ****  * @return none.
  46:Source\BasicMathFunctions/arm_abs_q7.c ****  *
  47:Source\BasicMathFunctions/arm_abs_q7.c ****  * \par Conditions for optimum performance
  48:Source\BasicMathFunctions/arm_abs_q7.c ****  *  Input and output buffers should be aligned by 32-bit
  49:Source\BasicMathFunctions/arm_abs_q7.c ****  *
  50:Source\BasicMathFunctions/arm_abs_q7.c ****  *
  51:Source\BasicMathFunctions/arm_abs_q7.c ****  * <b>Scaling and Overflow Behavior:</b>
  52:Source\BasicMathFunctions/arm_abs_q7.c ****  * \par
  53:Source\BasicMathFunctions/arm_abs_q7.c ****  * The function uses saturating arithmetic.
  54:Source\BasicMathFunctions/arm_abs_q7.c ****  * The Q7 value -1 (0x80) will be saturated to the maximum allowable positive value 0x7F.
  55:Source\BasicMathFunctions/arm_abs_q7.c ****  */
  56:Source\BasicMathFunctions/arm_abs_q7.c **** 
  57:Source\BasicMathFunctions/arm_abs_q7.c **** void arm_abs_q7(
  58:Source\BasicMathFunctions/arm_abs_q7.c ****   q7_t * pSrc,
  59:Source\BasicMathFunctions/arm_abs_q7.c ****   q7_t * pDst,
  60:Source\BasicMathFunctions/arm_abs_q7.c ****   uint32_t blockSize)
  61:Source\BasicMathFunctions/arm_abs_q7.c **** {
  26              		.loc 1 61 0
  27              		.cfi_startproc
  28 0000 80B5     		push	{r7, lr}
  29              		.cfi_def_cfa_offset 8
  30              		.cfi_offset 7, -8
  31              		.cfi_offset 14, -4
  32 0002 86B0     		sub	sp, sp, #24
  33              		.cfi_def_cfa_offset 32
  34 0004 00AF     		add	r7, sp, #0
  35              		.cfi_def_cfa_register 7
  36 0006 F860     		str	r0, [r7, #12]
  37 0008 B960     		str	r1, [r7, #8]
  38 000a 7A60     		str	r2, [r7, #4]
  62:Source\BasicMathFunctions/arm_abs_q7.c ****   uint32_t blkCnt;                               /* loop counter */
  63:Source\BasicMathFunctions/arm_abs_q7.c ****   q7_t in;                                       /* Input value1 */
  64:Source\BasicMathFunctions/arm_abs_q7.c **** 
  65:Source\BasicMathFunctions/arm_abs_q7.c **** #if defined (ARM_MATH_DSP)
  66:Source\BasicMathFunctions/arm_abs_q7.c **** 
  67:Source\BasicMathFunctions/arm_abs_q7.c ****   /* Run the below code for Cortex-M4 and Cortex-M3 */
  68:Source\BasicMathFunctions/arm_abs_q7.c ****   q31_t in1, in2, in3, in4;                      /* temporary input variables */
  69:Source\BasicMathFunctions/arm_abs_q7.c ****   q31_t out1, out2, out3, out4;                  /* temporary output variables */
  70:Source\BasicMathFunctions/arm_abs_q7.c **** 
  71:Source\BasicMathFunctions/arm_abs_q7.c ****   /*loop Unrolling */
  72:Source\BasicMathFunctions/arm_abs_q7.c ****   blkCnt = blockSize >> 2u;
  73:Source\BasicMathFunctions/arm_abs_q7.c **** 
  74:Source\BasicMathFunctions/arm_abs_q7.c ****   /* First part of the processing with loop unrolling.  Compute 4 outputs at a time.
  75:Source\BasicMathFunctions/arm_abs_q7.c ****    ** a second loop below computes the remaining 1 to 3 samples. */
  76:Source\BasicMathFunctions/arm_abs_q7.c ****   while (blkCnt > 0u)
ARM GAS  C:\Users\fneves\AppData\Local\Temp\ccYbA0zP.s 			page 3


  77:Source\BasicMathFunctions/arm_abs_q7.c ****   {
  78:Source\BasicMathFunctions/arm_abs_q7.c ****     /* C = |A| */
  79:Source\BasicMathFunctions/arm_abs_q7.c ****     /* Read inputs */
  80:Source\BasicMathFunctions/arm_abs_q7.c ****     in1 = (q31_t) * pSrc;
  81:Source\BasicMathFunctions/arm_abs_q7.c ****     in2 = (q31_t) * (pSrc + 1);
  82:Source\BasicMathFunctions/arm_abs_q7.c ****     in3 = (q31_t) * (pSrc + 2);
  83:Source\BasicMathFunctions/arm_abs_q7.c **** 
  84:Source\BasicMathFunctions/arm_abs_q7.c ****     /* find absolute value */
  85:Source\BasicMathFunctions/arm_abs_q7.c ****     out1 = (in1 > 0) ? in1 : (q31_t)__QSUB8(0, in1);
  86:Source\BasicMathFunctions/arm_abs_q7.c **** 
  87:Source\BasicMathFunctions/arm_abs_q7.c ****     /* read input */
  88:Source\BasicMathFunctions/arm_abs_q7.c ****     in4 = (q31_t) * (pSrc + 3);
  89:Source\BasicMathFunctions/arm_abs_q7.c **** 
  90:Source\BasicMathFunctions/arm_abs_q7.c ****     /* find absolute value */
  91:Source\BasicMathFunctions/arm_abs_q7.c ****     out2 = (in2 > 0) ? in2 : (q31_t)__QSUB8(0, in2);
  92:Source\BasicMathFunctions/arm_abs_q7.c **** 
  93:Source\BasicMathFunctions/arm_abs_q7.c ****     /* store result to destination */
  94:Source\BasicMathFunctions/arm_abs_q7.c ****     *pDst = (q7_t) out1;
  95:Source\BasicMathFunctions/arm_abs_q7.c **** 
  96:Source\BasicMathFunctions/arm_abs_q7.c ****     /* find absolute value */
  97:Source\BasicMathFunctions/arm_abs_q7.c ****     out3 = (in3 > 0) ? in3 : (q31_t)__QSUB8(0, in3);
  98:Source\BasicMathFunctions/arm_abs_q7.c **** 
  99:Source\BasicMathFunctions/arm_abs_q7.c ****     /* find absolute value */
 100:Source\BasicMathFunctions/arm_abs_q7.c ****     out4 = (in4 > 0) ? in4 : (q31_t)__QSUB8(0, in4);
 101:Source\BasicMathFunctions/arm_abs_q7.c **** 
 102:Source\BasicMathFunctions/arm_abs_q7.c ****     /* store result to destination */
 103:Source\BasicMathFunctions/arm_abs_q7.c ****     *(pDst + 1) = (q7_t) out2;
 104:Source\BasicMathFunctions/arm_abs_q7.c **** 
 105:Source\BasicMathFunctions/arm_abs_q7.c ****     /* store result to destination */
 106:Source\BasicMathFunctions/arm_abs_q7.c ****     *(pDst + 2) = (q7_t) out3;
 107:Source\BasicMathFunctions/arm_abs_q7.c **** 
 108:Source\BasicMathFunctions/arm_abs_q7.c ****     /* store result to destination */
 109:Source\BasicMathFunctions/arm_abs_q7.c ****     *(pDst + 3) = (q7_t) out4;
 110:Source\BasicMathFunctions/arm_abs_q7.c **** 
 111:Source\BasicMathFunctions/arm_abs_q7.c ****     /* update pointers to process next samples */
 112:Source\BasicMathFunctions/arm_abs_q7.c ****     pSrc += 4u;
 113:Source\BasicMathFunctions/arm_abs_q7.c ****     pDst += 4u;
 114:Source\BasicMathFunctions/arm_abs_q7.c **** 
 115:Source\BasicMathFunctions/arm_abs_q7.c ****     /* Decrement the loop counter */
 116:Source\BasicMathFunctions/arm_abs_q7.c ****     blkCnt--;
 117:Source\BasicMathFunctions/arm_abs_q7.c ****   }
 118:Source\BasicMathFunctions/arm_abs_q7.c **** 
 119:Source\BasicMathFunctions/arm_abs_q7.c ****   /* If the blockSize is not a multiple of 4, compute any remaining output samples here.
 120:Source\BasicMathFunctions/arm_abs_q7.c ****    ** No loop unrolling is used. */
 121:Source\BasicMathFunctions/arm_abs_q7.c ****   blkCnt = blockSize % 0x4u;
 122:Source\BasicMathFunctions/arm_abs_q7.c **** #else
 123:Source\BasicMathFunctions/arm_abs_q7.c **** 
 124:Source\BasicMathFunctions/arm_abs_q7.c ****   /* Run the below code for Cortex-M0 */
 125:Source\BasicMathFunctions/arm_abs_q7.c ****   blkCnt = blockSize;
  39              		.loc 1 125 0
  40 000c 7B68     		ldr	r3, [r7, #4]
  41 000e 7B61     		str	r3, [r7, #20]
 126:Source\BasicMathFunctions/arm_abs_q7.c **** 
 127:Source\BasicMathFunctions/arm_abs_q7.c **** #endif /* #define ARM_MATH_CM0_FAMILY */
 128:Source\BasicMathFunctions/arm_abs_q7.c **** 
 129:Source\BasicMathFunctions/arm_abs_q7.c ****   while (blkCnt > 0u)
  42              		.loc 1 129 0
ARM GAS  C:\Users\fneves\AppData\Local\Temp\ccYbA0zP.s 			page 4


  43 0010 26E0     		b	.L2
  44              	.L7:
 130:Source\BasicMathFunctions/arm_abs_q7.c ****   {
 131:Source\BasicMathFunctions/arm_abs_q7.c ****     /* C = |A| */
 132:Source\BasicMathFunctions/arm_abs_q7.c ****     /* Read the input */
 133:Source\BasicMathFunctions/arm_abs_q7.c ****     in = *pSrc++;
  45              		.loc 1 133 0
  46 0012 FB68     		ldr	r3, [r7, #12]
  47 0014 5A1C     		add	r2, r3, #1
  48 0016 FA60     		str	r2, [r7, #12]
  49 0018 1322     		mov	r2, #19
  50 001a BA18     		add	r2, r7, r2
  51 001c 1B78     		ldrb	r3, [r3]
  52 001e 1370     		strb	r3, [r2]
 134:Source\BasicMathFunctions/arm_abs_q7.c **** 
 135:Source\BasicMathFunctions/arm_abs_q7.c ****     /* Store the Absolute result in the destination buffer */
 136:Source\BasicMathFunctions/arm_abs_q7.c ****     *pDst++ = (in > 0) ? in : ((in == (q7_t) 0x80) ? 0x7f : -in);
  53              		.loc 1 136 0
  54 0020 BA68     		ldr	r2, [r7, #8]
  55 0022 531C     		add	r3, r2, #1
  56 0024 BB60     		str	r3, [r7, #8]
  57 0026 1323     		mov	r3, #19
  58 0028 FB18     		add	r3, r7, r3
  59 002a 1B78     		ldrb	r3, [r3]
  60 002c 5BB2     		sxtb	r3, r3
  61 002e 002B     		cmp	r3, #0
  62 0030 0FDC     		bgt	.L3
  63              		.loc 1 136 0 is_stmt 0 discriminator 1
  64 0032 1323     		mov	r3, #19
  65 0034 FB18     		add	r3, r7, r3
  66 0036 1B78     		ldrb	r3, [r3]
  67 0038 5BB2     		sxtb	r3, r3
  68 003a 8033     		add	r3, r3, #128
  69 003c 06D0     		beq	.L4
  70              		.loc 1 136 0 discriminator 3
  71 003e 1323     		mov	r3, #19
  72 0040 FB18     		add	r3, r7, r3
  73 0042 1B78     		ldrb	r3, [r3]
  74 0044 5B42     		neg	r3, r3
  75 0046 DBB2     		uxtb	r3, r3
  76 0048 DBB2     		uxtb	r3, r3
  77 004a 00E0     		b	.L5
  78              	.L4:
  79              		.loc 1 136 0 discriminator 4
  80 004c 7F23     		mov	r3, #127
  81              	.L5:
  82              		.loc 1 136 0 discriminator 6
  83 004e DBB2     		uxtb	r3, r3
  84 0050 02E0     		b	.L6
  85              	.L3:
  86              		.loc 1 136 0 discriminator 2
  87 0052 1323     		mov	r3, #19
  88 0054 FB18     		add	r3, r7, r3
  89 0056 1B78     		ldrb	r3, [r3]
  90              	.L6:
  91              		.loc 1 136 0 discriminator 8
  92 0058 1370     		strb	r3, [r2]
ARM GAS  C:\Users\fneves\AppData\Local\Temp\ccYbA0zP.s 			page 5


 137:Source\BasicMathFunctions/arm_abs_q7.c **** 
 138:Source\BasicMathFunctions/arm_abs_q7.c ****     /* Decrement the loop counter */
 139:Source\BasicMathFunctions/arm_abs_q7.c ****     blkCnt--;
  93              		.loc 1 139 0 is_stmt 1 discriminator 8
  94 005a 7B69     		ldr	r3, [r7, #20]
  95 005c 013B     		sub	r3, r3, #1
  96 005e 7B61     		str	r3, [r7, #20]
  97              	.L2:
 129:Source\BasicMathFunctions/arm_abs_q7.c ****   {
  98              		.loc 1 129 0
  99 0060 7B69     		ldr	r3, [r7, #20]
 100 0062 002B     		cmp	r3, #0
 101 0064 D5D1     		bne	.L7
 140:Source\BasicMathFunctions/arm_abs_q7.c ****   }
 141:Source\BasicMathFunctions/arm_abs_q7.c **** }
 102              		.loc 1 141 0
 103 0066 BD46     		mov	sp, r7
 104 0068 06B0     		add	sp, sp, #24
 105              		@ sp needed
 106 006a 80BD     		pop	{r7, pc}
 107              		.cfi_endproc
 108              	.LFE82:
 109              		.size	arm_abs_q7, .-arm_abs_q7
 110              		.text
 111              	.Letext0:
 112              		.file 2 "c:\\program files (x86)\\cypress\\psoc creator\\4.0\\psoc creator\\import\\gnu\\arm\\4.9.
 113              		.file 3 "c:\\program files (x86)\\cypress\\psoc creator\\4.0\\psoc creator\\import\\gnu\\arm\\4.9.
 114              		.file 4 ".\\Include/arm_math.h"