ARM GAS  C:\Users\fneves\AppData\Local\Temp\ccluy6EP.s 			page 1


   1              		.cpu cortex-m0plus
   2              		.fpu softvfp
   3              		.eabi_attribute 20, 1
   4              		.eabi_attribute 21, 1
   5              		.eabi_attribute 23, 3
   6              		.eabi_attribute 24, 1
   7              		.eabi_attribute 25, 1
   8              		.eabi_attribute 26, 1
   9              		.eabi_attribute 30, 6
  10              		.eabi_attribute 34, 0
  11              		.eabi_attribute 18, 4
  12              		.code	16
  13              		.file	"arm_bitreversal.c"
  14              		.text
  15              	.Ltext0:
  16              		.cfi_sections	.debug_frame
  17              		.section	.text.arm_bitreversal_f32,"ax",%progbits
  18              		.align	2
  19              		.global	arm_bitreversal_f32
  20              		.code	16
  21              		.thumb_func
  22              		.type	arm_bitreversal_f32, %function
  23              	arm_bitreversal_f32:
  24              	.LFB82:
  25              		.file 1 "Source\\TransformFunctions\\arm_bitreversal.c"
   1:Source\TransformFunctions/arm_bitreversal.c **** /* ----------------------------------------------------------------------
   2:Source\TransformFunctions/arm_bitreversal.c ****  * Project:      CMSIS DSP Library
   3:Source\TransformFunctions/arm_bitreversal.c ****  * Title:        arm_bitreversal.c
   4:Source\TransformFunctions/arm_bitreversal.c ****  * Description:  Bitreversal functions
   5:Source\TransformFunctions/arm_bitreversal.c ****  *
   6:Source\TransformFunctions/arm_bitreversal.c ****  * $Date:        27. January 2017
   7:Source\TransformFunctions/arm_bitreversal.c ****  * $Revision:    V.1.5.1
   8:Source\TransformFunctions/arm_bitreversal.c ****  *
   9:Source\TransformFunctions/arm_bitreversal.c ****  * Target Processor: Cortex-M cores
  10:Source\TransformFunctions/arm_bitreversal.c ****  * -------------------------------------------------------------------- */
  11:Source\TransformFunctions/arm_bitreversal.c **** /*
  12:Source\TransformFunctions/arm_bitreversal.c ****  * Copyright (C) 2010-2017 ARM Limited or its affiliates. All rights reserved.
  13:Source\TransformFunctions/arm_bitreversal.c ****  *
  14:Source\TransformFunctions/arm_bitreversal.c ****  * SPDX-License-Identifier: Apache-2.0
  15:Source\TransformFunctions/arm_bitreversal.c ****  *
  16:Source\TransformFunctions/arm_bitreversal.c ****  * Licensed under the Apache License, Version 2.0 (the License); you may
  17:Source\TransformFunctions/arm_bitreversal.c ****  * not use this file except in compliance with the License.
  18:Source\TransformFunctions/arm_bitreversal.c ****  * You may obtain a copy of the License at
  19:Source\TransformFunctions/arm_bitreversal.c ****  *
  20:Source\TransformFunctions/arm_bitreversal.c ****  * www.apache.org/licenses/LICENSE-2.0
  21:Source\TransformFunctions/arm_bitreversal.c ****  *
  22:Source\TransformFunctions/arm_bitreversal.c ****  * Unless required by applicable law or agreed to in writing, software
  23:Source\TransformFunctions/arm_bitreversal.c ****  * distributed under the License is distributed on an AS IS BASIS, WITHOUT
  24:Source\TransformFunctions/arm_bitreversal.c ****  * WARRANTIES OR CONDITIONS OF ANY KIND, either express or implied.
  25:Source\TransformFunctions/arm_bitreversal.c ****  * See the License for the specific language governing permissions and
  26:Source\TransformFunctions/arm_bitreversal.c ****  * limitations under the License.
  27:Source\TransformFunctions/arm_bitreversal.c ****  */
  28:Source\TransformFunctions/arm_bitreversal.c **** 
  29:Source\TransformFunctions/arm_bitreversal.c **** #include "arm_math.h"
  30:Source\TransformFunctions/arm_bitreversal.c **** #include "arm_common_tables.h"
  31:Source\TransformFunctions/arm_bitreversal.c **** 
  32:Source\TransformFunctions/arm_bitreversal.c **** /*
ARM GAS  C:\Users\fneves\AppData\Local\Temp\ccluy6EP.s 			page 2


  33:Source\TransformFunctions/arm_bitreversal.c **** * @brief  In-place bit reversal function.
  34:Source\TransformFunctions/arm_bitreversal.c **** * @param[in, out] *pSrc        points to the in-place buffer of floating-point data type.
  35:Source\TransformFunctions/arm_bitreversal.c **** * @param[in]      fftSize      length of the FFT.
  36:Source\TransformFunctions/arm_bitreversal.c **** * @param[in]      bitRevFactor bit reversal modifier that supports different size FFTs with the sam
  37:Source\TransformFunctions/arm_bitreversal.c **** * @param[in]      *pBitRevTab  points to the bit reversal table.
  38:Source\TransformFunctions/arm_bitreversal.c **** * @return none.
  39:Source\TransformFunctions/arm_bitreversal.c **** */
  40:Source\TransformFunctions/arm_bitreversal.c **** 
  41:Source\TransformFunctions/arm_bitreversal.c **** void arm_bitreversal_f32(
  42:Source\TransformFunctions/arm_bitreversal.c **** float32_t * pSrc,
  43:Source\TransformFunctions/arm_bitreversal.c **** uint16_t fftSize,
  44:Source\TransformFunctions/arm_bitreversal.c **** uint16_t bitRevFactor,
  45:Source\TransformFunctions/arm_bitreversal.c **** uint16_t * pBitRevTab)
  46:Source\TransformFunctions/arm_bitreversal.c **** {
  26              		.loc 1 46 0
  27              		.cfi_startproc
  28 0000 80B5     		push	{r7, lr}
  29              		.cfi_def_cfa_offset 8
  30              		.cfi_offset 7, -8
  31              		.cfi_offset 14, -4
  32 0002 88B0     		sub	sp, sp, #32
  33              		.cfi_def_cfa_offset 40
  34 0004 00AF     		add	r7, sp, #0
  35              		.cfi_def_cfa_register 7
  36 0006 F860     		str	r0, [r7, #12]
  37 0008 081C     		mov	r0, r1
  38 000a 111C     		mov	r1, r2
  39 000c 7B60     		str	r3, [r7, #4]
  40 000e 0A23     		mov	r3, #10
  41 0010 FB18     		add	r3, r7, r3
  42 0012 021C     		add	r2, r0, #0
  43 0014 1A80     		strh	r2, [r3]
  44 0016 0823     		mov	r3, #8
  45 0018 FB18     		add	r3, r7, r3
  46 001a 0A1C     		add	r2, r1, #0
  47 001c 1A80     		strh	r2, [r3]
  47:Source\TransformFunctions/arm_bitreversal.c ****    uint16_t fftLenBy2, fftLenBy2p1;
  48:Source\TransformFunctions/arm_bitreversal.c ****    uint16_t i, j;
  49:Source\TransformFunctions/arm_bitreversal.c ****    float32_t in;
  50:Source\TransformFunctions/arm_bitreversal.c **** 
  51:Source\TransformFunctions/arm_bitreversal.c ****    /*  Initializations */
  52:Source\TransformFunctions/arm_bitreversal.c ****    j = 0u;
  48              		.loc 1 52 0
  49 001e 1C23     		mov	r3, #28
  50 0020 FB18     		add	r3, r7, r3
  51 0022 0022     		mov	r2, #0
  52 0024 1A80     		strh	r2, [r3]
  53:Source\TransformFunctions/arm_bitreversal.c ****    fftLenBy2 = fftSize >> 1u;
  53              		.loc 1 53 0
  54 0026 1A23     		mov	r3, #26
  55 0028 FB18     		add	r3, r7, r3
  56 002a 0A22     		mov	r2, #10
  57 002c BA18     		add	r2, r7, r2
  58 002e 1288     		ldrh	r2, [r2]
  59 0030 5208     		lsr	r2, r2, #1
  60 0032 1A80     		strh	r2, [r3]
  54:Source\TransformFunctions/arm_bitreversal.c ****    fftLenBy2p1 = (fftSize >> 1u) + 1u;
ARM GAS  C:\Users\fneves\AppData\Local\Temp\ccluy6EP.s 			page 3


  61              		.loc 1 54 0
  62 0034 0A23     		mov	r3, #10
  63 0036 FB18     		add	r3, r7, r3
  64 0038 1B88     		ldrh	r3, [r3]
  65 003a 5B08     		lsr	r3, r3, #1
  66 003c 9AB2     		uxth	r2, r3
  67 003e 1823     		mov	r3, #24
  68 0040 FB18     		add	r3, r7, r3
  69 0042 0132     		add	r2, r2, #1
  70 0044 1A80     		strh	r2, [r3]
  55:Source\TransformFunctions/arm_bitreversal.c **** 
  56:Source\TransformFunctions/arm_bitreversal.c ****    /* Bit Reversal Implementation */
  57:Source\TransformFunctions/arm_bitreversal.c ****    for (i = 0u; i <= (fftLenBy2 - 2u); i += 2u)
  71              		.loc 1 57 0
  72 0046 1E23     		mov	r3, #30
  73 0048 FB18     		add	r3, r7, r3
  74 004a 0022     		mov	r2, #0
  75 004c 1A80     		strh	r2, [r3]
  76 004e 0FE1     		b	.L2
  77              	.L4:
  58:Source\TransformFunctions/arm_bitreversal.c ****    {
  59:Source\TransformFunctions/arm_bitreversal.c ****       if (i < j)
  78              		.loc 1 59 0
  79 0050 1E23     		mov	r3, #30
  80 0052 FA18     		add	r2, r7, r3
  81 0054 1C23     		mov	r3, #28
  82 0056 FB18     		add	r3, r7, r3
  83 0058 1288     		ldrh	r2, [r2]
  84 005a 1B88     		ldrh	r3, [r3]
  85 005c 9A42     		cmp	r2, r3
  86 005e 00D3     		bcc	.LCB59
  87 0060 9FE0     		b	.L3	@long jump
  88              	.LCB59:
  60:Source\TransformFunctions/arm_bitreversal.c ****       {
  61:Source\TransformFunctions/arm_bitreversal.c ****          /*  pSrc[i] <-> pSrc[j]; */
  62:Source\TransformFunctions/arm_bitreversal.c ****          in = pSrc[2u * i];
  89              		.loc 1 62 0
  90 0062 1E23     		mov	r3, #30
  91 0064 FB18     		add	r3, r7, r3
  92 0066 1B88     		ldrh	r3, [r3]
  93 0068 DB00     		lsl	r3, r3, #3
  94 006a FA68     		ldr	r2, [r7, #12]
  95 006c D318     		add	r3, r2, r3
  96 006e 1B68     		ldr	r3, [r3]
  97 0070 7B61     		str	r3, [r7, #20]
  63:Source\TransformFunctions/arm_bitreversal.c ****          pSrc[2u * i] = pSrc[2u * j];
  98              		.loc 1 63 0
  99 0072 1E23     		mov	r3, #30
 100 0074 FB18     		add	r3, r7, r3
 101 0076 1B88     		ldrh	r3, [r3]
 102 0078 DB00     		lsl	r3, r3, #3
 103 007a FA68     		ldr	r2, [r7, #12]
 104 007c D318     		add	r3, r2, r3
 105 007e 1C22     		mov	r2, #28
 106 0080 BA18     		add	r2, r7, r2
 107 0082 1288     		ldrh	r2, [r2]
 108 0084 D200     		lsl	r2, r2, #3
ARM GAS  C:\Users\fneves\AppData\Local\Temp\ccluy6EP.s 			page 4


 109 0086 F968     		ldr	r1, [r7, #12]
 110 0088 8A18     		add	r2, r1, r2
 111 008a 1268     		ldr	r2, [r2]
 112 008c 1A60     		str	r2, [r3]
  64:Source\TransformFunctions/arm_bitreversal.c ****          pSrc[2u * j] = in;
 113              		.loc 1 64 0
 114 008e 1C23     		mov	r3, #28
 115 0090 FB18     		add	r3, r7, r3
 116 0092 1B88     		ldrh	r3, [r3]
 117 0094 DB00     		lsl	r3, r3, #3
 118 0096 FA68     		ldr	r2, [r7, #12]
 119 0098 D318     		add	r3, r2, r3
 120 009a 7A69     		ldr	r2, [r7, #20]
 121 009c 1A60     		str	r2, [r3]
  65:Source\TransformFunctions/arm_bitreversal.c **** 
  66:Source\TransformFunctions/arm_bitreversal.c ****          /*  pSrc[i+1u] <-> pSrc[j+1u] */
  67:Source\TransformFunctions/arm_bitreversal.c ****          in = pSrc[(2u * i) + 1u];
 122              		.loc 1 67 0
 123 009e 1E23     		mov	r3, #30
 124 00a0 FB18     		add	r3, r7, r3
 125 00a2 1B88     		ldrh	r3, [r3]
 126 00a4 DB00     		lsl	r3, r3, #3
 127 00a6 0433     		add	r3, r3, #4
 128 00a8 FA68     		ldr	r2, [r7, #12]
 129 00aa D318     		add	r3, r2, r3
 130 00ac 1B68     		ldr	r3, [r3]
 131 00ae 7B61     		str	r3, [r7, #20]
  68:Source\TransformFunctions/arm_bitreversal.c ****          pSrc[(2u * i) + 1u] = pSrc[(2u * j) + 1u];
 132              		.loc 1 68 0
 133 00b0 1E23     		mov	r3, #30
 134 00b2 FB18     		add	r3, r7, r3
 135 00b4 1B88     		ldrh	r3, [r3]
 136 00b6 DB00     		lsl	r3, r3, #3
 137 00b8 0433     		add	r3, r3, #4
 138 00ba FA68     		ldr	r2, [r7, #12]
 139 00bc D318     		add	r3, r2, r3
 140 00be 1C22     		mov	r2, #28
 141 00c0 BA18     		add	r2, r7, r2
 142 00c2 1288     		ldrh	r2, [r2]
 143 00c4 D200     		lsl	r2, r2, #3
 144 00c6 0432     		add	r2, r2, #4
 145 00c8 F968     		ldr	r1, [r7, #12]
 146 00ca 8A18     		add	r2, r1, r2
 147 00cc 1268     		ldr	r2, [r2]
 148 00ce 1A60     		str	r2, [r3]
  69:Source\TransformFunctions/arm_bitreversal.c ****          pSrc[(2u * j) + 1u] = in;
 149              		.loc 1 69 0
 150 00d0 1C23     		mov	r3, #28
 151 00d2 FB18     		add	r3, r7, r3
 152 00d4 1B88     		ldrh	r3, [r3]
 153 00d6 DB00     		lsl	r3, r3, #3
 154 00d8 0433     		add	r3, r3, #4
 155 00da FA68     		ldr	r2, [r7, #12]
 156 00dc D318     		add	r3, r2, r3
 157 00de 7A69     		ldr	r2, [r7, #20]
 158 00e0 1A60     		str	r2, [r3]
  70:Source\TransformFunctions/arm_bitreversal.c **** 
ARM GAS  C:\Users\fneves\AppData\Local\Temp\ccluy6EP.s 			page 5


  71:Source\TransformFunctions/arm_bitreversal.c ****          /*  pSrc[i+fftLenBy2p1] <-> pSrc[j+fftLenBy2p1] */
  72:Source\TransformFunctions/arm_bitreversal.c ****          in = pSrc[2u * (i + fftLenBy2p1)];
 159              		.loc 1 72 0
 160 00e2 1E23     		mov	r3, #30
 161 00e4 FB18     		add	r3, r7, r3
 162 00e6 1A88     		ldrh	r2, [r3]
 163 00e8 1823     		mov	r3, #24
 164 00ea FB18     		add	r3, r7, r3
 165 00ec 1B88     		ldrh	r3, [r3]
 166 00ee D318     		add	r3, r2, r3
 167 00f0 DB00     		lsl	r3, r3, #3
 168 00f2 FA68     		ldr	r2, [r7, #12]
 169 00f4 D318     		add	r3, r2, r3
 170 00f6 1B68     		ldr	r3, [r3]
 171 00f8 7B61     		str	r3, [r7, #20]
  73:Source\TransformFunctions/arm_bitreversal.c ****          pSrc[2u * (i + fftLenBy2p1)] = pSrc[2u * (j + fftLenBy2p1)];
 172              		.loc 1 73 0
 173 00fa 1E23     		mov	r3, #30
 174 00fc FB18     		add	r3, r7, r3
 175 00fe 1A88     		ldrh	r2, [r3]
 176 0100 1823     		mov	r3, #24
 177 0102 FB18     		add	r3, r7, r3
 178 0104 1B88     		ldrh	r3, [r3]
 179 0106 D318     		add	r3, r2, r3
 180 0108 DB00     		lsl	r3, r3, #3
 181 010a FA68     		ldr	r2, [r7, #12]
 182 010c D318     		add	r3, r2, r3
 183 010e 1C22     		mov	r2, #28
 184 0110 BA18     		add	r2, r7, r2
 185 0112 1188     		ldrh	r1, [r2]
 186 0114 1822     		mov	r2, #24
 187 0116 BA18     		add	r2, r7, r2
 188 0118 1288     		ldrh	r2, [r2]
 189 011a 8A18     		add	r2, r1, r2
 190 011c D200     		lsl	r2, r2, #3
 191 011e F968     		ldr	r1, [r7, #12]
 192 0120 8A18     		add	r2, r1, r2
 193 0122 1268     		ldr	r2, [r2]
 194 0124 1A60     		str	r2, [r3]
  74:Source\TransformFunctions/arm_bitreversal.c ****          pSrc[2u * (j + fftLenBy2p1)] = in;
 195              		.loc 1 74 0
 196 0126 1C23     		mov	r3, #28
 197 0128 FB18     		add	r3, r7, r3
 198 012a 1A88     		ldrh	r2, [r3]
 199 012c 1823     		mov	r3, #24
 200 012e FB18     		add	r3, r7, r3
 201 0130 1B88     		ldrh	r3, [r3]
 202 0132 D318     		add	r3, r2, r3
 203 0134 DB00     		lsl	r3, r3, #3
 204 0136 FA68     		ldr	r2, [r7, #12]
 205 0138 D318     		add	r3, r2, r3
 206 013a 7A69     		ldr	r2, [r7, #20]
 207 013c 1A60     		str	r2, [r3]
  75:Source\TransformFunctions/arm_bitreversal.c **** 
  76:Source\TransformFunctions/arm_bitreversal.c ****          /*  pSrc[i+fftLenBy2p1+1u] <-> pSrc[j+fftLenBy2p1+1u] */
  77:Source\TransformFunctions/arm_bitreversal.c ****          in = pSrc[(2u * (i + fftLenBy2p1)) + 1u];
 208              		.loc 1 77 0
ARM GAS  C:\Users\fneves\AppData\Local\Temp\ccluy6EP.s 			page 6


 209 013e 1E23     		mov	r3, #30
 210 0140 FB18     		add	r3, r7, r3
 211 0142 1A88     		ldrh	r2, [r3]
 212 0144 1823     		mov	r3, #24
 213 0146 FB18     		add	r3, r7, r3
 214 0148 1B88     		ldrh	r3, [r3]
 215 014a D318     		add	r3, r2, r3
 216 014c DB00     		lsl	r3, r3, #3
 217 014e 0433     		add	r3, r3, #4
 218 0150 FA68     		ldr	r2, [r7, #12]
 219 0152 D318     		add	r3, r2, r3
 220 0154 1B68     		ldr	r3, [r3]
 221 0156 7B61     		str	r3, [r7, #20]
  78:Source\TransformFunctions/arm_bitreversal.c ****          pSrc[(2u * (i + fftLenBy2p1)) + 1u] =
 222              		.loc 1 78 0
 223 0158 1E23     		mov	r3, #30
 224 015a FB18     		add	r3, r7, r3
 225 015c 1A88     		ldrh	r2, [r3]
 226 015e 1823     		mov	r3, #24
 227 0160 FB18     		add	r3, r7, r3
 228 0162 1B88     		ldrh	r3, [r3]
 229 0164 D318     		add	r3, r2, r3
 230 0166 DB00     		lsl	r3, r3, #3
 231 0168 0433     		add	r3, r3, #4
 232 016a FA68     		ldr	r2, [r7, #12]
 233 016c D318     		add	r3, r2, r3
  79:Source\TransformFunctions/arm_bitreversal.c ****          pSrc[(2u * (j + fftLenBy2p1)) + 1u];
 234              		.loc 1 79 0
 235 016e 1C22     		mov	r2, #28
 236 0170 BA18     		add	r2, r7, r2
 237 0172 1188     		ldrh	r1, [r2]
 238 0174 1822     		mov	r2, #24
 239 0176 BA18     		add	r2, r7, r2
 240 0178 1288     		ldrh	r2, [r2]
 241 017a 8A18     		add	r2, r1, r2
 242 017c D200     		lsl	r2, r2, #3
 243 017e 0432     		add	r2, r2, #4
 244 0180 F968     		ldr	r1, [r7, #12]
 245 0182 8A18     		add	r2, r1, r2
 246 0184 1268     		ldr	r2, [r2]
  78:Source\TransformFunctions/arm_bitreversal.c ****          pSrc[(2u * (i + fftLenBy2p1)) + 1u] =
 247              		.loc 1 78 0
 248 0186 1A60     		str	r2, [r3]
  80:Source\TransformFunctions/arm_bitreversal.c ****          pSrc[(2u * (j + fftLenBy2p1)) + 1u] = in;
 249              		.loc 1 80 0
 250 0188 1C23     		mov	r3, #28
 251 018a FB18     		add	r3, r7, r3
 252 018c 1A88     		ldrh	r2, [r3]
 253 018e 1823     		mov	r3, #24
 254 0190 FB18     		add	r3, r7, r3
 255 0192 1B88     		ldrh	r3, [r3]
 256 0194 D318     		add	r3, r2, r3
 257 0196 DB00     		lsl	r3, r3, #3
 258 0198 0433     		add	r3, r3, #4
 259 019a FA68     		ldr	r2, [r7, #12]
 260 019c D318     		add	r3, r2, r3
 261 019e 7A69     		ldr	r2, [r7, #20]
ARM GAS  C:\Users\fneves\AppData\Local\Temp\ccluy6EP.s 			page 7


 262 01a0 1A60     		str	r2, [r3]
 263              	.L3:
  81:Source\TransformFunctions/arm_bitreversal.c **** 
  82:Source\TransformFunctions/arm_bitreversal.c ****       }
  83:Source\TransformFunctions/arm_bitreversal.c **** 
  84:Source\TransformFunctions/arm_bitreversal.c ****       /*  pSrc[i+1u] <-> pSrc[j+1u] */
  85:Source\TransformFunctions/arm_bitreversal.c ****       in = pSrc[2u * (i + 1u)];
 264              		.loc 1 85 0 discriminator 2
 265 01a2 1E23     		mov	r3, #30
 266 01a4 FB18     		add	r3, r7, r3
 267 01a6 1B88     		ldrh	r3, [r3]
 268 01a8 0133     		add	r3, r3, #1
 269 01aa DB00     		lsl	r3, r3, #3
 270 01ac FA68     		ldr	r2, [r7, #12]
 271 01ae D318     		add	r3, r2, r3
 272 01b0 1B68     		ldr	r3, [r3]
 273 01b2 7B61     		str	r3, [r7, #20]
  86:Source\TransformFunctions/arm_bitreversal.c ****       pSrc[2u * (i + 1u)] = pSrc[2u * (j + fftLenBy2)];
 274              		.loc 1 86 0 discriminator 2
 275 01b4 1E23     		mov	r3, #30
 276 01b6 FB18     		add	r3, r7, r3
 277 01b8 1B88     		ldrh	r3, [r3]
 278 01ba 0133     		add	r3, r3, #1
 279 01bc DB00     		lsl	r3, r3, #3
 280 01be FA68     		ldr	r2, [r7, #12]
 281 01c0 D318     		add	r3, r2, r3
 282 01c2 1C22     		mov	r2, #28
 283 01c4 BA18     		add	r2, r7, r2
 284 01c6 1188     		ldrh	r1, [r2]
 285 01c8 1A22     		mov	r2, #26
 286 01ca BA18     		add	r2, r7, r2
 287 01cc 1288     		ldrh	r2, [r2]
 288 01ce 8A18     		add	r2, r1, r2
 289 01d0 D200     		lsl	r2, r2, #3
 290 01d2 F968     		ldr	r1, [r7, #12]
 291 01d4 8A18     		add	r2, r1, r2
 292 01d6 1268     		ldr	r2, [r2]
 293 01d8 1A60     		str	r2, [r3]
  87:Source\TransformFunctions/arm_bitreversal.c ****       pSrc[2u * (j + fftLenBy2)] = in;
 294              		.loc 1 87 0 discriminator 2
 295 01da 1C23     		mov	r3, #28
 296 01dc FB18     		add	r3, r7, r3
 297 01de 1A88     		ldrh	r2, [r3]
 298 01e0 1A23     		mov	r3, #26
 299 01e2 FB18     		add	r3, r7, r3
 300 01e4 1B88     		ldrh	r3, [r3]
 301 01e6 D318     		add	r3, r2, r3
 302 01e8 DB00     		lsl	r3, r3, #3
 303 01ea FA68     		ldr	r2, [r7, #12]
 304 01ec D318     		add	r3, r2, r3
 305 01ee 7A69     		ldr	r2, [r7, #20]
 306 01f0 1A60     		str	r2, [r3]
  88:Source\TransformFunctions/arm_bitreversal.c **** 
  89:Source\TransformFunctions/arm_bitreversal.c ****       /*  pSrc[i+2u] <-> pSrc[j+2u] */
  90:Source\TransformFunctions/arm_bitreversal.c ****       in = pSrc[(2u * (i + 1u)) + 1u];
 307              		.loc 1 90 0 discriminator 2
 308 01f2 1E23     		mov	r3, #30
ARM GAS  C:\Users\fneves\AppData\Local\Temp\ccluy6EP.s 			page 8


 309 01f4 FB18     		add	r3, r7, r3
 310 01f6 1B88     		ldrh	r3, [r3]
 311 01f8 0133     		add	r3, r3, #1
 312 01fa DB00     		lsl	r3, r3, #3
 313 01fc 0433     		add	r3, r3, #4
 314 01fe FA68     		ldr	r2, [r7, #12]
 315 0200 D318     		add	r3, r2, r3
 316 0202 1B68     		ldr	r3, [r3]
 317 0204 7B61     		str	r3, [r7, #20]
  91:Source\TransformFunctions/arm_bitreversal.c ****       pSrc[(2u * (i + 1u)) + 1u] = pSrc[(2u * (j + fftLenBy2)) + 1u];
 318              		.loc 1 91 0 discriminator 2
 319 0206 1E23     		mov	r3, #30
 320 0208 FB18     		add	r3, r7, r3
 321 020a 1B88     		ldrh	r3, [r3]
 322 020c 0133     		add	r3, r3, #1
 323 020e DB00     		lsl	r3, r3, #3
 324 0210 0433     		add	r3, r3, #4
 325 0212 FA68     		ldr	r2, [r7, #12]
 326 0214 D318     		add	r3, r2, r3
 327 0216 1C22     		mov	r2, #28
 328 0218 BA18     		add	r2, r7, r2
 329 021a 1188     		ldrh	r1, [r2]
 330 021c 1A22     		mov	r2, #26
 331 021e BA18     		add	r2, r7, r2
 332 0220 1288     		ldrh	r2, [r2]
 333 0222 8A18     		add	r2, r1, r2
 334 0224 D200     		lsl	r2, r2, #3
 335 0226 0432     		add	r2, r2, #4
 336 0228 F968     		ldr	r1, [r7, #12]
 337 022a 8A18     		add	r2, r1, r2
 338 022c 1268     		ldr	r2, [r2]
 339 022e 1A60     		str	r2, [r3]
  92:Source\TransformFunctions/arm_bitreversal.c ****       pSrc[(2u * (j + fftLenBy2)) + 1u] = in;
 340              		.loc 1 92 0 discriminator 2
 341 0230 1C23     		mov	r3, #28
 342 0232 FB18     		add	r3, r7, r3
 343 0234 1A88     		ldrh	r2, [r3]
 344 0236 1A23     		mov	r3, #26
 345 0238 FB18     		add	r3, r7, r3
 346 023a 1B88     		ldrh	r3, [r3]
 347 023c D318     		add	r3, r2, r3
 348 023e DB00     		lsl	r3, r3, #3
 349 0240 0433     		add	r3, r3, #4
 350 0242 FA68     		ldr	r2, [r7, #12]
 351 0244 D318     		add	r3, r2, r3
 352 0246 7A69     		ldr	r2, [r7, #20]
 353 0248 1A60     		str	r2, [r3]
  93:Source\TransformFunctions/arm_bitreversal.c **** 
  94:Source\TransformFunctions/arm_bitreversal.c ****       /*  Reading the index for the bit reversal */
  95:Source\TransformFunctions/arm_bitreversal.c ****       j = *pBitRevTab;
 354              		.loc 1 95 0 discriminator 2
 355 024a 1C23     		mov	r3, #28
 356 024c FB18     		add	r3, r7, r3
 357 024e 7A68     		ldr	r2, [r7, #4]
 358 0250 1288     		ldrh	r2, [r2]
 359 0252 1A80     		strh	r2, [r3]
  96:Source\TransformFunctions/arm_bitreversal.c **** 
ARM GAS  C:\Users\fneves\AppData\Local\Temp\ccluy6EP.s 			page 9


  97:Source\TransformFunctions/arm_bitreversal.c ****       /*  Updating the bit reversal index depending on the fft length  */
  98:Source\TransformFunctions/arm_bitreversal.c ****       pBitRevTab += bitRevFactor;
 360              		.loc 1 98 0 discriminator 2
 361 0254 0823     		mov	r3, #8
 362 0256 FB18     		add	r3, r7, r3
 363 0258 1B88     		ldrh	r3, [r3]
 364 025a 5B00     		lsl	r3, r3, #1
 365 025c 7A68     		ldr	r2, [r7, #4]
 366 025e D318     		add	r3, r2, r3
 367 0260 7B60     		str	r3, [r7, #4]
  57:Source\TransformFunctions/arm_bitreversal.c ****    {
 368              		.loc 1 57 0 discriminator 2
 369 0262 1E23     		mov	r3, #30
 370 0264 FB18     		add	r3, r7, r3
 371 0266 1E22     		mov	r2, #30
 372 0268 BA18     		add	r2, r7, r2
 373 026a 1288     		ldrh	r2, [r2]
 374 026c 0232     		add	r2, r2, #2
 375 026e 1A80     		strh	r2, [r3]
 376              	.L2:
  57:Source\TransformFunctions/arm_bitreversal.c ****    {
 377              		.loc 1 57 0 is_stmt 0 discriminator 1
 378 0270 1E23     		mov	r3, #30
 379 0272 FB18     		add	r3, r7, r3
 380 0274 1A88     		ldrh	r2, [r3]
 381 0276 1A23     		mov	r3, #26
 382 0278 FB18     		add	r3, r7, r3
 383 027a 1B88     		ldrh	r3, [r3]
 384 027c 023B     		sub	r3, r3, #2
 385 027e 9A42     		cmp	r2, r3
 386 0280 00D8     		bhi	.LCB335
 387 0282 E5E6     		b	.L4	@long jump
 388              	.LCB335:
  99:Source\TransformFunctions/arm_bitreversal.c ****    }
 100:Source\TransformFunctions/arm_bitreversal.c **** }
 389              		.loc 1 100 0 is_stmt 1
 390 0284 BD46     		mov	sp, r7
 391 0286 08B0     		add	sp, sp, #32
 392              		@ sp needed
 393 0288 80BD     		pop	{r7, pc}
 394              		.cfi_endproc
 395              	.LFE82:
 396              		.size	arm_bitreversal_f32, .-arm_bitreversal_f32
 397 028a C046     		.section	.text.arm_bitreversal_q31,"ax",%progbits
 398              		.align	2
 399              		.global	arm_bitreversal_q31
 400              		.code	16
 401              		.thumb_func
 402              		.type	arm_bitreversal_q31, %function
 403              	arm_bitreversal_q31:
 404              	.LFB83:
 101:Source\TransformFunctions/arm_bitreversal.c **** 
 102:Source\TransformFunctions/arm_bitreversal.c **** 
 103:Source\TransformFunctions/arm_bitreversal.c **** 
 104:Source\TransformFunctions/arm_bitreversal.c **** /*
 105:Source\TransformFunctions/arm_bitreversal.c **** * @brief  In-place bit reversal function.
 106:Source\TransformFunctions/arm_bitreversal.c **** * @param[in, out] *pSrc        points to the in-place buffer of Q31 data type.
ARM GAS  C:\Users\fneves\AppData\Local\Temp\ccluy6EP.s 			page 10


 107:Source\TransformFunctions/arm_bitreversal.c **** * @param[in]      fftLen       length of the FFT.
 108:Source\TransformFunctions/arm_bitreversal.c **** * @param[in]      bitRevFactor bit reversal modifier that supports different size FFTs with the sam
 109:Source\TransformFunctions/arm_bitreversal.c **** * @param[in]      *pBitRevTab  points to bit reversal table.
 110:Source\TransformFunctions/arm_bitreversal.c **** * @return none.
 111:Source\TransformFunctions/arm_bitreversal.c **** */
 112:Source\TransformFunctions/arm_bitreversal.c **** 
 113:Source\TransformFunctions/arm_bitreversal.c **** void arm_bitreversal_q31(
 114:Source\TransformFunctions/arm_bitreversal.c **** q31_t * pSrc,
 115:Source\TransformFunctions/arm_bitreversal.c **** uint32_t fftLen,
 116:Source\TransformFunctions/arm_bitreversal.c **** uint16_t bitRevFactor,
 117:Source\TransformFunctions/arm_bitreversal.c **** uint16_t * pBitRevTable)
 118:Source\TransformFunctions/arm_bitreversal.c **** {
 405              		.loc 1 118 0
 406              		.cfi_startproc
 407 0000 80B5     		push	{r7, lr}
 408              		.cfi_def_cfa_offset 8
 409              		.cfi_offset 7, -8
 410              		.cfi_offset 14, -4
 411 0002 8AB0     		sub	sp, sp, #40
 412              		.cfi_def_cfa_offset 48
 413 0004 00AF     		add	r7, sp, #0
 414              		.cfi_def_cfa_register 7
 415 0006 F860     		str	r0, [r7, #12]
 416 0008 B960     		str	r1, [r7, #8]
 417 000a 3B60     		str	r3, [r7]
 418 000c BB1D     		add	r3, r7, #6
 419 000e 1A80     		strh	r2, [r3]
 119:Source\TransformFunctions/arm_bitreversal.c ****    uint32_t fftLenBy2, fftLenBy2p1, i, j;
 120:Source\TransformFunctions/arm_bitreversal.c ****    q31_t in;
 121:Source\TransformFunctions/arm_bitreversal.c **** 
 122:Source\TransformFunctions/arm_bitreversal.c ****    /*  Initializations      */
 123:Source\TransformFunctions/arm_bitreversal.c ****    j = 0u;
 420              		.loc 1 123 0
 421 0010 0023     		mov	r3, #0
 422 0012 3B62     		str	r3, [r7, #32]
 124:Source\TransformFunctions/arm_bitreversal.c ****    fftLenBy2 = fftLen / 2u;
 423              		.loc 1 124 0
 424 0014 BB68     		ldr	r3, [r7, #8]
 425 0016 5B08     		lsr	r3, r3, #1
 426 0018 FB61     		str	r3, [r7, #28]
 125:Source\TransformFunctions/arm_bitreversal.c ****    fftLenBy2p1 = (fftLen / 2u) + 1u;
 427              		.loc 1 125 0
 428 001a BB68     		ldr	r3, [r7, #8]
 429 001c 5B08     		lsr	r3, r3, #1
 430 001e 0133     		add	r3, r3, #1
 431 0020 BB61     		str	r3, [r7, #24]
 126:Source\TransformFunctions/arm_bitreversal.c **** 
 127:Source\TransformFunctions/arm_bitreversal.c ****    /* Bit Reversal Implementation */
 128:Source\TransformFunctions/arm_bitreversal.c ****    for (i = 0u; i <= (fftLenBy2 - 2u); i += 2u)
 432              		.loc 1 128 0
 433 0022 0023     		mov	r3, #0
 434 0024 7B62     		str	r3, [r7, #36]
 435 0026 BBE0     		b	.L6
 436              	.L8:
 129:Source\TransformFunctions/arm_bitreversal.c ****    {
 130:Source\TransformFunctions/arm_bitreversal.c ****       if (i < j)
 437              		.loc 1 130 0
ARM GAS  C:\Users\fneves\AppData\Local\Temp\ccluy6EP.s 			page 11


 438 0028 7A6A     		ldr	r2, [r7, #36]
 439 002a 3B6A     		ldr	r3, [r7, #32]
 440 002c 9A42     		cmp	r2, r3
 441 002e 6FD2     		bcs	.L7
 131:Source\TransformFunctions/arm_bitreversal.c ****       {
 132:Source\TransformFunctions/arm_bitreversal.c ****          /*  pSrc[i] <-> pSrc[j]; */
 133:Source\TransformFunctions/arm_bitreversal.c ****          in = pSrc[2u * i];
 442              		.loc 1 133 0
 443 0030 7B6A     		ldr	r3, [r7, #36]
 444 0032 DB00     		lsl	r3, r3, #3
 445 0034 FA68     		ldr	r2, [r7, #12]
 446 0036 D318     		add	r3, r2, r3
 447 0038 1B68     		ldr	r3, [r3]
 448 003a 7B61     		str	r3, [r7, #20]
 134:Source\TransformFunctions/arm_bitreversal.c ****          pSrc[2u * i] = pSrc[2u * j];
 449              		.loc 1 134 0
 450 003c 7B6A     		ldr	r3, [r7, #36]
 451 003e DB00     		lsl	r3, r3, #3
 452 0040 FA68     		ldr	r2, [r7, #12]
 453 0042 D318     		add	r3, r2, r3
 454 0044 3A6A     		ldr	r2, [r7, #32]
 455 0046 D200     		lsl	r2, r2, #3
 456 0048 F968     		ldr	r1, [r7, #12]
 457 004a 8A18     		add	r2, r1, r2
 458 004c 1268     		ldr	r2, [r2]
 459 004e 1A60     		str	r2, [r3]
 135:Source\TransformFunctions/arm_bitreversal.c ****          pSrc[2u * j] = in;
 460              		.loc 1 135 0
 461 0050 3B6A     		ldr	r3, [r7, #32]
 462 0052 DB00     		lsl	r3, r3, #3
 463 0054 FA68     		ldr	r2, [r7, #12]
 464 0056 D318     		add	r3, r2, r3
 465 0058 7A69     		ldr	r2, [r7, #20]
 466 005a 1A60     		str	r2, [r3]
 136:Source\TransformFunctions/arm_bitreversal.c **** 
 137:Source\TransformFunctions/arm_bitreversal.c ****          /*  pSrc[i+1u] <-> pSrc[j+1u] */
 138:Source\TransformFunctions/arm_bitreversal.c ****          in = pSrc[(2u * i) + 1u];
 467              		.loc 1 138 0
 468 005c 7B6A     		ldr	r3, [r7, #36]
 469 005e DB00     		lsl	r3, r3, #3
 470 0060 0433     		add	r3, r3, #4
 471 0062 FA68     		ldr	r2, [r7, #12]
 472 0064 D318     		add	r3, r2, r3
 473 0066 1B68     		ldr	r3, [r3]
 474 0068 7B61     		str	r3, [r7, #20]
 139:Source\TransformFunctions/arm_bitreversal.c ****          pSrc[(2u * i) + 1u] = pSrc[(2u * j) + 1u];
 475              		.loc 1 139 0
 476 006a 7B6A     		ldr	r3, [r7, #36]
 477 006c DB00     		lsl	r3, r3, #3
 478 006e 0433     		add	r3, r3, #4
 479 0070 FA68     		ldr	r2, [r7, #12]
 480 0072 D318     		add	r3, r2, r3
 481 0074 3A6A     		ldr	r2, [r7, #32]
 482 0076 D200     		lsl	r2, r2, #3
 483 0078 0432     		add	r2, r2, #4
 484 007a F968     		ldr	r1, [r7, #12]
 485 007c 8A18     		add	r2, r1, r2
ARM GAS  C:\Users\fneves\AppData\Local\Temp\ccluy6EP.s 			page 12


 486 007e 1268     		ldr	r2, [r2]
 487 0080 1A60     		str	r2, [r3]
 140:Source\TransformFunctions/arm_bitreversal.c ****          pSrc[(2u * j) + 1u] = in;
 488              		.loc 1 140 0
 489 0082 3B6A     		ldr	r3, [r7, #32]
 490 0084 DB00     		lsl	r3, r3, #3
 491 0086 0433     		add	r3, r3, #4
 492 0088 FA68     		ldr	r2, [r7, #12]
 493 008a D318     		add	r3, r2, r3
 494 008c 7A69     		ldr	r2, [r7, #20]
 495 008e 1A60     		str	r2, [r3]
 141:Source\TransformFunctions/arm_bitreversal.c **** 
 142:Source\TransformFunctions/arm_bitreversal.c ****          /*  pSrc[i+fftLenBy2p1] <-> pSrc[j+fftLenBy2p1] */
 143:Source\TransformFunctions/arm_bitreversal.c ****          in = pSrc[2u * (i + fftLenBy2p1)];
 496              		.loc 1 143 0
 497 0090 7A6A     		ldr	r2, [r7, #36]
 498 0092 BB69     		ldr	r3, [r7, #24]
 499 0094 D318     		add	r3, r2, r3
 500 0096 DB00     		lsl	r3, r3, #3
 501 0098 FA68     		ldr	r2, [r7, #12]
 502 009a D318     		add	r3, r2, r3
 503 009c 1B68     		ldr	r3, [r3]
 504 009e 7B61     		str	r3, [r7, #20]
 144:Source\TransformFunctions/arm_bitreversal.c ****          pSrc[2u * (i + fftLenBy2p1)] = pSrc[2u * (j + fftLenBy2p1)];
 505              		.loc 1 144 0
 506 00a0 7A6A     		ldr	r2, [r7, #36]
 507 00a2 BB69     		ldr	r3, [r7, #24]
 508 00a4 D318     		add	r3, r2, r3
 509 00a6 DB00     		lsl	r3, r3, #3
 510 00a8 FA68     		ldr	r2, [r7, #12]
 511 00aa D318     		add	r3, r2, r3
 512 00ac 396A     		ldr	r1, [r7, #32]
 513 00ae BA69     		ldr	r2, [r7, #24]
 514 00b0 8A18     		add	r2, r1, r2
 515 00b2 D200     		lsl	r2, r2, #3
 516 00b4 F968     		ldr	r1, [r7, #12]
 517 00b6 8A18     		add	r2, r1, r2
 518 00b8 1268     		ldr	r2, [r2]
 519 00ba 1A60     		str	r2, [r3]
 145:Source\TransformFunctions/arm_bitreversal.c ****          pSrc[2u * (j + fftLenBy2p1)] = in;
 520              		.loc 1 145 0
 521 00bc 3A6A     		ldr	r2, [r7, #32]
 522 00be BB69     		ldr	r3, [r7, #24]
 523 00c0 D318     		add	r3, r2, r3
 524 00c2 DB00     		lsl	r3, r3, #3
 525 00c4 FA68     		ldr	r2, [r7, #12]
 526 00c6 D318     		add	r3, r2, r3
 527 00c8 7A69     		ldr	r2, [r7, #20]
 528 00ca 1A60     		str	r2, [r3]
 146:Source\TransformFunctions/arm_bitreversal.c **** 
 147:Source\TransformFunctions/arm_bitreversal.c ****          /*  pSrc[i+fftLenBy2p1+1u] <-> pSrc[j+fftLenBy2p1+1u] */
 148:Source\TransformFunctions/arm_bitreversal.c ****          in = pSrc[(2u * (i + fftLenBy2p1)) + 1u];
 529              		.loc 1 148 0
 530 00cc 7A6A     		ldr	r2, [r7, #36]
 531 00ce BB69     		ldr	r3, [r7, #24]
 532 00d0 D318     		add	r3, r2, r3
 533 00d2 DB00     		lsl	r3, r3, #3
ARM GAS  C:\Users\fneves\AppData\Local\Temp\ccluy6EP.s 			page 13


 534 00d4 0433     		add	r3, r3, #4
 535 00d6 FA68     		ldr	r2, [r7, #12]
 536 00d8 D318     		add	r3, r2, r3
 537 00da 1B68     		ldr	r3, [r3]
 538 00dc 7B61     		str	r3, [r7, #20]
 149:Source\TransformFunctions/arm_bitreversal.c ****          pSrc[(2u * (i + fftLenBy2p1)) + 1u] =
 539              		.loc 1 149 0
 540 00de 7A6A     		ldr	r2, [r7, #36]
 541 00e0 BB69     		ldr	r3, [r7, #24]
 542 00e2 D318     		add	r3, r2, r3
 543 00e4 DB00     		lsl	r3, r3, #3
 544 00e6 0433     		add	r3, r3, #4
 545 00e8 FA68     		ldr	r2, [r7, #12]
 546 00ea D318     		add	r3, r2, r3
 150:Source\TransformFunctions/arm_bitreversal.c ****          pSrc[(2u * (j + fftLenBy2p1)) + 1u];
 547              		.loc 1 150 0
 548 00ec 396A     		ldr	r1, [r7, #32]
 549 00ee BA69     		ldr	r2, [r7, #24]
 550 00f0 8A18     		add	r2, r1, r2
 551 00f2 D200     		lsl	r2, r2, #3
 552 00f4 0432     		add	r2, r2, #4
 553 00f6 F968     		ldr	r1, [r7, #12]
 554 00f8 8A18     		add	r2, r1, r2
 555 00fa 1268     		ldr	r2, [r2]
 149:Source\TransformFunctions/arm_bitreversal.c ****          pSrc[(2u * (i + fftLenBy2p1)) + 1u] =
 556              		.loc 1 149 0
 557 00fc 1A60     		str	r2, [r3]
 151:Source\TransformFunctions/arm_bitreversal.c ****          pSrc[(2u * (j + fftLenBy2p1)) + 1u] = in;
 558              		.loc 1 151 0
 559 00fe 3A6A     		ldr	r2, [r7, #32]
 560 0100 BB69     		ldr	r3, [r7, #24]
 561 0102 D318     		add	r3, r2, r3
 562 0104 DB00     		lsl	r3, r3, #3
 563 0106 0433     		add	r3, r3, #4
 564 0108 FA68     		ldr	r2, [r7, #12]
 565 010a D318     		add	r3, r2, r3
 566 010c 7A69     		ldr	r2, [r7, #20]
 567 010e 1A60     		str	r2, [r3]
 568              	.L7:
 152:Source\TransformFunctions/arm_bitreversal.c **** 
 153:Source\TransformFunctions/arm_bitreversal.c ****       }
 154:Source\TransformFunctions/arm_bitreversal.c **** 
 155:Source\TransformFunctions/arm_bitreversal.c ****       /*  pSrc[i+1u] <-> pSrc[j+1u] */
 156:Source\TransformFunctions/arm_bitreversal.c ****       in = pSrc[2u * (i + 1u)];
 569              		.loc 1 156 0 discriminator 2
 570 0110 7B6A     		ldr	r3, [r7, #36]
 571 0112 0133     		add	r3, r3, #1
 572 0114 DB00     		lsl	r3, r3, #3
 573 0116 FA68     		ldr	r2, [r7, #12]
 574 0118 D318     		add	r3, r2, r3
 575 011a 1B68     		ldr	r3, [r3]
 576 011c 7B61     		str	r3, [r7, #20]
 157:Source\TransformFunctions/arm_bitreversal.c ****       pSrc[2u * (i + 1u)] = pSrc[2u * (j + fftLenBy2)];
 577              		.loc 1 157 0 discriminator 2
 578 011e 7B6A     		ldr	r3, [r7, #36]
 579 0120 0133     		add	r3, r3, #1
 580 0122 DB00     		lsl	r3, r3, #3
ARM GAS  C:\Users\fneves\AppData\Local\Temp\ccluy6EP.s 			page 14


 581 0124 FA68     		ldr	r2, [r7, #12]
 582 0126 D318     		add	r3, r2, r3
 583 0128 396A     		ldr	r1, [r7, #32]
 584 012a FA69     		ldr	r2, [r7, #28]
 585 012c 8A18     		add	r2, r1, r2
 586 012e D200     		lsl	r2, r2, #3
 587 0130 F968     		ldr	r1, [r7, #12]
 588 0132 8A18     		add	r2, r1, r2
 589 0134 1268     		ldr	r2, [r2]
 590 0136 1A60     		str	r2, [r3]
 158:Source\TransformFunctions/arm_bitreversal.c ****       pSrc[2u * (j + fftLenBy2)] = in;
 591              		.loc 1 158 0 discriminator 2
 592 0138 3A6A     		ldr	r2, [r7, #32]
 593 013a FB69     		ldr	r3, [r7, #28]
 594 013c D318     		add	r3, r2, r3
 595 013e DB00     		lsl	r3, r3, #3
 596 0140 FA68     		ldr	r2, [r7, #12]
 597 0142 D318     		add	r3, r2, r3
 598 0144 7A69     		ldr	r2, [r7, #20]
 599 0146 1A60     		str	r2, [r3]
 159:Source\TransformFunctions/arm_bitreversal.c **** 
 160:Source\TransformFunctions/arm_bitreversal.c ****       /*  pSrc[i+2u] <-> pSrc[j+2u] */
 161:Source\TransformFunctions/arm_bitreversal.c ****       in = pSrc[(2u * (i + 1u)) + 1u];
 600              		.loc 1 161 0 discriminator 2
 601 0148 7B6A     		ldr	r3, [r7, #36]
 602 014a 0133     		add	r3, r3, #1
 603 014c DB00     		lsl	r3, r3, #3
 604 014e 0433     		add	r3, r3, #4
 605 0150 FA68     		ldr	r2, [r7, #12]
 606 0152 D318     		add	r3, r2, r3
 607 0154 1B68     		ldr	r3, [r3]
 608 0156 7B61     		str	r3, [r7, #20]
 162:Source\TransformFunctions/arm_bitreversal.c ****       pSrc[(2u * (i + 1u)) + 1u] = pSrc[(2u * (j + fftLenBy2)) + 1u];
 609              		.loc 1 162 0 discriminator 2
 610 0158 7B6A     		ldr	r3, [r7, #36]
 611 015a 0133     		add	r3, r3, #1
 612 015c DB00     		lsl	r3, r3, #3
 613 015e 0433     		add	r3, r3, #4
 614 0160 FA68     		ldr	r2, [r7, #12]
 615 0162 D318     		add	r3, r2, r3
 616 0164 396A     		ldr	r1, [r7, #32]
 617 0166 FA69     		ldr	r2, [r7, #28]
 618 0168 8A18     		add	r2, r1, r2
 619 016a D200     		lsl	r2, r2, #3
 620 016c 0432     		add	r2, r2, #4
 621 016e F968     		ldr	r1, [r7, #12]
 622 0170 8A18     		add	r2, r1, r2
 623 0172 1268     		ldr	r2, [r2]
 624 0174 1A60     		str	r2, [r3]
 163:Source\TransformFunctions/arm_bitreversal.c ****       pSrc[(2u * (j + fftLenBy2)) + 1u] = in;
 625              		.loc 1 163 0 discriminator 2
 626 0176 3A6A     		ldr	r2, [r7, #32]
 627 0178 FB69     		ldr	r3, [r7, #28]
 628 017a D318     		add	r3, r2, r3
 629 017c DB00     		lsl	r3, r3, #3
 630 017e 0433     		add	r3, r3, #4
 631 0180 FA68     		ldr	r2, [r7, #12]
ARM GAS  C:\Users\fneves\AppData\Local\Temp\ccluy6EP.s 			page 15


 632 0182 D318     		add	r3, r2, r3
 633 0184 7A69     		ldr	r2, [r7, #20]
 634 0186 1A60     		str	r2, [r3]
 164:Source\TransformFunctions/arm_bitreversal.c **** 
 165:Source\TransformFunctions/arm_bitreversal.c ****       /*  Reading the index for the bit reversal */
 166:Source\TransformFunctions/arm_bitreversal.c ****       j = *pBitRevTable;
 635              		.loc 1 166 0 discriminator 2
 636 0188 3B68     		ldr	r3, [r7]
 637 018a 1B88     		ldrh	r3, [r3]
 638 018c 3B62     		str	r3, [r7, #32]
 167:Source\TransformFunctions/arm_bitreversal.c **** 
 168:Source\TransformFunctions/arm_bitreversal.c ****       /*  Updating the bit reversal index depending on the fft length */
 169:Source\TransformFunctions/arm_bitreversal.c ****       pBitRevTable += bitRevFactor;
 639              		.loc 1 169 0 discriminator 2
 640 018e BB1D     		add	r3, r7, #6
 641 0190 1B88     		ldrh	r3, [r3]
 642 0192 5B00     		lsl	r3, r3, #1
 643 0194 3A68     		ldr	r2, [r7]
 644 0196 D318     		add	r3, r2, r3
 645 0198 3B60     		str	r3, [r7]
 128:Source\TransformFunctions/arm_bitreversal.c ****    {
 646              		.loc 1 128 0 discriminator 2
 647 019a 7B6A     		ldr	r3, [r7, #36]
 648 019c 0233     		add	r3, r3, #2
 649 019e 7B62     		str	r3, [r7, #36]
 650              	.L6:
 128:Source\TransformFunctions/arm_bitreversal.c ****    {
 651              		.loc 1 128 0 is_stmt 0 discriminator 1
 652 01a0 FB69     		ldr	r3, [r7, #28]
 653 01a2 9A1E     		sub	r2, r3, #2
 654 01a4 7B6A     		ldr	r3, [r7, #36]
 655 01a6 9A42     		cmp	r2, r3
 656 01a8 00D3     		bcc	.LCB574
 657 01aa 3DE7     		b	.L8	@long jump
 658              	.LCB574:
 170:Source\TransformFunctions/arm_bitreversal.c ****    }
 171:Source\TransformFunctions/arm_bitreversal.c **** }
 659              		.loc 1 171 0 is_stmt 1
 660 01ac BD46     		mov	sp, r7
 661 01ae 0AB0     		add	sp, sp, #40
 662              		@ sp needed
 663 01b0 80BD     		pop	{r7, pc}
 664              		.cfi_endproc
 665              	.LFE83:
 666              		.size	arm_bitreversal_q31, .-arm_bitreversal_q31
 667 01b2 C046     		.section	.text.arm_bitreversal_q15,"ax",%progbits
 668              		.align	2
 669              		.global	arm_bitreversal_q15
 670              		.code	16
 671              		.thumb_func
 672              		.type	arm_bitreversal_q15, %function
 673              	arm_bitreversal_q15:
 674              	.LFB84:
 172:Source\TransformFunctions/arm_bitreversal.c **** 
 173:Source\TransformFunctions/arm_bitreversal.c **** 
 174:Source\TransformFunctions/arm_bitreversal.c **** 
 175:Source\TransformFunctions/arm_bitreversal.c **** /*
ARM GAS  C:\Users\fneves\AppData\Local\Temp\ccluy6EP.s 			page 16


 176:Source\TransformFunctions/arm_bitreversal.c ****    * @brief  In-place bit reversal function.
 177:Source\TransformFunctions/arm_bitreversal.c ****    * @param[in, out] *pSrc        points to the in-place buffer of Q15 data type.
 178:Source\TransformFunctions/arm_bitreversal.c ****    * @param[in]      fftLen       length of the FFT.
 179:Source\TransformFunctions/arm_bitreversal.c ****    * @param[in]      bitRevFactor bit reversal modifier that supports different size FFTs with the 
 180:Source\TransformFunctions/arm_bitreversal.c ****    * @param[in]      *pBitRevTab  points to bit reversal table.
 181:Source\TransformFunctions/arm_bitreversal.c ****    * @return none.
 182:Source\TransformFunctions/arm_bitreversal.c **** */
 183:Source\TransformFunctions/arm_bitreversal.c **** 
 184:Source\TransformFunctions/arm_bitreversal.c **** void arm_bitreversal_q15(
 185:Source\TransformFunctions/arm_bitreversal.c **** q15_t * pSrc16,
 186:Source\TransformFunctions/arm_bitreversal.c **** uint32_t fftLen,
 187:Source\TransformFunctions/arm_bitreversal.c **** uint16_t bitRevFactor,
 188:Source\TransformFunctions/arm_bitreversal.c **** uint16_t * pBitRevTab)
 189:Source\TransformFunctions/arm_bitreversal.c **** {
 675              		.loc 1 189 0
 676              		.cfi_startproc
 677 0000 80B5     		push	{r7, lr}
 678              		.cfi_def_cfa_offset 8
 679              		.cfi_offset 7, -8
 680              		.cfi_offset 14, -4
 681 0002 8AB0     		sub	sp, sp, #40
 682              		.cfi_def_cfa_offset 48
 683 0004 00AF     		add	r7, sp, #0
 684              		.cfi_def_cfa_register 7
 685 0006 F860     		str	r0, [r7, #12]
 686 0008 B960     		str	r1, [r7, #8]
 687 000a 3B60     		str	r3, [r7]
 688 000c BB1D     		add	r3, r7, #6
 689 000e 1A80     		strh	r2, [r3]
 190:Source\TransformFunctions/arm_bitreversal.c ****    q31_t *pSrc = (q31_t *) pSrc16;
 690              		.loc 1 190 0
 691 0010 FB68     		ldr	r3, [r7, #12]
 692 0012 FB61     		str	r3, [r7, #28]
 191:Source\TransformFunctions/arm_bitreversal.c ****    q31_t in;
 192:Source\TransformFunctions/arm_bitreversal.c ****    uint32_t fftLenBy2, fftLenBy2p1;
 193:Source\TransformFunctions/arm_bitreversal.c ****    uint32_t i, j;
 194:Source\TransformFunctions/arm_bitreversal.c **** 
 195:Source\TransformFunctions/arm_bitreversal.c ****    /*  Initializations */
 196:Source\TransformFunctions/arm_bitreversal.c ****    j = 0u;
 693              		.loc 1 196 0
 694 0014 0023     		mov	r3, #0
 695 0016 3B62     		str	r3, [r7, #32]
 197:Source\TransformFunctions/arm_bitreversal.c ****    fftLenBy2 = fftLen / 2u;
 696              		.loc 1 197 0
 697 0018 BB68     		ldr	r3, [r7, #8]
 698 001a 5B08     		lsr	r3, r3, #1
 699 001c BB61     		str	r3, [r7, #24]
 198:Source\TransformFunctions/arm_bitreversal.c ****    fftLenBy2p1 = (fftLen / 2u) + 1u;
 700              		.loc 1 198 0
 701 001e BB68     		ldr	r3, [r7, #8]
 702 0020 5B08     		lsr	r3, r3, #1
 703 0022 0133     		add	r3, r3, #1
 704 0024 7B61     		str	r3, [r7, #20]
 199:Source\TransformFunctions/arm_bitreversal.c **** 
 200:Source\TransformFunctions/arm_bitreversal.c ****    /* Bit Reversal Implementation */
 201:Source\TransformFunctions/arm_bitreversal.c ****    for (i = 0u; i <= (fftLenBy2 - 2u); i += 2u)
 705              		.loc 1 201 0
ARM GAS  C:\Users\fneves\AppData\Local\Temp\ccluy6EP.s 			page 17


 706 0026 0023     		mov	r3, #0
 707 0028 7B62     		str	r3, [r7, #36]
 708 002a 5FE0     		b	.L10
 709              	.L12:
 202:Source\TransformFunctions/arm_bitreversal.c ****    {
 203:Source\TransformFunctions/arm_bitreversal.c ****       if (i < j)
 710              		.loc 1 203 0
 711 002c 7A6A     		ldr	r2, [r7, #36]
 712 002e 3B6A     		ldr	r3, [r7, #32]
 713 0030 9A42     		cmp	r2, r3
 714 0032 33D2     		bcs	.L11
 204:Source\TransformFunctions/arm_bitreversal.c ****       {
 205:Source\TransformFunctions/arm_bitreversal.c ****          /*  pSrc[i] <-> pSrc[j]; */
 206:Source\TransformFunctions/arm_bitreversal.c ****          /*  pSrc[i+1u] <-> pSrc[j+1u] */
 207:Source\TransformFunctions/arm_bitreversal.c ****          in = pSrc[i];
 715              		.loc 1 207 0
 716 0034 7B6A     		ldr	r3, [r7, #36]
 717 0036 9B00     		lsl	r3, r3, #2
 718 0038 FA69     		ldr	r2, [r7, #28]
 719 003a D318     		add	r3, r2, r3
 720 003c 1B68     		ldr	r3, [r3]
 721 003e 3B61     		str	r3, [r7, #16]
 208:Source\TransformFunctions/arm_bitreversal.c ****          pSrc[i] = pSrc[j];
 722              		.loc 1 208 0
 723 0040 7B6A     		ldr	r3, [r7, #36]
 724 0042 9B00     		lsl	r3, r3, #2
 725 0044 FA69     		ldr	r2, [r7, #28]
 726 0046 D318     		add	r3, r2, r3
 727 0048 3A6A     		ldr	r2, [r7, #32]
 728 004a 9200     		lsl	r2, r2, #2
 729 004c F969     		ldr	r1, [r7, #28]
 730 004e 8A18     		add	r2, r1, r2
 731 0050 1268     		ldr	r2, [r2]
 732 0052 1A60     		str	r2, [r3]
 209:Source\TransformFunctions/arm_bitreversal.c ****          pSrc[j] = in;
 733              		.loc 1 209 0
 734 0054 3B6A     		ldr	r3, [r7, #32]
 735 0056 9B00     		lsl	r3, r3, #2
 736 0058 FA69     		ldr	r2, [r7, #28]
 737 005a D318     		add	r3, r2, r3
 738 005c 3A69     		ldr	r2, [r7, #16]
 739 005e 1A60     		str	r2, [r3]
 210:Source\TransformFunctions/arm_bitreversal.c **** 
 211:Source\TransformFunctions/arm_bitreversal.c ****          /*  pSrc[i + fftLenBy2p1] <-> pSrc[j + fftLenBy2p1];  */
 212:Source\TransformFunctions/arm_bitreversal.c ****          /*  pSrc[i + fftLenBy2p1+1u] <-> pSrc[j + fftLenBy2p1+1u] */
 213:Source\TransformFunctions/arm_bitreversal.c ****          in = pSrc[i + fftLenBy2p1];
 740              		.loc 1 213 0
 741 0060 7A6A     		ldr	r2, [r7, #36]
 742 0062 7B69     		ldr	r3, [r7, #20]
 743 0064 D318     		add	r3, r2, r3
 744 0066 9B00     		lsl	r3, r3, #2
 745 0068 FA69     		ldr	r2, [r7, #28]
 746 006a D318     		add	r3, r2, r3
 747 006c 1B68     		ldr	r3, [r3]
 748 006e 3B61     		str	r3, [r7, #16]
 214:Source\TransformFunctions/arm_bitreversal.c ****          pSrc[i + fftLenBy2p1] = pSrc[j + fftLenBy2p1];
 749              		.loc 1 214 0
ARM GAS  C:\Users\fneves\AppData\Local\Temp\ccluy6EP.s 			page 18


 750 0070 7A6A     		ldr	r2, [r7, #36]
 751 0072 7B69     		ldr	r3, [r7, #20]
 752 0074 D318     		add	r3, r2, r3
 753 0076 9B00     		lsl	r3, r3, #2
 754 0078 FA69     		ldr	r2, [r7, #28]
 755 007a D318     		add	r3, r2, r3
 756 007c 396A     		ldr	r1, [r7, #32]
 757 007e 7A69     		ldr	r2, [r7, #20]
 758 0080 8A18     		add	r2, r1, r2
 759 0082 9200     		lsl	r2, r2, #2
 760 0084 F969     		ldr	r1, [r7, #28]
 761 0086 8A18     		add	r2, r1, r2
 762 0088 1268     		ldr	r2, [r2]
 763 008a 1A60     		str	r2, [r3]
 215:Source\TransformFunctions/arm_bitreversal.c ****          pSrc[j + fftLenBy2p1] = in;
 764              		.loc 1 215 0
 765 008c 3A6A     		ldr	r2, [r7, #32]
 766 008e 7B69     		ldr	r3, [r7, #20]
 767 0090 D318     		add	r3, r2, r3
 768 0092 9B00     		lsl	r3, r3, #2
 769 0094 FA69     		ldr	r2, [r7, #28]
 770 0096 D318     		add	r3, r2, r3
 771 0098 3A69     		ldr	r2, [r7, #16]
 772 009a 1A60     		str	r2, [r3]
 773              	.L11:
 216:Source\TransformFunctions/arm_bitreversal.c ****       }
 217:Source\TransformFunctions/arm_bitreversal.c **** 
 218:Source\TransformFunctions/arm_bitreversal.c ****       /*  pSrc[i+1u] <-> pSrc[j+fftLenBy2];         */
 219:Source\TransformFunctions/arm_bitreversal.c ****       /*  pSrc[i+2] <-> pSrc[j+fftLenBy2+1u]  */
 220:Source\TransformFunctions/arm_bitreversal.c ****       in = pSrc[i + 1u];
 774              		.loc 1 220 0 discriminator 2
 775 009c 7B6A     		ldr	r3, [r7, #36]
 776 009e 0133     		add	r3, r3, #1
 777 00a0 9B00     		lsl	r3, r3, #2
 778 00a2 FA69     		ldr	r2, [r7, #28]
 779 00a4 D318     		add	r3, r2, r3
 780 00a6 1B68     		ldr	r3, [r3]
 781 00a8 3B61     		str	r3, [r7, #16]
 221:Source\TransformFunctions/arm_bitreversal.c ****       pSrc[i + 1u] = pSrc[j + fftLenBy2];
 782              		.loc 1 221 0 discriminator 2
 783 00aa 7B6A     		ldr	r3, [r7, #36]
 784 00ac 0133     		add	r3, r3, #1
 785 00ae 9B00     		lsl	r3, r3, #2
 786 00b0 FA69     		ldr	r2, [r7, #28]
 787 00b2 D318     		add	r3, r2, r3
 788 00b4 396A     		ldr	r1, [r7, #32]
 789 00b6 BA69     		ldr	r2, [r7, #24]
 790 00b8 8A18     		add	r2, r1, r2
 791 00ba 9200     		lsl	r2, r2, #2
 792 00bc F969     		ldr	r1, [r7, #28]
 793 00be 8A18     		add	r2, r1, r2
 794 00c0 1268     		ldr	r2, [r2]
 795 00c2 1A60     		str	r2, [r3]
 222:Source\TransformFunctions/arm_bitreversal.c ****       pSrc[j + fftLenBy2] = in;
 796              		.loc 1 222 0 discriminator 2
 797 00c4 3A6A     		ldr	r2, [r7, #32]
 798 00c6 BB69     		ldr	r3, [r7, #24]
ARM GAS  C:\Users\fneves\AppData\Local\Temp\ccluy6EP.s 			page 19


 799 00c8 D318     		add	r3, r2, r3
 800 00ca 9B00     		lsl	r3, r3, #2
 801 00cc FA69     		ldr	r2, [r7, #28]
 802 00ce D318     		add	r3, r2, r3
 803 00d0 3A69     		ldr	r2, [r7, #16]
 804 00d2 1A60     		str	r2, [r3]
 223:Source\TransformFunctions/arm_bitreversal.c **** 
 224:Source\TransformFunctions/arm_bitreversal.c ****       /*  Reading the index for the bit reversal */
 225:Source\TransformFunctions/arm_bitreversal.c ****       j = *pBitRevTab;
 805              		.loc 1 225 0 discriminator 2
 806 00d4 3B68     		ldr	r3, [r7]
 807 00d6 1B88     		ldrh	r3, [r3]
 808 00d8 3B62     		str	r3, [r7, #32]
 226:Source\TransformFunctions/arm_bitreversal.c **** 
 227:Source\TransformFunctions/arm_bitreversal.c ****       /*  Updating the bit reversal index depending on the fft length  */
 228:Source\TransformFunctions/arm_bitreversal.c ****       pBitRevTab += bitRevFactor;
 809              		.loc 1 228 0 discriminator 2
 810 00da BB1D     		add	r3, r7, #6
 811 00dc 1B88     		ldrh	r3, [r3]
 812 00de 5B00     		lsl	r3, r3, #1
 813 00e0 3A68     		ldr	r2, [r7]
 814 00e2 D318     		add	r3, r2, r3
 815 00e4 3B60     		str	r3, [r7]
 201:Source\TransformFunctions/arm_bitreversal.c ****    {
 816              		.loc 1 201 0 discriminator 2
 817 00e6 7B6A     		ldr	r3, [r7, #36]
 818 00e8 0233     		add	r3, r3, #2
 819 00ea 7B62     		str	r3, [r7, #36]
 820              	.L10:
 201:Source\TransformFunctions/arm_bitreversal.c ****    {
 821              		.loc 1 201 0 is_stmt 0 discriminator 1
 822 00ec BB69     		ldr	r3, [r7, #24]
 823 00ee 9A1E     		sub	r2, r3, #2
 824 00f0 7B6A     		ldr	r3, [r7, #36]
 825 00f2 9A42     		cmp	r2, r3
 826 00f4 9AD2     		bcs	.L12
 229:Source\TransformFunctions/arm_bitreversal.c ****    }
 230:Source\TransformFunctions/arm_bitreversal.c **** }
 827              		.loc 1 230 0 is_stmt 1
 828 00f6 BD46     		mov	sp, r7
 829 00f8 0AB0     		add	sp, sp, #40
 830              		@ sp needed
 831 00fa 80BD     		pop	{r7, pc}
 832              		.cfi_endproc
 833              	.LFE84:
 834              		.size	arm_bitreversal_q15, .-arm_bitreversal_q15
 835              		.text
 836              	.Letext0:
 837              		.file 2 "c:\\program files (x86)\\cypress\\psoc creator\\4.0\\psoc creator\\import\\gnu\\arm\\4.9.
 838              		.file 3 "c:\\program files (x86)\\cypress\\psoc creator\\4.0\\psoc creator\\import\\gnu\\arm\\4.9.
 839              		.file 4 ".\\Include/arm_math.h"
 840              		.section	.debug_info,"",%progbits
 841              	.Ldebug_info0:
 842 0000 D6020000 		.4byte	0x2d6
 843 0004 0400     		.2byte	0x4
 844 0006 00000000 		.4byte	.Ldebug_abbrev0
 845 000a 04       		.byte	0x4
ARM GAS  C:\Users\fneves\AppData\Local\Temp\ccluy6EP.s 			page 20


 846 000b 01       		.uleb128 0x1
 847 000c 79010000 		.4byte	.LASF36
 848 0010 01       		.byte	0x1
 849 0011 0E010000 		.4byte	.LASF37
 850 0015 14000000 		.4byte	.LASF38
 851 0019 00000000 		.4byte	.Ldebug_ranges0+0
 852 001d 00000000 		.4byte	0
 853 0021 00000000 		.4byte	.Ldebug_line0
 854 0025 02       		.uleb128 0x2
 855 0026 01       		.byte	0x1
 856 0027 06       		.byte	0x6
 857 0028 8A020000 		.4byte	.LASF0
 858 002c 02       		.uleb128 0x2
 859 002d 01       		.byte	0x1
 860 002e 08       		.byte	0x8
 861 002f 8D000000 		.4byte	.LASF1
 862 0033 03       		.uleb128 0x3
 863 0034 00000000 		.4byte	.LASF3
 864 0038 02       		.byte	0x2
 865 0039 29       		.byte	0x29
 866 003a 3E000000 		.4byte	0x3e
 867 003e 02       		.uleb128 0x2
 868 003f 02       		.byte	0x2
 869 0040 05       		.byte	0x5
 870 0041 59020000 		.4byte	.LASF2
 871 0045 03       		.uleb128 0x3
 872 0046 E5000000 		.4byte	.LASF4
 873 004a 02       		.byte	0x2
 874 004b 2B       		.byte	0x2b
 875 004c 50000000 		.4byte	0x50
 876 0050 02       		.uleb128 0x2
 877 0051 02       		.byte	0x2
 878 0052 07       		.byte	0x7
 879 0053 CB000000 		.4byte	.LASF5
 880 0057 03       		.uleb128 0x3
 881 0058 0A000000 		.4byte	.LASF6
 882 005c 02       		.byte	0x2
 883 005d 3F       		.byte	0x3f
 884 005e 62000000 		.4byte	0x62
 885 0062 02       		.uleb128 0x2
 886 0063 04       		.byte	0x4
 887 0064 05       		.byte	0x5
 888 0065 75020000 		.4byte	.LASF7
 889 0069 03       		.uleb128 0x3
 890 006a 03010000 		.4byte	.LASF8
 891 006e 02       		.byte	0x2
 892 006f 41       		.byte	0x41
 893 0070 74000000 		.4byte	0x74
 894 0074 02       		.uleb128 0x2
 895 0075 04       		.byte	0x4
 896 0076 07       		.byte	0x7
 897 0077 B9000000 		.4byte	.LASF9
 898 007b 02       		.uleb128 0x2
 899 007c 08       		.byte	0x8
 900 007d 05       		.byte	0x5
 901 007e 2F020000 		.4byte	.LASF10
 902 0082 02       		.uleb128 0x2
ARM GAS  C:\Users\fneves\AppData\Local\Temp\ccluy6EP.s 			page 21


 903 0083 08       		.byte	0x8
 904 0084 07       		.byte	0x7
 905 0085 62010000 		.4byte	.LASF11
 906 0089 04       		.uleb128 0x4
 907 008a 04       		.byte	0x4
 908 008b 05       		.byte	0x5
 909 008c 696E7400 		.ascii	"int\000"
 910 0090 02       		.uleb128 0x2
 911 0091 04       		.byte	0x4
 912 0092 07       		.byte	0x7
 913 0093 4E010000 		.4byte	.LASF12
 914 0097 03       		.uleb128 0x3
 915 0098 16020000 		.4byte	.LASF13
 916 009c 03       		.byte	0x3
 917 009d 20       		.byte	0x20
 918 009e 33000000 		.4byte	0x33
 919 00a2 03       		.uleb128 0x3
 920 00a3 63020000 		.4byte	.LASF14
 921 00a7 03       		.byte	0x3
 922 00a8 21       		.byte	0x21
 923 00a9 45000000 		.4byte	0x45
 924 00ad 03       		.uleb128 0x3
 925 00ae 1E020000 		.4byte	.LASF15
 926 00b2 03       		.byte	0x3
 927 00b3 2C       		.byte	0x2c
 928 00b4 57000000 		.4byte	0x57
 929 00b8 03       		.uleb128 0x3
 930 00b9 6C020000 		.4byte	.LASF16
 931 00bd 03       		.byte	0x3
 932 00be 2D       		.byte	0x2d
 933 00bf 69000000 		.4byte	0x69
 934 00c3 02       		.uleb128 0x2
 935 00c4 04       		.byte	0x4
 936 00c5 07       		.byte	0x7
 937 00c6 26020000 		.4byte	.LASF17
 938 00ca 02       		.uleb128 0x2
 939 00cb 01       		.byte	0x1
 940 00cc 08       		.byte	0x8
 941 00cd 3D020000 		.4byte	.LASF18
 942 00d1 02       		.uleb128 0x2
 943 00d2 08       		.byte	0x8
 944 00d3 04       		.byte	0x4
 945 00d4 F0000000 		.4byte	.LASF19
 946 00d8 02       		.uleb128 0x2
 947 00d9 04       		.byte	0x4
 948 00da 04       		.byte	0x4
 949 00db 73000000 		.4byte	.LASF20
 950 00df 02       		.uleb128 0x2
 951 00e0 08       		.byte	0x8
 952 00e1 04       		.byte	0x4
 953 00e2 7E020000 		.4byte	.LASF21
 954 00e6 05       		.uleb128 0x5
 955 00e7 6D000000 		.4byte	.LASF22
 956 00eb 04       		.byte	0x4
 957 00ec 9601     		.2byte	0x196
 958 00ee 97000000 		.4byte	0x97
 959 00f2 05       		.uleb128 0x5
ARM GAS  C:\Users\fneves\AppData\Local\Temp\ccluy6EP.s 			page 22


 960 00f3 5A000000 		.4byte	.LASF23
 961 00f7 04       		.byte	0x4
 962 00f8 9B01     		.2byte	0x19b
 963 00fa AD000000 		.4byte	0xad
 964 00fe 05       		.uleb128 0x5
 965 00ff 42020000 		.4byte	.LASF24
 966 0103 04       		.byte	0x4
 967 0104 A501     		.2byte	0x1a5
 968 0106 D8000000 		.4byte	0xd8
 969 010a 06       		.uleb128 0x6
 970 010b 04       		.byte	0x4
 971 010c E6000000 		.4byte	0xe6
 972 0110 06       		.uleb128 0x6
 973 0111 04       		.byte	0x4
 974 0112 F2000000 		.4byte	0xf2
 975 0116 06       		.uleb128 0x6
 976 0117 04       		.byte	0x4
 977 0118 FE000000 		.4byte	0xfe
 978 011c 06       		.uleb128 0x6
 979 011d 04       		.byte	0x4
 980 011e A2000000 		.4byte	0xa2
 981 0122 07       		.uleb128 0x7
 982 0123 3A010000 		.4byte	.LASF31
 983 0127 01       		.byte	0x1
 984 0128 29       		.byte	0x29
 985 0129 00000000 		.4byte	.LFB82
 986 012d 8A020000 		.4byte	.LFE82-.LFB82
 987 0131 01       		.uleb128 0x1
 988 0132 9C       		.byte	0x9c
 989 0133 B1010000 		.4byte	0x1b1
 990 0137 08       		.uleb128 0x8
 991 0138 9E020000 		.4byte	.LASF25
 992 013c 01       		.byte	0x1
 993 013d 2A       		.byte	0x2a
 994 013e 16010000 		.4byte	0x116
 995 0142 02       		.uleb128 0x2
 996 0143 91       		.byte	0x91
 997 0144 64       		.sleb128 -28
 998 0145 08       		.uleb128 0x8
 999 0146 96020000 		.4byte	.LASF26
 1000 014a 01       		.byte	0x1
 1001 014b 2B       		.byte	0x2b
 1002 014c A2000000 		.4byte	0xa2
 1003 0150 02       		.uleb128 0x2
 1004 0151 91       		.byte	0x91
 1005 0152 62       		.sleb128 -30
 1006 0153 08       		.uleb128 0x8
 1007 0154 4C020000 		.4byte	.LASF27
 1008 0158 01       		.byte	0x1
 1009 0159 2C       		.byte	0x2c
 1010 015a A2000000 		.4byte	0xa2
 1011 015e 02       		.uleb128 0x2
 1012 015f 91       		.byte	0x91
 1013 0160 60       		.sleb128 -32
 1014 0161 08       		.uleb128 0x8
 1015 0162 0B020000 		.4byte	.LASF28
 1016 0166 01       		.byte	0x1
ARM GAS  C:\Users\fneves\AppData\Local\Temp\ccluy6EP.s 			page 23


 1017 0167 2D       		.byte	0x2d
 1018 0168 1C010000 		.4byte	0x11c
 1019 016c 02       		.uleb128 0x2
 1020 016d 91       		.byte	0x91
 1021 016e 5C       		.sleb128 -36
 1022 016f 09       		.uleb128 0x9
 1023 0170 AF000000 		.4byte	.LASF29
 1024 0174 01       		.byte	0x1
 1025 0175 2F       		.byte	0x2f
 1026 0176 A2000000 		.4byte	0xa2
 1027 017a 02       		.uleb128 0x2
 1028 017b 91       		.byte	0x91
 1029 017c 72       		.sleb128 -14
 1030 017d 09       		.uleb128 0x9
 1031 017e F7000000 		.4byte	.LASF30
 1032 0182 01       		.byte	0x1
 1033 0183 2F       		.byte	0x2f
 1034 0184 A2000000 		.4byte	0xa2
 1035 0188 02       		.uleb128 0x2
 1036 0189 91       		.byte	0x91
 1037 018a 70       		.sleb128 -16
 1038 018b 0A       		.uleb128 0xa
 1039 018c 6900     		.ascii	"i\000"
 1040 018e 01       		.byte	0x1
 1041 018f 30       		.byte	0x30
 1042 0190 A2000000 		.4byte	0xa2
 1043 0194 02       		.uleb128 0x2
 1044 0195 91       		.byte	0x91
 1045 0196 76       		.sleb128 -10
 1046 0197 0A       		.uleb128 0xa
 1047 0198 6A00     		.ascii	"j\000"
 1048 019a 01       		.byte	0x1
 1049 019b 30       		.byte	0x30
 1050 019c A2000000 		.4byte	0xa2
 1051 01a0 02       		.uleb128 0x2
 1052 01a1 91       		.byte	0x91
 1053 01a2 74       		.sleb128 -12
 1054 01a3 0A       		.uleb128 0xa
 1055 01a4 696E00   		.ascii	"in\000"
 1056 01a7 01       		.byte	0x1
 1057 01a8 31       		.byte	0x31
 1058 01a9 FE000000 		.4byte	0xfe
 1059 01ad 02       		.uleb128 0x2
 1060 01ae 91       		.byte	0x91
 1061 01af 6C       		.sleb128 -20
 1062 01b0 00       		.byte	0
 1063 01b1 07       		.uleb128 0x7
 1064 01b2 9B000000 		.4byte	.LASF32
 1065 01b6 01       		.byte	0x1
 1066 01b7 71       		.byte	0x71
 1067 01b8 00000000 		.4byte	.LFB83
 1068 01bc B2010000 		.4byte	.LFE83-.LFB83
 1069 01c0 01       		.uleb128 0x1
 1070 01c1 9C       		.byte	0x9c
 1071 01c2 40020000 		.4byte	0x240
 1072 01c6 08       		.uleb128 0x8
 1073 01c7 9E020000 		.4byte	.LASF25
ARM GAS  C:\Users\fneves\AppData\Local\Temp\ccluy6EP.s 			page 24


 1074 01cb 01       		.byte	0x1
 1075 01cc 72       		.byte	0x72
 1076 01cd 10010000 		.4byte	0x110
 1077 01d1 02       		.uleb128 0x2
 1078 01d2 91       		.byte	0x91
 1079 01d3 5C       		.sleb128 -36
 1080 01d4 08       		.uleb128 0x8
 1081 01d5 DE000000 		.4byte	.LASF33
 1082 01d9 01       		.byte	0x1
 1083 01da 73       		.byte	0x73
 1084 01db B8000000 		.4byte	0xb8
 1085 01df 02       		.uleb128 0x2
 1086 01e0 91       		.byte	0x91
 1087 01e1 58       		.sleb128 -40
 1088 01e2 08       		.uleb128 0x8
 1089 01e3 4C020000 		.4byte	.LASF27
 1090 01e7 01       		.byte	0x1
 1091 01e8 74       		.byte	0x74
 1092 01e9 A2000000 		.4byte	0xa2
 1093 01ed 02       		.uleb128 0x2
 1094 01ee 91       		.byte	0x91
 1095 01ef 56       		.sleb128 -42
 1096 01f0 08       		.uleb128 0x8
 1097 01f1 60000000 		.4byte	.LASF34
 1098 01f5 01       		.byte	0x1
 1099 01f6 75       		.byte	0x75
 1100 01f7 1C010000 		.4byte	0x11c
 1101 01fb 02       		.uleb128 0x2
 1102 01fc 91       		.byte	0x91
 1103 01fd 50       		.sleb128 -48
 1104 01fe 09       		.uleb128 0x9
 1105 01ff AF000000 		.4byte	.LASF29
 1106 0203 01       		.byte	0x1
 1107 0204 77       		.byte	0x77
 1108 0205 B8000000 		.4byte	0xb8
 1109 0209 02       		.uleb128 0x2
 1110 020a 91       		.byte	0x91
 1111 020b 6C       		.sleb128 -20
 1112 020c 09       		.uleb128 0x9
 1113 020d F7000000 		.4byte	.LASF30
 1114 0211 01       		.byte	0x1
 1115 0212 77       		.byte	0x77
 1116 0213 B8000000 		.4byte	0xb8
 1117 0217 02       		.uleb128 0x2
 1118 0218 91       		.byte	0x91
 1119 0219 68       		.sleb128 -24
 1120 021a 0A       		.uleb128 0xa
 1121 021b 6900     		.ascii	"i\000"
 1122 021d 01       		.byte	0x1
 1123 021e 77       		.byte	0x77
 1124 021f B8000000 		.4byte	0xb8
 1125 0223 02       		.uleb128 0x2
 1126 0224 91       		.byte	0x91
 1127 0225 74       		.sleb128 -12
 1128 0226 0A       		.uleb128 0xa
 1129 0227 6A00     		.ascii	"j\000"
 1130 0229 01       		.byte	0x1
ARM GAS  C:\Users\fneves\AppData\Local\Temp\ccluy6EP.s 			page 25


 1131 022a 77       		.byte	0x77
 1132 022b B8000000 		.4byte	0xb8
 1133 022f 02       		.uleb128 0x2
 1134 0230 91       		.byte	0x91
 1135 0231 70       		.sleb128 -16
 1136 0232 0A       		.uleb128 0xa
 1137 0233 696E00   		.ascii	"in\000"
 1138 0236 01       		.byte	0x1
 1139 0237 78       		.byte	0x78
 1140 0238 F2000000 		.4byte	0xf2
 1141 023c 02       		.uleb128 0x2
 1142 023d 91       		.byte	0x91
 1143 023e 64       		.sleb128 -28
 1144 023f 00       		.byte	0
 1145 0240 0B       		.uleb128 0xb
 1146 0241 79000000 		.4byte	.LASF39
 1147 0245 01       		.byte	0x1
 1148 0246 B8       		.byte	0xb8
 1149 0247 00000000 		.4byte	.LFB84
 1150 024b FC000000 		.4byte	.LFE84-.LFB84
 1151 024f 01       		.uleb128 0x1
 1152 0250 9C       		.byte	0x9c
 1153 0251 08       		.uleb128 0x8
 1154 0252 5B010000 		.4byte	.LASF35
 1155 0256 01       		.byte	0x1
 1156 0257 B9       		.byte	0xb9
 1157 0258 0A010000 		.4byte	0x10a
 1158 025c 02       		.uleb128 0x2
 1159 025d 91       		.byte	0x91
 1160 025e 5C       		.sleb128 -36
 1161 025f 08       		.uleb128 0x8
 1162 0260 DE000000 		.4byte	.LASF33
 1163 0264 01       		.byte	0x1
 1164 0265 BA       		.byte	0xba
 1165 0266 B8000000 		.4byte	0xb8
 1166 026a 02       		.uleb128 0x2
 1167 026b 91       		.byte	0x91
 1168 026c 58       		.sleb128 -40
 1169 026d 08       		.uleb128 0x8
 1170 026e 4C020000 		.4byte	.LASF27
 1171 0272 01       		.byte	0x1
 1172 0273 BB       		.byte	0xbb
 1173 0274 A2000000 		.4byte	0xa2
 1174 0278 02       		.uleb128 0x2
 1175 0279 91       		.byte	0x91
 1176 027a 56       		.sleb128 -42
 1177 027b 08       		.uleb128 0x8
 1178 027c 0B020000 		.4byte	.LASF28
 1179 0280 01       		.byte	0x1
 1180 0281 BC       		.byte	0xbc
 1181 0282 1C010000 		.4byte	0x11c
 1182 0286 02       		.uleb128 0x2
 1183 0287 91       		.byte	0x91
 1184 0288 50       		.sleb128 -48
 1185 0289 09       		.uleb128 0x9
 1186 028a 9E020000 		.4byte	.LASF25
 1187 028e 01       		.byte	0x1
ARM GAS  C:\Users\fneves\AppData\Local\Temp\ccluy6EP.s 			page 26


 1188 028f BE       		.byte	0xbe
 1189 0290 10010000 		.4byte	0x110
 1190 0294 02       		.uleb128 0x2
 1191 0295 91       		.byte	0x91
 1192 0296 6C       		.sleb128 -20
 1193 0297 0A       		.uleb128 0xa
 1194 0298 696E00   		.ascii	"in\000"
 1195 029b 01       		.byte	0x1
 1196 029c BF       		.byte	0xbf
 1197 029d F2000000 		.4byte	0xf2
 1198 02a1 02       		.uleb128 0x2
 1199 02a2 91       		.byte	0x91
 1200 02a3 60       		.sleb128 -32
 1201 02a4 09       		.uleb128 0x9
 1202 02a5 AF000000 		.4byte	.LASF29
 1203 02a9 01       		.byte	0x1
 1204 02aa C0       		.byte	0xc0
 1205 02ab B8000000 		.4byte	0xb8
 1206 02af 02       		.uleb128 0x2
 1207 02b0 91       		.byte	0x91
 1208 02b1 68       		.sleb128 -24
 1209 02b2 09       		.uleb128 0x9
 1210 02b3 F7000000 		.4byte	.LASF30
 1211 02b7 01       		.byte	0x1
 1212 02b8 C0       		.byte	0xc0
 1213 02b9 B8000000 		.4byte	0xb8
 1214 02bd 02       		.uleb128 0x2
 1215 02be 91       		.byte	0x91
 1216 02bf 64       		.sleb128 -28
 1217 02c0 0A       		.uleb128 0xa
 1218 02c1 6900     		.ascii	"i\000"
 1219 02c3 01       		.byte	0x1
 1220 02c4 C1       		.byte	0xc1
 1221 02c5 B8000000 		.4byte	0xb8
 1222 02c9 02       		.uleb128 0x2
 1223 02ca 91       		.byte	0x91
 1224 02cb 74       		.sleb128 -12
 1225 02cc 0A       		.uleb128 0xa
 1226 02cd 6A00     		.ascii	"j\000"
 1227 02cf 01       		.byte	0x1
 1228 02d0 C1       		.byte	0xc1
 1229 02d1 B8000000 		.4byte	0xb8
 1230 02d5 02       		.uleb128 0x2
 1231 02d6 91       		.byte	0x91
 1232 02d7 70       		.sleb128 -16
 1233 02d8 00       		.byte	0
 1234 02d9 00       		.byte	0
 1235              		.section	.debug_abbrev,"",%progbits
 1236              	.Ldebug_abbrev0:
 1237 0000 01       		.uleb128 0x1
 1238 0001 11       		.uleb128 0x11
 1239 0002 01       		.byte	0x1
 1240 0003 25       		.uleb128 0x25
 1241 0004 0E       		.uleb128 0xe
 1242 0005 13       		.uleb128 0x13
 1243 0006 0B       		.uleb128 0xb
 1244 0007 03       		.uleb128 0x3
ARM GAS  C:\Users\fneves\AppData\Local\Temp\ccluy6EP.s 			page 27


 1245 0008 0E       		.uleb128 0xe
 1246 0009 1B       		.uleb128 0x1b
 1247 000a 0E       		.uleb128 0xe
 1248 000b 55       		.uleb128 0x55
 1249 000c 17       		.uleb128 0x17
 1250 000d 11       		.uleb128 0x11
 1251 000e 01       		.uleb128 0x1
 1252 000f 10       		.uleb128 0x10
 1253 0010 17       		.uleb128 0x17
 1254 0011 00       		.byte	0
 1255 0012 00       		.byte	0
 1256 0013 02       		.uleb128 0x2
 1257 0014 24       		.uleb128 0x24
 1258 0015 00       		.byte	0
 1259 0016 0B       		.uleb128 0xb
 1260 0017 0B       		.uleb128 0xb
 1261 0018 3E       		.uleb128 0x3e
 1262 0019 0B       		.uleb128 0xb
 1263 001a 03       		.uleb128 0x3
 1264 001b 0E       		.uleb128 0xe
 1265 001c 00       		.byte	0
 1266 001d 00       		.byte	0
 1267 001e 03       		.uleb128 0x3
 1268 001f 16       		.uleb128 0x16
 1269 0020 00       		.byte	0
 1270 0021 03       		.uleb128 0x3
 1271 0022 0E       		.uleb128 0xe
 1272 0023 3A       		.uleb128 0x3a
 1273 0024 0B       		.uleb128 0xb
 1274 0025 3B       		.uleb128 0x3b
 1275 0026 0B       		.uleb128 0xb
 1276 0027 49       		.uleb128 0x49
 1277 0028 13       		.uleb128 0x13
 1278 0029 00       		.byte	0
 1279 002a 00       		.byte	0
 1280 002b 04       		.uleb128 0x4
 1281 002c 24       		.uleb128 0x24
 1282 002d 00       		.byte	0
 1283 002e 0B       		.uleb128 0xb
 1284 002f 0B       		.uleb128 0xb
 1285 0030 3E       		.uleb128 0x3e
 1286 0031 0B       		.uleb128 0xb
 1287 0032 03       		.uleb128 0x3
 1288 0033 08       		.uleb128 0x8
 1289 0034 00       		.byte	0
 1290 0035 00       		.byte	0
 1291 0036 05       		.uleb128 0x5
 1292 0037 16       		.uleb128 0x16
 1293 0038 00       		.byte	0
 1294 0039 03       		.uleb128 0x3
 1295 003a 0E       		.uleb128 0xe
 1296 003b 3A       		.uleb128 0x3a
 1297 003c 0B       		.uleb128 0xb
 1298 003d 3B       		.uleb128 0x3b
 1299 003e 05       		.uleb128 0x5
 1300 003f 49       		.uleb128 0x49
 1301 0040 13       		.uleb128 0x13
ARM GAS  C:\Users\fneves\AppData\Local\Temp\ccluy6EP.s 			page 28


 1302 0041 00       		.byte	0
 1303 0042 00       		.byte	0
 1304 0043 06       		.uleb128 0x6
 1305 0044 0F       		.uleb128 0xf
 1306 0045 00       		.byte	0
 1307 0046 0B       		.uleb128 0xb
 1308 0047 0B       		.uleb128 0xb
 1309 0048 49       		.uleb128 0x49
 1310 0049 13       		.uleb128 0x13
 1311 004a 00       		.byte	0
 1312 004b 00       		.byte	0
 1313 004c 07       		.uleb128 0x7
 1314 004d 2E       		.uleb128 0x2e
 1315 004e 01       		.byte	0x1
 1316 004f 3F       		.uleb128 0x3f
 1317 0050 19       		.uleb128 0x19
 1318 0051 03       		.uleb128 0x3
 1319 0052 0E       		.uleb128 0xe
 1320 0053 3A       		.uleb128 0x3a
 1321 0054 0B       		.uleb128 0xb
 1322 0055 3B       		.uleb128 0x3b
 1323 0056 0B       		.uleb128 0xb
 1324 0057 27       		.uleb128 0x27
 1325 0058 19       		.uleb128 0x19
 1326 0059 11       		.uleb128 0x11
 1327 005a 01       		.uleb128 0x1
 1328 005b 12       		.uleb128 0x12
 1329 005c 06       		.uleb128 0x6
 1330 005d 40       		.uleb128 0x40
 1331 005e 18       		.uleb128 0x18
 1332 005f 9742     		.uleb128 0x2117
 1333 0061 19       		.uleb128 0x19
 1334 0062 01       		.uleb128 0x1
 1335 0063 13       		.uleb128 0x13
 1336 0064 00       		.byte	0
 1337 0065 00       		.byte	0
 1338 0066 08       		.uleb128 0x8
 1339 0067 05       		.uleb128 0x5
 1340 0068 00       		.byte	0
 1341 0069 03       		.uleb128 0x3
 1342 006a 0E       		.uleb128 0xe
 1343 006b 3A       		.uleb128 0x3a
 1344 006c 0B       		.uleb128 0xb
 1345 006d 3B       		.uleb128 0x3b
 1346 006e 0B       		.uleb128 0xb
 1347 006f 49       		.uleb128 0x49
 1348 0070 13       		.uleb128 0x13
 1349 0071 02       		.uleb128 0x2
 1350 0072 18       		.uleb128 0x18
 1351 0073 00       		.byte	0
 1352 0074 00       		.byte	0
 1353 0075 09       		.uleb128 0x9
 1354 0076 34       		.uleb128 0x34
 1355 0077 00       		.byte	0
 1356 0078 03       		.uleb128 0x3
 1357 0079 0E       		.uleb128 0xe
 1358 007a 3A       		.uleb128 0x3a
ARM GAS  C:\Users\fneves\AppData\Local\Temp\ccluy6EP.s 			page 29


 1359 007b 0B       		.uleb128 0xb
 1360 007c 3B       		.uleb128 0x3b
 1361 007d 0B       		.uleb128 0xb
 1362 007e 49       		.uleb128 0x49
 1363 007f 13       		.uleb128 0x13
 1364 0080 02       		.uleb128 0x2
 1365 0081 18       		.uleb128 0x18
 1366 0082 00       		.byte	0
 1367 0083 00       		.byte	0
 1368 0084 0A       		.uleb128 0xa
 1369 0085 34       		.uleb128 0x34
 1370 0086 00       		.byte	0
 1371 0087 03       		.uleb128 0x3
 1372 0088 08       		.uleb128 0x8
 1373 0089 3A       		.uleb128 0x3a
 1374 008a 0B       		.uleb128 0xb
 1375 008b 3B       		.uleb128 0x3b
 1376 008c 0B       		.uleb128 0xb
 1377 008d 49       		.uleb128 0x49
 1378 008e 13       		.uleb128 0x13
 1379 008f 02       		.uleb128 0x2
 1380 0090 18       		.uleb128 0x18
 1381 0091 00       		.byte	0
 1382 0092 00       		.byte	0
 1383 0093 0B       		.uleb128 0xb
 1384 0094 2E       		.uleb128 0x2e
 1385 0095 01       		.byte	0x1
 1386 0096 3F       		.uleb128 0x3f
 1387 0097 19       		.uleb128 0x19
 1388 0098 03       		.uleb128 0x3
 1389 0099 0E       		.uleb128 0xe
 1390 009a 3A       		.uleb128 0x3a
 1391 009b 0B       		.uleb128 0xb
 1392 009c 3B       		.uleb128 0x3b
 1393 009d 0B       		.uleb128 0xb
 1394 009e 27       		.uleb128 0x27
 1395 009f 19       		.uleb128 0x19
 1396 00a0 11       		.uleb128 0x11
 1397 00a1 01       		.uleb128 0x1
 1398 00a2 12       		.uleb128 0x12
 1399 00a3 06       		.uleb128 0x6
 1400 00a4 40       		.uleb128 0x40
 1401 00a5 18       		.uleb128 0x18
 1402 00a6 9742     		.uleb128 0x2117
 1403 00a8 19       		.uleb128 0x19
 1404 00a9 00       		.byte	0
 1405 00aa 00       		.byte	0
 1406 00ab 00       		.byte	0
 1407              		.section	.debug_aranges,"",%progbits
 1408 0000 2C000000 		.4byte	0x2c
 1409 0004 0200     		.2byte	0x2
 1410 0006 00000000 		.4byte	.Ldebug_info0
 1411 000a 04       		.byte	0x4
 1412 000b 00       		.byte	0
 1413 000c 0000     		.2byte	0
 1414 000e 0000     		.2byte	0
 1415 0010 00000000 		.4byte	.LFB82
ARM GAS  C:\Users\fneves\AppData\Local\Temp\ccluy6EP.s 			page 30


 1416 0014 8A020000 		.4byte	.LFE82-.LFB82
 1417 0018 00000000 		.4byte	.LFB83
 1418 001c B2010000 		.4byte	.LFE83-.LFB83
 1419 0020 00000000 		.4byte	.LFB84
 1420 0024 FC000000 		.4byte	.LFE84-.LFB84
 1421 0028 00000000 		.4byte	0
 1422 002c 00000000 		.4byte	0
 1423              		.section	.debug_ranges,"",%progbits
 1424              	.Ldebug_ranges0:
 1425 0000 00000000 		.4byte	.LFB82
 1426 0004 8A020000 		.4byte	.LFE82
 1427 0008 00000000 		.4byte	.LFB83
 1428 000c B2010000 		.4byte	.LFE83
 1429 0010 00000000 		.4byte	.LFB84
 1430 0014 FC000000 		.4byte	.LFE84
 1431 0018 00000000 		.4byte	0
 1432 001c 00000000 		.4byte	0
 1433              		.section	.debug_line,"",%progbits
 1434              	.Ldebug_line0:
 1435 0000 58020000 		.section	.debug_str,"MS",%progbits,1
 1435      02005201 
 1435      00000201 
 1435      FB0E0D00 
 1435      01010101 
 1436              	.LASF3:
 1437 0000 5F5F696E 		.ascii	"__int16_t\000"
 1437      7431365F 
 1437      7400
 1438              	.LASF6:
 1439 000a 5F5F696E 		.ascii	"__int32_t\000"
 1439      7433325F 
 1439      7400
 1440              	.LASF38:
 1441 0014 433A5C55 		.ascii	"C:\\Users\\fneves\\Documents\\PSoC Creator\\wp_1\\e"
 1441      73657273 
 1441      5C666E65 
 1441      7665735C 
 1441      446F6375 
 1442 0041 6E67696E 		.ascii	"ngine_speed_sensor.cydsn\000"
 1442      655F7370 
 1442      6565645F 
 1442      73656E73 
 1442      6F722E63 
 1443              	.LASF23:
 1444 005a 7133315F 		.ascii	"q31_t\000"
 1444      7400
 1445              	.LASF34:
 1446 0060 70426974 		.ascii	"pBitRevTable\000"
 1446      52657654 
 1446      61626C65 
 1446      00
 1447              	.LASF22:
 1448 006d 7131355F 		.ascii	"q15_t\000"
 1448      7400
 1449              	.LASF20:
 1450 0073 666C6F61 		.ascii	"float\000"
 1450      7400
ARM GAS  C:\Users\fneves\AppData\Local\Temp\ccluy6EP.s 			page 31


 1451              	.LASF39:
 1452 0079 61726D5F 		.ascii	"arm_bitreversal_q15\000"
 1452      62697472 
 1452      65766572 
 1452      73616C5F 
 1452      71313500 
 1453              	.LASF1:
 1454 008d 756E7369 		.ascii	"unsigned char\000"
 1454      676E6564 
 1454      20636861 
 1454      7200
 1455              	.LASF32:
 1456 009b 61726D5F 		.ascii	"arm_bitreversal_q31\000"
 1456      62697472 
 1456      65766572 
 1456      73616C5F 
 1456      71333100 
 1457              	.LASF29:
 1458 00af 6666744C 		.ascii	"fftLenBy2\000"
 1458      656E4279 
 1458      3200
 1459              	.LASF9:
 1460 00b9 6C6F6E67 		.ascii	"long unsigned int\000"
 1460      20756E73 
 1460      69676E65 
 1460      6420696E 
 1460      7400
 1461              	.LASF5:
 1462 00cb 73686F72 		.ascii	"short unsigned int\000"
 1462      7420756E 
 1462      7369676E 
 1462      65642069 
 1462      6E7400
 1463              	.LASF33:
 1464 00de 6666744C 		.ascii	"fftLen\000"
 1464      656E00
 1465              	.LASF4:
 1466 00e5 5F5F7569 		.ascii	"__uint16_t\000"
 1466      6E743136 
 1466      5F7400
 1467              	.LASF19:
 1468 00f0 646F7562 		.ascii	"double\000"
 1468      6C6500
 1469              	.LASF30:
 1470 00f7 6666744C 		.ascii	"fftLenBy2p1\000"
 1470      656E4279 
 1470      32703100 
 1471              	.LASF8:
 1472 0103 5F5F7569 		.ascii	"__uint32_t\000"
 1472      6E743332 
 1472      5F7400
 1473              	.LASF37:
 1474 010e 536F7572 		.ascii	"Source\\TransformFunctions\\arm_bitreversal.c\000"
 1474      63655C54 
 1474      72616E73 
 1474      666F726D 
 1474      46756E63 
ARM GAS  C:\Users\fneves\AppData\Local\Temp\ccluy6EP.s 			page 32


 1475              	.LASF31:
 1476 013a 61726D5F 		.ascii	"arm_bitreversal_f32\000"
 1476      62697472 
 1476      65766572 
 1476      73616C5F 
 1476      66333200 
 1477              	.LASF12:
 1478 014e 756E7369 		.ascii	"unsigned int\000"
 1478      676E6564 
 1478      20696E74 
 1478      00
 1479              	.LASF35:
 1480 015b 70537263 		.ascii	"pSrc16\000"
 1480      313600
 1481              	.LASF11:
 1482 0162 6C6F6E67 		.ascii	"long long unsigned int\000"
 1482      206C6F6E 
 1482      6720756E 
 1482      7369676E 
 1482      65642069 
 1483              	.LASF36:
 1484 0179 474E5520 		.ascii	"GNU C 4.9.3 20150303 (release) [ARM/embedded-4_9-br"
 1484      4320342E 
 1484      392E3320 
 1484      32303135 
 1484      30333033 
 1485 01ac 616E6368 		.ascii	"anch revision 221220] -mcpu=cortex-m0plus -mthumb -"
 1485      20726576 
 1485      6973696F 
 1485      6E203232 
 1485      31323230 
 1486 01df 67202D4F 		.ascii	"g -O0 -ffunction-sections -ffat-lto-objects\000"
 1486      30202D66 
 1486      66756E63 
 1486      74696F6E 
 1486      2D736563 
 1487              	.LASF28:
 1488 020b 70426974 		.ascii	"pBitRevTab\000"
 1488      52657654 
 1488      616200
 1489              	.LASF13:
 1490 0216 696E7431 		.ascii	"int16_t\000"
 1490      365F7400 
 1491              	.LASF15:
 1492 021e 696E7433 		.ascii	"int32_t\000"
 1492      325F7400 
 1493              	.LASF17:
 1494 0226 73697A65 		.ascii	"sizetype\000"
 1494      74797065 
 1494      00
 1495              	.LASF10:
 1496 022f 6C6F6E67 		.ascii	"long long int\000"
 1496      206C6F6E 
 1496      6720696E 
 1496      7400
 1497              	.LASF18:
 1498 023d 63686172 		.ascii	"char\000"
ARM GAS  C:\Users\fneves\AppData\Local\Temp\ccluy6EP.s 			page 33


 1498      00
 1499              	.LASF24:
 1500 0242 666C6F61 		.ascii	"float32_t\000"
 1500      7433325F 
 1500      7400
 1501              	.LASF27:
 1502 024c 62697452 		.ascii	"bitRevFactor\000"
 1502      65764661 
 1502      63746F72 
 1502      00
 1503              	.LASF2:
 1504 0259 73686F72 		.ascii	"short int\000"
 1504      7420696E 
 1504      7400
 1505              	.LASF14:
 1506 0263 75696E74 		.ascii	"uint16_t\000"
 1506      31365F74 
 1506      00
 1507              	.LASF16:
 1508 026c 75696E74 		.ascii	"uint32_t\000"
 1508      33325F74 
 1508      00
 1509              	.LASF7:
 1510 0275 6C6F6E67 		.ascii	"long int\000"
 1510      20696E74 
 1510      00
 1511              	.LASF21:
 1512 027e 6C6F6E67 		.ascii	"long double\000"
 1512      20646F75 
 1512      626C6500 
 1513              	.LASF0:
 1514 028a 7369676E 		.ascii	"signed char\000"
 1514      65642063 
 1514      68617200 
 1515              	.LASF26:
 1516 0296 66667453 		.ascii	"fftSize\000"
 1516      697A6500 
 1517              	.LASF25:
 1518 029e 70537263 		.ascii	"pSrc\000"
 1518      00
 1519              		.ident	"GCC: (GNU Tools for ARM Embedded Processors) 4.9.3 20150303 (release) [ARM/embedded-4_9-br
