ARM GAS  C:\Users\fneves\AppData\Local\Temp\ccfUfQOJ.s 			page 1


   1              		.cpu cortex-m0plus
   2              		.fpu softvfp
   3              		.eabi_attribute 20, 1
   4              		.eabi_attribute 21, 1
   5              		.eabi_attribute 23, 3
   6              		.eabi_attribute 24, 1
   7              		.eabi_attribute 25, 1
   8              		.eabi_attribute 26, 1
   9              		.eabi_attribute 30, 6
  10              		.eabi_attribute 34, 0
  11              		.eabi_attribute 18, 4
  12              		.code	16
  13              		.file	"arm_sin_q15.c"
  14              		.text
  15              	.Ltext0:
  16              		.cfi_sections	.debug_frame
  17              		.section	.text.arm_sin_q15,"ax",%progbits
  18              		.align	2
  19              		.global	arm_sin_q15
  20              		.code	16
  21              		.thumb_func
  22              		.type	arm_sin_q15, %function
  23              	arm_sin_q15:
  24              	.LFB82:
  25              		.file 1 "Source\\FastMathFunctions\\arm_sin_q15.c"
   1:Source\FastMathFunctions/arm_sin_q15.c **** /* ----------------------------------------------------------------------
   2:Source\FastMathFunctions/arm_sin_q15.c ****  * Project:      CMSIS DSP Library
   3:Source\FastMathFunctions/arm_sin_q15.c ****  * Title:        arm_sin_q15.c
   4:Source\FastMathFunctions/arm_sin_q15.c ****  * Description:  Fast sine calculation for Q15 values
   5:Source\FastMathFunctions/arm_sin_q15.c ****  *
   6:Source\FastMathFunctions/arm_sin_q15.c ****  * $Date:        27. January 2017
   7:Source\FastMathFunctions/arm_sin_q15.c ****  * $Revision:    V.1.5.1
   8:Source\FastMathFunctions/arm_sin_q15.c ****  *
   9:Source\FastMathFunctions/arm_sin_q15.c ****  * Target Processor: Cortex-M cores
  10:Source\FastMathFunctions/arm_sin_q15.c ****  * -------------------------------------------------------------------- */
  11:Source\FastMathFunctions/arm_sin_q15.c **** /*
  12:Source\FastMathFunctions/arm_sin_q15.c ****  * Copyright (C) 2010-2017 ARM Limited or its affiliates. All rights reserved.
  13:Source\FastMathFunctions/arm_sin_q15.c ****  *
  14:Source\FastMathFunctions/arm_sin_q15.c ****  * SPDX-License-Identifier: Apache-2.0
  15:Source\FastMathFunctions/arm_sin_q15.c ****  *
  16:Source\FastMathFunctions/arm_sin_q15.c ****  * Licensed under the Apache License, Version 2.0 (the License); you may
  17:Source\FastMathFunctions/arm_sin_q15.c ****  * not use this file except in compliance with the License.
  18:Source\FastMathFunctions/arm_sin_q15.c ****  * You may obtain a copy of the License at
  19:Source\FastMathFunctions/arm_sin_q15.c ****  *
  20:Source\FastMathFunctions/arm_sin_q15.c ****  * www.apache.org/licenses/LICENSE-2.0
  21:Source\FastMathFunctions/arm_sin_q15.c ****  *
  22:Source\FastMathFunctions/arm_sin_q15.c ****  * Unless required by applicable law or agreed to in writing, software
  23:Source\FastMathFunctions/arm_sin_q15.c ****  * distributed under the License is distributed on an AS IS BASIS, WITHOUT
  24:Source\FastMathFunctions/arm_sin_q15.c ****  * WARRANTIES OR CONDITIONS OF ANY KIND, either express or implied.
  25:Source\FastMathFunctions/arm_sin_q15.c ****  * See the License for the specific language governing permissions and
  26:Source\FastMathFunctions/arm_sin_q15.c ****  * limitations under the License.
  27:Source\FastMathFunctions/arm_sin_q15.c ****  */
  28:Source\FastMathFunctions/arm_sin_q15.c **** 
  29:Source\FastMathFunctions/arm_sin_q15.c **** #include "arm_math.h"
  30:Source\FastMathFunctions/arm_sin_q15.c **** #include "arm_common_tables.h"
  31:Source\FastMathFunctions/arm_sin_q15.c **** 
  32:Source\FastMathFunctions/arm_sin_q15.c **** /**
ARM GAS  C:\Users\fneves\AppData\Local\Temp\ccfUfQOJ.s 			page 2


  33:Source\FastMathFunctions/arm_sin_q15.c ****  * @ingroup groupFastMath
  34:Source\FastMathFunctions/arm_sin_q15.c ****  */
  35:Source\FastMathFunctions/arm_sin_q15.c **** 
  36:Source\FastMathFunctions/arm_sin_q15.c ****  /**
  37:Source\FastMathFunctions/arm_sin_q15.c ****  * @addtogroup sin
  38:Source\FastMathFunctions/arm_sin_q15.c ****  * @{
  39:Source\FastMathFunctions/arm_sin_q15.c ****  */
  40:Source\FastMathFunctions/arm_sin_q15.c **** 
  41:Source\FastMathFunctions/arm_sin_q15.c **** /**
  42:Source\FastMathFunctions/arm_sin_q15.c ****  * @brief Fast approximation to the trigonometric sine function for Q15 data.
  43:Source\FastMathFunctions/arm_sin_q15.c ****  * @param[in] x Scaled input value in radians.
  44:Source\FastMathFunctions/arm_sin_q15.c ****  * @return  sin(x).
  45:Source\FastMathFunctions/arm_sin_q15.c ****  *
  46:Source\FastMathFunctions/arm_sin_q15.c ****  * The Q15 input value is in the range [0 +0.9999] and is mapped to a radian value in the range [0 
  47:Source\FastMathFunctions/arm_sin_q15.c ****  */
  48:Source\FastMathFunctions/arm_sin_q15.c **** 
  49:Source\FastMathFunctions/arm_sin_q15.c **** q15_t arm_sin_q15(
  50:Source\FastMathFunctions/arm_sin_q15.c ****   q15_t x)
  51:Source\FastMathFunctions/arm_sin_q15.c **** {
  26              		.loc 1 51 0
  27              		.cfi_startproc
  28 0000 80B5     		push	{r7, lr}
  29              		.cfi_def_cfa_offset 8
  30              		.cfi_offset 7, -8
  31              		.cfi_offset 14, -4
  32 0002 86B0     		sub	sp, sp, #24
  33              		.cfi_def_cfa_offset 32
  34 0004 00AF     		add	r7, sp, #0
  35              		.cfi_def_cfa_register 7
  36 0006 021C     		mov	r2, r0
  37 0008 BB1D     		add	r3, r7, #6
  38 000a 1A80     		strh	r2, [r3]
  52:Source\FastMathFunctions/arm_sin_q15.c ****   q15_t sinVal;                                  /* Temporary variables for input, output */
  53:Source\FastMathFunctions/arm_sin_q15.c ****   int32_t index;                                 /* Index variables */
  54:Source\FastMathFunctions/arm_sin_q15.c ****   q15_t a, b;                                    /* Four nearest output values */
  55:Source\FastMathFunctions/arm_sin_q15.c ****   q15_t fract;                                   /* Temporary values for fractional values */
  56:Source\FastMathFunctions/arm_sin_q15.c **** 
  57:Source\FastMathFunctions/arm_sin_q15.c ****   /* Calculate the nearest index */
  58:Source\FastMathFunctions/arm_sin_q15.c ****   index = (uint32_t)x >> FAST_MATH_Q15_SHIFT;
  39              		.loc 1 58 0
  40 000c BB1D     		add	r3, r7, #6
  41 000e 0022     		mov	r2, #0
  42 0010 9B5E     		ldrsh	r3, [r3, r2]
  43 0012 9B09     		lsr	r3, r3, #6
  44 0014 7B61     		str	r3, [r7, #20]
  59:Source\FastMathFunctions/arm_sin_q15.c **** 
  60:Source\FastMathFunctions/arm_sin_q15.c ****   /* Calculation of fractional value */
  61:Source\FastMathFunctions/arm_sin_q15.c ****   fract = (x - (index << FAST_MATH_Q15_SHIFT)) << 9;
  45              		.loc 1 61 0
  46 0016 BB1D     		add	r3, r7, #6
  47 0018 0022     		mov	r2, #0
  48 001a 9A5E     		ldrsh	r2, [r3, r2]
  49 001c 7B69     		ldr	r3, [r7, #20]
  50 001e 9B01     		lsl	r3, r3, #6
  51 0020 D31A     		sub	r3, r2, r3
  52 0022 5A02     		lsl	r2, r3, #9
  53 0024 1223     		mov	r3, #18
ARM GAS  C:\Users\fneves\AppData\Local\Temp\ccfUfQOJ.s 			page 3


  54 0026 FB18     		add	r3, r7, r3
  55 0028 1A80     		strh	r2, [r3]
  62:Source\FastMathFunctions/arm_sin_q15.c **** 
  63:Source\FastMathFunctions/arm_sin_q15.c ****   /* Read two nearest values of input value from the sin table */
  64:Source\FastMathFunctions/arm_sin_q15.c ****   a = sinTable_q15[index];
  56              		.loc 1 64 0
  57 002a 1023     		mov	r3, #16
  58 002c FB18     		add	r3, r7, r3
  59 002e 1D4A     		ldr	r2, .L3
  60 0030 7969     		ldr	r1, [r7, #20]
  61 0032 4900     		lsl	r1, r1, #1
  62 0034 8A5A     		ldrh	r2, [r1, r2]
  63 0036 1A80     		strh	r2, [r3]
  65:Source\FastMathFunctions/arm_sin_q15.c ****   b = sinTable_q15[index+1];
  64              		.loc 1 65 0
  65 0038 7B69     		ldr	r3, [r7, #20]
  66 003a 591C     		add	r1, r3, #1
  67 003c 0E23     		mov	r3, #14
  68 003e FB18     		add	r3, r7, r3
  69 0040 184A     		ldr	r2, .L3
  70 0042 4900     		lsl	r1, r1, #1
  71 0044 8A5A     		ldrh	r2, [r1, r2]
  72 0046 1A80     		strh	r2, [r3]
  66:Source\FastMathFunctions/arm_sin_q15.c **** 
  67:Source\FastMathFunctions/arm_sin_q15.c ****   /* Linear interpolation process */
  68:Source\FastMathFunctions/arm_sin_q15.c ****   sinVal = (q31_t)(0x8000-fract)*a >> 16;
  73              		.loc 1 68 0
  74 0048 1223     		mov	r3, #18
  75 004a FB18     		add	r3, r7, r3
  76 004c 0022     		mov	r2, #0
  77 004e 9B5E     		ldrsh	r3, [r3, r2]
  78 0050 8022     		mov	r2, #128
  79 0052 1202     		lsl	r2, r2, #8
  80 0054 D31A     		sub	r3, r2, r3
  81 0056 1022     		mov	r2, #16
  82 0058 BA18     		add	r2, r7, r2
  83 005a 0021     		mov	r1, #0
  84 005c 525E     		ldrsh	r2, [r2, r1]
  85 005e 5343     		mul	r3, r2
  86 0060 1A14     		asr	r2, r3, #16
  87 0062 0C23     		mov	r3, #12
  88 0064 FB18     		add	r3, r7, r3
  89 0066 1A80     		strh	r2, [r3]
  69:Source\FastMathFunctions/arm_sin_q15.c ****   sinVal = (q15_t)((((q31_t)sinVal << 16) + ((q31_t)fract*b)) >> 16);
  90              		.loc 1 69 0
  91 0068 0C23     		mov	r3, #12
  92 006a FB18     		add	r3, r7, r3
  93 006c 0022     		mov	r2, #0
  94 006e 9B5E     		ldrsh	r3, [r3, r2]
  95 0070 1A04     		lsl	r2, r3, #16
  96 0072 1223     		mov	r3, #18
  97 0074 FB18     		add	r3, r7, r3
  98 0076 0021     		mov	r1, #0
  99 0078 5B5E     		ldrsh	r3, [r3, r1]
 100 007a 0E21     		mov	r1, #14
 101 007c 7918     		add	r1, r7, r1
 102 007e 0020     		mov	r0, #0
ARM GAS  C:\Users\fneves\AppData\Local\Temp\ccfUfQOJ.s 			page 4


 103 0080 095E     		ldrsh	r1, [r1, r0]
 104 0082 4B43     		mul	r3, r1
 105 0084 D318     		add	r3, r2, r3
 106 0086 1A14     		asr	r2, r3, #16
 107 0088 0C23     		mov	r3, #12
 108 008a FB18     		add	r3, r7, r3
 109 008c 1A80     		strh	r2, [r3]
  70:Source\FastMathFunctions/arm_sin_q15.c **** 
  71:Source\FastMathFunctions/arm_sin_q15.c ****   return sinVal << 1;
 110              		.loc 1 71 0
 111 008e 0C23     		mov	r3, #12
 112 0090 FB18     		add	r3, r7, r3
 113 0092 0022     		mov	r2, #0
 114 0094 9B5E     		ldrsh	r3, [r3, r2]
 115 0096 5B00     		lsl	r3, r3, #1
 116 0098 9BB2     		uxth	r3, r3
 117 009a 1BB2     		sxth	r3, r3
  72:Source\FastMathFunctions/arm_sin_q15.c **** }
 118              		.loc 1 72 0
 119 009c 181C     		mov	r0, r3
 120 009e BD46     		mov	sp, r7
 121 00a0 06B0     		add	sp, sp, #24
 122              		@ sp needed
 123 00a2 80BD     		pop	{r7, pc}
 124              	.L4:
 125              		.align	2
 126              	.L3:
 127 00a4 00000000 		.word	sinTable_q15
 128              		.cfi_endproc
 129              	.LFE82:
 130              		.size	arm_sin_q15, .-arm_sin_q15
 131              		.text
 132              	.Letext0:
 133              		.file 2 "c:\\program files (x86)\\cypress\\psoc creator\\4.0\\psoc creator\\import\\gnu\\arm\\4.9.
 134              		.file 3 "c:\\program files (x86)\\cypress\\psoc creator\\4.0\\psoc creator\\import\\gnu\\arm\\4.9.
 135              		.file 4 ".\\Include/arm_math.h"
 136              		.file 5 ".\\Include/arm_common_tables.h"