ARM GAS  C:\Users\fneves\AppData\Local\Temp\ccJd8QdY.s 			page 1


   1              		.cpu cortex-m0plus
   2              		.fpu softvfp
   3              		.eabi_attribute 20, 1
   4              		.eabi_attribute 21, 1
   5              		.eabi_attribute 23, 3
   6              		.eabi_attribute 24, 1
   7              		.eabi_attribute 25, 1
   8              		.eabi_attribute 26, 1
   9              		.eabi_attribute 30, 6
  10              		.eabi_attribute 34, 0
  11              		.eabi_attribute 18, 4
  12              		.code	16
  13              		.file	"arm_fir_init_q15.c"
  14              		.text
  15              	.Ltext0:
  16              		.cfi_sections	.debug_frame
  17              		.section	.text.arm_fir_init_q15,"ax",%progbits
  18              		.align	2
  19              		.global	arm_fir_init_q15
  20              		.code	16
  21              		.thumb_func
  22              		.type	arm_fir_init_q15, %function
  23              	arm_fir_init_q15:
  24              	.LFB82:
  25              		.file 1 "Source\\FilteringFunctions\\arm_fir_init_q15.c"
   1:Source\FilteringFunctions/arm_fir_init_q15.c **** /* ----------------------------------------------------------------------
   2:Source\FilteringFunctions/arm_fir_init_q15.c ****  * Project:      CMSIS DSP Library
   3:Source\FilteringFunctions/arm_fir_init_q15.c ****  * Title:        arm_fir_init_q15.c
   4:Source\FilteringFunctions/arm_fir_init_q15.c ****  * Description:  Q15 FIR filter initialization function
   5:Source\FilteringFunctions/arm_fir_init_q15.c ****  *
   6:Source\FilteringFunctions/arm_fir_init_q15.c ****  * $Date:        27. January 2017
   7:Source\FilteringFunctions/arm_fir_init_q15.c ****  * $Revision:    V.1.5.1
   8:Source\FilteringFunctions/arm_fir_init_q15.c ****  *
   9:Source\FilteringFunctions/arm_fir_init_q15.c ****  * Target Processor: Cortex-M cores
  10:Source\FilteringFunctions/arm_fir_init_q15.c ****  * -------------------------------------------------------------------- */
  11:Source\FilteringFunctions/arm_fir_init_q15.c **** /*
  12:Source\FilteringFunctions/arm_fir_init_q15.c ****  * Copyright (C) 2010-2017 ARM Limited or its affiliates. All rights reserved.
  13:Source\FilteringFunctions/arm_fir_init_q15.c ****  *
  14:Source\FilteringFunctions/arm_fir_init_q15.c ****  * SPDX-License-Identifier: Apache-2.0
  15:Source\FilteringFunctions/arm_fir_init_q15.c ****  *
  16:Source\FilteringFunctions/arm_fir_init_q15.c ****  * Licensed under the Apache License, Version 2.0 (the License); you may
  17:Source\FilteringFunctions/arm_fir_init_q15.c ****  * not use this file except in compliance with the License.
  18:Source\FilteringFunctions/arm_fir_init_q15.c ****  * You may obtain a copy of the License at
  19:Source\FilteringFunctions/arm_fir_init_q15.c ****  *
  20:Source\FilteringFunctions/arm_fir_init_q15.c ****  * www.apache.org/licenses/LICENSE-2.0
  21:Source\FilteringFunctions/arm_fir_init_q15.c ****  *
  22:Source\FilteringFunctions/arm_fir_init_q15.c ****  * Unless required by applicable law or agreed to in writing, software
  23:Source\FilteringFunctions/arm_fir_init_q15.c ****  * distributed under the License is distributed on an AS IS BASIS, WITHOUT
  24:Source\FilteringFunctions/arm_fir_init_q15.c ****  * WARRANTIES OR CONDITIONS OF ANY KIND, either express or implied.
  25:Source\FilteringFunctions/arm_fir_init_q15.c ****  * See the License for the specific language governing permissions and
  26:Source\FilteringFunctions/arm_fir_init_q15.c ****  * limitations under the License.
  27:Source\FilteringFunctions/arm_fir_init_q15.c ****  */
  28:Source\FilteringFunctions/arm_fir_init_q15.c **** 
  29:Source\FilteringFunctions/arm_fir_init_q15.c **** #include "arm_math.h"
  30:Source\FilteringFunctions/arm_fir_init_q15.c **** 
  31:Source\FilteringFunctions/arm_fir_init_q15.c **** /**
  32:Source\FilteringFunctions/arm_fir_init_q15.c ****  * @ingroup groupFilters
ARM GAS  C:\Users\fneves\AppData\Local\Temp\ccJd8QdY.s 			page 2


  33:Source\FilteringFunctions/arm_fir_init_q15.c ****  */
  34:Source\FilteringFunctions/arm_fir_init_q15.c **** 
  35:Source\FilteringFunctions/arm_fir_init_q15.c **** /**
  36:Source\FilteringFunctions/arm_fir_init_q15.c ****  * @addtogroup FIR
  37:Source\FilteringFunctions/arm_fir_init_q15.c ****  * @{
  38:Source\FilteringFunctions/arm_fir_init_q15.c ****  */
  39:Source\FilteringFunctions/arm_fir_init_q15.c **** 
  40:Source\FilteringFunctions/arm_fir_init_q15.c **** /**
  41:Source\FilteringFunctions/arm_fir_init_q15.c ****  * @param[in,out]  *S points to an instance of the Q15 FIR filter structure.
  42:Source\FilteringFunctions/arm_fir_init_q15.c ****  * @param[in] 	   numTaps  Number of filter coefficients in the filter. Must be even and greater th
  43:Source\FilteringFunctions/arm_fir_init_q15.c ****  * @param[in]      *pCoeffs points to the filter coefficients buffer.
  44:Source\FilteringFunctions/arm_fir_init_q15.c ****  * @param[in]      *pState points to the state buffer.
  45:Source\FilteringFunctions/arm_fir_init_q15.c ****  * @param[in]      blockSize is number of samples processed per call.
  46:Source\FilteringFunctions/arm_fir_init_q15.c ****  * @return The function returns ARM_MATH_SUCCESS if initialization is successful or ARM_MATH_ARGUME
  47:Source\FilteringFunctions/arm_fir_init_q15.c ****  * <code>numTaps</code> is not greater than or equal to 4 and even.
  48:Source\FilteringFunctions/arm_fir_init_q15.c ****  *
  49:Source\FilteringFunctions/arm_fir_init_q15.c ****  * <b>Description:</b>
  50:Source\FilteringFunctions/arm_fir_init_q15.c ****  * \par
  51:Source\FilteringFunctions/arm_fir_init_q15.c ****  * <code>pCoeffs</code> points to the array of filter coefficients stored in time reversed order:
  52:Source\FilteringFunctions/arm_fir_init_q15.c ****  * <pre>
  53:Source\FilteringFunctions/arm_fir_init_q15.c ****  *    {b[numTaps-1], b[numTaps-2], b[N-2], ..., b[1], b[0]}
  54:Source\FilteringFunctions/arm_fir_init_q15.c ****  * </pre>
  55:Source\FilteringFunctions/arm_fir_init_q15.c ****  * Note that <code>numTaps</code> must be even and greater than or equal to 4.
  56:Source\FilteringFunctions/arm_fir_init_q15.c ****  * To implement an odd length filter simply increase <code>numTaps</code> by 1 and set the last coe
  57:Source\FilteringFunctions/arm_fir_init_q15.c ****  * For example, to implement a filter with <code>numTaps=3</code> and coefficients
  58:Source\FilteringFunctions/arm_fir_init_q15.c ****  * <pre>
  59:Source\FilteringFunctions/arm_fir_init_q15.c ****  *     {0.3, -0.8, 0.3}
  60:Source\FilteringFunctions/arm_fir_init_q15.c ****  * </pre>
  61:Source\FilteringFunctions/arm_fir_init_q15.c ****  * set <code>numTaps=4</code> and use the coefficients:
  62:Source\FilteringFunctions/arm_fir_init_q15.c ****  * <pre>
  63:Source\FilteringFunctions/arm_fir_init_q15.c ****  *     {0.3, -0.8, 0.3, 0}.
  64:Source\FilteringFunctions/arm_fir_init_q15.c ****  * </pre>
  65:Source\FilteringFunctions/arm_fir_init_q15.c ****  * Similarly, to implement a two point filter
  66:Source\FilteringFunctions/arm_fir_init_q15.c ****  * <pre>
  67:Source\FilteringFunctions/arm_fir_init_q15.c ****  *     {0.3, -0.3}
  68:Source\FilteringFunctions/arm_fir_init_q15.c ****  * </pre>
  69:Source\FilteringFunctions/arm_fir_init_q15.c ****  * set <code>numTaps=4</code> and use the coefficients:
  70:Source\FilteringFunctions/arm_fir_init_q15.c ****  * <pre>
  71:Source\FilteringFunctions/arm_fir_init_q15.c ****  *     {0.3, -0.3, 0, 0}.
  72:Source\FilteringFunctions/arm_fir_init_q15.c ****  * </pre>
  73:Source\FilteringFunctions/arm_fir_init_q15.c ****  * \par
  74:Source\FilteringFunctions/arm_fir_init_q15.c ****  * <code>pState</code> points to the array of state variables.
  75:Source\FilteringFunctions/arm_fir_init_q15.c ****  * <code>pState</code> is of length <code>numTaps+blockSize</code>, when running on Cortex-M4 and C
  76:Source\FilteringFunctions/arm_fir_init_q15.c ****  */
  77:Source\FilteringFunctions/arm_fir_init_q15.c **** 
  78:Source\FilteringFunctions/arm_fir_init_q15.c **** arm_status arm_fir_init_q15(
  79:Source\FilteringFunctions/arm_fir_init_q15.c ****   arm_fir_instance_q15 * S,
  80:Source\FilteringFunctions/arm_fir_init_q15.c ****   uint16_t numTaps,
  81:Source\FilteringFunctions/arm_fir_init_q15.c ****   q15_t * pCoeffs,
  82:Source\FilteringFunctions/arm_fir_init_q15.c ****   q15_t * pState,
  83:Source\FilteringFunctions/arm_fir_init_q15.c ****   uint32_t blockSize)
  84:Source\FilteringFunctions/arm_fir_init_q15.c **** {
  26              		.loc 1 84 0
  27              		.cfi_startproc
  28 0000 80B5     		push	{r7, lr}
  29              		.cfi_def_cfa_offset 8
  30              		.cfi_offset 7, -8
ARM GAS  C:\Users\fneves\AppData\Local\Temp\ccJd8QdY.s 			page 3


  31              		.cfi_offset 14, -4
  32 0002 86B0     		sub	sp, sp, #24
  33              		.cfi_def_cfa_offset 32
  34 0004 00AF     		add	r7, sp, #0
  35              		.cfi_def_cfa_register 7
  36 0006 F860     		str	r0, [r7, #12]
  37 0008 7A60     		str	r2, [r7, #4]
  38 000a 3B60     		str	r3, [r7]
  39 000c 0A23     		mov	r3, #10
  40 000e FB18     		add	r3, r7, r3
  41 0010 0A1C     		add	r2, r1, #0
  42 0012 1A80     		strh	r2, [r3]
  85:Source\FilteringFunctions/arm_fir_init_q15.c ****   arm_status status;
  86:Source\FilteringFunctions/arm_fir_init_q15.c **** 
  87:Source\FilteringFunctions/arm_fir_init_q15.c **** 
  88:Source\FilteringFunctions/arm_fir_init_q15.c **** #if defined (ARM_MATH_DSP)
  89:Source\FilteringFunctions/arm_fir_init_q15.c **** 
  90:Source\FilteringFunctions/arm_fir_init_q15.c ****   /* Run the below code for Cortex-M4 and Cortex-M3 */
  91:Source\FilteringFunctions/arm_fir_init_q15.c **** 
  92:Source\FilteringFunctions/arm_fir_init_q15.c ****   /* The Number of filter coefficients in the filter must be even and at least 4 */
  93:Source\FilteringFunctions/arm_fir_init_q15.c ****   if (numTaps & 0x1u)
  94:Source\FilteringFunctions/arm_fir_init_q15.c ****   {
  95:Source\FilteringFunctions/arm_fir_init_q15.c ****     status = ARM_MATH_ARGUMENT_ERROR;
  96:Source\FilteringFunctions/arm_fir_init_q15.c ****   }
  97:Source\FilteringFunctions/arm_fir_init_q15.c ****   else
  98:Source\FilteringFunctions/arm_fir_init_q15.c ****   {
  99:Source\FilteringFunctions/arm_fir_init_q15.c ****     /* Assign filter taps */
 100:Source\FilteringFunctions/arm_fir_init_q15.c ****     S->numTaps = numTaps;
 101:Source\FilteringFunctions/arm_fir_init_q15.c **** 
 102:Source\FilteringFunctions/arm_fir_init_q15.c ****     /* Assign coefficient pointer */
 103:Source\FilteringFunctions/arm_fir_init_q15.c ****     S->pCoeffs = pCoeffs;
 104:Source\FilteringFunctions/arm_fir_init_q15.c **** 
 105:Source\FilteringFunctions/arm_fir_init_q15.c ****     /* Clear the state buffer.  The size is always (blockSize + numTaps ) */
 106:Source\FilteringFunctions/arm_fir_init_q15.c ****     memset(pState, 0, (numTaps + (blockSize)) * sizeof(q15_t));
 107:Source\FilteringFunctions/arm_fir_init_q15.c **** 
 108:Source\FilteringFunctions/arm_fir_init_q15.c ****     /* Assign state pointer */
 109:Source\FilteringFunctions/arm_fir_init_q15.c ****     S->pState = pState;
 110:Source\FilteringFunctions/arm_fir_init_q15.c **** 
 111:Source\FilteringFunctions/arm_fir_init_q15.c ****     status = ARM_MATH_SUCCESS;
 112:Source\FilteringFunctions/arm_fir_init_q15.c ****   }
 113:Source\FilteringFunctions/arm_fir_init_q15.c **** 
 114:Source\FilteringFunctions/arm_fir_init_q15.c ****   return (status);
 115:Source\FilteringFunctions/arm_fir_init_q15.c **** 
 116:Source\FilteringFunctions/arm_fir_init_q15.c **** #else
 117:Source\FilteringFunctions/arm_fir_init_q15.c **** 
 118:Source\FilteringFunctions/arm_fir_init_q15.c ****   /* Run the below code for Cortex-M0 */
 119:Source\FilteringFunctions/arm_fir_init_q15.c **** 
 120:Source\FilteringFunctions/arm_fir_init_q15.c ****   /* Assign filter taps */
 121:Source\FilteringFunctions/arm_fir_init_q15.c ****   S->numTaps = numTaps;
  43              		.loc 1 121 0
  44 0014 FB68     		ldr	r3, [r7, #12]
  45 0016 0A22     		mov	r2, #10
  46 0018 BA18     		add	r2, r7, r2
  47 001a 1288     		ldrh	r2, [r2]
  48 001c 1A80     		strh	r2, [r3]
 122:Source\FilteringFunctions/arm_fir_init_q15.c **** 
 123:Source\FilteringFunctions/arm_fir_init_q15.c ****   /* Assign coefficient pointer */
ARM GAS  C:\Users\fneves\AppData\Local\Temp\ccJd8QdY.s 			page 4


 124:Source\FilteringFunctions/arm_fir_init_q15.c ****   S->pCoeffs = pCoeffs;
  49              		.loc 1 124 0
  50 001e FB68     		ldr	r3, [r7, #12]
  51 0020 7A68     		ldr	r2, [r7, #4]
  52 0022 9A60     		str	r2, [r3, #8]
 125:Source\FilteringFunctions/arm_fir_init_q15.c **** 
 126:Source\FilteringFunctions/arm_fir_init_q15.c ****   /* Clear the state buffer.  The size is always (blockSize + numTaps - 1) */
 127:Source\FilteringFunctions/arm_fir_init_q15.c ****   memset(pState, 0, (numTaps + (blockSize - 1u)) * sizeof(q15_t));
  53              		.loc 1 127 0
  54 0024 0A23     		mov	r3, #10
  55 0026 FB18     		add	r3, r7, r3
  56 0028 1A88     		ldrh	r2, [r3]
  57 002a 3B6A     		ldr	r3, [r7, #32]
  58 002c D318     		add	r3, r2, r3
  59 002e 0C4A     		ldr	r2, .L3
  60 0030 9446     		mov	ip, r2
  61 0032 6344     		add	r3, r3, ip
  62 0034 5B00     		lsl	r3, r3, #1
  63 0036 3A68     		ldr	r2, [r7]
  64 0038 101C     		mov	r0, r2
  65 003a 0021     		mov	r1, #0
  66 003c 1A1C     		mov	r2, r3
  67 003e FFF7FEFF 		bl	memset
 128:Source\FilteringFunctions/arm_fir_init_q15.c **** 
 129:Source\FilteringFunctions/arm_fir_init_q15.c ****   /* Assign state pointer */
 130:Source\FilteringFunctions/arm_fir_init_q15.c ****   S->pState = pState;
  68              		.loc 1 130 0
  69 0042 FB68     		ldr	r3, [r7, #12]
  70 0044 3A68     		ldr	r2, [r7]
  71 0046 5A60     		str	r2, [r3, #4]
 131:Source\FilteringFunctions/arm_fir_init_q15.c **** 
 132:Source\FilteringFunctions/arm_fir_init_q15.c ****   status = ARM_MATH_SUCCESS;
  72              		.loc 1 132 0
  73 0048 1723     		mov	r3, #23
  74 004a FB18     		add	r3, r7, r3
  75 004c 0022     		mov	r2, #0
  76 004e 1A70     		strb	r2, [r3]
 133:Source\FilteringFunctions/arm_fir_init_q15.c **** 
 134:Source\FilteringFunctions/arm_fir_init_q15.c ****   return (status);
  77              		.loc 1 134 0
  78 0050 1723     		mov	r3, #23
  79 0052 FB18     		add	r3, r7, r3
  80 0054 1B78     		ldrb	r3, [r3]
  81 0056 5BB2     		sxtb	r3, r3
 135:Source\FilteringFunctions/arm_fir_init_q15.c **** 
 136:Source\FilteringFunctions/arm_fir_init_q15.c **** #endif /*  #if defined (ARM_MATH_DSP) */
 137:Source\FilteringFunctions/arm_fir_init_q15.c **** 
 138:Source\FilteringFunctions/arm_fir_init_q15.c **** }
  82              		.loc 1 138 0
  83 0058 181C     		mov	r0, r3
  84 005a BD46     		mov	sp, r7
  85 005c 06B0     		add	sp, sp, #24
  86              		@ sp needed
  87 005e 80BD     		pop	{r7, pc}
  88              	.L4:
  89              		.align	2
  90              	.L3:
ARM GAS  C:\Users\fneves\AppData\Local\Temp\ccJd8QdY.s 			page 5


  91 0060 FFFFFF7F 		.word	2147483647
  92              		.cfi_endproc
  93              	.LFE82:
  94              		.size	arm_fir_init_q15, .-arm_fir_init_q15
  95              		.text
  96              	.Letext0:
  97              		.file 2 "c:\\program files (x86)\\cypress\\psoc creator\\4.0\\psoc creator\\import\\gnu\\arm\\4.9.
  98              		.file 3 "c:\\program files (x86)\\cypress\\psoc creator\\4.0\\psoc creator\\import\\gnu\\arm\\4.9.
  99              		.file 4 ".\\Include/arm_math.h"