ARM GAS  C:\Users\fneves\AppData\Local\Temp\ccKA1gxa.s 			page 1


   1              		.cpu cortex-m0plus
   2              		.fpu softvfp
   3              		.eabi_attribute 20, 1
   4              		.eabi_attribute 21, 1
   5              		.eabi_attribute 23, 3
   6              		.eabi_attribute 24, 1
   7              		.eabi_attribute 25, 1
   8              		.eabi_attribute 26, 1
   9              		.eabi_attribute 30, 6
  10              		.eabi_attribute 34, 0
  11              		.eabi_attribute 18, 4
  12              		.code	16
  13              		.file	"arm_q7_to_q15.c"
  14              		.text
  15              	.Ltext0:
  16              		.cfi_sections	.debug_frame
  17              		.section	.text.arm_q7_to_q15,"ax",%progbits
  18              		.align	2
  19              		.global	arm_q7_to_q15
  20              		.code	16
  21              		.thumb_func
  22              		.type	arm_q7_to_q15, %function
  23              	arm_q7_to_q15:
  24              	.LFB82:
  25              		.file 1 "Source\\SupportFunctions\\arm_q7_to_q15.c"
   1:Source\SupportFunctions/arm_q7_to_q15.c **** /* ----------------------------------------------------------------------
   2:Source\SupportFunctions/arm_q7_to_q15.c ****  * Project:      CMSIS DSP Library
   3:Source\SupportFunctions/arm_q7_to_q15.c ****  * Title:        arm_q7_to_q15.c
   4:Source\SupportFunctions/arm_q7_to_q15.c ****  * Description:  Converts the elements of the Q7 vector to Q15 vector
   5:Source\SupportFunctions/arm_q7_to_q15.c ****  *
   6:Source\SupportFunctions/arm_q7_to_q15.c ****  * $Date:        27. January 2017
   7:Source\SupportFunctions/arm_q7_to_q15.c ****  * $Revision:    V.1.5.1
   8:Source\SupportFunctions/arm_q7_to_q15.c ****  *
   9:Source\SupportFunctions/arm_q7_to_q15.c ****  * Target Processor: Cortex-M cores
  10:Source\SupportFunctions/arm_q7_to_q15.c ****  * -------------------------------------------------------------------- */
  11:Source\SupportFunctions/arm_q7_to_q15.c **** /*
  12:Source\SupportFunctions/arm_q7_to_q15.c ****  * Copyright (C) 2010-2017 ARM Limited or its affiliates. All rights reserved.
  13:Source\SupportFunctions/arm_q7_to_q15.c ****  *
  14:Source\SupportFunctions/arm_q7_to_q15.c ****  * SPDX-License-Identifier: Apache-2.0
  15:Source\SupportFunctions/arm_q7_to_q15.c ****  *
  16:Source\SupportFunctions/arm_q7_to_q15.c ****  * Licensed under the Apache License, Version 2.0 (the License); you may
  17:Source\SupportFunctions/arm_q7_to_q15.c ****  * not use this file except in compliance with the License.
  18:Source\SupportFunctions/arm_q7_to_q15.c ****  * You may obtain a copy of the License at
  19:Source\SupportFunctions/arm_q7_to_q15.c ****  *
  20:Source\SupportFunctions/arm_q7_to_q15.c ****  * www.apache.org/licenses/LICENSE-2.0
  21:Source\SupportFunctions/arm_q7_to_q15.c ****  *
  22:Source\SupportFunctions/arm_q7_to_q15.c ****  * Unless required by applicable law or agreed to in writing, software
  23:Source\SupportFunctions/arm_q7_to_q15.c ****  * distributed under the License is distributed on an AS IS BASIS, WITHOUT
  24:Source\SupportFunctions/arm_q7_to_q15.c ****  * WARRANTIES OR CONDITIONS OF ANY KIND, either express or implied.
  25:Source\SupportFunctions/arm_q7_to_q15.c ****  * See the License for the specific language governing permissions and
  26:Source\SupportFunctions/arm_q7_to_q15.c ****  * limitations under the License.
  27:Source\SupportFunctions/arm_q7_to_q15.c ****  */
  28:Source\SupportFunctions/arm_q7_to_q15.c **** 
  29:Source\SupportFunctions/arm_q7_to_q15.c **** #include "arm_math.h"
  30:Source\SupportFunctions/arm_q7_to_q15.c **** 
  31:Source\SupportFunctions/arm_q7_to_q15.c **** /**
  32:Source\SupportFunctions/arm_q7_to_q15.c ****  * @ingroup groupSupport
ARM GAS  C:\Users\fneves\AppData\Local\Temp\ccKA1gxa.s 			page 2


  33:Source\SupportFunctions/arm_q7_to_q15.c ****  */
  34:Source\SupportFunctions/arm_q7_to_q15.c **** 
  35:Source\SupportFunctions/arm_q7_to_q15.c **** /**
  36:Source\SupportFunctions/arm_q7_to_q15.c ****  * @addtogroup q7_to_x
  37:Source\SupportFunctions/arm_q7_to_q15.c ****  * @{
  38:Source\SupportFunctions/arm_q7_to_q15.c ****  */
  39:Source\SupportFunctions/arm_q7_to_q15.c **** 
  40:Source\SupportFunctions/arm_q7_to_q15.c **** 
  41:Source\SupportFunctions/arm_q7_to_q15.c **** 
  42:Source\SupportFunctions/arm_q7_to_q15.c **** 
  43:Source\SupportFunctions/arm_q7_to_q15.c **** /**
  44:Source\SupportFunctions/arm_q7_to_q15.c ****  * @brief Converts the elements of the Q7 vector to Q15 vector.
  45:Source\SupportFunctions/arm_q7_to_q15.c ****  * @param[in]       *pSrc points to the Q7 input vector
  46:Source\SupportFunctions/arm_q7_to_q15.c ****  * @param[out]      *pDst points to the Q15 output vector
  47:Source\SupportFunctions/arm_q7_to_q15.c ****  * @param[in]       blockSize length of the input vector
  48:Source\SupportFunctions/arm_q7_to_q15.c ****  * @return none.
  49:Source\SupportFunctions/arm_q7_to_q15.c ****  *
  50:Source\SupportFunctions/arm_q7_to_q15.c ****  * \par Description:
  51:Source\SupportFunctions/arm_q7_to_q15.c ****  *
  52:Source\SupportFunctions/arm_q7_to_q15.c ****  * The equation used for the conversion process is:
  53:Source\SupportFunctions/arm_q7_to_q15.c ****  *
  54:Source\SupportFunctions/arm_q7_to_q15.c ****  * <pre>
  55:Source\SupportFunctions/arm_q7_to_q15.c ****  * 	pDst[n] = (q15_t) pSrc[n] << 8;   0 <= n < blockSize.
  56:Source\SupportFunctions/arm_q7_to_q15.c ****  * </pre>
  57:Source\SupportFunctions/arm_q7_to_q15.c ****  *
  58:Source\SupportFunctions/arm_q7_to_q15.c ****  */
  59:Source\SupportFunctions/arm_q7_to_q15.c **** 
  60:Source\SupportFunctions/arm_q7_to_q15.c **** 
  61:Source\SupportFunctions/arm_q7_to_q15.c **** void arm_q7_to_q15(
  62:Source\SupportFunctions/arm_q7_to_q15.c ****   q7_t * pSrc,
  63:Source\SupportFunctions/arm_q7_to_q15.c ****   q15_t * pDst,
  64:Source\SupportFunctions/arm_q7_to_q15.c ****   uint32_t blockSize)
  65:Source\SupportFunctions/arm_q7_to_q15.c **** {
  26              		.loc 1 65 0
  27              		.cfi_startproc
  28 0000 80B5     		push	{r7, lr}
  29              		.cfi_def_cfa_offset 8
  30              		.cfi_offset 7, -8
  31              		.cfi_offset 14, -4
  32 0002 86B0     		sub	sp, sp, #24
  33              		.cfi_def_cfa_offset 32
  34 0004 00AF     		add	r7, sp, #0
  35              		.cfi_def_cfa_register 7
  36 0006 F860     		str	r0, [r7, #12]
  37 0008 B960     		str	r1, [r7, #8]
  38 000a 7A60     		str	r2, [r7, #4]
  66:Source\SupportFunctions/arm_q7_to_q15.c ****   q7_t *pIn = pSrc;                              /* Src pointer */
  39              		.loc 1 66 0
  40 000c FB68     		ldr	r3, [r7, #12]
  41 000e 7B61     		str	r3, [r7, #20]
  67:Source\SupportFunctions/arm_q7_to_q15.c ****   uint32_t blkCnt;                               /* loop counter */
  68:Source\SupportFunctions/arm_q7_to_q15.c **** 
  69:Source\SupportFunctions/arm_q7_to_q15.c **** #if defined (ARM_MATH_DSP)
  70:Source\SupportFunctions/arm_q7_to_q15.c ****   q31_t in;
  71:Source\SupportFunctions/arm_q7_to_q15.c ****   q31_t in1, in2;
  72:Source\SupportFunctions/arm_q7_to_q15.c ****   q31_t out1, out2;
  73:Source\SupportFunctions/arm_q7_to_q15.c **** 
ARM GAS  C:\Users\fneves\AppData\Local\Temp\ccKA1gxa.s 			page 3


  74:Source\SupportFunctions/arm_q7_to_q15.c ****   /* Run the below code for Cortex-M4 and Cortex-M3 */
  75:Source\SupportFunctions/arm_q7_to_q15.c **** 
  76:Source\SupportFunctions/arm_q7_to_q15.c ****   /*loop Unrolling */
  77:Source\SupportFunctions/arm_q7_to_q15.c ****   blkCnt = blockSize >> 2u;
  78:Source\SupportFunctions/arm_q7_to_q15.c **** 
  79:Source\SupportFunctions/arm_q7_to_q15.c ****   /* First part of the processing with loop unrolling.  Compute 4 outputs at a time.
  80:Source\SupportFunctions/arm_q7_to_q15.c ****    ** a second loop below computes the remaining 1 to 3 samples. */
  81:Source\SupportFunctions/arm_q7_to_q15.c ****   while (blkCnt > 0u)
  82:Source\SupportFunctions/arm_q7_to_q15.c ****   {
  83:Source\SupportFunctions/arm_q7_to_q15.c ****     /* C = (q15_t) A << 8 */
  84:Source\SupportFunctions/arm_q7_to_q15.c ****     /* convert from q7 to q15 and then store the results in the destination buffer */
  85:Source\SupportFunctions/arm_q7_to_q15.c ****     in = *__SIMD32(pIn)++;
  86:Source\SupportFunctions/arm_q7_to_q15.c **** 
  87:Source\SupportFunctions/arm_q7_to_q15.c ****     /* rotatate in by 8 and extend two q7_t values to q15_t values */
  88:Source\SupportFunctions/arm_q7_to_q15.c ****     in1 = __SXTB16(__ROR(in, 8));
  89:Source\SupportFunctions/arm_q7_to_q15.c **** 
  90:Source\SupportFunctions/arm_q7_to_q15.c ****     /* extend remainig two q7_t values to q15_t values */
  91:Source\SupportFunctions/arm_q7_to_q15.c ****     in2 = __SXTB16(in);
  92:Source\SupportFunctions/arm_q7_to_q15.c **** 
  93:Source\SupportFunctions/arm_q7_to_q15.c ****     in1 = in1 << 8u;
  94:Source\SupportFunctions/arm_q7_to_q15.c ****     in2 = in2 << 8u;
  95:Source\SupportFunctions/arm_q7_to_q15.c **** 
  96:Source\SupportFunctions/arm_q7_to_q15.c ****     in1 = in1 & 0xFF00FF00;
  97:Source\SupportFunctions/arm_q7_to_q15.c ****     in2 = in2 & 0xFF00FF00;
  98:Source\SupportFunctions/arm_q7_to_q15.c **** 
  99:Source\SupportFunctions/arm_q7_to_q15.c **** #ifndef ARM_MATH_BIG_ENDIAN
 100:Source\SupportFunctions/arm_q7_to_q15.c **** 
 101:Source\SupportFunctions/arm_q7_to_q15.c ****     out2 = __PKHTB(in1, in2, 16);
 102:Source\SupportFunctions/arm_q7_to_q15.c ****     out1 = __PKHBT(in2, in1, 16);
 103:Source\SupportFunctions/arm_q7_to_q15.c **** 
 104:Source\SupportFunctions/arm_q7_to_q15.c **** #else
 105:Source\SupportFunctions/arm_q7_to_q15.c **** 
 106:Source\SupportFunctions/arm_q7_to_q15.c ****     out1 = __PKHTB(in1, in2, 16);
 107:Source\SupportFunctions/arm_q7_to_q15.c ****     out2 = __PKHBT(in2, in1, 16);
 108:Source\SupportFunctions/arm_q7_to_q15.c **** 
 109:Source\SupportFunctions/arm_q7_to_q15.c **** #endif
 110:Source\SupportFunctions/arm_q7_to_q15.c **** 
 111:Source\SupportFunctions/arm_q7_to_q15.c ****     *__SIMD32(pDst)++ = out1;
 112:Source\SupportFunctions/arm_q7_to_q15.c ****     *__SIMD32(pDst)++ = out2;
 113:Source\SupportFunctions/arm_q7_to_q15.c **** 
 114:Source\SupportFunctions/arm_q7_to_q15.c ****     /* Decrement the loop counter */
 115:Source\SupportFunctions/arm_q7_to_q15.c ****     blkCnt--;
 116:Source\SupportFunctions/arm_q7_to_q15.c ****   }
 117:Source\SupportFunctions/arm_q7_to_q15.c **** 
 118:Source\SupportFunctions/arm_q7_to_q15.c ****   /* If the blockSize is not a multiple of 4, compute any remaining output samples here.
 119:Source\SupportFunctions/arm_q7_to_q15.c ****    ** No loop unrolling is used. */
 120:Source\SupportFunctions/arm_q7_to_q15.c ****   blkCnt = blockSize % 0x4u;
 121:Source\SupportFunctions/arm_q7_to_q15.c **** 
 122:Source\SupportFunctions/arm_q7_to_q15.c **** #else
 123:Source\SupportFunctions/arm_q7_to_q15.c **** 
 124:Source\SupportFunctions/arm_q7_to_q15.c ****   /* Run the below code for Cortex-M0 */
 125:Source\SupportFunctions/arm_q7_to_q15.c **** 
 126:Source\SupportFunctions/arm_q7_to_q15.c ****   /* Loop over blockSize number of values */
 127:Source\SupportFunctions/arm_q7_to_q15.c ****   blkCnt = blockSize;
  42              		.loc 1 127 0
  43 0010 7B68     		ldr	r3, [r7, #4]
  44 0012 3B61     		str	r3, [r7, #16]
ARM GAS  C:\Users\fneves\AppData\Local\Temp\ccKA1gxa.s 			page 4


 128:Source\SupportFunctions/arm_q7_to_q15.c **** 
 129:Source\SupportFunctions/arm_q7_to_q15.c **** #endif /* #if defined (ARM_MATH_DSP) */
 130:Source\SupportFunctions/arm_q7_to_q15.c **** 
 131:Source\SupportFunctions/arm_q7_to_q15.c ****   while (blkCnt > 0u)
  45              		.loc 1 131 0
  46 0014 0DE0     		b	.L2
  47              	.L3:
 132:Source\SupportFunctions/arm_q7_to_q15.c ****   {
 133:Source\SupportFunctions/arm_q7_to_q15.c ****     /* C = (q15_t) A << 8 */
 134:Source\SupportFunctions/arm_q7_to_q15.c ****     /* convert from q7 to q15 and then store the results in the destination buffer */
 135:Source\SupportFunctions/arm_q7_to_q15.c ****     *pDst++ = (q15_t) * pIn++ << 8;
  48              		.loc 1 135 0
  49 0016 BB68     		ldr	r3, [r7, #8]
  50 0018 9A1C     		add	r2, r3, #2
  51 001a BA60     		str	r2, [r7, #8]
  52 001c 7A69     		ldr	r2, [r7, #20]
  53 001e 511C     		add	r1, r2, #1
  54 0020 7961     		str	r1, [r7, #20]
  55 0022 1278     		ldrb	r2, [r2]
  56 0024 52B2     		sxtb	r2, r2
  57 0026 1202     		lsl	r2, r2, #8
  58 0028 92B2     		uxth	r2, r2
  59 002a 1A80     		strh	r2, [r3]
 136:Source\SupportFunctions/arm_q7_to_q15.c **** 
 137:Source\SupportFunctions/arm_q7_to_q15.c ****     /* Decrement the loop counter */
 138:Source\SupportFunctions/arm_q7_to_q15.c ****     blkCnt--;
  60              		.loc 1 138 0
  61 002c 3B69     		ldr	r3, [r7, #16]
  62 002e 013B     		sub	r3, r3, #1
  63 0030 3B61     		str	r3, [r7, #16]
  64              	.L2:
 131:Source\SupportFunctions/arm_q7_to_q15.c ****   {
  65              		.loc 1 131 0
  66 0032 3B69     		ldr	r3, [r7, #16]
  67 0034 002B     		cmp	r3, #0
  68 0036 EED1     		bne	.L3
 139:Source\SupportFunctions/arm_q7_to_q15.c ****   }
 140:Source\SupportFunctions/arm_q7_to_q15.c **** 
 141:Source\SupportFunctions/arm_q7_to_q15.c **** }
  69              		.loc 1 141 0
  70 0038 BD46     		mov	sp, r7
  71 003a 06B0     		add	sp, sp, #24
  72              		@ sp needed
  73 003c 80BD     		pop	{r7, pc}
  74              		.cfi_endproc
  75              	.LFE82:
  76              		.size	arm_q7_to_q15, .-arm_q7_to_q15
  77 003e C046     		.text
  78              	.Letext0:
  79              		.file 2 "c:\\program files (x86)\\cypress\\psoc creator\\4.0\\psoc creator\\import\\gnu\\arm\\4.9.
  80              		.file 3 "c:\\program files (x86)\\cypress\\psoc creator\\4.0\\psoc creator\\import\\gnu\\arm\\4.9.
  81              		.file 4 ".\\Include/arm_math.h"