ARM GAS  C:\Users\fneves\AppData\Local\Temp\ccFjPd1E.s 			page 1


   1              		.cpu cortex-m0plus
   2              		.fpu softvfp
   3              		.eabi_attribute 20, 1
   4              		.eabi_attribute 21, 1
   5              		.eabi_attribute 23, 3
   6              		.eabi_attribute 24, 1
   7              		.eabi_attribute 25, 1
   8              		.eabi_attribute 26, 1
   9              		.eabi_attribute 30, 6
  10              		.eabi_attribute 34, 0
  11              		.eabi_attribute 18, 4
  12              		.code	16
  13              		.file	"arm_lms_norm_q31.c"
  14              		.text
  15              	.Ltext0:
  16              		.cfi_sections	.debug_frame
  17              		.global	__aeabi_lmul
  18              		.global	__clzsi2
  19              		.section	.text.arm_lms_norm_q31,"ax",%progbits
  20              		.align	2
  21              		.global	arm_lms_norm_q31
  22              		.code	16
  23              		.thumb_func
  24              		.type	arm_lms_norm_q31, %function
  25              	arm_lms_norm_q31:
  26              	.LFB82:
  27              		.file 1 "Source\\FilteringFunctions\\arm_lms_norm_q31.c"
   1:Source\FilteringFunctions/arm_lms_norm_q31.c **** /* ----------------------------------------------------------------------
   2:Source\FilteringFunctions/arm_lms_norm_q31.c ****  * Project:      CMSIS DSP Library
   3:Source\FilteringFunctions/arm_lms_norm_q31.c ****  * Title:        arm_lms_norm_q31.c
   4:Source\FilteringFunctions/arm_lms_norm_q31.c ****  * Description:  Processing function for the Q31 NLMS filter
   5:Source\FilteringFunctions/arm_lms_norm_q31.c ****  *
   6:Source\FilteringFunctions/arm_lms_norm_q31.c ****  * $Date:        27. January 2017
   7:Source\FilteringFunctions/arm_lms_norm_q31.c ****  * $Revision:    V.1.5.1
   8:Source\FilteringFunctions/arm_lms_norm_q31.c ****  *
   9:Source\FilteringFunctions/arm_lms_norm_q31.c ****  * Target Processor: Cortex-M cores
  10:Source\FilteringFunctions/arm_lms_norm_q31.c ****  * -------------------------------------------------------------------- */
  11:Source\FilteringFunctions/arm_lms_norm_q31.c **** /*
  12:Source\FilteringFunctions/arm_lms_norm_q31.c ****  * Copyright (C) 2010-2017 ARM Limited or its affiliates. All rights reserved.
  13:Source\FilteringFunctions/arm_lms_norm_q31.c ****  *
  14:Source\FilteringFunctions/arm_lms_norm_q31.c ****  * SPDX-License-Identifier: Apache-2.0
  15:Source\FilteringFunctions/arm_lms_norm_q31.c ****  *
  16:Source\FilteringFunctions/arm_lms_norm_q31.c ****  * Licensed under the Apache License, Version 2.0 (the License); you may
  17:Source\FilteringFunctions/arm_lms_norm_q31.c ****  * not use this file except in compliance with the License.
  18:Source\FilteringFunctions/arm_lms_norm_q31.c ****  * You may obtain a copy of the License at
  19:Source\FilteringFunctions/arm_lms_norm_q31.c ****  *
  20:Source\FilteringFunctions/arm_lms_norm_q31.c ****  * www.apache.org/licenses/LICENSE-2.0
  21:Source\FilteringFunctions/arm_lms_norm_q31.c ****  *
  22:Source\FilteringFunctions/arm_lms_norm_q31.c ****  * Unless required by applicable law or agreed to in writing, software
  23:Source\FilteringFunctions/arm_lms_norm_q31.c ****  * distributed under the License is distributed on an AS IS BASIS, WITHOUT
  24:Source\FilteringFunctions/arm_lms_norm_q31.c ****  * WARRANTIES OR CONDITIONS OF ANY KIND, either express or implied.
  25:Source\FilteringFunctions/arm_lms_norm_q31.c ****  * See the License for the specific language governing permissions and
  26:Source\FilteringFunctions/arm_lms_norm_q31.c ****  * limitations under the License.
  27:Source\FilteringFunctions/arm_lms_norm_q31.c ****  */
  28:Source\FilteringFunctions/arm_lms_norm_q31.c **** 
  29:Source\FilteringFunctions/arm_lms_norm_q31.c **** #include "arm_math.h"
  30:Source\FilteringFunctions/arm_lms_norm_q31.c **** 
ARM GAS  C:\Users\fneves\AppData\Local\Temp\ccFjPd1E.s 			page 2


  31:Source\FilteringFunctions/arm_lms_norm_q31.c **** /**
  32:Source\FilteringFunctions/arm_lms_norm_q31.c ****  * @ingroup groupFilters
  33:Source\FilteringFunctions/arm_lms_norm_q31.c ****  */
  34:Source\FilteringFunctions/arm_lms_norm_q31.c **** 
  35:Source\FilteringFunctions/arm_lms_norm_q31.c **** /**
  36:Source\FilteringFunctions/arm_lms_norm_q31.c ****  * @addtogroup LMS_NORM
  37:Source\FilteringFunctions/arm_lms_norm_q31.c ****  * @{
  38:Source\FilteringFunctions/arm_lms_norm_q31.c ****  */
  39:Source\FilteringFunctions/arm_lms_norm_q31.c **** 
  40:Source\FilteringFunctions/arm_lms_norm_q31.c **** /**
  41:Source\FilteringFunctions/arm_lms_norm_q31.c **** * @brief Processing function for Q31 normalized LMS filter.
  42:Source\FilteringFunctions/arm_lms_norm_q31.c **** * @param[in] *S points to an instance of the Q31 normalized LMS filter structure.
  43:Source\FilteringFunctions/arm_lms_norm_q31.c **** * @param[in] *pSrc points to the block of input data.
  44:Source\FilteringFunctions/arm_lms_norm_q31.c **** * @param[in] *pRef points to the block of reference data.
  45:Source\FilteringFunctions/arm_lms_norm_q31.c **** * @param[out] *pOut points to the block of output data.
  46:Source\FilteringFunctions/arm_lms_norm_q31.c **** * @param[out] *pErr points to the block of error data.
  47:Source\FilteringFunctions/arm_lms_norm_q31.c **** * @param[in] blockSize number of samples to process.
  48:Source\FilteringFunctions/arm_lms_norm_q31.c **** * @return none.
  49:Source\FilteringFunctions/arm_lms_norm_q31.c **** *
  50:Source\FilteringFunctions/arm_lms_norm_q31.c **** * <b>Scaling and Overflow Behavior:</b>
  51:Source\FilteringFunctions/arm_lms_norm_q31.c **** * \par
  52:Source\FilteringFunctions/arm_lms_norm_q31.c **** * The function is implemented using an internal 64-bit accumulator.
  53:Source\FilteringFunctions/arm_lms_norm_q31.c **** * The accumulator has a 2.62 format and maintains full precision of the intermediate
  54:Source\FilteringFunctions/arm_lms_norm_q31.c **** * multiplication results but provides only a single guard bit.
  55:Source\FilteringFunctions/arm_lms_norm_q31.c **** * Thus, if the accumulator result overflows it wraps around rather than clip.
  56:Source\FilteringFunctions/arm_lms_norm_q31.c **** * In order to avoid overflows completely the input signal must be scaled down by
  57:Source\FilteringFunctions/arm_lms_norm_q31.c **** * log2(numTaps) bits. The reference signal should not be scaled down.
  58:Source\FilteringFunctions/arm_lms_norm_q31.c **** * After all multiply-accumulates are performed, the 2.62 accumulator is shifted
  59:Source\FilteringFunctions/arm_lms_norm_q31.c **** * and saturated to 1.31 format to yield the final result.
  60:Source\FilteringFunctions/arm_lms_norm_q31.c **** * The output signal and error signal are in 1.31 format.
  61:Source\FilteringFunctions/arm_lms_norm_q31.c **** *
  62:Source\FilteringFunctions/arm_lms_norm_q31.c **** * \par
  63:Source\FilteringFunctions/arm_lms_norm_q31.c **** * 	In this filter, filter coefficients are updated for each sample and the
  64:Source\FilteringFunctions/arm_lms_norm_q31.c **** * updation of filter cofficients are saturted.
  65:Source\FilteringFunctions/arm_lms_norm_q31.c **** *
  66:Source\FilteringFunctions/arm_lms_norm_q31.c **** */
  67:Source\FilteringFunctions/arm_lms_norm_q31.c **** 
  68:Source\FilteringFunctions/arm_lms_norm_q31.c **** void arm_lms_norm_q31(
  69:Source\FilteringFunctions/arm_lms_norm_q31.c ****   arm_lms_norm_instance_q31 * S,
  70:Source\FilteringFunctions/arm_lms_norm_q31.c ****   q31_t * pSrc,
  71:Source\FilteringFunctions/arm_lms_norm_q31.c ****   q31_t * pRef,
  72:Source\FilteringFunctions/arm_lms_norm_q31.c ****   q31_t * pOut,
  73:Source\FilteringFunctions/arm_lms_norm_q31.c ****   q31_t * pErr,
  74:Source\FilteringFunctions/arm_lms_norm_q31.c ****   uint32_t blockSize)
  75:Source\FilteringFunctions/arm_lms_norm_q31.c **** {
  28              		.loc 1 75 0
  29              		.cfi_startproc
  30 0000 F0B5     		push	{r4, r5, r6, r7, lr}
  31              		.cfi_def_cfa_offset 20
  32              		.cfi_offset 4, -20
  33              		.cfi_offset 5, -16
  34              		.cfi_offset 6, -12
  35              		.cfi_offset 7, -8
  36              		.cfi_offset 14, -4
  37 0002 F1B0     		sub	sp, sp, #452
  38              		.cfi_def_cfa_offset 472
  39 0004 00AF     		add	r7, sp, #0
ARM GAS  C:\Users\fneves\AppData\Local\Temp\ccFjPd1E.s 			page 3


  40              		.cfi_def_cfa_register 7
  41 0006 8A24     		mov	r4, #138
  42 0008 6400     		lsl	r4, r4, #1
  43 000a 3C19     		add	r4, r7, r4
  44 000c 2060     		str	r0, [r4]
  45 000e 8820     		mov	r0, #136
  46 0010 4000     		lsl	r0, r0, #1
  47 0012 3818     		add	r0, r7, r0
  48 0014 0160     		str	r1, [r0]
  49 0016 8621     		mov	r1, #134
  50 0018 4900     		lsl	r1, r1, #1
  51 001a 7918     		add	r1, r7, r1
  52 001c 0A60     		str	r2, [r1]
  53 001e 8422     		mov	r2, #132
  54 0020 5200     		lsl	r2, r2, #1
  55 0022 BA18     		add	r2, r7, r2
  56 0024 1360     		str	r3, [r2]
  76:Source\FilteringFunctions/arm_lms_norm_q31.c ****   q31_t *pState = S->pState;                     /* State pointer */
  57              		.loc 1 76 0
  58 0026 8A23     		mov	r3, #138
  59 0028 5B00     		lsl	r3, r3, #1
  60 002a FB18     		add	r3, r7, r3
  61 002c 1B68     		ldr	r3, [r3]
  62 002e 5B68     		ldr	r3, [r3, #4]
  63 0030 B422     		mov	r2, #180
  64 0032 8421     		mov	r1, #132
  65 0034 4900     		lsl	r1, r1, #1
  66 0036 8C46     		mov	ip, r1
  67 0038 BC44     		add	ip, ip, r7
  68 003a 6244     		add	r2, r2, ip
  69 003c 1360     		str	r3, [r2]
  77:Source\FilteringFunctions/arm_lms_norm_q31.c ****   q31_t *pCoeffs = S->pCoeffs;                   /* Coefficient pointer */
  70              		.loc 1 77 0
  71 003e 8A23     		mov	r3, #138
  72 0040 5B00     		lsl	r3, r3, #1
  73 0042 FB18     		add	r3, r7, r3
  74 0044 1B68     		ldr	r3, [r3]
  75 0046 9B68     		ldr	r3, [r3, #8]
  76 0048 8822     		mov	r2, #136
  77 004a 8421     		mov	r1, #132
  78 004c 4900     		lsl	r1, r1, #1
  79 004e 8C46     		mov	ip, r1
  80 0050 BC44     		add	ip, ip, r7
  81 0052 6244     		add	r2, r2, ip
  82 0054 1360     		str	r3, [r2]
  78:Source\FilteringFunctions/arm_lms_norm_q31.c ****   q31_t *pStateCurnt;                            /* Points to the current sample of the state */
  79:Source\FilteringFunctions/arm_lms_norm_q31.c ****   q31_t *px, *pb;                                /* Temporary pointers for state and coefficient bu
  80:Source\FilteringFunctions/arm_lms_norm_q31.c ****   q31_t mu = S->mu;                              /* Adaptive factor */
  83              		.loc 1 80 0
  84 0056 8A23     		mov	r3, #138
  85 0058 5B00     		lsl	r3, r3, #1
  86 005a FB18     		add	r3, r7, r3
  87 005c 1B68     		ldr	r3, [r3]
  88 005e DB68     		ldr	r3, [r3, #12]
  89 0060 8422     		mov	r2, #132
  90 0062 8421     		mov	r1, #132
  91 0064 4900     		lsl	r1, r1, #1
ARM GAS  C:\Users\fneves\AppData\Local\Temp\ccFjPd1E.s 			page 4


  92 0066 8C46     		mov	ip, r1
  93 0068 BC44     		add	ip, ip, r7
  94 006a 6244     		add	r2, r2, ip
  95 006c 1360     		str	r3, [r2]
  81:Source\FilteringFunctions/arm_lms_norm_q31.c ****   uint32_t numTaps = S->numTaps;                 /* Number of filter coefficients in the filter */
  96              		.loc 1 81 0
  97 006e 8A23     		mov	r3, #138
  98 0070 5B00     		lsl	r3, r3, #1
  99 0072 FB18     		add	r3, r7, r3
 100 0074 1B68     		ldr	r3, [r3]
 101 0076 1B88     		ldrh	r3, [r3]
 102 0078 8022     		mov	r2, #128
 103 007a 8421     		mov	r1, #132
 104 007c 4900     		lsl	r1, r1, #1
 105 007e 8C46     		mov	ip, r1
 106 0080 BC44     		add	ip, ip, r7
 107 0082 6244     		add	r2, r2, ip
 108 0084 1360     		str	r3, [r2]
  82:Source\FilteringFunctions/arm_lms_norm_q31.c ****   uint32_t tapCnt, blkCnt;                       /* Loop counters */
  83:Source\FilteringFunctions/arm_lms_norm_q31.c ****   q63_t energy;                                  /* Energy of the input */
  84:Source\FilteringFunctions/arm_lms_norm_q31.c ****   q63_t acc;                                     /* Accumulator */
  85:Source\FilteringFunctions/arm_lms_norm_q31.c ****   q31_t e = 0, d = 0;                            /* error, reference data sample */
 109              		.loc 1 85 0
 110 0086 0023     		mov	r3, #0
 111 0088 C222     		mov	r2, #194
 112 008a 5200     		lsl	r2, r2, #1
 113 008c BA18     		add	r2, r7, r2
 114 008e 1360     		str	r3, [r2]
 115 0090 0023     		mov	r3, #0
 116 0092 C022     		mov	r2, #192
 117 0094 5200     		lsl	r2, r2, #1
 118 0096 BA18     		add	r2, r7, r2
 119 0098 1360     		str	r3, [r2]
  86:Source\FilteringFunctions/arm_lms_norm_q31.c ****   q31_t w = 0, in;                               /* weight factor and state */
 120              		.loc 1 86 0
 121 009a 0023     		mov	r3, #0
 122 009c BE22     		mov	r2, #190
 123 009e 5200     		lsl	r2, r2, #1
 124 00a0 BA18     		add	r2, r7, r2
 125 00a2 1360     		str	r3, [r2]
  87:Source\FilteringFunctions/arm_lms_norm_q31.c ****   q31_t x0;                                      /* temporary variable to hold input sample */
  88:Source\FilteringFunctions/arm_lms_norm_q31.c **** //  uint32_t shift = 32u - ((uint32_t) S->postShift + 1u);        /* Shift to be applied to the out
  89:Source\FilteringFunctions/arm_lms_norm_q31.c ****   q31_t errorXmu, oneByEnergy;                   /* Temporary variables to store error and mu produ
  90:Source\FilteringFunctions/arm_lms_norm_q31.c ****   q31_t postShift;                               /* Post shift to be applied to weight after recipr
  91:Source\FilteringFunctions/arm_lms_norm_q31.c ****   q31_t coef;                                    /* Temporary variable for coef */
  92:Source\FilteringFunctions/arm_lms_norm_q31.c ****   q31_t acc_l, acc_h;                            /*  temporary input */
  93:Source\FilteringFunctions/arm_lms_norm_q31.c ****   uint32_t uShift = ((uint32_t) S->postShift + 1u);
 126              		.loc 1 93 0
 127 00a4 8A23     		mov	r3, #138
 128 00a6 5B00     		lsl	r3, r3, #1
 129 00a8 FB18     		add	r3, r7, r3
 130 00aa 1B68     		ldr	r3, [r3]
 131 00ac 1B7C     		ldrb	r3, [r3, #16]
 132 00ae 0133     		add	r3, r3, #1
 133 00b0 BC22     		mov	r2, #188
 134 00b2 5200     		lsl	r2, r2, #1
 135 00b4 BA18     		add	r2, r7, r2
ARM GAS  C:\Users\fneves\AppData\Local\Temp\ccFjPd1E.s 			page 5


 136 00b6 1360     		str	r3, [r2]
  94:Source\FilteringFunctions/arm_lms_norm_q31.c ****   uint32_t lShift = 32u - uShift;                /*  Shift to be applied to the output */
 137              		.loc 1 94 0
 138 00b8 BC23     		mov	r3, #188
 139 00ba 5B00     		lsl	r3, r3, #1
 140 00bc FB18     		add	r3, r7, r3
 141 00be 1A68     		ldr	r2, [r3]
 142 00c0 2023     		mov	r3, #32
 143 00c2 9B1A     		sub	r3, r3, r2
 144 00c4 BA22     		mov	r2, #186
 145 00c6 5200     		lsl	r2, r2, #1
 146 00c8 BA18     		add	r2, r7, r2
 147 00ca 1360     		str	r3, [r2]
  95:Source\FilteringFunctions/arm_lms_norm_q31.c **** 
  96:Source\FilteringFunctions/arm_lms_norm_q31.c ****   energy = S->energy;
 148              		.loc 1 96 0
 149 00cc 8A23     		mov	r3, #138
 150 00ce 5B00     		lsl	r3, r3, #1
 151 00d0 FB18     		add	r3, r7, r3
 152 00d2 1B68     		ldr	r3, [r3]
 153 00d4 9B69     		ldr	r3, [r3, #24]
 154 00d6 9822     		mov	r2, #152
 155 00d8 8421     		mov	r1, #132
 156 00da 4900     		lsl	r1, r1, #1
 157 00dc 8C46     		mov	ip, r1
 158 00de BC44     		add	ip, ip, r7
 159 00e0 6244     		add	r2, r2, ip
 160 00e2 1360     		str	r3, [r2]
 161 00e4 DB17     		asr	r3, r3, #31
 162 00e6 9C22     		mov	r2, #156
 163 00e8 8421     		mov	r1, #132
 164 00ea 4900     		lsl	r1, r1, #1
 165 00ec 8C46     		mov	ip, r1
 166 00ee BC44     		add	ip, ip, r7
 167 00f0 6244     		add	r2, r2, ip
 168 00f2 1360     		str	r3, [r2]
  97:Source\FilteringFunctions/arm_lms_norm_q31.c ****   x0 = S->x0;
 169              		.loc 1 97 0
 170 00f4 8A23     		mov	r3, #138
 171 00f6 5B00     		lsl	r3, r3, #1
 172 00f8 FB18     		add	r3, r7, r3
 173 00fa 1B68     		ldr	r3, [r3]
 174 00fc DB69     		ldr	r3, [r3, #28]
 175 00fe 8C22     		mov	r2, #140
 176 0100 8421     		mov	r1, #132
 177 0102 4900     		lsl	r1, r1, #1
 178 0104 8C46     		mov	ip, r1
 179 0106 BC44     		add	ip, ip, r7
 180 0108 6244     		add	r2, r2, ip
 181 010a 1360     		str	r3, [r2]
  98:Source\FilteringFunctions/arm_lms_norm_q31.c **** 
  99:Source\FilteringFunctions/arm_lms_norm_q31.c ****   /* S->pState points to buffer which contains previous frame (numTaps - 1) samples */
 100:Source\FilteringFunctions/arm_lms_norm_q31.c ****   /* pStateCurnt points to the location where the new input data should be written */
 101:Source\FilteringFunctions/arm_lms_norm_q31.c ****   pStateCurnt = &(S->pState[(numTaps - 1u)]);
 182              		.loc 1 101 0
 183 010c 8A23     		mov	r3, #138
 184 010e 5B00     		lsl	r3, r3, #1
ARM GAS  C:\Users\fneves\AppData\Local\Temp\ccFjPd1E.s 			page 6


 185 0110 FB18     		add	r3, r7, r3
 186 0112 1B68     		ldr	r3, [r3]
 187 0114 5A68     		ldr	r2, [r3, #4]
 188 0116 8023     		mov	r3, #128
 189 0118 8421     		mov	r1, #132
 190 011a 4900     		lsl	r1, r1, #1
 191 011c 8C46     		mov	ip, r1
 192 011e BC44     		add	ip, ip, r7
 193 0120 6344     		add	r3, r3, ip
 194 0122 1B68     		ldr	r3, [r3]
 195 0124 9149     		ldr	r1, .L28
 196 0126 8C46     		mov	ip, r1
 197 0128 6344     		add	r3, r3, ip
 198 012a 9B00     		lsl	r3, r3, #2
 199 012c D318     		add	r3, r2, r3
 200 012e B022     		mov	r2, #176
 201 0130 8421     		mov	r1, #132
 202 0132 4900     		lsl	r1, r1, #1
 203 0134 8C46     		mov	ip, r1
 204 0136 BC44     		add	ip, ip, r7
 205 0138 6244     		add	r2, r2, ip
 206 013a 1360     		str	r3, [r2]
 102:Source\FilteringFunctions/arm_lms_norm_q31.c **** 
 103:Source\FilteringFunctions/arm_lms_norm_q31.c ****   /* Loop over blockSize number of values */
 104:Source\FilteringFunctions/arm_lms_norm_q31.c ****   blkCnt = blockSize;
 207              		.loc 1 104 0
 208 013c D423     		mov	r3, #212
 209 013e 8422     		mov	r2, #132
 210 0140 5200     		lsl	r2, r2, #1
 211 0142 9446     		mov	ip, r2
 212 0144 BC44     		add	ip, ip, r7
 213 0146 6344     		add	r3, r3, ip
 214 0148 1B68     		ldr	r3, [r3]
 215 014a A022     		mov	r2, #160
 216 014c 8421     		mov	r1, #132
 217 014e 4900     		lsl	r1, r1, #1
 218 0150 8C46     		mov	ip, r1
 219 0152 BC44     		add	ip, ip, r7
 220 0154 6244     		add	r2, r2, ip
 221 0156 1360     		str	r3, [r2]
 105:Source\FilteringFunctions/arm_lms_norm_q31.c **** 
 106:Source\FilteringFunctions/arm_lms_norm_q31.c **** 
 107:Source\FilteringFunctions/arm_lms_norm_q31.c **** #if defined (ARM_MATH_DSP)
 108:Source\FilteringFunctions/arm_lms_norm_q31.c **** 
 109:Source\FilteringFunctions/arm_lms_norm_q31.c ****   /* Run the below code for Cortex-M4 and Cortex-M3 */
 110:Source\FilteringFunctions/arm_lms_norm_q31.c **** 
 111:Source\FilteringFunctions/arm_lms_norm_q31.c ****   while (blkCnt > 0u)
 112:Source\FilteringFunctions/arm_lms_norm_q31.c ****   {
 113:Source\FilteringFunctions/arm_lms_norm_q31.c **** 
 114:Source\FilteringFunctions/arm_lms_norm_q31.c ****     /* Copy the new input sample into the state buffer */
 115:Source\FilteringFunctions/arm_lms_norm_q31.c ****     *pStateCurnt++ = *pSrc;
 116:Source\FilteringFunctions/arm_lms_norm_q31.c **** 
 117:Source\FilteringFunctions/arm_lms_norm_q31.c ****     /* Initialize pState pointer */
 118:Source\FilteringFunctions/arm_lms_norm_q31.c ****     px = pState;
 119:Source\FilteringFunctions/arm_lms_norm_q31.c **** 
 120:Source\FilteringFunctions/arm_lms_norm_q31.c ****     /* Initialize coeff pointer */
 121:Source\FilteringFunctions/arm_lms_norm_q31.c ****     pb = (pCoeffs);
ARM GAS  C:\Users\fneves\AppData\Local\Temp\ccFjPd1E.s 			page 7


 122:Source\FilteringFunctions/arm_lms_norm_q31.c **** 
 123:Source\FilteringFunctions/arm_lms_norm_q31.c ****     /* Read the sample from input buffer */
 124:Source\FilteringFunctions/arm_lms_norm_q31.c ****     in = *pSrc++;
 125:Source\FilteringFunctions/arm_lms_norm_q31.c **** 
 126:Source\FilteringFunctions/arm_lms_norm_q31.c ****     /* Update the energy calculation */
 127:Source\FilteringFunctions/arm_lms_norm_q31.c ****     energy = (q31_t) ((((q63_t) energy << 32) -
 128:Source\FilteringFunctions/arm_lms_norm_q31.c ****                        (((q63_t) x0 * x0) << 1)) >> 32);
 129:Source\FilteringFunctions/arm_lms_norm_q31.c ****     energy = (q31_t) (((((q63_t) in * in) << 1) + (energy << 32)) >> 32);
 130:Source\FilteringFunctions/arm_lms_norm_q31.c **** 
 131:Source\FilteringFunctions/arm_lms_norm_q31.c ****     /* Set the accumulator to zero */
 132:Source\FilteringFunctions/arm_lms_norm_q31.c ****     acc = 0;
 133:Source\FilteringFunctions/arm_lms_norm_q31.c **** 
 134:Source\FilteringFunctions/arm_lms_norm_q31.c ****     /* Loop unrolling.  Process 4 taps at a time. */
 135:Source\FilteringFunctions/arm_lms_norm_q31.c ****     tapCnt = numTaps >> 2;
 136:Source\FilteringFunctions/arm_lms_norm_q31.c **** 
 137:Source\FilteringFunctions/arm_lms_norm_q31.c ****     while (tapCnt > 0u)
 138:Source\FilteringFunctions/arm_lms_norm_q31.c ****     {
 139:Source\FilteringFunctions/arm_lms_norm_q31.c ****       /* Perform the multiply-accumulate */
 140:Source\FilteringFunctions/arm_lms_norm_q31.c ****       acc += ((q63_t) (*px++)) * (*pb++);
 141:Source\FilteringFunctions/arm_lms_norm_q31.c ****       acc += ((q63_t) (*px++)) * (*pb++);
 142:Source\FilteringFunctions/arm_lms_norm_q31.c ****       acc += ((q63_t) (*px++)) * (*pb++);
 143:Source\FilteringFunctions/arm_lms_norm_q31.c ****       acc += ((q63_t) (*px++)) * (*pb++);
 144:Source\FilteringFunctions/arm_lms_norm_q31.c **** 
 145:Source\FilteringFunctions/arm_lms_norm_q31.c ****       /* Decrement the loop counter */
 146:Source\FilteringFunctions/arm_lms_norm_q31.c ****       tapCnt--;
 147:Source\FilteringFunctions/arm_lms_norm_q31.c ****     }
 148:Source\FilteringFunctions/arm_lms_norm_q31.c **** 
 149:Source\FilteringFunctions/arm_lms_norm_q31.c ****     /* If the filter length is not a multiple of 4, compute the remaining filter taps */
 150:Source\FilteringFunctions/arm_lms_norm_q31.c ****     tapCnt = numTaps % 0x4u;
 151:Source\FilteringFunctions/arm_lms_norm_q31.c **** 
 152:Source\FilteringFunctions/arm_lms_norm_q31.c ****     while (tapCnt > 0u)
 153:Source\FilteringFunctions/arm_lms_norm_q31.c ****     {
 154:Source\FilteringFunctions/arm_lms_norm_q31.c ****       /* Perform the multiply-accumulate */
 155:Source\FilteringFunctions/arm_lms_norm_q31.c ****       acc += ((q63_t) (*px++)) * (*pb++);
 156:Source\FilteringFunctions/arm_lms_norm_q31.c **** 
 157:Source\FilteringFunctions/arm_lms_norm_q31.c ****       /* Decrement the loop counter */
 158:Source\FilteringFunctions/arm_lms_norm_q31.c ****       tapCnt--;
 159:Source\FilteringFunctions/arm_lms_norm_q31.c ****     }
 160:Source\FilteringFunctions/arm_lms_norm_q31.c **** 
 161:Source\FilteringFunctions/arm_lms_norm_q31.c ****     /* Converting the result to 1.31 format */
 162:Source\FilteringFunctions/arm_lms_norm_q31.c ****     /* Calc lower part of acc */
 163:Source\FilteringFunctions/arm_lms_norm_q31.c ****     acc_l = acc & 0xffffffff;
 164:Source\FilteringFunctions/arm_lms_norm_q31.c **** 
 165:Source\FilteringFunctions/arm_lms_norm_q31.c ****     /* Calc upper part of acc */
 166:Source\FilteringFunctions/arm_lms_norm_q31.c ****     acc_h = (acc >> 32) & 0xffffffff;
 167:Source\FilteringFunctions/arm_lms_norm_q31.c **** 
 168:Source\FilteringFunctions/arm_lms_norm_q31.c ****     acc = (uint32_t) acc_l >> lShift | acc_h << uShift;
 169:Source\FilteringFunctions/arm_lms_norm_q31.c **** 
 170:Source\FilteringFunctions/arm_lms_norm_q31.c ****     /* Store the result from accumulator into the destination buffer. */
 171:Source\FilteringFunctions/arm_lms_norm_q31.c ****     *pOut++ = (q31_t) acc;
 172:Source\FilteringFunctions/arm_lms_norm_q31.c **** 
 173:Source\FilteringFunctions/arm_lms_norm_q31.c ****     /* Compute and store error */
 174:Source\FilteringFunctions/arm_lms_norm_q31.c ****     d = *pRef++;
 175:Source\FilteringFunctions/arm_lms_norm_q31.c ****     e = d - (q31_t) acc;
 176:Source\FilteringFunctions/arm_lms_norm_q31.c ****     *pErr++ = e;
 177:Source\FilteringFunctions/arm_lms_norm_q31.c **** 
 178:Source\FilteringFunctions/arm_lms_norm_q31.c ****     /* Calculates the reciprocal of energy */
ARM GAS  C:\Users\fneves\AppData\Local\Temp\ccFjPd1E.s 			page 8


 179:Source\FilteringFunctions/arm_lms_norm_q31.c ****     postShift = arm_recip_q31(energy + DELTA_Q31,
 180:Source\FilteringFunctions/arm_lms_norm_q31.c ****                               &oneByEnergy, &S->recipTable[0]);
 181:Source\FilteringFunctions/arm_lms_norm_q31.c **** 
 182:Source\FilteringFunctions/arm_lms_norm_q31.c ****     /* Calculation of product of (e * mu) */
 183:Source\FilteringFunctions/arm_lms_norm_q31.c ****     errorXmu = (q31_t) (((q63_t) e * mu) >> 31);
 184:Source\FilteringFunctions/arm_lms_norm_q31.c **** 
 185:Source\FilteringFunctions/arm_lms_norm_q31.c ****     /* Weighting factor for the normalized version */
 186:Source\FilteringFunctions/arm_lms_norm_q31.c ****     w = clip_q63_to_q31(((q63_t) errorXmu * oneByEnergy) >> (31 - postShift));
 187:Source\FilteringFunctions/arm_lms_norm_q31.c **** 
 188:Source\FilteringFunctions/arm_lms_norm_q31.c ****     /* Initialize pState pointer */
 189:Source\FilteringFunctions/arm_lms_norm_q31.c ****     px = pState;
 190:Source\FilteringFunctions/arm_lms_norm_q31.c **** 
 191:Source\FilteringFunctions/arm_lms_norm_q31.c ****     /* Initialize coeff pointer */
 192:Source\FilteringFunctions/arm_lms_norm_q31.c ****     pb = (pCoeffs);
 193:Source\FilteringFunctions/arm_lms_norm_q31.c **** 
 194:Source\FilteringFunctions/arm_lms_norm_q31.c ****     /* Loop unrolling.  Process 4 taps at a time. */
 195:Source\FilteringFunctions/arm_lms_norm_q31.c ****     tapCnt = numTaps >> 2;
 196:Source\FilteringFunctions/arm_lms_norm_q31.c **** 
 197:Source\FilteringFunctions/arm_lms_norm_q31.c ****     /* Update filter coefficients */
 198:Source\FilteringFunctions/arm_lms_norm_q31.c ****     while (tapCnt > 0u)
 199:Source\FilteringFunctions/arm_lms_norm_q31.c ****     {
 200:Source\FilteringFunctions/arm_lms_norm_q31.c ****       /* Perform the multiply-accumulate */
 201:Source\FilteringFunctions/arm_lms_norm_q31.c **** 
 202:Source\FilteringFunctions/arm_lms_norm_q31.c ****       /* coef is in 2.30 format */
 203:Source\FilteringFunctions/arm_lms_norm_q31.c ****       coef = (q31_t) (((q63_t) w * (*px++)) >> (32));
 204:Source\FilteringFunctions/arm_lms_norm_q31.c ****       /* get coef in 1.31 format by left shifting */
 205:Source\FilteringFunctions/arm_lms_norm_q31.c ****       *pb = clip_q63_to_q31((q63_t) * pb + (coef << 1u));
 206:Source\FilteringFunctions/arm_lms_norm_q31.c ****       /* update coefficient buffer to next coefficient */
 207:Source\FilteringFunctions/arm_lms_norm_q31.c ****       pb++;
 208:Source\FilteringFunctions/arm_lms_norm_q31.c **** 
 209:Source\FilteringFunctions/arm_lms_norm_q31.c ****       coef = (q31_t) (((q63_t) w * (*px++)) >> (32));
 210:Source\FilteringFunctions/arm_lms_norm_q31.c ****       *pb = clip_q63_to_q31((q63_t) * pb + (coef << 1u));
 211:Source\FilteringFunctions/arm_lms_norm_q31.c ****       pb++;
 212:Source\FilteringFunctions/arm_lms_norm_q31.c **** 
 213:Source\FilteringFunctions/arm_lms_norm_q31.c ****       coef = (q31_t) (((q63_t) w * (*px++)) >> (32));
 214:Source\FilteringFunctions/arm_lms_norm_q31.c ****       *pb = clip_q63_to_q31((q63_t) * pb + (coef << 1u));
 215:Source\FilteringFunctions/arm_lms_norm_q31.c ****       pb++;
 216:Source\FilteringFunctions/arm_lms_norm_q31.c **** 
 217:Source\FilteringFunctions/arm_lms_norm_q31.c ****       coef = (q31_t) (((q63_t) w * (*px++)) >> (32));
 218:Source\FilteringFunctions/arm_lms_norm_q31.c ****       *pb = clip_q63_to_q31((q63_t) * pb + (coef << 1u));
 219:Source\FilteringFunctions/arm_lms_norm_q31.c ****       pb++;
 220:Source\FilteringFunctions/arm_lms_norm_q31.c **** 
 221:Source\FilteringFunctions/arm_lms_norm_q31.c ****       /* Decrement the loop counter */
 222:Source\FilteringFunctions/arm_lms_norm_q31.c ****       tapCnt--;
 223:Source\FilteringFunctions/arm_lms_norm_q31.c ****     }
 224:Source\FilteringFunctions/arm_lms_norm_q31.c **** 
 225:Source\FilteringFunctions/arm_lms_norm_q31.c ****     /* If the filter length is not a multiple of 4, compute the remaining filter taps */
 226:Source\FilteringFunctions/arm_lms_norm_q31.c ****     tapCnt = numTaps % 0x4u;
 227:Source\FilteringFunctions/arm_lms_norm_q31.c **** 
 228:Source\FilteringFunctions/arm_lms_norm_q31.c ****     while (tapCnt > 0u)
 229:Source\FilteringFunctions/arm_lms_norm_q31.c ****     {
 230:Source\FilteringFunctions/arm_lms_norm_q31.c ****       /* Perform the multiply-accumulate */
 231:Source\FilteringFunctions/arm_lms_norm_q31.c ****       coef = (q31_t) (((q63_t) w * (*px++)) >> (32));
 232:Source\FilteringFunctions/arm_lms_norm_q31.c ****       *pb = clip_q63_to_q31((q63_t) * pb + (coef << 1u));
 233:Source\FilteringFunctions/arm_lms_norm_q31.c ****       pb++;
 234:Source\FilteringFunctions/arm_lms_norm_q31.c **** 
 235:Source\FilteringFunctions/arm_lms_norm_q31.c ****       /* Decrement the loop counter */
ARM GAS  C:\Users\fneves\AppData\Local\Temp\ccFjPd1E.s 			page 9


 236:Source\FilteringFunctions/arm_lms_norm_q31.c ****       tapCnt--;
 237:Source\FilteringFunctions/arm_lms_norm_q31.c ****     }
 238:Source\FilteringFunctions/arm_lms_norm_q31.c **** 
 239:Source\FilteringFunctions/arm_lms_norm_q31.c ****     /* Read the sample from state buffer */
 240:Source\FilteringFunctions/arm_lms_norm_q31.c ****     x0 = *pState;
 241:Source\FilteringFunctions/arm_lms_norm_q31.c **** 
 242:Source\FilteringFunctions/arm_lms_norm_q31.c ****     /* Advance state pointer by 1 for the next sample */
 243:Source\FilteringFunctions/arm_lms_norm_q31.c ****     pState = pState + 1;
 244:Source\FilteringFunctions/arm_lms_norm_q31.c **** 
 245:Source\FilteringFunctions/arm_lms_norm_q31.c ****     /* Decrement the loop counter */
 246:Source\FilteringFunctions/arm_lms_norm_q31.c ****     blkCnt--;
 247:Source\FilteringFunctions/arm_lms_norm_q31.c ****   }
 248:Source\FilteringFunctions/arm_lms_norm_q31.c **** 
 249:Source\FilteringFunctions/arm_lms_norm_q31.c ****   /* Save energy and x0 values for the next frame */
 250:Source\FilteringFunctions/arm_lms_norm_q31.c ****   S->energy = (q31_t) energy;
 251:Source\FilteringFunctions/arm_lms_norm_q31.c ****   S->x0 = x0;
 252:Source\FilteringFunctions/arm_lms_norm_q31.c **** 
 253:Source\FilteringFunctions/arm_lms_norm_q31.c ****   /* Processing is complete. Now copy the last numTaps - 1 samples to the
 254:Source\FilteringFunctions/arm_lms_norm_q31.c ****      satrt of the state buffer. This prepares the state buffer for the
 255:Source\FilteringFunctions/arm_lms_norm_q31.c ****      next function call. */
 256:Source\FilteringFunctions/arm_lms_norm_q31.c **** 
 257:Source\FilteringFunctions/arm_lms_norm_q31.c ****   /* Points to the start of the pState buffer */
 258:Source\FilteringFunctions/arm_lms_norm_q31.c ****   pStateCurnt = S->pState;
 259:Source\FilteringFunctions/arm_lms_norm_q31.c **** 
 260:Source\FilteringFunctions/arm_lms_norm_q31.c ****   /* Loop unrolling for (numTaps - 1u) samples copy */
 261:Source\FilteringFunctions/arm_lms_norm_q31.c ****   tapCnt = (numTaps - 1u) >> 2u;
 262:Source\FilteringFunctions/arm_lms_norm_q31.c **** 
 263:Source\FilteringFunctions/arm_lms_norm_q31.c ****   /* copy data */
 264:Source\FilteringFunctions/arm_lms_norm_q31.c ****   while (tapCnt > 0u)
 265:Source\FilteringFunctions/arm_lms_norm_q31.c ****   {
 266:Source\FilteringFunctions/arm_lms_norm_q31.c ****     *pStateCurnt++ = *pState++;
 267:Source\FilteringFunctions/arm_lms_norm_q31.c ****     *pStateCurnt++ = *pState++;
 268:Source\FilteringFunctions/arm_lms_norm_q31.c ****     *pStateCurnt++ = *pState++;
 269:Source\FilteringFunctions/arm_lms_norm_q31.c ****     *pStateCurnt++ = *pState++;
 270:Source\FilteringFunctions/arm_lms_norm_q31.c **** 
 271:Source\FilteringFunctions/arm_lms_norm_q31.c ****     /* Decrement the loop counter */
 272:Source\FilteringFunctions/arm_lms_norm_q31.c ****     tapCnt--;
 273:Source\FilteringFunctions/arm_lms_norm_q31.c ****   }
 274:Source\FilteringFunctions/arm_lms_norm_q31.c **** 
 275:Source\FilteringFunctions/arm_lms_norm_q31.c ****   /* Calculate remaining number of copies */
 276:Source\FilteringFunctions/arm_lms_norm_q31.c ****   tapCnt = (numTaps - 1u) % 0x4u;
 277:Source\FilteringFunctions/arm_lms_norm_q31.c **** 
 278:Source\FilteringFunctions/arm_lms_norm_q31.c ****   /* Copy the remaining q31_t data */
 279:Source\FilteringFunctions/arm_lms_norm_q31.c ****   while (tapCnt > 0u)
 280:Source\FilteringFunctions/arm_lms_norm_q31.c ****   {
 281:Source\FilteringFunctions/arm_lms_norm_q31.c ****     *pStateCurnt++ = *pState++;
 282:Source\FilteringFunctions/arm_lms_norm_q31.c **** 
 283:Source\FilteringFunctions/arm_lms_norm_q31.c ****     /* Decrement the loop counter */
 284:Source\FilteringFunctions/arm_lms_norm_q31.c ****     tapCnt--;
 285:Source\FilteringFunctions/arm_lms_norm_q31.c ****   }
 286:Source\FilteringFunctions/arm_lms_norm_q31.c **** 
 287:Source\FilteringFunctions/arm_lms_norm_q31.c **** #else
 288:Source\FilteringFunctions/arm_lms_norm_q31.c **** 
 289:Source\FilteringFunctions/arm_lms_norm_q31.c ****   /* Run the below code for Cortex-M0 */
 290:Source\FilteringFunctions/arm_lms_norm_q31.c **** 
 291:Source\FilteringFunctions/arm_lms_norm_q31.c ****   while (blkCnt > 0u)
 222              		.loc 1 291 0
ARM GAS  C:\Users\fneves\AppData\Local\Temp\ccFjPd1E.s 			page 10


 223 0158 00F0C5FC 		bl	.L2	@ far jump
 224              	.L23:
 292:Source\FilteringFunctions/arm_lms_norm_q31.c ****   {
 293:Source\FilteringFunctions/arm_lms_norm_q31.c **** 
 294:Source\FilteringFunctions/arm_lms_norm_q31.c ****     /* Copy the new input sample into the state buffer */
 295:Source\FilteringFunctions/arm_lms_norm_q31.c ****     *pStateCurnt++ = *pSrc;
 225              		.loc 1 295 0
 226 015c B023     		mov	r3, #176
 227 015e 8422     		mov	r2, #132
 228 0160 5200     		lsl	r2, r2, #1
 229 0162 9446     		mov	ip, r2
 230 0164 BC44     		add	ip, ip, r7
 231 0166 6344     		add	r3, r3, ip
 232 0168 1A68     		ldr	r2, [r3]
 233 016a 131D     		add	r3, r2, #4
 234 016c B021     		mov	r1, #176
 235 016e 8420     		mov	r0, #132
 236 0170 4000     		lsl	r0, r0, #1
 237 0172 8446     		mov	ip, r0
 238 0174 BC44     		add	ip, ip, r7
 239 0176 6144     		add	r1, r1, ip
 240 0178 0B60     		str	r3, [r1]
 241 017a 8823     		mov	r3, #136
 242 017c 5B00     		lsl	r3, r3, #1
 243 017e FB18     		add	r3, r7, r3
 244 0180 1B68     		ldr	r3, [r3]
 245 0182 1B68     		ldr	r3, [r3]
 246 0184 1360     		str	r3, [r2]
 296:Source\FilteringFunctions/arm_lms_norm_q31.c **** 
 297:Source\FilteringFunctions/arm_lms_norm_q31.c ****     /* Initialize pState pointer */
 298:Source\FilteringFunctions/arm_lms_norm_q31.c ****     px = pState;
 247              		.loc 1 298 0
 248 0186 B423     		mov	r3, #180
 249 0188 8422     		mov	r2, #132
 250 018a 5200     		lsl	r2, r2, #1
 251 018c 9446     		mov	ip, r2
 252 018e BC44     		add	ip, ip, r7
 253 0190 6344     		add	r3, r3, ip
 254 0192 1B68     		ldr	r3, [r3]
 255 0194 AC22     		mov	r2, #172
 256 0196 8421     		mov	r1, #132
 257 0198 4900     		lsl	r1, r1, #1
 258 019a 8C46     		mov	ip, r1
 259 019c BC44     		add	ip, ip, r7
 260 019e 6244     		add	r2, r2, ip
 261 01a0 1360     		str	r3, [r2]
 299:Source\FilteringFunctions/arm_lms_norm_q31.c **** 
 300:Source\FilteringFunctions/arm_lms_norm_q31.c ****     /* Initialize pCoeffs pointer */
 301:Source\FilteringFunctions/arm_lms_norm_q31.c ****     pb = pCoeffs;
 262              		.loc 1 301 0
 263 01a2 8823     		mov	r3, #136
 264 01a4 8422     		mov	r2, #132
 265 01a6 5200     		lsl	r2, r2, #1
 266 01a8 9446     		mov	ip, r2
 267 01aa BC44     		add	ip, ip, r7
 268 01ac 6344     		add	r3, r3, ip
 269 01ae 1B68     		ldr	r3, [r3]
ARM GAS  C:\Users\fneves\AppData\Local\Temp\ccFjPd1E.s 			page 11


 270 01b0 A822     		mov	r2, #168
 271 01b2 8421     		mov	r1, #132
 272 01b4 4900     		lsl	r1, r1, #1
 273 01b6 8C46     		mov	ip, r1
 274 01b8 BC44     		add	ip, ip, r7
 275 01ba 6244     		add	r2, r2, ip
 276 01bc 1360     		str	r3, [r2]
 302:Source\FilteringFunctions/arm_lms_norm_q31.c **** 
 303:Source\FilteringFunctions/arm_lms_norm_q31.c ****     /* Read the sample from input buffer */
 304:Source\FilteringFunctions/arm_lms_norm_q31.c ****     in = *pSrc++;
 277              		.loc 1 304 0
 278 01be 8823     		mov	r3, #136
 279 01c0 5B00     		lsl	r3, r3, #1
 280 01c2 FB18     		add	r3, r7, r3
 281 01c4 1A68     		ldr	r2, [r3]
 282 01c6 131D     		add	r3, r2, #4
 283 01c8 8821     		mov	r1, #136
 284 01ca 4900     		lsl	r1, r1, #1
 285 01cc 7918     		add	r1, r7, r1
 286 01ce 0B60     		str	r3, [r1]
 287 01d0 1368     		ldr	r3, [r2]
 288 01d2 B822     		mov	r2, #184
 289 01d4 5200     		lsl	r2, r2, #1
 290 01d6 BA18     		add	r2, r7, r2
 291 01d8 1360     		str	r3, [r2]
 305:Source\FilteringFunctions/arm_lms_norm_q31.c **** 
 306:Source\FilteringFunctions/arm_lms_norm_q31.c ****     /* Update the energy calculation */
 307:Source\FilteringFunctions/arm_lms_norm_q31.c ****     energy =
 308:Source\FilteringFunctions/arm_lms_norm_q31.c ****       (q31_t) ((((q63_t) energy << 32) - (((q63_t) x0 * x0) << 1)) >> 32);
 292              		.loc 1 308 0
 293 01da 9823     		mov	r3, #152
 294 01dc 8422     		mov	r2, #132
 295 01de 5200     		lsl	r2, r2, #1
 296 01e0 9446     		mov	ip, r2
 297 01e2 BC44     		add	ip, ip, r7
 298 01e4 6344     		add	r3, r3, ip
 299 01e6 1B68     		ldr	r3, [r3]
 300 01e8 1B00     		lsl	r3, r3, #0
 301 01ea EC22     		mov	r2, #236
 302 01ec BA18     		add	r2, r7, r2
 303 01ee 1360     		str	r3, [r2]
 304 01f0 0023     		mov	r3, #0
 305 01f2 E822     		mov	r2, #232
 306 01f4 BA18     		add	r2, r7, r2
 307 01f6 1360     		str	r3, [r2]
 308 01f8 8C23     		mov	r3, #140
 309 01fa 8422     		mov	r2, #132
 310 01fc 5200     		lsl	r2, r2, #1
 311 01fe 9446     		mov	ip, r2
 312 0200 BC44     		add	ip, ip, r7
 313 0202 6344     		add	r3, r3, ip
 314 0204 1B68     		ldr	r3, [r3]
 315 0206 E022     		mov	r2, #224
 316 0208 BA18     		add	r2, r7, r2
 317 020a 1360     		str	r3, [r2]
 318 020c DB17     		asr	r3, r3, #31
 319 020e E422     		mov	r2, #228
ARM GAS  C:\Users\fneves\AppData\Local\Temp\ccFjPd1E.s 			page 12


 320 0210 BA18     		add	r2, r7, r2
 321 0212 1360     		str	r3, [r2]
 322 0214 8C23     		mov	r3, #140
 323 0216 8422     		mov	r2, #132
 324 0218 5200     		lsl	r2, r2, #1
 325 021a 9446     		mov	ip, r2
 326 021c BC44     		add	ip, ip, r7
 327 021e 6344     		add	r3, r3, ip
 328 0220 1B68     		ldr	r3, [r3]
 329 0222 D822     		mov	r2, #216
 330 0224 BA18     		add	r2, r7, r2
 331 0226 1360     		str	r3, [r2]
 332 0228 DB17     		asr	r3, r3, #31
 333 022a DC22     		mov	r2, #220
 334 022c BA18     		add	r2, r7, r2
 335 022e 1360     		str	r3, [r2]
 336 0230 E023     		mov	r3, #224
 337 0232 FB18     		add	r3, r7, r3
 338 0234 1868     		ldr	r0, [r3]
 339 0236 5968     		ldr	r1, [r3, #4]
 340 0238 D823     		mov	r3, #216
 341 023a FB18     		add	r3, r7, r3
 342 023c 1A68     		ldr	r2, [r3]
 343 023e 5B68     		ldr	r3, [r3, #4]
 344 0240 FFF7FEFF 		bl	__aeabi_lmul
 345 0244 031C     		mov	r3, r0
 346 0246 0C1C     		mov	r4, r1
 347 0248 DB18     		add	r3, r3, r3
 348 024a 6441     		adc	r4, r4, r4
 349 024c E822     		mov	r2, #232
 350 024e BA18     		add	r2, r7, r2
 351 0250 1168     		ldr	r1, [r2]
 352 0252 5268     		ldr	r2, [r2, #4]
 353 0254 C91A     		sub	r1, r1, r3
 354 0256 A241     		sbc	r2, r2, r4
 355 0258 0B1C     		mov	r3, r1
 356 025a 141C     		mov	r4, r2
 357 025c 2200     		asr	r2, r4, #0
 358 025e D021     		mov	r1, #208
 359 0260 7918     		add	r1, r7, r1
 360 0262 0A60     		str	r2, [r1]
 361 0264 E317     		asr	r3, r4, #31
 362 0266 D422     		mov	r2, #212
 363 0268 BA18     		add	r2, r7, r2
 364 026a 1360     		str	r3, [r2]
 365 026c D023     		mov	r3, #208
 366 026e FB18     		add	r3, r7, r3
 367 0270 1B68     		ldr	r3, [r3]
 307:Source\FilteringFunctions/arm_lms_norm_q31.c ****       (q31_t) ((((q63_t) energy << 32) - (((q63_t) x0 * x0) << 1)) >> 32);
 368              		.loc 1 307 0
 369 0272 9822     		mov	r2, #152
 370 0274 8421     		mov	r1, #132
 371 0276 4900     		lsl	r1, r1, #1
 372 0278 8C46     		mov	ip, r1
 373 027a BC44     		add	ip, ip, r7
 374 027c 6244     		add	r2, r2, ip
 375 027e 1360     		str	r3, [r2]
ARM GAS  C:\Users\fneves\AppData\Local\Temp\ccFjPd1E.s 			page 13


 376 0280 DB17     		asr	r3, r3, #31
 377 0282 9C22     		mov	r2, #156
 378 0284 8421     		mov	r1, #132
 379 0286 4900     		lsl	r1, r1, #1
 380 0288 8C46     		mov	ip, r1
 381 028a BC44     		add	ip, ip, r7
 382 028c 6244     		add	r2, r2, ip
 383 028e 1360     		str	r3, [r2]
 309:Source\FilteringFunctions/arm_lms_norm_q31.c ****     energy = (q31_t) (((((q63_t) in * in) << 1) + (energy << 32)) >> 32);
 384              		.loc 1 309 0
 385 0290 B823     		mov	r3, #184
 386 0292 5B00     		lsl	r3, r3, #1
 387 0294 FB18     		add	r3, r7, r3
 388 0296 1B68     		ldr	r3, [r3]
 389 0298 C822     		mov	r2, #200
 390 029a BA18     		add	r2, r7, r2
 391 029c 1360     		str	r3, [r2]
 392 029e DB17     		asr	r3, r3, #31
 393 02a0 CC22     		mov	r2, #204
 394 02a2 BA18     		add	r2, r7, r2
 395 02a4 1360     		str	r3, [r2]
 396 02a6 B823     		mov	r3, #184
 397 02a8 5B00     		lsl	r3, r3, #1
 398 02aa FB18     		add	r3, r7, r3
 399 02ac 1B68     		ldr	r3, [r3]
 400 02ae C022     		mov	r2, #192
 401 02b0 BA18     		add	r2, r7, r2
 402 02b2 1360     		str	r3, [r2]
 403 02b4 DB17     		asr	r3, r3, #31
 404 02b6 C422     		mov	r2, #196
 405 02b8 BA18     		add	r2, r7, r2
 406 02ba 1360     		str	r3, [r2]
 407 02bc C823     		mov	r3, #200
 408 02be FB18     		add	r3, r7, r3
 409 02c0 1868     		ldr	r0, [r3]
 410 02c2 5968     		ldr	r1, [r3, #4]
 411 02c4 C023     		mov	r3, #192
 412 02c6 FB18     		add	r3, r7, r3
 413 02c8 1A68     		ldr	r2, [r3]
 414 02ca 5B68     		ldr	r3, [r3, #4]
 415 02cc FFF7FEFF 		bl	__aeabi_lmul
 416 02d0 031C     		mov	r3, r0
 417 02d2 0C1C     		mov	r4, r1
 418 02d4 DB18     		add	r3, r3, r3
 419 02d6 6441     		adc	r4, r4, r4
 420 02d8 191C     		mov	r1, r3
 421 02da 221C     		mov	r2, r4
 422 02dc 9823     		mov	r3, #152
 423 02de 8420     		mov	r0, #132
 424 02e0 4000     		lsl	r0, r0, #1
 425 02e2 8446     		mov	ip, r0
 426 02e4 BC44     		add	ip, ip, r7
 427 02e6 6344     		add	r3, r3, ip
 428 02e8 1B68     		ldr	r3, [r3]
 429 02ea 1B00     		lsl	r3, r3, #0
 430 02ec BC20     		mov	r0, #188
 431 02ee 3818     		add	r0, r7, r0
ARM GAS  C:\Users\fneves\AppData\Local\Temp\ccFjPd1E.s 			page 14


 432 02f0 0360     		str	r3, [r0]
 433 02f2 0023     		mov	r3, #0
 434 02f4 B820     		mov	r0, #184
 435 02f6 3818     		add	r0, r7, r0
 436 02f8 0360     		str	r3, [r0]
 437 02fa B823     		mov	r3, #184
 438 02fc FB18     		add	r3, r7, r3
 439 02fe 5C68     		ldr	r4, [r3, #4]
 440 0300 1B68     		ldr	r3, [r3]
 441 0302 5B18     		add	r3, r3, r1
 442 0304 5441     		adc	r4, r4, r2
 443 0306 2200     		asr	r2, r4, #0
 444 0308 B021     		mov	r1, #176
 445 030a 7918     		add	r1, r7, r1
 446 030c 0A60     		str	r2, [r1]
 447 030e E317     		asr	r3, r4, #31
 448 0310 B422     		mov	r2, #180
 449 0312 BA18     		add	r2, r7, r2
 450 0314 1360     		str	r3, [r2]
 451 0316 B023     		mov	r3, #176
 452 0318 FB18     		add	r3, r7, r3
 453 031a 1B68     		ldr	r3, [r3]
 454 031c 9822     		mov	r2, #152
 455 031e 8421     		mov	r1, #132
 456 0320 4900     		lsl	r1, r1, #1
 457 0322 8C46     		mov	ip, r1
 458 0324 BC44     		add	ip, ip, r7
 459 0326 6244     		add	r2, r2, ip
 460 0328 1360     		str	r3, [r2]
 461 032a DB17     		asr	r3, r3, #31
 462 032c 9C22     		mov	r2, #156
 463 032e 8421     		mov	r1, #132
 464 0330 4900     		lsl	r1, r1, #1
 465 0332 8C46     		mov	ip, r1
 466 0334 BC44     		add	ip, ip, r7
 467 0336 6244     		add	r2, r2, ip
 468 0338 1360     		str	r3, [r2]
 310:Source\FilteringFunctions/arm_lms_norm_q31.c **** 
 311:Source\FilteringFunctions/arm_lms_norm_q31.c ****     /* Set the accumulator to zero */
 312:Source\FilteringFunctions/arm_lms_norm_q31.c ****     acc = 0;
 469              		.loc 1 312 0
 470 033a 0023     		mov	r3, #0
 471 033c 0024     		mov	r4, #0
 472 033e 9022     		mov	r2, #144
 473 0340 8421     		mov	r1, #132
 474 0342 4900     		lsl	r1, r1, #1
 475 0344 8C46     		mov	ip, r1
 476 0346 BC44     		add	ip, ip, r7
 477 0348 6244     		add	r2, r2, ip
 478 034a 1360     		str	r3, [r2]
 479 034c 5460     		str	r4, [r2, #4]
 313:Source\FilteringFunctions/arm_lms_norm_q31.c **** 
 314:Source\FilteringFunctions/arm_lms_norm_q31.c ****     /* Loop over numTaps number of values */
 315:Source\FilteringFunctions/arm_lms_norm_q31.c ****     tapCnt = numTaps;
 480              		.loc 1 315 0
 481 034e 8023     		mov	r3, #128
 482 0350 8422     		mov	r2, #132
ARM GAS  C:\Users\fneves\AppData\Local\Temp\ccFjPd1E.s 			page 15


 483 0352 5200     		lsl	r2, r2, #1
 484 0354 9446     		mov	ip, r2
 485 0356 BC44     		add	ip, ip, r7
 486 0358 6344     		add	r3, r3, ip
 487 035a 1B68     		ldr	r3, [r3]
 488 035c A422     		mov	r2, #164
 489 035e 8421     		mov	r1, #132
 490 0360 4900     		lsl	r1, r1, #1
 491 0362 8C46     		mov	ip, r1
 492 0364 BC44     		add	ip, ip, r7
 493 0366 6244     		add	r2, r2, ip
 494 0368 1360     		str	r3, [r2]
 316:Source\FilteringFunctions/arm_lms_norm_q31.c **** 
 317:Source\FilteringFunctions/arm_lms_norm_q31.c ****     while (tapCnt > 0u)
 495              		.loc 1 317 0
 496 036a 5EE0     		b	.L3
 497              	.L29:
 498              		.align	2
 499              	.L28:
 500 036c FFFFFF3F 		.word	1073741823
 501              	.L4:
 318:Source\FilteringFunctions/arm_lms_norm_q31.c ****     {
 319:Source\FilteringFunctions/arm_lms_norm_q31.c ****       /* Perform the multiply-accumulate */
 320:Source\FilteringFunctions/arm_lms_norm_q31.c ****       acc += ((q63_t) (*px++)) * (*pb++);
 502              		.loc 1 320 0
 503 0370 AC23     		mov	r3, #172
 504 0372 8422     		mov	r2, #132
 505 0374 5200     		lsl	r2, r2, #1
 506 0376 9446     		mov	ip, r2
 507 0378 BC44     		add	ip, ip, r7
 508 037a 6344     		add	r3, r3, ip
 509 037c 1A68     		ldr	r2, [r3]
 510 037e 131D     		add	r3, r2, #4
 511 0380 AC21     		mov	r1, #172
 512 0382 8420     		mov	r0, #132
 513 0384 4000     		lsl	r0, r0, #1
 514 0386 8446     		mov	ip, r0
 515 0388 BC44     		add	ip, ip, r7
 516 038a 6144     		add	r1, r1, ip
 517 038c 0B60     		str	r3, [r1]
 518 038e 1368     		ldr	r3, [r2]
 519 0390 A822     		mov	r2, #168
 520 0392 BA18     		add	r2, r7, r2
 521 0394 1360     		str	r3, [r2]
 522 0396 DB17     		asr	r3, r3, #31
 523 0398 AC22     		mov	r2, #172
 524 039a BA18     		add	r2, r7, r2
 525 039c 1360     		str	r3, [r2]
 526 039e A823     		mov	r3, #168
 527 03a0 8422     		mov	r2, #132
 528 03a2 5200     		lsl	r2, r2, #1
 529 03a4 9446     		mov	ip, r2
 530 03a6 BC44     		add	ip, ip, r7
 531 03a8 6344     		add	r3, r3, ip
 532 03aa 1A68     		ldr	r2, [r3]
 533 03ac 131D     		add	r3, r2, #4
 534 03ae A821     		mov	r1, #168
ARM GAS  C:\Users\fneves\AppData\Local\Temp\ccFjPd1E.s 			page 16


 535 03b0 8420     		mov	r0, #132
 536 03b2 4000     		lsl	r0, r0, #1
 537 03b4 8446     		mov	ip, r0
 538 03b6 BC44     		add	ip, ip, r7
 539 03b8 6144     		add	r1, r1, ip
 540 03ba 0B60     		str	r3, [r1]
 541 03bc 1368     		ldr	r3, [r2]
 542 03be A022     		mov	r2, #160
 543 03c0 BA18     		add	r2, r7, r2
 544 03c2 1360     		str	r3, [r2]
 545 03c4 DB17     		asr	r3, r3, #31
 546 03c6 A422     		mov	r2, #164
 547 03c8 BA18     		add	r2, r7, r2
 548 03ca 1360     		str	r3, [r2]
 549 03cc A823     		mov	r3, #168
 550 03ce FB18     		add	r3, r7, r3
 551 03d0 1868     		ldr	r0, [r3]
 552 03d2 5968     		ldr	r1, [r3, #4]
 553 03d4 A023     		mov	r3, #160
 554 03d6 FB18     		add	r3, r7, r3
 555 03d8 1A68     		ldr	r2, [r3]
 556 03da 5B68     		ldr	r3, [r3, #4]
 557 03dc FFF7FEFF 		bl	__aeabi_lmul
 558 03e0 031C     		mov	r3, r0
 559 03e2 0C1C     		mov	r4, r1
 560 03e4 191C     		mov	r1, r3
 561 03e6 221C     		mov	r2, r4
 562 03e8 9023     		mov	r3, #144
 563 03ea 8420     		mov	r0, #132
 564 03ec 4000     		lsl	r0, r0, #1
 565 03ee 8446     		mov	ip, r0
 566 03f0 BC44     		add	ip, ip, r7
 567 03f2 6344     		add	r3, r3, ip
 568 03f4 5C68     		ldr	r4, [r3, #4]
 569 03f6 1B68     		ldr	r3, [r3]
 570 03f8 5B18     		add	r3, r3, r1
 571 03fa 5441     		adc	r4, r4, r2
 572 03fc 9022     		mov	r2, #144
 573 03fe 8421     		mov	r1, #132
 574 0400 4900     		lsl	r1, r1, #1
 575 0402 8C46     		mov	ip, r1
 576 0404 BC44     		add	ip, ip, r7
 577 0406 6244     		add	r2, r2, ip
 578 0408 1360     		str	r3, [r2]
 579 040a 5460     		str	r4, [r2, #4]
 321:Source\FilteringFunctions/arm_lms_norm_q31.c **** 
 322:Source\FilteringFunctions/arm_lms_norm_q31.c ****       /* Decrement the loop counter */
 323:Source\FilteringFunctions/arm_lms_norm_q31.c ****       tapCnt--;
 580              		.loc 1 323 0
 581 040c A423     		mov	r3, #164
 582 040e 8422     		mov	r2, #132
 583 0410 5200     		lsl	r2, r2, #1
 584 0412 9446     		mov	ip, r2
 585 0414 BC44     		add	ip, ip, r7
 586 0416 6344     		add	r3, r3, ip
 587 0418 1B68     		ldr	r3, [r3]
 588 041a 013B     		sub	r3, r3, #1
ARM GAS  C:\Users\fneves\AppData\Local\Temp\ccFjPd1E.s 			page 17


 589 041c A422     		mov	r2, #164
 590 041e 8421     		mov	r1, #132
 591 0420 4900     		lsl	r1, r1, #1
 592 0422 8C46     		mov	ip, r1
 593 0424 BC44     		add	ip, ip, r7
 594 0426 6244     		add	r2, r2, ip
 595 0428 1360     		str	r3, [r2]
 596              	.L3:
 317:Source\FilteringFunctions/arm_lms_norm_q31.c ****     {
 597              		.loc 1 317 0
 598 042a A423     		mov	r3, #164
 599 042c 8422     		mov	r2, #132
 600 042e 5200     		lsl	r2, r2, #1
 601 0430 9446     		mov	ip, r2
 602 0432 BC44     		add	ip, ip, r7
 603 0434 6344     		add	r3, r3, ip
 604 0436 1B68     		ldr	r3, [r3]
 605 0438 002B     		cmp	r3, #0
 606 043a 99D1     		bne	.L4
 324:Source\FilteringFunctions/arm_lms_norm_q31.c ****     }
 325:Source\FilteringFunctions/arm_lms_norm_q31.c **** 
 326:Source\FilteringFunctions/arm_lms_norm_q31.c ****     /* Converting the result to 1.31 format */
 327:Source\FilteringFunctions/arm_lms_norm_q31.c ****     /* Converting the result to 1.31 format */
 328:Source\FilteringFunctions/arm_lms_norm_q31.c ****     /* Calc lower part of acc */
 329:Source\FilteringFunctions/arm_lms_norm_q31.c ****     acc_l = acc & 0xffffffff;
 607              		.loc 1 329 0
 608 043c 9023     		mov	r3, #144
 609 043e 8422     		mov	r2, #132
 610 0440 5200     		lsl	r2, r2, #1
 611 0442 9446     		mov	ip, r2
 612 0444 BC44     		add	ip, ip, r7
 613 0446 6344     		add	r3, r3, ip
 614 0448 1B68     		ldr	r3, [r3]
 615 044a B622     		mov	r2, #182
 616 044c 5200     		lsl	r2, r2, #1
 617 044e BA18     		add	r2, r7, r2
 618 0450 1360     		str	r3, [r2]
 330:Source\FilteringFunctions/arm_lms_norm_q31.c **** 
 331:Source\FilteringFunctions/arm_lms_norm_q31.c ****     /* Calc upper part of acc */
 332:Source\FilteringFunctions/arm_lms_norm_q31.c ****     acc_h = (acc >> 32) & 0xffffffff;
 619              		.loc 1 332 0
 620 0452 9023     		mov	r3, #144
 621 0454 8422     		mov	r2, #132
 622 0456 5200     		lsl	r2, r2, #1
 623 0458 9446     		mov	ip, r2
 624 045a BC44     		add	ip, ip, r7
 625 045c 6344     		add	r3, r3, ip
 626 045e 5C68     		ldr	r4, [r3, #4]
 627 0460 1B68     		ldr	r3, [r3]
 628 0462 2300     		lsr	r3, r4, #0
 629 0464 9822     		mov	r2, #152
 630 0466 BA18     		add	r2, r7, r2
 631 0468 1360     		str	r3, [r2]
 632 046a 0023     		mov	r3, #0
 633 046c 9C22     		mov	r2, #156
 634 046e BA18     		add	r2, r7, r2
 635 0470 1360     		str	r3, [r2]
ARM GAS  C:\Users\fneves\AppData\Local\Temp\ccFjPd1E.s 			page 18


 636 0472 9823     		mov	r3, #152
 637 0474 FB18     		add	r3, r7, r3
 638 0476 1B68     		ldr	r3, [r3]
 639 0478 B422     		mov	r2, #180
 640 047a 5200     		lsl	r2, r2, #1
 641 047c BA18     		add	r2, r7, r2
 642 047e 1360     		str	r3, [r2]
 333:Source\FilteringFunctions/arm_lms_norm_q31.c **** 
 334:Source\FilteringFunctions/arm_lms_norm_q31.c ****     acc = (uint32_t) acc_l >> lShift | acc_h << uShift;
 643              		.loc 1 334 0
 644 0480 B623     		mov	r3, #182
 645 0482 5B00     		lsl	r3, r3, #1
 646 0484 FB18     		add	r3, r7, r3
 647 0486 1A68     		ldr	r2, [r3]
 648 0488 BA23     		mov	r3, #186
 649 048a 5B00     		lsl	r3, r3, #1
 650 048c FB18     		add	r3, r7, r3
 651 048e 1B68     		ldr	r3, [r3]
 652 0490 DA40     		lsr	r2, r2, r3
 653 0492 111C     		mov	r1, r2
 654 0494 BC23     		mov	r3, #188
 655 0496 5B00     		lsl	r3, r3, #1
 656 0498 FB18     		add	r3, r7, r3
 657 049a 1A68     		ldr	r2, [r3]
 658 049c B423     		mov	r3, #180
 659 049e 5B00     		lsl	r3, r3, #1
 660 04a0 FB18     		add	r3, r7, r3
 661 04a2 1B68     		ldr	r3, [r3]
 662 04a4 9340     		lsl	r3, r3, r2
 663 04a6 0B43     		orr	r3, r1
 664 04a8 9022     		mov	r2, #144
 665 04aa 8421     		mov	r1, #132
 666 04ac 4900     		lsl	r1, r1, #1
 667 04ae 8C46     		mov	ip, r1
 668 04b0 BC44     		add	ip, ip, r7
 669 04b2 6244     		add	r2, r2, ip
 670 04b4 1360     		str	r3, [r2]
 671 04b6 0023     		mov	r3, #0
 672 04b8 9422     		mov	r2, #148
 673 04ba 8421     		mov	r1, #132
 674 04bc 4900     		lsl	r1, r1, #1
 675 04be 8C46     		mov	ip, r1
 676 04c0 BC44     		add	ip, ip, r7
 677 04c2 6244     		add	r2, r2, ip
 678 04c4 1360     		str	r3, [r2]
 335:Source\FilteringFunctions/arm_lms_norm_q31.c **** 
 336:Source\FilteringFunctions/arm_lms_norm_q31.c **** 
 337:Source\FilteringFunctions/arm_lms_norm_q31.c ****     //acc = (q31_t) (acc >> shift);
 338:Source\FilteringFunctions/arm_lms_norm_q31.c **** 
 339:Source\FilteringFunctions/arm_lms_norm_q31.c ****     /* Store the result from accumulator into the destination buffer. */
 340:Source\FilteringFunctions/arm_lms_norm_q31.c ****     *pOut++ = (q31_t) acc;
 679              		.loc 1 340 0
 680 04c6 8423     		mov	r3, #132
 681 04c8 5B00     		lsl	r3, r3, #1
 682 04ca FB18     		add	r3, r7, r3
 683 04cc 1A68     		ldr	r2, [r3]
 684 04ce 131D     		add	r3, r2, #4
ARM GAS  C:\Users\fneves\AppData\Local\Temp\ccFjPd1E.s 			page 19


 685 04d0 8421     		mov	r1, #132
 686 04d2 4900     		lsl	r1, r1, #1
 687 04d4 7918     		add	r1, r7, r1
 688 04d6 0B60     		str	r3, [r1]
 689 04d8 9023     		mov	r3, #144
 690 04da 8421     		mov	r1, #132
 691 04dc 4900     		lsl	r1, r1, #1
 692 04de 8C46     		mov	ip, r1
 693 04e0 BC44     		add	ip, ip, r7
 694 04e2 6344     		add	r3, r3, ip
 695 04e4 1B68     		ldr	r3, [r3]
 696 04e6 1360     		str	r3, [r2]
 341:Source\FilteringFunctions/arm_lms_norm_q31.c **** 
 342:Source\FilteringFunctions/arm_lms_norm_q31.c ****     /* Compute and store error */
 343:Source\FilteringFunctions/arm_lms_norm_q31.c ****     d = *pRef++;
 697              		.loc 1 343 0
 698 04e8 8623     		mov	r3, #134
 699 04ea 5B00     		lsl	r3, r3, #1
 700 04ec FB18     		add	r3, r7, r3
 701 04ee 1A68     		ldr	r2, [r3]
 702 04f0 131D     		add	r3, r2, #4
 703 04f2 8621     		mov	r1, #134
 704 04f4 4900     		lsl	r1, r1, #1
 705 04f6 7918     		add	r1, r7, r1
 706 04f8 0B60     		str	r3, [r1]
 707 04fa 1368     		ldr	r3, [r2]
 708 04fc C022     		mov	r2, #192
 709 04fe 5200     		lsl	r2, r2, #1
 710 0500 BA18     		add	r2, r7, r2
 711 0502 1360     		str	r3, [r2]
 344:Source\FilteringFunctions/arm_lms_norm_q31.c ****     e = d - (q31_t) acc;
 712              		.loc 1 344 0
 713 0504 9023     		mov	r3, #144
 714 0506 8422     		mov	r2, #132
 715 0508 5200     		lsl	r2, r2, #1
 716 050a 9446     		mov	ip, r2
 717 050c BC44     		add	ip, ip, r7
 718 050e 6344     		add	r3, r3, ip
 719 0510 1A68     		ldr	r2, [r3]
 720 0512 C023     		mov	r3, #192
 721 0514 5B00     		lsl	r3, r3, #1
 722 0516 FB18     		add	r3, r7, r3
 723 0518 1B68     		ldr	r3, [r3]
 724 051a 9B1A     		sub	r3, r3, r2
 725 051c C222     		mov	r2, #194
 726 051e 5200     		lsl	r2, r2, #1
 727 0520 BA18     		add	r2, r7, r2
 728 0522 1360     		str	r3, [r2]
 345:Source\FilteringFunctions/arm_lms_norm_q31.c ****     *pErr++ = e;
 729              		.loc 1 345 0
 730 0524 D023     		mov	r3, #208
 731 0526 8422     		mov	r2, #132
 732 0528 5200     		lsl	r2, r2, #1
 733 052a 9446     		mov	ip, r2
 734 052c BC44     		add	ip, ip, r7
 735 052e 6344     		add	r3, r3, ip
 736 0530 1A68     		ldr	r2, [r3]
ARM GAS  C:\Users\fneves\AppData\Local\Temp\ccFjPd1E.s 			page 20


 737 0532 131D     		add	r3, r2, #4
 738 0534 D021     		mov	r1, #208
 739 0536 8420     		mov	r0, #132
 740 0538 4000     		lsl	r0, r0, #1
 741 053a 8446     		mov	ip, r0
 742 053c BC44     		add	ip, ip, r7
 743 053e 6144     		add	r1, r1, ip
 744 0540 0B60     		str	r3, [r1]
 745 0542 C223     		mov	r3, #194
 746 0544 5B00     		lsl	r3, r3, #1
 747 0546 FB18     		add	r3, r7, r3
 748 0548 1B68     		ldr	r3, [r3]
 749 054a 1360     		str	r3, [r2]
 346:Source\FilteringFunctions/arm_lms_norm_q31.c **** 
 347:Source\FilteringFunctions/arm_lms_norm_q31.c ****     /* Calculates the reciprocal of energy */
 348:Source\FilteringFunctions/arm_lms_norm_q31.c ****     postShift =
 349:Source\FilteringFunctions/arm_lms_norm_q31.c ****       arm_recip_q31(energy + DELTA_Q31, &oneByEnergy, &S->recipTable[0]);
 750              		.loc 1 349 0
 751 054c 9823     		mov	r3, #152
 752 054e 8422     		mov	r2, #132
 753 0550 5200     		lsl	r2, r2, #1
 754 0552 9446     		mov	ip, r2
 755 0554 BC44     		add	ip, ip, r7
 756 0556 6344     		add	r3, r3, ip
 757 0558 1B68     		ldr	r3, [r3]
 758 055a 0133     		add	r3, r3, #1
 759 055c FF33     		add	r3, r3, #255
 760 055e 191C     		mov	r1, r3
 761 0560 8A23     		mov	r3, #138
 762 0562 5B00     		lsl	r3, r3, #1
 763 0564 FB18     		add	r3, r7, r3
 764 0566 1B68     		ldr	r3, [r3]
 765 0568 5A69     		ldr	r2, [r3, #20]
 766 056a AC23     		mov	r3, #172
 767 056c 5B00     		lsl	r3, r3, #1
 768 056e FB18     		add	r3, r7, r3
 769 0570 1960     		str	r1, [r3]
 770 0572 1423     		mov	r3, #20
 771 0574 8421     		mov	r1, #132
 772 0576 4900     		lsl	r1, r1, #1
 773 0578 8C46     		mov	ip, r1
 774 057a BC44     		add	ip, ip, r7
 775 057c 6344     		add	r3, r3, ip
 776 057e AA21     		mov	r1, #170
 777 0580 4900     		lsl	r1, r1, #1
 778 0582 7918     		add	r1, r7, r1
 779 0584 0B60     		str	r3, [r1]
 780 0586 A823     		mov	r3, #168
 781 0588 5B00     		lsl	r3, r3, #1
 782 058a FB18     		add	r3, r7, r3
 783 058c 1A60     		str	r2, [r3]
 784              	.LBB12:
 785              	.LBB13:
 786              		.file 2 ".\\Include/arm_math.h"
   1:.\Include/arm_math.h **** /* ----------------------------------------------------------------------
   2:.\Include/arm_math.h ****  * Project:      CMSIS DSP Library
   3:.\Include/arm_math.h ****  * Title:        arm_math.h
ARM GAS  C:\Users\fneves\AppData\Local\Temp\ccFjPd1E.s 			page 21


   4:.\Include/arm_math.h ****  * Description:  Public header file for CMSIS DSP Library
   5:.\Include/arm_math.h ****  *
   6:.\Include/arm_math.h ****  * $Date:        27. January 2017
   7:.\Include/arm_math.h ****  * $Revision:    V.1.5.1
   8:.\Include/arm_math.h ****  *
   9:.\Include/arm_math.h ****  * Target Processor: Cortex-M cores
  10:.\Include/arm_math.h ****  * -------------------------------------------------------------------- */
  11:.\Include/arm_math.h **** /*
  12:.\Include/arm_math.h ****  * Copyright (C) 2010-2017 ARM Limited or its affiliates. All rights reserved.
  13:.\Include/arm_math.h ****  *
  14:.\Include/arm_math.h ****  * SPDX-License-Identifier: Apache-2.0
  15:.\Include/arm_math.h ****  *
  16:.\Include/arm_math.h ****  * Licensed under the Apache License, Version 2.0 (the License); you may
  17:.\Include/arm_math.h ****  * not use this file except in compliance with the License.
  18:.\Include/arm_math.h ****  * You may obtain a copy of the License at
  19:.\Include/arm_math.h ****  *
  20:.\Include/arm_math.h ****  * www.apache.org/licenses/LICENSE-2.0
  21:.\Include/arm_math.h ****  *
  22:.\Include/arm_math.h ****  * Unless required by applicable law or agreed to in writing, software
  23:.\Include/arm_math.h ****  * distributed under the License is distributed on an AS IS BASIS, WITHOUT
  24:.\Include/arm_math.h ****  * WARRANTIES OR CONDITIONS OF ANY KIND, either express or implied.
  25:.\Include/arm_math.h ****  * See the License for the specific language governing permissions and
  26:.\Include/arm_math.h ****  * limitations under the License.
  27:.\Include/arm_math.h ****  */
  28:.\Include/arm_math.h **** 
  29:.\Include/arm_math.h **** /**
  30:.\Include/arm_math.h ****    \mainpage CMSIS DSP Software Library
  31:.\Include/arm_math.h ****    *
  32:.\Include/arm_math.h ****    * Introduction
  33:.\Include/arm_math.h ****    * ------------
  34:.\Include/arm_math.h ****    *
  35:.\Include/arm_math.h ****    * This user manual describes the CMSIS DSP software library,
  36:.\Include/arm_math.h ****    * a suite of common signal processing functions for use on Cortex-M processor based devices.
  37:.\Include/arm_math.h ****    *
  38:.\Include/arm_math.h ****    * The library is divided into a number of functions each covering a specific category:
  39:.\Include/arm_math.h ****    * - Basic math functions
  40:.\Include/arm_math.h ****    * - Fast math functions
  41:.\Include/arm_math.h ****    * - Complex math functions
  42:.\Include/arm_math.h ****    * - Filters
  43:.\Include/arm_math.h ****    * - Matrix functions
  44:.\Include/arm_math.h ****    * - Transforms
  45:.\Include/arm_math.h ****    * - Motor control functions
  46:.\Include/arm_math.h ****    * - Statistical functions
  47:.\Include/arm_math.h ****    * - Support functions
  48:.\Include/arm_math.h ****    * - Interpolation functions
  49:.\Include/arm_math.h ****    *
  50:.\Include/arm_math.h ****    * The library has separate functions for operating on 8-bit integers, 16-bit integers,
  51:.\Include/arm_math.h ****    * 32-bit integer and 32-bit floating-point values.
  52:.\Include/arm_math.h ****    *
  53:.\Include/arm_math.h ****    * Using the Library
  54:.\Include/arm_math.h ****    * ------------
  55:.\Include/arm_math.h ****    *
  56:.\Include/arm_math.h ****    * The library installer contains prebuilt versions of the libraries in the <code>Lib</code> fold
  57:.\Include/arm_math.h ****    * - arm_cortexM7lfdp_math.lib (Cortex-M7, Little endian, Double Precision Floating Point Unit)
  58:.\Include/arm_math.h ****    * - arm_cortexM7bfdp_math.lib (Cortex-M7, Big endian, Double Precision Floating Point Unit)
  59:.\Include/arm_math.h ****    * - arm_cortexM7lfsp_math.lib (Cortex-M7, Little endian, Single Precision Floating Point Unit)
  60:.\Include/arm_math.h ****    * - arm_cortexM7bfsp_math.lib (Cortex-M7, Big endian and Single Precision Floating Point Unit on
ARM GAS  C:\Users\fneves\AppData\Local\Temp\ccFjPd1E.s 			page 22


  61:.\Include/arm_math.h ****    * - arm_cortexM7l_math.lib (Cortex-M7, Little endian)
  62:.\Include/arm_math.h ****    * - arm_cortexM7b_math.lib (Cortex-M7, Big endian)
  63:.\Include/arm_math.h ****    * - arm_cortexM4lf_math.lib (Cortex-M4, Little endian, Floating Point Unit)
  64:.\Include/arm_math.h ****    * - arm_cortexM4bf_math.lib (Cortex-M4, Big endian, Floating Point Unit)
  65:.\Include/arm_math.h ****    * - arm_cortexM4l_math.lib (Cortex-M4, Little endian)
  66:.\Include/arm_math.h ****    * - arm_cortexM4b_math.lib (Cortex-M4, Big endian)
  67:.\Include/arm_math.h ****    * - arm_cortexM3l_math.lib (Cortex-M3, Little endian)
  68:.\Include/arm_math.h ****    * - arm_cortexM3b_math.lib (Cortex-M3, Big endian)
  69:.\Include/arm_math.h ****    * - arm_cortexM0l_math.lib (Cortex-M0 / Cortex-M0+, Little endian)
  70:.\Include/arm_math.h ****    * - arm_cortexM0b_math.lib (Cortex-M0 / Cortex-M0+, Big endian)
  71:.\Include/arm_math.h ****    * - arm_ARMv8MBLl_math.lib (ARMv8M Baseline, Little endian)
  72:.\Include/arm_math.h ****    * - arm_ARMv8MMLl_math.lib (ARMv8M Mainline, Little endian)
  73:.\Include/arm_math.h ****    * - arm_ARMv8MMLlfsp_math.lib (ARMv8M Mainline, Little endian, Single Precision Floating Point U
  74:.\Include/arm_math.h ****    * - arm_ARMv8MMLld_math.lib (ARMv8M Mainline, Little endian, DSP instructions)
  75:.\Include/arm_math.h ****    * - arm_ARMv8MMLldfsp_math.lib (ARMv8M Mainline, Little endian, DSP instructions, Single Precisi
  76:.\Include/arm_math.h ****    *
  77:.\Include/arm_math.h ****    * The library functions are declared in the public file <code>arm_math.h</code> which is placed 
  78:.\Include/arm_math.h ****    * Simply include this file and link the appropriate library in the application and begin calling
  79:.\Include/arm_math.h ****    * public header file <code> arm_math.h</code> for Cortex-M cores with little endian and big endi
  80:.\Include/arm_math.h ****    * Define the appropriate pre processor MACRO ARM_MATH_CM7 or ARM_MATH_CM4 or  ARM_MATH_CM3 or
  81:.\Include/arm_math.h ****    * ARM_MATH_CM0 or ARM_MATH_CM0PLUS depending on the target processor in the application.
  82:.\Include/arm_math.h ****    * For ARMv8M cores define pre processor MACRO ARM_MATH_ARMV8MBL or ARM_MATH_ARMV8MML.
  83:.\Include/arm_math.h ****    * Set Pre processor MACRO __DSP_PRESENT if ARMv8M Mainline core supports DSP instructions.
  84:.\Include/arm_math.h ****    * 
  85:.\Include/arm_math.h ****    *
  86:.\Include/arm_math.h ****    * Examples
  87:.\Include/arm_math.h ****    * --------
  88:.\Include/arm_math.h ****    *
  89:.\Include/arm_math.h ****    * The library ships with a number of examples which demonstrate how to use the library functions
  90:.\Include/arm_math.h ****    *
  91:.\Include/arm_math.h ****    * Toolchain Support
  92:.\Include/arm_math.h ****    * ------------
  93:.\Include/arm_math.h ****    *
  94:.\Include/arm_math.h ****    * The library has been developed and tested with MDK-ARM version 5.14.0.0
  95:.\Include/arm_math.h ****    * The library is being tested in GCC and IAR toolchains and updates on this activity will be mad
  96:.\Include/arm_math.h ****    *
  97:.\Include/arm_math.h ****    * Building the Library
  98:.\Include/arm_math.h ****    * ------------
  99:.\Include/arm_math.h ****    *
 100:.\Include/arm_math.h ****    * The library installer contains a project file to re build libraries on MDK-ARM Tool chain in t
 101:.\Include/arm_math.h ****    * - arm_cortexM_math.uvprojx
 102:.\Include/arm_math.h ****    *
 103:.\Include/arm_math.h ****    *
 104:.\Include/arm_math.h ****    * The libraries can be built by opening the arm_cortexM_math.uvprojx project in MDK-ARM, selecti
 105:.\Include/arm_math.h ****    *
 106:.\Include/arm_math.h ****    * Pre-processor Macros
 107:.\Include/arm_math.h ****    * ------------
 108:.\Include/arm_math.h ****    *
 109:.\Include/arm_math.h ****    * Each library project have differant pre-processor macros.
 110:.\Include/arm_math.h ****    *
 111:.\Include/arm_math.h ****    * - UNALIGNED_SUPPORT_DISABLE:
 112:.\Include/arm_math.h ****    *
 113:.\Include/arm_math.h ****    * Define macro UNALIGNED_SUPPORT_DISABLE, If the silicon does not support unaligned memory acces
 114:.\Include/arm_math.h ****    *
 115:.\Include/arm_math.h ****    * - ARM_MATH_BIG_ENDIAN:
 116:.\Include/arm_math.h ****    *
 117:.\Include/arm_math.h ****    * Define macro ARM_MATH_BIG_ENDIAN to build the library for big endian targets. By default libra
ARM GAS  C:\Users\fneves\AppData\Local\Temp\ccFjPd1E.s 			page 23


 118:.\Include/arm_math.h ****    *
 119:.\Include/arm_math.h ****    * - ARM_MATH_MATRIX_CHECK:
 120:.\Include/arm_math.h ****    *
 121:.\Include/arm_math.h ****    * Define macro ARM_MATH_MATRIX_CHECK for checking on the input and output sizes of matrices
 122:.\Include/arm_math.h ****    *
 123:.\Include/arm_math.h ****    * - ARM_MATH_ROUNDING:
 124:.\Include/arm_math.h ****    *
 125:.\Include/arm_math.h ****    * Define macro ARM_MATH_ROUNDING for rounding on support functions
 126:.\Include/arm_math.h ****    *
 127:.\Include/arm_math.h ****    * - ARM_MATH_CMx:
 128:.\Include/arm_math.h ****    *
 129:.\Include/arm_math.h ****    * Define macro ARM_MATH_CM4 for building the library on Cortex-M4 target, ARM_MATH_CM3 for build
 130:.\Include/arm_math.h ****    * and ARM_MATH_CM0 for building library on Cortex-M0 target, ARM_MATH_CM0PLUS for building libra
 131:.\Include/arm_math.h ****    * ARM_MATH_CM7 for building the library on cortex-M7.
 132:.\Include/arm_math.h ****    *
 133:.\Include/arm_math.h ****    * - ARM_MATH_ARMV8MxL:
 134:.\Include/arm_math.h ****    *
 135:.\Include/arm_math.h ****    * Define macro ARM_MATH_ARMV8MBL for building the library on ARMv8M Baseline target, ARM_MATH_AR
 136:.\Include/arm_math.h ****    * on ARMv8M Mainline target.
 137:.\Include/arm_math.h ****    *
 138:.\Include/arm_math.h ****    * - __FPU_PRESENT:
 139:.\Include/arm_math.h ****    *
 140:.\Include/arm_math.h ****    * Initialize macro __FPU_PRESENT = 1 when building on FPU supported Targets. Enable this macro f
 141:.\Include/arm_math.h ****    *
 142:.\Include/arm_math.h ****    * - __DSP_PRESENT:
 143:.\Include/arm_math.h ****    *
 144:.\Include/arm_math.h ****    * Initialize macro __DSP_PRESENT = 1 when ARMv8M Mainline core supports DSP instructions.
 145:.\Include/arm_math.h ****    *
 146:.\Include/arm_math.h ****    * <hr>
 147:.\Include/arm_math.h ****    * CMSIS-DSP in ARM::CMSIS Pack
 148:.\Include/arm_math.h ****    * -----------------------------
 149:.\Include/arm_math.h ****    *
 150:.\Include/arm_math.h ****    * The following files relevant to CMSIS-DSP are present in the <b>ARM::CMSIS</b> Pack directorie
 151:.\Include/arm_math.h ****    * |File/Folder                   |Content                                                       
 152:.\Include/arm_math.h ****    * |------------------------------|--------------------------------------------------------------
 153:.\Include/arm_math.h ****    * |\b CMSIS\\Documentation\\DSP  | This documentation                                           
 154:.\Include/arm_math.h ****    * |\b CMSIS\\DSP_Lib             | Software license agreement (license.txt)                     
 155:.\Include/arm_math.h ****    * |\b CMSIS\\DSP_Lib\\Examples   | Example projects demonstrating the usage of the library funct
 156:.\Include/arm_math.h ****    * |\b CMSIS\\DSP_Lib\\Source     | Source files for rebuilding the library                      
 157:.\Include/arm_math.h ****    *
 158:.\Include/arm_math.h ****    * <hr>
 159:.\Include/arm_math.h ****    * Revision History of CMSIS-DSP
 160:.\Include/arm_math.h ****    * ------------
 161:.\Include/arm_math.h ****    * Please refer to \ref ChangeLog_pg.
 162:.\Include/arm_math.h ****    *
 163:.\Include/arm_math.h ****    * Copyright Notice
 164:.\Include/arm_math.h ****    * ------------
 165:.\Include/arm_math.h ****    *
 166:.\Include/arm_math.h ****    * Copyright (C) 2010-2015 ARM Limited. All rights reserved.
 167:.\Include/arm_math.h ****    */
 168:.\Include/arm_math.h **** 
 169:.\Include/arm_math.h **** 
 170:.\Include/arm_math.h **** /**
 171:.\Include/arm_math.h ****  * @defgroup groupMath Basic Math Functions
 172:.\Include/arm_math.h ****  */
 173:.\Include/arm_math.h **** 
 174:.\Include/arm_math.h **** /**
ARM GAS  C:\Users\fneves\AppData\Local\Temp\ccFjPd1E.s 			page 24


 175:.\Include/arm_math.h ****  * @defgroup groupFastMath Fast Math Functions
 176:.\Include/arm_math.h ****  * This set of functions provides a fast approximation to sine, cosine, and square root.
 177:.\Include/arm_math.h ****  * As compared to most of the other functions in the CMSIS math library, the fast math functions
 178:.\Include/arm_math.h ****  * operate on individual values and not arrays.
 179:.\Include/arm_math.h ****  * There are separate functions for Q15, Q31, and floating-point data.
 180:.\Include/arm_math.h ****  *
 181:.\Include/arm_math.h ****  */
 182:.\Include/arm_math.h **** 
 183:.\Include/arm_math.h **** /**
 184:.\Include/arm_math.h ****  * @defgroup groupCmplxMath Complex Math Functions
 185:.\Include/arm_math.h ****  * This set of functions operates on complex data vectors.
 186:.\Include/arm_math.h ****  * The data in the complex arrays is stored in an interleaved fashion
 187:.\Include/arm_math.h ****  * (real, imag, real, imag, ...).
 188:.\Include/arm_math.h ****  * In the API functions, the number of samples in a complex array refers
 189:.\Include/arm_math.h ****  * to the number of complex values; the array contains twice this number of
 190:.\Include/arm_math.h ****  * real values.
 191:.\Include/arm_math.h ****  */
 192:.\Include/arm_math.h **** 
 193:.\Include/arm_math.h **** /**
 194:.\Include/arm_math.h ****  * @defgroup groupFilters Filtering Functions
 195:.\Include/arm_math.h ****  */
 196:.\Include/arm_math.h **** 
 197:.\Include/arm_math.h **** /**
 198:.\Include/arm_math.h ****  * @defgroup groupMatrix Matrix Functions
 199:.\Include/arm_math.h ****  *
 200:.\Include/arm_math.h ****  * This set of functions provides basic matrix math operations.
 201:.\Include/arm_math.h ****  * The functions operate on matrix data structures.  For example,
 202:.\Include/arm_math.h ****  * the type
 203:.\Include/arm_math.h ****  * definition for the floating-point matrix structure is shown
 204:.\Include/arm_math.h ****  * below:
 205:.\Include/arm_math.h ****  * <pre>
 206:.\Include/arm_math.h ****  *     typedef struct
 207:.\Include/arm_math.h ****  *     {
 208:.\Include/arm_math.h ****  *       uint16_t numRows;     // number of rows of the matrix.
 209:.\Include/arm_math.h ****  *       uint16_t numCols;     // number of columns of the matrix.
 210:.\Include/arm_math.h ****  *       float32_t *pData;     // points to the data of the matrix.
 211:.\Include/arm_math.h ****  *     } arm_matrix_instance_f32;
 212:.\Include/arm_math.h ****  * </pre>
 213:.\Include/arm_math.h ****  * There are similar definitions for Q15 and Q31 data types.
 214:.\Include/arm_math.h ****  *
 215:.\Include/arm_math.h ****  * The structure specifies the size of the matrix and then points to
 216:.\Include/arm_math.h ****  * an array of data.  The array is of size <code>numRows X numCols</code>
 217:.\Include/arm_math.h ****  * and the values are arranged in row order.  That is, the
 218:.\Include/arm_math.h ****  * matrix element (i, j) is stored at:
 219:.\Include/arm_math.h ****  * <pre>
 220:.\Include/arm_math.h ****  *     pData[i*numCols + j]
 221:.\Include/arm_math.h ****  * </pre>
 222:.\Include/arm_math.h ****  *
 223:.\Include/arm_math.h ****  * \par Init Functions
 224:.\Include/arm_math.h ****  * There is an associated initialization function for each type of matrix
 225:.\Include/arm_math.h ****  * data structure.
 226:.\Include/arm_math.h ****  * The initialization function sets the values of the internal structure fields.
 227:.\Include/arm_math.h ****  * Refer to the function <code>arm_mat_init_f32()</code>, <code>arm_mat_init_q31()</code>
 228:.\Include/arm_math.h ****  * and <code>arm_mat_init_q15()</code> for floating-point, Q31 and Q15 types,  respectively.
 229:.\Include/arm_math.h ****  *
 230:.\Include/arm_math.h ****  * \par
 231:.\Include/arm_math.h ****  * Use of the initialization function is optional. However, if initialization function is used
ARM GAS  C:\Users\fneves\AppData\Local\Temp\ccFjPd1E.s 			page 25


 232:.\Include/arm_math.h ****  * then the instance structure cannot be placed into a const data section.
 233:.\Include/arm_math.h ****  * To place the instance structure in a const data
 234:.\Include/arm_math.h ****  * section, manually initialize the data structure.  For example:
 235:.\Include/arm_math.h ****  * <pre>
 236:.\Include/arm_math.h ****  * <code>arm_matrix_instance_f32 S = {nRows, nColumns, pData};</code>
 237:.\Include/arm_math.h ****  * <code>arm_matrix_instance_q31 S = {nRows, nColumns, pData};</code>
 238:.\Include/arm_math.h ****  * <code>arm_matrix_instance_q15 S = {nRows, nColumns, pData};</code>
 239:.\Include/arm_math.h ****  * </pre>
 240:.\Include/arm_math.h ****  * where <code>nRows</code> specifies the number of rows, <code>nColumns</code>
 241:.\Include/arm_math.h ****  * specifies the number of columns, and <code>pData</code> points to the
 242:.\Include/arm_math.h ****  * data array.
 243:.\Include/arm_math.h ****  *
 244:.\Include/arm_math.h ****  * \par Size Checking
 245:.\Include/arm_math.h ****  * By default all of the matrix functions perform size checking on the input and
 246:.\Include/arm_math.h ****  * output matrices.  For example, the matrix addition function verifies that the
 247:.\Include/arm_math.h ****  * two input matrices and the output matrix all have the same number of rows and
 248:.\Include/arm_math.h ****  * columns.  If the size check fails the functions return:
 249:.\Include/arm_math.h ****  * <pre>
 250:.\Include/arm_math.h ****  *     ARM_MATH_SIZE_MISMATCH
 251:.\Include/arm_math.h ****  * </pre>
 252:.\Include/arm_math.h ****  * Otherwise the functions return
 253:.\Include/arm_math.h ****  * <pre>
 254:.\Include/arm_math.h ****  *     ARM_MATH_SUCCESS
 255:.\Include/arm_math.h ****  * </pre>
 256:.\Include/arm_math.h ****  * There is some overhead associated with this matrix size checking.
 257:.\Include/arm_math.h ****  * The matrix size checking is enabled via the \#define
 258:.\Include/arm_math.h ****  * <pre>
 259:.\Include/arm_math.h ****  *     ARM_MATH_MATRIX_CHECK
 260:.\Include/arm_math.h ****  * </pre>
 261:.\Include/arm_math.h ****  * within the library project settings.  By default this macro is defined
 262:.\Include/arm_math.h ****  * and size checking is enabled.  By changing the project settings and
 263:.\Include/arm_math.h ****  * undefining this macro size checking is eliminated and the functions
 264:.\Include/arm_math.h ****  * run a bit faster.  With size checking disabled the functions always
 265:.\Include/arm_math.h ****  * return <code>ARM_MATH_SUCCESS</code>.
 266:.\Include/arm_math.h ****  */
 267:.\Include/arm_math.h **** 
 268:.\Include/arm_math.h **** /**
 269:.\Include/arm_math.h ****  * @defgroup groupTransforms Transform Functions
 270:.\Include/arm_math.h ****  */
 271:.\Include/arm_math.h **** 
 272:.\Include/arm_math.h **** /**
 273:.\Include/arm_math.h ****  * @defgroup groupController Controller Functions
 274:.\Include/arm_math.h ****  */
 275:.\Include/arm_math.h **** 
 276:.\Include/arm_math.h **** /**
 277:.\Include/arm_math.h ****  * @defgroup groupStats Statistics Functions
 278:.\Include/arm_math.h ****  */
 279:.\Include/arm_math.h **** /**
 280:.\Include/arm_math.h ****  * @defgroup groupSupport Support Functions
 281:.\Include/arm_math.h ****  */
 282:.\Include/arm_math.h **** 
 283:.\Include/arm_math.h **** /**
 284:.\Include/arm_math.h ****  * @defgroup groupInterpolation Interpolation Functions
 285:.\Include/arm_math.h ****  * These functions perform 1- and 2-dimensional interpolation of data.
 286:.\Include/arm_math.h ****  * Linear interpolation is used for 1-dimensional data and
 287:.\Include/arm_math.h ****  * bilinear interpolation is used for 2-dimensional data.
 288:.\Include/arm_math.h ****  */
ARM GAS  C:\Users\fneves\AppData\Local\Temp\ccFjPd1E.s 			page 26


 289:.\Include/arm_math.h **** 
 290:.\Include/arm_math.h **** /**
 291:.\Include/arm_math.h ****  * @defgroup groupExamples Examples
 292:.\Include/arm_math.h ****  */
 293:.\Include/arm_math.h **** #ifndef _ARM_MATH_H
 294:.\Include/arm_math.h **** #define _ARM_MATH_H
 295:.\Include/arm_math.h **** 
 296:.\Include/arm_math.h **** /* ignore some GCC warnings */
 297:.\Include/arm_math.h **** #if defined ( __GNUC__ )
 298:.\Include/arm_math.h **** #pragma GCC diagnostic push
 299:.\Include/arm_math.h **** #pragma GCC diagnostic ignored "-Wsign-conversion"
 300:.\Include/arm_math.h **** #pragma GCC diagnostic ignored "-Wconversion"
 301:.\Include/arm_math.h **** #pragma GCC diagnostic ignored "-Wunused-parameter"
 302:.\Include/arm_math.h **** #endif
 303:.\Include/arm_math.h **** 
 304:.\Include/arm_math.h **** #define __CMSIS_GENERIC         /* disable NVIC and Systick functions */
 305:.\Include/arm_math.h **** 
 306:.\Include/arm_math.h **** #if defined(ARM_MATH_CM7)
 307:.\Include/arm_math.h ****   #include "core_cm7.h"
 308:.\Include/arm_math.h ****   #define ARM_MATH_DSP
 309:.\Include/arm_math.h **** #elif defined (ARM_MATH_CM4)
 310:.\Include/arm_math.h ****   #include "core_cm4.h"
 311:.\Include/arm_math.h ****   #define ARM_MATH_DSP
 312:.\Include/arm_math.h **** #elif defined (ARM_MATH_CM3)
 313:.\Include/arm_math.h ****   #include "core_cm3.h"
 314:.\Include/arm_math.h **** #elif defined (ARM_MATH_CM0)
 315:.\Include/arm_math.h ****   #include "core_cm0.h"
 316:.\Include/arm_math.h ****   #define ARM_MATH_CM0_FAMILY
 317:.\Include/arm_math.h **** #elif defined (ARM_MATH_CM0PLUS)
 318:.\Include/arm_math.h ****   #include "core_cm0plus.h"
 319:.\Include/arm_math.h ****   #define ARM_MATH_CM0_FAMILY
 320:.\Include/arm_math.h **** #elif defined (ARM_MATH_ARMV8MBL)
 321:.\Include/arm_math.h ****   #include "core_armv8mbl.h"
 322:.\Include/arm_math.h ****   #define ARM_MATH_CM0_FAMILY
 323:.\Include/arm_math.h **** #elif defined (ARM_MATH_ARMV8MML)
 324:.\Include/arm_math.h ****   #include "core_armv8mml.h"
 325:.\Include/arm_math.h ****   #if (defined (__DSP_PRESENT) && (__DSP_PRESENT == 1))
 326:.\Include/arm_math.h ****     #define ARM_MATH_DSP
 327:.\Include/arm_math.h ****   #endif
 328:.\Include/arm_math.h **** #else
 329:.\Include/arm_math.h ****   #error "Define according the used Cortex core ARM_MATH_CM7, ARM_MATH_CM4, ARM_MATH_CM3, ARM_MATH_
 330:.\Include/arm_math.h **** #endif
 331:.\Include/arm_math.h **** 
 332:.\Include/arm_math.h **** #undef  __CMSIS_GENERIC         /* enable NVIC and Systick functions */
 333:.\Include/arm_math.h **** #include "string.h"
 334:.\Include/arm_math.h **** #include "math.h"
 335:.\Include/arm_math.h **** #ifdef   __cplusplus
 336:.\Include/arm_math.h **** extern "C"
 337:.\Include/arm_math.h **** {
 338:.\Include/arm_math.h **** #endif
 339:.\Include/arm_math.h **** 
 340:.\Include/arm_math.h **** 
 341:.\Include/arm_math.h ****   /**
 342:.\Include/arm_math.h ****    * @brief Macros required for reciprocal calculation in Normalized LMS
 343:.\Include/arm_math.h ****    */
 344:.\Include/arm_math.h **** 
 345:.\Include/arm_math.h **** #define DELTA_Q31          (0x100)
ARM GAS  C:\Users\fneves\AppData\Local\Temp\ccFjPd1E.s 			page 27


 346:.\Include/arm_math.h **** #define DELTA_Q15          0x5
 347:.\Include/arm_math.h **** #define INDEX_MASK         0x0000003F
 348:.\Include/arm_math.h **** #ifndef PI
 349:.\Include/arm_math.h ****   #define PI               3.14159265358979f
 350:.\Include/arm_math.h **** #endif
 351:.\Include/arm_math.h **** 
 352:.\Include/arm_math.h ****   /**
 353:.\Include/arm_math.h ****    * @brief Macros required for SINE and COSINE Fast math approximations
 354:.\Include/arm_math.h ****    */
 355:.\Include/arm_math.h **** 
 356:.\Include/arm_math.h **** #define FAST_MATH_TABLE_SIZE  512
 357:.\Include/arm_math.h **** #define FAST_MATH_Q31_SHIFT   (32 - 10)
 358:.\Include/arm_math.h **** #define FAST_MATH_Q15_SHIFT   (16 - 10)
 359:.\Include/arm_math.h **** #define CONTROLLER_Q31_SHIFT  (32 - 9)
 360:.\Include/arm_math.h **** #define TABLE_SPACING_Q31     0x400000
 361:.\Include/arm_math.h **** #define TABLE_SPACING_Q15     0x80
 362:.\Include/arm_math.h **** 
 363:.\Include/arm_math.h ****   /**
 364:.\Include/arm_math.h ****    * @brief Macros required for SINE and COSINE Controller functions
 365:.\Include/arm_math.h ****    */
 366:.\Include/arm_math.h ****   /* 1.31(q31) Fixed value of 2/360 */
 367:.\Include/arm_math.h ****   /* -1 to +1 is divided into 360 values so total spacing is (2/360) */
 368:.\Include/arm_math.h **** #define INPUT_SPACING         0xB60B61
 369:.\Include/arm_math.h **** 
 370:.\Include/arm_math.h ****   /**
 371:.\Include/arm_math.h ****    * @brief Macro for Unaligned Support
 372:.\Include/arm_math.h ****    */
 373:.\Include/arm_math.h **** #ifndef UNALIGNED_SUPPORT_DISABLE
 374:.\Include/arm_math.h ****     #define ALIGN4
 375:.\Include/arm_math.h **** #else
 376:.\Include/arm_math.h ****   #if defined  (__GNUC__)
 377:.\Include/arm_math.h ****     #define ALIGN4 __attribute__((aligned(4)))
 378:.\Include/arm_math.h ****   #else
 379:.\Include/arm_math.h ****     #define ALIGN4 __align(4)
 380:.\Include/arm_math.h ****   #endif
 381:.\Include/arm_math.h **** #endif   /* #ifndef UNALIGNED_SUPPORT_DISABLE */
 382:.\Include/arm_math.h **** 
 383:.\Include/arm_math.h ****   /**
 384:.\Include/arm_math.h ****    * @brief Error status returned by some functions in the library.
 385:.\Include/arm_math.h ****    */
 386:.\Include/arm_math.h **** 
 387:.\Include/arm_math.h ****   typedef enum
 388:.\Include/arm_math.h ****   {
 389:.\Include/arm_math.h ****     ARM_MATH_SUCCESS = 0,                /**< No error */
 390:.\Include/arm_math.h ****     ARM_MATH_ARGUMENT_ERROR = -1,        /**< One or more arguments are incorrect */
 391:.\Include/arm_math.h ****     ARM_MATH_LENGTH_ERROR = -2,          /**< Length of data buffer is incorrect */
 392:.\Include/arm_math.h ****     ARM_MATH_SIZE_MISMATCH = -3,         /**< Size of matrices is not compatible with the operation
 393:.\Include/arm_math.h ****     ARM_MATH_NANINF = -4,                /**< Not-a-number (NaN) or infinity is generated */
 394:.\Include/arm_math.h ****     ARM_MATH_SINGULAR = -5,              /**< Generated by matrix inversion if the input matrix is 
 395:.\Include/arm_math.h ****     ARM_MATH_TEST_FAILURE = -6           /**< Test Failed  */
 396:.\Include/arm_math.h ****   } arm_status;
 397:.\Include/arm_math.h **** 
 398:.\Include/arm_math.h ****   /**
 399:.\Include/arm_math.h ****    * @brief 8-bit fractional data type in 1.7 format.
 400:.\Include/arm_math.h ****    */
 401:.\Include/arm_math.h ****   typedef int8_t q7_t;
 402:.\Include/arm_math.h **** 
ARM GAS  C:\Users\fneves\AppData\Local\Temp\ccFjPd1E.s 			page 28


 403:.\Include/arm_math.h ****   /**
 404:.\Include/arm_math.h ****    * @brief 16-bit fractional data type in 1.15 format.
 405:.\Include/arm_math.h ****    */
 406:.\Include/arm_math.h ****   typedef int16_t q15_t;
 407:.\Include/arm_math.h **** 
 408:.\Include/arm_math.h ****   /**
 409:.\Include/arm_math.h ****    * @brief 32-bit fractional data type in 1.31 format.
 410:.\Include/arm_math.h ****    */
 411:.\Include/arm_math.h ****   typedef int32_t q31_t;
 412:.\Include/arm_math.h **** 
 413:.\Include/arm_math.h ****   /**
 414:.\Include/arm_math.h ****    * @brief 64-bit fractional data type in 1.63 format.
 415:.\Include/arm_math.h ****    */
 416:.\Include/arm_math.h ****   typedef int64_t q63_t;
 417:.\Include/arm_math.h **** 
 418:.\Include/arm_math.h ****   /**
 419:.\Include/arm_math.h ****    * @brief 32-bit floating-point type definition.
 420:.\Include/arm_math.h ****    */
 421:.\Include/arm_math.h ****   typedef float float32_t;
 422:.\Include/arm_math.h **** 
 423:.\Include/arm_math.h ****   /**
 424:.\Include/arm_math.h ****    * @brief 64-bit floating-point type definition.
 425:.\Include/arm_math.h ****    */
 426:.\Include/arm_math.h ****   typedef double float64_t;
 427:.\Include/arm_math.h **** 
 428:.\Include/arm_math.h ****   /**
 429:.\Include/arm_math.h ****    * @brief definition to read/write two 16 bit values.
 430:.\Include/arm_math.h ****    */
 431:.\Include/arm_math.h **** #if   defined ( __CC_ARM )
 432:.\Include/arm_math.h ****   #define __SIMD32_TYPE int32_t __packed
 433:.\Include/arm_math.h ****   #define CMSIS_UNUSED __attribute__((unused))
 434:.\Include/arm_math.h ****   #define CMSIS_INLINE __attribute__((always_inline))
 435:.\Include/arm_math.h **** 
 436:.\Include/arm_math.h **** #elif defined ( __ARMCC_VERSION ) && ( __ARMCC_VERSION >= 6010050 )
 437:.\Include/arm_math.h ****   #define __SIMD32_TYPE int32_t
 438:.\Include/arm_math.h ****   #define CMSIS_UNUSED __attribute__((unused))
 439:.\Include/arm_math.h ****   #define CMSIS_INLINE __attribute__((always_inline))
 440:.\Include/arm_math.h **** 
 441:.\Include/arm_math.h **** #elif defined ( __GNUC__ )
 442:.\Include/arm_math.h ****   #define __SIMD32_TYPE int32_t
 443:.\Include/arm_math.h ****   #define CMSIS_UNUSED __attribute__((unused))
 444:.\Include/arm_math.h ****   #define CMSIS_INLINE __attribute__((always_inline))
 445:.\Include/arm_math.h **** 
 446:.\Include/arm_math.h **** #elif defined ( __ICCARM__ )
 447:.\Include/arm_math.h ****   #define __SIMD32_TYPE int32_t __packed
 448:.\Include/arm_math.h ****   #define CMSIS_UNUSED
 449:.\Include/arm_math.h ****   #define CMSIS_INLINE
 450:.\Include/arm_math.h **** 
 451:.\Include/arm_math.h **** #elif defined ( __TI_ARM__ )
 452:.\Include/arm_math.h ****   #define __SIMD32_TYPE int32_t
 453:.\Include/arm_math.h ****   #define CMSIS_UNUSED __attribute__((unused))
 454:.\Include/arm_math.h ****   #define CMSIS_INLINE
 455:.\Include/arm_math.h **** 
 456:.\Include/arm_math.h **** #elif defined ( __CSMC__ )
 457:.\Include/arm_math.h ****   #define __SIMD32_TYPE int32_t
 458:.\Include/arm_math.h ****   #define CMSIS_UNUSED
 459:.\Include/arm_math.h ****   #define CMSIS_INLINE
ARM GAS  C:\Users\fneves\AppData\Local\Temp\ccFjPd1E.s 			page 29


 460:.\Include/arm_math.h **** 
 461:.\Include/arm_math.h **** #elif defined ( __TASKING__ )
 462:.\Include/arm_math.h ****   #define __SIMD32_TYPE __unaligned int32_t
 463:.\Include/arm_math.h ****   #define CMSIS_UNUSED
 464:.\Include/arm_math.h ****   #define CMSIS_INLINE
 465:.\Include/arm_math.h **** 
 466:.\Include/arm_math.h **** #else
 467:.\Include/arm_math.h ****   #error Unknown compiler
 468:.\Include/arm_math.h **** #endif
 469:.\Include/arm_math.h **** 
 470:.\Include/arm_math.h **** #define __SIMD32(addr)        (*(__SIMD32_TYPE **) & (addr))
 471:.\Include/arm_math.h **** #define __SIMD32_CONST(addr)  ((__SIMD32_TYPE *)(addr))
 472:.\Include/arm_math.h **** #define _SIMD32_OFFSET(addr)  (*(__SIMD32_TYPE *)  (addr))
 473:.\Include/arm_math.h **** #define __SIMD64(addr)        (*(int64_t **) & (addr))
 474:.\Include/arm_math.h **** 
 475:.\Include/arm_math.h **** /* #if defined (ARM_MATH_CM3) || defined (ARM_MATH_CM0_FAMILY) */
 476:.\Include/arm_math.h **** #if !defined (ARM_MATH_DSP)
 477:.\Include/arm_math.h ****   /**
 478:.\Include/arm_math.h ****    * @brief definition to pack two 16 bit values.
 479:.\Include/arm_math.h ****    */
 480:.\Include/arm_math.h **** #define __PKHBT(ARG1, ARG2, ARG3) ( (((int32_t)(ARG1) <<    0) & (int32_t)0x0000FFFF) | \
 481:.\Include/arm_math.h ****                                     (((int32_t)(ARG2) << ARG3) & (int32_t)0xFFFF0000)  )
 482:.\Include/arm_math.h **** #define __PKHTB(ARG1, ARG2, ARG3) ( (((int32_t)(ARG1) <<    0) & (int32_t)0xFFFF0000) | \
 483:.\Include/arm_math.h ****                                     (((int32_t)(ARG2) >> ARG3) & (int32_t)0x0000FFFF)  )
 484:.\Include/arm_math.h **** 
 485:.\Include/arm_math.h **** /* #endif // defined (ARM_MATH_CM3) || defined (ARM_MATH_CM0_FAMILY) */
 486:.\Include/arm_math.h **** #endif /* !defined (ARM_MATH_DSP) */
 487:.\Include/arm_math.h **** 
 488:.\Include/arm_math.h ****    /**
 489:.\Include/arm_math.h ****    * @brief definition to pack four 8 bit values.
 490:.\Include/arm_math.h ****    */
 491:.\Include/arm_math.h **** #ifndef ARM_MATH_BIG_ENDIAN
 492:.\Include/arm_math.h **** 
 493:.\Include/arm_math.h **** #define __PACKq7(v0,v1,v2,v3) ( (((int32_t)(v0) <<  0) & (int32_t)0x000000FF) | \
 494:.\Include/arm_math.h ****                                 (((int32_t)(v1) <<  8) & (int32_t)0x0000FF00) | \
 495:.\Include/arm_math.h ****                                 (((int32_t)(v2) << 16) & (int32_t)0x00FF0000) | \
 496:.\Include/arm_math.h ****                                 (((int32_t)(v3) << 24) & (int32_t)0xFF000000)  )
 497:.\Include/arm_math.h **** #else
 498:.\Include/arm_math.h **** 
 499:.\Include/arm_math.h **** #define __PACKq7(v0,v1,v2,v3) ( (((int32_t)(v3) <<  0) & (int32_t)0x000000FF) | \
 500:.\Include/arm_math.h ****                                 (((int32_t)(v2) <<  8) & (int32_t)0x0000FF00) | \
 501:.\Include/arm_math.h ****                                 (((int32_t)(v1) << 16) & (int32_t)0x00FF0000) | \
 502:.\Include/arm_math.h ****                                 (((int32_t)(v0) << 24) & (int32_t)0xFF000000)  )
 503:.\Include/arm_math.h **** 
 504:.\Include/arm_math.h **** #endif
 505:.\Include/arm_math.h **** 
 506:.\Include/arm_math.h **** 
 507:.\Include/arm_math.h ****   /**
 508:.\Include/arm_math.h ****    * @brief Clips Q63 to Q31 values.
 509:.\Include/arm_math.h ****    */
 510:.\Include/arm_math.h ****   CMSIS_INLINE __STATIC_INLINE q31_t clip_q63_to_q31(
 511:.\Include/arm_math.h ****   q63_t x)
 512:.\Include/arm_math.h ****   {
 513:.\Include/arm_math.h ****     return ((q31_t) (x >> 32) != ((q31_t) x >> 31)) ?
 514:.\Include/arm_math.h ****       ((0x7FFFFFFF ^ ((q31_t) (x >> 63)))) : (q31_t) x;
 515:.\Include/arm_math.h ****   }
 516:.\Include/arm_math.h **** 
ARM GAS  C:\Users\fneves\AppData\Local\Temp\ccFjPd1E.s 			page 30


 517:.\Include/arm_math.h ****   /**
 518:.\Include/arm_math.h ****    * @brief Clips Q63 to Q15 values.
 519:.\Include/arm_math.h ****    */
 520:.\Include/arm_math.h ****   CMSIS_INLINE __STATIC_INLINE q15_t clip_q63_to_q15(
 521:.\Include/arm_math.h ****   q63_t x)
 522:.\Include/arm_math.h ****   {
 523:.\Include/arm_math.h ****     return ((q31_t) (x >> 32) != ((q31_t) x >> 31)) ?
 524:.\Include/arm_math.h ****       ((0x7FFF ^ ((q15_t) (x >> 63)))) : (q15_t) (x >> 15);
 525:.\Include/arm_math.h ****   }
 526:.\Include/arm_math.h **** 
 527:.\Include/arm_math.h ****   /**
 528:.\Include/arm_math.h ****    * @brief Clips Q31 to Q7 values.
 529:.\Include/arm_math.h ****    */
 530:.\Include/arm_math.h ****   CMSIS_INLINE __STATIC_INLINE q7_t clip_q31_to_q7(
 531:.\Include/arm_math.h ****   q31_t x)
 532:.\Include/arm_math.h ****   {
 533:.\Include/arm_math.h ****     return ((q31_t) (x >> 24) != ((q31_t) x >> 23)) ?
 534:.\Include/arm_math.h ****       ((0x7F ^ ((q7_t) (x >> 31)))) : (q7_t) x;
 535:.\Include/arm_math.h ****   }
 536:.\Include/arm_math.h **** 
 537:.\Include/arm_math.h ****   /**
 538:.\Include/arm_math.h ****    * @brief Clips Q31 to Q15 values.
 539:.\Include/arm_math.h ****    */
 540:.\Include/arm_math.h ****   CMSIS_INLINE __STATIC_INLINE q15_t clip_q31_to_q15(
 541:.\Include/arm_math.h ****   q31_t x)
 542:.\Include/arm_math.h ****   {
 543:.\Include/arm_math.h ****     return ((q31_t) (x >> 16) != ((q31_t) x >> 15)) ?
 544:.\Include/arm_math.h ****       ((0x7FFF ^ ((q15_t) (x >> 31)))) : (q15_t) x;
 545:.\Include/arm_math.h ****   }
 546:.\Include/arm_math.h **** 
 547:.\Include/arm_math.h ****   /**
 548:.\Include/arm_math.h ****    * @brief Multiplies 32 X 64 and returns 32 bit result in 2.30 format.
 549:.\Include/arm_math.h ****    */
 550:.\Include/arm_math.h **** 
 551:.\Include/arm_math.h ****   CMSIS_INLINE __STATIC_INLINE q63_t mult32x64(
 552:.\Include/arm_math.h ****   q63_t x,
 553:.\Include/arm_math.h ****   q31_t y)
 554:.\Include/arm_math.h ****   {
 555:.\Include/arm_math.h ****     return ((((q63_t) (x & 0x00000000FFFFFFFF) * y) >> 32) +
 556:.\Include/arm_math.h ****             (((q63_t) (x >> 32) * y)));
 557:.\Include/arm_math.h ****   }
 558:.\Include/arm_math.h **** 
 559:.\Include/arm_math.h **** /*
 560:.\Include/arm_math.h ****   #if defined (ARM_MATH_CM0_FAMILY) && defined ( __CC_ARM   )
 561:.\Include/arm_math.h ****   #define __CLZ __clz
 562:.\Include/arm_math.h ****   #endif
 563:.\Include/arm_math.h ****  */
 564:.\Include/arm_math.h **** /* note: function can be removed when all toolchain support __CLZ for Cortex-M0 */
 565:.\Include/arm_math.h **** #if defined (ARM_MATH_CM0_FAMILY) && ((defined (__ICCARM__))  )
 566:.\Include/arm_math.h ****   CMSIS_INLINE __STATIC_INLINE uint32_t __CLZ(
 567:.\Include/arm_math.h ****   q31_t data);
 568:.\Include/arm_math.h **** 
 569:.\Include/arm_math.h ****   CMSIS_INLINE __STATIC_INLINE uint32_t __CLZ(
 570:.\Include/arm_math.h ****   q31_t data)
 571:.\Include/arm_math.h ****   {
 572:.\Include/arm_math.h ****     uint32_t count = 0;
 573:.\Include/arm_math.h ****     uint32_t mask = 0x80000000;
ARM GAS  C:\Users\fneves\AppData\Local\Temp\ccFjPd1E.s 			page 31


 574:.\Include/arm_math.h **** 
 575:.\Include/arm_math.h ****     while ((data & mask) == 0)
 576:.\Include/arm_math.h ****     {
 577:.\Include/arm_math.h ****       count += 1u;
 578:.\Include/arm_math.h ****       mask = mask >> 1u;
 579:.\Include/arm_math.h ****     }
 580:.\Include/arm_math.h **** 
 581:.\Include/arm_math.h ****     return (count);
 582:.\Include/arm_math.h ****   }
 583:.\Include/arm_math.h **** #endif
 584:.\Include/arm_math.h **** 
 585:.\Include/arm_math.h ****   /**
 586:.\Include/arm_math.h ****    * @brief Function to Calculates 1/in (reciprocal) value of Q31 Data type.
 587:.\Include/arm_math.h ****    */
 588:.\Include/arm_math.h **** 
 589:.\Include/arm_math.h ****   CMSIS_INLINE __STATIC_INLINE uint32_t arm_recip_q31(
 590:.\Include/arm_math.h ****   q31_t in,
 591:.\Include/arm_math.h ****   q31_t * dst,
 592:.\Include/arm_math.h ****   q31_t * pRecipTable)
 593:.\Include/arm_math.h ****   {
 594:.\Include/arm_math.h ****     q31_t out;
 595:.\Include/arm_math.h ****     uint32_t tempVal;
 596:.\Include/arm_math.h ****     uint32_t index, i;
 597:.\Include/arm_math.h ****     uint32_t signBits;
 598:.\Include/arm_math.h **** 
 599:.\Include/arm_math.h ****     if (in > 0)
 787              		.loc 2 599 0
 788 058e AC23     		mov	r3, #172
 789 0590 5B00     		lsl	r3, r3, #1
 790 0592 FB18     		add	r3, r7, r3
 791 0594 1B68     		ldr	r3, [r3]
 792 0596 002B     		cmp	r3, #0
 793 0598 0DDD     		ble	.L5
 600:.\Include/arm_math.h ****     {
 601:.\Include/arm_math.h ****       signBits = ((uint32_t) (__CLZ( in) - 1));
 794              		.loc 2 601 0
 795 059a AC23     		mov	r3, #172
 796 059c 5B00     		lsl	r3, r3, #1
 797 059e FB18     		add	r3, r7, r3
 798 05a0 1B68     		ldr	r3, [r3]
 799 05a2 181C     		mov	r0, r3
 800 05a4 FFF7FEFF 		bl	__clzsi2
 801 05a8 031C     		mov	r3, r0
 802 05aa 013B     		sub	r3, r3, #1
 803 05ac A622     		mov	r2, #166
 804 05ae 5200     		lsl	r2, r2, #1
 805 05b0 BA18     		add	r2, r7, r2
 806 05b2 1360     		str	r3, [r2]
 807 05b4 0DE0     		b	.L6
 808              	.L5:
 602:.\Include/arm_math.h ****     }
 603:.\Include/arm_math.h ****     else
 604:.\Include/arm_math.h ****     {
 605:.\Include/arm_math.h ****       signBits = ((uint32_t) (__CLZ(-in) - 1));
 809              		.loc 2 605 0
 810 05b6 AC23     		mov	r3, #172
 811 05b8 5B00     		lsl	r3, r3, #1
ARM GAS  C:\Users\fneves\AppData\Local\Temp\ccFjPd1E.s 			page 32


 812 05ba FB18     		add	r3, r7, r3
 813 05bc 1B68     		ldr	r3, [r3]
 814 05be 5B42     		neg	r3, r3
 815 05c0 181C     		mov	r0, r3
 816 05c2 FFF7FEFF 		bl	__clzsi2
 817 05c6 031C     		mov	r3, r0
 818 05c8 013B     		sub	r3, r3, #1
 819 05ca A622     		mov	r2, #166
 820 05cc 5200     		lsl	r2, r2, #1
 821 05ce BA18     		add	r2, r7, r2
 822 05d0 1360     		str	r3, [r2]
 823              	.L6:
 606:.\Include/arm_math.h ****     }
 607:.\Include/arm_math.h **** 
 608:.\Include/arm_math.h ****     /* Convert input sample to 1.31 format */
 609:.\Include/arm_math.h ****     in = (in << signBits);
 824              		.loc 2 609 0
 825 05d2 A623     		mov	r3, #166
 826 05d4 5B00     		lsl	r3, r3, #1
 827 05d6 FB18     		add	r3, r7, r3
 828 05d8 1A68     		ldr	r2, [r3]
 829 05da AC23     		mov	r3, #172
 830 05dc 5B00     		lsl	r3, r3, #1
 831 05de FB18     		add	r3, r7, r3
 832 05e0 1B68     		ldr	r3, [r3]
 833 05e2 9340     		lsl	r3, r3, r2
 834 05e4 AC22     		mov	r2, #172
 835 05e6 5200     		lsl	r2, r2, #1
 836 05e8 BA18     		add	r2, r7, r2
 837 05ea 1360     		str	r3, [r2]
 610:.\Include/arm_math.h **** 
 611:.\Include/arm_math.h ****     /* calculation of index for initial approximated Val */
 612:.\Include/arm_math.h ****     index = (uint32_t)(in >> 24);
 838              		.loc 2 612 0
 839 05ec AC23     		mov	r3, #172
 840 05ee 5B00     		lsl	r3, r3, #1
 841 05f0 FB18     		add	r3, r7, r3
 842 05f2 1B68     		ldr	r3, [r3]
 843 05f4 1B16     		asr	r3, r3, #24
 844 05f6 A422     		mov	r2, #164
 845 05f8 5200     		lsl	r2, r2, #1
 846 05fa BA18     		add	r2, r7, r2
 847 05fc 1360     		str	r3, [r2]
 613:.\Include/arm_math.h ****     index = (index & INDEX_MASK);
 848              		.loc 2 613 0
 849 05fe A423     		mov	r3, #164
 850 0600 5B00     		lsl	r3, r3, #1
 851 0602 FB18     		add	r3, r7, r3
 852 0604 1A68     		ldr	r2, [r3]
 853 0606 3F23     		mov	r3, #63
 854 0608 1340     		and	r3, r2
 855 060a A422     		mov	r2, #164
 856 060c 5200     		lsl	r2, r2, #1
 857 060e BA18     		add	r2, r7, r2
 858 0610 1360     		str	r3, [r2]
 614:.\Include/arm_math.h **** 
 615:.\Include/arm_math.h ****     /* 1.31 with exp 1 */
ARM GAS  C:\Users\fneves\AppData\Local\Temp\ccFjPd1E.s 			page 33


 616:.\Include/arm_math.h ****     out = pRecipTable[index];
 859              		.loc 2 616 0
 860 0612 A423     		mov	r3, #164
 861 0614 5B00     		lsl	r3, r3, #1
 862 0616 FB18     		add	r3, r7, r3
 863 0618 1B68     		ldr	r3, [r3]
 864 061a 9A00     		lsl	r2, r3, #2
 865 061c A823     		mov	r3, #168
 866 061e 5B00     		lsl	r3, r3, #1
 867 0620 FB18     		add	r3, r7, r3
 868 0622 1B68     		ldr	r3, [r3]
 869 0624 9B18     		add	r3, r3, r2
 870 0626 1B68     		ldr	r3, [r3]
 871 0628 A222     		mov	r2, #162
 872 062a 5200     		lsl	r2, r2, #1
 873 062c BA18     		add	r2, r7, r2
 874 062e 1360     		str	r3, [r2]
 617:.\Include/arm_math.h **** 
 618:.\Include/arm_math.h ****     /* calculation of reciprocal value */
 619:.\Include/arm_math.h ****     /* running approximation for two iterations */
 620:.\Include/arm_math.h ****     for (i = 0u; i < 2u; i++)
 875              		.loc 2 620 0
 876 0630 0023     		mov	r3, #0
 877 0632 A022     		mov	r2, #160
 878 0634 5200     		lsl	r2, r2, #1
 879 0636 BA18     		add	r2, r7, r2
 880 0638 1360     		str	r3, [r2]
 881 063a 9AE0     		b	.L7
 882              	.L11:
 621:.\Include/arm_math.h ****     {
 622:.\Include/arm_math.h ****       tempVal = (uint32_t) (((q63_t) in * out) >> 31);
 883              		.loc 2 622 0
 884 063c AC23     		mov	r3, #172
 885 063e 5B00     		lsl	r3, r3, #1
 886 0640 FB18     		add	r3, r7, r3
 887 0642 1B68     		ldr	r3, [r3]
 888 0644 BB64     		str	r3, [r7, #72]
 889 0646 DB17     		asr	r3, r3, #31
 890 0648 FB64     		str	r3, [r7, #76]
 891 064a A223     		mov	r3, #162
 892 064c 5B00     		lsl	r3, r3, #1
 893 064e FB18     		add	r3, r7, r3
 894 0650 1B68     		ldr	r3, [r3]
 895 0652 3B64     		str	r3, [r7, #64]
 896 0654 DB17     		asr	r3, r3, #31
 897 0656 7B64     		str	r3, [r7, #68]
 898 0658 B86C     		ldr	r0, [r7, #72]
 899 065a F96C     		ldr	r1, [r7, #76]
 900 065c 3A6C     		ldr	r2, [r7, #64]
 901 065e 7B6C     		ldr	r3, [r7, #68]
 902 0660 FFF7FEFF 		bl	__aeabi_lmul
 903 0664 031C     		mov	r3, r0
 904 0666 0C1C     		mov	r4, r1
 905 0668 6200     		lsl	r2, r4, #1
 906 066a D90F     		lsr	r1, r3, #31
 907 066c F820     		mov	r0, #248
 908 066e 3818     		add	r0, r7, r0
ARM GAS  C:\Users\fneves\AppData\Local\Temp\ccFjPd1E.s 			page 34


 909 0670 0160     		str	r1, [r0]
 910 0672 F821     		mov	r1, #248
 911 0674 7918     		add	r1, r7, r1
 912 0676 0968     		ldr	r1, [r1]
 913 0678 1143     		orr	r1, r2
 914 067a F822     		mov	r2, #248
 915 067c BA18     		add	r2, r7, r2
 916 067e 1160     		str	r1, [r2]
 917 0680 E317     		asr	r3, r4, #31
 918 0682 FC22     		mov	r2, #252
 919 0684 BA18     		add	r2, r7, r2
 920 0686 1360     		str	r3, [r2]
 921 0688 F823     		mov	r3, #248
 922 068a FB18     		add	r3, r7, r3
 923 068c 1B68     		ldr	r3, [r3]
 924 068e 9E22     		mov	r2, #158
 925 0690 5200     		lsl	r2, r2, #1
 926 0692 BA18     		add	r2, r7, r2
 927 0694 1360     		str	r3, [r2]
 623:.\Include/arm_math.h ****       tempVal = 0x7FFFFFFFu - tempVal;
 928              		.loc 2 623 0
 929 0696 9E23     		mov	r3, #158
 930 0698 5B00     		lsl	r3, r3, #1
 931 069a FB18     		add	r3, r7, r3
 932 069c 1A68     		ldr	r2, [r3]
 933 069e E04B     		ldr	r3, .L30
 934 06a0 9B1A     		sub	r3, r3, r2
 935 06a2 9E22     		mov	r2, #158
 936 06a4 5200     		lsl	r2, r2, #1
 937 06a6 BA18     		add	r2, r7, r2
 938 06a8 1360     		str	r3, [r2]
 624:.\Include/arm_math.h ****       /*      1.31 with exp 1 */
 625:.\Include/arm_math.h ****       /* out = (q31_t) (((q63_t) out * tempVal) >> 30); */
 626:.\Include/arm_math.h ****       out = clip_q63_to_q31(((q63_t) out * tempVal) >> 30);
 939              		.loc 2 626 0
 940 06aa A223     		mov	r3, #162
 941 06ac 5B00     		lsl	r3, r3, #1
 942 06ae FB18     		add	r3, r7, r3
 943 06b0 1B68     		ldr	r3, [r3]
 944 06b2 BB63     		str	r3, [r7, #56]
 945 06b4 DB17     		asr	r3, r3, #31
 946 06b6 FB63     		str	r3, [r7, #60]
 947 06b8 9E23     		mov	r3, #158
 948 06ba 5B00     		lsl	r3, r3, #1
 949 06bc FB18     		add	r3, r7, r3
 950 06be 1B68     		ldr	r3, [r3]
 951 06c0 3B63     		str	r3, [r7, #48]
 952 06c2 0023     		mov	r3, #0
 953 06c4 7B63     		str	r3, [r7, #52]
 954 06c6 B86B     		ldr	r0, [r7, #56]
 955 06c8 F96B     		ldr	r1, [r7, #60]
 956 06ca 3A6B     		ldr	r2, [r7, #48]
 957 06cc 7B6B     		ldr	r3, [r7, #52]
 958 06ce FFF7FEFF 		bl	__aeabi_lmul
 959 06d2 031C     		mov	r3, r0
 960 06d4 0C1C     		mov	r4, r1
 961 06d6 A200     		lsl	r2, r4, #2
ARM GAS  C:\Users\fneves\AppData\Local\Temp\ccFjPd1E.s 			page 35


 962 06d8 990F     		lsr	r1, r3, #30
 963 06da F020     		mov	r0, #240
 964 06dc 3818     		add	r0, r7, r0
 965 06de 0160     		str	r1, [r0]
 966 06e0 F021     		mov	r1, #240
 967 06e2 7918     		add	r1, r7, r1
 968 06e4 0968     		ldr	r1, [r1]
 969 06e6 1143     		orr	r1, r2
 970 06e8 F022     		mov	r2, #240
 971 06ea BA18     		add	r2, r7, r2
 972 06ec 1160     		str	r1, [r2]
 973 06ee A317     		asr	r3, r4, #30
 974 06f0 F422     		mov	r2, #244
 975 06f2 BA18     		add	r2, r7, r2
 976 06f4 1360     		str	r3, [r2]
 977 06f6 F023     		mov	r3, #240
 978 06f8 FB18     		add	r3, r7, r3
 979 06fa 5C68     		ldr	r4, [r3, #4]
 980 06fc 1B68     		ldr	r3, [r3]
 981 06fe 9822     		mov	r2, #152
 982 0700 5200     		lsl	r2, r2, #1
 983 0702 BA18     		add	r2, r7, r2
 984 0704 1360     		str	r3, [r2]
 985 0706 5460     		str	r4, [r2, #4]
 986              	.LBB14:
 987              	.LBB15:
 513:.\Include/arm_math.h ****       ((0x7FFFFFFF ^ ((q31_t) (x >> 63)))) : (q31_t) x;
 988              		.loc 2 513 0
 989 0708 9A23     		mov	r3, #154
 990 070a 5B00     		lsl	r3, r3, #1
 991 070c FB18     		add	r3, r7, r3
 992 070e 1B68     		ldr	r3, [r3]
 993 0710 1B00     		asr	r3, r3, #0
 994 0712 BB62     		str	r3, [r7, #40]
 995 0714 9A23     		mov	r3, #154
 996 0716 5B00     		lsl	r3, r3, #1
 997 0718 FB18     		add	r3, r7, r3
 998 071a 1B68     		ldr	r3, [r3]
 999 071c DB17     		asr	r3, r3, #31
 1000 071e FB62     		str	r3, [r7, #44]
 1001 0720 BA6A     		ldr	r2, [r7, #40]
 1002 0722 9823     		mov	r3, #152
 1003 0724 5B00     		lsl	r3, r3, #1
 1004 0726 FB18     		add	r3, r7, r3
 1005 0728 1B68     		ldr	r3, [r3]
 1006 072a DB17     		asr	r3, r3, #31
 514:.\Include/arm_math.h ****   }
 1007              		.loc 2 514 0
 1008 072c 9A42     		cmp	r2, r3
 1009 072e 0FD0     		beq	.L8
 1010 0730 9A23     		mov	r3, #154
 1011 0732 5B00     		lsl	r3, r3, #1
 1012 0734 FB18     		add	r3, r7, r3
 1013 0736 1B68     		ldr	r3, [r3]
 1014 0738 DB17     		asr	r3, r3, #31
 1015 073a 3B62     		str	r3, [r7, #32]
 1016 073c 9A23     		mov	r3, #154
ARM GAS  C:\Users\fneves\AppData\Local\Temp\ccFjPd1E.s 			page 36


 1017 073e 5B00     		lsl	r3, r3, #1
 1018 0740 FB18     		add	r3, r7, r3
 1019 0742 1B68     		ldr	r3, [r3]
 1020 0744 DB17     		asr	r3, r3, #31
 1021 0746 7B62     		str	r3, [r7, #36]
 1022 0748 3A6A     		ldr	r2, [r7, #32]
 1023 074a B54B     		ldr	r3, .L30
 1024 074c 5340     		eor	r3, r2
 1025 074e 03E0     		b	.L26
 1026              	.L8:
 1027 0750 9823     		mov	r3, #152
 1028 0752 5B00     		lsl	r3, r3, #1
 1029 0754 FB18     		add	r3, r7, r3
 1030 0756 1B68     		ldr	r3, [r3]
 1031              	.L26:
 1032              	.LBE15:
 1033              	.LBE14:
 1034              		.loc 2 626 0
 1035 0758 A222     		mov	r2, #162
 1036 075a 5200     		lsl	r2, r2, #1
 1037 075c BA18     		add	r2, r7, r2
 1038 075e 1360     		str	r3, [r2]
 620:.\Include/arm_math.h ****     {
 1039              		.loc 2 620 0
 1040 0760 A023     		mov	r3, #160
 1041 0762 5B00     		lsl	r3, r3, #1
 1042 0764 FB18     		add	r3, r7, r3
 1043 0766 1B68     		ldr	r3, [r3]
 1044 0768 0133     		add	r3, r3, #1
 1045 076a A022     		mov	r2, #160
 1046 076c 5200     		lsl	r2, r2, #1
 1047 076e BA18     		add	r2, r7, r2
 1048 0770 1360     		str	r3, [r2]
 1049              	.L7:
 1050 0772 A023     		mov	r3, #160
 1051 0774 5B00     		lsl	r3, r3, #1
 1052 0776 FB18     		add	r3, r7, r3
 1053 0778 1B68     		ldr	r3, [r3]
 1054 077a 012B     		cmp	r3, #1
 1055 077c 00D8     		bhi	.LCB972
 1056 077e 5DE7     		b	.L11	@long jump
 1057              	.LCB972:
 627:.\Include/arm_math.h ****     }
 628:.\Include/arm_math.h **** 
 629:.\Include/arm_math.h ****     /* write output */
 630:.\Include/arm_math.h ****     *dst = out;
 1058              		.loc 2 630 0
 1059 0780 AA23     		mov	r3, #170
 1060 0782 5B00     		lsl	r3, r3, #1
 1061 0784 FB18     		add	r3, r7, r3
 1062 0786 1A68     		ldr	r2, [r3]
 1063 0788 A223     		mov	r3, #162
 1064 078a 5B00     		lsl	r3, r3, #1
 1065 078c FB18     		add	r3, r7, r3
 1066 078e 1B68     		ldr	r3, [r3]
 1067 0790 1360     		str	r3, [r2]
 631:.\Include/arm_math.h **** 
ARM GAS  C:\Users\fneves\AppData\Local\Temp\ccFjPd1E.s 			page 37


 632:.\Include/arm_math.h ****     /* return num of signbits of out = 1/in value */
 633:.\Include/arm_math.h ****     return (signBits + 1u);
 1068              		.loc 2 633 0
 1069 0792 A623     		mov	r3, #166
 1070 0794 5B00     		lsl	r3, r3, #1
 1071 0796 FB18     		add	r3, r7, r3
 1072 0798 1B68     		ldr	r3, [r3]
 1073 079a 0133     		add	r3, r3, #1
 1074              	.LBE13:
 1075              	.LBE12:
 348:Source\FilteringFunctions/arm_lms_norm_q31.c ****       arm_recip_q31(energy + DELTA_Q31, &oneByEnergy, &S->recipTable[0]);
 1076              		.loc 1 348 0
 1077 079c B222     		mov	r2, #178
 1078 079e 5200     		lsl	r2, r2, #1
 1079 07a0 BA18     		add	r2, r7, r2
 1080 07a2 1360     		str	r3, [r2]
 350:Source\FilteringFunctions/arm_lms_norm_q31.c **** 
 351:Source\FilteringFunctions/arm_lms_norm_q31.c ****     /* Calculation of product of (e * mu) */
 352:Source\FilteringFunctions/arm_lms_norm_q31.c ****     errorXmu = (q31_t) (((q63_t) e * mu) >> 31);
 1081              		.loc 1 352 0
 1082 07a4 C223     		mov	r3, #194
 1083 07a6 5B00     		lsl	r3, r3, #1
 1084 07a8 FB18     		add	r3, r7, r3
 1085 07aa 1B68     		ldr	r3, [r3]
 1086 07ac 9022     		mov	r2, #144
 1087 07ae BA18     		add	r2, r7, r2
 1088 07b0 1360     		str	r3, [r2]
 1089 07b2 DB17     		asr	r3, r3, #31
 1090 07b4 9422     		mov	r2, #148
 1091 07b6 BA18     		add	r2, r7, r2
 1092 07b8 1360     		str	r3, [r2]
 1093 07ba 8423     		mov	r3, #132
 1094 07bc 8422     		mov	r2, #132
 1095 07be 5200     		lsl	r2, r2, #1
 1096 07c0 9446     		mov	ip, r2
 1097 07c2 BC44     		add	ip, ip, r7
 1098 07c4 6344     		add	r3, r3, ip
 1099 07c6 1B68     		ldr	r3, [r3]
 1100 07c8 8822     		mov	r2, #136
 1101 07ca BA18     		add	r2, r7, r2
 1102 07cc 1360     		str	r3, [r2]
 1103 07ce DB17     		asr	r3, r3, #31
 1104 07d0 8C22     		mov	r2, #140
 1105 07d2 BA18     		add	r2, r7, r2
 1106 07d4 1360     		str	r3, [r2]
 1107 07d6 9023     		mov	r3, #144
 1108 07d8 FB18     		add	r3, r7, r3
 1109 07da 1868     		ldr	r0, [r3]
 1110 07dc 5968     		ldr	r1, [r3, #4]
 1111 07de 8823     		mov	r3, #136
 1112 07e0 FB18     		add	r3, r7, r3
 1113 07e2 1A68     		ldr	r2, [r3]
 1114 07e4 5B68     		ldr	r3, [r3, #4]
 1115 07e6 FFF7FEFF 		bl	__aeabi_lmul
 1116 07ea 031C     		mov	r3, r0
 1117 07ec 0C1C     		mov	r4, r1
 1118 07ee 6200     		lsl	r2, r4, #1
ARM GAS  C:\Users\fneves\AppData\Local\Temp\ccFjPd1E.s 			page 38


 1119 07f0 D90F     		lsr	r1, r3, #31
 1120 07f2 781C     		add	r0, r7, #1
 1121 07f4 FF30     		add	r0, r0, #255
 1122 07f6 0160     		str	r1, [r0]
 1123 07f8 791C     		add	r1, r7, #1
 1124 07fa FF31     		add	r1, r1, #255
 1125 07fc 0968     		ldr	r1, [r1]
 1126 07fe 1143     		orr	r1, r2
 1127 0800 7A1C     		add	r2, r7, #1
 1128 0802 FF32     		add	r2, r2, #255
 1129 0804 1160     		str	r1, [r2]
 1130 0806 E317     		asr	r3, r4, #31
 1131 0808 7A1D     		add	r2, r7, #5
 1132 080a FF32     		add	r2, r2, #255
 1133 080c 1360     		str	r3, [r2]
 1134 080e 7B1C     		add	r3, r7, #1
 1135 0810 FF33     		add	r3, r3, #255
 1136 0812 1B68     		ldr	r3, [r3]
 1137 0814 B022     		mov	r2, #176
 1138 0816 5200     		lsl	r2, r2, #1
 1139 0818 BA18     		add	r2, r7, r2
 1140 081a 1360     		str	r3, [r2]
 353:Source\FilteringFunctions/arm_lms_norm_q31.c **** 
 354:Source\FilteringFunctions/arm_lms_norm_q31.c ****     /* Weighting factor for the normalized version */
 355:Source\FilteringFunctions/arm_lms_norm_q31.c ****     w = clip_q63_to_q31(((q63_t) errorXmu * oneByEnergy) >> (31 - postShift));
 1141              		.loc 1 355 0
 1142 081c B023     		mov	r3, #176
 1143 081e 5B00     		lsl	r3, r3, #1
 1144 0820 FB18     		add	r3, r7, r3
 1145 0822 1B68     		ldr	r3, [r3]
 1146 0824 8022     		mov	r2, #128
 1147 0826 BA18     		add	r2, r7, r2
 1148 0828 1360     		str	r3, [r2]
 1149 082a DB17     		asr	r3, r3, #31
 1150 082c 8422     		mov	r2, #132
 1151 082e BA18     		add	r2, r7, r2
 1152 0830 1360     		str	r3, [r2]
 1153 0832 8E23     		mov	r3, #142
 1154 0834 5B00     		lsl	r3, r3, #1
 1155 0836 FB18     		add	r3, r7, r3
 1156 0838 1B68     		ldr	r3, [r3]
 1157 083a BB67     		str	r3, [r7, #120]
 1158 083c DB17     		asr	r3, r3, #31
 1159 083e FB67     		str	r3, [r7, #124]
 1160 0840 8023     		mov	r3, #128
 1161 0842 FB18     		add	r3, r7, r3
 1162 0844 1868     		ldr	r0, [r3]
 1163 0846 5968     		ldr	r1, [r3, #4]
 1164 0848 BA6F     		ldr	r2, [r7, #120]
 1165 084a FB6F     		ldr	r3, [r7, #124]
 1166 084c FFF7FEFF 		bl	__aeabi_lmul
 1167 0850 031C     		mov	r3, r0
 1168 0852 0C1C     		mov	r4, r1
 1169 0854 181C     		mov	r0, r3
 1170 0856 211C     		mov	r1, r4
 1171 0858 B223     		mov	r3, #178
 1172 085a 5B00     		lsl	r3, r3, #1
ARM GAS  C:\Users\fneves\AppData\Local\Temp\ccFjPd1E.s 			page 39


 1173 085c FB18     		add	r3, r7, r3
 1174 085e 1A68     		ldr	r2, [r3]
 1175 0860 1F23     		mov	r3, #31
 1176 0862 9A1A     		sub	r2, r3, r2
 1177 0864 131C     		mov	r3, r2
 1178 0866 203B     		sub	r3, r3, #32
 1179 0868 002B     		cmp	r3, #0
 1180 086a 03DB     		blt	.L13
 1181 086c 0C1C     		mov	r4, r1
 1182 086e 1C41     		asr	r4, r4, r3
 1183 0870 251C     		mov	r5, r4
 1184 0872 08E0     		b	.L14
 1185              	.L13:
 1186 0874 2023     		mov	r3, #32
 1187 0876 9B1A     		sub	r3, r3, r2
 1188 0878 0C1C     		mov	r4, r1
 1189 087a 9C40     		lsl	r4, r4, r3
 1190 087c 231C     		mov	r3, r4
 1191 087e 041C     		mov	r4, r0
 1192 0880 D440     		lsr	r4, r4, r2
 1193 0882 251C     		mov	r5, r4
 1194 0884 1D43     		orr	r5, r3
 1195              	.L14:
 1196 0886 0B1C     		mov	r3, r1
 1197 0888 1341     		asr	r3, r3, r2
 1198 088a 1E1C     		mov	r6, r3
 1199 088c 9423     		mov	r3, #148
 1200 088e 5B00     		lsl	r3, r3, #1
 1201 0890 FB18     		add	r3, r7, r3
 1202 0892 1D60     		str	r5, [r3]
 1203 0894 5E60     		str	r6, [r3, #4]
 1204              	.LBB16:
 1205              	.LBB17:
 513:.\Include/arm_math.h ****       ((0x7FFFFFFF ^ ((q31_t) (x >> 63)))) : (q31_t) x;
 1206              		.loc 2 513 0
 1207 0896 9623     		mov	r3, #150
 1208 0898 5B00     		lsl	r3, r3, #1
 1209 089a FB18     		add	r3, r7, r3
 1210 089c 1B68     		ldr	r3, [r3]
 1211 089e 1B00     		asr	r3, r3, #0
 1212 08a0 BB61     		str	r3, [r7, #24]
 1213 08a2 9623     		mov	r3, #150
 1214 08a4 5B00     		lsl	r3, r3, #1
 1215 08a6 FB18     		add	r3, r7, r3
 1216 08a8 1B68     		ldr	r3, [r3]
 1217 08aa DB17     		asr	r3, r3, #31
 1218 08ac FB61     		str	r3, [r7, #28]
 1219 08ae BA69     		ldr	r2, [r7, #24]
 1220 08b0 9423     		mov	r3, #148
 1221 08b2 5B00     		lsl	r3, r3, #1
 1222 08b4 FB18     		add	r3, r7, r3
 1223 08b6 1B68     		ldr	r3, [r3]
 1224 08b8 DB17     		asr	r3, r3, #31
 514:.\Include/arm_math.h ****   }
 1225              		.loc 2 514 0
 1226 08ba 9A42     		cmp	r2, r3
 1227 08bc 0FD0     		beq	.L15
ARM GAS  C:\Users\fneves\AppData\Local\Temp\ccFjPd1E.s 			page 40


 1228 08be 9623     		mov	r3, #150
 1229 08c0 5B00     		lsl	r3, r3, #1
 1230 08c2 FB18     		add	r3, r7, r3
 1231 08c4 1B68     		ldr	r3, [r3]
 1232 08c6 DB17     		asr	r3, r3, #31
 1233 08c8 3B61     		str	r3, [r7, #16]
 1234 08ca 9623     		mov	r3, #150
 1235 08cc 5B00     		lsl	r3, r3, #1
 1236 08ce FB18     		add	r3, r7, r3
 1237 08d0 1B68     		ldr	r3, [r3]
 1238 08d2 DB17     		asr	r3, r3, #31
 1239 08d4 7B61     		str	r3, [r7, #20]
 1240 08d6 3A69     		ldr	r2, [r7, #16]
 1241 08d8 514B     		ldr	r3, .L30
 1242 08da 5340     		eor	r3, r2
 1243 08dc 03E0     		b	.L17
 1244              	.L15:
 1245 08de 9423     		mov	r3, #148
 1246 08e0 5B00     		lsl	r3, r3, #1
 1247 08e2 FB18     		add	r3, r7, r3
 1248 08e4 1B68     		ldr	r3, [r3]
 1249              	.L17:
 1250              	.LBE17:
 1251              	.LBE16:
 1252              		.loc 1 355 0
 1253 08e6 BE22     		mov	r2, #190
 1254 08e8 5200     		lsl	r2, r2, #1
 1255 08ea BA18     		add	r2, r7, r2
 1256 08ec 1360     		str	r3, [r2]
 356:Source\FilteringFunctions/arm_lms_norm_q31.c **** 
 357:Source\FilteringFunctions/arm_lms_norm_q31.c ****     /* Initialize pState pointer */
 358:Source\FilteringFunctions/arm_lms_norm_q31.c ****     px = pState;
 1257              		.loc 1 358 0
 1258 08ee B423     		mov	r3, #180
 1259 08f0 8422     		mov	r2, #132
 1260 08f2 5200     		lsl	r2, r2, #1
 1261 08f4 9446     		mov	ip, r2
 1262 08f6 BC44     		add	ip, ip, r7
 1263 08f8 6344     		add	r3, r3, ip
 1264 08fa 1B68     		ldr	r3, [r3]
 1265 08fc AC22     		mov	r2, #172
 1266 08fe 8421     		mov	r1, #132
 1267 0900 4900     		lsl	r1, r1, #1
 1268 0902 8C46     		mov	ip, r1
 1269 0904 BC44     		add	ip, ip, r7
 1270 0906 6244     		add	r2, r2, ip
 1271 0908 1360     		str	r3, [r2]
 359:Source\FilteringFunctions/arm_lms_norm_q31.c **** 
 360:Source\FilteringFunctions/arm_lms_norm_q31.c ****     /* Initialize coeff pointer */
 361:Source\FilteringFunctions/arm_lms_norm_q31.c ****     pb = (pCoeffs);
 1272              		.loc 1 361 0
 1273 090a 8823     		mov	r3, #136
 1274 090c 8422     		mov	r2, #132
 1275 090e 5200     		lsl	r2, r2, #1
 1276 0910 9446     		mov	ip, r2
 1277 0912 BC44     		add	ip, ip, r7
 1278 0914 6344     		add	r3, r3, ip
ARM GAS  C:\Users\fneves\AppData\Local\Temp\ccFjPd1E.s 			page 41


 1279 0916 1B68     		ldr	r3, [r3]
 1280 0918 A822     		mov	r2, #168
 1281 091a 8421     		mov	r1, #132
 1282 091c 4900     		lsl	r1, r1, #1
 1283 091e 8C46     		mov	ip, r1
 1284 0920 BC44     		add	ip, ip, r7
 1285 0922 6244     		add	r2, r2, ip
 1286 0924 1360     		str	r3, [r2]
 362:Source\FilteringFunctions/arm_lms_norm_q31.c **** 
 363:Source\FilteringFunctions/arm_lms_norm_q31.c ****     /* Loop over numTaps number of values */
 364:Source\FilteringFunctions/arm_lms_norm_q31.c ****     tapCnt = numTaps;
 1287              		.loc 1 364 0
 1288 0926 8023     		mov	r3, #128
 1289 0928 8422     		mov	r2, #132
 1290 092a 5200     		lsl	r2, r2, #1
 1291 092c 9446     		mov	ip, r2
 1292 092e BC44     		add	ip, ip, r7
 1293 0930 6344     		add	r3, r3, ip
 1294 0932 1B68     		ldr	r3, [r3]
 1295 0934 A422     		mov	r2, #164
 1296 0936 8421     		mov	r1, #132
 1297 0938 4900     		lsl	r1, r1, #1
 1298 093a 8C46     		mov	ip, r1
 1299 093c BC44     		add	ip, ip, r7
 1300 093e 6244     		add	r2, r2, ip
 1301 0940 1360     		str	r3, [r2]
 365:Source\FilteringFunctions/arm_lms_norm_q31.c **** 
 366:Source\FilteringFunctions/arm_lms_norm_q31.c ****     while (tapCnt > 0u)
 1302              		.loc 1 366 0
 1303 0942 99E0     		b	.L18
 1304              	.L22:
 367:Source\FilteringFunctions/arm_lms_norm_q31.c ****     {
 368:Source\FilteringFunctions/arm_lms_norm_q31.c ****       /* Perform the multiply-accumulate */
 369:Source\FilteringFunctions/arm_lms_norm_q31.c ****       /* coef is in 2.30 format */
 370:Source\FilteringFunctions/arm_lms_norm_q31.c ****       coef = (q31_t) (((q63_t) w * (*px++)) >> (32));
 1305              		.loc 1 370 0
 1306 0944 BE23     		mov	r3, #190
 1307 0946 5B00     		lsl	r3, r3, #1
 1308 0948 FB18     		add	r3, r7, r3
 1309 094a 1B68     		ldr	r3, [r3]
 1310 094c 3B67     		str	r3, [r7, #112]
 1311 094e DB17     		asr	r3, r3, #31
 1312 0950 7B67     		str	r3, [r7, #116]
 1313 0952 AC23     		mov	r3, #172
 1314 0954 8422     		mov	r2, #132
 1315 0956 5200     		lsl	r2, r2, #1
 1316 0958 9446     		mov	ip, r2
 1317 095a BC44     		add	ip, ip, r7
 1318 095c 6344     		add	r3, r3, ip
 1319 095e 1A68     		ldr	r2, [r3]
 1320 0960 131D     		add	r3, r2, #4
 1321 0962 AC21     		mov	r1, #172
 1322 0964 8420     		mov	r0, #132
 1323 0966 4000     		lsl	r0, r0, #1
 1324 0968 8446     		mov	ip, r0
 1325 096a BC44     		add	ip, ip, r7
 1326 096c 6144     		add	r1, r1, ip
ARM GAS  C:\Users\fneves\AppData\Local\Temp\ccFjPd1E.s 			page 42


 1327 096e 0B60     		str	r3, [r1]
 1328 0970 1368     		ldr	r3, [r2]
 1329 0972 BB66     		str	r3, [r7, #104]
 1330 0974 DB17     		asr	r3, r3, #31
 1331 0976 FB66     		str	r3, [r7, #108]
 1332 0978 386F     		ldr	r0, [r7, #112]
 1333 097a 796F     		ldr	r1, [r7, #116]
 1334 097c BA6E     		ldr	r2, [r7, #104]
 1335 097e FB6E     		ldr	r3, [r7, #108]
 1336 0980 FFF7FEFF 		bl	__aeabi_lmul
 1337 0984 031C     		mov	r3, r0
 1338 0986 0C1C     		mov	r4, r1
 1339 0988 2200     		asr	r2, r4, #0
 1340 098a 3A66     		str	r2, [r7, #96]
 1341 098c E317     		asr	r3, r4, #31
 1342 098e 7B66     		str	r3, [r7, #100]
 1343 0990 3B6E     		ldr	r3, [r7, #96]
 1344 0992 AE22     		mov	r2, #174
 1345 0994 5200     		lsl	r2, r2, #1
 1346 0996 BA18     		add	r2, r7, r2
 1347 0998 1360     		str	r3, [r2]
 371:Source\FilteringFunctions/arm_lms_norm_q31.c ****       /* get coef in 1.31 format by left shifting */
 372:Source\FilteringFunctions/arm_lms_norm_q31.c ****       *pb = clip_q63_to_q31((q63_t) * pb + (coef << 1u));
 1348              		.loc 1 372 0
 1349 099a A823     		mov	r3, #168
 1350 099c 8422     		mov	r2, #132
 1351 099e 5200     		lsl	r2, r2, #1
 1352 09a0 9446     		mov	ip, r2
 1353 09a2 BC44     		add	ip, ip, r7
 1354 09a4 6344     		add	r3, r3, ip
 1355 09a6 1B68     		ldr	r3, [r3]
 1356 09a8 1B68     		ldr	r3, [r3]
 1357 09aa BB65     		str	r3, [r7, #88]
 1358 09ac DB17     		asr	r3, r3, #31
 1359 09ae FB65     		str	r3, [r7, #92]
 1360 09b0 AE23     		mov	r3, #174
 1361 09b2 5B00     		lsl	r3, r3, #1
 1362 09b4 FB18     		add	r3, r7, r3
 1363 09b6 1B68     		ldr	r3, [r3]
 1364 09b8 5B00     		lsl	r3, r3, #1
 1365 09ba 3B65     		str	r3, [r7, #80]
 1366 09bc DB17     		asr	r3, r3, #31
 1367 09be 7B65     		str	r3, [r7, #84]
 1368 09c0 BB6D     		ldr	r3, [r7, #88]
 1369 09c2 FC6D     		ldr	r4, [r7, #92]
 1370 09c4 396D     		ldr	r1, [r7, #80]
 1371 09c6 7A6D     		ldr	r2, [r7, #84]
 1372 09c8 5B18     		add	r3, r3, r1
 1373 09ca 5441     		adc	r4, r4, r2
 1374 09cc 9022     		mov	r2, #144
 1375 09ce 5200     		lsl	r2, r2, #1
 1376 09d0 BA18     		add	r2, r7, r2
 1377 09d2 1360     		str	r3, [r2]
 1378 09d4 5460     		str	r4, [r2, #4]
 1379              	.LBB18:
 1380              	.LBB19:
 513:.\Include/arm_math.h ****       ((0x7FFFFFFF ^ ((q31_t) (x >> 63)))) : (q31_t) x;
ARM GAS  C:\Users\fneves\AppData\Local\Temp\ccFjPd1E.s 			page 43


 1381              		.loc 2 513 0
 1382 09d6 9223     		mov	r3, #146
 1383 09d8 5B00     		lsl	r3, r3, #1
 1384 09da FB18     		add	r3, r7, r3
 1385 09dc 1B68     		ldr	r3, [r3]
 1386 09de 1B00     		asr	r3, r3, #0
 1387 09e0 BB60     		str	r3, [r7, #8]
 1388 09e2 9223     		mov	r3, #146
 1389 09e4 5B00     		lsl	r3, r3, #1
 1390 09e6 FB18     		add	r3, r7, r3
 1391 09e8 1B68     		ldr	r3, [r3]
 1392 09ea DB17     		asr	r3, r3, #31
 1393 09ec FB60     		str	r3, [r7, #12]
 1394 09ee BA68     		ldr	r2, [r7, #8]
 1395 09f0 9023     		mov	r3, #144
 1396 09f2 5B00     		lsl	r3, r3, #1
 1397 09f4 FB18     		add	r3, r7, r3
 1398 09f6 1B68     		ldr	r3, [r3]
 1399 09f8 DB17     		asr	r3, r3, #31
 514:.\Include/arm_math.h ****   }
 1400              		.loc 2 514 0
 1401 09fa 9A42     		cmp	r2, r3
 1402 09fc 12D0     		beq	.L19
 1403 09fe 9223     		mov	r3, #146
 1404 0a00 5B00     		lsl	r3, r3, #1
 1405 0a02 FB18     		add	r3, r7, r3
 1406 0a04 1B68     		ldr	r3, [r3]
 1407 0a06 DB17     		asr	r3, r3, #31
 1408 0a08 3B60     		str	r3, [r7]
 1409 0a0a 9223     		mov	r3, #146
 1410 0a0c 5B00     		lsl	r3, r3, #1
 1411 0a0e FB18     		add	r3, r7, r3
 1412 0a10 1B68     		ldr	r3, [r3]
 1413 0a12 DB17     		asr	r3, r3, #31
 1414 0a14 7B60     		str	r3, [r7, #4]
 1415 0a16 3A68     		ldr	r2, [r7]
 1416 0a18 014B     		ldr	r3, .L30
 1417 0a1a 5A40     		eor	r2, r3
 1418 0a1c 06E0     		b	.L27
 1419              	.L31:
 1420 0a1e C046     		.align	2
 1421              	.L30:
 1422 0a20 FFFFFF7F 		.word	2147483647
 1423              	.L19:
 1424 0a24 9023     		mov	r3, #144
 1425 0a26 5B00     		lsl	r3, r3, #1
 1426 0a28 FB18     		add	r3, r7, r3
 1427 0a2a 1A68     		ldr	r2, [r3]
 1428              	.L27:
 1429              	.LBE19:
 1430              	.LBE18:
 1431              		.loc 1 372 0
 1432 0a2c A823     		mov	r3, #168
 1433 0a2e 8421     		mov	r1, #132
 1434 0a30 4900     		lsl	r1, r1, #1
 1435 0a32 8C46     		mov	ip, r1
 1436 0a34 BC44     		add	ip, ip, r7
ARM GAS  C:\Users\fneves\AppData\Local\Temp\ccFjPd1E.s 			page 44


 1437 0a36 6344     		add	r3, r3, ip
 1438 0a38 1B68     		ldr	r3, [r3]
 1439 0a3a 1A60     		str	r2, [r3]
 373:Source\FilteringFunctions/arm_lms_norm_q31.c ****       /* update coefficient buffer to next coefficient */
 374:Source\FilteringFunctions/arm_lms_norm_q31.c ****       pb++;
 1440              		.loc 1 374 0
 1441 0a3c A823     		mov	r3, #168
 1442 0a3e 8422     		mov	r2, #132
 1443 0a40 5200     		lsl	r2, r2, #1
 1444 0a42 9446     		mov	ip, r2
 1445 0a44 BC44     		add	ip, ip, r7
 1446 0a46 6344     		add	r3, r3, ip
 1447 0a48 1B68     		ldr	r3, [r3]
 1448 0a4a 0433     		add	r3, r3, #4
 1449 0a4c A822     		mov	r2, #168
 1450 0a4e 8421     		mov	r1, #132
 1451 0a50 4900     		lsl	r1, r1, #1
 1452 0a52 8C46     		mov	ip, r1
 1453 0a54 BC44     		add	ip, ip, r7
 1454 0a56 6244     		add	r2, r2, ip
 1455 0a58 1360     		str	r3, [r2]
 375:Source\FilteringFunctions/arm_lms_norm_q31.c **** 
 376:Source\FilteringFunctions/arm_lms_norm_q31.c ****       /* Decrement the loop counter */
 377:Source\FilteringFunctions/arm_lms_norm_q31.c ****       tapCnt--;
 1456              		.loc 1 377 0
 1457 0a5a A423     		mov	r3, #164
 1458 0a5c 8422     		mov	r2, #132
 1459 0a5e 5200     		lsl	r2, r2, #1
 1460 0a60 9446     		mov	ip, r2
 1461 0a62 BC44     		add	ip, ip, r7
 1462 0a64 6344     		add	r3, r3, ip
 1463 0a66 1B68     		ldr	r3, [r3]
 1464 0a68 013B     		sub	r3, r3, #1
 1465 0a6a A422     		mov	r2, #164
 1466 0a6c 8421     		mov	r1, #132
 1467 0a6e 4900     		lsl	r1, r1, #1
 1468 0a70 8C46     		mov	ip, r1
 1469 0a72 BC44     		add	ip, ip, r7
 1470 0a74 6244     		add	r2, r2, ip
 1471 0a76 1360     		str	r3, [r2]
 1472              	.L18:
 366:Source\FilteringFunctions/arm_lms_norm_q31.c ****     {
 1473              		.loc 1 366 0
 1474 0a78 A423     		mov	r3, #164
 1475 0a7a 8422     		mov	r2, #132
 1476 0a7c 5200     		lsl	r2, r2, #1
 1477 0a7e 9446     		mov	ip, r2
 1478 0a80 BC44     		add	ip, ip, r7
 1479 0a82 6344     		add	r3, r3, ip
 1480 0a84 1B68     		ldr	r3, [r3]
 1481 0a86 002B     		cmp	r3, #0
 1482 0a88 00D0     		beq	.LCB1380
 1483 0a8a 5BE7     		b	.L22	@long jump
 1484              	.LCB1380:
 378:Source\FilteringFunctions/arm_lms_norm_q31.c ****     }
 379:Source\FilteringFunctions/arm_lms_norm_q31.c **** 
 380:Source\FilteringFunctions/arm_lms_norm_q31.c ****     /* Read the sample from state buffer */
ARM GAS  C:\Users\fneves\AppData\Local\Temp\ccFjPd1E.s 			page 45


 381:Source\FilteringFunctions/arm_lms_norm_q31.c ****     x0 = *pState;
 1485              		.loc 1 381 0
 1486 0a8c B423     		mov	r3, #180
 1487 0a8e 8422     		mov	r2, #132
 1488 0a90 5200     		lsl	r2, r2, #1
 1489 0a92 9446     		mov	ip, r2
 1490 0a94 BC44     		add	ip, ip, r7
 1491 0a96 6344     		add	r3, r3, ip
 1492 0a98 1B68     		ldr	r3, [r3]
 1493 0a9a 1B68     		ldr	r3, [r3]
 1494 0a9c 8C22     		mov	r2, #140
 1495 0a9e 8421     		mov	r1, #132
 1496 0aa0 4900     		lsl	r1, r1, #1
 1497 0aa2 8C46     		mov	ip, r1
 1498 0aa4 BC44     		add	ip, ip, r7
 1499 0aa6 6244     		add	r2, r2, ip
 1500 0aa8 1360     		str	r3, [r2]
 382:Source\FilteringFunctions/arm_lms_norm_q31.c **** 
 383:Source\FilteringFunctions/arm_lms_norm_q31.c ****     /* Advance state pointer by 1 for the next sample */
 384:Source\FilteringFunctions/arm_lms_norm_q31.c ****     pState = pState + 1;
 1501              		.loc 1 384 0
 1502 0aaa B423     		mov	r3, #180
 1503 0aac 8422     		mov	r2, #132
 1504 0aae 5200     		lsl	r2, r2, #1
 1505 0ab0 9446     		mov	ip, r2
 1506 0ab2 BC44     		add	ip, ip, r7
 1507 0ab4 6344     		add	r3, r3, ip
 1508 0ab6 1B68     		ldr	r3, [r3]
 1509 0ab8 0433     		add	r3, r3, #4
 1510 0aba B422     		mov	r2, #180
 1511 0abc 8421     		mov	r1, #132
 1512 0abe 4900     		lsl	r1, r1, #1
 1513 0ac0 8C46     		mov	ip, r1
 1514 0ac2 BC44     		add	ip, ip, r7
 1515 0ac4 6244     		add	r2, r2, ip
 1516 0ac6 1360     		str	r3, [r2]
 385:Source\FilteringFunctions/arm_lms_norm_q31.c **** 
 386:Source\FilteringFunctions/arm_lms_norm_q31.c ****     /* Decrement the loop counter */
 387:Source\FilteringFunctions/arm_lms_norm_q31.c ****     blkCnt--;
 1517              		.loc 1 387 0
 1518 0ac8 A023     		mov	r3, #160
 1519 0aca 8422     		mov	r2, #132
 1520 0acc 5200     		lsl	r2, r2, #1
 1521 0ace 9446     		mov	ip, r2
 1522 0ad0 BC44     		add	ip, ip, r7
 1523 0ad2 6344     		add	r3, r3, ip
 1524 0ad4 1B68     		ldr	r3, [r3]
 1525 0ad6 013B     		sub	r3, r3, #1
 1526 0ad8 A022     		mov	r2, #160
 1527 0ada 8421     		mov	r1, #132
 1528 0adc 4900     		lsl	r1, r1, #1
 1529 0ade 8C46     		mov	ip, r1
 1530 0ae0 BC44     		add	ip, ip, r7
 1531 0ae2 6244     		add	r2, r2, ip
 1532 0ae4 1360     		str	r3, [r2]
 1533              	.L2:
 291:Source\FilteringFunctions/arm_lms_norm_q31.c ****   {
ARM GAS  C:\Users\fneves\AppData\Local\Temp\ccFjPd1E.s 			page 46


 1534              		.loc 1 291 0
 1535 0ae6 A023     		mov	r3, #160
 1536 0ae8 8422     		mov	r2, #132
 1537 0aea 5200     		lsl	r2, r2, #1
 1538 0aec 9446     		mov	ip, r2
 1539 0aee BC44     		add	ip, ip, r7
 1540 0af0 6344     		add	r3, r3, ip
 1541 0af2 1B68     		ldr	r3, [r3]
 1542 0af4 002B     		cmp	r3, #0
 1543 0af6 01D0     		beq	.LCB1436
 1544 0af8 FFF730FB 		bl	.L23	@far jump
 1545              	.LCB1436:
 388:Source\FilteringFunctions/arm_lms_norm_q31.c ****   }
 389:Source\FilteringFunctions/arm_lms_norm_q31.c **** 
 390:Source\FilteringFunctions/arm_lms_norm_q31.c ****   /* Save energy and x0 values for the next frame */
 391:Source\FilteringFunctions/arm_lms_norm_q31.c ****   S->energy = (q31_t) energy;
 1546              		.loc 1 391 0
 1547 0afc 9823     		mov	r3, #152
 1548 0afe 8422     		mov	r2, #132
 1549 0b00 5200     		lsl	r2, r2, #1
 1550 0b02 9446     		mov	ip, r2
 1551 0b04 BC44     		add	ip, ip, r7
 1552 0b06 6344     		add	r3, r3, ip
 1553 0b08 1A68     		ldr	r2, [r3]
 1554 0b0a 8A23     		mov	r3, #138
 1555 0b0c 5B00     		lsl	r3, r3, #1
 1556 0b0e FB18     		add	r3, r7, r3
 1557 0b10 1B68     		ldr	r3, [r3]
 1558 0b12 9A61     		str	r2, [r3, #24]
 392:Source\FilteringFunctions/arm_lms_norm_q31.c ****   S->x0 = x0;
 1559              		.loc 1 392 0
 1560 0b14 8A23     		mov	r3, #138
 1561 0b16 5B00     		lsl	r3, r3, #1
 1562 0b18 FB18     		add	r3, r7, r3
 1563 0b1a 1B68     		ldr	r3, [r3]
 1564 0b1c 8C22     		mov	r2, #140
 1565 0b1e 8421     		mov	r1, #132
 1566 0b20 4900     		lsl	r1, r1, #1
 1567 0b22 8C46     		mov	ip, r1
 1568 0b24 BC44     		add	ip, ip, r7
 1569 0b26 6244     		add	r2, r2, ip
 1570 0b28 1268     		ldr	r2, [r2]
 1571 0b2a DA61     		str	r2, [r3, #28]
 393:Source\FilteringFunctions/arm_lms_norm_q31.c **** 
 394:Source\FilteringFunctions/arm_lms_norm_q31.c ****   /* Processing is complete. Now copy the last numTaps - 1 samples to the
 395:Source\FilteringFunctions/arm_lms_norm_q31.c ****      start of the state buffer. This prepares the state buffer for the
 396:Source\FilteringFunctions/arm_lms_norm_q31.c ****      next function call. */
 397:Source\FilteringFunctions/arm_lms_norm_q31.c **** 
 398:Source\FilteringFunctions/arm_lms_norm_q31.c ****   /* Points to the start of the pState buffer */
 399:Source\FilteringFunctions/arm_lms_norm_q31.c ****   pStateCurnt = S->pState;
 1572              		.loc 1 399 0
 1573 0b2c 8A23     		mov	r3, #138
 1574 0b2e 5B00     		lsl	r3, r3, #1
 1575 0b30 FB18     		add	r3, r7, r3
 1576 0b32 1B68     		ldr	r3, [r3]
 1577 0b34 5B68     		ldr	r3, [r3, #4]
 1578 0b36 B022     		mov	r2, #176
ARM GAS  C:\Users\fneves\AppData\Local\Temp\ccFjPd1E.s 			page 47


 1579 0b38 8421     		mov	r1, #132
 1580 0b3a 4900     		lsl	r1, r1, #1
 1581 0b3c 8C46     		mov	ip, r1
 1582 0b3e BC44     		add	ip, ip, r7
 1583 0b40 6244     		add	r2, r2, ip
 1584 0b42 1360     		str	r3, [r2]
 400:Source\FilteringFunctions/arm_lms_norm_q31.c **** 
 401:Source\FilteringFunctions/arm_lms_norm_q31.c ****   /* Loop for (numTaps - 1u) samples copy */
 402:Source\FilteringFunctions/arm_lms_norm_q31.c ****   tapCnt = (numTaps - 1u);
 1585              		.loc 1 402 0
 1586 0b44 8023     		mov	r3, #128
 1587 0b46 8422     		mov	r2, #132
 1588 0b48 5200     		lsl	r2, r2, #1
 1589 0b4a 9446     		mov	ip, r2
 1590 0b4c BC44     		add	ip, ip, r7
 1591 0b4e 6344     		add	r3, r3, ip
 1592 0b50 1B68     		ldr	r3, [r3]
 1593 0b52 013B     		sub	r3, r3, #1
 1594 0b54 A422     		mov	r2, #164
 1595 0b56 8421     		mov	r1, #132
 1596 0b58 4900     		lsl	r1, r1, #1
 1597 0b5a 8C46     		mov	ip, r1
 1598 0b5c BC44     		add	ip, ip, r7
 1599 0b5e 6244     		add	r2, r2, ip
 1600 0b60 1360     		str	r3, [r2]
 403:Source\FilteringFunctions/arm_lms_norm_q31.c **** 
 404:Source\FilteringFunctions/arm_lms_norm_q31.c ****   /* Copy the remaining q31_t data */
 405:Source\FilteringFunctions/arm_lms_norm_q31.c ****   while (tapCnt > 0u)
 1601              		.loc 1 405 0
 1602 0b62 2EE0     		b	.L24
 1603              	.L25:
 406:Source\FilteringFunctions/arm_lms_norm_q31.c ****   {
 407:Source\FilteringFunctions/arm_lms_norm_q31.c ****     *pStateCurnt++ = *pState++;
 1604              		.loc 1 407 0
 1605 0b64 B023     		mov	r3, #176
 1606 0b66 8422     		mov	r2, #132
 1607 0b68 5200     		lsl	r2, r2, #1
 1608 0b6a 9446     		mov	ip, r2
 1609 0b6c BC44     		add	ip, ip, r7
 1610 0b6e 6344     		add	r3, r3, ip
 1611 0b70 1B68     		ldr	r3, [r3]
 1612 0b72 1A1D     		add	r2, r3, #4
 1613 0b74 B021     		mov	r1, #176
 1614 0b76 8420     		mov	r0, #132
 1615 0b78 4000     		lsl	r0, r0, #1
 1616 0b7a 8446     		mov	ip, r0
 1617 0b7c BC44     		add	ip, ip, r7
 1618 0b7e 6144     		add	r1, r1, ip
 1619 0b80 0A60     		str	r2, [r1]
 1620 0b82 B422     		mov	r2, #180
 1621 0b84 8421     		mov	r1, #132
 1622 0b86 4900     		lsl	r1, r1, #1
 1623 0b88 8C46     		mov	ip, r1
 1624 0b8a BC44     		add	ip, ip, r7
 1625 0b8c 6244     		add	r2, r2, ip
 1626 0b8e 1268     		ldr	r2, [r2]
 1627 0b90 111D     		add	r1, r2, #4
ARM GAS  C:\Users\fneves\AppData\Local\Temp\ccFjPd1E.s 			page 48


 1628 0b92 B420     		mov	r0, #180
 1629 0b94 8424     		mov	r4, #132
 1630 0b96 6400     		lsl	r4, r4, #1
 1631 0b98 A446     		mov	ip, r4
 1632 0b9a BC44     		add	ip, ip, r7
 1633 0b9c 6044     		add	r0, r0, ip
 1634 0b9e 0160     		str	r1, [r0]
 1635 0ba0 1268     		ldr	r2, [r2]
 1636 0ba2 1A60     		str	r2, [r3]
 408:Source\FilteringFunctions/arm_lms_norm_q31.c **** 
 409:Source\FilteringFunctions/arm_lms_norm_q31.c ****     /* Decrement the loop counter */
 410:Source\FilteringFunctions/arm_lms_norm_q31.c ****     tapCnt--;
 1637              		.loc 1 410 0
 1638 0ba4 A423     		mov	r3, #164
 1639 0ba6 8422     		mov	r2, #132
 1640 0ba8 5200     		lsl	r2, r2, #1
 1641 0baa 9446     		mov	ip, r2
 1642 0bac BC44     		add	ip, ip, r7
 1643 0bae 6344     		add	r3, r3, ip
 1644 0bb0 1B68     		ldr	r3, [r3]
 1645 0bb2 013B     		sub	r3, r3, #1
 1646 0bb4 A422     		mov	r2, #164
 1647 0bb6 8421     		mov	r1, #132
 1648 0bb8 4900     		lsl	r1, r1, #1
 1649 0bba 8C46     		mov	ip, r1
 1650 0bbc BC44     		add	ip, ip, r7
 1651 0bbe 6244     		add	r2, r2, ip
 1652 0bc0 1360     		str	r3, [r2]
 1653              	.L24:
 405:Source\FilteringFunctions/arm_lms_norm_q31.c ****   {
 1654              		.loc 1 405 0
 1655 0bc2 A423     		mov	r3, #164
 1656 0bc4 8422     		mov	r2, #132
 1657 0bc6 5200     		lsl	r2, r2, #1
 1658 0bc8 9446     		mov	ip, r2
 1659 0bca BC44     		add	ip, ip, r7
 1660 0bcc 6344     		add	r3, r3, ip
 1661 0bce 1B68     		ldr	r3, [r3]
 1662 0bd0 002B     		cmp	r3, #0
 1663 0bd2 C7D1     		bne	.L25
 411:Source\FilteringFunctions/arm_lms_norm_q31.c ****   }
 412:Source\FilteringFunctions/arm_lms_norm_q31.c **** 
 413:Source\FilteringFunctions/arm_lms_norm_q31.c **** #endif /*   #if defined (ARM_MATH_DSP) */
 414:Source\FilteringFunctions/arm_lms_norm_q31.c **** 
 415:Source\FilteringFunctions/arm_lms_norm_q31.c **** }
 1664              		.loc 1 415 0
 1665 0bd4 BD46     		mov	sp, r7
 1666 0bd6 71B0     		add	sp, sp, #452
 1667              		@ sp needed
 1668 0bd8 F0BD     		pop	{r4, r5, r6, r7, pc}
 1669              		.cfi_endproc
 1670              	.LFE82:
 1671              		.size	arm_lms_norm_q31, .-arm_lms_norm_q31
 1672 0bda C046     		.text
 1673              	.Letext0:
 1674              		.file 3 "c:\\program files (x86)\\cypress\\psoc creator\\4.0\\psoc creator\\import\\gnu\\arm\\4.9.
 1675              		.file 4 "c:\\program files (x86)\\cypress\\psoc creator\\4.0\\psoc creator\\import\\gnu\\arm\\4.9.
ARM GAS  C:\Users\fneves\AppData\Local\Temp\ccFjPd1E.s 			page 49

