ARM GAS  C:\Users\fneves\AppData\Local\Temp\ccZeqh7g.s 			page 1


   1              		.cpu cortex-m0plus
   2              		.fpu softvfp
   3              		.eabi_attribute 20, 1
   4              		.eabi_attribute 21, 1
   5              		.eabi_attribute 23, 3
   6              		.eabi_attribute 24, 1
   7              		.eabi_attribute 25, 1
   8              		.eabi_attribute 26, 1
   9              		.eabi_attribute 30, 6
  10              		.eabi_attribute 34, 0
  11              		.eabi_attribute 18, 4
  12              		.code	16
  13              		.file	"arm_cfft_radix2_f32.c"
  14              		.text
  15              	.Ltext0:
  16              		.cfi_sections	.debug_frame
  17              		.section	.text.arm_cfft_radix2_f32,"ax",%progbits
  18              		.align	2
  19              		.global	arm_cfft_radix2_f32
  20              		.code	16
  21              		.thumb_func
  22              		.type	arm_cfft_radix2_f32, %function
  23              	arm_cfft_radix2_f32:
  24              	.LFB82:
  25              		.file 1 "Source\\TransformFunctions\\arm_cfft_radix2_f32.c"
   1:Source\TransformFunctions/arm_cfft_radix2_f32.c **** /* ----------------------------------------------------------------------
   2:Source\TransformFunctions/arm_cfft_radix2_f32.c ****  * Project:      CMSIS DSP Library
   3:Source\TransformFunctions/arm_cfft_radix2_f32.c ****  * Title:        arm_cfft_radix2_f32.c
   4:Source\TransformFunctions/arm_cfft_radix2_f32.c ****  * Description:  Radix-2 Decimation in Frequency CFFT & CIFFT Floating point processing function
   5:Source\TransformFunctions/arm_cfft_radix2_f32.c ****  *
   6:Source\TransformFunctions/arm_cfft_radix2_f32.c ****  * $Date:        27. January 2017
   7:Source\TransformFunctions/arm_cfft_radix2_f32.c ****  * $Revision:    V.1.5.1
   8:Source\TransformFunctions/arm_cfft_radix2_f32.c ****  *
   9:Source\TransformFunctions/arm_cfft_radix2_f32.c ****  * Target Processor: Cortex-M cores
  10:Source\TransformFunctions/arm_cfft_radix2_f32.c ****  * -------------------------------------------------------------------- */
  11:Source\TransformFunctions/arm_cfft_radix2_f32.c **** /*
  12:Source\TransformFunctions/arm_cfft_radix2_f32.c ****  * Copyright (C) 2010-2017 ARM Limited or its affiliates. All rights reserved.
  13:Source\TransformFunctions/arm_cfft_radix2_f32.c ****  *
  14:Source\TransformFunctions/arm_cfft_radix2_f32.c ****  * SPDX-License-Identifier: Apache-2.0
  15:Source\TransformFunctions/arm_cfft_radix2_f32.c ****  *
  16:Source\TransformFunctions/arm_cfft_radix2_f32.c ****  * Licensed under the Apache License, Version 2.0 (the License); you may
  17:Source\TransformFunctions/arm_cfft_radix2_f32.c ****  * not use this file except in compliance with the License.
  18:Source\TransformFunctions/arm_cfft_radix2_f32.c ****  * You may obtain a copy of the License at
  19:Source\TransformFunctions/arm_cfft_radix2_f32.c ****  *
  20:Source\TransformFunctions/arm_cfft_radix2_f32.c ****  * www.apache.org/licenses/LICENSE-2.0
  21:Source\TransformFunctions/arm_cfft_radix2_f32.c ****  *
  22:Source\TransformFunctions/arm_cfft_radix2_f32.c ****  * Unless required by applicable law or agreed to in writing, software
  23:Source\TransformFunctions/arm_cfft_radix2_f32.c ****  * distributed under the License is distributed on an AS IS BASIS, WITHOUT
  24:Source\TransformFunctions/arm_cfft_radix2_f32.c ****  * WARRANTIES OR CONDITIONS OF ANY KIND, either express or implied.
  25:Source\TransformFunctions/arm_cfft_radix2_f32.c ****  * See the License for the specific language governing permissions and
  26:Source\TransformFunctions/arm_cfft_radix2_f32.c ****  * limitations under the License.
  27:Source\TransformFunctions/arm_cfft_radix2_f32.c ****  */
  28:Source\TransformFunctions/arm_cfft_radix2_f32.c **** 
  29:Source\TransformFunctions/arm_cfft_radix2_f32.c **** #include "arm_math.h"
  30:Source\TransformFunctions/arm_cfft_radix2_f32.c **** 
  31:Source\TransformFunctions/arm_cfft_radix2_f32.c **** void arm_radix2_butterfly_f32(
  32:Source\TransformFunctions/arm_cfft_radix2_f32.c ****   float32_t * pSrc,
ARM GAS  C:\Users\fneves\AppData\Local\Temp\ccZeqh7g.s 			page 2


  33:Source\TransformFunctions/arm_cfft_radix2_f32.c ****   uint32_t fftLen,
  34:Source\TransformFunctions/arm_cfft_radix2_f32.c ****   float32_t * pCoef,
  35:Source\TransformFunctions/arm_cfft_radix2_f32.c ****   uint16_t twidCoefModifier);
  36:Source\TransformFunctions/arm_cfft_radix2_f32.c **** 
  37:Source\TransformFunctions/arm_cfft_radix2_f32.c **** void arm_radix2_butterfly_inverse_f32(
  38:Source\TransformFunctions/arm_cfft_radix2_f32.c ****   float32_t * pSrc,
  39:Source\TransformFunctions/arm_cfft_radix2_f32.c ****   uint32_t fftLen,
  40:Source\TransformFunctions/arm_cfft_radix2_f32.c ****   float32_t * pCoef,
  41:Source\TransformFunctions/arm_cfft_radix2_f32.c ****   uint16_t twidCoefModifier,
  42:Source\TransformFunctions/arm_cfft_radix2_f32.c ****   float32_t onebyfftLen);
  43:Source\TransformFunctions/arm_cfft_radix2_f32.c **** 
  44:Source\TransformFunctions/arm_cfft_radix2_f32.c **** extern void arm_bitreversal_f32(
  45:Source\TransformFunctions/arm_cfft_radix2_f32.c ****     float32_t * pSrc,
  46:Source\TransformFunctions/arm_cfft_radix2_f32.c ****     uint16_t fftSize,
  47:Source\TransformFunctions/arm_cfft_radix2_f32.c ****     uint16_t bitRevFactor,
  48:Source\TransformFunctions/arm_cfft_radix2_f32.c ****     uint16_t * pBitRevTab);
  49:Source\TransformFunctions/arm_cfft_radix2_f32.c **** 
  50:Source\TransformFunctions/arm_cfft_radix2_f32.c **** /**
  51:Source\TransformFunctions/arm_cfft_radix2_f32.c **** * @ingroup groupTransforms
  52:Source\TransformFunctions/arm_cfft_radix2_f32.c **** */
  53:Source\TransformFunctions/arm_cfft_radix2_f32.c **** 
  54:Source\TransformFunctions/arm_cfft_radix2_f32.c **** /**
  55:Source\TransformFunctions/arm_cfft_radix2_f32.c **** * @addtogroup ComplexFFT
  56:Source\TransformFunctions/arm_cfft_radix2_f32.c **** * @{
  57:Source\TransformFunctions/arm_cfft_radix2_f32.c **** */
  58:Source\TransformFunctions/arm_cfft_radix2_f32.c **** 
  59:Source\TransformFunctions/arm_cfft_radix2_f32.c **** /**
  60:Source\TransformFunctions/arm_cfft_radix2_f32.c **** * @details
  61:Source\TransformFunctions/arm_cfft_radix2_f32.c **** * @brief Radix-2 CFFT/CIFFT.
  62:Source\TransformFunctions/arm_cfft_radix2_f32.c **** * @deprecated Do not use this function.  It has been superseded by \ref arm_cfft_f32 and will be re
  63:Source\TransformFunctions/arm_cfft_radix2_f32.c **** * in the future.
  64:Source\TransformFunctions/arm_cfft_radix2_f32.c **** * @param[in]      *S    points to an instance of the floating-point Radix-2 CFFT/CIFFT structure.
  65:Source\TransformFunctions/arm_cfft_radix2_f32.c **** * @param[in, out] *pSrc points to the complex data buffer of size <code>2*fftLen</code>. Processing
  66:Source\TransformFunctions/arm_cfft_radix2_f32.c **** * @return none.
  67:Source\TransformFunctions/arm_cfft_radix2_f32.c **** */
  68:Source\TransformFunctions/arm_cfft_radix2_f32.c **** 
  69:Source\TransformFunctions/arm_cfft_radix2_f32.c **** void arm_cfft_radix2_f32(
  70:Source\TransformFunctions/arm_cfft_radix2_f32.c **** const arm_cfft_radix2_instance_f32 * S,
  71:Source\TransformFunctions/arm_cfft_radix2_f32.c **** float32_t * pSrc)
  72:Source\TransformFunctions/arm_cfft_radix2_f32.c **** {
  26              		.loc 1 72 0
  27              		.cfi_startproc
  28 0000 B0B5     		push	{r4, r5, r7, lr}
  29              		.cfi_def_cfa_offset 16
  30              		.cfi_offset 4, -16
  31              		.cfi_offset 5, -12
  32              		.cfi_offset 7, -8
  33              		.cfi_offset 14, -4
  34 0002 84B0     		sub	sp, sp, #16
  35              		.cfi_def_cfa_offset 32
  36 0004 02AF     		add	r7, sp, #8
  37              		.cfi_def_cfa 7, 24
  38 0006 7860     		str	r0, [r7, #4]
  39 0008 3960     		str	r1, [r7]
  73:Source\TransformFunctions/arm_cfft_radix2_f32.c **** 
  74:Source\TransformFunctions/arm_cfft_radix2_f32.c ****    if (S->ifftFlag == 1u)
  40              		.loc 1 74 0
ARM GAS  C:\Users\fneves\AppData\Local\Temp\ccZeqh7g.s 			page 3


  41 000a 7B68     		ldr	r3, [r7, #4]
  42 000c 9B78     		ldrb	r3, [r3, #2]
  43 000e 012B     		cmp	r3, #1
  44 0010 10D1     		bne	.L2
  75:Source\TransformFunctions/arm_cfft_radix2_f32.c ****    {
  76:Source\TransformFunctions/arm_cfft_radix2_f32.c ****       /*  Complex IFFT radix-2  */
  77:Source\TransformFunctions/arm_cfft_radix2_f32.c ****       arm_radix2_butterfly_inverse_f32(pSrc, S->fftLen, S->pTwiddle,
  45              		.loc 1 77 0
  46 0012 7B68     		ldr	r3, [r7, #4]
  47 0014 1B88     		ldrh	r3, [r3]
  48 0016 1D1C     		mov	r5, r3
  49 0018 7B68     		ldr	r3, [r7, #4]
  50 001a 5A68     		ldr	r2, [r3, #4]
  51 001c 7B68     		ldr	r3, [r7, #4]
  52 001e 9C89     		ldrh	r4, [r3, #12]
  53 0020 7B68     		ldr	r3, [r7, #4]
  54 0022 1B69     		ldr	r3, [r3, #16]
  55 0024 3968     		ldr	r1, [r7]
  56 0026 0093     		str	r3, [sp]
  57 0028 081C     		mov	r0, r1
  58 002a 291C     		mov	r1, r5
  59 002c 231C     		mov	r3, r4
  60 002e FFF7FEFF 		bl	arm_radix2_butterfly_inverse_f32
  61 0032 0BE0     		b	.L3
  62              	.L2:
  78:Source\TransformFunctions/arm_cfft_radix2_f32.c ****       S->twidCoefModifier, S->onebyfftLen);
  79:Source\TransformFunctions/arm_cfft_radix2_f32.c ****    }
  80:Source\TransformFunctions/arm_cfft_radix2_f32.c ****    else
  81:Source\TransformFunctions/arm_cfft_radix2_f32.c ****    {
  82:Source\TransformFunctions/arm_cfft_radix2_f32.c ****       /*  Complex FFT radix-2  */
  83:Source\TransformFunctions/arm_cfft_radix2_f32.c ****       arm_radix2_butterfly_f32(pSrc, S->fftLen, S->pTwiddle,
  63              		.loc 1 83 0
  64 0034 7B68     		ldr	r3, [r7, #4]
  65 0036 1B88     		ldrh	r3, [r3]
  66 0038 1C1C     		mov	r4, r3
  67 003a 7B68     		ldr	r3, [r7, #4]
  68 003c 5A68     		ldr	r2, [r3, #4]
  69 003e 7B68     		ldr	r3, [r7, #4]
  70 0040 9B89     		ldrh	r3, [r3, #12]
  71 0042 3968     		ldr	r1, [r7]
  72 0044 081C     		mov	r0, r1
  73 0046 211C     		mov	r1, r4
  74 0048 FFF7FEFF 		bl	arm_radix2_butterfly_f32
  75              	.L3:
  84:Source\TransformFunctions/arm_cfft_radix2_f32.c ****       S->twidCoefModifier);
  85:Source\TransformFunctions/arm_cfft_radix2_f32.c ****    }
  86:Source\TransformFunctions/arm_cfft_radix2_f32.c **** 
  87:Source\TransformFunctions/arm_cfft_radix2_f32.c ****    if (S->bitReverseFlag == 1u)
  76              		.loc 1 87 0
  77 004c 7B68     		ldr	r3, [r7, #4]
  78 004e DB78     		ldrb	r3, [r3, #3]
  79 0050 012B     		cmp	r3, #1
  80 0052 08D1     		bne	.L1
  88:Source\TransformFunctions/arm_cfft_radix2_f32.c ****    {
  89:Source\TransformFunctions/arm_cfft_radix2_f32.c ****       /*  Bit Reversal */
  90:Source\TransformFunctions/arm_cfft_radix2_f32.c ****       arm_bitreversal_f32(pSrc, S->fftLen, S->bitRevFactor, S->pBitRevTable);
  81              		.loc 1 90 0
ARM GAS  C:\Users\fneves\AppData\Local\Temp\ccZeqh7g.s 			page 4


  82 0054 7B68     		ldr	r3, [r7, #4]
  83 0056 1988     		ldrh	r1, [r3]
  84 0058 7B68     		ldr	r3, [r7, #4]
  85 005a DA89     		ldrh	r2, [r3, #14]
  86 005c 7B68     		ldr	r3, [r7, #4]
  87 005e 9B68     		ldr	r3, [r3, #8]
  88 0060 3868     		ldr	r0, [r7]
  89 0062 FFF7FEFF 		bl	arm_bitreversal_f32
  90              	.L1:
  91:Source\TransformFunctions/arm_cfft_radix2_f32.c ****    }
  92:Source\TransformFunctions/arm_cfft_radix2_f32.c **** 
  93:Source\TransformFunctions/arm_cfft_radix2_f32.c **** }
  91              		.loc 1 93 0
  92 0066 BD46     		mov	sp, r7
  93 0068 02B0     		add	sp, sp, #8
  94              		@ sp needed
  95 006a B0BD     		pop	{r4, r5, r7, pc}
  96              		.cfi_endproc
  97              	.LFE82:
  98              		.size	arm_cfft_radix2_f32, .-arm_cfft_radix2_f32
  99              		.global	__aeabi_fadd
 100              		.global	__aeabi_fsub
 101              		.global	__aeabi_fmul
 102              		.section	.text.arm_radix2_butterfly_f32,"ax",%progbits
 103              		.align	2
 104              		.global	arm_radix2_butterfly_f32
 105              		.code	16
 106              		.thumb_func
 107              		.type	arm_radix2_butterfly_f32, %function
 108              	arm_radix2_butterfly_f32:
 109              	.LFB83:
  94:Source\TransformFunctions/arm_cfft_radix2_f32.c **** 
  95:Source\TransformFunctions/arm_cfft_radix2_f32.c **** 
  96:Source\TransformFunctions/arm_cfft_radix2_f32.c **** /**
  97:Source\TransformFunctions/arm_cfft_radix2_f32.c **** * @} end of ComplexFFT group
  98:Source\TransformFunctions/arm_cfft_radix2_f32.c **** */
  99:Source\TransformFunctions/arm_cfft_radix2_f32.c **** 
 100:Source\TransformFunctions/arm_cfft_radix2_f32.c **** 
 101:Source\TransformFunctions/arm_cfft_radix2_f32.c **** 
 102:Source\TransformFunctions/arm_cfft_radix2_f32.c **** /* ----------------------------------------------------------------------
 103:Source\TransformFunctions/arm_cfft_radix2_f32.c **** ** Internal helper function used by the FFTs
 104:Source\TransformFunctions/arm_cfft_radix2_f32.c **** ** ------------------------------------------------------------------- */
 105:Source\TransformFunctions/arm_cfft_radix2_f32.c **** 
 106:Source\TransformFunctions/arm_cfft_radix2_f32.c **** /*
 107:Source\TransformFunctions/arm_cfft_radix2_f32.c **** * @brief  Core function for the floating-point CFFT butterfly process.
 108:Source\TransformFunctions/arm_cfft_radix2_f32.c **** * @param[in, out] *pSrc            points to the in-place buffer of floating-point data type.
 109:Source\TransformFunctions/arm_cfft_radix2_f32.c **** * @param[in]      fftLen           length of the FFT.
 110:Source\TransformFunctions/arm_cfft_radix2_f32.c **** * @param[in]      *pCoef           points to the twiddle coefficient buffer.
 111:Source\TransformFunctions/arm_cfft_radix2_f32.c **** * @param[in]      twidCoefModifier twiddle coefficient modifier that supports different size FFTs w
 112:Source\TransformFunctions/arm_cfft_radix2_f32.c **** * @return none.
 113:Source\TransformFunctions/arm_cfft_radix2_f32.c **** */
 114:Source\TransformFunctions/arm_cfft_radix2_f32.c **** 
 115:Source\TransformFunctions/arm_cfft_radix2_f32.c **** void arm_radix2_butterfly_f32(
 116:Source\TransformFunctions/arm_cfft_radix2_f32.c **** float32_t * pSrc,
 117:Source\TransformFunctions/arm_cfft_radix2_f32.c **** uint32_t fftLen,
 118:Source\TransformFunctions/arm_cfft_radix2_f32.c **** float32_t * pCoef,
 119:Source\TransformFunctions/arm_cfft_radix2_f32.c **** uint16_t twidCoefModifier)
ARM GAS  C:\Users\fneves\AppData\Local\Temp\ccZeqh7g.s 			page 5


 120:Source\TransformFunctions/arm_cfft_radix2_f32.c **** {
 110              		.loc 1 120 0
 111              		.cfi_startproc
 112 0000 90B5     		push	{r4, r7, lr}
 113              		.cfi_def_cfa_offset 12
 114              		.cfi_offset 4, -12
 115              		.cfi_offset 7, -8
 116              		.cfi_offset 14, -4
 117 0002 97B0     		sub	sp, sp, #92
 118              		.cfi_def_cfa_offset 104
 119 0004 00AF     		add	r7, sp, #0
 120              		.cfi_def_cfa_register 7
 121 0006 F860     		str	r0, [r7, #12]
 122 0008 B960     		str	r1, [r7, #8]
 123 000a 7A60     		str	r2, [r7, #4]
 124 000c 1A1C     		mov	r2, r3
 125 000e BB1C     		add	r3, r7, #2
 126 0010 1A80     		strh	r2, [r3]
 121:Source\TransformFunctions/arm_cfft_radix2_f32.c **** 
 122:Source\TransformFunctions/arm_cfft_radix2_f32.c ****    uint32_t i, j, k, l;
 123:Source\TransformFunctions/arm_cfft_radix2_f32.c ****    uint32_t n1, n2, ia;
 124:Source\TransformFunctions/arm_cfft_radix2_f32.c ****    float32_t xt, yt, cosVal, sinVal;
 125:Source\TransformFunctions/arm_cfft_radix2_f32.c ****    float32_t p0, p1, p2, p3;
 126:Source\TransformFunctions/arm_cfft_radix2_f32.c ****    float32_t a0, a1;
 127:Source\TransformFunctions/arm_cfft_radix2_f32.c **** 
 128:Source\TransformFunctions/arm_cfft_radix2_f32.c **** #if defined (ARM_MATH_DSP)
 129:Source\TransformFunctions/arm_cfft_radix2_f32.c **** 
 130:Source\TransformFunctions/arm_cfft_radix2_f32.c ****    /*  Initializations for the first stage */
 131:Source\TransformFunctions/arm_cfft_radix2_f32.c ****    n2 = fftLen >> 1;
 132:Source\TransformFunctions/arm_cfft_radix2_f32.c ****    ia = 0;
 133:Source\TransformFunctions/arm_cfft_radix2_f32.c ****    i = 0;
 134:Source\TransformFunctions/arm_cfft_radix2_f32.c **** 
 135:Source\TransformFunctions/arm_cfft_radix2_f32.c ****    // loop for groups
 136:Source\TransformFunctions/arm_cfft_radix2_f32.c ****    for (k = n2; k > 0; k--)
 137:Source\TransformFunctions/arm_cfft_radix2_f32.c ****    {
 138:Source\TransformFunctions/arm_cfft_radix2_f32.c ****       cosVal = pCoef[ia * 2];
 139:Source\TransformFunctions/arm_cfft_radix2_f32.c ****       sinVal = pCoef[(ia * 2) + 1];
 140:Source\TransformFunctions/arm_cfft_radix2_f32.c **** 
 141:Source\TransformFunctions/arm_cfft_radix2_f32.c ****       /*  Twiddle coefficients index modifier */
 142:Source\TransformFunctions/arm_cfft_radix2_f32.c ****       ia += twidCoefModifier;
 143:Source\TransformFunctions/arm_cfft_radix2_f32.c **** 
 144:Source\TransformFunctions/arm_cfft_radix2_f32.c ****       /*  index calculation for the input as, */
 145:Source\TransformFunctions/arm_cfft_radix2_f32.c ****       /*  pSrc[i + 0], pSrc[i + fftLen/1] */
 146:Source\TransformFunctions/arm_cfft_radix2_f32.c ****       l = i + n2;
 147:Source\TransformFunctions/arm_cfft_radix2_f32.c **** 
 148:Source\TransformFunctions/arm_cfft_radix2_f32.c ****       /*  Butterfly implementation */
 149:Source\TransformFunctions/arm_cfft_radix2_f32.c ****       a0 = pSrc[2 * i] + pSrc[2 * l];
 150:Source\TransformFunctions/arm_cfft_radix2_f32.c ****       xt = pSrc[2 * i] - pSrc[2 * l];
 151:Source\TransformFunctions/arm_cfft_radix2_f32.c **** 
 152:Source\TransformFunctions/arm_cfft_radix2_f32.c ****       yt = pSrc[2 * i + 1] - pSrc[2 * l + 1];
 153:Source\TransformFunctions/arm_cfft_radix2_f32.c ****       a1 = pSrc[2 * l + 1] + pSrc[2 * i + 1];
 154:Source\TransformFunctions/arm_cfft_radix2_f32.c **** 
 155:Source\TransformFunctions/arm_cfft_radix2_f32.c ****       p0 = xt * cosVal;
 156:Source\TransformFunctions/arm_cfft_radix2_f32.c ****       p1 = yt * sinVal;
 157:Source\TransformFunctions/arm_cfft_radix2_f32.c ****       p2 = yt * cosVal;
 158:Source\TransformFunctions/arm_cfft_radix2_f32.c ****       p3 = xt * sinVal;
 159:Source\TransformFunctions/arm_cfft_radix2_f32.c **** 
ARM GAS  C:\Users\fneves\AppData\Local\Temp\ccZeqh7g.s 			page 6


 160:Source\TransformFunctions/arm_cfft_radix2_f32.c ****       pSrc[2 * i]     = a0;
 161:Source\TransformFunctions/arm_cfft_radix2_f32.c ****       pSrc[2 * i + 1] = a1;
 162:Source\TransformFunctions/arm_cfft_radix2_f32.c **** 
 163:Source\TransformFunctions/arm_cfft_radix2_f32.c ****       pSrc[2 * l]     = p0 + p1;
 164:Source\TransformFunctions/arm_cfft_radix2_f32.c ****       pSrc[2 * l + 1] = p2 - p3;
 165:Source\TransformFunctions/arm_cfft_radix2_f32.c **** 
 166:Source\TransformFunctions/arm_cfft_radix2_f32.c ****       i++;
 167:Source\TransformFunctions/arm_cfft_radix2_f32.c ****    }                             // groups loop end
 168:Source\TransformFunctions/arm_cfft_radix2_f32.c **** 
 169:Source\TransformFunctions/arm_cfft_radix2_f32.c ****    twidCoefModifier <<= 1u;
 170:Source\TransformFunctions/arm_cfft_radix2_f32.c **** 
 171:Source\TransformFunctions/arm_cfft_radix2_f32.c ****    // loop for stage
 172:Source\TransformFunctions/arm_cfft_radix2_f32.c ****    for (k = n2; k > 2; k = k >> 1)
 173:Source\TransformFunctions/arm_cfft_radix2_f32.c ****    {
 174:Source\TransformFunctions/arm_cfft_radix2_f32.c ****       n1 = n2;
 175:Source\TransformFunctions/arm_cfft_radix2_f32.c ****       n2 = n2 >> 1;
 176:Source\TransformFunctions/arm_cfft_radix2_f32.c ****       ia = 0;
 177:Source\TransformFunctions/arm_cfft_radix2_f32.c **** 
 178:Source\TransformFunctions/arm_cfft_radix2_f32.c ****       // loop for groups
 179:Source\TransformFunctions/arm_cfft_radix2_f32.c ****       j = 0;
 180:Source\TransformFunctions/arm_cfft_radix2_f32.c ****       do
 181:Source\TransformFunctions/arm_cfft_radix2_f32.c ****       {
 182:Source\TransformFunctions/arm_cfft_radix2_f32.c ****          cosVal = pCoef[ia * 2];
 183:Source\TransformFunctions/arm_cfft_radix2_f32.c ****          sinVal = pCoef[(ia * 2) + 1];
 184:Source\TransformFunctions/arm_cfft_radix2_f32.c ****          ia += twidCoefModifier;
 185:Source\TransformFunctions/arm_cfft_radix2_f32.c **** 
 186:Source\TransformFunctions/arm_cfft_radix2_f32.c ****          // loop for butterfly
 187:Source\TransformFunctions/arm_cfft_radix2_f32.c ****          i = j;
 188:Source\TransformFunctions/arm_cfft_radix2_f32.c ****          do
 189:Source\TransformFunctions/arm_cfft_radix2_f32.c ****          {
 190:Source\TransformFunctions/arm_cfft_radix2_f32.c ****             l = i + n2;
 191:Source\TransformFunctions/arm_cfft_radix2_f32.c ****             a0 = pSrc[2 * i] + pSrc[2 * l];
 192:Source\TransformFunctions/arm_cfft_radix2_f32.c ****             xt = pSrc[2 * i] - pSrc[2 * l];
 193:Source\TransformFunctions/arm_cfft_radix2_f32.c **** 
 194:Source\TransformFunctions/arm_cfft_radix2_f32.c ****             yt = pSrc[2 * i + 1] - pSrc[2 * l + 1];
 195:Source\TransformFunctions/arm_cfft_radix2_f32.c ****             a1 = pSrc[2 * l + 1] + pSrc[2 * i + 1];
 196:Source\TransformFunctions/arm_cfft_radix2_f32.c **** 
 197:Source\TransformFunctions/arm_cfft_radix2_f32.c ****             p0 = xt * cosVal;
 198:Source\TransformFunctions/arm_cfft_radix2_f32.c ****             p1 = yt * sinVal;
 199:Source\TransformFunctions/arm_cfft_radix2_f32.c ****             p2 = yt * cosVal;
 200:Source\TransformFunctions/arm_cfft_radix2_f32.c ****             p3 = xt * sinVal;
 201:Source\TransformFunctions/arm_cfft_radix2_f32.c **** 
 202:Source\TransformFunctions/arm_cfft_radix2_f32.c ****             pSrc[2 * i] = a0;
 203:Source\TransformFunctions/arm_cfft_radix2_f32.c ****             pSrc[2 * i + 1] = a1;
 204:Source\TransformFunctions/arm_cfft_radix2_f32.c **** 
 205:Source\TransformFunctions/arm_cfft_radix2_f32.c ****             pSrc[2 * l]     = p0 + p1;
 206:Source\TransformFunctions/arm_cfft_radix2_f32.c ****             pSrc[2 * l + 1] = p2 - p3;
 207:Source\TransformFunctions/arm_cfft_radix2_f32.c **** 
 208:Source\TransformFunctions/arm_cfft_radix2_f32.c ****             i += n1;
 209:Source\TransformFunctions/arm_cfft_radix2_f32.c ****          } while ( i < fftLen );                        // butterfly loop end
 210:Source\TransformFunctions/arm_cfft_radix2_f32.c ****          j++;
 211:Source\TransformFunctions/arm_cfft_radix2_f32.c ****       } while ( j < n2);                          // groups loop end
 212:Source\TransformFunctions/arm_cfft_radix2_f32.c ****       twidCoefModifier <<= 1u;
 213:Source\TransformFunctions/arm_cfft_radix2_f32.c ****    }                             // stages loop end
 214:Source\TransformFunctions/arm_cfft_radix2_f32.c **** 
 215:Source\TransformFunctions/arm_cfft_radix2_f32.c ****    // loop for butterfly
 216:Source\TransformFunctions/arm_cfft_radix2_f32.c ****    for (i = 0; i < fftLen; i += 2)
ARM GAS  C:\Users\fneves\AppData\Local\Temp\ccZeqh7g.s 			page 7


 217:Source\TransformFunctions/arm_cfft_radix2_f32.c ****    {
 218:Source\TransformFunctions/arm_cfft_radix2_f32.c ****       a0 = pSrc[2 * i] + pSrc[2 * i + 2];
 219:Source\TransformFunctions/arm_cfft_radix2_f32.c ****       xt = pSrc[2 * i] - pSrc[2 * i + 2];
 220:Source\TransformFunctions/arm_cfft_radix2_f32.c **** 
 221:Source\TransformFunctions/arm_cfft_radix2_f32.c ****       yt = pSrc[2 * i + 1] - pSrc[2 * i + 3];
 222:Source\TransformFunctions/arm_cfft_radix2_f32.c ****       a1 = pSrc[2 * i + 3] + pSrc[2 * i + 1];
 223:Source\TransformFunctions/arm_cfft_radix2_f32.c **** 
 224:Source\TransformFunctions/arm_cfft_radix2_f32.c ****       pSrc[2 * i] = a0;
 225:Source\TransformFunctions/arm_cfft_radix2_f32.c ****       pSrc[2 * i + 1] = a1;
 226:Source\TransformFunctions/arm_cfft_radix2_f32.c ****       pSrc[2 * i + 2] = xt;
 227:Source\TransformFunctions/arm_cfft_radix2_f32.c ****       pSrc[2 * i + 3] = yt;
 228:Source\TransformFunctions/arm_cfft_radix2_f32.c ****    }                             // groups loop end
 229:Source\TransformFunctions/arm_cfft_radix2_f32.c **** 
 230:Source\TransformFunctions/arm_cfft_radix2_f32.c **** #else
 231:Source\TransformFunctions/arm_cfft_radix2_f32.c **** 
 232:Source\TransformFunctions/arm_cfft_radix2_f32.c ****    n2 = fftLen;
 127              		.loc 1 232 0
 128 0012 BB68     		ldr	r3, [r7, #8]
 129 0014 BB64     		str	r3, [r7, #72]
 233:Source\TransformFunctions/arm_cfft_radix2_f32.c **** 
 234:Source\TransformFunctions/arm_cfft_radix2_f32.c ****    // loop for stage
 235:Source\TransformFunctions/arm_cfft_radix2_f32.c ****    for (k = fftLen; k > 1; k = k >> 1)
 130              		.loc 1 235 0
 131 0016 BB68     		ldr	r3, [r7, #8]
 132 0018 FB64     		str	r3, [r7, #76]
 133 001a B7E0     		b	.L6
 134              	.L9:
 236:Source\TransformFunctions/arm_cfft_radix2_f32.c ****    {
 237:Source\TransformFunctions/arm_cfft_radix2_f32.c ****       n1 = n2;
 135              		.loc 1 237 0
 136 001c BB6C     		ldr	r3, [r7, #72]
 137 001e 3B64     		str	r3, [r7, #64]
 238:Source\TransformFunctions/arm_cfft_radix2_f32.c ****       n2 = n2 >> 1;
 138              		.loc 1 238 0
 139 0020 BB6C     		ldr	r3, [r7, #72]
 140 0022 5B08     		lsr	r3, r3, #1
 141 0024 BB64     		str	r3, [r7, #72]
 239:Source\TransformFunctions/arm_cfft_radix2_f32.c ****       ia = 0;
 142              		.loc 1 239 0
 143 0026 0023     		mov	r3, #0
 144 0028 7B64     		str	r3, [r7, #68]
 240:Source\TransformFunctions/arm_cfft_radix2_f32.c **** 
 241:Source\TransformFunctions/arm_cfft_radix2_f32.c ****       // loop for groups
 242:Source\TransformFunctions/arm_cfft_radix2_f32.c ****       j = 0;
 145              		.loc 1 242 0
 146 002a 0023     		mov	r3, #0
 147 002c 3B65     		str	r3, [r7, #80]
 148              	.L8:
 243:Source\TransformFunctions/arm_cfft_radix2_f32.c ****       do
 244:Source\TransformFunctions/arm_cfft_radix2_f32.c ****       {
 245:Source\TransformFunctions/arm_cfft_radix2_f32.c ****          cosVal = pCoef[ia * 2];
 149              		.loc 1 245 0
 150 002e 7B6C     		ldr	r3, [r7, #68]
 151 0030 DB00     		lsl	r3, r3, #3
 152 0032 7A68     		ldr	r2, [r7, #4]
 153 0034 D318     		add	r3, r2, r3
 154 0036 1B68     		ldr	r3, [r3]
ARM GAS  C:\Users\fneves\AppData\Local\Temp\ccZeqh7g.s 			page 8


 155 0038 FB63     		str	r3, [r7, #60]
 246:Source\TransformFunctions/arm_cfft_radix2_f32.c ****          sinVal = pCoef[(ia * 2) + 1];
 156              		.loc 1 246 0
 157 003a 7B6C     		ldr	r3, [r7, #68]
 158 003c DB00     		lsl	r3, r3, #3
 159 003e 0433     		add	r3, r3, #4
 160 0040 7A68     		ldr	r2, [r7, #4]
 161 0042 D318     		add	r3, r2, r3
 162 0044 1B68     		ldr	r3, [r3]
 163 0046 BB63     		str	r3, [r7, #56]
 247:Source\TransformFunctions/arm_cfft_radix2_f32.c ****          ia += twidCoefModifier;
 164              		.loc 1 247 0
 165 0048 BB1C     		add	r3, r7, #2
 166 004a 1B88     		ldrh	r3, [r3]
 167 004c 7A6C     		ldr	r2, [r7, #68]
 168 004e D318     		add	r3, r2, r3
 169 0050 7B64     		str	r3, [r7, #68]
 248:Source\TransformFunctions/arm_cfft_radix2_f32.c **** 
 249:Source\TransformFunctions/arm_cfft_radix2_f32.c ****          // loop for butterfly
 250:Source\TransformFunctions/arm_cfft_radix2_f32.c ****          i = j;
 170              		.loc 1 250 0
 171 0052 3B6D     		ldr	r3, [r7, #80]
 172 0054 7B65     		str	r3, [r7, #84]
 173              	.L7:
 251:Source\TransformFunctions/arm_cfft_radix2_f32.c ****          do
 252:Source\TransformFunctions/arm_cfft_radix2_f32.c ****          {
 253:Source\TransformFunctions/arm_cfft_radix2_f32.c ****             l = i + n2;
 174              		.loc 1 253 0 discriminator 1
 175 0056 7A6D     		ldr	r2, [r7, #84]
 176 0058 BB6C     		ldr	r3, [r7, #72]
 177 005a D318     		add	r3, r2, r3
 178 005c 7B63     		str	r3, [r7, #52]
 254:Source\TransformFunctions/arm_cfft_radix2_f32.c ****             a0 = pSrc[2 * i] + pSrc[2 * l];
 179              		.loc 1 254 0 discriminator 1
 180 005e 7B6D     		ldr	r3, [r7, #84]
 181 0060 DB00     		lsl	r3, r3, #3
 182 0062 FA68     		ldr	r2, [r7, #12]
 183 0064 D318     		add	r3, r2, r3
 184 0066 1968     		ldr	r1, [r3]
 185 0068 7B6B     		ldr	r3, [r7, #52]
 186 006a DB00     		lsl	r3, r3, #3
 187 006c FA68     		ldr	r2, [r7, #12]
 188 006e D318     		add	r3, r2, r3
 189 0070 1B68     		ldr	r3, [r3]
 190 0072 081C     		add	r0, r1, #0
 191 0074 191C     		add	r1, r3, #0
 192 0076 FFF7FEFF 		bl	__aeabi_fadd
 193 007a 031C     		add	r3, r0, #0
 194 007c 3B63     		str	r3, [r7, #48]
 255:Source\TransformFunctions/arm_cfft_radix2_f32.c ****             xt = pSrc[2 * i] - pSrc[2 * l];
 195              		.loc 1 255 0 discriminator 1
 196 007e 7B6D     		ldr	r3, [r7, #84]
 197 0080 DB00     		lsl	r3, r3, #3
 198 0082 FA68     		ldr	r2, [r7, #12]
 199 0084 D318     		add	r3, r2, r3
 200 0086 1968     		ldr	r1, [r3]
 201 0088 7B6B     		ldr	r3, [r7, #52]
ARM GAS  C:\Users\fneves\AppData\Local\Temp\ccZeqh7g.s 			page 9


 202 008a DB00     		lsl	r3, r3, #3
 203 008c FA68     		ldr	r2, [r7, #12]
 204 008e D318     		add	r3, r2, r3
 205 0090 1B68     		ldr	r3, [r3]
 206 0092 081C     		add	r0, r1, #0
 207 0094 191C     		add	r1, r3, #0
 208 0096 FFF7FEFF 		bl	__aeabi_fsub
 209 009a 031C     		add	r3, r0, #0
 210 009c FB62     		str	r3, [r7, #44]
 256:Source\TransformFunctions/arm_cfft_radix2_f32.c **** 
 257:Source\TransformFunctions/arm_cfft_radix2_f32.c ****             yt = pSrc[2 * i + 1] - pSrc[2 * l + 1];
 211              		.loc 1 257 0 discriminator 1
 212 009e 7B6D     		ldr	r3, [r7, #84]
 213 00a0 DB00     		lsl	r3, r3, #3
 214 00a2 0433     		add	r3, r3, #4
 215 00a4 FA68     		ldr	r2, [r7, #12]
 216 00a6 D318     		add	r3, r2, r3
 217 00a8 1968     		ldr	r1, [r3]
 218 00aa 7B6B     		ldr	r3, [r7, #52]
 219 00ac DB00     		lsl	r3, r3, #3
 220 00ae 0433     		add	r3, r3, #4
 221 00b0 FA68     		ldr	r2, [r7, #12]
 222 00b2 D318     		add	r3, r2, r3
 223 00b4 1B68     		ldr	r3, [r3]
 224 00b6 081C     		add	r0, r1, #0
 225 00b8 191C     		add	r1, r3, #0
 226 00ba FFF7FEFF 		bl	__aeabi_fsub
 227 00be 031C     		add	r3, r0, #0
 228 00c0 BB62     		str	r3, [r7, #40]
 258:Source\TransformFunctions/arm_cfft_radix2_f32.c ****             a1 = pSrc[2 * l + 1] + pSrc[2 * i + 1];
 229              		.loc 1 258 0 discriminator 1
 230 00c2 7B6B     		ldr	r3, [r7, #52]
 231 00c4 DB00     		lsl	r3, r3, #3
 232 00c6 0433     		add	r3, r3, #4
 233 00c8 FA68     		ldr	r2, [r7, #12]
 234 00ca D318     		add	r3, r2, r3
 235 00cc 1968     		ldr	r1, [r3]
 236 00ce 7B6D     		ldr	r3, [r7, #84]
 237 00d0 DB00     		lsl	r3, r3, #3
 238 00d2 0433     		add	r3, r3, #4
 239 00d4 FA68     		ldr	r2, [r7, #12]
 240 00d6 D318     		add	r3, r2, r3
 241 00d8 1B68     		ldr	r3, [r3]
 242 00da 081C     		add	r0, r1, #0
 243 00dc 191C     		add	r1, r3, #0
 244 00de FFF7FEFF 		bl	__aeabi_fadd
 245 00e2 031C     		add	r3, r0, #0
 246 00e4 7B62     		str	r3, [r7, #36]
 259:Source\TransformFunctions/arm_cfft_radix2_f32.c **** 
 260:Source\TransformFunctions/arm_cfft_radix2_f32.c ****             p0 = xt * cosVal;
 247              		.loc 1 260 0 discriminator 1
 248 00e6 F86A     		ldr	r0, [r7, #44]
 249 00e8 F96B     		ldr	r1, [r7, #60]
 250 00ea FFF7FEFF 		bl	__aeabi_fmul
 251 00ee 031C     		add	r3, r0, #0
 252 00f0 3B62     		str	r3, [r7, #32]
 261:Source\TransformFunctions/arm_cfft_radix2_f32.c ****             p1 = yt * sinVal;
ARM GAS  C:\Users\fneves\AppData\Local\Temp\ccZeqh7g.s 			page 10


 253              		.loc 1 261 0 discriminator 1
 254 00f2 B86A     		ldr	r0, [r7, #40]
 255 00f4 B96B     		ldr	r1, [r7, #56]
 256 00f6 FFF7FEFF 		bl	__aeabi_fmul
 257 00fa 031C     		add	r3, r0, #0
 258 00fc FB61     		str	r3, [r7, #28]
 262:Source\TransformFunctions/arm_cfft_radix2_f32.c ****             p2 = yt * cosVal;
 259              		.loc 1 262 0 discriminator 1
 260 00fe B86A     		ldr	r0, [r7, #40]
 261 0100 F96B     		ldr	r1, [r7, #60]
 262 0102 FFF7FEFF 		bl	__aeabi_fmul
 263 0106 031C     		add	r3, r0, #0
 264 0108 BB61     		str	r3, [r7, #24]
 263:Source\TransformFunctions/arm_cfft_radix2_f32.c ****             p3 = xt * sinVal;
 265              		.loc 1 263 0 discriminator 1
 266 010a F86A     		ldr	r0, [r7, #44]
 267 010c B96B     		ldr	r1, [r7, #56]
 268 010e FFF7FEFF 		bl	__aeabi_fmul
 269 0112 031C     		add	r3, r0, #0
 270 0114 7B61     		str	r3, [r7, #20]
 264:Source\TransformFunctions/arm_cfft_radix2_f32.c **** 
 265:Source\TransformFunctions/arm_cfft_radix2_f32.c ****             pSrc[2 * i] = a0;
 271              		.loc 1 265 0 discriminator 1
 272 0116 7B6D     		ldr	r3, [r7, #84]
 273 0118 DB00     		lsl	r3, r3, #3
 274 011a FA68     		ldr	r2, [r7, #12]
 275 011c D318     		add	r3, r2, r3
 276 011e 3A6B     		ldr	r2, [r7, #48]
 277 0120 1A60     		str	r2, [r3]
 266:Source\TransformFunctions/arm_cfft_radix2_f32.c ****             pSrc[2 * i + 1] = a1;
 278              		.loc 1 266 0 discriminator 1
 279 0122 7B6D     		ldr	r3, [r7, #84]
 280 0124 DB00     		lsl	r3, r3, #3
 281 0126 0433     		add	r3, r3, #4
 282 0128 FA68     		ldr	r2, [r7, #12]
 283 012a D318     		add	r3, r2, r3
 284 012c 7A6A     		ldr	r2, [r7, #36]
 285 012e 1A60     		str	r2, [r3]
 267:Source\TransformFunctions/arm_cfft_radix2_f32.c **** 
 268:Source\TransformFunctions/arm_cfft_radix2_f32.c ****             pSrc[2 * l]     = p0 + p1;
 286              		.loc 1 268 0 discriminator 1
 287 0130 7B6B     		ldr	r3, [r7, #52]
 288 0132 DB00     		lsl	r3, r3, #3
 289 0134 FA68     		ldr	r2, [r7, #12]
 290 0136 D418     		add	r4, r2, r3
 291 0138 386A     		ldr	r0, [r7, #32]
 292 013a F969     		ldr	r1, [r7, #28]
 293 013c FFF7FEFF 		bl	__aeabi_fadd
 294 0140 031C     		add	r3, r0, #0
 295 0142 2360     		str	r3, [r4]
 269:Source\TransformFunctions/arm_cfft_radix2_f32.c ****             pSrc[2 * l + 1] = p2 - p3;
 296              		.loc 1 269 0 discriminator 1
 297 0144 7B6B     		ldr	r3, [r7, #52]
 298 0146 DB00     		lsl	r3, r3, #3
 299 0148 0433     		add	r3, r3, #4
 300 014a FA68     		ldr	r2, [r7, #12]
 301 014c D418     		add	r4, r2, r3
ARM GAS  C:\Users\fneves\AppData\Local\Temp\ccZeqh7g.s 			page 11


 302 014e B869     		ldr	r0, [r7, #24]
 303 0150 7969     		ldr	r1, [r7, #20]
 304 0152 FFF7FEFF 		bl	__aeabi_fsub
 305 0156 031C     		add	r3, r0, #0
 306 0158 2360     		str	r3, [r4]
 270:Source\TransformFunctions/arm_cfft_radix2_f32.c **** 
 271:Source\TransformFunctions/arm_cfft_radix2_f32.c ****             i += n1;
 307              		.loc 1 271 0 discriminator 1
 308 015a 7A6D     		ldr	r2, [r7, #84]
 309 015c 3B6C     		ldr	r3, [r7, #64]
 310 015e D318     		add	r3, r2, r3
 311 0160 7B65     		str	r3, [r7, #84]
 272:Source\TransformFunctions/arm_cfft_radix2_f32.c ****          } while (i < fftLen);
 312              		.loc 1 272 0 discriminator 1
 313 0162 7A6D     		ldr	r2, [r7, #84]
 314 0164 BB68     		ldr	r3, [r7, #8]
 315 0166 9A42     		cmp	r2, r3
 316 0168 00D2     		bcs	.LCB264
 317 016a 74E7     		b	.L7	@long jump
 318              	.LCB264:
 273:Source\TransformFunctions/arm_cfft_radix2_f32.c ****          j++;
 319              		.loc 1 273 0
 320 016c 3B6D     		ldr	r3, [r7, #80]
 321 016e 0133     		add	r3, r3, #1
 322 0170 3B65     		str	r3, [r7, #80]
 274:Source\TransformFunctions/arm_cfft_radix2_f32.c ****       } while (j < n2);
 323              		.loc 1 274 0
 324 0172 3A6D     		ldr	r2, [r7, #80]
 325 0174 BB6C     		ldr	r3, [r7, #72]
 326 0176 9A42     		cmp	r2, r3
 327 0178 00D2     		bcs	.LCB271
 328 017a 58E7     		b	.L8	@long jump
 329              	.LCB271:
 275:Source\TransformFunctions/arm_cfft_radix2_f32.c ****       twidCoefModifier <<= 1u;
 330              		.loc 1 275 0 discriminator 2
 331 017c BA1C     		add	r2, r7, #2
 332 017e BB1C     		add	r3, r7, #2
 333 0180 1B88     		ldrh	r3, [r3]
 334 0182 DB18     		add	r3, r3, r3
 335 0184 1380     		strh	r3, [r2]
 235:Source\TransformFunctions/arm_cfft_radix2_f32.c ****    {
 336              		.loc 1 235 0 discriminator 2
 337 0186 FB6C     		ldr	r3, [r7, #76]
 338 0188 5B08     		lsr	r3, r3, #1
 339 018a FB64     		str	r3, [r7, #76]
 340              	.L6:
 235:Source\TransformFunctions/arm_cfft_radix2_f32.c ****    {
 341              		.loc 1 235 0 is_stmt 0 discriminator 1
 342 018c FB6C     		ldr	r3, [r7, #76]
 343 018e 012B     		cmp	r3, #1
 344 0190 00D9     		bls	.LCB284
 345 0192 43E7     		b	.L9	@long jump
 346              	.LCB284:
 276:Source\TransformFunctions/arm_cfft_radix2_f32.c ****    }
 277:Source\TransformFunctions/arm_cfft_radix2_f32.c **** 
 278:Source\TransformFunctions/arm_cfft_radix2_f32.c **** #endif //    #if defined (ARM_MATH_DSP)
 279:Source\TransformFunctions/arm_cfft_radix2_f32.c **** 
ARM GAS  C:\Users\fneves\AppData\Local\Temp\ccZeqh7g.s 			page 12


 280:Source\TransformFunctions/arm_cfft_radix2_f32.c **** }
 347              		.loc 1 280 0 is_stmt 1
 348 0194 BD46     		mov	sp, r7
 349 0196 17B0     		add	sp, sp, #92
 350              		@ sp needed
 351 0198 90BD     		pop	{r4, r7, pc}
 352              		.cfi_endproc
 353              	.LFE83:
 354              		.size	arm_radix2_butterfly_f32, .-arm_radix2_butterfly_f32
 355 019a C046     		.section	.text.arm_radix2_butterfly_inverse_f32,"ax",%progbits
 356              		.align	2
 357              		.global	arm_radix2_butterfly_inverse_f32
 358              		.code	16
 359              		.thumb_func
 360              		.type	arm_radix2_butterfly_inverse_f32, %function
 361              	arm_radix2_butterfly_inverse_f32:
 362              	.LFB84:
 281:Source\TransformFunctions/arm_cfft_radix2_f32.c **** 
 282:Source\TransformFunctions/arm_cfft_radix2_f32.c **** 
 283:Source\TransformFunctions/arm_cfft_radix2_f32.c **** void arm_radix2_butterfly_inverse_f32(
 284:Source\TransformFunctions/arm_cfft_radix2_f32.c **** float32_t * pSrc,
 285:Source\TransformFunctions/arm_cfft_radix2_f32.c **** uint32_t fftLen,
 286:Source\TransformFunctions/arm_cfft_radix2_f32.c **** float32_t * pCoef,
 287:Source\TransformFunctions/arm_cfft_radix2_f32.c **** uint16_t twidCoefModifier,
 288:Source\TransformFunctions/arm_cfft_radix2_f32.c **** float32_t onebyfftLen)
 289:Source\TransformFunctions/arm_cfft_radix2_f32.c **** {
 363              		.loc 1 289 0
 364              		.cfi_startproc
 365 0000 90B5     		push	{r4, r7, lr}
 366              		.cfi_def_cfa_offset 12
 367              		.cfi_offset 4, -12
 368              		.cfi_offset 7, -8
 369              		.cfi_offset 14, -4
 370 0002 97B0     		sub	sp, sp, #92
 371              		.cfi_def_cfa_offset 104
 372 0004 00AF     		add	r7, sp, #0
 373              		.cfi_def_cfa_register 7
 374 0006 F860     		str	r0, [r7, #12]
 375 0008 B960     		str	r1, [r7, #8]
 376 000a 7A60     		str	r2, [r7, #4]
 377 000c 1A1C     		mov	r2, r3
 378 000e BB1C     		add	r3, r7, #2
 379 0010 1A80     		strh	r2, [r3]
 290:Source\TransformFunctions/arm_cfft_radix2_f32.c **** 
 291:Source\TransformFunctions/arm_cfft_radix2_f32.c ****    uint32_t i, j, k, l;
 292:Source\TransformFunctions/arm_cfft_radix2_f32.c ****    uint32_t n1, n2, ia;
 293:Source\TransformFunctions/arm_cfft_radix2_f32.c ****    float32_t xt, yt, cosVal, sinVal;
 294:Source\TransformFunctions/arm_cfft_radix2_f32.c ****    float32_t p0, p1, p2, p3;
 295:Source\TransformFunctions/arm_cfft_radix2_f32.c ****    float32_t a0, a1;
 296:Source\TransformFunctions/arm_cfft_radix2_f32.c **** 
 297:Source\TransformFunctions/arm_cfft_radix2_f32.c **** #if defined (ARM_MATH_DSP)
 298:Source\TransformFunctions/arm_cfft_radix2_f32.c **** 
 299:Source\TransformFunctions/arm_cfft_radix2_f32.c ****    n2 = fftLen >> 1;
 300:Source\TransformFunctions/arm_cfft_radix2_f32.c ****    ia = 0;
 301:Source\TransformFunctions/arm_cfft_radix2_f32.c **** 
 302:Source\TransformFunctions/arm_cfft_radix2_f32.c ****    // loop for groups
 303:Source\TransformFunctions/arm_cfft_radix2_f32.c ****    for (i = 0; i < n2; i++)
ARM GAS  C:\Users\fneves\AppData\Local\Temp\ccZeqh7g.s 			page 13


 304:Source\TransformFunctions/arm_cfft_radix2_f32.c ****    {
 305:Source\TransformFunctions/arm_cfft_radix2_f32.c ****       cosVal = pCoef[ia * 2];
 306:Source\TransformFunctions/arm_cfft_radix2_f32.c ****       sinVal = pCoef[(ia * 2) + 1];
 307:Source\TransformFunctions/arm_cfft_radix2_f32.c ****       ia += twidCoefModifier;
 308:Source\TransformFunctions/arm_cfft_radix2_f32.c **** 
 309:Source\TransformFunctions/arm_cfft_radix2_f32.c ****       l = i + n2;
 310:Source\TransformFunctions/arm_cfft_radix2_f32.c ****       a0 = pSrc[2 * i] + pSrc[2 * l];
 311:Source\TransformFunctions/arm_cfft_radix2_f32.c ****       xt = pSrc[2 * i] - pSrc[2 * l];
 312:Source\TransformFunctions/arm_cfft_radix2_f32.c **** 
 313:Source\TransformFunctions/arm_cfft_radix2_f32.c ****       yt = pSrc[2 * i + 1] - pSrc[2 * l + 1];
 314:Source\TransformFunctions/arm_cfft_radix2_f32.c ****       a1 = pSrc[2 * l + 1] + pSrc[2 * i + 1];
 315:Source\TransformFunctions/arm_cfft_radix2_f32.c **** 
 316:Source\TransformFunctions/arm_cfft_radix2_f32.c ****       p0 = xt * cosVal;
 317:Source\TransformFunctions/arm_cfft_radix2_f32.c ****       p1 = yt * sinVal;
 318:Source\TransformFunctions/arm_cfft_radix2_f32.c ****       p2 = yt * cosVal;
 319:Source\TransformFunctions/arm_cfft_radix2_f32.c ****       p3 = xt * sinVal;
 320:Source\TransformFunctions/arm_cfft_radix2_f32.c **** 
 321:Source\TransformFunctions/arm_cfft_radix2_f32.c ****       pSrc[2 * i] = a0;
 322:Source\TransformFunctions/arm_cfft_radix2_f32.c ****       pSrc[2 * i + 1] = a1;
 323:Source\TransformFunctions/arm_cfft_radix2_f32.c **** 
 324:Source\TransformFunctions/arm_cfft_radix2_f32.c ****       pSrc[2 * l]     = p0 - p1;
 325:Source\TransformFunctions/arm_cfft_radix2_f32.c ****       pSrc[2 * l + 1] = p2 + p3;
 326:Source\TransformFunctions/arm_cfft_radix2_f32.c ****    }                             // groups loop end
 327:Source\TransformFunctions/arm_cfft_radix2_f32.c **** 
 328:Source\TransformFunctions/arm_cfft_radix2_f32.c ****    twidCoefModifier <<= 1u;
 329:Source\TransformFunctions/arm_cfft_radix2_f32.c **** 
 330:Source\TransformFunctions/arm_cfft_radix2_f32.c ****    // loop for stage
 331:Source\TransformFunctions/arm_cfft_radix2_f32.c ****    for (k = fftLen / 2; k > 2; k = k >> 1)
 332:Source\TransformFunctions/arm_cfft_radix2_f32.c ****    {
 333:Source\TransformFunctions/arm_cfft_radix2_f32.c ****       n1 = n2;
 334:Source\TransformFunctions/arm_cfft_radix2_f32.c ****       n2 = n2 >> 1;
 335:Source\TransformFunctions/arm_cfft_radix2_f32.c ****       ia = 0;
 336:Source\TransformFunctions/arm_cfft_radix2_f32.c **** 
 337:Source\TransformFunctions/arm_cfft_radix2_f32.c ****       // loop for groups
 338:Source\TransformFunctions/arm_cfft_radix2_f32.c ****       j = 0;
 339:Source\TransformFunctions/arm_cfft_radix2_f32.c ****       do
 340:Source\TransformFunctions/arm_cfft_radix2_f32.c ****       {
 341:Source\TransformFunctions/arm_cfft_radix2_f32.c ****          cosVal = pCoef[ia * 2];
 342:Source\TransformFunctions/arm_cfft_radix2_f32.c ****          sinVal = pCoef[(ia * 2) + 1];
 343:Source\TransformFunctions/arm_cfft_radix2_f32.c ****          ia += twidCoefModifier;
 344:Source\TransformFunctions/arm_cfft_radix2_f32.c **** 
 345:Source\TransformFunctions/arm_cfft_radix2_f32.c ****          // loop for butterfly
 346:Source\TransformFunctions/arm_cfft_radix2_f32.c ****          i = j;
 347:Source\TransformFunctions/arm_cfft_radix2_f32.c ****          do
 348:Source\TransformFunctions/arm_cfft_radix2_f32.c ****          {
 349:Source\TransformFunctions/arm_cfft_radix2_f32.c ****             l = i + n2;
 350:Source\TransformFunctions/arm_cfft_radix2_f32.c ****             a0 = pSrc[2 * i] + pSrc[2 * l];
 351:Source\TransformFunctions/arm_cfft_radix2_f32.c ****             xt = pSrc[2 * i] - pSrc[2 * l];
 352:Source\TransformFunctions/arm_cfft_radix2_f32.c **** 
 353:Source\TransformFunctions/arm_cfft_radix2_f32.c ****             yt = pSrc[2 * i + 1] - pSrc[2 * l + 1];
 354:Source\TransformFunctions/arm_cfft_radix2_f32.c ****             a1 = pSrc[2 * l + 1] + pSrc[2 * i + 1];
 355:Source\TransformFunctions/arm_cfft_radix2_f32.c **** 
 356:Source\TransformFunctions/arm_cfft_radix2_f32.c ****             p0 = xt * cosVal;
 357:Source\TransformFunctions/arm_cfft_radix2_f32.c ****             p1 = yt * sinVal;
 358:Source\TransformFunctions/arm_cfft_radix2_f32.c ****             p2 = yt * cosVal;
 359:Source\TransformFunctions/arm_cfft_radix2_f32.c ****             p3 = xt * sinVal;
 360:Source\TransformFunctions/arm_cfft_radix2_f32.c **** 
ARM GAS  C:\Users\fneves\AppData\Local\Temp\ccZeqh7g.s 			page 14


 361:Source\TransformFunctions/arm_cfft_radix2_f32.c ****             pSrc[2 * i] = a0;
 362:Source\TransformFunctions/arm_cfft_radix2_f32.c ****             pSrc[2 * i + 1] = a1;
 363:Source\TransformFunctions/arm_cfft_radix2_f32.c **** 
 364:Source\TransformFunctions/arm_cfft_radix2_f32.c ****             pSrc[2 * l]     = p0 - p1;
 365:Source\TransformFunctions/arm_cfft_radix2_f32.c ****             pSrc[2 * l + 1] = p2 + p3;
 366:Source\TransformFunctions/arm_cfft_radix2_f32.c **** 
 367:Source\TransformFunctions/arm_cfft_radix2_f32.c ****             i += n1;
 368:Source\TransformFunctions/arm_cfft_radix2_f32.c ****          } while ( i < fftLen );                 // butterfly loop end
 369:Source\TransformFunctions/arm_cfft_radix2_f32.c ****          j++;
 370:Source\TransformFunctions/arm_cfft_radix2_f32.c ****       } while (j < n2);                      // groups loop end
 371:Source\TransformFunctions/arm_cfft_radix2_f32.c **** 
 372:Source\TransformFunctions/arm_cfft_radix2_f32.c ****       twidCoefModifier <<= 1u;
 373:Source\TransformFunctions/arm_cfft_radix2_f32.c ****    }                             // stages loop end
 374:Source\TransformFunctions/arm_cfft_radix2_f32.c **** 
 375:Source\TransformFunctions/arm_cfft_radix2_f32.c ****    // loop for butterfly
 376:Source\TransformFunctions/arm_cfft_radix2_f32.c ****    for (i = 0; i < fftLen; i += 2)
 377:Source\TransformFunctions/arm_cfft_radix2_f32.c ****    {
 378:Source\TransformFunctions/arm_cfft_radix2_f32.c ****       a0 = pSrc[2 * i] + pSrc[2 * i + 2];
 379:Source\TransformFunctions/arm_cfft_radix2_f32.c ****       xt = pSrc[2 * i] - pSrc[2 * i + 2];
 380:Source\TransformFunctions/arm_cfft_radix2_f32.c **** 
 381:Source\TransformFunctions/arm_cfft_radix2_f32.c ****       a1 = pSrc[2 * i + 3] + pSrc[2 * i + 1];
 382:Source\TransformFunctions/arm_cfft_radix2_f32.c ****       yt = pSrc[2 * i + 1] - pSrc[2 * i + 3];
 383:Source\TransformFunctions/arm_cfft_radix2_f32.c **** 
 384:Source\TransformFunctions/arm_cfft_radix2_f32.c ****       p0 = a0 * onebyfftLen;
 385:Source\TransformFunctions/arm_cfft_radix2_f32.c ****       p2 = xt * onebyfftLen;
 386:Source\TransformFunctions/arm_cfft_radix2_f32.c ****       p1 = a1 * onebyfftLen;
 387:Source\TransformFunctions/arm_cfft_radix2_f32.c ****       p3 = yt * onebyfftLen;
 388:Source\TransformFunctions/arm_cfft_radix2_f32.c **** 
 389:Source\TransformFunctions/arm_cfft_radix2_f32.c ****       pSrc[2 * i] = p0;
 390:Source\TransformFunctions/arm_cfft_radix2_f32.c ****       pSrc[2 * i + 1] = p1;
 391:Source\TransformFunctions/arm_cfft_radix2_f32.c ****       pSrc[2 * i + 2] = p2;
 392:Source\TransformFunctions/arm_cfft_radix2_f32.c ****       pSrc[2 * i + 3] = p3;
 393:Source\TransformFunctions/arm_cfft_radix2_f32.c ****    }                             // butterfly loop end
 394:Source\TransformFunctions/arm_cfft_radix2_f32.c **** 
 395:Source\TransformFunctions/arm_cfft_radix2_f32.c **** #else
 396:Source\TransformFunctions/arm_cfft_radix2_f32.c **** 
 397:Source\TransformFunctions/arm_cfft_radix2_f32.c ****    n2 = fftLen;
 380              		.loc 1 397 0
 381 0012 BB68     		ldr	r3, [r7, #8]
 382 0014 BB64     		str	r3, [r7, #72]
 398:Source\TransformFunctions/arm_cfft_radix2_f32.c **** 
 399:Source\TransformFunctions/arm_cfft_radix2_f32.c ****    // loop for stage
 400:Source\TransformFunctions/arm_cfft_radix2_f32.c ****    for (k = fftLen; k > 2; k = k >> 1)
 383              		.loc 1 400 0
 384 0016 BB68     		ldr	r3, [r7, #8]
 385 0018 FB64     		str	r3, [r7, #76]
 386 001a B7E0     		b	.L11
 387              	.L14:
 401:Source\TransformFunctions/arm_cfft_radix2_f32.c ****    {
 402:Source\TransformFunctions/arm_cfft_radix2_f32.c ****       n1 = n2;
 388              		.loc 1 402 0
 389 001c BB6C     		ldr	r3, [r7, #72]
 390 001e 3B64     		str	r3, [r7, #64]
 403:Source\TransformFunctions/arm_cfft_radix2_f32.c ****       n2 = n2 >> 1;
 391              		.loc 1 403 0
 392 0020 BB6C     		ldr	r3, [r7, #72]
 393 0022 5B08     		lsr	r3, r3, #1
ARM GAS  C:\Users\fneves\AppData\Local\Temp\ccZeqh7g.s 			page 15


 394 0024 BB64     		str	r3, [r7, #72]
 404:Source\TransformFunctions/arm_cfft_radix2_f32.c ****       ia = 0;
 395              		.loc 1 404 0
 396 0026 0023     		mov	r3, #0
 397 0028 7B64     		str	r3, [r7, #68]
 405:Source\TransformFunctions/arm_cfft_radix2_f32.c **** 
 406:Source\TransformFunctions/arm_cfft_radix2_f32.c ****       // loop for groups
 407:Source\TransformFunctions/arm_cfft_radix2_f32.c ****       j = 0;
 398              		.loc 1 407 0
 399 002a 0023     		mov	r3, #0
 400 002c 3B65     		str	r3, [r7, #80]
 401              	.L13:
 408:Source\TransformFunctions/arm_cfft_radix2_f32.c ****       do
 409:Source\TransformFunctions/arm_cfft_radix2_f32.c ****       {
 410:Source\TransformFunctions/arm_cfft_radix2_f32.c ****          cosVal = pCoef[ia * 2];
 402              		.loc 1 410 0
 403 002e 7B6C     		ldr	r3, [r7, #68]
 404 0030 DB00     		lsl	r3, r3, #3
 405 0032 7A68     		ldr	r2, [r7, #4]
 406 0034 D318     		add	r3, r2, r3
 407 0036 1B68     		ldr	r3, [r3]
 408 0038 FB63     		str	r3, [r7, #60]
 411:Source\TransformFunctions/arm_cfft_radix2_f32.c ****          sinVal = pCoef[(ia * 2) + 1];
 409              		.loc 1 411 0
 410 003a 7B6C     		ldr	r3, [r7, #68]
 411 003c DB00     		lsl	r3, r3, #3
 412 003e 0433     		add	r3, r3, #4
 413 0040 7A68     		ldr	r2, [r7, #4]
 414 0042 D318     		add	r3, r2, r3
 415 0044 1B68     		ldr	r3, [r3]
 416 0046 BB63     		str	r3, [r7, #56]
 412:Source\TransformFunctions/arm_cfft_radix2_f32.c ****          ia = ia + twidCoefModifier;
 417              		.loc 1 412 0
 418 0048 BB1C     		add	r3, r7, #2
 419 004a 1B88     		ldrh	r3, [r3]
 420 004c 7A6C     		ldr	r2, [r7, #68]
 421 004e D318     		add	r3, r2, r3
 422 0050 7B64     		str	r3, [r7, #68]
 413:Source\TransformFunctions/arm_cfft_radix2_f32.c **** 
 414:Source\TransformFunctions/arm_cfft_radix2_f32.c ****          // loop for butterfly
 415:Source\TransformFunctions/arm_cfft_radix2_f32.c ****          i = j;
 423              		.loc 1 415 0
 424 0052 3B6D     		ldr	r3, [r7, #80]
 425 0054 7B65     		str	r3, [r7, #84]
 426              	.L12:
 416:Source\TransformFunctions/arm_cfft_radix2_f32.c ****          do
 417:Source\TransformFunctions/arm_cfft_radix2_f32.c ****          {
 418:Source\TransformFunctions/arm_cfft_radix2_f32.c ****             l = i + n2;
 427              		.loc 1 418 0 discriminator 1
 428 0056 7A6D     		ldr	r2, [r7, #84]
 429 0058 BB6C     		ldr	r3, [r7, #72]
 430 005a D318     		add	r3, r2, r3
 431 005c 7B63     		str	r3, [r7, #52]
 419:Source\TransformFunctions/arm_cfft_radix2_f32.c ****             a0 = pSrc[2 * i] + pSrc[2 * l];
 432              		.loc 1 419 0 discriminator 1
 433 005e 7B6D     		ldr	r3, [r7, #84]
 434 0060 DB00     		lsl	r3, r3, #3
ARM GAS  C:\Users\fneves\AppData\Local\Temp\ccZeqh7g.s 			page 16


 435 0062 FA68     		ldr	r2, [r7, #12]
 436 0064 D318     		add	r3, r2, r3
 437 0066 1968     		ldr	r1, [r3]
 438 0068 7B6B     		ldr	r3, [r7, #52]
 439 006a DB00     		lsl	r3, r3, #3
 440 006c FA68     		ldr	r2, [r7, #12]
 441 006e D318     		add	r3, r2, r3
 442 0070 1B68     		ldr	r3, [r3]
 443 0072 081C     		add	r0, r1, #0
 444 0074 191C     		add	r1, r3, #0
 445 0076 FFF7FEFF 		bl	__aeabi_fadd
 446 007a 031C     		add	r3, r0, #0
 447 007c 3B63     		str	r3, [r7, #48]
 420:Source\TransformFunctions/arm_cfft_radix2_f32.c ****             xt = pSrc[2 * i] - pSrc[2 * l];
 448              		.loc 1 420 0 discriminator 1
 449 007e 7B6D     		ldr	r3, [r7, #84]
 450 0080 DB00     		lsl	r3, r3, #3
 451 0082 FA68     		ldr	r2, [r7, #12]
 452 0084 D318     		add	r3, r2, r3
 453 0086 1968     		ldr	r1, [r3]
 454 0088 7B6B     		ldr	r3, [r7, #52]
 455 008a DB00     		lsl	r3, r3, #3
 456 008c FA68     		ldr	r2, [r7, #12]
 457 008e D318     		add	r3, r2, r3
 458 0090 1B68     		ldr	r3, [r3]
 459 0092 081C     		add	r0, r1, #0
 460 0094 191C     		add	r1, r3, #0
 461 0096 FFF7FEFF 		bl	__aeabi_fsub
 462 009a 031C     		add	r3, r0, #0
 463 009c FB62     		str	r3, [r7, #44]
 421:Source\TransformFunctions/arm_cfft_radix2_f32.c **** 
 422:Source\TransformFunctions/arm_cfft_radix2_f32.c ****             yt = pSrc[2 * i + 1] - pSrc[2 * l + 1];
 464              		.loc 1 422 0 discriminator 1
 465 009e 7B6D     		ldr	r3, [r7, #84]
 466 00a0 DB00     		lsl	r3, r3, #3
 467 00a2 0433     		add	r3, r3, #4
 468 00a4 FA68     		ldr	r2, [r7, #12]
 469 00a6 D318     		add	r3, r2, r3
 470 00a8 1968     		ldr	r1, [r3]
 471 00aa 7B6B     		ldr	r3, [r7, #52]
 472 00ac DB00     		lsl	r3, r3, #3
 473 00ae 0433     		add	r3, r3, #4
 474 00b0 FA68     		ldr	r2, [r7, #12]
 475 00b2 D318     		add	r3, r2, r3
 476 00b4 1B68     		ldr	r3, [r3]
 477 00b6 081C     		add	r0, r1, #0
 478 00b8 191C     		add	r1, r3, #0
 479 00ba FFF7FEFF 		bl	__aeabi_fsub
 480 00be 031C     		add	r3, r0, #0
 481 00c0 BB62     		str	r3, [r7, #40]
 423:Source\TransformFunctions/arm_cfft_radix2_f32.c ****             a1 = pSrc[2 * l + 1] + pSrc[2 * i + 1];
 482              		.loc 1 423 0 discriminator 1
 483 00c2 7B6B     		ldr	r3, [r7, #52]
 484 00c4 DB00     		lsl	r3, r3, #3
 485 00c6 0433     		add	r3, r3, #4
 486 00c8 FA68     		ldr	r2, [r7, #12]
 487 00ca D318     		add	r3, r2, r3
ARM GAS  C:\Users\fneves\AppData\Local\Temp\ccZeqh7g.s 			page 17


 488 00cc 1968     		ldr	r1, [r3]
 489 00ce 7B6D     		ldr	r3, [r7, #84]
 490 00d0 DB00     		lsl	r3, r3, #3
 491 00d2 0433     		add	r3, r3, #4
 492 00d4 FA68     		ldr	r2, [r7, #12]
 493 00d6 D318     		add	r3, r2, r3
 494 00d8 1B68     		ldr	r3, [r3]
 495 00da 081C     		add	r0, r1, #0
 496 00dc 191C     		add	r1, r3, #0
 497 00de FFF7FEFF 		bl	__aeabi_fadd
 498 00e2 031C     		add	r3, r0, #0
 499 00e4 7B62     		str	r3, [r7, #36]
 424:Source\TransformFunctions/arm_cfft_radix2_f32.c **** 
 425:Source\TransformFunctions/arm_cfft_radix2_f32.c ****             p0 = xt * cosVal;
 500              		.loc 1 425 0 discriminator 1
 501 00e6 F86A     		ldr	r0, [r7, #44]
 502 00e8 F96B     		ldr	r1, [r7, #60]
 503 00ea FFF7FEFF 		bl	__aeabi_fmul
 504 00ee 031C     		add	r3, r0, #0
 505 00f0 3B62     		str	r3, [r7, #32]
 426:Source\TransformFunctions/arm_cfft_radix2_f32.c ****             p1 = yt * sinVal;
 506              		.loc 1 426 0 discriminator 1
 507 00f2 B86A     		ldr	r0, [r7, #40]
 508 00f4 B96B     		ldr	r1, [r7, #56]
 509 00f6 FFF7FEFF 		bl	__aeabi_fmul
 510 00fa 031C     		add	r3, r0, #0
 511 00fc FB61     		str	r3, [r7, #28]
 427:Source\TransformFunctions/arm_cfft_radix2_f32.c ****             p2 = yt * cosVal;
 512              		.loc 1 427 0 discriminator 1
 513 00fe B86A     		ldr	r0, [r7, #40]
 514 0100 F96B     		ldr	r1, [r7, #60]
 515 0102 FFF7FEFF 		bl	__aeabi_fmul
 516 0106 031C     		add	r3, r0, #0
 517 0108 BB61     		str	r3, [r7, #24]
 428:Source\TransformFunctions/arm_cfft_radix2_f32.c ****             p3 = xt * sinVal;
 518              		.loc 1 428 0 discriminator 1
 519 010a F86A     		ldr	r0, [r7, #44]
 520 010c B96B     		ldr	r1, [r7, #56]
 521 010e FFF7FEFF 		bl	__aeabi_fmul
 522 0112 031C     		add	r3, r0, #0
 523 0114 7B61     		str	r3, [r7, #20]
 429:Source\TransformFunctions/arm_cfft_radix2_f32.c **** 
 430:Source\TransformFunctions/arm_cfft_radix2_f32.c ****             pSrc[2 * i] = a0;
 524              		.loc 1 430 0 discriminator 1
 525 0116 7B6D     		ldr	r3, [r7, #84]
 526 0118 DB00     		lsl	r3, r3, #3
 527 011a FA68     		ldr	r2, [r7, #12]
 528 011c D318     		add	r3, r2, r3
 529 011e 3A6B     		ldr	r2, [r7, #48]
 530 0120 1A60     		str	r2, [r3]
 431:Source\TransformFunctions/arm_cfft_radix2_f32.c ****             pSrc[2 * i + 1] = a1;
 531              		.loc 1 431 0 discriminator 1
 532 0122 7B6D     		ldr	r3, [r7, #84]
 533 0124 DB00     		lsl	r3, r3, #3
 534 0126 0433     		add	r3, r3, #4
 535 0128 FA68     		ldr	r2, [r7, #12]
 536 012a D318     		add	r3, r2, r3
ARM GAS  C:\Users\fneves\AppData\Local\Temp\ccZeqh7g.s 			page 18


 537 012c 7A6A     		ldr	r2, [r7, #36]
 538 012e 1A60     		str	r2, [r3]
 432:Source\TransformFunctions/arm_cfft_radix2_f32.c **** 
 433:Source\TransformFunctions/arm_cfft_radix2_f32.c ****             pSrc[2 * l]     = p0 - p1;
 539              		.loc 1 433 0 discriminator 1
 540 0130 7B6B     		ldr	r3, [r7, #52]
 541 0132 DB00     		lsl	r3, r3, #3
 542 0134 FA68     		ldr	r2, [r7, #12]
 543 0136 D418     		add	r4, r2, r3
 544 0138 386A     		ldr	r0, [r7, #32]
 545 013a F969     		ldr	r1, [r7, #28]
 546 013c FFF7FEFF 		bl	__aeabi_fsub
 547 0140 031C     		add	r3, r0, #0
 548 0142 2360     		str	r3, [r4]
 434:Source\TransformFunctions/arm_cfft_radix2_f32.c ****             pSrc[2 * l + 1] = p2 + p3;
 549              		.loc 1 434 0 discriminator 1
 550 0144 7B6B     		ldr	r3, [r7, #52]
 551 0146 DB00     		lsl	r3, r3, #3
 552 0148 0433     		add	r3, r3, #4
 553 014a FA68     		ldr	r2, [r7, #12]
 554 014c D418     		add	r4, r2, r3
 555 014e B869     		ldr	r0, [r7, #24]
 556 0150 7969     		ldr	r1, [r7, #20]
 557 0152 FFF7FEFF 		bl	__aeabi_fadd
 558 0156 031C     		add	r3, r0, #0
 559 0158 2360     		str	r3, [r4]
 435:Source\TransformFunctions/arm_cfft_radix2_f32.c **** 
 436:Source\TransformFunctions/arm_cfft_radix2_f32.c ****             i += n1;
 560              		.loc 1 436 0 discriminator 1
 561 015a 7A6D     		ldr	r2, [r7, #84]
 562 015c 3B6C     		ldr	r3, [r7, #64]
 563 015e D318     		add	r3, r2, r3
 564 0160 7B65     		str	r3, [r7, #84]
 437:Source\TransformFunctions/arm_cfft_radix2_f32.c ****          } while ( i < fftLen );                    // butterfly loop end
 565              		.loc 1 437 0 discriminator 1
 566 0162 7A6D     		ldr	r2, [r7, #84]
 567 0164 BB68     		ldr	r3, [r7, #8]
 568 0166 9A42     		cmp	r2, r3
 569 0168 00D2     		bcs	.LCB482
 570 016a 74E7     		b	.L12	@long jump
 571              	.LCB482:
 438:Source\TransformFunctions/arm_cfft_radix2_f32.c ****          j++;
 572              		.loc 1 438 0
 573 016c 3B6D     		ldr	r3, [r7, #80]
 574 016e 0133     		add	r3, r3, #1
 575 0170 3B65     		str	r3, [r7, #80]
 439:Source\TransformFunctions/arm_cfft_radix2_f32.c ****       } while ( j < n2 );                      // groups loop end
 576              		.loc 1 439 0
 577 0172 3A6D     		ldr	r2, [r7, #80]
 578 0174 BB6C     		ldr	r3, [r7, #72]
 579 0176 9A42     		cmp	r2, r3
 580 0178 00D2     		bcs	.LCB489
 581 017a 58E7     		b	.L13	@long jump
 582              	.LCB489:
 440:Source\TransformFunctions/arm_cfft_radix2_f32.c **** 
 441:Source\TransformFunctions/arm_cfft_radix2_f32.c ****       twidCoefModifier = twidCoefModifier << 1u;
 583              		.loc 1 441 0 discriminator 2
ARM GAS  C:\Users\fneves\AppData\Local\Temp\ccZeqh7g.s 			page 19


 584 017c BA1C     		add	r2, r7, #2
 585 017e BB1C     		add	r3, r7, #2
 586 0180 1B88     		ldrh	r3, [r3]
 587 0182 DB18     		add	r3, r3, r3
 588 0184 1380     		strh	r3, [r2]
 400:Source\TransformFunctions/arm_cfft_radix2_f32.c ****    {
 589              		.loc 1 400 0 discriminator 2
 590 0186 FB6C     		ldr	r3, [r7, #76]
 591 0188 5B08     		lsr	r3, r3, #1
 592 018a FB64     		str	r3, [r7, #76]
 593              	.L11:
 400:Source\TransformFunctions/arm_cfft_radix2_f32.c ****    {
 594              		.loc 1 400 0 is_stmt 0 discriminator 1
 595 018c FB6C     		ldr	r3, [r7, #76]
 596 018e 022B     		cmp	r3, #2
 597 0190 00D9     		bls	.LCB502
 598 0192 43E7     		b	.L14	@long jump
 599              	.LCB502:
 442:Source\TransformFunctions/arm_cfft_radix2_f32.c ****    }                             // stages loop end
 443:Source\TransformFunctions/arm_cfft_radix2_f32.c **** 
 444:Source\TransformFunctions/arm_cfft_radix2_f32.c ****    n1 = n2;
 600              		.loc 1 444 0 is_stmt 1
 601 0194 BB6C     		ldr	r3, [r7, #72]
 602 0196 3B64     		str	r3, [r7, #64]
 445:Source\TransformFunctions/arm_cfft_radix2_f32.c ****    n2 = n2 >> 1;
 603              		.loc 1 445 0
 604 0198 BB6C     		ldr	r3, [r7, #72]
 605 019a 5B08     		lsr	r3, r3, #1
 606 019c BB64     		str	r3, [r7, #72]
 446:Source\TransformFunctions/arm_cfft_radix2_f32.c **** 
 447:Source\TransformFunctions/arm_cfft_radix2_f32.c ****    // loop for butterfly
 448:Source\TransformFunctions/arm_cfft_radix2_f32.c ****    for (i = 0; i < fftLen; i += n1)
 607              		.loc 1 448 0
 608 019e 0023     		mov	r3, #0
 609 01a0 7B65     		str	r3, [r7, #84]
 610 01a2 7DE0     		b	.L15
 611              	.L16:
 449:Source\TransformFunctions/arm_cfft_radix2_f32.c ****    {
 450:Source\TransformFunctions/arm_cfft_radix2_f32.c ****       l = i + n2;
 612              		.loc 1 450 0 discriminator 3
 613 01a4 7A6D     		ldr	r2, [r7, #84]
 614 01a6 BB6C     		ldr	r3, [r7, #72]
 615 01a8 D318     		add	r3, r2, r3
 616 01aa 7B63     		str	r3, [r7, #52]
 451:Source\TransformFunctions/arm_cfft_radix2_f32.c **** 
 452:Source\TransformFunctions/arm_cfft_radix2_f32.c ****       a0 = pSrc[2 * i] + pSrc[2 * l];
 617              		.loc 1 452 0 discriminator 3
 618 01ac 7B6D     		ldr	r3, [r7, #84]
 619 01ae DB00     		lsl	r3, r3, #3
 620 01b0 FA68     		ldr	r2, [r7, #12]
 621 01b2 D318     		add	r3, r2, r3
 622 01b4 1968     		ldr	r1, [r3]
 623 01b6 7B6B     		ldr	r3, [r7, #52]
 624 01b8 DB00     		lsl	r3, r3, #3
 625 01ba FA68     		ldr	r2, [r7, #12]
 626 01bc D318     		add	r3, r2, r3
 627 01be 1B68     		ldr	r3, [r3]
ARM GAS  C:\Users\fneves\AppData\Local\Temp\ccZeqh7g.s 			page 20


 628 01c0 081C     		add	r0, r1, #0
 629 01c2 191C     		add	r1, r3, #0
 630 01c4 FFF7FEFF 		bl	__aeabi_fadd
 631 01c8 031C     		add	r3, r0, #0
 632 01ca 3B63     		str	r3, [r7, #48]
 453:Source\TransformFunctions/arm_cfft_radix2_f32.c ****       xt = pSrc[2 * i] - pSrc[2 * l];
 633              		.loc 1 453 0 discriminator 3
 634 01cc 7B6D     		ldr	r3, [r7, #84]
 635 01ce DB00     		lsl	r3, r3, #3
 636 01d0 FA68     		ldr	r2, [r7, #12]
 637 01d2 D318     		add	r3, r2, r3
 638 01d4 1968     		ldr	r1, [r3]
 639 01d6 7B6B     		ldr	r3, [r7, #52]
 640 01d8 DB00     		lsl	r3, r3, #3
 641 01da FA68     		ldr	r2, [r7, #12]
 642 01dc D318     		add	r3, r2, r3
 643 01de 1B68     		ldr	r3, [r3]
 644 01e0 081C     		add	r0, r1, #0
 645 01e2 191C     		add	r1, r3, #0
 646 01e4 FFF7FEFF 		bl	__aeabi_fsub
 647 01e8 031C     		add	r3, r0, #0
 648 01ea FB62     		str	r3, [r7, #44]
 454:Source\TransformFunctions/arm_cfft_radix2_f32.c **** 
 455:Source\TransformFunctions/arm_cfft_radix2_f32.c ****       a1 = pSrc[2 * l + 1] + pSrc[2 * i + 1];
 649              		.loc 1 455 0 discriminator 3
 650 01ec 7B6B     		ldr	r3, [r7, #52]
 651 01ee DB00     		lsl	r3, r3, #3
 652 01f0 0433     		add	r3, r3, #4
 653 01f2 FA68     		ldr	r2, [r7, #12]
 654 01f4 D318     		add	r3, r2, r3
 655 01f6 1968     		ldr	r1, [r3]
 656 01f8 7B6D     		ldr	r3, [r7, #84]
 657 01fa DB00     		lsl	r3, r3, #3
 658 01fc 0433     		add	r3, r3, #4
 659 01fe FA68     		ldr	r2, [r7, #12]
 660 0200 D318     		add	r3, r2, r3
 661 0202 1B68     		ldr	r3, [r3]
 662 0204 081C     		add	r0, r1, #0
 663 0206 191C     		add	r1, r3, #0
 664 0208 FFF7FEFF 		bl	__aeabi_fadd
 665 020c 031C     		add	r3, r0, #0
 666 020e 7B62     		str	r3, [r7, #36]
 456:Source\TransformFunctions/arm_cfft_radix2_f32.c ****       yt = pSrc[2 * i + 1] - pSrc[2 * l + 1];
 667              		.loc 1 456 0 discriminator 3
 668 0210 7B6D     		ldr	r3, [r7, #84]
 669 0212 DB00     		lsl	r3, r3, #3
 670 0214 0433     		add	r3, r3, #4
 671 0216 FA68     		ldr	r2, [r7, #12]
 672 0218 D318     		add	r3, r2, r3
 673 021a 1968     		ldr	r1, [r3]
 674 021c 7B6B     		ldr	r3, [r7, #52]
 675 021e DB00     		lsl	r3, r3, #3
 676 0220 0433     		add	r3, r3, #4
 677 0222 FA68     		ldr	r2, [r7, #12]
 678 0224 D318     		add	r3, r2, r3
 679 0226 1B68     		ldr	r3, [r3]
 680 0228 081C     		add	r0, r1, #0
ARM GAS  C:\Users\fneves\AppData\Local\Temp\ccZeqh7g.s 			page 21


 681 022a 191C     		add	r1, r3, #0
 682 022c FFF7FEFF 		bl	__aeabi_fsub
 683 0230 031C     		add	r3, r0, #0
 684 0232 BB62     		str	r3, [r7, #40]
 457:Source\TransformFunctions/arm_cfft_radix2_f32.c **** 
 458:Source\TransformFunctions/arm_cfft_radix2_f32.c ****       p0 = a0 * onebyfftLen;
 685              		.loc 1 458 0 discriminator 3
 686 0234 386B     		ldr	r0, [r7, #48]
 687 0236 B96E     		ldr	r1, [r7, #104]
 688 0238 FFF7FEFF 		bl	__aeabi_fmul
 689 023c 031C     		add	r3, r0, #0
 690 023e 3B62     		str	r3, [r7, #32]
 459:Source\TransformFunctions/arm_cfft_radix2_f32.c ****       p2 = xt * onebyfftLen;
 691              		.loc 1 459 0 discriminator 3
 692 0240 F86A     		ldr	r0, [r7, #44]
 693 0242 B96E     		ldr	r1, [r7, #104]
 694 0244 FFF7FEFF 		bl	__aeabi_fmul
 695 0248 031C     		add	r3, r0, #0
 696 024a BB61     		str	r3, [r7, #24]
 460:Source\TransformFunctions/arm_cfft_radix2_f32.c ****       p1 = a1 * onebyfftLen;
 697              		.loc 1 460 0 discriminator 3
 698 024c 786A     		ldr	r0, [r7, #36]
 699 024e B96E     		ldr	r1, [r7, #104]
 700 0250 FFF7FEFF 		bl	__aeabi_fmul
 701 0254 031C     		add	r3, r0, #0
 702 0256 FB61     		str	r3, [r7, #28]
 461:Source\TransformFunctions/arm_cfft_radix2_f32.c ****       p3 = yt * onebyfftLen;
 703              		.loc 1 461 0 discriminator 3
 704 0258 B86A     		ldr	r0, [r7, #40]
 705 025a B96E     		ldr	r1, [r7, #104]
 706 025c FFF7FEFF 		bl	__aeabi_fmul
 707 0260 031C     		add	r3, r0, #0
 708 0262 7B61     		str	r3, [r7, #20]
 462:Source\TransformFunctions/arm_cfft_radix2_f32.c **** 
 463:Source\TransformFunctions/arm_cfft_radix2_f32.c ****       pSrc[2 * i] = p0;
 709              		.loc 1 463 0 discriminator 3
 710 0264 7B6D     		ldr	r3, [r7, #84]
 711 0266 DB00     		lsl	r3, r3, #3
 712 0268 FA68     		ldr	r2, [r7, #12]
 713 026a D318     		add	r3, r2, r3
 714 026c 3A6A     		ldr	r2, [r7, #32]
 715 026e 1A60     		str	r2, [r3]
 464:Source\TransformFunctions/arm_cfft_radix2_f32.c ****       pSrc[2u * l] = p2;
 716              		.loc 1 464 0 discriminator 3
 717 0270 7B6B     		ldr	r3, [r7, #52]
 718 0272 DB00     		lsl	r3, r3, #3
 719 0274 FA68     		ldr	r2, [r7, #12]
 720 0276 D318     		add	r3, r2, r3
 721 0278 BA69     		ldr	r2, [r7, #24]
 722 027a 1A60     		str	r2, [r3]
 465:Source\TransformFunctions/arm_cfft_radix2_f32.c **** 
 466:Source\TransformFunctions/arm_cfft_radix2_f32.c ****       pSrc[2 * i + 1] = p1;
 723              		.loc 1 466 0 discriminator 3
 724 027c 7B6D     		ldr	r3, [r7, #84]
 725 027e DB00     		lsl	r3, r3, #3
 726 0280 0433     		add	r3, r3, #4
 727 0282 FA68     		ldr	r2, [r7, #12]
ARM GAS  C:\Users\fneves\AppData\Local\Temp\ccZeqh7g.s 			page 22


 728 0284 D318     		add	r3, r2, r3
 729 0286 FA69     		ldr	r2, [r7, #28]
 730 0288 1A60     		str	r2, [r3]
 467:Source\TransformFunctions/arm_cfft_radix2_f32.c ****       pSrc[2u * l + 1u] = p3;
 731              		.loc 1 467 0 discriminator 3
 732 028a 7B6B     		ldr	r3, [r7, #52]
 733 028c DB00     		lsl	r3, r3, #3
 734 028e 0433     		add	r3, r3, #4
 735 0290 FA68     		ldr	r2, [r7, #12]
 736 0292 D318     		add	r3, r2, r3
 737 0294 7A69     		ldr	r2, [r7, #20]
 738 0296 1A60     		str	r2, [r3]
 448:Source\TransformFunctions/arm_cfft_radix2_f32.c ****    {
 739              		.loc 1 448 0 discriminator 3
 740 0298 7A6D     		ldr	r2, [r7, #84]
 741 029a 3B6C     		ldr	r3, [r7, #64]
 742 029c D318     		add	r3, r2, r3
 743 029e 7B65     		str	r3, [r7, #84]
 744              	.L15:
 448:Source\TransformFunctions/arm_cfft_radix2_f32.c ****    {
 745              		.loc 1 448 0 is_stmt 0 discriminator 1
 746 02a0 7A6D     		ldr	r2, [r7, #84]
 747 02a2 BB68     		ldr	r3, [r7, #8]
 748 02a4 9A42     		cmp	r2, r3
 749 02a6 00D2     		bcs	.LCB637
 750 02a8 7CE7     		b	.L16	@long jump
 751              	.LCB637:
 468:Source\TransformFunctions/arm_cfft_radix2_f32.c ****    }                             // butterfly loop end
 469:Source\TransformFunctions/arm_cfft_radix2_f32.c **** 
 470:Source\TransformFunctions/arm_cfft_radix2_f32.c **** #endif //      #if defined (ARM_MATH_DSP)
 471:Source\TransformFunctions/arm_cfft_radix2_f32.c **** 
 472:Source\TransformFunctions/arm_cfft_radix2_f32.c **** }
 752              		.loc 1 472 0 is_stmt 1
 753 02aa BD46     		mov	sp, r7
 754 02ac 17B0     		add	sp, sp, #92
 755              		@ sp needed
 756 02ae 90BD     		pop	{r4, r7, pc}
 757              		.cfi_endproc
 758              	.LFE84:
 759              		.size	arm_radix2_butterfly_inverse_f32, .-arm_radix2_butterfly_inverse_f32
 760              		.text
 761              	.Letext0:
 762              		.file 2 "c:\\program files (x86)\\cypress\\psoc creator\\4.0\\psoc creator\\import\\gnu\\arm\\4.9.
 763              		.file 3 "c:\\program files (x86)\\cypress\\psoc creator\\4.0\\psoc creator\\import\\gnu\\arm\\4.9.
 764              		.file 4 ".\\Include/arm_math.h"