ARM GAS  C:\Users\fneves\AppData\Local\Temp\ccejrGWV.s 			page 1


   1              		.cpu cortex-m0plus
   2              		.fpu softvfp
   3              		.eabi_attribute 20, 1
   4              		.eabi_attribute 21, 1
   5              		.eabi_attribute 23, 3
   6              		.eabi_attribute 24, 1
   7              		.eabi_attribute 25, 1
   8              		.eabi_attribute 26, 1
   9              		.eabi_attribute 30, 6
  10              		.eabi_attribute 34, 0
  11              		.eabi_attribute 18, 4
  12              		.code	16
  13              		.file	"arm_pid_init_f32.c"
  14              		.text
  15              	.Ltext0:
  16              		.cfi_sections	.debug_frame
  17              		.global	__aeabi_fadd
  18              		.global	__aeabi_fsub
  19              		.section	.text.arm_pid_init_f32,"ax",%progbits
  20              		.align	2
  21              		.global	arm_pid_init_f32
  22              		.code	16
  23              		.thumb_func
  24              		.type	arm_pid_init_f32, %function
  25              	arm_pid_init_f32:
  26              	.LFB82:
  27              		.file 1 "Source\\ControllerFunctions\\arm_pid_init_f32.c"
   1:Source\ControllerFunctions/arm_pid_init_f32.c **** /* ----------------------------------------------------------------------
   2:Source\ControllerFunctions/arm_pid_init_f32.c ****  * Project:      CMSIS DSP Library
   3:Source\ControllerFunctions/arm_pid_init_f32.c ****  * Title:        arm_pid_init_f32.c
   4:Source\ControllerFunctions/arm_pid_init_f32.c ****  * Description:  Floating-point PID Control initialization function
   5:Source\ControllerFunctions/arm_pid_init_f32.c ****  *
   6:Source\ControllerFunctions/arm_pid_init_f32.c ****  * $Date:        27. January 2017
   7:Source\ControllerFunctions/arm_pid_init_f32.c ****  * $Revision:    V.1.5.1
   8:Source\ControllerFunctions/arm_pid_init_f32.c ****  *
   9:Source\ControllerFunctions/arm_pid_init_f32.c ****  * Target Processor: Cortex-M cores
  10:Source\ControllerFunctions/arm_pid_init_f32.c ****  * -------------------------------------------------------------------- */
  11:Source\ControllerFunctions/arm_pid_init_f32.c **** /*
  12:Source\ControllerFunctions/arm_pid_init_f32.c ****  * Copyright (C) 2010-2017 ARM Limited or its affiliates. All rights reserved.
  13:Source\ControllerFunctions/arm_pid_init_f32.c ****  *
  14:Source\ControllerFunctions/arm_pid_init_f32.c ****  * SPDX-License-Identifier: Apache-2.0
  15:Source\ControllerFunctions/arm_pid_init_f32.c ****  *
  16:Source\ControllerFunctions/arm_pid_init_f32.c ****  * Licensed under the Apache License, Version 2.0 (the License); you may
  17:Source\ControllerFunctions/arm_pid_init_f32.c ****  * not use this file except in compliance with the License.
  18:Source\ControllerFunctions/arm_pid_init_f32.c ****  * You may obtain a copy of the License at
  19:Source\ControllerFunctions/arm_pid_init_f32.c ****  *
  20:Source\ControllerFunctions/arm_pid_init_f32.c ****  * www.apache.org/licenses/LICENSE-2.0
  21:Source\ControllerFunctions/arm_pid_init_f32.c ****  *
  22:Source\ControllerFunctions/arm_pid_init_f32.c ****  * Unless required by applicable law or agreed to in writing, software
  23:Source\ControllerFunctions/arm_pid_init_f32.c ****  * distributed under the License is distributed on an AS IS BASIS, WITHOUT
  24:Source\ControllerFunctions/arm_pid_init_f32.c ****  * WARRANTIES OR CONDITIONS OF ANY KIND, either express or implied.
  25:Source\ControllerFunctions/arm_pid_init_f32.c ****  * See the License for the specific language governing permissions and
  26:Source\ControllerFunctions/arm_pid_init_f32.c ****  * limitations under the License.
  27:Source\ControllerFunctions/arm_pid_init_f32.c ****  */
  28:Source\ControllerFunctions/arm_pid_init_f32.c **** 
  29:Source\ControllerFunctions/arm_pid_init_f32.c **** #include "arm_math.h"
  30:Source\ControllerFunctions/arm_pid_init_f32.c **** 
ARM GAS  C:\Users\fneves\AppData\Local\Temp\ccejrGWV.s 			page 2


  31:Source\ControllerFunctions/arm_pid_init_f32.c ****  /**
  32:Source\ControllerFunctions/arm_pid_init_f32.c ****  * @addtogroup PID
  33:Source\ControllerFunctions/arm_pid_init_f32.c ****  * @{
  34:Source\ControllerFunctions/arm_pid_init_f32.c ****  */
  35:Source\ControllerFunctions/arm_pid_init_f32.c **** 
  36:Source\ControllerFunctions/arm_pid_init_f32.c **** /**
  37:Source\ControllerFunctions/arm_pid_init_f32.c ****  * @brief  Initialization function for the floating-point PID Control.
  38:Source\ControllerFunctions/arm_pid_init_f32.c ****  * @param[in,out] *S points to an instance of the PID structure.
  39:Source\ControllerFunctions/arm_pid_init_f32.c ****  * @param[in]     resetStateFlag  flag to reset the state. 0 = no change in state & 1 = reset the s
  40:Source\ControllerFunctions/arm_pid_init_f32.c ****  * @return none.
  41:Source\ControllerFunctions/arm_pid_init_f32.c ****  * \par Description:
  42:Source\ControllerFunctions/arm_pid_init_f32.c ****  * \par
  43:Source\ControllerFunctions/arm_pid_init_f32.c ****  * The <code>resetStateFlag</code> specifies whether to set state to zero or not. \n
  44:Source\ControllerFunctions/arm_pid_init_f32.c ****  * The function computes the structure fields: <code>A0</code>, <code>A1</code> <code>A2</code>
  45:Source\ControllerFunctions/arm_pid_init_f32.c ****  * using the proportional gain( \c Kp), integral gain( \c Ki) and derivative gain( \c Kd)
  46:Source\ControllerFunctions/arm_pid_init_f32.c ****  * also sets the state variables to all zeros.
  47:Source\ControllerFunctions/arm_pid_init_f32.c ****  */
  48:Source\ControllerFunctions/arm_pid_init_f32.c **** 
  49:Source\ControllerFunctions/arm_pid_init_f32.c **** void arm_pid_init_f32(
  50:Source\ControllerFunctions/arm_pid_init_f32.c ****   arm_pid_instance_f32 * S,
  51:Source\ControllerFunctions/arm_pid_init_f32.c ****   int32_t resetStateFlag)
  52:Source\ControllerFunctions/arm_pid_init_f32.c **** {
  28              		.loc 1 52 0
  29              		.cfi_startproc
  30 0000 90B5     		push	{r4, r7, lr}
  31              		.cfi_def_cfa_offset 12
  32              		.cfi_offset 4, -12
  33              		.cfi_offset 7, -8
  34              		.cfi_offset 14, -4
  35 0002 83B0     		sub	sp, sp, #12
  36              		.cfi_def_cfa_offset 24
  37 0004 00AF     		add	r7, sp, #0
  38              		.cfi_def_cfa_register 7
  39 0006 7860     		str	r0, [r7, #4]
  40 0008 3960     		str	r1, [r7]
  53:Source\ControllerFunctions/arm_pid_init_f32.c **** 
  54:Source\ControllerFunctions/arm_pid_init_f32.c ****   /* Derived coefficient A0 */
  55:Source\ControllerFunctions/arm_pid_init_f32.c ****   S->A0 = S->Kp + S->Ki + S->Kd;
  41              		.loc 1 55 0
  42 000a 7B68     		ldr	r3, [r7, #4]
  43 000c 9A69     		ldr	r2, [r3, #24]
  44 000e 7B68     		ldr	r3, [r7, #4]
  45 0010 DB69     		ldr	r3, [r3, #28]
  46 0012 101C     		add	r0, r2, #0
  47 0014 191C     		add	r1, r3, #0
  48 0016 FFF7FEFF 		bl	__aeabi_fadd
  49 001a 031C     		add	r3, r0, #0
  50 001c 1A1C     		add	r2, r3, #0
  51 001e 7B68     		ldr	r3, [r7, #4]
  52 0020 1B6A     		ldr	r3, [r3, #32]
  53 0022 101C     		add	r0, r2, #0
  54 0024 191C     		add	r1, r3, #0
  55 0026 FFF7FEFF 		bl	__aeabi_fadd
  56 002a 031C     		add	r3, r0, #0
  57 002c 1A1C     		add	r2, r3, #0
  58 002e 7B68     		ldr	r3, [r7, #4]
  59 0030 1A60     		str	r2, [r3]
ARM GAS  C:\Users\fneves\AppData\Local\Temp\ccejrGWV.s 			page 3


  56:Source\ControllerFunctions/arm_pid_init_f32.c **** 
  57:Source\ControllerFunctions/arm_pid_init_f32.c ****   /* Derived coefficient A1 */
  58:Source\ControllerFunctions/arm_pid_init_f32.c ****   S->A1 = (-S->Kp) - ((float32_t) 2.0 * S->Kd);
  60              		.loc 1 58 0
  61 0032 7B68     		ldr	r3, [r7, #4]
  62 0034 9B69     		ldr	r3, [r3, #24]
  63 0036 8022     		mov	r2, #128
  64 0038 1206     		lsl	r2, r2, #24
  65 003a 5A40     		eor	r2, r3
  66 003c 141C     		mov	r4, r2
  67 003e 7B68     		ldr	r3, [r7, #4]
  68 0040 1B6A     		ldr	r3, [r3, #32]
  69 0042 181C     		add	r0, r3, #0
  70 0044 191C     		add	r1, r3, #0
  71 0046 FFF7FEFF 		bl	__aeabi_fadd
  72 004a 031C     		add	r3, r0, #0
  73 004c 201C     		add	r0, r4, #0
  74 004e 191C     		add	r1, r3, #0
  75 0050 FFF7FEFF 		bl	__aeabi_fsub
  76 0054 031C     		add	r3, r0, #0
  77 0056 1A1C     		add	r2, r3, #0
  78 0058 7B68     		ldr	r3, [r7, #4]
  79 005a 5A60     		str	r2, [r3, #4]
  59:Source\ControllerFunctions/arm_pid_init_f32.c **** 
  60:Source\ControllerFunctions/arm_pid_init_f32.c ****   /* Derived coefficient A2 */
  61:Source\ControllerFunctions/arm_pid_init_f32.c ****   S->A2 = S->Kd;
  80              		.loc 1 61 0
  81 005c 7B68     		ldr	r3, [r7, #4]
  82 005e 1A6A     		ldr	r2, [r3, #32]
  83 0060 7B68     		ldr	r3, [r7, #4]
  84 0062 9A60     		str	r2, [r3, #8]
  62:Source\ControllerFunctions/arm_pid_init_f32.c **** 
  63:Source\ControllerFunctions/arm_pid_init_f32.c ****   /* Check whether state needs reset or not */
  64:Source\ControllerFunctions/arm_pid_init_f32.c ****   if (resetStateFlag)
  85              		.loc 1 64 0
  86 0064 3B68     		ldr	r3, [r7]
  87 0066 002B     		cmp	r3, #0
  88 0068 06D0     		beq	.L1
  65:Source\ControllerFunctions/arm_pid_init_f32.c ****   {
  66:Source\ControllerFunctions/arm_pid_init_f32.c ****     /* Clear the state buffer.  The size will be always 3 samples */
  67:Source\ControllerFunctions/arm_pid_init_f32.c ****     memset(S->state, 0, 3u * sizeof(float32_t));
  89              		.loc 1 67 0
  90 006a 7B68     		ldr	r3, [r7, #4]
  91 006c 0C33     		add	r3, r3, #12
  92 006e 181C     		mov	r0, r3
  93 0070 0021     		mov	r1, #0
  94 0072 0C22     		mov	r2, #12
  95 0074 FFF7FEFF 		bl	memset
  96              	.L1:
  68:Source\ControllerFunctions/arm_pid_init_f32.c ****   }
  69:Source\ControllerFunctions/arm_pid_init_f32.c **** 
  70:Source\ControllerFunctions/arm_pid_init_f32.c **** }
  97              		.loc 1 70 0
  98 0078 BD46     		mov	sp, r7
  99 007a 03B0     		add	sp, sp, #12
 100              		@ sp needed
 101 007c 90BD     		pop	{r4, r7, pc}
ARM GAS  C:\Users\fneves\AppData\Local\Temp\ccejrGWV.s 			page 4


 102              		.cfi_endproc
 103              	.LFE82:
 104              		.size	arm_pid_init_f32, .-arm_pid_init_f32
 105 007e C046     		.text
 106              	.Letext0:
 107              		.file 2 "c:\\program files (x86)\\cypress\\psoc creator\\4.0\\psoc creator\\import\\gnu\\arm\\4.9.
 108              		.file 3 "c:\\program files (x86)\\cypress\\psoc creator\\4.0\\psoc creator\\import\\gnu\\arm\\4.9.
 109              		.file 4 ".\\Include/arm_math.h"