ARM GAS  C:\Users\fneves\AppData\Local\Temp\ccbIEQCb.s 			page 1


   1              		.cpu cortex-m0plus
   2              		.fpu softvfp
   3              		.eabi_attribute 20, 1
   4              		.eabi_attribute 21, 1
   5              		.eabi_attribute 23, 3
   6              		.eabi_attribute 24, 1
   7              		.eabi_attribute 25, 1
   8              		.eabi_attribute 26, 1
   9              		.eabi_attribute 30, 6
  10              		.eabi_attribute 34, 0
  11              		.eabi_attribute 18, 4
  12              		.code	16
  13              		.file	"arm_biquad_cascade_stereo_df2T_f32.c"
  14              		.text
  15              	.Ltext0:
  16              		.cfi_sections	.debug_frame
  17              		.global	__aeabi_fmul
  18              		.global	__aeabi_fadd
  19              		.section	.text.arm_biquad_cascade_stereo_df2T_f32,"ax",%progbits
  20              		.align	2
  21              		.global	arm_biquad_cascade_stereo_df2T_f32
  22              		.code	16
  23              		.thumb_func
  24              		.type	arm_biquad_cascade_stereo_df2T_f32, %function
  25              	arm_biquad_cascade_stereo_df2T_f32:
  26              	.LFB82:
  27              		.file 1 "Source\\FilteringFunctions\\arm_biquad_cascade_stereo_df2T_f32.c"
   1:Source\FilteringFunctions/arm_biquad_cascade_stereo_df2T_f32.c **** /* ----------------------------------------------------------------------
   2:Source\FilteringFunctions/arm_biquad_cascade_stereo_df2T_f32.c ****  * Project:      CMSIS DSP Library
   3:Source\FilteringFunctions/arm_biquad_cascade_stereo_df2T_f32.c ****  * Title:        arm_biquad_cascade_stereo_df2T_f32.c
   4:Source\FilteringFunctions/arm_biquad_cascade_stereo_df2T_f32.c ****  * Description:  Processing function for floating-point transposed direct form II Biquad cascade fi
   5:Source\FilteringFunctions/arm_biquad_cascade_stereo_df2T_f32.c ****  *
   6:Source\FilteringFunctions/arm_biquad_cascade_stereo_df2T_f32.c ****  * $Date:        27. January 2017
   7:Source\FilteringFunctions/arm_biquad_cascade_stereo_df2T_f32.c ****  * $Revision:    V.1.5.1
   8:Source\FilteringFunctions/arm_biquad_cascade_stereo_df2T_f32.c ****  *
   9:Source\FilteringFunctions/arm_biquad_cascade_stereo_df2T_f32.c ****  * Target Processor: Cortex-M cores
  10:Source\FilteringFunctions/arm_biquad_cascade_stereo_df2T_f32.c ****  * -------------------------------------------------------------------- */
  11:Source\FilteringFunctions/arm_biquad_cascade_stereo_df2T_f32.c **** /*
  12:Source\FilteringFunctions/arm_biquad_cascade_stereo_df2T_f32.c ****  * Copyright (C) 2010-2017 ARM Limited or its affiliates. All rights reserved.
  13:Source\FilteringFunctions/arm_biquad_cascade_stereo_df2T_f32.c ****  *
  14:Source\FilteringFunctions/arm_biquad_cascade_stereo_df2T_f32.c ****  * SPDX-License-Identifier: Apache-2.0
  15:Source\FilteringFunctions/arm_biquad_cascade_stereo_df2T_f32.c ****  *
  16:Source\FilteringFunctions/arm_biquad_cascade_stereo_df2T_f32.c ****  * Licensed under the Apache License, Version 2.0 (the License); you may
  17:Source\FilteringFunctions/arm_biquad_cascade_stereo_df2T_f32.c ****  * not use this file except in compliance with the License.
  18:Source\FilteringFunctions/arm_biquad_cascade_stereo_df2T_f32.c ****  * You may obtain a copy of the License at
  19:Source\FilteringFunctions/arm_biquad_cascade_stereo_df2T_f32.c ****  *
  20:Source\FilteringFunctions/arm_biquad_cascade_stereo_df2T_f32.c ****  * www.apache.org/licenses/LICENSE-2.0
  21:Source\FilteringFunctions/arm_biquad_cascade_stereo_df2T_f32.c ****  *
  22:Source\FilteringFunctions/arm_biquad_cascade_stereo_df2T_f32.c ****  * Unless required by applicable law or agreed to in writing, software
  23:Source\FilteringFunctions/arm_biquad_cascade_stereo_df2T_f32.c ****  * distributed under the License is distributed on an AS IS BASIS, WITHOUT
  24:Source\FilteringFunctions/arm_biquad_cascade_stereo_df2T_f32.c ****  * WARRANTIES OR CONDITIONS OF ANY KIND, either express or implied.
  25:Source\FilteringFunctions/arm_biquad_cascade_stereo_df2T_f32.c ****  * See the License for the specific language governing permissions and
  26:Source\FilteringFunctions/arm_biquad_cascade_stereo_df2T_f32.c ****  * limitations under the License.
  27:Source\FilteringFunctions/arm_biquad_cascade_stereo_df2T_f32.c ****  */
  28:Source\FilteringFunctions/arm_biquad_cascade_stereo_df2T_f32.c **** 
  29:Source\FilteringFunctions/arm_biquad_cascade_stereo_df2T_f32.c **** #include "arm_math.h"
  30:Source\FilteringFunctions/arm_biquad_cascade_stereo_df2T_f32.c **** 
ARM GAS  C:\Users\fneves\AppData\Local\Temp\ccbIEQCb.s 			page 2


  31:Source\FilteringFunctions/arm_biquad_cascade_stereo_df2T_f32.c **** /**
  32:Source\FilteringFunctions/arm_biquad_cascade_stereo_df2T_f32.c **** * @ingroup groupFilters
  33:Source\FilteringFunctions/arm_biquad_cascade_stereo_df2T_f32.c **** */
  34:Source\FilteringFunctions/arm_biquad_cascade_stereo_df2T_f32.c **** 
  35:Source\FilteringFunctions/arm_biquad_cascade_stereo_df2T_f32.c **** /**
  36:Source\FilteringFunctions/arm_biquad_cascade_stereo_df2T_f32.c **** * @defgroup BiquadCascadeDF2T Biquad Cascade IIR Filters Using a Direct Form II Transposed Structur
  37:Source\FilteringFunctions/arm_biquad_cascade_stereo_df2T_f32.c **** *
  38:Source\FilteringFunctions/arm_biquad_cascade_stereo_df2T_f32.c **** * This set of functions implements arbitrary order recursive (IIR) filters using a transposed direc
  39:Source\FilteringFunctions/arm_biquad_cascade_stereo_df2T_f32.c **** * The filters are implemented as a cascade of second order Biquad sections.
  40:Source\FilteringFunctions/arm_biquad_cascade_stereo_df2T_f32.c **** * These functions provide a slight memory savings as compared to the direct form I Biquad filter fu
  41:Source\FilteringFunctions/arm_biquad_cascade_stereo_df2T_f32.c **** * Only floating-point data is supported.
  42:Source\FilteringFunctions/arm_biquad_cascade_stereo_df2T_f32.c **** *
  43:Source\FilteringFunctions/arm_biquad_cascade_stereo_df2T_f32.c **** * This function operate on blocks of input and output data and each call to the function
  44:Source\FilteringFunctions/arm_biquad_cascade_stereo_df2T_f32.c **** * processes <code>blockSize</code> samples through the filter.
  45:Source\FilteringFunctions/arm_biquad_cascade_stereo_df2T_f32.c **** * <code>pSrc</code> points to the array of input data and
  46:Source\FilteringFunctions/arm_biquad_cascade_stereo_df2T_f32.c **** * <code>pDst</code> points to the array of output data.
  47:Source\FilteringFunctions/arm_biquad_cascade_stereo_df2T_f32.c **** * Both arrays contain <code>blockSize</code> values.
  48:Source\FilteringFunctions/arm_biquad_cascade_stereo_df2T_f32.c **** *
  49:Source\FilteringFunctions/arm_biquad_cascade_stereo_df2T_f32.c **** * \par Algorithm
  50:Source\FilteringFunctions/arm_biquad_cascade_stereo_df2T_f32.c **** * Each Biquad stage implements a second order filter using the difference equation:
  51:Source\FilteringFunctions/arm_biquad_cascade_stereo_df2T_f32.c **** * <pre>
  52:Source\FilteringFunctions/arm_biquad_cascade_stereo_df2T_f32.c **** *    y[n] = b0 * x[n] + d1
  53:Source\FilteringFunctions/arm_biquad_cascade_stereo_df2T_f32.c **** *    d1 = b1 * x[n] + a1 * y[n] + d2
  54:Source\FilteringFunctions/arm_biquad_cascade_stereo_df2T_f32.c **** *    d2 = b2 * x[n] + a2 * y[n]
  55:Source\FilteringFunctions/arm_biquad_cascade_stereo_df2T_f32.c **** * </pre>
  56:Source\FilteringFunctions/arm_biquad_cascade_stereo_df2T_f32.c **** * where d1 and d2 represent the two state values.
  57:Source\FilteringFunctions/arm_biquad_cascade_stereo_df2T_f32.c **** *
  58:Source\FilteringFunctions/arm_biquad_cascade_stereo_df2T_f32.c **** * \par
  59:Source\FilteringFunctions/arm_biquad_cascade_stereo_df2T_f32.c **** * A Biquad filter using a transposed Direct Form II structure is shown below.
  60:Source\FilteringFunctions/arm_biquad_cascade_stereo_df2T_f32.c **** * \image html BiquadDF2Transposed.gif "Single transposed Direct Form II Biquad"
  61:Source\FilteringFunctions/arm_biquad_cascade_stereo_df2T_f32.c **** * Coefficients <code>b0, b1, and b2 </code> multiply the input signal <code>x[n]</code> and are ref
  62:Source\FilteringFunctions/arm_biquad_cascade_stereo_df2T_f32.c **** * Coefficients <code>a1</code> and <code>a2</code> multiply the output signal <code>y[n]</code> and
  63:Source\FilteringFunctions/arm_biquad_cascade_stereo_df2T_f32.c **** * Pay careful attention to the sign of the feedback coefficients.
  64:Source\FilteringFunctions/arm_biquad_cascade_stereo_df2T_f32.c **** * Some design tools flip the sign of the feedback coefficients:
  65:Source\FilteringFunctions/arm_biquad_cascade_stereo_df2T_f32.c **** * <pre>
  66:Source\FilteringFunctions/arm_biquad_cascade_stereo_df2T_f32.c **** *    y[n] = b0 * x[n] + d1;
  67:Source\FilteringFunctions/arm_biquad_cascade_stereo_df2T_f32.c **** *    d1 = b1 * x[n] - a1 * y[n] + d2;
  68:Source\FilteringFunctions/arm_biquad_cascade_stereo_df2T_f32.c **** *    d2 = b2 * x[n] - a2 * y[n];
  69:Source\FilteringFunctions/arm_biquad_cascade_stereo_df2T_f32.c **** * </pre>
  70:Source\FilteringFunctions/arm_biquad_cascade_stereo_df2T_f32.c **** * In this case the feedback coefficients <code>a1</code> and <code>a2</code> must be negated when u
  71:Source\FilteringFunctions/arm_biquad_cascade_stereo_df2T_f32.c **** *
  72:Source\FilteringFunctions/arm_biquad_cascade_stereo_df2T_f32.c **** * \par
  73:Source\FilteringFunctions/arm_biquad_cascade_stereo_df2T_f32.c **** * Higher order filters are realized as a cascade of second order sections.
  74:Source\FilteringFunctions/arm_biquad_cascade_stereo_df2T_f32.c **** * <code>numStages</code> refers to the number of second order stages used.
  75:Source\FilteringFunctions/arm_biquad_cascade_stereo_df2T_f32.c **** * For example, an 8th order filter would be realized with <code>numStages=4</code> second order sta
  76:Source\FilteringFunctions/arm_biquad_cascade_stereo_df2T_f32.c **** * A 9th order filter would be realized with <code>numStages=5</code> second order stages with the
  77:Source\FilteringFunctions/arm_biquad_cascade_stereo_df2T_f32.c **** * coefficients for one of the stages configured as a first order filter (<code>b2=0</code> and <cod
  78:Source\FilteringFunctions/arm_biquad_cascade_stereo_df2T_f32.c **** *
  79:Source\FilteringFunctions/arm_biquad_cascade_stereo_df2T_f32.c **** * \par
  80:Source\FilteringFunctions/arm_biquad_cascade_stereo_df2T_f32.c **** * <code>pState</code> points to the state variable array.
  81:Source\FilteringFunctions/arm_biquad_cascade_stereo_df2T_f32.c **** * Each Biquad stage has 2 state variables <code>d1</code> and <code>d2</code>.
  82:Source\FilteringFunctions/arm_biquad_cascade_stereo_df2T_f32.c **** * The state variables are arranged in the <code>pState</code> array as:
  83:Source\FilteringFunctions/arm_biquad_cascade_stereo_df2T_f32.c **** * <pre>
  84:Source\FilteringFunctions/arm_biquad_cascade_stereo_df2T_f32.c **** *     {d11, d12, d21, d22, ...}
  85:Source\FilteringFunctions/arm_biquad_cascade_stereo_df2T_f32.c **** * </pre>
  86:Source\FilteringFunctions/arm_biquad_cascade_stereo_df2T_f32.c **** * where <code>d1x</code> refers to the state variables for the first Biquad and
  87:Source\FilteringFunctions/arm_biquad_cascade_stereo_df2T_f32.c **** * <code>d2x</code> refers to the state variables for the second Biquad.
ARM GAS  C:\Users\fneves\AppData\Local\Temp\ccbIEQCb.s 			page 3


  88:Source\FilteringFunctions/arm_biquad_cascade_stereo_df2T_f32.c **** * The state array has a total length of <code>2*numStages</code> values.
  89:Source\FilteringFunctions/arm_biquad_cascade_stereo_df2T_f32.c **** * The state variables are updated after each block of data is processed; the coefficients are untou
  90:Source\FilteringFunctions/arm_biquad_cascade_stereo_df2T_f32.c **** *
  91:Source\FilteringFunctions/arm_biquad_cascade_stereo_df2T_f32.c **** * \par
  92:Source\FilteringFunctions/arm_biquad_cascade_stereo_df2T_f32.c **** * The CMSIS library contains Biquad filters in both Direct Form I and transposed Direct Form II.
  93:Source\FilteringFunctions/arm_biquad_cascade_stereo_df2T_f32.c **** * The advantage of the Direct Form I structure is that it is numerically more robust for fixed-poin
  94:Source\FilteringFunctions/arm_biquad_cascade_stereo_df2T_f32.c **** * That is why the Direct Form I structure supports Q15 and Q31 data types.
  95:Source\FilteringFunctions/arm_biquad_cascade_stereo_df2T_f32.c **** * The transposed Direct Form II structure, on the other hand, requires a wide dynamic range for the
  96:Source\FilteringFunctions/arm_biquad_cascade_stereo_df2T_f32.c **** * Because of this, the CMSIS library only has a floating-point version of the Direct Form II Biquad
  97:Source\FilteringFunctions/arm_biquad_cascade_stereo_df2T_f32.c **** * The advantage of the Direct Form II Biquad is that it requires half the number of state variables
  98:Source\FilteringFunctions/arm_biquad_cascade_stereo_df2T_f32.c **** *
  99:Source\FilteringFunctions/arm_biquad_cascade_stereo_df2T_f32.c **** * \par Instance Structure
 100:Source\FilteringFunctions/arm_biquad_cascade_stereo_df2T_f32.c **** * The coefficients and state variables for a filter are stored together in an instance data structu
 101:Source\FilteringFunctions/arm_biquad_cascade_stereo_df2T_f32.c **** * A separate instance structure must be defined for each filter.
 102:Source\FilteringFunctions/arm_biquad_cascade_stereo_df2T_f32.c **** * Coefficient arrays may be shared among several instances while state variable arrays cannot be sh
 103:Source\FilteringFunctions/arm_biquad_cascade_stereo_df2T_f32.c **** *
 104:Source\FilteringFunctions/arm_biquad_cascade_stereo_df2T_f32.c **** * \par Init Functions
 105:Source\FilteringFunctions/arm_biquad_cascade_stereo_df2T_f32.c **** * There is also an associated initialization function.
 106:Source\FilteringFunctions/arm_biquad_cascade_stereo_df2T_f32.c **** * The initialization function performs following operations:
 107:Source\FilteringFunctions/arm_biquad_cascade_stereo_df2T_f32.c **** * - Sets the values of the internal structure fields.
 108:Source\FilteringFunctions/arm_biquad_cascade_stereo_df2T_f32.c **** * - Zeros out the values in the state buffer.
 109:Source\FilteringFunctions/arm_biquad_cascade_stereo_df2T_f32.c **** * To do this manually without calling the init function, assign the follow subfields of the instanc
 110:Source\FilteringFunctions/arm_biquad_cascade_stereo_df2T_f32.c **** * numStages, pCoeffs, pState. Also set all of the values in pState to zero.
 111:Source\FilteringFunctions/arm_biquad_cascade_stereo_df2T_f32.c **** *
 112:Source\FilteringFunctions/arm_biquad_cascade_stereo_df2T_f32.c **** * \par
 113:Source\FilteringFunctions/arm_biquad_cascade_stereo_df2T_f32.c **** * Use of the initialization function is optional.
 114:Source\FilteringFunctions/arm_biquad_cascade_stereo_df2T_f32.c **** * However, if the initialization function is used, then the instance structure cannot be placed int
 115:Source\FilteringFunctions/arm_biquad_cascade_stereo_df2T_f32.c **** * To place an instance structure into a const data section, the instance structure must be manually
 116:Source\FilteringFunctions/arm_biquad_cascade_stereo_df2T_f32.c **** * Set the values in the state buffer to zeros before static initialization.
 117:Source\FilteringFunctions/arm_biquad_cascade_stereo_df2T_f32.c **** * For example, to statically initialize the instance structure use
 118:Source\FilteringFunctions/arm_biquad_cascade_stereo_df2T_f32.c **** * <pre>
 119:Source\FilteringFunctions/arm_biquad_cascade_stereo_df2T_f32.c **** *     arm_biquad_cascade_df2T_instance_f32 S1 = {numStages, pState, pCoeffs};
 120:Source\FilteringFunctions/arm_biquad_cascade_stereo_df2T_f32.c **** * </pre>
 121:Source\FilteringFunctions/arm_biquad_cascade_stereo_df2T_f32.c **** * where <code>numStages</code> is the number of Biquad stages in the filter; <code>pState</code> is
 122:Source\FilteringFunctions/arm_biquad_cascade_stereo_df2T_f32.c **** * <code>pCoeffs</code> is the address of the coefficient buffer;
 123:Source\FilteringFunctions/arm_biquad_cascade_stereo_df2T_f32.c **** *
 124:Source\FilteringFunctions/arm_biquad_cascade_stereo_df2T_f32.c **** */
 125:Source\FilteringFunctions/arm_biquad_cascade_stereo_df2T_f32.c **** 
 126:Source\FilteringFunctions/arm_biquad_cascade_stereo_df2T_f32.c **** /**
 127:Source\FilteringFunctions/arm_biquad_cascade_stereo_df2T_f32.c **** * @addtogroup BiquadCascadeDF2T
 128:Source\FilteringFunctions/arm_biquad_cascade_stereo_df2T_f32.c **** * @{
 129:Source\FilteringFunctions/arm_biquad_cascade_stereo_df2T_f32.c **** */
 130:Source\FilteringFunctions/arm_biquad_cascade_stereo_df2T_f32.c **** 
 131:Source\FilteringFunctions/arm_biquad_cascade_stereo_df2T_f32.c **** /**
 132:Source\FilteringFunctions/arm_biquad_cascade_stereo_df2T_f32.c **** * @brief Processing function for the floating-point transposed direct form II Biquad cascade filter
 133:Source\FilteringFunctions/arm_biquad_cascade_stereo_df2T_f32.c **** * @param[in]  *S        points to an instance of the filter data structure.
 134:Source\FilteringFunctions/arm_biquad_cascade_stereo_df2T_f32.c **** * @param[in]  *pSrc     points to the block of input data.
 135:Source\FilteringFunctions/arm_biquad_cascade_stereo_df2T_f32.c **** * @param[out] *pDst     points to the block of output data
 136:Source\FilteringFunctions/arm_biquad_cascade_stereo_df2T_f32.c **** * @param[in]  blockSize number of samples to process.
 137:Source\FilteringFunctions/arm_biquad_cascade_stereo_df2T_f32.c **** * @return none.
 138:Source\FilteringFunctions/arm_biquad_cascade_stereo_df2T_f32.c **** */
 139:Source\FilteringFunctions/arm_biquad_cascade_stereo_df2T_f32.c **** 
 140:Source\FilteringFunctions/arm_biquad_cascade_stereo_df2T_f32.c **** 
 141:Source\FilteringFunctions/arm_biquad_cascade_stereo_df2T_f32.c **** LOW_OPTIMIZATION_ENTER
 142:Source\FilteringFunctions/arm_biquad_cascade_stereo_df2T_f32.c **** void arm_biquad_cascade_stereo_df2T_f32(
 143:Source\FilteringFunctions/arm_biquad_cascade_stereo_df2T_f32.c **** const arm_biquad_cascade_stereo_df2T_instance_f32 * S,
 144:Source\FilteringFunctions/arm_biquad_cascade_stereo_df2T_f32.c **** float32_t * pSrc,
ARM GAS  C:\Users\fneves\AppData\Local\Temp\ccbIEQCb.s 			page 4


 145:Source\FilteringFunctions/arm_biquad_cascade_stereo_df2T_f32.c **** float32_t * pDst,
 146:Source\FilteringFunctions/arm_biquad_cascade_stereo_df2T_f32.c **** uint32_t blockSize)
 147:Source\FilteringFunctions/arm_biquad_cascade_stereo_df2T_f32.c **** {
  28              		.loc 1 147 0
  29              		.cfi_startproc
  30 0000 70B5     		push	{r4, r5, r6, lr}
  31              		.cfi_def_cfa_offset 16
  32              		.cfi_offset 4, -16
  33              		.cfi_offset 5, -12
  34              		.cfi_offset 6, -8
  35              		.cfi_offset 14, -4
  36 0002 5E46     		mov	r6, fp
  37 0004 5546     		mov	r5, r10
  38 0006 4C46     		mov	r4, r9
  39 0008 70B4     		push	{r4, r5, r6}
  40              		.cfi_def_cfa_offset 28
  41              		.cfi_offset 9, -28
  42              		.cfi_offset 10, -24
  43              		.cfi_offset 11, -20
  44 000a 4646     		mov	r6, r8
  45 000c 40B4     		push	{r6}
  46              		.cfi_def_cfa_offset 32
  47              		.cfi_offset 8, -32
  48 000e 90B0     		sub	sp, sp, #64
  49              		.cfi_def_cfa_offset 96
  50 0010 0E92     		str	r2, [sp, #56]
  51 0012 0F93     		str	r3, [sp, #60]
 148:Source\FilteringFunctions/arm_biquad_cascade_stereo_df2T_f32.c **** 
 149:Source\FilteringFunctions/arm_biquad_cascade_stereo_df2T_f32.c ****     float32_t *pIn = pSrc;                         /*  source pointer            */
 150:Source\FilteringFunctions/arm_biquad_cascade_stereo_df2T_f32.c ****     float32_t *pOut = pDst;                        /*  destination pointer       */
 151:Source\FilteringFunctions/arm_biquad_cascade_stereo_df2T_f32.c ****     float32_t *pState = S->pState;                 /*  State pointer             */
 152:Source\FilteringFunctions/arm_biquad_cascade_stereo_df2T_f32.c ****     float32_t *pCoeffs = S->pCoeffs;               /*  coefficient pointer       */
 153:Source\FilteringFunctions/arm_biquad_cascade_stereo_df2T_f32.c ****     float32_t acc1a, acc1b;                        /*  accumulator               */
 154:Source\FilteringFunctions/arm_biquad_cascade_stereo_df2T_f32.c ****     float32_t b0, b1, b2, a1, a2;                  /*  Filter coefficients       */
 155:Source\FilteringFunctions/arm_biquad_cascade_stereo_df2T_f32.c ****     float32_t Xn1a, Xn1b;                          /*  temporary input           */
 156:Source\FilteringFunctions/arm_biquad_cascade_stereo_df2T_f32.c ****     float32_t d1a, d2a, d1b, d2b;                  /*  state variables           */
 157:Source\FilteringFunctions/arm_biquad_cascade_stereo_df2T_f32.c ****     uint32_t sample, stage = S->numStages;         /*  loop counters             */
  52              		.loc 1 157 0
  53 0014 0378     		ldrb	r3, [r0]
  54 0016 9946     		mov	r9, r3
  55 0018 4368     		ldr	r3, [r0, #4]
  56 001a 9846     		mov	r8, r3
  57 001c 8368     		ldr	r3, [r0, #8]
  58 001e 9B46     		mov	fp, r3
  59              	.L4:
 158:Source\FilteringFunctions/arm_biquad_cascade_stereo_df2T_f32.c **** 
 159:Source\FilteringFunctions/arm_biquad_cascade_stereo_df2T_f32.c **** #if defined(ARM_MATH_CM7)
 160:Source\FilteringFunctions/arm_biquad_cascade_stereo_df2T_f32.c **** 
 161:Source\FilteringFunctions/arm_biquad_cascade_stereo_df2T_f32.c ****     float32_t Xn2a, Xn3a, Xn4a, Xn5a, Xn6a, Xn7a, Xn8a;         /*  Input State variables     */
 162:Source\FilteringFunctions/arm_biquad_cascade_stereo_df2T_f32.c ****     float32_t Xn2b, Xn3b, Xn4b, Xn5b, Xn6b, Xn7b, Xn8b;         /*  Input State variables     */
 163:Source\FilteringFunctions/arm_biquad_cascade_stereo_df2T_f32.c ****     float32_t acc2a, acc3a, acc4a, acc5a, acc6a, acc7a, acc8a;  /*  Simulates the accumulator */
 164:Source\FilteringFunctions/arm_biquad_cascade_stereo_df2T_f32.c ****     float32_t acc2b, acc3b, acc4b, acc5b, acc6b, acc7b, acc8b;  /*  Simulates the accumulator */
 165:Source\FilteringFunctions/arm_biquad_cascade_stereo_df2T_f32.c **** 
 166:Source\FilteringFunctions/arm_biquad_cascade_stereo_df2T_f32.c ****     do
 167:Source\FilteringFunctions/arm_biquad_cascade_stereo_df2T_f32.c ****     {
 168:Source\FilteringFunctions/arm_biquad_cascade_stereo_df2T_f32.c ****         /* Reading the coefficients */
 169:Source\FilteringFunctions/arm_biquad_cascade_stereo_df2T_f32.c ****         b0 = pCoeffs[0];
ARM GAS  C:\Users\fneves\AppData\Local\Temp\ccbIEQCb.s 			page 5


 170:Source\FilteringFunctions/arm_biquad_cascade_stereo_df2T_f32.c ****         b1 = pCoeffs[1];
 171:Source\FilteringFunctions/arm_biquad_cascade_stereo_df2T_f32.c ****         b2 = pCoeffs[2];
 172:Source\FilteringFunctions/arm_biquad_cascade_stereo_df2T_f32.c ****         a1 = pCoeffs[3];
 173:Source\FilteringFunctions/arm_biquad_cascade_stereo_df2T_f32.c ****         /* Apply loop unrolling and compute 8 output values simultaneously. */
 174:Source\FilteringFunctions/arm_biquad_cascade_stereo_df2T_f32.c ****         sample = blockSize >> 3u;
 175:Source\FilteringFunctions/arm_biquad_cascade_stereo_df2T_f32.c ****         a2 = pCoeffs[4];
 176:Source\FilteringFunctions/arm_biquad_cascade_stereo_df2T_f32.c **** 
 177:Source\FilteringFunctions/arm_biquad_cascade_stereo_df2T_f32.c ****         /*Reading the state values */
 178:Source\FilteringFunctions/arm_biquad_cascade_stereo_df2T_f32.c ****         d1a = pState[0];
 179:Source\FilteringFunctions/arm_biquad_cascade_stereo_df2T_f32.c ****         d2a = pState[1];
 180:Source\FilteringFunctions/arm_biquad_cascade_stereo_df2T_f32.c ****         d1b = pState[2];
 181:Source\FilteringFunctions/arm_biquad_cascade_stereo_df2T_f32.c ****         d2b = pState[3];
 182:Source\FilteringFunctions/arm_biquad_cascade_stereo_df2T_f32.c **** 
 183:Source\FilteringFunctions/arm_biquad_cascade_stereo_df2T_f32.c ****         pCoeffs += 5u;
 184:Source\FilteringFunctions/arm_biquad_cascade_stereo_df2T_f32.c **** 
 185:Source\FilteringFunctions/arm_biquad_cascade_stereo_df2T_f32.c ****         /* First part of the processing with loop unrolling.  Compute 8 outputs at a time.
 186:Source\FilteringFunctions/arm_biquad_cascade_stereo_df2T_f32.c ****         ** a second loop below computes the remaining 1 to 7 samples. */
 187:Source\FilteringFunctions/arm_biquad_cascade_stereo_df2T_f32.c ****         while (sample > 0u) {
 188:Source\FilteringFunctions/arm_biquad_cascade_stereo_df2T_f32.c **** 
 189:Source\FilteringFunctions/arm_biquad_cascade_stereo_df2T_f32.c ****             /* y[n] = b0 * x[n] + d1 */
 190:Source\FilteringFunctions/arm_biquad_cascade_stereo_df2T_f32.c ****             /* d1 = b1 * x[n] + a1 * y[n] + d2 */
 191:Source\FilteringFunctions/arm_biquad_cascade_stereo_df2T_f32.c ****             /* d2 = b2 * x[n] + a2 * y[n] */
 192:Source\FilteringFunctions/arm_biquad_cascade_stereo_df2T_f32.c **** 
 193:Source\FilteringFunctions/arm_biquad_cascade_stereo_df2T_f32.c ****             /* Read the first 2 inputs. 2 cycles */
 194:Source\FilteringFunctions/arm_biquad_cascade_stereo_df2T_f32.c ****             Xn1a  = pIn[0 ];
 195:Source\FilteringFunctions/arm_biquad_cascade_stereo_df2T_f32.c ****             Xn1b  = pIn[1 ];
 196:Source\FilteringFunctions/arm_biquad_cascade_stereo_df2T_f32.c **** 
 197:Source\FilteringFunctions/arm_biquad_cascade_stereo_df2T_f32.c ****             /* Sample 1. 5 cycles */
 198:Source\FilteringFunctions/arm_biquad_cascade_stereo_df2T_f32.c ****             Xn2a  = pIn[2 ];
 199:Source\FilteringFunctions/arm_biquad_cascade_stereo_df2T_f32.c ****             acc1a = b0 * Xn1a + d1a;
 200:Source\FilteringFunctions/arm_biquad_cascade_stereo_df2T_f32.c **** 
 201:Source\FilteringFunctions/arm_biquad_cascade_stereo_df2T_f32.c ****             Xn2b  = pIn[3 ];
 202:Source\FilteringFunctions/arm_biquad_cascade_stereo_df2T_f32.c ****             d1a = b1 * Xn1a + d2a;
 203:Source\FilteringFunctions/arm_biquad_cascade_stereo_df2T_f32.c **** 
 204:Source\FilteringFunctions/arm_biquad_cascade_stereo_df2T_f32.c ****             Xn3a  = pIn[4 ];
 205:Source\FilteringFunctions/arm_biquad_cascade_stereo_df2T_f32.c ****             d2a = b2 * Xn1a;
 206:Source\FilteringFunctions/arm_biquad_cascade_stereo_df2T_f32.c **** 
 207:Source\FilteringFunctions/arm_biquad_cascade_stereo_df2T_f32.c ****             Xn3b  = pIn[5 ];
 208:Source\FilteringFunctions/arm_biquad_cascade_stereo_df2T_f32.c ****             d1a += a1 * acc1a;
 209:Source\FilteringFunctions/arm_biquad_cascade_stereo_df2T_f32.c **** 
 210:Source\FilteringFunctions/arm_biquad_cascade_stereo_df2T_f32.c ****             Xn4a  = pIn[6 ];
 211:Source\FilteringFunctions/arm_biquad_cascade_stereo_df2T_f32.c ****             d2a += a2 * acc1a;
 212:Source\FilteringFunctions/arm_biquad_cascade_stereo_df2T_f32.c **** 
 213:Source\FilteringFunctions/arm_biquad_cascade_stereo_df2T_f32.c ****             /* Sample 2. 5 cycles */
 214:Source\FilteringFunctions/arm_biquad_cascade_stereo_df2T_f32.c ****             Xn4b  = pIn[7 ];
 215:Source\FilteringFunctions/arm_biquad_cascade_stereo_df2T_f32.c ****             acc1b = b0 * Xn1b + d1b;
 216:Source\FilteringFunctions/arm_biquad_cascade_stereo_df2T_f32.c **** 
 217:Source\FilteringFunctions/arm_biquad_cascade_stereo_df2T_f32.c ****             Xn5a  = pIn[8 ];
 218:Source\FilteringFunctions/arm_biquad_cascade_stereo_df2T_f32.c ****             d1b = b1 * Xn1b + d2b;
 219:Source\FilteringFunctions/arm_biquad_cascade_stereo_df2T_f32.c **** 
 220:Source\FilteringFunctions/arm_biquad_cascade_stereo_df2T_f32.c ****             Xn5b = pIn[9 ];
 221:Source\FilteringFunctions/arm_biquad_cascade_stereo_df2T_f32.c ****             d2b = b2 * Xn1b;
 222:Source\FilteringFunctions/arm_biquad_cascade_stereo_df2T_f32.c **** 
 223:Source\FilteringFunctions/arm_biquad_cascade_stereo_df2T_f32.c ****             Xn6a = pIn[10];
 224:Source\FilteringFunctions/arm_biquad_cascade_stereo_df2T_f32.c ****             d1b += a1 * acc1b;
 225:Source\FilteringFunctions/arm_biquad_cascade_stereo_df2T_f32.c **** 
 226:Source\FilteringFunctions/arm_biquad_cascade_stereo_df2T_f32.c ****             Xn6b = pIn[11];
ARM GAS  C:\Users\fneves\AppData\Local\Temp\ccbIEQCb.s 			page 6


 227:Source\FilteringFunctions/arm_biquad_cascade_stereo_df2T_f32.c ****             d2b += a2 * acc1b;
 228:Source\FilteringFunctions/arm_biquad_cascade_stereo_df2T_f32.c **** 
 229:Source\FilteringFunctions/arm_biquad_cascade_stereo_df2T_f32.c ****             /* Sample 3. 5 cycles */
 230:Source\FilteringFunctions/arm_biquad_cascade_stereo_df2T_f32.c ****             Xn7a = pIn[12];
 231:Source\FilteringFunctions/arm_biquad_cascade_stereo_df2T_f32.c ****             acc2a = b0 * Xn2a + d1a;
 232:Source\FilteringFunctions/arm_biquad_cascade_stereo_df2T_f32.c **** 
 233:Source\FilteringFunctions/arm_biquad_cascade_stereo_df2T_f32.c ****             Xn7b = pIn[13];
 234:Source\FilteringFunctions/arm_biquad_cascade_stereo_df2T_f32.c ****             d1a = b1 * Xn2a + d2a;
 235:Source\FilteringFunctions/arm_biquad_cascade_stereo_df2T_f32.c **** 
 236:Source\FilteringFunctions/arm_biquad_cascade_stereo_df2T_f32.c ****             Xn8a = pIn[14];
 237:Source\FilteringFunctions/arm_biquad_cascade_stereo_df2T_f32.c ****             d2a = b2 * Xn2a;
 238:Source\FilteringFunctions/arm_biquad_cascade_stereo_df2T_f32.c **** 
 239:Source\FilteringFunctions/arm_biquad_cascade_stereo_df2T_f32.c ****             Xn8b = pIn[15];
 240:Source\FilteringFunctions/arm_biquad_cascade_stereo_df2T_f32.c ****             d1a += a1 * acc2a;
 241:Source\FilteringFunctions/arm_biquad_cascade_stereo_df2T_f32.c **** 
 242:Source\FilteringFunctions/arm_biquad_cascade_stereo_df2T_f32.c ****             pIn += 16;
 243:Source\FilteringFunctions/arm_biquad_cascade_stereo_df2T_f32.c ****             d2a += a2 * acc2a;
 244:Source\FilteringFunctions/arm_biquad_cascade_stereo_df2T_f32.c **** 
 245:Source\FilteringFunctions/arm_biquad_cascade_stereo_df2T_f32.c ****             /* Sample 4. 5 cycles */
 246:Source\FilteringFunctions/arm_biquad_cascade_stereo_df2T_f32.c ****             acc2b = b0 * Xn2b + d1b;
 247:Source\FilteringFunctions/arm_biquad_cascade_stereo_df2T_f32.c ****             d1b = b1 * Xn2b + d2b;
 248:Source\FilteringFunctions/arm_biquad_cascade_stereo_df2T_f32.c ****             d2b = b2 * Xn2b;
 249:Source\FilteringFunctions/arm_biquad_cascade_stereo_df2T_f32.c ****             d1b += a1 * acc2b;
 250:Source\FilteringFunctions/arm_biquad_cascade_stereo_df2T_f32.c ****             d2b += a2 * acc2b;
 251:Source\FilteringFunctions/arm_biquad_cascade_stereo_df2T_f32.c **** 
 252:Source\FilteringFunctions/arm_biquad_cascade_stereo_df2T_f32.c ****             /* Sample 5. 5 cycles */
 253:Source\FilteringFunctions/arm_biquad_cascade_stereo_df2T_f32.c ****             acc3a = b0 * Xn3a + d1a;
 254:Source\FilteringFunctions/arm_biquad_cascade_stereo_df2T_f32.c ****             d1a = b1 * Xn3a + d2a;
 255:Source\FilteringFunctions/arm_biquad_cascade_stereo_df2T_f32.c ****             d2a = b2 * Xn3a;
 256:Source\FilteringFunctions/arm_biquad_cascade_stereo_df2T_f32.c ****             d1a += a1 * acc3a;
 257:Source\FilteringFunctions/arm_biquad_cascade_stereo_df2T_f32.c ****             d2a += a2 * acc3a;
 258:Source\FilteringFunctions/arm_biquad_cascade_stereo_df2T_f32.c **** 
 259:Source\FilteringFunctions/arm_biquad_cascade_stereo_df2T_f32.c ****             /* Sample 6. 5 cycles */
 260:Source\FilteringFunctions/arm_biquad_cascade_stereo_df2T_f32.c ****             acc3b = b0 * Xn3b + d1b;
 261:Source\FilteringFunctions/arm_biquad_cascade_stereo_df2T_f32.c ****             d1b = b1 * Xn3b + d2b;
 262:Source\FilteringFunctions/arm_biquad_cascade_stereo_df2T_f32.c ****             d2b = b2 * Xn3b;
 263:Source\FilteringFunctions/arm_biquad_cascade_stereo_df2T_f32.c ****             d1b += a1 * acc3b;
 264:Source\FilteringFunctions/arm_biquad_cascade_stereo_df2T_f32.c ****             d2b += a2 * acc3b;
 265:Source\FilteringFunctions/arm_biquad_cascade_stereo_df2T_f32.c **** 
 266:Source\FilteringFunctions/arm_biquad_cascade_stereo_df2T_f32.c ****             /* Sample 7. 5 cycles */
 267:Source\FilteringFunctions/arm_biquad_cascade_stereo_df2T_f32.c ****             acc4a = b0 * Xn4a + d1a;
 268:Source\FilteringFunctions/arm_biquad_cascade_stereo_df2T_f32.c ****             d1a = b1 * Xn4a + d2a;
 269:Source\FilteringFunctions/arm_biquad_cascade_stereo_df2T_f32.c ****             d2a = b2 * Xn4a;
 270:Source\FilteringFunctions/arm_biquad_cascade_stereo_df2T_f32.c ****             d1a += a1 * acc4a;
 271:Source\FilteringFunctions/arm_biquad_cascade_stereo_df2T_f32.c ****             d2a += a2 * acc4a;
 272:Source\FilteringFunctions/arm_biquad_cascade_stereo_df2T_f32.c **** 
 273:Source\FilteringFunctions/arm_biquad_cascade_stereo_df2T_f32.c ****             /* Sample 8. 5 cycles */
 274:Source\FilteringFunctions/arm_biquad_cascade_stereo_df2T_f32.c ****             acc4b = b0 * Xn4b + d1b;
 275:Source\FilteringFunctions/arm_biquad_cascade_stereo_df2T_f32.c ****             d1b = b1 * Xn4b + d2b;
 276:Source\FilteringFunctions/arm_biquad_cascade_stereo_df2T_f32.c ****             d2b = b2 * Xn4b;
 277:Source\FilteringFunctions/arm_biquad_cascade_stereo_df2T_f32.c ****             d1b += a1 * acc4b;
 278:Source\FilteringFunctions/arm_biquad_cascade_stereo_df2T_f32.c ****             d2b += a2 * acc4b;
 279:Source\FilteringFunctions/arm_biquad_cascade_stereo_df2T_f32.c **** 
 280:Source\FilteringFunctions/arm_biquad_cascade_stereo_df2T_f32.c ****             /* Sample 9. 5 cycles */
 281:Source\FilteringFunctions/arm_biquad_cascade_stereo_df2T_f32.c ****             acc5a = b0 * Xn5a + d1a;
 282:Source\FilteringFunctions/arm_biquad_cascade_stereo_df2T_f32.c ****             d1a = b1 * Xn5a + d2a;
 283:Source\FilteringFunctions/arm_biquad_cascade_stereo_df2T_f32.c ****             d2a = b2 * Xn5a;
ARM GAS  C:\Users\fneves\AppData\Local\Temp\ccbIEQCb.s 			page 7


 284:Source\FilteringFunctions/arm_biquad_cascade_stereo_df2T_f32.c ****             d1a += a1 * acc5a;
 285:Source\FilteringFunctions/arm_biquad_cascade_stereo_df2T_f32.c ****             d2a += a2 * acc5a;
 286:Source\FilteringFunctions/arm_biquad_cascade_stereo_df2T_f32.c **** 
 287:Source\FilteringFunctions/arm_biquad_cascade_stereo_df2T_f32.c ****             /* Sample 10. 5 cycles */
 288:Source\FilteringFunctions/arm_biquad_cascade_stereo_df2T_f32.c ****             acc5b = b0 * Xn5b + d1b;
 289:Source\FilteringFunctions/arm_biquad_cascade_stereo_df2T_f32.c ****             d1b = b1 * Xn5b + d2b;
 290:Source\FilteringFunctions/arm_biquad_cascade_stereo_df2T_f32.c ****             d2b = b2 * Xn5b;
 291:Source\FilteringFunctions/arm_biquad_cascade_stereo_df2T_f32.c ****             d1b += a1 * acc5b;
 292:Source\FilteringFunctions/arm_biquad_cascade_stereo_df2T_f32.c ****             d2b += a2 * acc5b;
 293:Source\FilteringFunctions/arm_biquad_cascade_stereo_df2T_f32.c **** 
 294:Source\FilteringFunctions/arm_biquad_cascade_stereo_df2T_f32.c ****             /* Sample 11. 5 cycles */
 295:Source\FilteringFunctions/arm_biquad_cascade_stereo_df2T_f32.c ****             acc6a = b0 * Xn6a + d1a;
 296:Source\FilteringFunctions/arm_biquad_cascade_stereo_df2T_f32.c ****             d1a = b1 * Xn6a + d2a;
 297:Source\FilteringFunctions/arm_biquad_cascade_stereo_df2T_f32.c ****             d2a = b2 * Xn6a;
 298:Source\FilteringFunctions/arm_biquad_cascade_stereo_df2T_f32.c ****             d1a += a1 * acc6a;
 299:Source\FilteringFunctions/arm_biquad_cascade_stereo_df2T_f32.c ****             d2a += a2 * acc6a;
 300:Source\FilteringFunctions/arm_biquad_cascade_stereo_df2T_f32.c **** 
 301:Source\FilteringFunctions/arm_biquad_cascade_stereo_df2T_f32.c ****             /* Sample 12. 5 cycles */
 302:Source\FilteringFunctions/arm_biquad_cascade_stereo_df2T_f32.c ****             acc6b = b0 * Xn6b + d1b;
 303:Source\FilteringFunctions/arm_biquad_cascade_stereo_df2T_f32.c ****             d1b = b1 * Xn6b + d2b;
 304:Source\FilteringFunctions/arm_biquad_cascade_stereo_df2T_f32.c ****             d2b = b2 * Xn6b;
 305:Source\FilteringFunctions/arm_biquad_cascade_stereo_df2T_f32.c ****             d1b += a1 * acc6b;
 306:Source\FilteringFunctions/arm_biquad_cascade_stereo_df2T_f32.c ****             d2b += a2 * acc6b;
 307:Source\FilteringFunctions/arm_biquad_cascade_stereo_df2T_f32.c **** 
 308:Source\FilteringFunctions/arm_biquad_cascade_stereo_df2T_f32.c ****             /* Sample 13. 5 cycles */
 309:Source\FilteringFunctions/arm_biquad_cascade_stereo_df2T_f32.c ****             acc7a = b0 * Xn7a + d1a;
 310:Source\FilteringFunctions/arm_biquad_cascade_stereo_df2T_f32.c ****             d1a = b1 * Xn7a + d2a;
 311:Source\FilteringFunctions/arm_biquad_cascade_stereo_df2T_f32.c **** 
 312:Source\FilteringFunctions/arm_biquad_cascade_stereo_df2T_f32.c ****             pOut[0 ] = acc1a ;
 313:Source\FilteringFunctions/arm_biquad_cascade_stereo_df2T_f32.c ****             d2a = b2 * Xn7a;
 314:Source\FilteringFunctions/arm_biquad_cascade_stereo_df2T_f32.c **** 
 315:Source\FilteringFunctions/arm_biquad_cascade_stereo_df2T_f32.c ****             pOut[1 ] = acc1b ;
 316:Source\FilteringFunctions/arm_biquad_cascade_stereo_df2T_f32.c ****             d1a += a1 * acc7a;
 317:Source\FilteringFunctions/arm_biquad_cascade_stereo_df2T_f32.c **** 
 318:Source\FilteringFunctions/arm_biquad_cascade_stereo_df2T_f32.c ****             pOut[2 ] = acc2a ;
 319:Source\FilteringFunctions/arm_biquad_cascade_stereo_df2T_f32.c ****             d2a += a2 * acc7a;
 320:Source\FilteringFunctions/arm_biquad_cascade_stereo_df2T_f32.c **** 
 321:Source\FilteringFunctions/arm_biquad_cascade_stereo_df2T_f32.c ****             /* Sample 14. 5 cycles */
 322:Source\FilteringFunctions/arm_biquad_cascade_stereo_df2T_f32.c ****             pOut[3 ] = acc2b ;
 323:Source\FilteringFunctions/arm_biquad_cascade_stereo_df2T_f32.c ****             acc7b = b0 * Xn7b + d1b;
 324:Source\FilteringFunctions/arm_biquad_cascade_stereo_df2T_f32.c **** 
 325:Source\FilteringFunctions/arm_biquad_cascade_stereo_df2T_f32.c ****             pOut[4 ] = acc3a ;
 326:Source\FilteringFunctions/arm_biquad_cascade_stereo_df2T_f32.c ****             d1b = b1 * Xn7b + d2b;
 327:Source\FilteringFunctions/arm_biquad_cascade_stereo_df2T_f32.c **** 
 328:Source\FilteringFunctions/arm_biquad_cascade_stereo_df2T_f32.c ****             pOut[5 ] = acc3b ;
 329:Source\FilteringFunctions/arm_biquad_cascade_stereo_df2T_f32.c ****             d2b = b2 * Xn7b;
 330:Source\FilteringFunctions/arm_biquad_cascade_stereo_df2T_f32.c **** 
 331:Source\FilteringFunctions/arm_biquad_cascade_stereo_df2T_f32.c ****             pOut[6 ] = acc4a ;
 332:Source\FilteringFunctions/arm_biquad_cascade_stereo_df2T_f32.c ****             d1b += a1 * acc7b;
 333:Source\FilteringFunctions/arm_biquad_cascade_stereo_df2T_f32.c **** 
 334:Source\FilteringFunctions/arm_biquad_cascade_stereo_df2T_f32.c ****             pOut[7 ] = acc4b ;
 335:Source\FilteringFunctions/arm_biquad_cascade_stereo_df2T_f32.c ****             d2b += a2 * acc7b;
 336:Source\FilteringFunctions/arm_biquad_cascade_stereo_df2T_f32.c **** 
 337:Source\FilteringFunctions/arm_biquad_cascade_stereo_df2T_f32.c ****             /* Sample 15. 5 cycles */
 338:Source\FilteringFunctions/arm_biquad_cascade_stereo_df2T_f32.c ****             pOut[8 ] = acc5a ;
 339:Source\FilteringFunctions/arm_biquad_cascade_stereo_df2T_f32.c ****             acc8a = b0 * Xn8a + d1a;
 340:Source\FilteringFunctions/arm_biquad_cascade_stereo_df2T_f32.c **** 
ARM GAS  C:\Users\fneves\AppData\Local\Temp\ccbIEQCb.s 			page 8


 341:Source\FilteringFunctions/arm_biquad_cascade_stereo_df2T_f32.c ****             pOut[9 ] = acc5b;
 342:Source\FilteringFunctions/arm_biquad_cascade_stereo_df2T_f32.c ****             d1a = b1 * Xn8a + d2a;
 343:Source\FilteringFunctions/arm_biquad_cascade_stereo_df2T_f32.c **** 
 344:Source\FilteringFunctions/arm_biquad_cascade_stereo_df2T_f32.c ****             pOut[10] = acc6a;
 345:Source\FilteringFunctions/arm_biquad_cascade_stereo_df2T_f32.c ****             d2a = b2 * Xn8a;
 346:Source\FilteringFunctions/arm_biquad_cascade_stereo_df2T_f32.c **** 
 347:Source\FilteringFunctions/arm_biquad_cascade_stereo_df2T_f32.c ****             pOut[11] = acc6b;
 348:Source\FilteringFunctions/arm_biquad_cascade_stereo_df2T_f32.c ****             d1a += a1 * acc8a;
 349:Source\FilteringFunctions/arm_biquad_cascade_stereo_df2T_f32.c **** 
 350:Source\FilteringFunctions/arm_biquad_cascade_stereo_df2T_f32.c ****             pOut[12] = acc7a;
 351:Source\FilteringFunctions/arm_biquad_cascade_stereo_df2T_f32.c ****             d2a += a2 * acc8a;
 352:Source\FilteringFunctions/arm_biquad_cascade_stereo_df2T_f32.c **** 
 353:Source\FilteringFunctions/arm_biquad_cascade_stereo_df2T_f32.c ****             /* Sample 16. 5 cycles */
 354:Source\FilteringFunctions/arm_biquad_cascade_stereo_df2T_f32.c ****             pOut[13] = acc7b;
 355:Source\FilteringFunctions/arm_biquad_cascade_stereo_df2T_f32.c ****             acc8b = b0 * Xn8b + d1b;
 356:Source\FilteringFunctions/arm_biquad_cascade_stereo_df2T_f32.c **** 
 357:Source\FilteringFunctions/arm_biquad_cascade_stereo_df2T_f32.c ****             pOut[14] = acc8a;
 358:Source\FilteringFunctions/arm_biquad_cascade_stereo_df2T_f32.c ****             d1b = b1 * Xn8b + d2b;
 359:Source\FilteringFunctions/arm_biquad_cascade_stereo_df2T_f32.c **** 
 360:Source\FilteringFunctions/arm_biquad_cascade_stereo_df2T_f32.c ****             pOut[15] = acc8b;
 361:Source\FilteringFunctions/arm_biquad_cascade_stereo_df2T_f32.c ****             d2b = b2 * Xn8b;
 362:Source\FilteringFunctions/arm_biquad_cascade_stereo_df2T_f32.c **** 
 363:Source\FilteringFunctions/arm_biquad_cascade_stereo_df2T_f32.c ****             sample--;
 364:Source\FilteringFunctions/arm_biquad_cascade_stereo_df2T_f32.c ****             d1b += a1 * acc8b;
 365:Source\FilteringFunctions/arm_biquad_cascade_stereo_df2T_f32.c **** 
 366:Source\FilteringFunctions/arm_biquad_cascade_stereo_df2T_f32.c ****             pOut += 16;
 367:Source\FilteringFunctions/arm_biquad_cascade_stereo_df2T_f32.c ****             d2b += a2 * acc8b;
 368:Source\FilteringFunctions/arm_biquad_cascade_stereo_df2T_f32.c ****         }
 369:Source\FilteringFunctions/arm_biquad_cascade_stereo_df2T_f32.c **** 
 370:Source\FilteringFunctions/arm_biquad_cascade_stereo_df2T_f32.c ****         sample = blockSize & 0x7u;
 371:Source\FilteringFunctions/arm_biquad_cascade_stereo_df2T_f32.c ****         while (sample > 0u) {
 372:Source\FilteringFunctions/arm_biquad_cascade_stereo_df2T_f32.c ****             /* Read the input */
 373:Source\FilteringFunctions/arm_biquad_cascade_stereo_df2T_f32.c ****             Xn1a = *pIn++; //Channel a
 374:Source\FilteringFunctions/arm_biquad_cascade_stereo_df2T_f32.c ****             Xn1b = *pIn++; //Channel b
 375:Source\FilteringFunctions/arm_biquad_cascade_stereo_df2T_f32.c **** 
 376:Source\FilteringFunctions/arm_biquad_cascade_stereo_df2T_f32.c ****             /* y[n] = b0 * x[n] + d1 */
 377:Source\FilteringFunctions/arm_biquad_cascade_stereo_df2T_f32.c ****             acc1a = (b0 * Xn1a) + d1a;
 378:Source\FilteringFunctions/arm_biquad_cascade_stereo_df2T_f32.c ****             acc1b = (b0 * Xn1b) + d1b;
 379:Source\FilteringFunctions/arm_biquad_cascade_stereo_df2T_f32.c **** 
 380:Source\FilteringFunctions/arm_biquad_cascade_stereo_df2T_f32.c ****             /* Store the result in the accumulator in the destination buffer. */
 381:Source\FilteringFunctions/arm_biquad_cascade_stereo_df2T_f32.c ****             *pOut++ = acc1a;
 382:Source\FilteringFunctions/arm_biquad_cascade_stereo_df2T_f32.c ****             *pOut++ = acc1b;
 383:Source\FilteringFunctions/arm_biquad_cascade_stereo_df2T_f32.c **** 
 384:Source\FilteringFunctions/arm_biquad_cascade_stereo_df2T_f32.c ****             /* Every time after the output is computed state should be updated. */
 385:Source\FilteringFunctions/arm_biquad_cascade_stereo_df2T_f32.c ****             /* d1 = b1 * x[n] + a1 * y[n] + d2 */
 386:Source\FilteringFunctions/arm_biquad_cascade_stereo_df2T_f32.c ****             d1a = ((b1 * Xn1a) + (a1 * acc1a)) + d2a;
 387:Source\FilteringFunctions/arm_biquad_cascade_stereo_df2T_f32.c ****             d1b = ((b1 * Xn1b) + (a1 * acc1b)) + d2b;
 388:Source\FilteringFunctions/arm_biquad_cascade_stereo_df2T_f32.c **** 
 389:Source\FilteringFunctions/arm_biquad_cascade_stereo_df2T_f32.c ****             /* d2 = b2 * x[n] + a2 * y[n] */
 390:Source\FilteringFunctions/arm_biquad_cascade_stereo_df2T_f32.c ****             d2a = (b2 * Xn1a) + (a2 * acc1a);
 391:Source\FilteringFunctions/arm_biquad_cascade_stereo_df2T_f32.c ****             d2b = (b2 * Xn1b) + (a2 * acc1b);
 392:Source\FilteringFunctions/arm_biquad_cascade_stereo_df2T_f32.c **** 
 393:Source\FilteringFunctions/arm_biquad_cascade_stereo_df2T_f32.c ****             sample--;
 394:Source\FilteringFunctions/arm_biquad_cascade_stereo_df2T_f32.c ****         }
 395:Source\FilteringFunctions/arm_biquad_cascade_stereo_df2T_f32.c **** 
 396:Source\FilteringFunctions/arm_biquad_cascade_stereo_df2T_f32.c ****         /* Store the updated state variables back into the state array */
 397:Source\FilteringFunctions/arm_biquad_cascade_stereo_df2T_f32.c ****         pState[0] = d1a;
ARM GAS  C:\Users\fneves\AppData\Local\Temp\ccbIEQCb.s 			page 9


 398:Source\FilteringFunctions/arm_biquad_cascade_stereo_df2T_f32.c ****         pState[1] = d2a;
 399:Source\FilteringFunctions/arm_biquad_cascade_stereo_df2T_f32.c **** 
 400:Source\FilteringFunctions/arm_biquad_cascade_stereo_df2T_f32.c ****         pState[2] = d1b;
 401:Source\FilteringFunctions/arm_biquad_cascade_stereo_df2T_f32.c ****         pState[3] = d2b;
 402:Source\FilteringFunctions/arm_biquad_cascade_stereo_df2T_f32.c **** 
 403:Source\FilteringFunctions/arm_biquad_cascade_stereo_df2T_f32.c ****         /* The current stage input is given as the output to the next stage */
 404:Source\FilteringFunctions/arm_biquad_cascade_stereo_df2T_f32.c ****         pIn = pDst;
 405:Source\FilteringFunctions/arm_biquad_cascade_stereo_df2T_f32.c ****         /* decrement the loop counter */
 406:Source\FilteringFunctions/arm_biquad_cascade_stereo_df2T_f32.c ****         stage--;
 407:Source\FilteringFunctions/arm_biquad_cascade_stereo_df2T_f32.c **** 
 408:Source\FilteringFunctions/arm_biquad_cascade_stereo_df2T_f32.c ****         pState += 4u;
 409:Source\FilteringFunctions/arm_biquad_cascade_stereo_df2T_f32.c ****         /*Reset the output working pointer */
 410:Source\FilteringFunctions/arm_biquad_cascade_stereo_df2T_f32.c ****         pOut = pDst;
 411:Source\FilteringFunctions/arm_biquad_cascade_stereo_df2T_f32.c **** 
 412:Source\FilteringFunctions/arm_biquad_cascade_stereo_df2T_f32.c ****     } while (stage > 0u);
 413:Source\FilteringFunctions/arm_biquad_cascade_stereo_df2T_f32.c **** 
 414:Source\FilteringFunctions/arm_biquad_cascade_stereo_df2T_f32.c **** #elif defined(ARM_MATH_CM0_FAMILY)
 415:Source\FilteringFunctions/arm_biquad_cascade_stereo_df2T_f32.c **** 
 416:Source\FilteringFunctions/arm_biquad_cascade_stereo_df2T_f32.c ****     /* Run the below code for Cortex-M0 */
 417:Source\FilteringFunctions/arm_biquad_cascade_stereo_df2T_f32.c **** 
 418:Source\FilteringFunctions/arm_biquad_cascade_stereo_df2T_f32.c ****     do
 419:Source\FilteringFunctions/arm_biquad_cascade_stereo_df2T_f32.c ****     {
 420:Source\FilteringFunctions/arm_biquad_cascade_stereo_df2T_f32.c ****         /* Reading the coefficients */
 421:Source\FilteringFunctions/arm_biquad_cascade_stereo_df2T_f32.c ****         b0 = *pCoeffs++;
  60              		.loc 1 421 0
  61 0020 5B46     		mov	r3, fp
  62 0022 1B68     		ldr	r3, [r3]
  63 0024 0993     		str	r3, [sp, #36]
 422:Source\FilteringFunctions/arm_biquad_cascade_stereo_df2T_f32.c ****         b1 = *pCoeffs++;
  64              		.loc 1 422 0
  65 0026 5B46     		mov	r3, fp
  66 0028 5B68     		ldr	r3, [r3, #4]
  67 002a 0A93     		str	r3, [sp, #40]
 423:Source\FilteringFunctions/arm_biquad_cascade_stereo_df2T_f32.c ****         b2 = *pCoeffs++;
  68              		.loc 1 423 0
  69 002c 5B46     		mov	r3, fp
  70 002e 9B68     		ldr	r3, [r3, #8]
  71 0030 0B93     		str	r3, [sp, #44]
 424:Source\FilteringFunctions/arm_biquad_cascade_stereo_df2T_f32.c ****         a1 = *pCoeffs++;
  72              		.loc 1 424 0
  73 0032 5B46     		mov	r3, fp
  74 0034 DB68     		ldr	r3, [r3, #12]
  75 0036 0C93     		str	r3, [sp, #48]
 425:Source\FilteringFunctions/arm_biquad_cascade_stereo_df2T_f32.c ****         a2 = *pCoeffs++;
  76              		.loc 1 425 0
  77 0038 5B46     		mov	r3, fp
  78 003a 1B69     		ldr	r3, [r3, #16]
  79 003c 0D93     		str	r3, [sp, #52]
  80 003e 4346     		mov	r3, r8
  81 0040 C246     		mov	r10, r8
 426:Source\FilteringFunctions/arm_biquad_cascade_stereo_df2T_f32.c **** 
 427:Source\FilteringFunctions/arm_biquad_cascade_stereo_df2T_f32.c ****         /*Reading the state values */
 428:Source\FilteringFunctions/arm_biquad_cascade_stereo_df2T_f32.c ****         d1a = pState[0];
  82              		.loc 1 428 0
  83 0042 1B68     		ldr	r3, [r3]
  84 0044 0593     		str	r3, [sp, #20]
 429:Source\FilteringFunctions/arm_biquad_cascade_stereo_df2T_f32.c ****         d2a = pState[1];
ARM GAS  C:\Users\fneves\AppData\Local\Temp\ccbIEQCb.s 			page 10


  85              		.loc 1 429 0
  86 0046 4346     		mov	r3, r8
  87 0048 5B68     		ldr	r3, [r3, #4]
  88 004a 0793     		str	r3, [sp, #28]
 430:Source\FilteringFunctions/arm_biquad_cascade_stereo_df2T_f32.c ****         d1b = pState[2];
  89              		.loc 1 430 0
  90 004c 4346     		mov	r3, r8
  91 004e 9B68     		ldr	r3, [r3, #8]
  92 0050 0693     		str	r3, [sp, #24]
 431:Source\FilteringFunctions/arm_biquad_cascade_stereo_df2T_f32.c ****         d2b = pState[3];
  93              		.loc 1 431 0
  94 0052 4346     		mov	r3, r8
  95 0054 DB68     		ldr	r3, [r3, #12]
  96 0056 0893     		str	r3, [sp, #32]
 432:Source\FilteringFunctions/arm_biquad_cascade_stereo_df2T_f32.c **** 
 433:Source\FilteringFunctions/arm_biquad_cascade_stereo_df2T_f32.c **** 
 434:Source\FilteringFunctions/arm_biquad_cascade_stereo_df2T_f32.c ****         sample = blockSize;
 435:Source\FilteringFunctions/arm_biquad_cascade_stereo_df2T_f32.c **** 
 436:Source\FilteringFunctions/arm_biquad_cascade_stereo_df2T_f32.c ****         while (sample > 0u)
  97              		.loc 1 436 0
  98 0058 0F9B     		ldr	r3, [sp, #60]
  99 005a 002B     		cmp	r3, #0
 100 005c 5CD0     		beq	.L2
 101 005e 0D1C     		mov	r5, r1
 102 0060 0E9C     		ldr	r4, [sp, #56]
 103 0062 1E1C     		mov	r6, r3
 104              	.L3:
 437:Source\FilteringFunctions/arm_biquad_cascade_stereo_df2T_f32.c ****         {
 438:Source\FilteringFunctions/arm_biquad_cascade_stereo_df2T_f32.c ****             /* Read the input */
 439:Source\FilteringFunctions/arm_biquad_cascade_stereo_df2T_f32.c ****             Xn1a = *pIn++; //Channel a
 105              		.loc 1 439 0
 106 0064 2B68     		ldr	r3, [r5]
 440:Source\FilteringFunctions/arm_biquad_cascade_stereo_df2T_f32.c ****             Xn1b = *pIn++; //Channel b
 107              		.loc 1 440 0
 108 0066 6A68     		ldr	r2, [r5, #4]
 109 0068 0192     		str	r2, [sp, #4]
 441:Source\FilteringFunctions/arm_biquad_cascade_stereo_df2T_f32.c **** 
 442:Source\FilteringFunctions/arm_biquad_cascade_stereo_df2T_f32.c ****             /* y[n] = b0 * x[n] + d1 */
 443:Source\FilteringFunctions/arm_biquad_cascade_stereo_df2T_f32.c ****             acc1a = (b0 * Xn1a) + d1a;
 110              		.loc 1 443 0
 111 006a 0998     		ldr	r0, [sp, #36]
 112 006c 0393     		str	r3, [sp, #12]
 113 006e 191C     		add	r1, r3, #0
 114 0070 FFF7FEFF 		bl	__aeabi_fmul
 115 0074 0599     		ldr	r1, [sp, #20]
 116 0076 FFF7FEFF 		bl	__aeabi_fadd
 117 007a 0290     		str	r0, [sp, #8]
 444:Source\FilteringFunctions/arm_biquad_cascade_stereo_df2T_f32.c ****             acc1b = (b0 * Xn1b) + d1b;
 118              		.loc 1 444 0
 119 007c 0998     		ldr	r0, [sp, #36]
 120 007e 0199     		ldr	r1, [sp, #4]
 121 0080 FFF7FEFF 		bl	__aeabi_fmul
 122 0084 0699     		ldr	r1, [sp, #24]
 123 0086 FFF7FEFF 		bl	__aeabi_fadd
 445:Source\FilteringFunctions/arm_biquad_cascade_stereo_df2T_f32.c **** 
 446:Source\FilteringFunctions/arm_biquad_cascade_stereo_df2T_f32.c ****             /* Store the result in the accumulator in the destination buffer. */
 447:Source\FilteringFunctions/arm_biquad_cascade_stereo_df2T_f32.c ****             *pOut++ = acc1a;
ARM GAS  C:\Users\fneves\AppData\Local\Temp\ccbIEQCb.s 			page 11


 124              		.loc 1 447 0
 125 008a 0299     		ldr	r1, [sp, #8]
 126 008c 2160     		str	r1, [r4]
 448:Source\FilteringFunctions/arm_biquad_cascade_stereo_df2T_f32.c ****             *pOut++ = acc1b;
 127              		.loc 1 448 0
 128 008e 0490     		str	r0, [sp, #16]
 129 0090 6060     		str	r0, [r4, #4]
 449:Source\FilteringFunctions/arm_biquad_cascade_stereo_df2T_f32.c **** 
 450:Source\FilteringFunctions/arm_biquad_cascade_stereo_df2T_f32.c ****             /* Every time after the output is computed state should be updated. */
 451:Source\FilteringFunctions/arm_biquad_cascade_stereo_df2T_f32.c ****             /* d1 = b1 * x[n] + a1 * y[n] + d2 */
 452:Source\FilteringFunctions/arm_biquad_cascade_stereo_df2T_f32.c ****             d1a = ((b1 * Xn1a) + (a1 * acc1a)) + d2a;
 130              		.loc 1 452 0
 131 0092 0A98     		ldr	r0, [sp, #40]
 132 0094 0399     		ldr	r1, [sp, #12]
 133 0096 FFF7FEFF 		bl	__aeabi_fmul
 134 009a 0590     		str	r0, [sp, #20]
 135 009c 0C98     		ldr	r0, [sp, #48]
 136 009e 0299     		ldr	r1, [sp, #8]
 137 00a0 FFF7FEFF 		bl	__aeabi_fmul
 138 00a4 011C     		add	r1, r0, #0
 139 00a6 0598     		ldr	r0, [sp, #20]
 140 00a8 FFF7FEFF 		bl	__aeabi_fadd
 141 00ac 0799     		ldr	r1, [sp, #28]
 142 00ae FFF7FEFF 		bl	__aeabi_fadd
 143 00b2 0590     		str	r0, [sp, #20]
 453:Source\FilteringFunctions/arm_biquad_cascade_stereo_df2T_f32.c ****             d1b = ((b1 * Xn1b) + (a1 * acc1b)) + d2b;
 144              		.loc 1 453 0
 145 00b4 0A98     		ldr	r0, [sp, #40]
 146 00b6 0199     		ldr	r1, [sp, #4]
 147 00b8 FFF7FEFF 		bl	__aeabi_fmul
 148 00bc 0690     		str	r0, [sp, #24]
 149 00be 0C98     		ldr	r0, [sp, #48]
 150 00c0 0499     		ldr	r1, [sp, #16]
 151 00c2 FFF7FEFF 		bl	__aeabi_fmul
 152 00c6 011C     		add	r1, r0, #0
 153 00c8 0698     		ldr	r0, [sp, #24]
 154 00ca FFF7FEFF 		bl	__aeabi_fadd
 155 00ce 0899     		ldr	r1, [sp, #32]
 156 00d0 FFF7FEFF 		bl	__aeabi_fadd
 157 00d4 0690     		str	r0, [sp, #24]
 454:Source\FilteringFunctions/arm_biquad_cascade_stereo_df2T_f32.c **** 
 455:Source\FilteringFunctions/arm_biquad_cascade_stereo_df2T_f32.c ****             /* d2 = b2 * x[n] + a2 * y[n] */
 456:Source\FilteringFunctions/arm_biquad_cascade_stereo_df2T_f32.c ****             d2a = (b2 * Xn1a) + (a2 * acc1a);
 158              		.loc 1 456 0
 159 00d6 0B98     		ldr	r0, [sp, #44]
 160 00d8 0399     		ldr	r1, [sp, #12]
 161 00da FFF7FEFF 		bl	__aeabi_fmul
 162 00de 0390     		str	r0, [sp, #12]
 163 00e0 0D98     		ldr	r0, [sp, #52]
 164 00e2 0299     		ldr	r1, [sp, #8]
 165 00e4 FFF7FEFF 		bl	__aeabi_fmul
 166 00e8 011C     		add	r1, r0, #0
 167 00ea 0398     		ldr	r0, [sp, #12]
 168 00ec FFF7FEFF 		bl	__aeabi_fadd
 169 00f0 0790     		str	r0, [sp, #28]
 457:Source\FilteringFunctions/arm_biquad_cascade_stereo_df2T_f32.c ****             d2b = (b2 * Xn1b) + (a2 * acc1b);
 170              		.loc 1 457 0
ARM GAS  C:\Users\fneves\AppData\Local\Temp\ccbIEQCb.s 			page 12


 171 00f2 0B98     		ldr	r0, [sp, #44]
 172 00f4 0199     		ldr	r1, [sp, #4]
 173 00f6 FFF7FEFF 		bl	__aeabi_fmul
 174 00fa 0190     		str	r0, [sp, #4]
 175 00fc 0D98     		ldr	r0, [sp, #52]
 176 00fe 0499     		ldr	r1, [sp, #16]
 177 0100 FFF7FEFF 		bl	__aeabi_fmul
 178 0104 011C     		add	r1, r0, #0
 179 0106 0198     		ldr	r0, [sp, #4]
 180 0108 FFF7FEFF 		bl	__aeabi_fadd
 181 010c 0890     		str	r0, [sp, #32]
 458:Source\FilteringFunctions/arm_biquad_cascade_stereo_df2T_f32.c **** 
 459:Source\FilteringFunctions/arm_biquad_cascade_stereo_df2T_f32.c ****             /* decrement the loop counter */
 460:Source\FilteringFunctions/arm_biquad_cascade_stereo_df2T_f32.c ****             sample--;
 182              		.loc 1 460 0
 183 010e 013E     		sub	r6, r6, #1
 184 0110 0835     		add	r5, r5, #8
 185 0112 0834     		add	r4, r4, #8
 436:Source\FilteringFunctions/arm_biquad_cascade_stereo_df2T_f32.c ****         {
 186              		.loc 1 436 0
 187 0114 002E     		cmp	r6, #0
 188 0116 A5D1     		bne	.L3
 189              	.L2:
 461:Source\FilteringFunctions/arm_biquad_cascade_stereo_df2T_f32.c ****         }
 462:Source\FilteringFunctions/arm_biquad_cascade_stereo_df2T_f32.c **** 
 463:Source\FilteringFunctions/arm_biquad_cascade_stereo_df2T_f32.c ****         /* Store the updated state variables back into the state array */
 464:Source\FilteringFunctions/arm_biquad_cascade_stereo_df2T_f32.c ****         *pState++ = d1a;
 190              		.loc 1 464 0
 191 0118 5346     		mov	r3, r10
 192 011a 059A     		ldr	r2, [sp, #20]
 193 011c 1A60     		str	r2, [r3]
 465:Source\FilteringFunctions/arm_biquad_cascade_stereo_df2T_f32.c ****         *pState++ = d2a;
 194              		.loc 1 465 0
 195 011e 079A     		ldr	r2, [sp, #28]
 196 0120 5A60     		str	r2, [r3, #4]
 466:Source\FilteringFunctions/arm_biquad_cascade_stereo_df2T_f32.c ****         *pState++ = d1b;
 197              		.loc 1 466 0
 198 0122 069A     		ldr	r2, [sp, #24]
 199 0124 9A60     		str	r2, [r3, #8]
 467:Source\FilteringFunctions/arm_biquad_cascade_stereo_df2T_f32.c ****         *pState++ = d2b;
 200              		.loc 1 467 0
 201 0126 089A     		ldr	r2, [sp, #32]
 202 0128 DA60     		str	r2, [r3, #12]
 468:Source\FilteringFunctions/arm_biquad_cascade_stereo_df2T_f32.c **** 
 469:Source\FilteringFunctions/arm_biquad_cascade_stereo_df2T_f32.c ****         /* The current stage input is given as the output to the next stage */
 470:Source\FilteringFunctions/arm_biquad_cascade_stereo_df2T_f32.c ****         pIn = pDst;
 471:Source\FilteringFunctions/arm_biquad_cascade_stereo_df2T_f32.c **** 
 472:Source\FilteringFunctions/arm_biquad_cascade_stereo_df2T_f32.c ****         /*Reset the output working pointer */
 473:Source\FilteringFunctions/arm_biquad_cascade_stereo_df2T_f32.c ****         pOut = pDst;
 474:Source\FilteringFunctions/arm_biquad_cascade_stereo_df2T_f32.c **** 
 475:Source\FilteringFunctions/arm_biquad_cascade_stereo_df2T_f32.c ****         /* decrement the loop counter */
 476:Source\FilteringFunctions/arm_biquad_cascade_stereo_df2T_f32.c ****         stage--;
 203              		.loc 1 476 0
 204 012a 4B46     		mov	r3, r9
 205 012c 013B     		sub	r3, r3, #1
 206 012e 9946     		mov	r9, r3
 207 0130 1022     		mov	r2, #16
ARM GAS  C:\Users\fneves\AppData\Local\Temp\ccbIEQCb.s 			page 13


 208 0132 9446     		mov	ip, r2
 209 0134 E044     		add	r8, r8, ip
 210 0136 0432     		add	r2, r2, #4
 211 0138 9446     		mov	ip, r2
 212 013a E344     		add	fp, fp, ip
 470:Source\FilteringFunctions/arm_biquad_cascade_stereo_df2T_f32.c **** 
 213              		.loc 1 470 0
 214 013c 0E99     		ldr	r1, [sp, #56]
 477:Source\FilteringFunctions/arm_biquad_cascade_stereo_df2T_f32.c **** 
 478:Source\FilteringFunctions/arm_biquad_cascade_stereo_df2T_f32.c ****     } while (stage > 0u);
 215              		.loc 1 478 0
 216 013e 002B     		cmp	r3, #0
 217 0140 00D0     		beq	.LCB182
 218 0142 6DE7     		b	.L4	@long jump
 219              	.LCB182:
 479:Source\FilteringFunctions/arm_biquad_cascade_stereo_df2T_f32.c **** 
 480:Source\FilteringFunctions/arm_biquad_cascade_stereo_df2T_f32.c **** #else
 481:Source\FilteringFunctions/arm_biquad_cascade_stereo_df2T_f32.c **** 
 482:Source\FilteringFunctions/arm_biquad_cascade_stereo_df2T_f32.c ****     float32_t Xn2a, Xn3a, Xn4a;                          /*  Input State variables     */
 483:Source\FilteringFunctions/arm_biquad_cascade_stereo_df2T_f32.c ****     float32_t Xn2b, Xn3b, Xn4b;                          /*  Input State variables     */
 484:Source\FilteringFunctions/arm_biquad_cascade_stereo_df2T_f32.c ****     float32_t acc2a, acc3a, acc4a;                       /*  accumulator               */
 485:Source\FilteringFunctions/arm_biquad_cascade_stereo_df2T_f32.c ****     float32_t acc2b, acc3b, acc4b;                       /*  accumulator               */
 486:Source\FilteringFunctions/arm_biquad_cascade_stereo_df2T_f32.c ****     float32_t p0a, p1a, p2a, p3a, p4a, A1a;
 487:Source\FilteringFunctions/arm_biquad_cascade_stereo_df2T_f32.c ****     float32_t p0b, p1b, p2b, p3b, p4b, A1b;
 488:Source\FilteringFunctions/arm_biquad_cascade_stereo_df2T_f32.c **** 
 489:Source\FilteringFunctions/arm_biquad_cascade_stereo_df2T_f32.c ****     /* Run the below code for Cortex-M4 and Cortex-M3 */
 490:Source\FilteringFunctions/arm_biquad_cascade_stereo_df2T_f32.c ****     do
 491:Source\FilteringFunctions/arm_biquad_cascade_stereo_df2T_f32.c ****     {
 492:Source\FilteringFunctions/arm_biquad_cascade_stereo_df2T_f32.c ****         /* Reading the coefficients */
 493:Source\FilteringFunctions/arm_biquad_cascade_stereo_df2T_f32.c ****         b0 = *pCoeffs++;
 494:Source\FilteringFunctions/arm_biquad_cascade_stereo_df2T_f32.c ****         b1 = *pCoeffs++;
 495:Source\FilteringFunctions/arm_biquad_cascade_stereo_df2T_f32.c ****         b2 = *pCoeffs++;
 496:Source\FilteringFunctions/arm_biquad_cascade_stereo_df2T_f32.c ****         a1 = *pCoeffs++;
 497:Source\FilteringFunctions/arm_biquad_cascade_stereo_df2T_f32.c ****         a2 = *pCoeffs++;
 498:Source\FilteringFunctions/arm_biquad_cascade_stereo_df2T_f32.c **** 
 499:Source\FilteringFunctions/arm_biquad_cascade_stereo_df2T_f32.c ****         /*Reading the state values */
 500:Source\FilteringFunctions/arm_biquad_cascade_stereo_df2T_f32.c ****         d1a = pState[0];
 501:Source\FilteringFunctions/arm_biquad_cascade_stereo_df2T_f32.c ****         d2a = pState[1];
 502:Source\FilteringFunctions/arm_biquad_cascade_stereo_df2T_f32.c ****         d1b = pState[2];
 503:Source\FilteringFunctions/arm_biquad_cascade_stereo_df2T_f32.c ****         d2b = pState[3];
 504:Source\FilteringFunctions/arm_biquad_cascade_stereo_df2T_f32.c **** 
 505:Source\FilteringFunctions/arm_biquad_cascade_stereo_df2T_f32.c ****         /* Apply loop unrolling and compute 4 output values simultaneously. */
 506:Source\FilteringFunctions/arm_biquad_cascade_stereo_df2T_f32.c ****         sample = blockSize >> 2u;
 507:Source\FilteringFunctions/arm_biquad_cascade_stereo_df2T_f32.c **** 
 508:Source\FilteringFunctions/arm_biquad_cascade_stereo_df2T_f32.c ****         /* First part of the processing with loop unrolling.  Compute 4 outputs at a time.
 509:Source\FilteringFunctions/arm_biquad_cascade_stereo_df2T_f32.c ****         ** a second loop below computes the remaining 1 to 3 samples. */
 510:Source\FilteringFunctions/arm_biquad_cascade_stereo_df2T_f32.c ****         while (sample > 0u) {
 511:Source\FilteringFunctions/arm_biquad_cascade_stereo_df2T_f32.c **** 
 512:Source\FilteringFunctions/arm_biquad_cascade_stereo_df2T_f32.c ****             /* y[n] = b0 * x[n] + d1 */
 513:Source\FilteringFunctions/arm_biquad_cascade_stereo_df2T_f32.c ****             /* d1 = b1 * x[n] + a1 * y[n] + d2 */
 514:Source\FilteringFunctions/arm_biquad_cascade_stereo_df2T_f32.c ****             /* d2 = b2 * x[n] + a2 * y[n] */
 515:Source\FilteringFunctions/arm_biquad_cascade_stereo_df2T_f32.c **** 
 516:Source\FilteringFunctions/arm_biquad_cascade_stereo_df2T_f32.c ****             /* Read the four inputs */
 517:Source\FilteringFunctions/arm_biquad_cascade_stereo_df2T_f32.c ****             Xn1a = pIn[0];
 518:Source\FilteringFunctions/arm_biquad_cascade_stereo_df2T_f32.c ****             Xn1b = pIn[1];
 519:Source\FilteringFunctions/arm_biquad_cascade_stereo_df2T_f32.c ****             Xn2a = pIn[2];
 520:Source\FilteringFunctions/arm_biquad_cascade_stereo_df2T_f32.c ****             Xn2b = pIn[3];
ARM GAS  C:\Users\fneves\AppData\Local\Temp\ccbIEQCb.s 			page 14


 521:Source\FilteringFunctions/arm_biquad_cascade_stereo_df2T_f32.c ****             Xn3a = pIn[4];
 522:Source\FilteringFunctions/arm_biquad_cascade_stereo_df2T_f32.c ****             Xn3b = pIn[5];
 523:Source\FilteringFunctions/arm_biquad_cascade_stereo_df2T_f32.c ****             Xn4a = pIn[6];
 524:Source\FilteringFunctions/arm_biquad_cascade_stereo_df2T_f32.c ****             Xn4b = pIn[7];
 525:Source\FilteringFunctions/arm_biquad_cascade_stereo_df2T_f32.c ****             pIn += 8;
 526:Source\FilteringFunctions/arm_biquad_cascade_stereo_df2T_f32.c **** 
 527:Source\FilteringFunctions/arm_biquad_cascade_stereo_df2T_f32.c ****             p0a = b0 * Xn1a;
 528:Source\FilteringFunctions/arm_biquad_cascade_stereo_df2T_f32.c ****             p0b = b0 * Xn1b;
 529:Source\FilteringFunctions/arm_biquad_cascade_stereo_df2T_f32.c ****             p1a = b1 * Xn1a;
 530:Source\FilteringFunctions/arm_biquad_cascade_stereo_df2T_f32.c ****             p1b = b1 * Xn1b;
 531:Source\FilteringFunctions/arm_biquad_cascade_stereo_df2T_f32.c ****             acc1a = p0a + d1a;
 532:Source\FilteringFunctions/arm_biquad_cascade_stereo_df2T_f32.c ****             acc1b = p0b + d1b;
 533:Source\FilteringFunctions/arm_biquad_cascade_stereo_df2T_f32.c ****             p0a = b0 * Xn2a;
 534:Source\FilteringFunctions/arm_biquad_cascade_stereo_df2T_f32.c ****             p0b = b0 * Xn2b;
 535:Source\FilteringFunctions/arm_biquad_cascade_stereo_df2T_f32.c ****             p3a = a1 * acc1a;
 536:Source\FilteringFunctions/arm_biquad_cascade_stereo_df2T_f32.c ****             p3b = a1 * acc1b;
 537:Source\FilteringFunctions/arm_biquad_cascade_stereo_df2T_f32.c ****             p2a = b2 * Xn1a;
 538:Source\FilteringFunctions/arm_biquad_cascade_stereo_df2T_f32.c ****             p2b = b2 * Xn1b;
 539:Source\FilteringFunctions/arm_biquad_cascade_stereo_df2T_f32.c ****             A1a = p1a + p3a;
 540:Source\FilteringFunctions/arm_biquad_cascade_stereo_df2T_f32.c ****             A1b = p1b + p3b;
 541:Source\FilteringFunctions/arm_biquad_cascade_stereo_df2T_f32.c ****             p4a = a2 * acc1a;
 542:Source\FilteringFunctions/arm_biquad_cascade_stereo_df2T_f32.c ****             p4b = a2 * acc1b;
 543:Source\FilteringFunctions/arm_biquad_cascade_stereo_df2T_f32.c ****             d1a = A1a + d2a;
 544:Source\FilteringFunctions/arm_biquad_cascade_stereo_df2T_f32.c ****             d1b = A1b + d2b;
 545:Source\FilteringFunctions/arm_biquad_cascade_stereo_df2T_f32.c ****             d2a = p2a + p4a;
 546:Source\FilteringFunctions/arm_biquad_cascade_stereo_df2T_f32.c ****             d2b = p2b + p4b;
 547:Source\FilteringFunctions/arm_biquad_cascade_stereo_df2T_f32.c **** 
 548:Source\FilteringFunctions/arm_biquad_cascade_stereo_df2T_f32.c ****             p1a = b1 * Xn2a;
 549:Source\FilteringFunctions/arm_biquad_cascade_stereo_df2T_f32.c ****             p1b = b1 * Xn2b;
 550:Source\FilteringFunctions/arm_biquad_cascade_stereo_df2T_f32.c ****             acc2a = p0a + d1a;
 551:Source\FilteringFunctions/arm_biquad_cascade_stereo_df2T_f32.c ****             acc2b = p0b + d1b;
 552:Source\FilteringFunctions/arm_biquad_cascade_stereo_df2T_f32.c ****             p0a = b0 * Xn3a;
 553:Source\FilteringFunctions/arm_biquad_cascade_stereo_df2T_f32.c ****             p0b = b0 * Xn3b;
 554:Source\FilteringFunctions/arm_biquad_cascade_stereo_df2T_f32.c ****             p3a = a1 * acc2a;
 555:Source\FilteringFunctions/arm_biquad_cascade_stereo_df2T_f32.c ****             p3b = a1 * acc2b;
 556:Source\FilteringFunctions/arm_biquad_cascade_stereo_df2T_f32.c ****             p2a = b2 * Xn2a;
 557:Source\FilteringFunctions/arm_biquad_cascade_stereo_df2T_f32.c ****             p2b = b2 * Xn2b;
 558:Source\FilteringFunctions/arm_biquad_cascade_stereo_df2T_f32.c ****             A1a = p1a + p3a;
 559:Source\FilteringFunctions/arm_biquad_cascade_stereo_df2T_f32.c ****             A1b = p1b + p3b;
 560:Source\FilteringFunctions/arm_biquad_cascade_stereo_df2T_f32.c ****             p4a = a2 * acc2a;
 561:Source\FilteringFunctions/arm_biquad_cascade_stereo_df2T_f32.c ****             p4b = a2 * acc2b;
 562:Source\FilteringFunctions/arm_biquad_cascade_stereo_df2T_f32.c ****             d1a = A1a + d2a;
 563:Source\FilteringFunctions/arm_biquad_cascade_stereo_df2T_f32.c ****             d1b = A1b + d2b;
 564:Source\FilteringFunctions/arm_biquad_cascade_stereo_df2T_f32.c ****             d2a = p2a + p4a;
 565:Source\FilteringFunctions/arm_biquad_cascade_stereo_df2T_f32.c ****             d2b = p2b + p4b;
 566:Source\FilteringFunctions/arm_biquad_cascade_stereo_df2T_f32.c **** 
 567:Source\FilteringFunctions/arm_biquad_cascade_stereo_df2T_f32.c ****             p1a = b1 * Xn3a;
 568:Source\FilteringFunctions/arm_biquad_cascade_stereo_df2T_f32.c ****             p1b = b1 * Xn3b;
 569:Source\FilteringFunctions/arm_biquad_cascade_stereo_df2T_f32.c ****             acc3a = p0a + d1a;
 570:Source\FilteringFunctions/arm_biquad_cascade_stereo_df2T_f32.c ****             acc3b = p0b + d1b;
 571:Source\FilteringFunctions/arm_biquad_cascade_stereo_df2T_f32.c ****             p0a = b0 * Xn4a;
 572:Source\FilteringFunctions/arm_biquad_cascade_stereo_df2T_f32.c ****             p0b = b0 * Xn4b;
 573:Source\FilteringFunctions/arm_biquad_cascade_stereo_df2T_f32.c ****             p3a = a1 * acc3a;
 574:Source\FilteringFunctions/arm_biquad_cascade_stereo_df2T_f32.c ****             p3b = a1 * acc3b;
 575:Source\FilteringFunctions/arm_biquad_cascade_stereo_df2T_f32.c ****             p2a = b2 * Xn3a;
 576:Source\FilteringFunctions/arm_biquad_cascade_stereo_df2T_f32.c ****             p2b = b2 * Xn3b;
 577:Source\FilteringFunctions/arm_biquad_cascade_stereo_df2T_f32.c ****             A1a = p1a + p3a;
ARM GAS  C:\Users\fneves\AppData\Local\Temp\ccbIEQCb.s 			page 15


 578:Source\FilteringFunctions/arm_biquad_cascade_stereo_df2T_f32.c ****             A1b = p1b + p3b;
 579:Source\FilteringFunctions/arm_biquad_cascade_stereo_df2T_f32.c ****             p4a = a2 * acc3a;
 580:Source\FilteringFunctions/arm_biquad_cascade_stereo_df2T_f32.c ****             p4b = a2 * acc3b;
 581:Source\FilteringFunctions/arm_biquad_cascade_stereo_df2T_f32.c ****             d1a = A1a + d2a;
 582:Source\FilteringFunctions/arm_biquad_cascade_stereo_df2T_f32.c ****             d1b = A1b + d2b;
 583:Source\FilteringFunctions/arm_biquad_cascade_stereo_df2T_f32.c ****             d2a = p2a + p4a;
 584:Source\FilteringFunctions/arm_biquad_cascade_stereo_df2T_f32.c ****             d2b = p2b + p4b;
 585:Source\FilteringFunctions/arm_biquad_cascade_stereo_df2T_f32.c **** 
 586:Source\FilteringFunctions/arm_biquad_cascade_stereo_df2T_f32.c ****             acc4a = p0a + d1a;
 587:Source\FilteringFunctions/arm_biquad_cascade_stereo_df2T_f32.c ****             acc4b = p0b + d1b;
 588:Source\FilteringFunctions/arm_biquad_cascade_stereo_df2T_f32.c ****             p1a = b1 * Xn4a;
 589:Source\FilteringFunctions/arm_biquad_cascade_stereo_df2T_f32.c ****             p1b = b1 * Xn4b;
 590:Source\FilteringFunctions/arm_biquad_cascade_stereo_df2T_f32.c ****             p3a = a1 * acc4a;
 591:Source\FilteringFunctions/arm_biquad_cascade_stereo_df2T_f32.c ****             p3b = a1 * acc4b;
 592:Source\FilteringFunctions/arm_biquad_cascade_stereo_df2T_f32.c ****             p2a = b2 * Xn4a;
 593:Source\FilteringFunctions/arm_biquad_cascade_stereo_df2T_f32.c ****             p2b = b2 * Xn4b;
 594:Source\FilteringFunctions/arm_biquad_cascade_stereo_df2T_f32.c ****             A1a = p1a + p3a;
 595:Source\FilteringFunctions/arm_biquad_cascade_stereo_df2T_f32.c ****             A1b = p1b + p3b;
 596:Source\FilteringFunctions/arm_biquad_cascade_stereo_df2T_f32.c ****             p4a = a2 * acc4a;
 597:Source\FilteringFunctions/arm_biquad_cascade_stereo_df2T_f32.c ****             p4b = a2 * acc4b;
 598:Source\FilteringFunctions/arm_biquad_cascade_stereo_df2T_f32.c ****             d1a = A1a + d2a;
 599:Source\FilteringFunctions/arm_biquad_cascade_stereo_df2T_f32.c ****             d1b = A1b + d2b;
 600:Source\FilteringFunctions/arm_biquad_cascade_stereo_df2T_f32.c ****             d2a = p2a + p4a;
 601:Source\FilteringFunctions/arm_biquad_cascade_stereo_df2T_f32.c ****             d2b = p2b + p4b;
 602:Source\FilteringFunctions/arm_biquad_cascade_stereo_df2T_f32.c **** 
 603:Source\FilteringFunctions/arm_biquad_cascade_stereo_df2T_f32.c ****             pOut[0] = acc1a;
 604:Source\FilteringFunctions/arm_biquad_cascade_stereo_df2T_f32.c ****             pOut[1] = acc1b;
 605:Source\FilteringFunctions/arm_biquad_cascade_stereo_df2T_f32.c ****             pOut[2] = acc2a;
 606:Source\FilteringFunctions/arm_biquad_cascade_stereo_df2T_f32.c ****             pOut[3] = acc2b;
 607:Source\FilteringFunctions/arm_biquad_cascade_stereo_df2T_f32.c ****             pOut[4] = acc3a;
 608:Source\FilteringFunctions/arm_biquad_cascade_stereo_df2T_f32.c ****             pOut[5] = acc3b;
 609:Source\FilteringFunctions/arm_biquad_cascade_stereo_df2T_f32.c ****             pOut[6] = acc4a;
 610:Source\FilteringFunctions/arm_biquad_cascade_stereo_df2T_f32.c ****             pOut[7] = acc4b;
 611:Source\FilteringFunctions/arm_biquad_cascade_stereo_df2T_f32.c ****             pOut += 8;
 612:Source\FilteringFunctions/arm_biquad_cascade_stereo_df2T_f32.c **** 
 613:Source\FilteringFunctions/arm_biquad_cascade_stereo_df2T_f32.c ****             sample--;
 614:Source\FilteringFunctions/arm_biquad_cascade_stereo_df2T_f32.c ****         }
 615:Source\FilteringFunctions/arm_biquad_cascade_stereo_df2T_f32.c **** 
 616:Source\FilteringFunctions/arm_biquad_cascade_stereo_df2T_f32.c ****         sample = blockSize & 0x3u;
 617:Source\FilteringFunctions/arm_biquad_cascade_stereo_df2T_f32.c ****         while (sample > 0u) {
 618:Source\FilteringFunctions/arm_biquad_cascade_stereo_df2T_f32.c ****             Xn1a = *pIn++;
 619:Source\FilteringFunctions/arm_biquad_cascade_stereo_df2T_f32.c ****             Xn1b = *pIn++;
 620:Source\FilteringFunctions/arm_biquad_cascade_stereo_df2T_f32.c **** 
 621:Source\FilteringFunctions/arm_biquad_cascade_stereo_df2T_f32.c ****             p0a = b0 * Xn1a;
 622:Source\FilteringFunctions/arm_biquad_cascade_stereo_df2T_f32.c ****             p0b = b0 * Xn1b;
 623:Source\FilteringFunctions/arm_biquad_cascade_stereo_df2T_f32.c ****             p1a = b1 * Xn1a;
 624:Source\FilteringFunctions/arm_biquad_cascade_stereo_df2T_f32.c ****             p1b = b1 * Xn1b;
 625:Source\FilteringFunctions/arm_biquad_cascade_stereo_df2T_f32.c ****             acc1a = p0a + d1a;
 626:Source\FilteringFunctions/arm_biquad_cascade_stereo_df2T_f32.c ****             acc1b = p0b + d1b;
 627:Source\FilteringFunctions/arm_biquad_cascade_stereo_df2T_f32.c ****             p3a = a1 * acc1a;
 628:Source\FilteringFunctions/arm_biquad_cascade_stereo_df2T_f32.c ****             p3b = a1 * acc1b;
 629:Source\FilteringFunctions/arm_biquad_cascade_stereo_df2T_f32.c ****             p2a = b2 * Xn1a;
 630:Source\FilteringFunctions/arm_biquad_cascade_stereo_df2T_f32.c ****             p2b = b2 * Xn1b;
 631:Source\FilteringFunctions/arm_biquad_cascade_stereo_df2T_f32.c ****             A1a = p1a + p3a;
 632:Source\FilteringFunctions/arm_biquad_cascade_stereo_df2T_f32.c ****             A1b = p1b + p3b;
 633:Source\FilteringFunctions/arm_biquad_cascade_stereo_df2T_f32.c ****             p4a = a2 * acc1a;
 634:Source\FilteringFunctions/arm_biquad_cascade_stereo_df2T_f32.c ****             p4b = a2 * acc1b;
ARM GAS  C:\Users\fneves\AppData\Local\Temp\ccbIEQCb.s 			page 16


 635:Source\FilteringFunctions/arm_biquad_cascade_stereo_df2T_f32.c ****             d1a = A1a + d2a;
 636:Source\FilteringFunctions/arm_biquad_cascade_stereo_df2T_f32.c ****             d1b = A1b + d2b;
 637:Source\FilteringFunctions/arm_biquad_cascade_stereo_df2T_f32.c ****             d2a = p2a + p4a;
 638:Source\FilteringFunctions/arm_biquad_cascade_stereo_df2T_f32.c ****             d2b = p2b + p4b;
 639:Source\FilteringFunctions/arm_biquad_cascade_stereo_df2T_f32.c **** 
 640:Source\FilteringFunctions/arm_biquad_cascade_stereo_df2T_f32.c ****             *pOut++ = acc1a;
 641:Source\FilteringFunctions/arm_biquad_cascade_stereo_df2T_f32.c ****             *pOut++ = acc1b;
 642:Source\FilteringFunctions/arm_biquad_cascade_stereo_df2T_f32.c **** 
 643:Source\FilteringFunctions/arm_biquad_cascade_stereo_df2T_f32.c ****             sample--;
 644:Source\FilteringFunctions/arm_biquad_cascade_stereo_df2T_f32.c ****         }
 645:Source\FilteringFunctions/arm_biquad_cascade_stereo_df2T_f32.c **** 
 646:Source\FilteringFunctions/arm_biquad_cascade_stereo_df2T_f32.c ****         /* Store the updated state variables back into the state array */
 647:Source\FilteringFunctions/arm_biquad_cascade_stereo_df2T_f32.c ****         *pState++ = d1a;
 648:Source\FilteringFunctions/arm_biquad_cascade_stereo_df2T_f32.c ****         *pState++ = d2a;
 649:Source\FilteringFunctions/arm_biquad_cascade_stereo_df2T_f32.c ****         *pState++ = d1b;
 650:Source\FilteringFunctions/arm_biquad_cascade_stereo_df2T_f32.c ****         *pState++ = d2b;
 651:Source\FilteringFunctions/arm_biquad_cascade_stereo_df2T_f32.c **** 
 652:Source\FilteringFunctions/arm_biquad_cascade_stereo_df2T_f32.c ****         /* The current stage input is given as the output to the next stage */
 653:Source\FilteringFunctions/arm_biquad_cascade_stereo_df2T_f32.c ****         pIn = pDst;
 654:Source\FilteringFunctions/arm_biquad_cascade_stereo_df2T_f32.c **** 
 655:Source\FilteringFunctions/arm_biquad_cascade_stereo_df2T_f32.c ****         /*Reset the output working pointer */
 656:Source\FilteringFunctions/arm_biquad_cascade_stereo_df2T_f32.c ****         pOut = pDst;
 657:Source\FilteringFunctions/arm_biquad_cascade_stereo_df2T_f32.c **** 
 658:Source\FilteringFunctions/arm_biquad_cascade_stereo_df2T_f32.c ****         /* decrement the loop counter */
 659:Source\FilteringFunctions/arm_biquad_cascade_stereo_df2T_f32.c ****         stage--;
 660:Source\FilteringFunctions/arm_biquad_cascade_stereo_df2T_f32.c **** 
 661:Source\FilteringFunctions/arm_biquad_cascade_stereo_df2T_f32.c ****     } while (stage > 0u);
 662:Source\FilteringFunctions/arm_biquad_cascade_stereo_df2T_f32.c **** 
 663:Source\FilteringFunctions/arm_biquad_cascade_stereo_df2T_f32.c **** #endif
 664:Source\FilteringFunctions/arm_biquad_cascade_stereo_df2T_f32.c **** 
 665:Source\FilteringFunctions/arm_biquad_cascade_stereo_df2T_f32.c **** }
 220              		.loc 1 665 0
 221 0144 10B0     		add	sp, sp, #64
 222              		@ sp needed
 223 0146 3CBC     		pop	{r2, r3, r4, r5}
 224 0148 9046     		mov	r8, r2
 225 014a 9946     		mov	r9, r3
 226 014c A246     		mov	r10, r4
 227 014e AB46     		mov	fp, r5
 228 0150 70BD     		pop	{r4, r5, r6, pc}
 229              		.cfi_endproc
 230              	.LFE82:
 231              		.size	arm_biquad_cascade_stereo_df2T_f32, .-arm_biquad_cascade_stereo_df2T_f32
 232 0152 C046     		.text
 233              	.Letext0:
 234              		.file 2 "c:\\program files (x86)\\cypress\\psoc creator\\4.0\\psoc creator\\import\\gnu\\arm\\4.9.
 235              		.file 3 "c:\\program files (x86)\\cypress\\psoc creator\\4.0\\psoc creator\\import\\gnu\\arm\\4.9.
 236              		.file 4 ".\\Include/arm_math.h"