ARM GAS  C:\Users\fneves\AppData\Local\Temp\ccydtiQI.s 			page 1


   1              		.cpu cortex-m0plus
   2              		.fpu softvfp
   3              		.eabi_attribute 20, 1
   4              		.eabi_attribute 21, 1
   5              		.eabi_attribute 23, 3
   6              		.eabi_attribute 24, 1
   7              		.eabi_attribute 25, 1
   8              		.eabi_attribute 26, 1
   9              		.eabi_attribute 30, 6
  10              		.eabi_attribute 34, 0
  11              		.eabi_attribute 18, 4
  12              		.code	16
  13              		.file	"arm_scale_q31.c"
  14              		.text
  15              	.Ltext0:
  16              		.cfi_sections	.debug_frame
  17              		.global	__aeabi_lmul
  18              		.section	.text.arm_scale_q31,"ax",%progbits
  19              		.align	2
  20              		.global	arm_scale_q31
  21              		.code	16
  22              		.thumb_func
  23              		.type	arm_scale_q31, %function
  24              	arm_scale_q31:
  25              	.LFB82:
  26              		.file 1 "Source\\BasicMathFunctions\\arm_scale_q31.c"
   1:Source\BasicMathFunctions/arm_scale_q31.c **** /* ----------------------------------------------------------------------
   2:Source\BasicMathFunctions/arm_scale_q31.c ****  * Project:      CMSIS DSP Library
   3:Source\BasicMathFunctions/arm_scale_q31.c ****  * Title:        arm_scale_q31.c
   4:Source\BasicMathFunctions/arm_scale_q31.c ****  * Description:  Multiplies a Q31 vector by a scalar
   5:Source\BasicMathFunctions/arm_scale_q31.c ****  *
   6:Source\BasicMathFunctions/arm_scale_q31.c ****  * $Date:        27. January 2017
   7:Source\BasicMathFunctions/arm_scale_q31.c ****  * $Revision:    V.1.5.1
   8:Source\BasicMathFunctions/arm_scale_q31.c ****  *
   9:Source\BasicMathFunctions/arm_scale_q31.c ****  * Target Processor: Cortex-M cores
  10:Source\BasicMathFunctions/arm_scale_q31.c ****  * -------------------------------------------------------------------- */
  11:Source\BasicMathFunctions/arm_scale_q31.c **** /*
  12:Source\BasicMathFunctions/arm_scale_q31.c ****  * Copyright (C) 2010-2017 ARM Limited or its affiliates. All rights reserved.
  13:Source\BasicMathFunctions/arm_scale_q31.c ****  *
  14:Source\BasicMathFunctions/arm_scale_q31.c ****  * SPDX-License-Identifier: Apache-2.0
  15:Source\BasicMathFunctions/arm_scale_q31.c ****  *
  16:Source\BasicMathFunctions/arm_scale_q31.c ****  * Licensed under the Apache License, Version 2.0 (the License); you may
  17:Source\BasicMathFunctions/arm_scale_q31.c ****  * not use this file except in compliance with the License.
  18:Source\BasicMathFunctions/arm_scale_q31.c ****  * You may obtain a copy of the License at
  19:Source\BasicMathFunctions/arm_scale_q31.c ****  *
  20:Source\BasicMathFunctions/arm_scale_q31.c ****  * www.apache.org/licenses/LICENSE-2.0
  21:Source\BasicMathFunctions/arm_scale_q31.c ****  *
  22:Source\BasicMathFunctions/arm_scale_q31.c ****  * Unless required by applicable law or agreed to in writing, software
  23:Source\BasicMathFunctions/arm_scale_q31.c ****  * distributed under the License is distributed on an AS IS BASIS, WITHOUT
  24:Source\BasicMathFunctions/arm_scale_q31.c ****  * WARRANTIES OR CONDITIONS OF ANY KIND, either express or implied.
  25:Source\BasicMathFunctions/arm_scale_q31.c ****  * See the License for the specific language governing permissions and
  26:Source\BasicMathFunctions/arm_scale_q31.c ****  * limitations under the License.
  27:Source\BasicMathFunctions/arm_scale_q31.c ****  */
  28:Source\BasicMathFunctions/arm_scale_q31.c **** 
  29:Source\BasicMathFunctions/arm_scale_q31.c **** #include "arm_math.h"
  30:Source\BasicMathFunctions/arm_scale_q31.c **** 
  31:Source\BasicMathFunctions/arm_scale_q31.c **** /**
ARM GAS  C:\Users\fneves\AppData\Local\Temp\ccydtiQI.s 			page 2


  32:Source\BasicMathFunctions/arm_scale_q31.c ****  * @ingroup groupMath
  33:Source\BasicMathFunctions/arm_scale_q31.c ****  */
  34:Source\BasicMathFunctions/arm_scale_q31.c **** 
  35:Source\BasicMathFunctions/arm_scale_q31.c **** /**
  36:Source\BasicMathFunctions/arm_scale_q31.c ****  * @addtogroup scale
  37:Source\BasicMathFunctions/arm_scale_q31.c ****  * @{
  38:Source\BasicMathFunctions/arm_scale_q31.c ****  */
  39:Source\BasicMathFunctions/arm_scale_q31.c **** 
  40:Source\BasicMathFunctions/arm_scale_q31.c **** /**
  41:Source\BasicMathFunctions/arm_scale_q31.c ****  * @brief Multiplies a Q31 vector by a scalar.
  42:Source\BasicMathFunctions/arm_scale_q31.c ****  * @param[in]       *pSrc points to the input vector
  43:Source\BasicMathFunctions/arm_scale_q31.c ****  * @param[in]       scaleFract fractional portion of the scale value
  44:Source\BasicMathFunctions/arm_scale_q31.c ****  * @param[in]       shift number of bits to shift the result by
  45:Source\BasicMathFunctions/arm_scale_q31.c ****  * @param[out]      *pDst points to the output vector
  46:Source\BasicMathFunctions/arm_scale_q31.c ****  * @param[in]       blockSize number of samples in the vector
  47:Source\BasicMathFunctions/arm_scale_q31.c ****  * @return none.
  48:Source\BasicMathFunctions/arm_scale_q31.c ****  *
  49:Source\BasicMathFunctions/arm_scale_q31.c ****  * <b>Scaling and Overflow Behavior:</b>
  50:Source\BasicMathFunctions/arm_scale_q31.c ****  * \par
  51:Source\BasicMathFunctions/arm_scale_q31.c ****  * The input data <code>*pSrc</code> and <code>scaleFract</code> are in 1.31 format.
  52:Source\BasicMathFunctions/arm_scale_q31.c ****  * These are multiplied to yield a 2.62 intermediate result and this is shifted with saturation to 
  53:Source\BasicMathFunctions/arm_scale_q31.c ****  */
  54:Source\BasicMathFunctions/arm_scale_q31.c **** 
  55:Source\BasicMathFunctions/arm_scale_q31.c **** void arm_scale_q31(
  56:Source\BasicMathFunctions/arm_scale_q31.c ****   q31_t * pSrc,
  57:Source\BasicMathFunctions/arm_scale_q31.c ****   q31_t scaleFract,
  58:Source\BasicMathFunctions/arm_scale_q31.c ****   int8_t shift,
  59:Source\BasicMathFunctions/arm_scale_q31.c ****   q31_t * pDst,
  60:Source\BasicMathFunctions/arm_scale_q31.c ****   uint32_t blockSize)
  61:Source\BasicMathFunctions/arm_scale_q31.c **** {
  27              		.loc 1 61 0
  28              		.cfi_startproc
  29 0000 F0B5     		push	{r4, r5, r6, r7, lr}
  30              		.cfi_def_cfa_offset 20
  31              		.cfi_offset 4, -20
  32              		.cfi_offset 5, -16
  33              		.cfi_offset 6, -12
  34              		.cfi_offset 7, -8
  35              		.cfi_offset 14, -4
  36 0002 93B0     		sub	sp, sp, #76
  37              		.cfi_def_cfa_offset 96
  38 0004 00AF     		add	r7, sp, #0
  39              		.cfi_def_cfa_register 7
  40 0006 7863     		str	r0, [r7, #52]
  41 0008 3963     		str	r1, [r7, #48]
  42 000a 111C     		mov	r1, r2
  43 000c BB62     		str	r3, [r7, #40]
  44 000e 2F23     		mov	r3, #47
  45 0010 FA18     		add	r2, r7, r3
  46 0012 0B1C     		add	r3, r1, #0
  47 0014 1370     		strb	r3, [r2]
  62:Source\BasicMathFunctions/arm_scale_q31.c ****   int8_t kShift = shift + 1;                     /* Shift to apply after scaling */
  48              		.loc 1 62 0
  49 0016 2F23     		mov	r3, #47
  50 0018 FB18     		add	r3, r7, r3
  51 001a 1B78     		ldrb	r3, [r3]
  52 001c 0133     		add	r3, r3, #1
ARM GAS  C:\Users\fneves\AppData\Local\Temp\ccydtiQI.s 			page 3


  53 001e DBB2     		uxtb	r3, r3
  54 0020 1722     		mov	r2, #23
  55 0022 2821     		mov	r1, #40
  56 0024 8C46     		mov	ip, r1
  57 0026 BC44     		add	ip, ip, r7
  58 0028 6244     		add	r2, r2, ip
  59 002a 1370     		strb	r3, [r2]
  63:Source\BasicMathFunctions/arm_scale_q31.c ****   int8_t sign = (kShift & 0x80);
  60              		.loc 1 63 0
  61 002c 1623     		mov	r3, #22
  62 002e 2822     		mov	r2, #40
  63 0030 BA18     		add	r2, r7, r2
  64 0032 D118     		add	r1, r2, r3
  65 0034 1723     		mov	r3, #23
  66 0036 2822     		mov	r2, #40
  67 0038 9446     		mov	ip, r2
  68 003a BC44     		add	ip, ip, r7
  69 003c 6344     		add	r3, r3, ip
  70 003e 1A78     		ldrb	r2, [r3]
  71 0040 7F23     		mov	r3, #127
  72 0042 9A43     		bic	r2, r3
  73 0044 131C     		mov	r3, r2
  74 0046 0B70     		strb	r3, [r1]
  64:Source\BasicMathFunctions/arm_scale_q31.c ****   uint32_t blkCnt;                               /* loop counter */
  65:Source\BasicMathFunctions/arm_scale_q31.c ****   q31_t in, out;
  66:Source\BasicMathFunctions/arm_scale_q31.c **** 
  67:Source\BasicMathFunctions/arm_scale_q31.c **** #if defined (ARM_MATH_DSP)
  68:Source\BasicMathFunctions/arm_scale_q31.c **** 
  69:Source\BasicMathFunctions/arm_scale_q31.c **** /* Run the below code for Cortex-M4 and Cortex-M3 */
  70:Source\BasicMathFunctions/arm_scale_q31.c **** 
  71:Source\BasicMathFunctions/arm_scale_q31.c ****   q31_t in1, in2, in3, in4;                      /* temporary input variables */
  72:Source\BasicMathFunctions/arm_scale_q31.c ****   q31_t out1, out2, out3, out4;                  /* temporary output variabels */
  73:Source\BasicMathFunctions/arm_scale_q31.c **** 
  74:Source\BasicMathFunctions/arm_scale_q31.c **** 
  75:Source\BasicMathFunctions/arm_scale_q31.c ****   /*loop Unrolling */
  76:Source\BasicMathFunctions/arm_scale_q31.c ****   blkCnt = blockSize >> 2u;
  77:Source\BasicMathFunctions/arm_scale_q31.c **** 
  78:Source\BasicMathFunctions/arm_scale_q31.c ****   if (sign == 0u)
  79:Source\BasicMathFunctions/arm_scale_q31.c ****   {
  80:Source\BasicMathFunctions/arm_scale_q31.c ****     /* First part of the processing with loop unrolling.  Compute 4 outputs at a time.
  81:Source\BasicMathFunctions/arm_scale_q31.c ****      ** a second loop below computes the remaining 1 to 3 samples. */
  82:Source\BasicMathFunctions/arm_scale_q31.c ****     while (blkCnt > 0u)
  83:Source\BasicMathFunctions/arm_scale_q31.c ****     {
  84:Source\BasicMathFunctions/arm_scale_q31.c ****       /* read four inputs from source */
  85:Source\BasicMathFunctions/arm_scale_q31.c ****       in1 = *pSrc;
  86:Source\BasicMathFunctions/arm_scale_q31.c ****       in2 = *(pSrc + 1);
  87:Source\BasicMathFunctions/arm_scale_q31.c ****       in3 = *(pSrc + 2);
  88:Source\BasicMathFunctions/arm_scale_q31.c ****       in4 = *(pSrc + 3);
  89:Source\BasicMathFunctions/arm_scale_q31.c **** 
  90:Source\BasicMathFunctions/arm_scale_q31.c ****       /* multiply input with scaler value */
  91:Source\BasicMathFunctions/arm_scale_q31.c ****       in1 = ((q63_t) in1 * scaleFract) >> 32;
  92:Source\BasicMathFunctions/arm_scale_q31.c ****       in2 = ((q63_t) in2 * scaleFract) >> 32;
  93:Source\BasicMathFunctions/arm_scale_q31.c ****       in3 = ((q63_t) in3 * scaleFract) >> 32;
  94:Source\BasicMathFunctions/arm_scale_q31.c ****       in4 = ((q63_t) in4 * scaleFract) >> 32;
  95:Source\BasicMathFunctions/arm_scale_q31.c **** 
  96:Source\BasicMathFunctions/arm_scale_q31.c ****       /* apply shifting */
  97:Source\BasicMathFunctions/arm_scale_q31.c ****       out1 = in1 << kShift;
ARM GAS  C:\Users\fneves\AppData\Local\Temp\ccydtiQI.s 			page 4


  98:Source\BasicMathFunctions/arm_scale_q31.c ****       out2 = in2 << kShift;
  99:Source\BasicMathFunctions/arm_scale_q31.c **** 
 100:Source\BasicMathFunctions/arm_scale_q31.c ****       /* saturate the results. */
 101:Source\BasicMathFunctions/arm_scale_q31.c ****       if (in1 != (out1 >> kShift))
 102:Source\BasicMathFunctions/arm_scale_q31.c ****         out1 = 0x7FFFFFFF ^ (in1 >> 31);
 103:Source\BasicMathFunctions/arm_scale_q31.c **** 
 104:Source\BasicMathFunctions/arm_scale_q31.c ****       if (in2 != (out2 >> kShift))
 105:Source\BasicMathFunctions/arm_scale_q31.c ****         out2 = 0x7FFFFFFF ^ (in2 >> 31);
 106:Source\BasicMathFunctions/arm_scale_q31.c **** 
 107:Source\BasicMathFunctions/arm_scale_q31.c ****       out3 = in3 << kShift;
 108:Source\BasicMathFunctions/arm_scale_q31.c ****       out4 = in4 << kShift;
 109:Source\BasicMathFunctions/arm_scale_q31.c **** 
 110:Source\BasicMathFunctions/arm_scale_q31.c ****       *pDst = out1;
 111:Source\BasicMathFunctions/arm_scale_q31.c ****       *(pDst + 1) = out2;
 112:Source\BasicMathFunctions/arm_scale_q31.c **** 
 113:Source\BasicMathFunctions/arm_scale_q31.c ****       if (in3 != (out3 >> kShift))
 114:Source\BasicMathFunctions/arm_scale_q31.c ****         out3 = 0x7FFFFFFF ^ (in3 >> 31);
 115:Source\BasicMathFunctions/arm_scale_q31.c **** 
 116:Source\BasicMathFunctions/arm_scale_q31.c ****       if (in4 != (out4 >> kShift))
 117:Source\BasicMathFunctions/arm_scale_q31.c ****         out4 = 0x7FFFFFFF ^ (in4 >> 31);
 118:Source\BasicMathFunctions/arm_scale_q31.c **** 
 119:Source\BasicMathFunctions/arm_scale_q31.c ****       /* Store result destination */
 120:Source\BasicMathFunctions/arm_scale_q31.c ****       *(pDst + 2) = out3;
 121:Source\BasicMathFunctions/arm_scale_q31.c ****       *(pDst + 3) = out4;
 122:Source\BasicMathFunctions/arm_scale_q31.c **** 
 123:Source\BasicMathFunctions/arm_scale_q31.c ****       /* Update pointers to process next sampels */
 124:Source\BasicMathFunctions/arm_scale_q31.c ****       pSrc += 4u;
 125:Source\BasicMathFunctions/arm_scale_q31.c ****       pDst += 4u;
 126:Source\BasicMathFunctions/arm_scale_q31.c **** 
 127:Source\BasicMathFunctions/arm_scale_q31.c ****       /* Decrement the loop counter */
 128:Source\BasicMathFunctions/arm_scale_q31.c ****       blkCnt--;
 129:Source\BasicMathFunctions/arm_scale_q31.c ****     }
 130:Source\BasicMathFunctions/arm_scale_q31.c **** 
 131:Source\BasicMathFunctions/arm_scale_q31.c ****   }
 132:Source\BasicMathFunctions/arm_scale_q31.c ****   else
 133:Source\BasicMathFunctions/arm_scale_q31.c ****   {
 134:Source\BasicMathFunctions/arm_scale_q31.c ****     /* First part of the processing with loop unrolling.  Compute 4 outputs at a time.
 135:Source\BasicMathFunctions/arm_scale_q31.c ****      ** a second loop below computes the remaining 1 to 3 samples. */
 136:Source\BasicMathFunctions/arm_scale_q31.c ****     while (blkCnt > 0u)
 137:Source\BasicMathFunctions/arm_scale_q31.c ****     {
 138:Source\BasicMathFunctions/arm_scale_q31.c ****       /* read four inputs from source */
 139:Source\BasicMathFunctions/arm_scale_q31.c ****       in1 = *pSrc;
 140:Source\BasicMathFunctions/arm_scale_q31.c ****       in2 = *(pSrc + 1);
 141:Source\BasicMathFunctions/arm_scale_q31.c ****       in3 = *(pSrc + 2);
 142:Source\BasicMathFunctions/arm_scale_q31.c ****       in4 = *(pSrc + 3);
 143:Source\BasicMathFunctions/arm_scale_q31.c **** 
 144:Source\BasicMathFunctions/arm_scale_q31.c ****       /* multiply input with scaler value */
 145:Source\BasicMathFunctions/arm_scale_q31.c ****       in1 = ((q63_t) in1 * scaleFract) >> 32;
 146:Source\BasicMathFunctions/arm_scale_q31.c ****       in2 = ((q63_t) in2 * scaleFract) >> 32;
 147:Source\BasicMathFunctions/arm_scale_q31.c ****       in3 = ((q63_t) in3 * scaleFract) >> 32;
 148:Source\BasicMathFunctions/arm_scale_q31.c ****       in4 = ((q63_t) in4 * scaleFract) >> 32;
 149:Source\BasicMathFunctions/arm_scale_q31.c **** 
 150:Source\BasicMathFunctions/arm_scale_q31.c ****       /* apply shifting */
 151:Source\BasicMathFunctions/arm_scale_q31.c ****       out1 = in1 >> -kShift;
 152:Source\BasicMathFunctions/arm_scale_q31.c ****       out2 = in2 >> -kShift;
 153:Source\BasicMathFunctions/arm_scale_q31.c **** 
 154:Source\BasicMathFunctions/arm_scale_q31.c ****       out3 = in3 >> -kShift;
ARM GAS  C:\Users\fneves\AppData\Local\Temp\ccydtiQI.s 			page 5


 155:Source\BasicMathFunctions/arm_scale_q31.c ****       out4 = in4 >> -kShift;
 156:Source\BasicMathFunctions/arm_scale_q31.c **** 
 157:Source\BasicMathFunctions/arm_scale_q31.c ****       /* Store result destination */
 158:Source\BasicMathFunctions/arm_scale_q31.c ****       *pDst = out1;
 159:Source\BasicMathFunctions/arm_scale_q31.c ****       *(pDst + 1) = out2;
 160:Source\BasicMathFunctions/arm_scale_q31.c **** 
 161:Source\BasicMathFunctions/arm_scale_q31.c ****       *(pDst + 2) = out3;
 162:Source\BasicMathFunctions/arm_scale_q31.c ****       *(pDst + 3) = out4;
 163:Source\BasicMathFunctions/arm_scale_q31.c **** 
 164:Source\BasicMathFunctions/arm_scale_q31.c ****       /* Update pointers to process next sampels */
 165:Source\BasicMathFunctions/arm_scale_q31.c ****       pSrc += 4u;
 166:Source\BasicMathFunctions/arm_scale_q31.c ****       pDst += 4u;
 167:Source\BasicMathFunctions/arm_scale_q31.c **** 
 168:Source\BasicMathFunctions/arm_scale_q31.c ****       /* Decrement the loop counter */
 169:Source\BasicMathFunctions/arm_scale_q31.c ****       blkCnt--;
 170:Source\BasicMathFunctions/arm_scale_q31.c ****     }
 171:Source\BasicMathFunctions/arm_scale_q31.c ****   }
 172:Source\BasicMathFunctions/arm_scale_q31.c ****   /* If the blockSize is not a multiple of 4, compute any remaining output samples here.
 173:Source\BasicMathFunctions/arm_scale_q31.c ****    ** No loop unrolling is used. */
 174:Source\BasicMathFunctions/arm_scale_q31.c ****   blkCnt = blockSize % 0x4u;
 175:Source\BasicMathFunctions/arm_scale_q31.c **** 
 176:Source\BasicMathFunctions/arm_scale_q31.c **** #else
 177:Source\BasicMathFunctions/arm_scale_q31.c **** 
 178:Source\BasicMathFunctions/arm_scale_q31.c ****   /* Run the below code for Cortex-M0 */
 179:Source\BasicMathFunctions/arm_scale_q31.c **** 
 180:Source\BasicMathFunctions/arm_scale_q31.c ****   /* Initialize blkCnt with number of samples */
 181:Source\BasicMathFunctions/arm_scale_q31.c ****   blkCnt = blockSize;
  75              		.loc 1 181 0
  76 0048 3B6E     		ldr	r3, [r7, #96]
  77 004a 7B64     		str	r3, [r7, #68]
 182:Source\BasicMathFunctions/arm_scale_q31.c **** 
 183:Source\BasicMathFunctions/arm_scale_q31.c **** #endif /* #if defined (ARM_MATH_DSP) */
 184:Source\BasicMathFunctions/arm_scale_q31.c **** 
 185:Source\BasicMathFunctions/arm_scale_q31.c ****   if (sign == 0)
  78              		.loc 1 185 0
  79 004c 1623     		mov	r3, #22
  80 004e 2822     		mov	r2, #40
  81 0050 9446     		mov	ip, r2
  82 0052 BC44     		add	ip, ip, r7
  83 0054 6344     		add	r3, r3, ip
  84 0056 1B78     		ldrb	r3, [r3]
  85 0058 5BB2     		sxtb	r3, r3
  86 005a 002B     		cmp	r3, #0
  87 005c 43D1     		bne	.L2
 186:Source\BasicMathFunctions/arm_scale_q31.c ****   {
 187:Source\BasicMathFunctions/arm_scale_q31.c **** 	  while (blkCnt > 0u)
  88              		.loc 1 187 0
  89 005e 3EE0     		b	.L3
  90              	.L5:
 188:Source\BasicMathFunctions/arm_scale_q31.c **** 	  {
 189:Source\BasicMathFunctions/arm_scale_q31.c **** 		/* C = A * scale */
 190:Source\BasicMathFunctions/arm_scale_q31.c **** 		/* Scale the input and then store the result in the destination buffer. */
 191:Source\BasicMathFunctions/arm_scale_q31.c **** 		in = *pSrc++;
  91              		.loc 1 191 0
  92 0060 7B6B     		ldr	r3, [r7, #52]
  93 0062 1A1D     		add	r2, r3, #4
  94 0064 7A63     		str	r2, [r7, #52]
ARM GAS  C:\Users\fneves\AppData\Local\Temp\ccydtiQI.s 			page 6


  95 0066 1B68     		ldr	r3, [r3]
  96 0068 BB63     		str	r3, [r7, #56]
 192:Source\BasicMathFunctions/arm_scale_q31.c **** 		in = ((q63_t) in * scaleFract) >> 32;
  97              		.loc 1 192 0
  98 006a BB6B     		ldr	r3, [r7, #56]
  99 006c 3B62     		str	r3, [r7, #32]
 100 006e DB17     		asr	r3, r3, #31
 101 0070 7B62     		str	r3, [r7, #36]
 102 0072 3B6B     		ldr	r3, [r7, #48]
 103 0074 BB61     		str	r3, [r7, #24]
 104 0076 DB17     		asr	r3, r3, #31
 105 0078 FB61     		str	r3, [r7, #28]
 106 007a 386A     		ldr	r0, [r7, #32]
 107 007c 796A     		ldr	r1, [r7, #36]
 108 007e BA69     		ldr	r2, [r7, #24]
 109 0080 FB69     		ldr	r3, [r7, #28]
 110 0082 FFF7FEFF 		bl	__aeabi_lmul
 111 0086 031C     		mov	r3, r0
 112 0088 0C1C     		mov	r4, r1
 113 008a 2200     		asr	r2, r4, #0
 114 008c 3A61     		str	r2, [r7, #16]
 115 008e E317     		asr	r3, r4, #31
 116 0090 7B61     		str	r3, [r7, #20]
 117 0092 3B69     		ldr	r3, [r7, #16]
 118 0094 BB63     		str	r3, [r7, #56]
 193:Source\BasicMathFunctions/arm_scale_q31.c **** 
 194:Source\BasicMathFunctions/arm_scale_q31.c **** 		out = in << kShift;
 119              		.loc 1 194 0
 120 0096 1723     		mov	r3, #23
 121 0098 2822     		mov	r2, #40
 122 009a 9446     		mov	ip, r2
 123 009c BC44     		add	ip, ip, r7
 124 009e 6344     		add	r3, r3, ip
 125 00a0 1B78     		ldrb	r3, [r3]
 126 00a2 5BB2     		sxtb	r3, r3
 127 00a4 BA6B     		ldr	r2, [r7, #56]
 128 00a6 9A40     		lsl	r2, r2, r3
 129 00a8 131C     		mov	r3, r2
 130 00aa 3B64     		str	r3, [r7, #64]
 195:Source\BasicMathFunctions/arm_scale_q31.c **** 
 196:Source\BasicMathFunctions/arm_scale_q31.c **** 		if (in != (out >> kShift))
 131              		.loc 1 196 0
 132 00ac 1723     		mov	r3, #23
 133 00ae 2822     		mov	r2, #40
 134 00b0 9446     		mov	ip, r2
 135 00b2 BC44     		add	ip, ip, r7
 136 00b4 6344     		add	r3, r3, ip
 137 00b6 1B78     		ldrb	r3, [r3]
 138 00b8 5BB2     		sxtb	r3, r3
 139 00ba 3A6C     		ldr	r2, [r7, #64]
 140 00bc 1A41     		asr	r2, r2, r3
 141 00be BB6B     		ldr	r3, [r7, #56]
 142 00c0 9A42     		cmp	r2, r3
 143 00c2 04D0     		beq	.L4
 197:Source\BasicMathFunctions/arm_scale_q31.c **** 			out = 0x7FFFFFFF ^ (in >> 31);
 144              		.loc 1 197 0
 145 00c4 BB6B     		ldr	r3, [r7, #56]
ARM GAS  C:\Users\fneves\AppData\Local\Temp\ccydtiQI.s 			page 7


 146 00c6 DB17     		asr	r3, r3, #31
 147 00c8 214A     		ldr	r2, .L9
 148 00ca 5340     		eor	r3, r2
 149 00cc 3B64     		str	r3, [r7, #64]
 150              	.L4:
 198:Source\BasicMathFunctions/arm_scale_q31.c **** 
 199:Source\BasicMathFunctions/arm_scale_q31.c **** 		*pDst++ = out;
 151              		.loc 1 199 0
 152 00ce BB6A     		ldr	r3, [r7, #40]
 153 00d0 1A1D     		add	r2, r3, #4
 154 00d2 BA62     		str	r2, [r7, #40]
 155 00d4 3A6C     		ldr	r2, [r7, #64]
 156 00d6 1A60     		str	r2, [r3]
 200:Source\BasicMathFunctions/arm_scale_q31.c **** 
 201:Source\BasicMathFunctions/arm_scale_q31.c **** 		/* Decrement the loop counter */
 202:Source\BasicMathFunctions/arm_scale_q31.c **** 		blkCnt--;
 157              		.loc 1 202 0
 158 00d8 7B6C     		ldr	r3, [r7, #68]
 159 00da 013B     		sub	r3, r3, #1
 160 00dc 7B64     		str	r3, [r7, #68]
 161              	.L3:
 187:Source\BasicMathFunctions/arm_scale_q31.c **** 	  {
 162              		.loc 1 187 0
 163 00de 7B6C     		ldr	r3, [r7, #68]
 164 00e0 002B     		cmp	r3, #0
 165 00e2 BDD1     		bne	.L5
 166 00e4 30E0     		b	.L1
 167              	.L2:
 203:Source\BasicMathFunctions/arm_scale_q31.c **** 	  }
 204:Source\BasicMathFunctions/arm_scale_q31.c ****   }
 205:Source\BasicMathFunctions/arm_scale_q31.c ****   else
 206:Source\BasicMathFunctions/arm_scale_q31.c ****   {
 207:Source\BasicMathFunctions/arm_scale_q31.c **** 	  while (blkCnt > 0u)
 168              		.loc 1 207 0
 169 00e6 2CE0     		b	.L7
 170              	.L8:
 208:Source\BasicMathFunctions/arm_scale_q31.c **** 	  {
 209:Source\BasicMathFunctions/arm_scale_q31.c **** 		/* C = A * scale */
 210:Source\BasicMathFunctions/arm_scale_q31.c **** 		/* Scale the input and then store the result in the destination buffer. */
 211:Source\BasicMathFunctions/arm_scale_q31.c **** 		in = *pSrc++;
 171              		.loc 1 211 0
 172 00e8 7B6B     		ldr	r3, [r7, #52]
 173 00ea 1A1D     		add	r2, r3, #4
 174 00ec 7A63     		str	r2, [r7, #52]
 175 00ee 1B68     		ldr	r3, [r3]
 176 00f0 BB63     		str	r3, [r7, #56]
 212:Source\BasicMathFunctions/arm_scale_q31.c **** 		in = ((q63_t) in * scaleFract) >> 32;
 177              		.loc 1 212 0
 178 00f2 BB6B     		ldr	r3, [r7, #56]
 179 00f4 BB60     		str	r3, [r7, #8]
 180 00f6 DB17     		asr	r3, r3, #31
 181 00f8 FB60     		str	r3, [r7, #12]
 182 00fa 3B6B     		ldr	r3, [r7, #48]
 183 00fc 3B60     		str	r3, [r7]
 184 00fe DB17     		asr	r3, r3, #31
 185 0100 7B60     		str	r3, [r7, #4]
 186 0102 B868     		ldr	r0, [r7, #8]
ARM GAS  C:\Users\fneves\AppData\Local\Temp\ccydtiQI.s 			page 8


 187 0104 F968     		ldr	r1, [r7, #12]
 188 0106 3A68     		ldr	r2, [r7]
 189 0108 7B68     		ldr	r3, [r7, #4]
 190 010a FFF7FEFF 		bl	__aeabi_lmul
 191 010e 031C     		mov	r3, r0
 192 0110 0C1C     		mov	r4, r1
 193 0112 2500     		asr	r5, r4, #0
 194 0114 E617     		asr	r6, r4, #31
 195 0116 2B1C     		mov	r3, r5
 196 0118 BB63     		str	r3, [r7, #56]
 213:Source\BasicMathFunctions/arm_scale_q31.c **** 
 214:Source\BasicMathFunctions/arm_scale_q31.c **** 		out = in >> -kShift;
 197              		.loc 1 214 0
 198 011a 1723     		mov	r3, #23
 199 011c 2822     		mov	r2, #40
 200 011e 9446     		mov	ip, r2
 201 0120 BC44     		add	ip, ip, r7
 202 0122 6344     		add	r3, r3, ip
 203 0124 1B78     		ldrb	r3, [r3]
 204 0126 5BB2     		sxtb	r3, r3
 205 0128 5B42     		neg	r3, r3
 206 012a BA6B     		ldr	r2, [r7, #56]
 207 012c 1A41     		asr	r2, r2, r3
 208 012e 131C     		mov	r3, r2
 209 0130 3B64     		str	r3, [r7, #64]
 215:Source\BasicMathFunctions/arm_scale_q31.c **** 
 216:Source\BasicMathFunctions/arm_scale_q31.c **** 		*pDst++ = out;
 210              		.loc 1 216 0
 211 0132 BB6A     		ldr	r3, [r7, #40]
 212 0134 1A1D     		add	r2, r3, #4
 213 0136 BA62     		str	r2, [r7, #40]
 214 0138 3A6C     		ldr	r2, [r7, #64]
 215 013a 1A60     		str	r2, [r3]
 217:Source\BasicMathFunctions/arm_scale_q31.c **** 
 218:Source\BasicMathFunctions/arm_scale_q31.c **** 		/* Decrement the loop counter */
 219:Source\BasicMathFunctions/arm_scale_q31.c **** 		blkCnt--;
 216              		.loc 1 219 0
 217 013c 7B6C     		ldr	r3, [r7, #68]
 218 013e 013B     		sub	r3, r3, #1
 219 0140 7B64     		str	r3, [r7, #68]
 220              	.L7:
 207:Source\BasicMathFunctions/arm_scale_q31.c **** 	  {
 221              		.loc 1 207 0
 222 0142 7B6C     		ldr	r3, [r7, #68]
 223 0144 002B     		cmp	r3, #0
 224 0146 CFD1     		bne	.L8
 225              	.L1:
 220:Source\BasicMathFunctions/arm_scale_q31.c **** 	  }
 221:Source\BasicMathFunctions/arm_scale_q31.c **** 
 222:Source\BasicMathFunctions/arm_scale_q31.c ****   }
 223:Source\BasicMathFunctions/arm_scale_q31.c **** }
 226              		.loc 1 223 0
 227 0148 BD46     		mov	sp, r7
 228 014a 13B0     		add	sp, sp, #76
 229              		@ sp needed
 230 014c F0BD     		pop	{r4, r5, r6, r7, pc}
 231              	.L10:
ARM GAS  C:\Users\fneves\AppData\Local\Temp\ccydtiQI.s 			page 9


 232 014e C046     		.align	2
 233              	.L9:
 234 0150 FFFFFF7F 		.word	2147483647
 235              		.cfi_endproc
 236              	.LFE82:
 237              		.size	arm_scale_q31, .-arm_scale_q31
 238              		.text
 239              	.Letext0:
 240              		.file 2 "c:\\program files (x86)\\cypress\\psoc creator\\4.0\\psoc creator\\import\\gnu\\arm\\4.9.
 241              		.file 3 "c:\\program files (x86)\\cypress\\psoc creator\\4.0\\psoc creator\\import\\gnu\\arm\\4.9.
 242              		.file 4 ".\\Include/arm_math.h"