ARM GAS  C:\Users\fneves\AppData\Local\Temp\ccV33yhw.s 			page 1


   1              		.cpu cortex-m0plus
   2              		.fpu softvfp
   3              		.eabi_attribute 20, 1
   4              		.eabi_attribute 21, 1
   5              		.eabi_attribute 23, 3
   6              		.eabi_attribute 24, 1
   7              		.eabi_attribute 25, 1
   8              		.eabi_attribute 26, 1
   9              		.eabi_attribute 30, 6
  10              		.eabi_attribute 34, 0
  11              		.eabi_attribute 18, 4
  12              		.code	16
  13              		.file	"arm_mat_scale_f32.c"
  14              		.text
  15              	.Ltext0:
  16              		.cfi_sections	.debug_frame
  17              		.global	__aeabi_fmul
  18              		.section	.text.arm_mat_scale_f32,"ax",%progbits
  19              		.align	2
  20              		.global	arm_mat_scale_f32
  21              		.code	16
  22              		.thumb_func
  23              		.type	arm_mat_scale_f32, %function
  24              	arm_mat_scale_f32:
  25              	.LFB82:
  26              		.file 1 "Source\\MatrixFunctions\\arm_mat_scale_f32.c"
   1:Source\MatrixFunctions/arm_mat_scale_f32.c **** /* ----------------------------------------------------------------------
   2:Source\MatrixFunctions/arm_mat_scale_f32.c ****  * Project:      CMSIS DSP Library
   3:Source\MatrixFunctions/arm_mat_scale_f32.c ****  * Title:        arm_mat_scale_f32.c
   4:Source\MatrixFunctions/arm_mat_scale_f32.c ****  * Description:  Multiplies a floating-point matrix by a scalar
   5:Source\MatrixFunctions/arm_mat_scale_f32.c ****  *
   6:Source\MatrixFunctions/arm_mat_scale_f32.c ****  * $Date:        27. January 2017
   7:Source\MatrixFunctions/arm_mat_scale_f32.c ****  * $Revision:    V.1.5.1
   8:Source\MatrixFunctions/arm_mat_scale_f32.c ****  *
   9:Source\MatrixFunctions/arm_mat_scale_f32.c ****  * Target Processor: Cortex-M cores
  10:Source\MatrixFunctions/arm_mat_scale_f32.c ****  * -------------------------------------------------------------------- */
  11:Source\MatrixFunctions/arm_mat_scale_f32.c **** /*
  12:Source\MatrixFunctions/arm_mat_scale_f32.c ****  * Copyright (C) 2010-2017 ARM Limited or its affiliates. All rights reserved.
  13:Source\MatrixFunctions/arm_mat_scale_f32.c ****  *
  14:Source\MatrixFunctions/arm_mat_scale_f32.c ****  * SPDX-License-Identifier: Apache-2.0
  15:Source\MatrixFunctions/arm_mat_scale_f32.c ****  *
  16:Source\MatrixFunctions/arm_mat_scale_f32.c ****  * Licensed under the Apache License, Version 2.0 (the License); you may
  17:Source\MatrixFunctions/arm_mat_scale_f32.c ****  * not use this file except in compliance with the License.
  18:Source\MatrixFunctions/arm_mat_scale_f32.c ****  * You may obtain a copy of the License at
  19:Source\MatrixFunctions/arm_mat_scale_f32.c ****  *
  20:Source\MatrixFunctions/arm_mat_scale_f32.c ****  * www.apache.org/licenses/LICENSE-2.0
  21:Source\MatrixFunctions/arm_mat_scale_f32.c ****  *
  22:Source\MatrixFunctions/arm_mat_scale_f32.c ****  * Unless required by applicable law or agreed to in writing, software
  23:Source\MatrixFunctions/arm_mat_scale_f32.c ****  * distributed under the License is distributed on an AS IS BASIS, WITHOUT
  24:Source\MatrixFunctions/arm_mat_scale_f32.c ****  * WARRANTIES OR CONDITIONS OF ANY KIND, either express or implied.
  25:Source\MatrixFunctions/arm_mat_scale_f32.c ****  * See the License for the specific language governing permissions and
  26:Source\MatrixFunctions/arm_mat_scale_f32.c ****  * limitations under the License.
  27:Source\MatrixFunctions/arm_mat_scale_f32.c ****  */
  28:Source\MatrixFunctions/arm_mat_scale_f32.c **** 
  29:Source\MatrixFunctions/arm_mat_scale_f32.c **** #include "arm_math.h"
  30:Source\MatrixFunctions/arm_mat_scale_f32.c **** 
  31:Source\MatrixFunctions/arm_mat_scale_f32.c **** /**
ARM GAS  C:\Users\fneves\AppData\Local\Temp\ccV33yhw.s 			page 2


  32:Source\MatrixFunctions/arm_mat_scale_f32.c ****  * @ingroup groupMatrix
  33:Source\MatrixFunctions/arm_mat_scale_f32.c ****  */
  34:Source\MatrixFunctions/arm_mat_scale_f32.c **** 
  35:Source\MatrixFunctions/arm_mat_scale_f32.c **** /**
  36:Source\MatrixFunctions/arm_mat_scale_f32.c ****  * @defgroup MatrixScale Matrix Scale
  37:Source\MatrixFunctions/arm_mat_scale_f32.c ****  *
  38:Source\MatrixFunctions/arm_mat_scale_f32.c ****  * Multiplies a matrix by a scalar.  This is accomplished by multiplying each element in the
  39:Source\MatrixFunctions/arm_mat_scale_f32.c ****  * matrix by the scalar.  For example:
  40:Source\MatrixFunctions/arm_mat_scale_f32.c ****  * \image html MatrixScale.gif "Matrix Scaling of a 3 x 3 matrix"
  41:Source\MatrixFunctions/arm_mat_scale_f32.c ****  *
  42:Source\MatrixFunctions/arm_mat_scale_f32.c ****  * The function checks to make sure that the input and output matrices are of the same size.
  43:Source\MatrixFunctions/arm_mat_scale_f32.c ****  *
  44:Source\MatrixFunctions/arm_mat_scale_f32.c ****  * In the fixed-point Q15 and Q31 functions, <code>scale</code> is represented by
  45:Source\MatrixFunctions/arm_mat_scale_f32.c ****  * a fractional multiplication <code>scaleFract</code> and an arithmetic shift <code>shift</code>.
  46:Source\MatrixFunctions/arm_mat_scale_f32.c ****  * The shift allows the gain of the scaling operation to exceed 1.0.
  47:Source\MatrixFunctions/arm_mat_scale_f32.c ****  * The overall scale factor applied to the fixed-point data is
  48:Source\MatrixFunctions/arm_mat_scale_f32.c ****  * <pre>
  49:Source\MatrixFunctions/arm_mat_scale_f32.c ****  *     scale = scaleFract * 2^shift.
  50:Source\MatrixFunctions/arm_mat_scale_f32.c ****  * </pre>
  51:Source\MatrixFunctions/arm_mat_scale_f32.c ****  */
  52:Source\MatrixFunctions/arm_mat_scale_f32.c **** 
  53:Source\MatrixFunctions/arm_mat_scale_f32.c **** /**
  54:Source\MatrixFunctions/arm_mat_scale_f32.c ****  * @addtogroup MatrixScale
  55:Source\MatrixFunctions/arm_mat_scale_f32.c ****  * @{
  56:Source\MatrixFunctions/arm_mat_scale_f32.c ****  */
  57:Source\MatrixFunctions/arm_mat_scale_f32.c **** 
  58:Source\MatrixFunctions/arm_mat_scale_f32.c **** /**
  59:Source\MatrixFunctions/arm_mat_scale_f32.c ****  * @brief Floating-point matrix scaling.
  60:Source\MatrixFunctions/arm_mat_scale_f32.c ****  * @param[in]       *pSrc points to input matrix structure
  61:Source\MatrixFunctions/arm_mat_scale_f32.c ****  * @param[in]       scale scale factor to be applied
  62:Source\MatrixFunctions/arm_mat_scale_f32.c ****  * @param[out]      *pDst points to output matrix structure
  63:Source\MatrixFunctions/arm_mat_scale_f32.c ****  * @return     		The function returns either <code>ARM_MATH_SIZE_MISMATCH</code>
  64:Source\MatrixFunctions/arm_mat_scale_f32.c ****  * or <code>ARM_MATH_SUCCESS</code> based on the outcome of size checking.
  65:Source\MatrixFunctions/arm_mat_scale_f32.c ****  *
  66:Source\MatrixFunctions/arm_mat_scale_f32.c ****  */
  67:Source\MatrixFunctions/arm_mat_scale_f32.c **** 
  68:Source\MatrixFunctions/arm_mat_scale_f32.c **** arm_status arm_mat_scale_f32(
  69:Source\MatrixFunctions/arm_mat_scale_f32.c ****   const arm_matrix_instance_f32 * pSrc,
  70:Source\MatrixFunctions/arm_mat_scale_f32.c ****   float32_t scale,
  71:Source\MatrixFunctions/arm_mat_scale_f32.c ****   arm_matrix_instance_f32 * pDst)
  72:Source\MatrixFunctions/arm_mat_scale_f32.c **** {
  27              		.loc 1 72 0
  28              		.cfi_startproc
  29 0000 90B5     		push	{r4, r7, lr}
  30              		.cfi_def_cfa_offset 12
  31              		.cfi_offset 4, -12
  32              		.cfi_offset 7, -8
  33              		.cfi_offset 14, -4
  34 0002 8BB0     		sub	sp, sp, #44
  35              		.cfi_def_cfa_offset 56
  36 0004 00AF     		add	r7, sp, #0
  37              		.cfi_def_cfa_register 7
  38 0006 F860     		str	r0, [r7, #12]
  39 0008 B960     		str	r1, [r7, #8]
  40 000a 7A60     		str	r2, [r7, #4]
  73:Source\MatrixFunctions/arm_mat_scale_f32.c ****   float32_t *pIn = pSrc->pData;                  /* input data matrix pointer */
  41              		.loc 1 73 0
ARM GAS  C:\Users\fneves\AppData\Local\Temp\ccV33yhw.s 			page 3


  42 000c FB68     		ldr	r3, [r7, #12]
  43 000e 5B68     		ldr	r3, [r3, #4]
  44 0010 7B62     		str	r3, [r7, #36]
  74:Source\MatrixFunctions/arm_mat_scale_f32.c ****   float32_t *pOut = pDst->pData;                 /* output data matrix pointer */
  45              		.loc 1 74 0
  46 0012 7B68     		ldr	r3, [r7, #4]
  47 0014 5B68     		ldr	r3, [r3, #4]
  48 0016 3B62     		str	r3, [r7, #32]
  75:Source\MatrixFunctions/arm_mat_scale_f32.c ****   uint32_t numSamples;                           /* total number of elements in the matrix */
  76:Source\MatrixFunctions/arm_mat_scale_f32.c ****   uint32_t blkCnt;                               /* loop counters */
  77:Source\MatrixFunctions/arm_mat_scale_f32.c ****   arm_status status;                             /* status of matrix scaling     */
  78:Source\MatrixFunctions/arm_mat_scale_f32.c **** 
  79:Source\MatrixFunctions/arm_mat_scale_f32.c **** #if defined (ARM_MATH_DSP)
  80:Source\MatrixFunctions/arm_mat_scale_f32.c **** 
  81:Source\MatrixFunctions/arm_mat_scale_f32.c ****   float32_t in1, in2, in3, in4;                  /* temporary variables */
  82:Source\MatrixFunctions/arm_mat_scale_f32.c ****   float32_t out1, out2, out3, out4;              /* temporary variables */
  83:Source\MatrixFunctions/arm_mat_scale_f32.c **** 
  84:Source\MatrixFunctions/arm_mat_scale_f32.c **** #endif //      #if defined (ARM_MATH_DSP)
  85:Source\MatrixFunctions/arm_mat_scale_f32.c **** 
  86:Source\MatrixFunctions/arm_mat_scale_f32.c **** #ifdef ARM_MATH_MATRIX_CHECK
  87:Source\MatrixFunctions/arm_mat_scale_f32.c ****   /* Check for matrix mismatch condition */
  88:Source\MatrixFunctions/arm_mat_scale_f32.c ****   if ((pSrc->numRows != pDst->numRows) || (pSrc->numCols != pDst->numCols))
  89:Source\MatrixFunctions/arm_mat_scale_f32.c ****   {
  90:Source\MatrixFunctions/arm_mat_scale_f32.c ****     /* Set status as ARM_MATH_SIZE_MISMATCH */
  91:Source\MatrixFunctions/arm_mat_scale_f32.c ****     status = ARM_MATH_SIZE_MISMATCH;
  92:Source\MatrixFunctions/arm_mat_scale_f32.c ****   }
  93:Source\MatrixFunctions/arm_mat_scale_f32.c ****   else
  94:Source\MatrixFunctions/arm_mat_scale_f32.c **** #endif /*    #ifdef ARM_MATH_MATRIX_CHECK    */
  95:Source\MatrixFunctions/arm_mat_scale_f32.c ****   {
  96:Source\MatrixFunctions/arm_mat_scale_f32.c ****     /* Total number of samples in the input matrix */
  97:Source\MatrixFunctions/arm_mat_scale_f32.c ****     numSamples = (uint32_t) pSrc->numRows * pSrc->numCols;
  49              		.loc 1 97 0
  50 0018 FB68     		ldr	r3, [r7, #12]
  51 001a 1B88     		ldrh	r3, [r3]
  52 001c 1A1C     		mov	r2, r3
  53 001e FB68     		ldr	r3, [r7, #12]
  54 0020 5B88     		ldrh	r3, [r3, #2]
  55 0022 5343     		mul	r3, r2
  56 0024 BB61     		str	r3, [r7, #24]
  98:Source\MatrixFunctions/arm_mat_scale_f32.c **** 
  99:Source\MatrixFunctions/arm_mat_scale_f32.c **** #if defined (ARM_MATH_DSP)
 100:Source\MatrixFunctions/arm_mat_scale_f32.c **** 
 101:Source\MatrixFunctions/arm_mat_scale_f32.c ****     /* Run the below code for Cortex-M4 and Cortex-M3 */
 102:Source\MatrixFunctions/arm_mat_scale_f32.c **** 
 103:Source\MatrixFunctions/arm_mat_scale_f32.c ****     /* Loop Unrolling */
 104:Source\MatrixFunctions/arm_mat_scale_f32.c ****     blkCnt = numSamples >> 2;
 105:Source\MatrixFunctions/arm_mat_scale_f32.c **** 
 106:Source\MatrixFunctions/arm_mat_scale_f32.c ****     /* First part of the processing with loop unrolling.  Compute 4 outputs at a time.
 107:Source\MatrixFunctions/arm_mat_scale_f32.c ****      ** a second loop below computes the remaining 1 to 3 samples. */
 108:Source\MatrixFunctions/arm_mat_scale_f32.c ****     while (blkCnt > 0u)
 109:Source\MatrixFunctions/arm_mat_scale_f32.c ****     {
 110:Source\MatrixFunctions/arm_mat_scale_f32.c ****       /* C(m,n) = A(m,n) * scale */
 111:Source\MatrixFunctions/arm_mat_scale_f32.c ****       /* Scaling and results are stored in the destination buffer. */
 112:Source\MatrixFunctions/arm_mat_scale_f32.c ****       in1 = pIn[0];
 113:Source\MatrixFunctions/arm_mat_scale_f32.c ****       in2 = pIn[1];
 114:Source\MatrixFunctions/arm_mat_scale_f32.c ****       in3 = pIn[2];
 115:Source\MatrixFunctions/arm_mat_scale_f32.c ****       in4 = pIn[3];
ARM GAS  C:\Users\fneves\AppData\Local\Temp\ccV33yhw.s 			page 4


 116:Source\MatrixFunctions/arm_mat_scale_f32.c **** 
 117:Source\MatrixFunctions/arm_mat_scale_f32.c ****       out1 = in1 * scale;
 118:Source\MatrixFunctions/arm_mat_scale_f32.c ****       out2 = in2 * scale;
 119:Source\MatrixFunctions/arm_mat_scale_f32.c ****       out3 = in3 * scale;
 120:Source\MatrixFunctions/arm_mat_scale_f32.c ****       out4 = in4 * scale;
 121:Source\MatrixFunctions/arm_mat_scale_f32.c **** 
 122:Source\MatrixFunctions/arm_mat_scale_f32.c **** 
 123:Source\MatrixFunctions/arm_mat_scale_f32.c ****       pOut[0] = out1;
 124:Source\MatrixFunctions/arm_mat_scale_f32.c ****       pOut[1] = out2;
 125:Source\MatrixFunctions/arm_mat_scale_f32.c ****       pOut[2] = out3;
 126:Source\MatrixFunctions/arm_mat_scale_f32.c ****       pOut[3] = out4;
 127:Source\MatrixFunctions/arm_mat_scale_f32.c **** 
 128:Source\MatrixFunctions/arm_mat_scale_f32.c ****       /* update pointers to process next sampels */
 129:Source\MatrixFunctions/arm_mat_scale_f32.c ****       pIn += 4u;
 130:Source\MatrixFunctions/arm_mat_scale_f32.c ****       pOut += 4u;
 131:Source\MatrixFunctions/arm_mat_scale_f32.c **** 
 132:Source\MatrixFunctions/arm_mat_scale_f32.c ****       /* Decrement the numSamples loop counter */
 133:Source\MatrixFunctions/arm_mat_scale_f32.c ****       blkCnt--;
 134:Source\MatrixFunctions/arm_mat_scale_f32.c ****     }
 135:Source\MatrixFunctions/arm_mat_scale_f32.c **** 
 136:Source\MatrixFunctions/arm_mat_scale_f32.c ****     /* If the numSamples is not a multiple of 4, compute any remaining output samples here.
 137:Source\MatrixFunctions/arm_mat_scale_f32.c ****      ** No loop unrolling is used. */
 138:Source\MatrixFunctions/arm_mat_scale_f32.c ****     blkCnt = numSamples % 0x4u;
 139:Source\MatrixFunctions/arm_mat_scale_f32.c **** 
 140:Source\MatrixFunctions/arm_mat_scale_f32.c **** #else
 141:Source\MatrixFunctions/arm_mat_scale_f32.c **** 
 142:Source\MatrixFunctions/arm_mat_scale_f32.c ****     /* Run the below code for Cortex-M0 */
 143:Source\MatrixFunctions/arm_mat_scale_f32.c **** 
 144:Source\MatrixFunctions/arm_mat_scale_f32.c ****     /* Initialize blkCnt with number of samples */
 145:Source\MatrixFunctions/arm_mat_scale_f32.c ****     blkCnt = numSamples;
  57              		.loc 1 145 0
  58 0026 BB69     		ldr	r3, [r7, #24]
  59 0028 FB61     		str	r3, [r7, #28]
 146:Source\MatrixFunctions/arm_mat_scale_f32.c **** 
 147:Source\MatrixFunctions/arm_mat_scale_f32.c **** #endif /* #if defined (ARM_MATH_DSP) */
 148:Source\MatrixFunctions/arm_mat_scale_f32.c **** 
 149:Source\MatrixFunctions/arm_mat_scale_f32.c ****     while (blkCnt > 0u)
  60              		.loc 1 149 0
  61 002a 0FE0     		b	.L2
  62              	.L3:
 150:Source\MatrixFunctions/arm_mat_scale_f32.c ****     {
 151:Source\MatrixFunctions/arm_mat_scale_f32.c ****       /* C(m,n) = A(m,n) * scale */
 152:Source\MatrixFunctions/arm_mat_scale_f32.c ****       /* The results are stored in the destination buffer. */
 153:Source\MatrixFunctions/arm_mat_scale_f32.c ****       *pOut++ = (*pIn++) * scale;
  63              		.loc 1 153 0
  64 002c 3C6A     		ldr	r4, [r7, #32]
  65 002e 231D     		add	r3, r4, #4
  66 0030 3B62     		str	r3, [r7, #32]
  67 0032 7B6A     		ldr	r3, [r7, #36]
  68 0034 1A1D     		add	r2, r3, #4
  69 0036 7A62     		str	r2, [r7, #36]
  70 0038 1B68     		ldr	r3, [r3]
  71 003a 181C     		add	r0, r3, #0
  72 003c B968     		ldr	r1, [r7, #8]
  73 003e FFF7FEFF 		bl	__aeabi_fmul
  74 0042 031C     		add	r3, r0, #0
  75 0044 2360     		str	r3, [r4]
ARM GAS  C:\Users\fneves\AppData\Local\Temp\ccV33yhw.s 			page 5


 154:Source\MatrixFunctions/arm_mat_scale_f32.c **** 
 155:Source\MatrixFunctions/arm_mat_scale_f32.c ****       /* Decrement the loop counter */
 156:Source\MatrixFunctions/arm_mat_scale_f32.c ****       blkCnt--;
  76              		.loc 1 156 0
  77 0046 FB69     		ldr	r3, [r7, #28]
  78 0048 013B     		sub	r3, r3, #1
  79 004a FB61     		str	r3, [r7, #28]
  80              	.L2:
 149:Source\MatrixFunctions/arm_mat_scale_f32.c ****     {
  81              		.loc 1 149 0
  82 004c FB69     		ldr	r3, [r7, #28]
  83 004e 002B     		cmp	r3, #0
  84 0050 ECD1     		bne	.L3
 157:Source\MatrixFunctions/arm_mat_scale_f32.c ****     }
 158:Source\MatrixFunctions/arm_mat_scale_f32.c **** 
 159:Source\MatrixFunctions/arm_mat_scale_f32.c ****     /* Set status as ARM_MATH_SUCCESS */
 160:Source\MatrixFunctions/arm_mat_scale_f32.c ****     status = ARM_MATH_SUCCESS;
  85              		.loc 1 160 0
  86 0052 1723     		mov	r3, #23
  87 0054 FB18     		add	r3, r7, r3
  88 0056 0022     		mov	r2, #0
  89 0058 1A70     		strb	r2, [r3]
 161:Source\MatrixFunctions/arm_mat_scale_f32.c ****   }
 162:Source\MatrixFunctions/arm_mat_scale_f32.c **** 
 163:Source\MatrixFunctions/arm_mat_scale_f32.c ****   /* Return to application */
 164:Source\MatrixFunctions/arm_mat_scale_f32.c ****   return (status);
  90              		.loc 1 164 0
  91 005a 1723     		mov	r3, #23
  92 005c FB18     		add	r3, r7, r3
  93 005e 1B78     		ldrb	r3, [r3]
  94 0060 5BB2     		sxtb	r3, r3
 165:Source\MatrixFunctions/arm_mat_scale_f32.c **** }
  95              		.loc 1 165 0
  96 0062 181C     		mov	r0, r3
  97 0064 BD46     		mov	sp, r7
  98 0066 0BB0     		add	sp, sp, #44
  99              		@ sp needed
 100 0068 90BD     		pop	{r4, r7, pc}
 101              		.cfi_endproc
 102              	.LFE82:
 103              		.size	arm_mat_scale_f32, .-arm_mat_scale_f32
 104 006a C046     		.text
 105              	.Letext0:
 106              		.file 2 "c:\\program files (x86)\\cypress\\psoc creator\\4.0\\psoc creator\\import\\gnu\\arm\\4.9.
 107              		.file 3 "c:\\program files (x86)\\cypress\\psoc creator\\4.0\\psoc creator\\import\\gnu\\arm\\4.9.
 108              		.file 4 ".\\Include/arm_math.h"