ARM GAS  C:\Users\fneves\AppData\Local\Temp\ccLLH3iY.s 			page 1


   1              		.cpu cortex-m0plus
   2              		.fpu softvfp
   3              		.eabi_attribute 20, 1
   4              		.eabi_attribute 21, 1
   5              		.eabi_attribute 23, 3
   6              		.eabi_attribute 24, 1
   7              		.eabi_attribute 25, 1
   8              		.eabi_attribute 26, 1
   9              		.eabi_attribute 30, 6
  10              		.eabi_attribute 34, 0
  11              		.eabi_attribute 18, 4
  12              		.code	16
  13              		.file	"arm_lms_f32.c"
  14              		.text
  15              	.Ltext0:
  16              		.cfi_sections	.debug_frame
  17              		.global	__aeabi_fmul
  18              		.global	__aeabi_fadd
  19              		.global	__aeabi_fsub
  20              		.section	.text.arm_lms_f32,"ax",%progbits
  21              		.align	2
  22              		.global	arm_lms_f32
  23              		.code	16
  24              		.thumb_func
  25              		.type	arm_lms_f32, %function
  26              	arm_lms_f32:
  27              	.LFB82:
  28              		.file 1 "Source\\FilteringFunctions\\arm_lms_f32.c"
   1:Source\FilteringFunctions/arm_lms_f32.c **** /* ----------------------------------------------------------------------
   2:Source\FilteringFunctions/arm_lms_f32.c ****  * Project:      CMSIS DSP Library
   3:Source\FilteringFunctions/arm_lms_f32.c ****  * Title:        arm_lms_f32.c
   4:Source\FilteringFunctions/arm_lms_f32.c ****  * Description:  Processing function for the floating-point LMS filter
   5:Source\FilteringFunctions/arm_lms_f32.c ****  *
   6:Source\FilteringFunctions/arm_lms_f32.c ****  * $Date:        27. January 2017
   7:Source\FilteringFunctions/arm_lms_f32.c ****  * $Revision:    V.1.5.1
   8:Source\FilteringFunctions/arm_lms_f32.c ****  *
   9:Source\FilteringFunctions/arm_lms_f32.c ****  * Target Processor: Cortex-M cores
  10:Source\FilteringFunctions/arm_lms_f32.c ****  * -------------------------------------------------------------------- */
  11:Source\FilteringFunctions/arm_lms_f32.c **** /*
  12:Source\FilteringFunctions/arm_lms_f32.c ****  * Copyright (C) 2010-2017 ARM Limited or its affiliates. All rights reserved.
  13:Source\FilteringFunctions/arm_lms_f32.c ****  *
  14:Source\FilteringFunctions/arm_lms_f32.c ****  * SPDX-License-Identifier: Apache-2.0
  15:Source\FilteringFunctions/arm_lms_f32.c ****  *
  16:Source\FilteringFunctions/arm_lms_f32.c ****  * Licensed under the Apache License, Version 2.0 (the License); you may
  17:Source\FilteringFunctions/arm_lms_f32.c ****  * not use this file except in compliance with the License.
  18:Source\FilteringFunctions/arm_lms_f32.c ****  * You may obtain a copy of the License at
  19:Source\FilteringFunctions/arm_lms_f32.c ****  *
  20:Source\FilteringFunctions/arm_lms_f32.c ****  * www.apache.org/licenses/LICENSE-2.0
  21:Source\FilteringFunctions/arm_lms_f32.c ****  *
  22:Source\FilteringFunctions/arm_lms_f32.c ****  * Unless required by applicable law or agreed to in writing, software
  23:Source\FilteringFunctions/arm_lms_f32.c ****  * distributed under the License is distributed on an AS IS BASIS, WITHOUT
  24:Source\FilteringFunctions/arm_lms_f32.c ****  * WARRANTIES OR CONDITIONS OF ANY KIND, either express or implied.
  25:Source\FilteringFunctions/arm_lms_f32.c ****  * See the License for the specific language governing permissions and
  26:Source\FilteringFunctions/arm_lms_f32.c ****  * limitations under the License.
  27:Source\FilteringFunctions/arm_lms_f32.c ****  */
  28:Source\FilteringFunctions/arm_lms_f32.c **** 
  29:Source\FilteringFunctions/arm_lms_f32.c **** #include "arm_math.h"
ARM GAS  C:\Users\fneves\AppData\Local\Temp\ccLLH3iY.s 			page 2


  30:Source\FilteringFunctions/arm_lms_f32.c **** 
  31:Source\FilteringFunctions/arm_lms_f32.c **** /**
  32:Source\FilteringFunctions/arm_lms_f32.c ****  * @ingroup groupFilters
  33:Source\FilteringFunctions/arm_lms_f32.c ****  */
  34:Source\FilteringFunctions/arm_lms_f32.c **** 
  35:Source\FilteringFunctions/arm_lms_f32.c **** /**
  36:Source\FilteringFunctions/arm_lms_f32.c ****  * @defgroup LMS Least Mean Square (LMS) Filters
  37:Source\FilteringFunctions/arm_lms_f32.c ****  *
  38:Source\FilteringFunctions/arm_lms_f32.c ****  * LMS filters are a class of adaptive filters that are able to "learn" an unknown transfer functio
  39:Source\FilteringFunctions/arm_lms_f32.c ****  * LMS filters use a gradient descent method in which the filter coefficients are updated based on 
  40:Source\FilteringFunctions/arm_lms_f32.c ****  * Adaptive filters are often used in communication systems, equalizers, and noise removal.
  41:Source\FilteringFunctions/arm_lms_f32.c ****  * The CMSIS DSP Library contains LMS filter functions that operate on Q15, Q31, and floating-point
  42:Source\FilteringFunctions/arm_lms_f32.c ****  * The library also contains normalized LMS filters in which the filter coefficient adaptation is i
  43:Source\FilteringFunctions/arm_lms_f32.c ****  *
  44:Source\FilteringFunctions/arm_lms_f32.c ****  * An LMS filter consists of two components as shown below.
  45:Source\FilteringFunctions/arm_lms_f32.c ****  * The first component is a standard transversal or FIR filter.
  46:Source\FilteringFunctions/arm_lms_f32.c ****  * The second component is a coefficient update mechanism.
  47:Source\FilteringFunctions/arm_lms_f32.c ****  * The LMS filter has two input signals.
  48:Source\FilteringFunctions/arm_lms_f32.c ****  * The "input" feeds the FIR filter while the "reference input" corresponds to the desired output o
  49:Source\FilteringFunctions/arm_lms_f32.c ****  * That is, the FIR filter coefficients are updated so that the output of the FIR filter matches th
  50:Source\FilteringFunctions/arm_lms_f32.c ****  * The filter coefficient update mechanism is based on the difference between the FIR filter output
  51:Source\FilteringFunctions/arm_lms_f32.c ****  * This "error signal" tends towards zero as the filter adapts.
  52:Source\FilteringFunctions/arm_lms_f32.c ****  * The LMS processing functions accept the input and reference input signals and generate the filte
  53:Source\FilteringFunctions/arm_lms_f32.c ****  * \image html LMS.gif "Internal structure of the Least Mean Square filter"
  54:Source\FilteringFunctions/arm_lms_f32.c ****  *
  55:Source\FilteringFunctions/arm_lms_f32.c ****  * The functions operate on blocks of data and each call to the function processes
  56:Source\FilteringFunctions/arm_lms_f32.c ****  * <code>blockSize</code> samples through the filter.
  57:Source\FilteringFunctions/arm_lms_f32.c ****  * <code>pSrc</code> points to input signal, <code>pRef</code> points to reference signal,
  58:Source\FilteringFunctions/arm_lms_f32.c ****  * <code>pOut</code> points to output signal and <code>pErr</code> points to error signal.
  59:Source\FilteringFunctions/arm_lms_f32.c ****  * All arrays contain <code>blockSize</code> values.
  60:Source\FilteringFunctions/arm_lms_f32.c ****  *
  61:Source\FilteringFunctions/arm_lms_f32.c ****  * The functions operate on a block-by-block basis.
  62:Source\FilteringFunctions/arm_lms_f32.c ****  * Internally, the filter coefficients <code>b[n]</code> are updated on a sample-by-sample basis.
  63:Source\FilteringFunctions/arm_lms_f32.c ****  * The convergence of the LMS filter is slower compared to the normalized LMS algorithm.
  64:Source\FilteringFunctions/arm_lms_f32.c ****  *
  65:Source\FilteringFunctions/arm_lms_f32.c ****  * \par Algorithm:
  66:Source\FilteringFunctions/arm_lms_f32.c ****  * The output signal <code>y[n]</code> is computed by a standard FIR filter:
  67:Source\FilteringFunctions/arm_lms_f32.c ****  * <pre>
  68:Source\FilteringFunctions/arm_lms_f32.c ****  *     y[n] = b[0] * x[n] + b[1] * x[n-1] + b[2] * x[n-2] + ...+ b[numTaps-1] * x[n-numTaps+1]
  69:Source\FilteringFunctions/arm_lms_f32.c ****  * </pre>
  70:Source\FilteringFunctions/arm_lms_f32.c ****  *
  71:Source\FilteringFunctions/arm_lms_f32.c ****  * \par
  72:Source\FilteringFunctions/arm_lms_f32.c ****  * The error signal equals the difference between the reference signal <code>d[n]</code> and the fi
  73:Source\FilteringFunctions/arm_lms_f32.c ****  * <pre>
  74:Source\FilteringFunctions/arm_lms_f32.c ****  *     e[n] = d[n] - y[n].
  75:Source\FilteringFunctions/arm_lms_f32.c ****  * </pre>
  76:Source\FilteringFunctions/arm_lms_f32.c ****  *
  77:Source\FilteringFunctions/arm_lms_f32.c ****  * \par
  78:Source\FilteringFunctions/arm_lms_f32.c ****  * After each sample of the error signal is computed, the filter coefficients <code>b[k]</code> are
  79:Source\FilteringFunctions/arm_lms_f32.c ****  * <pre>
  80:Source\FilteringFunctions/arm_lms_f32.c ****  *     b[k] = b[k] + e[n] * mu * x[n-k],  for k=0, 1, ..., numTaps-1
  81:Source\FilteringFunctions/arm_lms_f32.c ****  * </pre>
  82:Source\FilteringFunctions/arm_lms_f32.c ****  * where <code>mu</code> is the step size and controls the rate of coefficient convergence.
  83:Source\FilteringFunctions/arm_lms_f32.c ****  *\par
  84:Source\FilteringFunctions/arm_lms_f32.c ****  * In the APIs, <code>pCoeffs</code> points to a coefficient array of size <code>numTaps</code>.
  85:Source\FilteringFunctions/arm_lms_f32.c ****  * Coefficients are stored in time reversed order.
  86:Source\FilteringFunctions/arm_lms_f32.c ****  * \par
ARM GAS  C:\Users\fneves\AppData\Local\Temp\ccLLH3iY.s 			page 3


  87:Source\FilteringFunctions/arm_lms_f32.c ****  * <pre>
  88:Source\FilteringFunctions/arm_lms_f32.c ****  *    {b[numTaps-1], b[numTaps-2], b[N-2], ..., b[1], b[0]}
  89:Source\FilteringFunctions/arm_lms_f32.c ****  * </pre>
  90:Source\FilteringFunctions/arm_lms_f32.c ****  * \par
  91:Source\FilteringFunctions/arm_lms_f32.c ****  * <code>pState</code> points to a state array of size <code>numTaps + blockSize - 1</code>.
  92:Source\FilteringFunctions/arm_lms_f32.c ****  * Samples in the state buffer are stored in the order:
  93:Source\FilteringFunctions/arm_lms_f32.c ****  * \par
  94:Source\FilteringFunctions/arm_lms_f32.c ****  * <pre>
  95:Source\FilteringFunctions/arm_lms_f32.c ****  *    {x[n-numTaps+1], x[n-numTaps], x[n-numTaps-1], x[n-numTaps-2]....x[0], x[1], ..., x[blockSize
  96:Source\FilteringFunctions/arm_lms_f32.c ****  * </pre>
  97:Source\FilteringFunctions/arm_lms_f32.c ****  * \par
  98:Source\FilteringFunctions/arm_lms_f32.c ****  * Note that the length of the state buffer exceeds the length of the coefficient array by <code>bl
  99:Source\FilteringFunctions/arm_lms_f32.c ****  * The increased state buffer length allows circular addressing, which is traditionally used in FIR
 100:Source\FilteringFunctions/arm_lms_f32.c ****  * to be avoided and yields a significant speed improvement.
 101:Source\FilteringFunctions/arm_lms_f32.c ****  * The state variables are updated after each block of data is processed.
 102:Source\FilteringFunctions/arm_lms_f32.c ****  * \par Instance Structure
 103:Source\FilteringFunctions/arm_lms_f32.c ****  * The coefficients and state variables for a filter are stored together in an instance data struct
 104:Source\FilteringFunctions/arm_lms_f32.c ****  * A separate instance structure must be defined for each filter and
 105:Source\FilteringFunctions/arm_lms_f32.c ****  * coefficient and state arrays cannot be shared among instances.
 106:Source\FilteringFunctions/arm_lms_f32.c ****  * There are separate instance structure declarations for each of the 3 supported data types.
 107:Source\FilteringFunctions/arm_lms_f32.c ****  *
 108:Source\FilteringFunctions/arm_lms_f32.c ****  * \par Initialization Functions
 109:Source\FilteringFunctions/arm_lms_f32.c ****  * There is also an associated initialization function for each data type.
 110:Source\FilteringFunctions/arm_lms_f32.c ****  * The initialization function performs the following operations:
 111:Source\FilteringFunctions/arm_lms_f32.c ****  * - Sets the values of the internal structure fields.
 112:Source\FilteringFunctions/arm_lms_f32.c ****  * - Zeros out the values in the state buffer.
 113:Source\FilteringFunctions/arm_lms_f32.c ****  * To do this manually without calling the init function, assign the follow subfields of the instan
 114:Source\FilteringFunctions/arm_lms_f32.c ****  * numTaps, pCoeffs, mu, postShift (not for f32), pState. Also set all of the values in pState to z
 115:Source\FilteringFunctions/arm_lms_f32.c ****  *
 116:Source\FilteringFunctions/arm_lms_f32.c ****  * \par
 117:Source\FilteringFunctions/arm_lms_f32.c ****  * Use of the initialization function is optional.
 118:Source\FilteringFunctions/arm_lms_f32.c ****  * However, if the initialization function is used, then the instance structure cannot be placed in
 119:Source\FilteringFunctions/arm_lms_f32.c ****  * To place an instance structure into a const data section, the instance structure must be manuall
 120:Source\FilteringFunctions/arm_lms_f32.c ****  * Set the values in the state buffer to zeros before static initialization.
 121:Source\FilteringFunctions/arm_lms_f32.c ****  * The code below statically initializes each of the 3 different data type filter instance structur
 122:Source\FilteringFunctions/arm_lms_f32.c ****  * <pre>
 123:Source\FilteringFunctions/arm_lms_f32.c ****  *    arm_lms_instance_f32 S = {numTaps, pState, pCoeffs, mu};
 124:Source\FilteringFunctions/arm_lms_f32.c ****  *    arm_lms_instance_q31 S = {numTaps, pState, pCoeffs, mu, postShift};
 125:Source\FilteringFunctions/arm_lms_f32.c ****  *    arm_lms_instance_q15 S = {numTaps, pState, pCoeffs, mu, postShift};
 126:Source\FilteringFunctions/arm_lms_f32.c ****  * </pre>
 127:Source\FilteringFunctions/arm_lms_f32.c ****  * where <code>numTaps</code> is the number of filter coefficients in the filter; <code>pState</cod
 128:Source\FilteringFunctions/arm_lms_f32.c ****  * <code>pCoeffs</code> is the address of the coefficient buffer; <code>mu</code> is the step size 
 129:Source\FilteringFunctions/arm_lms_f32.c ****  *
 130:Source\FilteringFunctions/arm_lms_f32.c ****  * \par Fixed-Point Behavior:
 131:Source\FilteringFunctions/arm_lms_f32.c ****  * Care must be taken when using the Q15 and Q31 versions of the LMS filter.
 132:Source\FilteringFunctions/arm_lms_f32.c ****  * The following issues must be considered:
 133:Source\FilteringFunctions/arm_lms_f32.c ****  * - Scaling of coefficients
 134:Source\FilteringFunctions/arm_lms_f32.c ****  * - Overflow and saturation
 135:Source\FilteringFunctions/arm_lms_f32.c ****  *
 136:Source\FilteringFunctions/arm_lms_f32.c ****  * \par Scaling of Coefficients:
 137:Source\FilteringFunctions/arm_lms_f32.c ****  * Filter coefficients are represented as fractional values and
 138:Source\FilteringFunctions/arm_lms_f32.c ****  * coefficients are restricted to lie in the range <code>[-1 +1)</code>.
 139:Source\FilteringFunctions/arm_lms_f32.c ****  * The fixed-point functions have an additional scaling parameter <code>postShift</code>.
 140:Source\FilteringFunctions/arm_lms_f32.c ****  * At the output of the filter's accumulator is a shift register which shifts the result by <code>p
 141:Source\FilteringFunctions/arm_lms_f32.c ****  * This essentially scales the filter coefficients by <code>2^postShift</code> and
 142:Source\FilteringFunctions/arm_lms_f32.c ****  * allows the filter coefficients to exceed the range <code>[+1 -1)</code>.
 143:Source\FilteringFunctions/arm_lms_f32.c ****  * The value of <code>postShift</code> is set by the user based on the expected gain through the sy
ARM GAS  C:\Users\fneves\AppData\Local\Temp\ccLLH3iY.s 			page 4


 144:Source\FilteringFunctions/arm_lms_f32.c ****  *
 145:Source\FilteringFunctions/arm_lms_f32.c ****  * \par Overflow and Saturation:
 146:Source\FilteringFunctions/arm_lms_f32.c ****  * Overflow and saturation behavior of the fixed-point Q15 and Q31 versions are
 147:Source\FilteringFunctions/arm_lms_f32.c ****  * described separately as part of the function specific documentation below.
 148:Source\FilteringFunctions/arm_lms_f32.c ****  */
 149:Source\FilteringFunctions/arm_lms_f32.c **** 
 150:Source\FilteringFunctions/arm_lms_f32.c **** /**
 151:Source\FilteringFunctions/arm_lms_f32.c ****  * @addtogroup LMS
 152:Source\FilteringFunctions/arm_lms_f32.c ****  * @{
 153:Source\FilteringFunctions/arm_lms_f32.c ****  */
 154:Source\FilteringFunctions/arm_lms_f32.c **** 
 155:Source\FilteringFunctions/arm_lms_f32.c **** /**
 156:Source\FilteringFunctions/arm_lms_f32.c ****  * @details
 157:Source\FilteringFunctions/arm_lms_f32.c ****  * This function operates on floating-point data types.
 158:Source\FilteringFunctions/arm_lms_f32.c ****  *
 159:Source\FilteringFunctions/arm_lms_f32.c ****  * @brief Processing function for floating-point LMS filter.
 160:Source\FilteringFunctions/arm_lms_f32.c ****  * @param[in]  *S points to an instance of the floating-point LMS filter structure.
 161:Source\FilteringFunctions/arm_lms_f32.c ****  * @param[in]  *pSrc points to the block of input data.
 162:Source\FilteringFunctions/arm_lms_f32.c ****  * @param[in]  *pRef points to the block of reference data.
 163:Source\FilteringFunctions/arm_lms_f32.c ****  * @param[out] *pOut points to the block of output data.
 164:Source\FilteringFunctions/arm_lms_f32.c ****  * @param[out] *pErr points to the block of error data.
 165:Source\FilteringFunctions/arm_lms_f32.c ****  * @param[in]  blockSize number of samples to process.
 166:Source\FilteringFunctions/arm_lms_f32.c ****  * @return     none.
 167:Source\FilteringFunctions/arm_lms_f32.c ****  */
 168:Source\FilteringFunctions/arm_lms_f32.c **** 
 169:Source\FilteringFunctions/arm_lms_f32.c **** void arm_lms_f32(
 170:Source\FilteringFunctions/arm_lms_f32.c ****   const arm_lms_instance_f32 * S,
 171:Source\FilteringFunctions/arm_lms_f32.c ****   float32_t * pSrc,
 172:Source\FilteringFunctions/arm_lms_f32.c ****   float32_t * pRef,
 173:Source\FilteringFunctions/arm_lms_f32.c ****   float32_t * pOut,
 174:Source\FilteringFunctions/arm_lms_f32.c ****   float32_t * pErr,
 175:Source\FilteringFunctions/arm_lms_f32.c ****   uint32_t blockSize)
 176:Source\FilteringFunctions/arm_lms_f32.c **** {
  29              		.loc 1 176 0
  30              		.cfi_startproc
  31 0000 90B5     		push	{r4, r7, lr}
  32              		.cfi_def_cfa_offset 12
  33              		.cfi_offset 4, -12
  34              		.cfi_offset 7, -8
  35              		.cfi_offset 14, -4
  36 0002 93B0     		sub	sp, sp, #76
  37              		.cfi_def_cfa_offset 88
  38 0004 00AF     		add	r7, sp, #0
  39              		.cfi_def_cfa_register 7
  40 0006 F860     		str	r0, [r7, #12]
  41 0008 B960     		str	r1, [r7, #8]
  42 000a 7A60     		str	r2, [r7, #4]
  43 000c 3B60     		str	r3, [r7]
 177:Source\FilteringFunctions/arm_lms_f32.c ****   float32_t *pState = S->pState;                 /* State pointer */
  44              		.loc 1 177 0
  45 000e FB68     		ldr	r3, [r7, #12]
  46 0010 5B68     		ldr	r3, [r3, #4]
  47 0012 7B64     		str	r3, [r7, #68]
 178:Source\FilteringFunctions/arm_lms_f32.c ****   float32_t *pCoeffs = S->pCoeffs;               /* Coefficient pointer */
  48              		.loc 1 178 0
  49 0014 FB68     		ldr	r3, [r7, #12]
  50 0016 9B68     		ldr	r3, [r3, #8]
ARM GAS  C:\Users\fneves\AppData\Local\Temp\ccLLH3iY.s 			page 5


  51 0018 BB62     		str	r3, [r7, #40]
 179:Source\FilteringFunctions/arm_lms_f32.c ****   float32_t *pStateCurnt;                        /* Points to the current sample of the state */
 180:Source\FilteringFunctions/arm_lms_f32.c ****   float32_t *px, *pb;                            /* Temporary pointers for state and coefficient bu
 181:Source\FilteringFunctions/arm_lms_f32.c ****   float32_t mu = S->mu;                          /* Adaptive factor */
  52              		.loc 1 181 0
  53 001a FB68     		ldr	r3, [r7, #12]
  54 001c DB68     		ldr	r3, [r3, #12]
  55 001e 7B62     		str	r3, [r7, #36]
 182:Source\FilteringFunctions/arm_lms_f32.c ****   uint32_t numTaps = S->numTaps;                 /* Number of filter coefficients in the filter */
  56              		.loc 1 182 0
  57 0020 FB68     		ldr	r3, [r7, #12]
  58 0022 1B88     		ldrh	r3, [r3]
  59 0024 3B62     		str	r3, [r7, #32]
 183:Source\FilteringFunctions/arm_lms_f32.c ****   uint32_t tapCnt, blkCnt;                       /* Loop counters */
 184:Source\FilteringFunctions/arm_lms_f32.c ****   float32_t sum, e, d;                           /* accumulator, error, reference data sample */
 185:Source\FilteringFunctions/arm_lms_f32.c ****   float32_t w = 0.0f;                            /* weight factor */
  60              		.loc 1 185 0
  61 0026 0023     		mov	r3, #0
  62 0028 FB61     		str	r3, [r7, #28]
 186:Source\FilteringFunctions/arm_lms_f32.c **** 
 187:Source\FilteringFunctions/arm_lms_f32.c ****   e = 0.0f;
  63              		.loc 1 187 0
  64 002a 0023     		mov	r3, #0
  65 002c BB61     		str	r3, [r7, #24]
 188:Source\FilteringFunctions/arm_lms_f32.c ****   d = 0.0f;
  66              		.loc 1 188 0
  67 002e 0023     		mov	r3, #0
  68 0030 7B61     		str	r3, [r7, #20]
 189:Source\FilteringFunctions/arm_lms_f32.c **** 
 190:Source\FilteringFunctions/arm_lms_f32.c ****   /* S->pState points to state array which contains previous frame (numTaps - 1) samples */
 191:Source\FilteringFunctions/arm_lms_f32.c ****   /* pStateCurnt points to the location where the new input data should be written */
 192:Source\FilteringFunctions/arm_lms_f32.c ****   pStateCurnt = &(S->pState[(numTaps - 1u)]);
  69              		.loc 1 192 0
  70 0032 FB68     		ldr	r3, [r7, #12]
  71 0034 5A68     		ldr	r2, [r3, #4]
  72 0036 3B6A     		ldr	r3, [r7, #32]
  73 0038 4849     		ldr	r1, .L10
  74 003a 8C46     		mov	ip, r1
  75 003c 6344     		add	r3, r3, ip
  76 003e 9B00     		lsl	r3, r3, #2
  77 0040 D318     		add	r3, r2, r3
  78 0042 3B64     		str	r3, [r7, #64]
 193:Source\FilteringFunctions/arm_lms_f32.c **** 
 194:Source\FilteringFunctions/arm_lms_f32.c ****   blkCnt = blockSize;
  79              		.loc 1 194 0
  80 0044 FB6D     		ldr	r3, [r7, #92]
  81 0046 3B63     		str	r3, [r7, #48]
 195:Source\FilteringFunctions/arm_lms_f32.c **** 
 196:Source\FilteringFunctions/arm_lms_f32.c **** 
 197:Source\FilteringFunctions/arm_lms_f32.c **** #if defined (ARM_MATH_DSP)
 198:Source\FilteringFunctions/arm_lms_f32.c **** 
 199:Source\FilteringFunctions/arm_lms_f32.c ****   /* Run the below code for Cortex-M4 and Cortex-M3 */
 200:Source\FilteringFunctions/arm_lms_f32.c **** 
 201:Source\FilteringFunctions/arm_lms_f32.c ****   while (blkCnt > 0u)
 202:Source\FilteringFunctions/arm_lms_f32.c ****   {
 203:Source\FilteringFunctions/arm_lms_f32.c ****     /* Copy the new input sample into the state buffer */
 204:Source\FilteringFunctions/arm_lms_f32.c ****     *pStateCurnt++ = *pSrc++;
ARM GAS  C:\Users\fneves\AppData\Local\Temp\ccLLH3iY.s 			page 6


 205:Source\FilteringFunctions/arm_lms_f32.c **** 
 206:Source\FilteringFunctions/arm_lms_f32.c ****     /* Initialize pState pointer */
 207:Source\FilteringFunctions/arm_lms_f32.c ****     px = pState;
 208:Source\FilteringFunctions/arm_lms_f32.c **** 
 209:Source\FilteringFunctions/arm_lms_f32.c ****     /* Initialize coeff pointer */
 210:Source\FilteringFunctions/arm_lms_f32.c ****     pb = (pCoeffs);
 211:Source\FilteringFunctions/arm_lms_f32.c **** 
 212:Source\FilteringFunctions/arm_lms_f32.c ****     /* Set the accumulator to zero */
 213:Source\FilteringFunctions/arm_lms_f32.c ****     sum = 0.0f;
 214:Source\FilteringFunctions/arm_lms_f32.c **** 
 215:Source\FilteringFunctions/arm_lms_f32.c ****     /* Loop unrolling.  Process 4 taps at a time. */
 216:Source\FilteringFunctions/arm_lms_f32.c ****     tapCnt = numTaps >> 2;
 217:Source\FilteringFunctions/arm_lms_f32.c **** 
 218:Source\FilteringFunctions/arm_lms_f32.c ****     while (tapCnt > 0u)
 219:Source\FilteringFunctions/arm_lms_f32.c ****     {
 220:Source\FilteringFunctions/arm_lms_f32.c ****       /* Perform the multiply-accumulate */
 221:Source\FilteringFunctions/arm_lms_f32.c ****       sum += (*px++) * (*pb++);
 222:Source\FilteringFunctions/arm_lms_f32.c ****       sum += (*px++) * (*pb++);
 223:Source\FilteringFunctions/arm_lms_f32.c ****       sum += (*px++) * (*pb++);
 224:Source\FilteringFunctions/arm_lms_f32.c ****       sum += (*px++) * (*pb++);
 225:Source\FilteringFunctions/arm_lms_f32.c **** 
 226:Source\FilteringFunctions/arm_lms_f32.c ****       /* Decrement the loop counter */
 227:Source\FilteringFunctions/arm_lms_f32.c ****       tapCnt--;
 228:Source\FilteringFunctions/arm_lms_f32.c ****     }
 229:Source\FilteringFunctions/arm_lms_f32.c **** 
 230:Source\FilteringFunctions/arm_lms_f32.c ****     /* If the filter length is not a multiple of 4, compute the remaining filter taps */
 231:Source\FilteringFunctions/arm_lms_f32.c ****     tapCnt = numTaps % 0x4u;
 232:Source\FilteringFunctions/arm_lms_f32.c **** 
 233:Source\FilteringFunctions/arm_lms_f32.c ****     while (tapCnt > 0u)
 234:Source\FilteringFunctions/arm_lms_f32.c ****     {
 235:Source\FilteringFunctions/arm_lms_f32.c ****       /* Perform the multiply-accumulate */
 236:Source\FilteringFunctions/arm_lms_f32.c ****       sum += (*px++) * (*pb++);
 237:Source\FilteringFunctions/arm_lms_f32.c **** 
 238:Source\FilteringFunctions/arm_lms_f32.c ****       /* Decrement the loop counter */
 239:Source\FilteringFunctions/arm_lms_f32.c ****       tapCnt--;
 240:Source\FilteringFunctions/arm_lms_f32.c ****     }
 241:Source\FilteringFunctions/arm_lms_f32.c **** 
 242:Source\FilteringFunctions/arm_lms_f32.c ****     /* The result in the accumulator, store in the destination buffer. */
 243:Source\FilteringFunctions/arm_lms_f32.c ****     *pOut++ = sum;
 244:Source\FilteringFunctions/arm_lms_f32.c **** 
 245:Source\FilteringFunctions/arm_lms_f32.c ****     /* Compute and store error */
 246:Source\FilteringFunctions/arm_lms_f32.c ****     d = (float32_t) (*pRef++);
 247:Source\FilteringFunctions/arm_lms_f32.c ****     e = d - sum;
 248:Source\FilteringFunctions/arm_lms_f32.c ****     *pErr++ = e;
 249:Source\FilteringFunctions/arm_lms_f32.c **** 
 250:Source\FilteringFunctions/arm_lms_f32.c ****     /* Calculation of Weighting factor for the updating filter coefficients */
 251:Source\FilteringFunctions/arm_lms_f32.c ****     w = e * mu;
 252:Source\FilteringFunctions/arm_lms_f32.c **** 
 253:Source\FilteringFunctions/arm_lms_f32.c ****     /* Initialize pState pointer */
 254:Source\FilteringFunctions/arm_lms_f32.c ****     px = pState;
 255:Source\FilteringFunctions/arm_lms_f32.c **** 
 256:Source\FilteringFunctions/arm_lms_f32.c ****     /* Initialize coeff pointer */
 257:Source\FilteringFunctions/arm_lms_f32.c ****     pb = (pCoeffs);
 258:Source\FilteringFunctions/arm_lms_f32.c **** 
 259:Source\FilteringFunctions/arm_lms_f32.c ****     /* Loop unrolling.  Process 4 taps at a time. */
 260:Source\FilteringFunctions/arm_lms_f32.c ****     tapCnt = numTaps >> 2;
 261:Source\FilteringFunctions/arm_lms_f32.c **** 
ARM GAS  C:\Users\fneves\AppData\Local\Temp\ccLLH3iY.s 			page 7


 262:Source\FilteringFunctions/arm_lms_f32.c ****     /* Update filter coefficients */
 263:Source\FilteringFunctions/arm_lms_f32.c ****     while (tapCnt > 0u)
 264:Source\FilteringFunctions/arm_lms_f32.c ****     {
 265:Source\FilteringFunctions/arm_lms_f32.c ****       /* Perform the multiply-accumulate */
 266:Source\FilteringFunctions/arm_lms_f32.c ****       *pb = *pb + (w * (*px++));
 267:Source\FilteringFunctions/arm_lms_f32.c ****       pb++;
 268:Source\FilteringFunctions/arm_lms_f32.c **** 
 269:Source\FilteringFunctions/arm_lms_f32.c ****       *pb = *pb + (w * (*px++));
 270:Source\FilteringFunctions/arm_lms_f32.c ****       pb++;
 271:Source\FilteringFunctions/arm_lms_f32.c **** 
 272:Source\FilteringFunctions/arm_lms_f32.c ****       *pb = *pb + (w * (*px++));
 273:Source\FilteringFunctions/arm_lms_f32.c ****       pb++;
 274:Source\FilteringFunctions/arm_lms_f32.c **** 
 275:Source\FilteringFunctions/arm_lms_f32.c ****       *pb = *pb + (w * (*px++));
 276:Source\FilteringFunctions/arm_lms_f32.c ****       pb++;
 277:Source\FilteringFunctions/arm_lms_f32.c **** 
 278:Source\FilteringFunctions/arm_lms_f32.c ****       /* Decrement the loop counter */
 279:Source\FilteringFunctions/arm_lms_f32.c ****       tapCnt--;
 280:Source\FilteringFunctions/arm_lms_f32.c ****     }
 281:Source\FilteringFunctions/arm_lms_f32.c **** 
 282:Source\FilteringFunctions/arm_lms_f32.c ****     /* If the filter length is not a multiple of 4, compute the remaining filter taps */
 283:Source\FilteringFunctions/arm_lms_f32.c ****     tapCnt = numTaps % 0x4u;
 284:Source\FilteringFunctions/arm_lms_f32.c **** 
 285:Source\FilteringFunctions/arm_lms_f32.c ****     while (tapCnt > 0u)
 286:Source\FilteringFunctions/arm_lms_f32.c ****     {
 287:Source\FilteringFunctions/arm_lms_f32.c ****       /* Perform the multiply-accumulate */
 288:Source\FilteringFunctions/arm_lms_f32.c ****       *pb = *pb + (w * (*px++));
 289:Source\FilteringFunctions/arm_lms_f32.c ****       pb++;
 290:Source\FilteringFunctions/arm_lms_f32.c **** 
 291:Source\FilteringFunctions/arm_lms_f32.c ****       /* Decrement the loop counter */
 292:Source\FilteringFunctions/arm_lms_f32.c ****       tapCnt--;
 293:Source\FilteringFunctions/arm_lms_f32.c ****     }
 294:Source\FilteringFunctions/arm_lms_f32.c **** 
 295:Source\FilteringFunctions/arm_lms_f32.c ****     /* Advance state pointer by 1 for the next sample */
 296:Source\FilteringFunctions/arm_lms_f32.c ****     pState = pState + 1;
 297:Source\FilteringFunctions/arm_lms_f32.c **** 
 298:Source\FilteringFunctions/arm_lms_f32.c ****     /* Decrement the loop counter */
 299:Source\FilteringFunctions/arm_lms_f32.c ****     blkCnt--;
 300:Source\FilteringFunctions/arm_lms_f32.c ****   }
 301:Source\FilteringFunctions/arm_lms_f32.c **** 
 302:Source\FilteringFunctions/arm_lms_f32.c **** 
 303:Source\FilteringFunctions/arm_lms_f32.c ****   /* Processing is complete. Now copy the last numTaps - 1 samples to the
 304:Source\FilteringFunctions/arm_lms_f32.c ****      satrt of the state buffer. This prepares the state buffer for the
 305:Source\FilteringFunctions/arm_lms_f32.c ****      next function call. */
 306:Source\FilteringFunctions/arm_lms_f32.c **** 
 307:Source\FilteringFunctions/arm_lms_f32.c ****   /* Points to the start of the pState buffer */
 308:Source\FilteringFunctions/arm_lms_f32.c ****   pStateCurnt = S->pState;
 309:Source\FilteringFunctions/arm_lms_f32.c **** 
 310:Source\FilteringFunctions/arm_lms_f32.c ****   /* Loop unrolling for (numTaps - 1u) samples copy */
 311:Source\FilteringFunctions/arm_lms_f32.c ****   tapCnt = (numTaps - 1u) >> 2u;
 312:Source\FilteringFunctions/arm_lms_f32.c **** 
 313:Source\FilteringFunctions/arm_lms_f32.c ****   /* copy data */
 314:Source\FilteringFunctions/arm_lms_f32.c ****   while (tapCnt > 0u)
 315:Source\FilteringFunctions/arm_lms_f32.c ****   {
 316:Source\FilteringFunctions/arm_lms_f32.c ****     *pStateCurnt++ = *pState++;
 317:Source\FilteringFunctions/arm_lms_f32.c ****     *pStateCurnt++ = *pState++;
 318:Source\FilteringFunctions/arm_lms_f32.c ****     *pStateCurnt++ = *pState++;
ARM GAS  C:\Users\fneves\AppData\Local\Temp\ccLLH3iY.s 			page 8


 319:Source\FilteringFunctions/arm_lms_f32.c ****     *pStateCurnt++ = *pState++;
 320:Source\FilteringFunctions/arm_lms_f32.c **** 
 321:Source\FilteringFunctions/arm_lms_f32.c ****     /* Decrement the loop counter */
 322:Source\FilteringFunctions/arm_lms_f32.c ****     tapCnt--;
 323:Source\FilteringFunctions/arm_lms_f32.c ****   }
 324:Source\FilteringFunctions/arm_lms_f32.c **** 
 325:Source\FilteringFunctions/arm_lms_f32.c ****   /* Calculate remaining number of copies */
 326:Source\FilteringFunctions/arm_lms_f32.c ****   tapCnt = (numTaps - 1u) % 0x4u;
 327:Source\FilteringFunctions/arm_lms_f32.c **** 
 328:Source\FilteringFunctions/arm_lms_f32.c ****   /* Copy the remaining q31_t data */
 329:Source\FilteringFunctions/arm_lms_f32.c ****   while (tapCnt > 0u)
 330:Source\FilteringFunctions/arm_lms_f32.c ****   {
 331:Source\FilteringFunctions/arm_lms_f32.c ****     *pStateCurnt++ = *pState++;
 332:Source\FilteringFunctions/arm_lms_f32.c **** 
 333:Source\FilteringFunctions/arm_lms_f32.c ****     /* Decrement the loop counter */
 334:Source\FilteringFunctions/arm_lms_f32.c ****     tapCnt--;
 335:Source\FilteringFunctions/arm_lms_f32.c ****   }
 336:Source\FilteringFunctions/arm_lms_f32.c **** 
 337:Source\FilteringFunctions/arm_lms_f32.c **** #else
 338:Source\FilteringFunctions/arm_lms_f32.c **** 
 339:Source\FilteringFunctions/arm_lms_f32.c ****   /* Run the below code for Cortex-M0 */
 340:Source\FilteringFunctions/arm_lms_f32.c **** 
 341:Source\FilteringFunctions/arm_lms_f32.c ****   while (blkCnt > 0u)
  82              		.loc 1 341 0
  83 0048 6DE0     		b	.L2
  84              	.L7:
 342:Source\FilteringFunctions/arm_lms_f32.c ****   {
 343:Source\FilteringFunctions/arm_lms_f32.c ****     /* Copy the new input sample into the state buffer */
 344:Source\FilteringFunctions/arm_lms_f32.c ****     *pStateCurnt++ = *pSrc++;
  85              		.loc 1 344 0
  86 004a 3B6C     		ldr	r3, [r7, #64]
  87 004c 1A1D     		add	r2, r3, #4
  88 004e 3A64     		str	r2, [r7, #64]
  89 0050 BA68     		ldr	r2, [r7, #8]
  90 0052 111D     		add	r1, r2, #4
  91 0054 B960     		str	r1, [r7, #8]
  92 0056 1268     		ldr	r2, [r2]
  93 0058 1A60     		str	r2, [r3]
 345:Source\FilteringFunctions/arm_lms_f32.c **** 
 346:Source\FilteringFunctions/arm_lms_f32.c ****     /* Initialize pState pointer */
 347:Source\FilteringFunctions/arm_lms_f32.c ****     px = pState;
  94              		.loc 1 347 0
  95 005a 7B6C     		ldr	r3, [r7, #68]
  96 005c FB63     		str	r3, [r7, #60]
 348:Source\FilteringFunctions/arm_lms_f32.c **** 
 349:Source\FilteringFunctions/arm_lms_f32.c ****     /* Initialize pCoeffs pointer */
 350:Source\FilteringFunctions/arm_lms_f32.c ****     pb = pCoeffs;
  97              		.loc 1 350 0
  98 005e BB6A     		ldr	r3, [r7, #40]
  99 0060 BB63     		str	r3, [r7, #56]
 351:Source\FilteringFunctions/arm_lms_f32.c **** 
 352:Source\FilteringFunctions/arm_lms_f32.c ****     /* Set the accumulator to zero */
 353:Source\FilteringFunctions/arm_lms_f32.c ****     sum = 0.0f;
 100              		.loc 1 353 0
 101 0062 0023     		mov	r3, #0
 102 0064 FB62     		str	r3, [r7, #44]
 354:Source\FilteringFunctions/arm_lms_f32.c **** 
ARM GAS  C:\Users\fneves\AppData\Local\Temp\ccLLH3iY.s 			page 9


 355:Source\FilteringFunctions/arm_lms_f32.c ****     /* Loop over numTaps number of values */
 356:Source\FilteringFunctions/arm_lms_f32.c ****     tapCnt = numTaps;
 103              		.loc 1 356 0
 104 0066 3B6A     		ldr	r3, [r7, #32]
 105 0068 7B63     		str	r3, [r7, #52]
 357:Source\FilteringFunctions/arm_lms_f32.c **** 
 358:Source\FilteringFunctions/arm_lms_f32.c ****     while (tapCnt > 0u)
 106              		.loc 1 358 0
 107 006a 15E0     		b	.L3
 108              	.L4:
 359:Source\FilteringFunctions/arm_lms_f32.c ****     {
 360:Source\FilteringFunctions/arm_lms_f32.c ****       /* Perform the multiply-accumulate */
 361:Source\FilteringFunctions/arm_lms_f32.c ****       sum += (*px++) * (*pb++);
 109              		.loc 1 361 0
 110 006c FB6B     		ldr	r3, [r7, #60]
 111 006e 1A1D     		add	r2, r3, #4
 112 0070 FA63     		str	r2, [r7, #60]
 113 0072 1968     		ldr	r1, [r3]
 114 0074 BB6B     		ldr	r3, [r7, #56]
 115 0076 1A1D     		add	r2, r3, #4
 116 0078 BA63     		str	r2, [r7, #56]
 117 007a 1B68     		ldr	r3, [r3]
 118 007c 081C     		add	r0, r1, #0
 119 007e 191C     		add	r1, r3, #0
 120 0080 FFF7FEFF 		bl	__aeabi_fmul
 121 0084 031C     		add	r3, r0, #0
 122 0086 F86A     		ldr	r0, [r7, #44]
 123 0088 191C     		add	r1, r3, #0
 124 008a FFF7FEFF 		bl	__aeabi_fadd
 125 008e 031C     		add	r3, r0, #0
 126 0090 FB62     		str	r3, [r7, #44]
 362:Source\FilteringFunctions/arm_lms_f32.c **** 
 363:Source\FilteringFunctions/arm_lms_f32.c ****       /* Decrement the loop counter */
 364:Source\FilteringFunctions/arm_lms_f32.c ****       tapCnt--;
 127              		.loc 1 364 0
 128 0092 7B6B     		ldr	r3, [r7, #52]
 129 0094 013B     		sub	r3, r3, #1
 130 0096 7B63     		str	r3, [r7, #52]
 131              	.L3:
 358:Source\FilteringFunctions/arm_lms_f32.c ****     {
 132              		.loc 1 358 0
 133 0098 7B6B     		ldr	r3, [r7, #52]
 134 009a 002B     		cmp	r3, #0
 135 009c E6D1     		bne	.L4
 365:Source\FilteringFunctions/arm_lms_f32.c ****     }
 366:Source\FilteringFunctions/arm_lms_f32.c **** 
 367:Source\FilteringFunctions/arm_lms_f32.c ****     /* The result is stored in the destination buffer. */
 368:Source\FilteringFunctions/arm_lms_f32.c ****     *pOut++ = sum;
 136              		.loc 1 368 0
 137 009e 3B68     		ldr	r3, [r7]
 138 00a0 1A1D     		add	r2, r3, #4
 139 00a2 3A60     		str	r2, [r7]
 140 00a4 FA6A     		ldr	r2, [r7, #44]
 141 00a6 1A60     		str	r2, [r3]
 369:Source\FilteringFunctions/arm_lms_f32.c **** 
 370:Source\FilteringFunctions/arm_lms_f32.c ****     /* Compute and store error */
 371:Source\FilteringFunctions/arm_lms_f32.c ****     d = (float32_t) (*pRef++);
ARM GAS  C:\Users\fneves\AppData\Local\Temp\ccLLH3iY.s 			page 10


 142              		.loc 1 371 0
 143 00a8 7B68     		ldr	r3, [r7, #4]
 144 00aa 1A1D     		add	r2, r3, #4
 145 00ac 7A60     		str	r2, [r7, #4]
 146 00ae 1B68     		ldr	r3, [r3]
 147 00b0 7B61     		str	r3, [r7, #20]
 372:Source\FilteringFunctions/arm_lms_f32.c ****     e = d - sum;
 148              		.loc 1 372 0
 149 00b2 7869     		ldr	r0, [r7, #20]
 150 00b4 F96A     		ldr	r1, [r7, #44]
 151 00b6 FFF7FEFF 		bl	__aeabi_fsub
 152 00ba 031C     		add	r3, r0, #0
 153 00bc BB61     		str	r3, [r7, #24]
 373:Source\FilteringFunctions/arm_lms_f32.c ****     *pErr++ = e;
 154              		.loc 1 373 0
 155 00be BB6D     		ldr	r3, [r7, #88]
 156 00c0 1A1D     		add	r2, r3, #4
 157 00c2 BA65     		str	r2, [r7, #88]
 158 00c4 BA69     		ldr	r2, [r7, #24]
 159 00c6 1A60     		str	r2, [r3]
 374:Source\FilteringFunctions/arm_lms_f32.c **** 
 375:Source\FilteringFunctions/arm_lms_f32.c ****     /* Weighting factor for the LMS version */
 376:Source\FilteringFunctions/arm_lms_f32.c ****     w = e * mu;
 160              		.loc 1 376 0
 161 00c8 B869     		ldr	r0, [r7, #24]
 162 00ca 796A     		ldr	r1, [r7, #36]
 163 00cc FFF7FEFF 		bl	__aeabi_fmul
 164 00d0 031C     		add	r3, r0, #0
 165 00d2 FB61     		str	r3, [r7, #28]
 377:Source\FilteringFunctions/arm_lms_f32.c **** 
 378:Source\FilteringFunctions/arm_lms_f32.c ****     /* Initialize pState pointer */
 379:Source\FilteringFunctions/arm_lms_f32.c ****     px = pState;
 166              		.loc 1 379 0
 167 00d4 7B6C     		ldr	r3, [r7, #68]
 168 00d6 FB63     		str	r3, [r7, #60]
 380:Source\FilteringFunctions/arm_lms_f32.c **** 
 381:Source\FilteringFunctions/arm_lms_f32.c ****     /* Initialize pCoeffs pointer */
 382:Source\FilteringFunctions/arm_lms_f32.c ****     pb = pCoeffs;
 169              		.loc 1 382 0
 170 00d8 BB6A     		ldr	r3, [r7, #40]
 171 00da BB63     		str	r3, [r7, #56]
 383:Source\FilteringFunctions/arm_lms_f32.c **** 
 384:Source\FilteringFunctions/arm_lms_f32.c ****     /* Loop over numTaps number of values */
 385:Source\FilteringFunctions/arm_lms_f32.c ****     tapCnt = numTaps;
 172              		.loc 1 385 0
 173 00dc 3B6A     		ldr	r3, [r7, #32]
 174 00de 7B63     		str	r3, [r7, #52]
 386:Source\FilteringFunctions/arm_lms_f32.c **** 
 387:Source\FilteringFunctions/arm_lms_f32.c ****     while (tapCnt > 0u)
 175              		.loc 1 387 0
 176 00e0 18E0     		b	.L5
 177              	.L6:
 388:Source\FilteringFunctions/arm_lms_f32.c ****     {
 389:Source\FilteringFunctions/arm_lms_f32.c ****       /* Perform the multiply-accumulate */
 390:Source\FilteringFunctions/arm_lms_f32.c ****       *pb = *pb + (w * (*px++));
 178              		.loc 1 390 0
 179 00e2 BB6B     		ldr	r3, [r7, #56]
ARM GAS  C:\Users\fneves\AppData\Local\Temp\ccLLH3iY.s 			page 11


 180 00e4 1C68     		ldr	r4, [r3]
 181 00e6 FB6B     		ldr	r3, [r7, #60]
 182 00e8 1A1D     		add	r2, r3, #4
 183 00ea FA63     		str	r2, [r7, #60]
 184 00ec 1B68     		ldr	r3, [r3]
 185 00ee 181C     		add	r0, r3, #0
 186 00f0 F969     		ldr	r1, [r7, #28]
 187 00f2 FFF7FEFF 		bl	__aeabi_fmul
 188 00f6 031C     		add	r3, r0, #0
 189 00f8 201C     		add	r0, r4, #0
 190 00fa 191C     		add	r1, r3, #0
 191 00fc FFF7FEFF 		bl	__aeabi_fadd
 192 0100 031C     		add	r3, r0, #0
 193 0102 1A1C     		add	r2, r3, #0
 194 0104 BB6B     		ldr	r3, [r7, #56]
 195 0106 1A60     		str	r2, [r3]
 391:Source\FilteringFunctions/arm_lms_f32.c ****       pb++;
 196              		.loc 1 391 0
 197 0108 BB6B     		ldr	r3, [r7, #56]
 198 010a 0433     		add	r3, r3, #4
 199 010c BB63     		str	r3, [r7, #56]
 392:Source\FilteringFunctions/arm_lms_f32.c **** 
 393:Source\FilteringFunctions/arm_lms_f32.c ****       /* Decrement the loop counter */
 394:Source\FilteringFunctions/arm_lms_f32.c ****       tapCnt--;
 200              		.loc 1 394 0
 201 010e 7B6B     		ldr	r3, [r7, #52]
 202 0110 013B     		sub	r3, r3, #1
 203 0112 7B63     		str	r3, [r7, #52]
 204              	.L5:
 387:Source\FilteringFunctions/arm_lms_f32.c ****     {
 205              		.loc 1 387 0
 206 0114 7B6B     		ldr	r3, [r7, #52]
 207 0116 002B     		cmp	r3, #0
 208 0118 E3D1     		bne	.L6
 395:Source\FilteringFunctions/arm_lms_f32.c ****     }
 396:Source\FilteringFunctions/arm_lms_f32.c **** 
 397:Source\FilteringFunctions/arm_lms_f32.c ****     /* Advance state pointer by 1 for the next sample */
 398:Source\FilteringFunctions/arm_lms_f32.c ****     pState = pState + 1;
 209              		.loc 1 398 0
 210 011a 7B6C     		ldr	r3, [r7, #68]
 211 011c 0433     		add	r3, r3, #4
 212 011e 7B64     		str	r3, [r7, #68]
 399:Source\FilteringFunctions/arm_lms_f32.c **** 
 400:Source\FilteringFunctions/arm_lms_f32.c ****     /* Decrement the loop counter */
 401:Source\FilteringFunctions/arm_lms_f32.c ****     blkCnt--;
 213              		.loc 1 401 0
 214 0120 3B6B     		ldr	r3, [r7, #48]
 215 0122 013B     		sub	r3, r3, #1
 216 0124 3B63     		str	r3, [r7, #48]
 217              	.L2:
 341:Source\FilteringFunctions/arm_lms_f32.c ****   {
 218              		.loc 1 341 0
 219 0126 3B6B     		ldr	r3, [r7, #48]
 220 0128 002B     		cmp	r3, #0
 221 012a 8ED1     		bne	.L7
 402:Source\FilteringFunctions/arm_lms_f32.c ****   }
 403:Source\FilteringFunctions/arm_lms_f32.c **** 
ARM GAS  C:\Users\fneves\AppData\Local\Temp\ccLLH3iY.s 			page 12


 404:Source\FilteringFunctions/arm_lms_f32.c **** 
 405:Source\FilteringFunctions/arm_lms_f32.c ****   /* Processing is complete. Now copy the last numTaps - 1 samples to the
 406:Source\FilteringFunctions/arm_lms_f32.c ****    * start of the state buffer. This prepares the state buffer for the
 407:Source\FilteringFunctions/arm_lms_f32.c ****    * next function call. */
 408:Source\FilteringFunctions/arm_lms_f32.c **** 
 409:Source\FilteringFunctions/arm_lms_f32.c ****   /* Points to the start of the pState buffer */
 410:Source\FilteringFunctions/arm_lms_f32.c ****   pStateCurnt = S->pState;
 222              		.loc 1 410 0
 223 012c FB68     		ldr	r3, [r7, #12]
 224 012e 5B68     		ldr	r3, [r3, #4]
 225 0130 3B64     		str	r3, [r7, #64]
 411:Source\FilteringFunctions/arm_lms_f32.c **** 
 412:Source\FilteringFunctions/arm_lms_f32.c ****   /*  Copy (numTaps - 1u) samples  */
 413:Source\FilteringFunctions/arm_lms_f32.c ****   tapCnt = (numTaps - 1u);
 226              		.loc 1 413 0
 227 0132 3B6A     		ldr	r3, [r7, #32]
 228 0134 013B     		sub	r3, r3, #1
 229 0136 7B63     		str	r3, [r7, #52]
 414:Source\FilteringFunctions/arm_lms_f32.c **** 
 415:Source\FilteringFunctions/arm_lms_f32.c ****   /* Copy the data */
 416:Source\FilteringFunctions/arm_lms_f32.c ****   while (tapCnt > 0u)
 230              		.loc 1 416 0
 231 0138 0AE0     		b	.L8
 232              	.L9:
 417:Source\FilteringFunctions/arm_lms_f32.c ****   {
 418:Source\FilteringFunctions/arm_lms_f32.c ****     *pStateCurnt++ = *pState++;
 233              		.loc 1 418 0
 234 013a 3B6C     		ldr	r3, [r7, #64]
 235 013c 1A1D     		add	r2, r3, #4
 236 013e 3A64     		str	r2, [r7, #64]
 237 0140 7A6C     		ldr	r2, [r7, #68]
 238 0142 111D     		add	r1, r2, #4
 239 0144 7964     		str	r1, [r7, #68]
 240 0146 1268     		ldr	r2, [r2]
 241 0148 1A60     		str	r2, [r3]
 419:Source\FilteringFunctions/arm_lms_f32.c **** 
 420:Source\FilteringFunctions/arm_lms_f32.c ****     /* Decrement the loop counter */
 421:Source\FilteringFunctions/arm_lms_f32.c ****     tapCnt--;
 242              		.loc 1 421 0
 243 014a 7B6B     		ldr	r3, [r7, #52]
 244 014c 013B     		sub	r3, r3, #1
 245 014e 7B63     		str	r3, [r7, #52]
 246              	.L8:
 416:Source\FilteringFunctions/arm_lms_f32.c ****   {
 247              		.loc 1 416 0
 248 0150 7B6B     		ldr	r3, [r7, #52]
 249 0152 002B     		cmp	r3, #0
 250 0154 F1D1     		bne	.L9
 422:Source\FilteringFunctions/arm_lms_f32.c ****   }
 423:Source\FilteringFunctions/arm_lms_f32.c **** 
 424:Source\FilteringFunctions/arm_lms_f32.c **** #endif /*   #if defined (ARM_MATH_DSP) */
 425:Source\FilteringFunctions/arm_lms_f32.c **** 
 426:Source\FilteringFunctions/arm_lms_f32.c **** }
 251              		.loc 1 426 0
 252 0156 BD46     		mov	sp, r7
 253 0158 13B0     		add	sp, sp, #76
 254              		@ sp needed
ARM GAS  C:\Users\fneves\AppData\Local\Temp\ccLLH3iY.s 			page 13


 255 015a 90BD     		pop	{r4, r7, pc}
 256              	.L11:
 257              		.align	2
 258              	.L10:
 259 015c FFFFFF3F 		.word	1073741823
 260              		.cfi_endproc
 261              	.LFE82:
 262              		.size	arm_lms_f32, .-arm_lms_f32
 263              		.text
 264              	.Letext0:
 265              		.file 2 "c:\\program files (x86)\\cypress\\psoc creator\\4.0\\psoc creator\\import\\gnu\\arm\\4.9.
 266              		.file 3 "c:\\program files (x86)\\cypress\\psoc creator\\4.0\\psoc creator\\import\\gnu\\arm\\4.9.
 267              		.file 4 ".\\Include/arm_math.h"