ARM GAS  C:\Users\fneves\AppData\Local\Temp\ccKE0M5u.s 			page 1


   1              		.cpu cortex-m0plus
   2              		.fpu softvfp
   3              		.eabi_attribute 20, 1
   4              		.eabi_attribute 21, 1
   5              		.eabi_attribute 23, 3
   6              		.eabi_attribute 24, 1
   7              		.eabi_attribute 25, 1
   8              		.eabi_attribute 26, 1
   9              		.eabi_attribute 30, 6
  10              		.eabi_attribute 34, 0
  11              		.eabi_attribute 18, 4
  12              		.code	16
  13              		.file	"arm_dct4_q15.c"
  14              		.text
  15              	.Ltext0:
  16              		.cfi_sections	.debug_frame
  17              		.section	.text.arm_dct4_q15,"ax",%progbits
  18              		.align	2
  19              		.global	arm_dct4_q15
  20              		.code	16
  21              		.thumb_func
  22              		.type	arm_dct4_q15, %function
  23              	arm_dct4_q15:
  24              	.LFB82:
  25              		.file 1 "Source\\TransformFunctions\\arm_dct4_q15.c"
   1:Source\TransformFunctions/arm_dct4_q15.c **** /* ----------------------------------------------------------------------
   2:Source\TransformFunctions/arm_dct4_q15.c ****  * Project:      CMSIS DSP Library
   3:Source\TransformFunctions/arm_dct4_q15.c ****  * Title:        arm_dct4_q15.c
   4:Source\TransformFunctions/arm_dct4_q15.c ****  * Description:  Processing function of DCT4 & IDCT4 Q15
   5:Source\TransformFunctions/arm_dct4_q15.c ****  *
   6:Source\TransformFunctions/arm_dct4_q15.c ****  * $Date:        27. January 2017
   7:Source\TransformFunctions/arm_dct4_q15.c ****  * $Revision:    V.1.5.1
   8:Source\TransformFunctions/arm_dct4_q15.c ****  *
   9:Source\TransformFunctions/arm_dct4_q15.c ****  * Target Processor: Cortex-M cores
  10:Source\TransformFunctions/arm_dct4_q15.c ****  * -------------------------------------------------------------------- */
  11:Source\TransformFunctions/arm_dct4_q15.c **** /*
  12:Source\TransformFunctions/arm_dct4_q15.c ****  * Copyright (C) 2010-2017 ARM Limited or its affiliates. All rights reserved.
  13:Source\TransformFunctions/arm_dct4_q15.c ****  *
  14:Source\TransformFunctions/arm_dct4_q15.c ****  * SPDX-License-Identifier: Apache-2.0
  15:Source\TransformFunctions/arm_dct4_q15.c ****  *
  16:Source\TransformFunctions/arm_dct4_q15.c ****  * Licensed under the Apache License, Version 2.0 (the License); you may
  17:Source\TransformFunctions/arm_dct4_q15.c ****  * not use this file except in compliance with the License.
  18:Source\TransformFunctions/arm_dct4_q15.c ****  * You may obtain a copy of the License at
  19:Source\TransformFunctions/arm_dct4_q15.c ****  *
  20:Source\TransformFunctions/arm_dct4_q15.c ****  * www.apache.org/licenses/LICENSE-2.0
  21:Source\TransformFunctions/arm_dct4_q15.c ****  *
  22:Source\TransformFunctions/arm_dct4_q15.c ****  * Unless required by applicable law or agreed to in writing, software
  23:Source\TransformFunctions/arm_dct4_q15.c ****  * distributed under the License is distributed on an AS IS BASIS, WITHOUT
  24:Source\TransformFunctions/arm_dct4_q15.c ****  * WARRANTIES OR CONDITIONS OF ANY KIND, either express or implied.
  25:Source\TransformFunctions/arm_dct4_q15.c ****  * See the License for the specific language governing permissions and
  26:Source\TransformFunctions/arm_dct4_q15.c ****  * limitations under the License.
  27:Source\TransformFunctions/arm_dct4_q15.c ****  */
  28:Source\TransformFunctions/arm_dct4_q15.c **** 
  29:Source\TransformFunctions/arm_dct4_q15.c **** #include "arm_math.h"
  30:Source\TransformFunctions/arm_dct4_q15.c **** 
  31:Source\TransformFunctions/arm_dct4_q15.c **** /**
  32:Source\TransformFunctions/arm_dct4_q15.c ****  * @addtogroup DCT4_IDCT4
ARM GAS  C:\Users\fneves\AppData\Local\Temp\ccKE0M5u.s 			page 2


  33:Source\TransformFunctions/arm_dct4_q15.c ****  * @{
  34:Source\TransformFunctions/arm_dct4_q15.c ****  */
  35:Source\TransformFunctions/arm_dct4_q15.c **** 
  36:Source\TransformFunctions/arm_dct4_q15.c **** /**
  37:Source\TransformFunctions/arm_dct4_q15.c ****  * @brief Processing function for the Q15 DCT4/IDCT4.
  38:Source\TransformFunctions/arm_dct4_q15.c ****  * @param[in]       *S             points to an instance of the Q15 DCT4 structure.
  39:Source\TransformFunctions/arm_dct4_q15.c ****  * @param[in]       *pState        points to state buffer.
  40:Source\TransformFunctions/arm_dct4_q15.c ****  * @param[in,out]   *pInlineBuffer points to the in-place input and output buffer.
  41:Source\TransformFunctions/arm_dct4_q15.c ****  * @return none.
  42:Source\TransformFunctions/arm_dct4_q15.c ****  *
  43:Source\TransformFunctions/arm_dct4_q15.c ****  * \par Input an output formats:
  44:Source\TransformFunctions/arm_dct4_q15.c ****  * Internally inputs are downscaled in the RFFT process function to avoid overflows.
  45:Source\TransformFunctions/arm_dct4_q15.c ****  * Number of bits downscaled, depends on the size of the transform.
  46:Source\TransformFunctions/arm_dct4_q15.c ****  * The input and output formats for different DCT sizes and number of bits to upscale are mentioned
  47:Source\TransformFunctions/arm_dct4_q15.c ****  *
  48:Source\TransformFunctions/arm_dct4_q15.c ****  * \image html dct4FormatsQ15Table.gif
  49:Source\TransformFunctions/arm_dct4_q15.c ****  */
  50:Source\TransformFunctions/arm_dct4_q15.c **** 
  51:Source\TransformFunctions/arm_dct4_q15.c **** void arm_dct4_q15(
  52:Source\TransformFunctions/arm_dct4_q15.c ****   const arm_dct4_instance_q15 * S,
  53:Source\TransformFunctions/arm_dct4_q15.c ****   q15_t * pState,
  54:Source\TransformFunctions/arm_dct4_q15.c ****   q15_t * pInlineBuffer)
  55:Source\TransformFunctions/arm_dct4_q15.c **** {
  26              		.loc 1 55 0
  27              		.cfi_startproc
  28 0000 90B5     		push	{r4, r7, lr}
  29              		.cfi_def_cfa_offset 12
  30              		.cfi_offset 4, -12
  31              		.cfi_offset 7, -8
  32              		.cfi_offset 14, -4
  33 0002 8DB0     		sub	sp, sp, #52
  34              		.cfi_def_cfa_offset 64
  35 0004 00AF     		add	r7, sp, #0
  36              		.cfi_def_cfa_register 7
  37 0006 F860     		str	r0, [r7, #12]
  38 0008 B960     		str	r1, [r7, #8]
  39 000a 7A60     		str	r2, [r7, #4]
  56:Source\TransformFunctions/arm_dct4_q15.c ****   uint32_t i;                                    /* Loop counter */
  57:Source\TransformFunctions/arm_dct4_q15.c ****   q15_t *weights = S->pTwiddle;                  /* Pointer to the Weights table */
  40              		.loc 1 57 0
  41 000c FB68     		ldr	r3, [r7, #12]
  42 000e 9B68     		ldr	r3, [r3, #8]
  43 0010 BB61     		str	r3, [r7, #24]
  58:Source\TransformFunctions/arm_dct4_q15.c ****   q15_t *cosFact = S->pCosFactor;                /* Pointer to the cos factors table */
  44              		.loc 1 58 0
  45 0012 FB68     		ldr	r3, [r7, #12]
  46 0014 DB68     		ldr	r3, [r3, #12]
  47 0016 7B61     		str	r3, [r7, #20]
  59:Source\TransformFunctions/arm_dct4_q15.c ****   q15_t *pS1, *pS2, *pbuff;                      /* Temporary pointers for input buffer and pState 
  60:Source\TransformFunctions/arm_dct4_q15.c ****   q15_t in;                                      /* Temporary variable */
  61:Source\TransformFunctions/arm_dct4_q15.c **** 
  62:Source\TransformFunctions/arm_dct4_q15.c **** 
  63:Source\TransformFunctions/arm_dct4_q15.c ****   /* DCT4 computation involves DCT2 (which is calculated using RFFT)
  64:Source\TransformFunctions/arm_dct4_q15.c ****    * along with some pre-processing and post-processing.
  65:Source\TransformFunctions/arm_dct4_q15.c ****    * Computational procedure is explained as follows:
  66:Source\TransformFunctions/arm_dct4_q15.c ****    * (a) Pre-processing involves multiplying input with cos factor,
  67:Source\TransformFunctions/arm_dct4_q15.c ****    *     r(n) = 2 * u(n) * cos(pi*(2*n+1)/(4*n))
ARM GAS  C:\Users\fneves\AppData\Local\Temp\ccKE0M5u.s 			page 3


  68:Source\TransformFunctions/arm_dct4_q15.c ****    *              where,
  69:Source\TransformFunctions/arm_dct4_q15.c ****    *                 r(n) -- output of preprocessing
  70:Source\TransformFunctions/arm_dct4_q15.c ****    *                 u(n) -- input to preprocessing(actual Source buffer)
  71:Source\TransformFunctions/arm_dct4_q15.c ****    * (b) Calculation of DCT2 using FFT is divided into three steps:
  72:Source\TransformFunctions/arm_dct4_q15.c ****    *                  Step1: Re-ordering of even and odd elements of input.
  73:Source\TransformFunctions/arm_dct4_q15.c ****    *                  Step2: Calculating FFT of the re-ordered input.
  74:Source\TransformFunctions/arm_dct4_q15.c ****    *                  Step3: Taking the real part of the product of FFT output and weights.
  75:Source\TransformFunctions/arm_dct4_q15.c ****    * (c) Post-processing - DCT4 can be obtained from DCT2 output using the following equation:
  76:Source\TransformFunctions/arm_dct4_q15.c ****    *                   Y4(k) = Y2(k) - Y4(k-1) and Y4(-1) = Y4(0)
  77:Source\TransformFunctions/arm_dct4_q15.c ****    *                        where,
  78:Source\TransformFunctions/arm_dct4_q15.c ****    *                           Y4 -- DCT4 output,   Y2 -- DCT2 output
  79:Source\TransformFunctions/arm_dct4_q15.c ****    * (d) Multiplying the output with the normalizing factor sqrt(2/N).
  80:Source\TransformFunctions/arm_dct4_q15.c ****    */
  81:Source\TransformFunctions/arm_dct4_q15.c **** 
  82:Source\TransformFunctions/arm_dct4_q15.c ****         /*-------- Pre-processing ------------*/
  83:Source\TransformFunctions/arm_dct4_q15.c ****   /* Multiplying input with cos factor i.e. r(n) = 2 * x(n) * cos(pi*(2*n+1)/(4*n)) */
  84:Source\TransformFunctions/arm_dct4_q15.c ****   arm_mult_q15(pInlineBuffer, cosFact, pInlineBuffer, S->N);
  48              		.loc 1 84 0
  49 0018 FB68     		ldr	r3, [r7, #12]
  50 001a 1B88     		ldrh	r3, [r3]
  51 001c 1C1C     		mov	r4, r3
  52 001e 7968     		ldr	r1, [r7, #4]
  53 0020 7A69     		ldr	r2, [r7, #20]
  54 0022 7B68     		ldr	r3, [r7, #4]
  55 0024 081C     		mov	r0, r1
  56 0026 111C     		mov	r1, r2
  57 0028 1A1C     		mov	r2, r3
  58 002a 231C     		mov	r3, r4
  59 002c FFF7FEFF 		bl	arm_mult_q15
  85:Source\TransformFunctions/arm_dct4_q15.c ****   arm_shift_q15(pInlineBuffer, 1, pInlineBuffer, S->N);
  60              		.loc 1 85 0
  61 0030 FB68     		ldr	r3, [r7, #12]
  62 0032 1B88     		ldrh	r3, [r3]
  63 0034 1C1C     		mov	r4, r3
  64 0036 7A68     		ldr	r2, [r7, #4]
  65 0038 7B68     		ldr	r3, [r7, #4]
  66 003a 101C     		mov	r0, r2
  67 003c 0121     		mov	r1, #1
  68 003e 1A1C     		mov	r2, r3
  69 0040 231C     		mov	r3, r4
  70 0042 FFF7FEFF 		bl	arm_shift_q15
  86:Source\TransformFunctions/arm_dct4_q15.c **** 
  87:Source\TransformFunctions/arm_dct4_q15.c ****   /* ----------------------------------------------------------------
  88:Source\TransformFunctions/arm_dct4_q15.c ****    * Step1: Re-ordering of even and odd elements as
  89:Source\TransformFunctions/arm_dct4_q15.c ****    *             pState[i] =  pInlineBuffer[2*i] and
  90:Source\TransformFunctions/arm_dct4_q15.c ****    *             pState[N-i-1] = pInlineBuffer[2*i+1] where i = 0 to N/2
  91:Source\TransformFunctions/arm_dct4_q15.c ****    ---------------------------------------------------------------------*/
  92:Source\TransformFunctions/arm_dct4_q15.c **** 
  93:Source\TransformFunctions/arm_dct4_q15.c ****   /* pS1 initialized to pState */
  94:Source\TransformFunctions/arm_dct4_q15.c ****   pS1 = pState;
  71              		.loc 1 94 0
  72 0046 BB68     		ldr	r3, [r7, #8]
  73 0048 BB62     		str	r3, [r7, #40]
  95:Source\TransformFunctions/arm_dct4_q15.c **** 
  96:Source\TransformFunctions/arm_dct4_q15.c ****   /* pS2 initialized to pState+N-1, so that it points to the end of the state buffer */
  97:Source\TransformFunctions/arm_dct4_q15.c ****   pS2 = pState + (S->N - 1u);
  74              		.loc 1 97 0
ARM GAS  C:\Users\fneves\AppData\Local\Temp\ccKE0M5u.s 			page 4


  75 004a FB68     		ldr	r3, [r7, #12]
  76 004c 1B88     		ldrh	r3, [r3]
  77 004e 584A     		ldr	r2, .L6
  78 0050 9446     		mov	ip, r2
  79 0052 6344     		add	r3, r3, ip
  80 0054 5B00     		lsl	r3, r3, #1
  81 0056 BA68     		ldr	r2, [r7, #8]
  82 0058 D318     		add	r3, r2, r3
  83 005a 7B62     		str	r3, [r7, #36]
  98:Source\TransformFunctions/arm_dct4_q15.c **** 
  99:Source\TransformFunctions/arm_dct4_q15.c ****   /* pbuff initialized to input buffer */
 100:Source\TransformFunctions/arm_dct4_q15.c ****   pbuff = pInlineBuffer;
  84              		.loc 1 100 0
  85 005c 7B68     		ldr	r3, [r7, #4]
  86 005e 3B62     		str	r3, [r7, #32]
 101:Source\TransformFunctions/arm_dct4_q15.c **** 
 102:Source\TransformFunctions/arm_dct4_q15.c **** 
 103:Source\TransformFunctions/arm_dct4_q15.c **** #if defined (ARM_MATH_DSP)
 104:Source\TransformFunctions/arm_dct4_q15.c **** 
 105:Source\TransformFunctions/arm_dct4_q15.c ****   /* Run the below code for Cortex-M4 and Cortex-M3 */
 106:Source\TransformFunctions/arm_dct4_q15.c **** 
 107:Source\TransformFunctions/arm_dct4_q15.c ****   /* Initializing the loop counter to N/2 >> 2 for loop unrolling by 4 */
 108:Source\TransformFunctions/arm_dct4_q15.c ****   i = (uint32_t) S->Nby2 >> 2u;
 109:Source\TransformFunctions/arm_dct4_q15.c **** 
 110:Source\TransformFunctions/arm_dct4_q15.c ****   /* First part of the processing with loop unrolling.  Compute 4 outputs at a time.
 111:Source\TransformFunctions/arm_dct4_q15.c ****    ** a second loop below computes the remaining 1 to 3 samples. */
 112:Source\TransformFunctions/arm_dct4_q15.c ****   do
 113:Source\TransformFunctions/arm_dct4_q15.c ****   {
 114:Source\TransformFunctions/arm_dct4_q15.c ****     /* Re-ordering of even and odd elements */
 115:Source\TransformFunctions/arm_dct4_q15.c ****     /* pState[i] =  pInlineBuffer[2*i] */
 116:Source\TransformFunctions/arm_dct4_q15.c ****     *pS1++ = *pbuff++;
 117:Source\TransformFunctions/arm_dct4_q15.c ****     /* pState[N-i-1] = pInlineBuffer[2*i+1] */
 118:Source\TransformFunctions/arm_dct4_q15.c ****     *pS2-- = *pbuff++;
 119:Source\TransformFunctions/arm_dct4_q15.c **** 
 120:Source\TransformFunctions/arm_dct4_q15.c ****     *pS1++ = *pbuff++;
 121:Source\TransformFunctions/arm_dct4_q15.c ****     *pS2-- = *pbuff++;
 122:Source\TransformFunctions/arm_dct4_q15.c **** 
 123:Source\TransformFunctions/arm_dct4_q15.c ****     *pS1++ = *pbuff++;
 124:Source\TransformFunctions/arm_dct4_q15.c ****     *pS2-- = *pbuff++;
 125:Source\TransformFunctions/arm_dct4_q15.c **** 
 126:Source\TransformFunctions/arm_dct4_q15.c ****     *pS1++ = *pbuff++;
 127:Source\TransformFunctions/arm_dct4_q15.c ****     *pS2-- = *pbuff++;
 128:Source\TransformFunctions/arm_dct4_q15.c **** 
 129:Source\TransformFunctions/arm_dct4_q15.c ****     /* Decrement the loop counter */
 130:Source\TransformFunctions/arm_dct4_q15.c ****     i--;
 131:Source\TransformFunctions/arm_dct4_q15.c ****   } while (i > 0u);
 132:Source\TransformFunctions/arm_dct4_q15.c **** 
 133:Source\TransformFunctions/arm_dct4_q15.c ****   /* pbuff initialized to input buffer */
 134:Source\TransformFunctions/arm_dct4_q15.c ****   pbuff = pInlineBuffer;
 135:Source\TransformFunctions/arm_dct4_q15.c **** 
 136:Source\TransformFunctions/arm_dct4_q15.c ****   /* pS1 initialized to pState */
 137:Source\TransformFunctions/arm_dct4_q15.c ****   pS1 = pState;
 138:Source\TransformFunctions/arm_dct4_q15.c **** 
 139:Source\TransformFunctions/arm_dct4_q15.c ****   /* Initializing the loop counter to N/4 instead of N for loop unrolling */
 140:Source\TransformFunctions/arm_dct4_q15.c ****   i = (uint32_t) S->N >> 2u;
 141:Source\TransformFunctions/arm_dct4_q15.c **** 
 142:Source\TransformFunctions/arm_dct4_q15.c ****   /* Processing with loop unrolling 4 times as N is always multiple of 4.
ARM GAS  C:\Users\fneves\AppData\Local\Temp\ccKE0M5u.s 			page 5


 143:Source\TransformFunctions/arm_dct4_q15.c ****    * Compute 4 outputs at a time */
 144:Source\TransformFunctions/arm_dct4_q15.c ****   do
 145:Source\TransformFunctions/arm_dct4_q15.c ****   {
 146:Source\TransformFunctions/arm_dct4_q15.c ****     /* Writing the re-ordered output back to inplace input buffer */
 147:Source\TransformFunctions/arm_dct4_q15.c ****     *pbuff++ = *pS1++;
 148:Source\TransformFunctions/arm_dct4_q15.c ****     *pbuff++ = *pS1++;
 149:Source\TransformFunctions/arm_dct4_q15.c ****     *pbuff++ = *pS1++;
 150:Source\TransformFunctions/arm_dct4_q15.c ****     *pbuff++ = *pS1++;
 151:Source\TransformFunctions/arm_dct4_q15.c **** 
 152:Source\TransformFunctions/arm_dct4_q15.c ****     /* Decrement the loop counter */
 153:Source\TransformFunctions/arm_dct4_q15.c ****     i--;
 154:Source\TransformFunctions/arm_dct4_q15.c ****   } while (i > 0u);
 155:Source\TransformFunctions/arm_dct4_q15.c **** 
 156:Source\TransformFunctions/arm_dct4_q15.c **** 
 157:Source\TransformFunctions/arm_dct4_q15.c ****   /* ---------------------------------------------------------
 158:Source\TransformFunctions/arm_dct4_q15.c ****    *     Step2: Calculate RFFT for N-point input
 159:Source\TransformFunctions/arm_dct4_q15.c ****    * ---------------------------------------------------------- */
 160:Source\TransformFunctions/arm_dct4_q15.c ****   /* pInlineBuffer is real input of length N , pState is the complex output of length 2N */
 161:Source\TransformFunctions/arm_dct4_q15.c ****   arm_rfft_q15(S->pRfft, pInlineBuffer, pState);
 162:Source\TransformFunctions/arm_dct4_q15.c **** 
 163:Source\TransformFunctions/arm_dct4_q15.c ****  /*----------------------------------------------------------------------
 164:Source\TransformFunctions/arm_dct4_q15.c ****   *  Step3: Multiply the FFT output with the weights.
 165:Source\TransformFunctions/arm_dct4_q15.c ****   *----------------------------------------------------------------------*/
 166:Source\TransformFunctions/arm_dct4_q15.c ****   arm_cmplx_mult_cmplx_q15(pState, weights, pState, S->N);
 167:Source\TransformFunctions/arm_dct4_q15.c **** 
 168:Source\TransformFunctions/arm_dct4_q15.c ****   /* The output of complex multiplication is in 3.13 format.
 169:Source\TransformFunctions/arm_dct4_q15.c ****    * Hence changing the format of N (i.e. 2*N elements) complex numbers to 1.15 format by shifting 
 170:Source\TransformFunctions/arm_dct4_q15.c ****   arm_shift_q15(pState, 2, pState, S->N * 2);
 171:Source\TransformFunctions/arm_dct4_q15.c **** 
 172:Source\TransformFunctions/arm_dct4_q15.c ****   /* ----------- Post-processing ---------- */
 173:Source\TransformFunctions/arm_dct4_q15.c ****   /* DCT-IV can be obtained from DCT-II by the equation,
 174:Source\TransformFunctions/arm_dct4_q15.c ****    *       Y4(k) = Y2(k) - Y4(k-1) and Y4(-1) = Y4(0)
 175:Source\TransformFunctions/arm_dct4_q15.c ****    *       Hence, Y4(0) = Y2(0)/2  */
 176:Source\TransformFunctions/arm_dct4_q15.c ****   /* Getting only real part from the output and Converting to DCT-IV */
 177:Source\TransformFunctions/arm_dct4_q15.c **** 
 178:Source\TransformFunctions/arm_dct4_q15.c ****   /* Initializing the loop counter to N >> 2 for loop unrolling by 4 */
 179:Source\TransformFunctions/arm_dct4_q15.c ****   i = ((uint32_t) S->N - 1u) >> 2u;
 180:Source\TransformFunctions/arm_dct4_q15.c **** 
 181:Source\TransformFunctions/arm_dct4_q15.c ****   /* pbuff initialized to input buffer. */
 182:Source\TransformFunctions/arm_dct4_q15.c ****   pbuff = pInlineBuffer;
 183:Source\TransformFunctions/arm_dct4_q15.c **** 
 184:Source\TransformFunctions/arm_dct4_q15.c ****   /* pS1 initialized to pState */
 185:Source\TransformFunctions/arm_dct4_q15.c ****   pS1 = pState;
 186:Source\TransformFunctions/arm_dct4_q15.c **** 
 187:Source\TransformFunctions/arm_dct4_q15.c ****   /* Calculating Y4(0) from Y2(0) using Y4(0) = Y2(0)/2 */
 188:Source\TransformFunctions/arm_dct4_q15.c ****   in = *pS1++ >> 1u;
 189:Source\TransformFunctions/arm_dct4_q15.c ****   /* input buffer acts as inplace, so output values are stored in the input itself. */
 190:Source\TransformFunctions/arm_dct4_q15.c ****   *pbuff++ = in;
 191:Source\TransformFunctions/arm_dct4_q15.c **** 
 192:Source\TransformFunctions/arm_dct4_q15.c ****   /* pState pointer is incremented twice as the real values are located alternatively in the array 
 193:Source\TransformFunctions/arm_dct4_q15.c ****   pS1++;
 194:Source\TransformFunctions/arm_dct4_q15.c **** 
 195:Source\TransformFunctions/arm_dct4_q15.c ****   /* First part of the processing with loop unrolling.  Compute 4 outputs at a time.
 196:Source\TransformFunctions/arm_dct4_q15.c ****    ** a second loop below computes the remaining 1 to 3 samples. */
 197:Source\TransformFunctions/arm_dct4_q15.c ****   do
 198:Source\TransformFunctions/arm_dct4_q15.c ****   {
 199:Source\TransformFunctions/arm_dct4_q15.c ****     /* Calculating Y4(1) to Y4(N-1) from Y2 using equation Y4(k) = Y2(k) - Y4(k-1) */
ARM GAS  C:\Users\fneves\AppData\Local\Temp\ccKE0M5u.s 			page 6


 200:Source\TransformFunctions/arm_dct4_q15.c ****     /* pState pointer (pS1) is incremented twice as the real values are located alternatively in th
 201:Source\TransformFunctions/arm_dct4_q15.c ****     in = *pS1++ - in;
 202:Source\TransformFunctions/arm_dct4_q15.c ****     *pbuff++ = in;
 203:Source\TransformFunctions/arm_dct4_q15.c ****     /* points to the next real value */
 204:Source\TransformFunctions/arm_dct4_q15.c ****     pS1++;
 205:Source\TransformFunctions/arm_dct4_q15.c **** 
 206:Source\TransformFunctions/arm_dct4_q15.c ****     in = *pS1++ - in;
 207:Source\TransformFunctions/arm_dct4_q15.c ****     *pbuff++ = in;
 208:Source\TransformFunctions/arm_dct4_q15.c ****     pS1++;
 209:Source\TransformFunctions/arm_dct4_q15.c **** 
 210:Source\TransformFunctions/arm_dct4_q15.c ****     in = *pS1++ - in;
 211:Source\TransformFunctions/arm_dct4_q15.c ****     *pbuff++ = in;
 212:Source\TransformFunctions/arm_dct4_q15.c ****     pS1++;
 213:Source\TransformFunctions/arm_dct4_q15.c **** 
 214:Source\TransformFunctions/arm_dct4_q15.c ****     in = *pS1++ - in;
 215:Source\TransformFunctions/arm_dct4_q15.c ****     *pbuff++ = in;
 216:Source\TransformFunctions/arm_dct4_q15.c ****     pS1++;
 217:Source\TransformFunctions/arm_dct4_q15.c **** 
 218:Source\TransformFunctions/arm_dct4_q15.c ****     /* Decrement the loop counter */
 219:Source\TransformFunctions/arm_dct4_q15.c ****     i--;
 220:Source\TransformFunctions/arm_dct4_q15.c ****   } while (i > 0u);
 221:Source\TransformFunctions/arm_dct4_q15.c **** 
 222:Source\TransformFunctions/arm_dct4_q15.c ****   /* If the blockSize is not a multiple of 4, compute any remaining output samples here.
 223:Source\TransformFunctions/arm_dct4_q15.c ****    ** No loop unrolling is used. */
 224:Source\TransformFunctions/arm_dct4_q15.c ****   i = ((uint32_t) S->N - 1u) % 0x4u;
 225:Source\TransformFunctions/arm_dct4_q15.c **** 
 226:Source\TransformFunctions/arm_dct4_q15.c ****   while (i > 0u)
 227:Source\TransformFunctions/arm_dct4_q15.c ****   {
 228:Source\TransformFunctions/arm_dct4_q15.c ****     /* Calculating Y4(1) to Y4(N-1) from Y2 using equation Y4(k) = Y2(k) - Y4(k-1) */
 229:Source\TransformFunctions/arm_dct4_q15.c ****     /* pState pointer (pS1) is incremented twice as the real values are located alternatively in th
 230:Source\TransformFunctions/arm_dct4_q15.c ****     in = *pS1++ - in;
 231:Source\TransformFunctions/arm_dct4_q15.c ****     *pbuff++ = in;
 232:Source\TransformFunctions/arm_dct4_q15.c ****     /* points to the next real value */
 233:Source\TransformFunctions/arm_dct4_q15.c ****     pS1++;
 234:Source\TransformFunctions/arm_dct4_q15.c **** 
 235:Source\TransformFunctions/arm_dct4_q15.c ****     /* Decrement the loop counter */
 236:Source\TransformFunctions/arm_dct4_q15.c ****     i--;
 237:Source\TransformFunctions/arm_dct4_q15.c ****   }
 238:Source\TransformFunctions/arm_dct4_q15.c **** 
 239:Source\TransformFunctions/arm_dct4_q15.c **** 
 240:Source\TransformFunctions/arm_dct4_q15.c ****    /*------------ Normalizing the output by multiplying with the normalizing factor ----------*/
 241:Source\TransformFunctions/arm_dct4_q15.c **** 
 242:Source\TransformFunctions/arm_dct4_q15.c ****   /* Initializing the loop counter to N/4 instead of N for loop unrolling */
 243:Source\TransformFunctions/arm_dct4_q15.c ****   i = (uint32_t) S->N >> 2u;
 244:Source\TransformFunctions/arm_dct4_q15.c **** 
 245:Source\TransformFunctions/arm_dct4_q15.c ****   /* pbuff initialized to the pInlineBuffer(now contains the output values) */
 246:Source\TransformFunctions/arm_dct4_q15.c ****   pbuff = pInlineBuffer;
 247:Source\TransformFunctions/arm_dct4_q15.c **** 
 248:Source\TransformFunctions/arm_dct4_q15.c ****   /* Processing with loop unrolling 4 times as N is always multiple of 4.  Compute 4 outputs at a t
 249:Source\TransformFunctions/arm_dct4_q15.c ****   do
 250:Source\TransformFunctions/arm_dct4_q15.c ****   {
 251:Source\TransformFunctions/arm_dct4_q15.c ****     /* Multiplying pInlineBuffer with the normalizing factor sqrt(2/N) */
 252:Source\TransformFunctions/arm_dct4_q15.c ****     in = *pbuff;
 253:Source\TransformFunctions/arm_dct4_q15.c ****     *pbuff++ = ((q15_t) (((q31_t) in * S->normalize) >> 15));
 254:Source\TransformFunctions/arm_dct4_q15.c **** 
 255:Source\TransformFunctions/arm_dct4_q15.c ****     in = *pbuff;
 256:Source\TransformFunctions/arm_dct4_q15.c ****     *pbuff++ = ((q15_t) (((q31_t) in * S->normalize) >> 15));
ARM GAS  C:\Users\fneves\AppData\Local\Temp\ccKE0M5u.s 			page 7


 257:Source\TransformFunctions/arm_dct4_q15.c **** 
 258:Source\TransformFunctions/arm_dct4_q15.c ****     in = *pbuff;
 259:Source\TransformFunctions/arm_dct4_q15.c ****     *pbuff++ = ((q15_t) (((q31_t) in * S->normalize) >> 15));
 260:Source\TransformFunctions/arm_dct4_q15.c **** 
 261:Source\TransformFunctions/arm_dct4_q15.c ****     in = *pbuff;
 262:Source\TransformFunctions/arm_dct4_q15.c ****     *pbuff++ = ((q15_t) (((q31_t) in * S->normalize) >> 15));
 263:Source\TransformFunctions/arm_dct4_q15.c **** 
 264:Source\TransformFunctions/arm_dct4_q15.c ****     /* Decrement the loop counter */
 265:Source\TransformFunctions/arm_dct4_q15.c ****     i--;
 266:Source\TransformFunctions/arm_dct4_q15.c ****   } while (i > 0u);
 267:Source\TransformFunctions/arm_dct4_q15.c **** 
 268:Source\TransformFunctions/arm_dct4_q15.c **** 
 269:Source\TransformFunctions/arm_dct4_q15.c **** #else
 270:Source\TransformFunctions/arm_dct4_q15.c **** 
 271:Source\TransformFunctions/arm_dct4_q15.c ****   /* Run the below code for Cortex-M0 */
 272:Source\TransformFunctions/arm_dct4_q15.c **** 
 273:Source\TransformFunctions/arm_dct4_q15.c ****   /* Initializing the loop counter to N/2 */
 274:Source\TransformFunctions/arm_dct4_q15.c ****   i = (uint32_t) S->Nby2;
  87              		.loc 1 274 0
  88 0060 FB68     		ldr	r3, [r7, #12]
  89 0062 5B88     		ldrh	r3, [r3, #2]
  90 0064 FB62     		str	r3, [r7, #44]
  91              	.L2:
 275:Source\TransformFunctions/arm_dct4_q15.c **** 
 276:Source\TransformFunctions/arm_dct4_q15.c ****   do
 277:Source\TransformFunctions/arm_dct4_q15.c ****   {
 278:Source\TransformFunctions/arm_dct4_q15.c ****     /* Re-ordering of even and odd elements */
 279:Source\TransformFunctions/arm_dct4_q15.c ****     /* pState[i] =  pInlineBuffer[2*i] */
 280:Source\TransformFunctions/arm_dct4_q15.c ****     *pS1++ = *pbuff++;
  92              		.loc 1 280 0 discriminator 1
  93 0066 BB6A     		ldr	r3, [r7, #40]
  94 0068 9A1C     		add	r2, r3, #2
  95 006a BA62     		str	r2, [r7, #40]
  96 006c 3A6A     		ldr	r2, [r7, #32]
  97 006e 911C     		add	r1, r2, #2
  98 0070 3962     		str	r1, [r7, #32]
  99 0072 1288     		ldrh	r2, [r2]
 100 0074 1A80     		strh	r2, [r3]
 281:Source\TransformFunctions/arm_dct4_q15.c ****     /* pState[N-i-1] = pInlineBuffer[2*i+1] */
 282:Source\TransformFunctions/arm_dct4_q15.c ****     *pS2-- = *pbuff++;
 101              		.loc 1 282 0 discriminator 1
 102 0076 7B6A     		ldr	r3, [r7, #36]
 103 0078 9A1E     		sub	r2, r3, #2
 104 007a 7A62     		str	r2, [r7, #36]
 105 007c 3A6A     		ldr	r2, [r7, #32]
 106 007e 911C     		add	r1, r2, #2
 107 0080 3962     		str	r1, [r7, #32]
 108 0082 1288     		ldrh	r2, [r2]
 109 0084 1A80     		strh	r2, [r3]
 283:Source\TransformFunctions/arm_dct4_q15.c **** 
 284:Source\TransformFunctions/arm_dct4_q15.c ****     /* Decrement the loop counter */
 285:Source\TransformFunctions/arm_dct4_q15.c ****     i--;
 110              		.loc 1 285 0 discriminator 1
 111 0086 FB6A     		ldr	r3, [r7, #44]
 112 0088 013B     		sub	r3, r3, #1
 113 008a FB62     		str	r3, [r7, #44]
 286:Source\TransformFunctions/arm_dct4_q15.c ****   } while (i > 0u);
ARM GAS  C:\Users\fneves\AppData\Local\Temp\ccKE0M5u.s 			page 8


 114              		.loc 1 286 0 discriminator 1
 115 008c FB6A     		ldr	r3, [r7, #44]
 116 008e 002B     		cmp	r3, #0
 117 0090 E9D1     		bne	.L2
 287:Source\TransformFunctions/arm_dct4_q15.c **** 
 288:Source\TransformFunctions/arm_dct4_q15.c ****   /* pbuff initialized to input buffer */
 289:Source\TransformFunctions/arm_dct4_q15.c ****   pbuff = pInlineBuffer;
 118              		.loc 1 289 0
 119 0092 7B68     		ldr	r3, [r7, #4]
 120 0094 3B62     		str	r3, [r7, #32]
 290:Source\TransformFunctions/arm_dct4_q15.c **** 
 291:Source\TransformFunctions/arm_dct4_q15.c ****   /* pS1 initialized to pState */
 292:Source\TransformFunctions/arm_dct4_q15.c ****   pS1 = pState;
 121              		.loc 1 292 0
 122 0096 BB68     		ldr	r3, [r7, #8]
 123 0098 BB62     		str	r3, [r7, #40]
 293:Source\TransformFunctions/arm_dct4_q15.c **** 
 294:Source\TransformFunctions/arm_dct4_q15.c ****   /* Initializing the loop counter */
 295:Source\TransformFunctions/arm_dct4_q15.c ****   i = (uint32_t) S->N;
 124              		.loc 1 295 0
 125 009a FB68     		ldr	r3, [r7, #12]
 126 009c 1B88     		ldrh	r3, [r3]
 127 009e FB62     		str	r3, [r7, #44]
 128              	.L3:
 296:Source\TransformFunctions/arm_dct4_q15.c **** 
 297:Source\TransformFunctions/arm_dct4_q15.c ****   do
 298:Source\TransformFunctions/arm_dct4_q15.c ****   {
 299:Source\TransformFunctions/arm_dct4_q15.c ****     /* Writing the re-ordered output back to inplace input buffer */
 300:Source\TransformFunctions/arm_dct4_q15.c ****     *pbuff++ = *pS1++;
 129              		.loc 1 300 0 discriminator 1
 130 00a0 3B6A     		ldr	r3, [r7, #32]
 131 00a2 9A1C     		add	r2, r3, #2
 132 00a4 3A62     		str	r2, [r7, #32]
 133 00a6 BA6A     		ldr	r2, [r7, #40]
 134 00a8 911C     		add	r1, r2, #2
 135 00aa B962     		str	r1, [r7, #40]
 136 00ac 1288     		ldrh	r2, [r2]
 137 00ae 1A80     		strh	r2, [r3]
 301:Source\TransformFunctions/arm_dct4_q15.c **** 
 302:Source\TransformFunctions/arm_dct4_q15.c ****     /* Decrement the loop counter */
 303:Source\TransformFunctions/arm_dct4_q15.c ****     i--;
 138              		.loc 1 303 0 discriminator 1
 139 00b0 FB6A     		ldr	r3, [r7, #44]
 140 00b2 013B     		sub	r3, r3, #1
 141 00b4 FB62     		str	r3, [r7, #44]
 304:Source\TransformFunctions/arm_dct4_q15.c ****   } while (i > 0u);
 142              		.loc 1 304 0 discriminator 1
 143 00b6 FB6A     		ldr	r3, [r7, #44]
 144 00b8 002B     		cmp	r3, #0
 145 00ba F1D1     		bne	.L3
 305:Source\TransformFunctions/arm_dct4_q15.c **** 
 306:Source\TransformFunctions/arm_dct4_q15.c **** 
 307:Source\TransformFunctions/arm_dct4_q15.c ****   /* ---------------------------------------------------------
 308:Source\TransformFunctions/arm_dct4_q15.c ****    *     Step2: Calculate RFFT for N-point input
 309:Source\TransformFunctions/arm_dct4_q15.c ****    * ---------------------------------------------------------- */
 310:Source\TransformFunctions/arm_dct4_q15.c ****   /* pInlineBuffer is real input of length N , pState is the complex output of length 2N */
 311:Source\TransformFunctions/arm_dct4_q15.c ****   arm_rfft_q15(S->pRfft, pInlineBuffer, pState);
ARM GAS  C:\Users\fneves\AppData\Local\Temp\ccKE0M5u.s 			page 9


 146              		.loc 1 311 0
 147 00bc FB68     		ldr	r3, [r7, #12]
 148 00be 1969     		ldr	r1, [r3, #16]
 149 00c0 7A68     		ldr	r2, [r7, #4]
 150 00c2 BB68     		ldr	r3, [r7, #8]
 151 00c4 081C     		mov	r0, r1
 152 00c6 111C     		mov	r1, r2
 153 00c8 1A1C     		mov	r2, r3
 154 00ca FFF7FEFF 		bl	arm_rfft_q15
 312:Source\TransformFunctions/arm_dct4_q15.c **** 
 313:Source\TransformFunctions/arm_dct4_q15.c ****  /*----------------------------------------------------------------------
 314:Source\TransformFunctions/arm_dct4_q15.c ****   *  Step3: Multiply the FFT output with the weights.
 315:Source\TransformFunctions/arm_dct4_q15.c ****   *----------------------------------------------------------------------*/
 316:Source\TransformFunctions/arm_dct4_q15.c ****   arm_cmplx_mult_cmplx_q15(pState, weights, pState, S->N);
 155              		.loc 1 316 0
 156 00ce FB68     		ldr	r3, [r7, #12]
 157 00d0 1B88     		ldrh	r3, [r3]
 158 00d2 1C1C     		mov	r4, r3
 159 00d4 B968     		ldr	r1, [r7, #8]
 160 00d6 BA69     		ldr	r2, [r7, #24]
 161 00d8 BB68     		ldr	r3, [r7, #8]
 162 00da 081C     		mov	r0, r1
 163 00dc 111C     		mov	r1, r2
 164 00de 1A1C     		mov	r2, r3
 165 00e0 231C     		mov	r3, r4
 166 00e2 FFF7FEFF 		bl	arm_cmplx_mult_cmplx_q15
 317:Source\TransformFunctions/arm_dct4_q15.c **** 
 318:Source\TransformFunctions/arm_dct4_q15.c ****   /* The output of complex multiplication is in 3.13 format.
 319:Source\TransformFunctions/arm_dct4_q15.c ****    * Hence changing the format of N (i.e. 2*N elements) complex numbers to 1.15 format by shifting 
 320:Source\TransformFunctions/arm_dct4_q15.c ****   arm_shift_q15(pState, 2, pState, S->N * 2);
 167              		.loc 1 320 0
 168 00e6 FB68     		ldr	r3, [r7, #12]
 169 00e8 1B88     		ldrh	r3, [r3]
 170 00ea 5B00     		lsl	r3, r3, #1
 171 00ec 1C1C     		mov	r4, r3
 172 00ee BA68     		ldr	r2, [r7, #8]
 173 00f0 BB68     		ldr	r3, [r7, #8]
 174 00f2 101C     		mov	r0, r2
 175 00f4 0221     		mov	r1, #2
 176 00f6 1A1C     		mov	r2, r3
 177 00f8 231C     		mov	r3, r4
 178 00fa FFF7FEFF 		bl	arm_shift_q15
 321:Source\TransformFunctions/arm_dct4_q15.c **** 
 322:Source\TransformFunctions/arm_dct4_q15.c ****   /* ----------- Post-processing ---------- */
 323:Source\TransformFunctions/arm_dct4_q15.c ****   /* DCT-IV can be obtained from DCT-II by the equation,
 324:Source\TransformFunctions/arm_dct4_q15.c ****    *       Y4(k) = Y2(k) - Y4(k-1) and Y4(-1) = Y4(0)
 325:Source\TransformFunctions/arm_dct4_q15.c ****    *       Hence, Y4(0) = Y2(0)/2  */
 326:Source\TransformFunctions/arm_dct4_q15.c ****   /* Getting only real part from the output and Converting to DCT-IV */
 327:Source\TransformFunctions/arm_dct4_q15.c **** 
 328:Source\TransformFunctions/arm_dct4_q15.c ****   /* Initializing the loop counter */
 329:Source\TransformFunctions/arm_dct4_q15.c ****   i = ((uint32_t) S->N - 1u);
 179              		.loc 1 329 0
 180 00fe FB68     		ldr	r3, [r7, #12]
 181 0100 1B88     		ldrh	r3, [r3]
 182 0102 013B     		sub	r3, r3, #1
 183 0104 FB62     		str	r3, [r7, #44]
 330:Source\TransformFunctions/arm_dct4_q15.c **** 
ARM GAS  C:\Users\fneves\AppData\Local\Temp\ccKE0M5u.s 			page 10


 331:Source\TransformFunctions/arm_dct4_q15.c ****   /* pbuff initialized to input buffer. */
 332:Source\TransformFunctions/arm_dct4_q15.c ****   pbuff = pInlineBuffer;
 184              		.loc 1 332 0
 185 0106 7B68     		ldr	r3, [r7, #4]
 186 0108 3B62     		str	r3, [r7, #32]
 333:Source\TransformFunctions/arm_dct4_q15.c **** 
 334:Source\TransformFunctions/arm_dct4_q15.c ****   /* pS1 initialized to pState */
 335:Source\TransformFunctions/arm_dct4_q15.c ****   pS1 = pState;
 187              		.loc 1 335 0
 188 010a BB68     		ldr	r3, [r7, #8]
 189 010c BB62     		str	r3, [r7, #40]
 336:Source\TransformFunctions/arm_dct4_q15.c **** 
 337:Source\TransformFunctions/arm_dct4_q15.c ****   /* Calculating Y4(0) from Y2(0) using Y4(0) = Y2(0)/2 */
 338:Source\TransformFunctions/arm_dct4_q15.c ****   in = *pS1++ >> 1u;
 190              		.loc 1 338 0
 191 010e BB6A     		ldr	r3, [r7, #40]
 192 0110 9A1C     		add	r2, r3, #2
 193 0112 BA62     		str	r2, [r7, #40]
 194 0114 1A88     		ldrh	r2, [r3]
 195 0116 1E23     		mov	r3, #30
 196 0118 FB18     		add	r3, r7, r3
 197 011a 12B2     		sxth	r2, r2
 198 011c 5210     		asr	r2, r2, #1
 199 011e 1A80     		strh	r2, [r3]
 339:Source\TransformFunctions/arm_dct4_q15.c ****   /* input buffer acts as inplace, so output values are stored in the input itself. */
 340:Source\TransformFunctions/arm_dct4_q15.c ****   *pbuff++ = in;
 200              		.loc 1 340 0
 201 0120 3B6A     		ldr	r3, [r7, #32]
 202 0122 9A1C     		add	r2, r3, #2
 203 0124 3A62     		str	r2, [r7, #32]
 204 0126 1E22     		mov	r2, #30
 205 0128 BA18     		add	r2, r7, r2
 206 012a 1288     		ldrh	r2, [r2]
 207 012c 1A80     		strh	r2, [r3]
 341:Source\TransformFunctions/arm_dct4_q15.c **** 
 342:Source\TransformFunctions/arm_dct4_q15.c ****   /* pState pointer is incremented twice as the real values are located alternatively in the array 
 343:Source\TransformFunctions/arm_dct4_q15.c ****   pS1++;
 208              		.loc 1 343 0
 209 012e BB6A     		ldr	r3, [r7, #40]
 210 0130 0233     		add	r3, r3, #2
 211 0132 BB62     		str	r3, [r7, #40]
 212              	.L4:
 344:Source\TransformFunctions/arm_dct4_q15.c **** 
 345:Source\TransformFunctions/arm_dct4_q15.c ****   do
 346:Source\TransformFunctions/arm_dct4_q15.c ****   {
 347:Source\TransformFunctions/arm_dct4_q15.c ****     /* Calculating Y4(1) to Y4(N-1) from Y2 using equation Y4(k) = Y2(k) - Y4(k-1) */
 348:Source\TransformFunctions/arm_dct4_q15.c ****     /* pState pointer (pS1) is incremented twice as the real values are located alternatively in th
 349:Source\TransformFunctions/arm_dct4_q15.c ****     in = *pS1++ - in;
 213              		.loc 1 349 0 discriminator 1
 214 0134 BB6A     		ldr	r3, [r7, #40]
 215 0136 9A1C     		add	r2, r3, #2
 216 0138 BA62     		str	r2, [r7, #40]
 217 013a 1B88     		ldrh	r3, [r3]
 218 013c 9AB2     		uxth	r2, r3
 219 013e 1E23     		mov	r3, #30
 220 0140 FB18     		add	r3, r7, r3
 221 0142 1B88     		ldrh	r3, [r3]
ARM GAS  C:\Users\fneves\AppData\Local\Temp\ccKE0M5u.s 			page 11


 222 0144 D31A     		sub	r3, r2, r3
 223 0146 9AB2     		uxth	r2, r3
 224 0148 1E23     		mov	r3, #30
 225 014a FB18     		add	r3, r7, r3
 226 014c 1A80     		strh	r2, [r3]
 350:Source\TransformFunctions/arm_dct4_q15.c ****     *pbuff++ = in;
 227              		.loc 1 350 0 discriminator 1
 228 014e 3B6A     		ldr	r3, [r7, #32]
 229 0150 9A1C     		add	r2, r3, #2
 230 0152 3A62     		str	r2, [r7, #32]
 231 0154 1E22     		mov	r2, #30
 232 0156 BA18     		add	r2, r7, r2
 233 0158 1288     		ldrh	r2, [r2]
 234 015a 1A80     		strh	r2, [r3]
 351:Source\TransformFunctions/arm_dct4_q15.c ****     /* points to the next real value */
 352:Source\TransformFunctions/arm_dct4_q15.c ****     pS1++;
 235              		.loc 1 352 0 discriminator 1
 236 015c BB6A     		ldr	r3, [r7, #40]
 237 015e 0233     		add	r3, r3, #2
 238 0160 BB62     		str	r3, [r7, #40]
 353:Source\TransformFunctions/arm_dct4_q15.c **** 
 354:Source\TransformFunctions/arm_dct4_q15.c ****     /* Decrement the loop counter */
 355:Source\TransformFunctions/arm_dct4_q15.c ****     i--;
 239              		.loc 1 355 0 discriminator 1
 240 0162 FB6A     		ldr	r3, [r7, #44]
 241 0164 013B     		sub	r3, r3, #1
 242 0166 FB62     		str	r3, [r7, #44]
 356:Source\TransformFunctions/arm_dct4_q15.c ****   } while (i > 0u);
 243              		.loc 1 356 0 discriminator 1
 244 0168 FB6A     		ldr	r3, [r7, #44]
 245 016a 002B     		cmp	r3, #0
 246 016c E2D1     		bne	.L4
 357:Source\TransformFunctions/arm_dct4_q15.c **** 
 358:Source\TransformFunctions/arm_dct4_q15.c ****    /*------------ Normalizing the output by multiplying with the normalizing factor ----------*/
 359:Source\TransformFunctions/arm_dct4_q15.c **** 
 360:Source\TransformFunctions/arm_dct4_q15.c ****   /* Initializing the loop counter */
 361:Source\TransformFunctions/arm_dct4_q15.c ****   i = (uint32_t) S->N;
 247              		.loc 1 361 0
 248 016e FB68     		ldr	r3, [r7, #12]
 249 0170 1B88     		ldrh	r3, [r3]
 250 0172 FB62     		str	r3, [r7, #44]
 362:Source\TransformFunctions/arm_dct4_q15.c **** 
 363:Source\TransformFunctions/arm_dct4_q15.c ****   /* pbuff initialized to the pInlineBuffer(now contains the output values) */
 364:Source\TransformFunctions/arm_dct4_q15.c ****   pbuff = pInlineBuffer;
 251              		.loc 1 364 0
 252 0174 7B68     		ldr	r3, [r7, #4]
 253 0176 3B62     		str	r3, [r7, #32]
 254              	.L5:
 365:Source\TransformFunctions/arm_dct4_q15.c **** 
 366:Source\TransformFunctions/arm_dct4_q15.c ****   do
 367:Source\TransformFunctions/arm_dct4_q15.c ****   {
 368:Source\TransformFunctions/arm_dct4_q15.c ****     /* Multiplying pInlineBuffer with the normalizing factor sqrt(2/N) */
 369:Source\TransformFunctions/arm_dct4_q15.c ****     in = *pbuff;
 255              		.loc 1 369 0 discriminator 1
 256 0178 1E23     		mov	r3, #30
 257 017a FB18     		add	r3, r7, r3
 258 017c 3A6A     		ldr	r2, [r7, #32]
ARM GAS  C:\Users\fneves\AppData\Local\Temp\ccKE0M5u.s 			page 12


 259 017e 1288     		ldrh	r2, [r2]
 260 0180 1A80     		strh	r2, [r3]
 370:Source\TransformFunctions/arm_dct4_q15.c ****     *pbuff++ = ((q15_t) (((q31_t) in * S->normalize) >> 15));
 261              		.loc 1 370 0 discriminator 1
 262 0182 3B6A     		ldr	r3, [r7, #32]
 263 0184 9A1C     		add	r2, r3, #2
 264 0186 3A62     		str	r2, [r7, #32]
 265 0188 1E22     		mov	r2, #30
 266 018a BA18     		add	r2, r7, r2
 267 018c 0021     		mov	r1, #0
 268 018e 525E     		ldrsh	r2, [r2, r1]
 269 0190 F968     		ldr	r1, [r7, #12]
 270 0192 8988     		ldrh	r1, [r1, #4]
 271 0194 09B2     		sxth	r1, r1
 272 0196 4A43     		mul	r2, r1
 273 0198 D213     		asr	r2, r2, #15
 274 019a 92B2     		uxth	r2, r2
 275 019c 1A80     		strh	r2, [r3]
 371:Source\TransformFunctions/arm_dct4_q15.c **** 
 372:Source\TransformFunctions/arm_dct4_q15.c ****     /* Decrement the loop counter */
 373:Source\TransformFunctions/arm_dct4_q15.c ****     i--;
 276              		.loc 1 373 0 discriminator 1
 277 019e FB6A     		ldr	r3, [r7, #44]
 278 01a0 013B     		sub	r3, r3, #1
 279 01a2 FB62     		str	r3, [r7, #44]
 374:Source\TransformFunctions/arm_dct4_q15.c ****   } while (i > 0u);
 280              		.loc 1 374 0 discriminator 1
 281 01a4 FB6A     		ldr	r3, [r7, #44]
 282 01a6 002B     		cmp	r3, #0
 283 01a8 E6D1     		bne	.L5
 375:Source\TransformFunctions/arm_dct4_q15.c **** 
 376:Source\TransformFunctions/arm_dct4_q15.c **** #endif /* #if defined (ARM_MATH_DSP) */
 377:Source\TransformFunctions/arm_dct4_q15.c **** 
 378:Source\TransformFunctions/arm_dct4_q15.c **** }
 284              		.loc 1 378 0
 285 01aa BD46     		mov	sp, r7
 286 01ac 0DB0     		add	sp, sp, #52
 287              		@ sp needed
 288 01ae 90BD     		pop	{r4, r7, pc}
 289              	.L7:
 290              		.align	2
 291              	.L6:
 292 01b0 FFFFFF7F 		.word	2147483647
 293              		.cfi_endproc
 294              	.LFE82:
 295              		.size	arm_dct4_q15, .-arm_dct4_q15
 296              		.text
 297              	.Letext0:
 298              		.file 2 "c:\\program files (x86)\\cypress\\psoc creator\\4.0\\psoc creator\\import\\gnu\\arm\\4.9.
 299              		.file 3 "c:\\program files (x86)\\cypress\\psoc creator\\4.0\\psoc creator\\import\\gnu\\arm\\4.9.
 300              		.file 4 ".\\Include/arm_math.h"