ARM GAS  C:\Users\fneves\AppData\Local\Temp\ccE35dyd.s 			page 1


   1              		.cpu cortex-m0plus
   2              		.fpu softvfp
   3              		.eabi_attribute 20, 1
   4              		.eabi_attribute 21, 1
   5              		.eabi_attribute 23, 3
   6              		.eabi_attribute 24, 1
   7              		.eabi_attribute 25, 1
   8              		.eabi_attribute 26, 1
   9              		.eabi_attribute 30, 6
  10              		.eabi_attribute 34, 0
  11              		.eabi_attribute 18, 4
  12              		.code	16
  13              		.file	"arm_correlate_fast_q31.c"
  14              		.text
  15              	.Ltext0:
  16              		.cfi_sections	.debug_frame
  17              		.global	__aeabi_lmul
  18              		.section	.text.arm_correlate_fast_q31,"ax",%progbits
  19              		.align	2
  20              		.global	arm_correlate_fast_q31
  21              		.code	16
  22              		.thumb_func
  23              		.type	arm_correlate_fast_q31, %function
  24              	arm_correlate_fast_q31:
  25              	.LFB82:
  26              		.file 1 "Source\\FilteringFunctions\\arm_correlate_fast_q31.c"
   1:Source\FilteringFunctions/arm_correlate_fast_q31.c **** /* ----------------------------------------------------------------------
   2:Source\FilteringFunctions/arm_correlate_fast_q31.c ****  * Project:      CMSIS DSP Library
   3:Source\FilteringFunctions/arm_correlate_fast_q31.c ****  * Title:        arm_correlate_fast_q31.c
   4:Source\FilteringFunctions/arm_correlate_fast_q31.c ****  * Description:  Fast Q31 Correlation
   5:Source\FilteringFunctions/arm_correlate_fast_q31.c ****  *
   6:Source\FilteringFunctions/arm_correlate_fast_q31.c ****  * $Date:        27. January 2017
   7:Source\FilteringFunctions/arm_correlate_fast_q31.c ****  * $Revision:    V.1.5.1
   8:Source\FilteringFunctions/arm_correlate_fast_q31.c ****  *
   9:Source\FilteringFunctions/arm_correlate_fast_q31.c ****  * Target Processor: Cortex-M cores
  10:Source\FilteringFunctions/arm_correlate_fast_q31.c ****  * -------------------------------------------------------------------- */
  11:Source\FilteringFunctions/arm_correlate_fast_q31.c **** /*
  12:Source\FilteringFunctions/arm_correlate_fast_q31.c ****  * Copyright (C) 2010-2017 ARM Limited or its affiliates. All rights reserved.
  13:Source\FilteringFunctions/arm_correlate_fast_q31.c ****  *
  14:Source\FilteringFunctions/arm_correlate_fast_q31.c ****  * SPDX-License-Identifier: Apache-2.0
  15:Source\FilteringFunctions/arm_correlate_fast_q31.c ****  *
  16:Source\FilteringFunctions/arm_correlate_fast_q31.c ****  * Licensed under the Apache License, Version 2.0 (the License); you may
  17:Source\FilteringFunctions/arm_correlate_fast_q31.c ****  * not use this file except in compliance with the License.
  18:Source\FilteringFunctions/arm_correlate_fast_q31.c ****  * You may obtain a copy of the License at
  19:Source\FilteringFunctions/arm_correlate_fast_q31.c ****  *
  20:Source\FilteringFunctions/arm_correlate_fast_q31.c ****  * www.apache.org/licenses/LICENSE-2.0
  21:Source\FilteringFunctions/arm_correlate_fast_q31.c ****  *
  22:Source\FilteringFunctions/arm_correlate_fast_q31.c ****  * Unless required by applicable law or agreed to in writing, software
  23:Source\FilteringFunctions/arm_correlate_fast_q31.c ****  * distributed under the License is distributed on an AS IS BASIS, WITHOUT
  24:Source\FilteringFunctions/arm_correlate_fast_q31.c ****  * WARRANTIES OR CONDITIONS OF ANY KIND, either express or implied.
  25:Source\FilteringFunctions/arm_correlate_fast_q31.c ****  * See the License for the specific language governing permissions and
  26:Source\FilteringFunctions/arm_correlate_fast_q31.c ****  * limitations under the License.
  27:Source\FilteringFunctions/arm_correlate_fast_q31.c ****  */
  28:Source\FilteringFunctions/arm_correlate_fast_q31.c **** 
  29:Source\FilteringFunctions/arm_correlate_fast_q31.c **** #include "arm_math.h"
  30:Source\FilteringFunctions/arm_correlate_fast_q31.c **** 
  31:Source\FilteringFunctions/arm_correlate_fast_q31.c **** /**
ARM GAS  C:\Users\fneves\AppData\Local\Temp\ccE35dyd.s 			page 2


  32:Source\FilteringFunctions/arm_correlate_fast_q31.c ****  * @ingroup groupFilters
  33:Source\FilteringFunctions/arm_correlate_fast_q31.c ****  */
  34:Source\FilteringFunctions/arm_correlate_fast_q31.c **** 
  35:Source\FilteringFunctions/arm_correlate_fast_q31.c **** /**
  36:Source\FilteringFunctions/arm_correlate_fast_q31.c ****  * @addtogroup Corr
  37:Source\FilteringFunctions/arm_correlate_fast_q31.c ****  * @{
  38:Source\FilteringFunctions/arm_correlate_fast_q31.c ****  */
  39:Source\FilteringFunctions/arm_correlate_fast_q31.c **** 
  40:Source\FilteringFunctions/arm_correlate_fast_q31.c **** /**
  41:Source\FilteringFunctions/arm_correlate_fast_q31.c ****  * @brief Correlation of Q31 sequences (fast version) for Cortex-M3 and Cortex-M4.
  42:Source\FilteringFunctions/arm_correlate_fast_q31.c ****  * @param[in] *pSrcA points to the first input sequence.
  43:Source\FilteringFunctions/arm_correlate_fast_q31.c ****  * @param[in] srcALen length of the first input sequence.
  44:Source\FilteringFunctions/arm_correlate_fast_q31.c ****  * @param[in] *pSrcB points to the second input sequence.
  45:Source\FilteringFunctions/arm_correlate_fast_q31.c ****  * @param[in] srcBLen length of the second input sequence.
  46:Source\FilteringFunctions/arm_correlate_fast_q31.c ****  * @param[out] *pDst points to the location where the output result is written.  Length 2 * max(src
  47:Source\FilteringFunctions/arm_correlate_fast_q31.c ****  * @return none.
  48:Source\FilteringFunctions/arm_correlate_fast_q31.c ****  *
  49:Source\FilteringFunctions/arm_correlate_fast_q31.c ****  * @details
  50:Source\FilteringFunctions/arm_correlate_fast_q31.c ****  * <b>Scaling and Overflow Behavior:</b>
  51:Source\FilteringFunctions/arm_correlate_fast_q31.c ****  *
  52:Source\FilteringFunctions/arm_correlate_fast_q31.c ****  * \par
  53:Source\FilteringFunctions/arm_correlate_fast_q31.c ****  * This function is optimized for speed at the expense of fixed-point precision and overflow protec
  54:Source\FilteringFunctions/arm_correlate_fast_q31.c ****  * The result of each 1.31 x 1.31 multiplication is truncated to 2.30 format.
  55:Source\FilteringFunctions/arm_correlate_fast_q31.c ****  * These intermediate results are accumulated in a 32-bit register in 2.30 format.
  56:Source\FilteringFunctions/arm_correlate_fast_q31.c ****  * Finally, the accumulator is saturated and converted to a 1.31 result.
  57:Source\FilteringFunctions/arm_correlate_fast_q31.c ****  *
  58:Source\FilteringFunctions/arm_correlate_fast_q31.c ****  * \par
  59:Source\FilteringFunctions/arm_correlate_fast_q31.c ****  * The fast version has the same overflow behavior as the standard version but provides less precis
  60:Source\FilteringFunctions/arm_correlate_fast_q31.c ****  * In order to avoid overflows completely the input signals must be scaled down.
  61:Source\FilteringFunctions/arm_correlate_fast_q31.c ****  * The input signals should be scaled down to avoid intermediate overflows.
  62:Source\FilteringFunctions/arm_correlate_fast_q31.c ****  * Scale down one of the inputs by 1/min(srcALen, srcBLen)to avoid overflows since a
  63:Source\FilteringFunctions/arm_correlate_fast_q31.c ****  * maximum of min(srcALen, srcBLen) number of additions is carried internally.
  64:Source\FilteringFunctions/arm_correlate_fast_q31.c ****  *
  65:Source\FilteringFunctions/arm_correlate_fast_q31.c ****  * \par
  66:Source\FilteringFunctions/arm_correlate_fast_q31.c ****  * See <code>arm_correlate_q31()</code> for a slower implementation of this function which uses 64-
  67:Source\FilteringFunctions/arm_correlate_fast_q31.c ****  */
  68:Source\FilteringFunctions/arm_correlate_fast_q31.c **** 
  69:Source\FilteringFunctions/arm_correlate_fast_q31.c **** void arm_correlate_fast_q31(
  70:Source\FilteringFunctions/arm_correlate_fast_q31.c ****   q31_t * pSrcA,
  71:Source\FilteringFunctions/arm_correlate_fast_q31.c ****   uint32_t srcALen,
  72:Source\FilteringFunctions/arm_correlate_fast_q31.c ****   q31_t * pSrcB,
  73:Source\FilteringFunctions/arm_correlate_fast_q31.c ****   uint32_t srcBLen,
  74:Source\FilteringFunctions/arm_correlate_fast_q31.c ****   q31_t * pDst)
  75:Source\FilteringFunctions/arm_correlate_fast_q31.c **** {
  27              		.loc 1 75 0
  28              		.cfi_startproc
  29 0000 F0B5     		push	{r4, r5, r6, r7, lr}
  30              		.cfi_def_cfa_offset 20
  31              		.cfi_offset 4, -20
  32              		.cfi_offset 5, -16
  33              		.cfi_offset 6, -12
  34              		.cfi_offset 7, -8
  35              		.cfi_offset 14, -4
  36 0002 7A4C     		ldr	r4, .L33
  37 0004 A544     		add	sp, sp, r4
  38              		.cfi_def_cfa_offset 1576
  39 0006 00AF     		add	r7, sp, #0
ARM GAS  C:\Users\fneves\AppData\Local\Temp\ccE35dyd.s 			page 3


  40              		.cfi_def_cfa_register 7
  41 0008 794C     		ldr	r4, .L33+4
  42 000a 3C19     		add	r4, r7, r4
  43 000c 2060     		str	r0, [r4]
  44 000e B420     		mov	r0, #180
  45 0010 C000     		lsl	r0, r0, #3
  46 0012 3818     		add	r0, r7, r0
  47 0014 0160     		str	r1, [r0]
  48 0016 7749     		ldr	r1, .L33+8
  49 0018 7918     		add	r1, r7, r1
  50 001a 0A60     		str	r2, [r1]
  51 001c B322     		mov	r2, #179
  52 001e D200     		lsl	r2, r2, #3
  53 0020 BA18     		add	r2, r7, r2
  54 0022 1360     		str	r3, [r2]
  76:Source\FilteringFunctions/arm_correlate_fast_q31.c ****   q31_t *pIn1;                                   /* inputA pointer               */
  77:Source\FilteringFunctions/arm_correlate_fast_q31.c ****   q31_t *pIn2;                                   /* inputB pointer               */
  78:Source\FilteringFunctions/arm_correlate_fast_q31.c ****   q31_t *pOut = pDst;                            /* output pointer               */
  55              		.loc 1 78 0
  56 0024 9023     		mov	r3, #144
  57 0026 B322     		mov	r2, #179
  58 0028 D200     		lsl	r2, r2, #3
  59 002a 9446     		mov	ip, r2
  60 002c BC44     		add	ip, ip, r7
  61 002e 6344     		add	r3, r3, ip
  62 0030 1B68     		ldr	r3, [r3]
  63 0032 714A     		ldr	r2, .L33+12
  64 0034 BA18     		add	r2, r7, r2
  65 0036 1360     		str	r3, [r2]
  79:Source\FilteringFunctions/arm_correlate_fast_q31.c ****   q31_t *px;                                     /* Intermediate inputA pointer  */
  80:Source\FilteringFunctions/arm_correlate_fast_q31.c ****   q31_t *py;                                     /* Intermediate inputB pointer  */
  81:Source\FilteringFunctions/arm_correlate_fast_q31.c ****   q31_t *pSrc1;                                  /* Intermediate pointers        */
  82:Source\FilteringFunctions/arm_correlate_fast_q31.c ****   q31_t sum, acc0, acc1, acc2, acc3;             /* Accumulators                  */
  83:Source\FilteringFunctions/arm_correlate_fast_q31.c ****   q31_t x0, x1, x2, x3, c0;                      /* temporary variables for holding input and coeff
  84:Source\FilteringFunctions/arm_correlate_fast_q31.c ****   uint32_t j, k = 0u, count, blkCnt, outBlockSize, blockSize1, blockSize2, blockSize3;  /* loop cou
  66              		.loc 1 84 0
  67 0038 0023     		mov	r3, #0
  68 003a 704A     		ldr	r2, .L33+16
  69 003c BA18     		add	r2, r7, r2
  70 003e 1360     		str	r3, [r2]
  85:Source\FilteringFunctions/arm_correlate_fast_q31.c ****   int32_t inc = 1;                               /* Destination address modifier */
  71              		.loc 1 85 0
  72 0040 0123     		mov	r3, #1
  73 0042 B822     		mov	r2, #184
  74 0044 D200     		lsl	r2, r2, #3
  75 0046 BA18     		add	r2, r7, r2
  76 0048 1360     		str	r3, [r2]
  86:Source\FilteringFunctions/arm_correlate_fast_q31.c **** 
  87:Source\FilteringFunctions/arm_correlate_fast_q31.c **** 
  88:Source\FilteringFunctions/arm_correlate_fast_q31.c ****   /* The algorithm implementation is based on the lengths of the inputs. */
  89:Source\FilteringFunctions/arm_correlate_fast_q31.c ****   /* srcB is always made to slide across srcA. */
  90:Source\FilteringFunctions/arm_correlate_fast_q31.c ****   /* So srcBLen is always considered as shorter or equal to srcALen */
  91:Source\FilteringFunctions/arm_correlate_fast_q31.c ****   if (srcALen >= srcBLen)
  77              		.loc 1 91 0
  78 004a B423     		mov	r3, #180
  79 004c DB00     		lsl	r3, r3, #3
  80 004e FB18     		add	r3, r7, r3
ARM GAS  C:\Users\fneves\AppData\Local\Temp\ccE35dyd.s 			page 4


  81 0050 1A68     		ldr	r2, [r3]
  82 0052 B323     		mov	r3, #179
  83 0054 DB00     		lsl	r3, r3, #3
  84 0056 FB18     		add	r3, r7, r3
  85 0058 1B68     		ldr	r3, [r3]
  86 005a 9A42     		cmp	r2, r3
  87 005c 34D3     		bcc	.L2
  92:Source\FilteringFunctions/arm_correlate_fast_q31.c ****   {
  93:Source\FilteringFunctions/arm_correlate_fast_q31.c ****     /* Initialization of inputA pointer */
  94:Source\FilteringFunctions/arm_correlate_fast_q31.c ****     pIn1 = (pSrcA);
  88              		.loc 1 94 0
  89 005e 644B     		ldr	r3, .L33+4
  90 0060 FB18     		add	r3, r7, r3
  91 0062 1B68     		ldr	r3, [r3]
  92 0064 664A     		ldr	r2, .L33+20
  93 0066 BA18     		add	r2, r7, r2
  94 0068 1360     		str	r3, [r2]
  95:Source\FilteringFunctions/arm_correlate_fast_q31.c **** 
  96:Source\FilteringFunctions/arm_correlate_fast_q31.c ****     /* Initialization of inputB pointer */
  97:Source\FilteringFunctions/arm_correlate_fast_q31.c ****     pIn2 = (pSrcB);
  95              		.loc 1 97 0
  96 006a 624B     		ldr	r3, .L33+8
  97 006c FB18     		add	r3, r7, r3
  98 006e 1B68     		ldr	r3, [r3]
  99 0070 C122     		mov	r2, #193
 100 0072 D200     		lsl	r2, r2, #3
 101 0074 BA18     		add	r2, r7, r2
 102 0076 1360     		str	r3, [r2]
  98:Source\FilteringFunctions/arm_correlate_fast_q31.c **** 
  99:Source\FilteringFunctions/arm_correlate_fast_q31.c ****     /* Number of output samples is calculated */
 100:Source\FilteringFunctions/arm_correlate_fast_q31.c ****     outBlockSize = (2u * srcALen) - 1u;
 103              		.loc 1 100 0
 104 0078 B423     		mov	r3, #180
 105 007a DB00     		lsl	r3, r3, #3
 106 007c FB18     		add	r3, r7, r3
 107 007e 1B68     		ldr	r3, [r3]
 108 0080 5B00     		lsl	r3, r3, #1
 109 0082 013B     		sub	r3, r3, #1
 110 0084 5F4A     		ldr	r2, .L33+24
 111 0086 BA18     		add	r2, r7, r2
 112 0088 1360     		str	r3, [r2]
 101:Source\FilteringFunctions/arm_correlate_fast_q31.c **** 
 102:Source\FilteringFunctions/arm_correlate_fast_q31.c ****     /* When srcALen > srcBLen, zero padding is done to srcB
 103:Source\FilteringFunctions/arm_correlate_fast_q31.c ****      * to make their lengths equal.
 104:Source\FilteringFunctions/arm_correlate_fast_q31.c ****      * Instead, (outBlockSize - (srcALen + srcBLen - 1))
 105:Source\FilteringFunctions/arm_correlate_fast_q31.c ****      * number of output samples are made zero */
 106:Source\FilteringFunctions/arm_correlate_fast_q31.c ****     j = outBlockSize - (srcALen + (srcBLen - 1u));
 113              		.loc 1 106 0
 114 008a B323     		mov	r3, #179
 115 008c DB00     		lsl	r3, r3, #3
 116 008e FB18     		add	r3, r7, r3
 117 0090 1A68     		ldr	r2, [r3]
 118 0092 B423     		mov	r3, #180
 119 0094 DB00     		lsl	r3, r3, #3
 120 0096 FB18     		add	r3, r7, r3
 121 0098 1B68     		ldr	r3, [r3]
 122 009a D218     		add	r2, r2, r3
ARM GAS  C:\Users\fneves\AppData\Local\Temp\ccE35dyd.s 			page 5


 123 009c 594B     		ldr	r3, .L33+24
 124 009e FB18     		add	r3, r7, r3
 125 00a0 1B68     		ldr	r3, [r3]
 126 00a2 9B1A     		sub	r3, r3, r2
 127 00a4 0133     		add	r3, r3, #1
 128 00a6 B722     		mov	r2, #183
 129 00a8 D200     		lsl	r2, r2, #3
 130 00aa BA18     		add	r2, r7, r2
 131 00ac 1360     		str	r3, [r2]
 107:Source\FilteringFunctions/arm_correlate_fast_q31.c **** 
 108:Source\FilteringFunctions/arm_correlate_fast_q31.c ****     /* Updating the pointer position to non zero value */
 109:Source\FilteringFunctions/arm_correlate_fast_q31.c ****     pOut += j;
 132              		.loc 1 109 0
 133 00ae B723     		mov	r3, #183
 134 00b0 DB00     		lsl	r3, r3, #3
 135 00b2 FB18     		add	r3, r7, r3
 136 00b4 1B68     		ldr	r3, [r3]
 137 00b6 9A00     		lsl	r2, r3, #2
 138 00b8 4F4B     		ldr	r3, .L33+12
 139 00ba FB18     		add	r3, r7, r3
 140 00bc 1B68     		ldr	r3, [r3]
 141 00be 9B18     		add	r3, r3, r2
 142 00c0 4D4A     		ldr	r2, .L33+12
 143 00c2 BA18     		add	r2, r7, r2
 144 00c4 1360     		str	r3, [r2]
 145 00c6 42E0     		b	.L3
 146              	.L2:
 110:Source\FilteringFunctions/arm_correlate_fast_q31.c **** 
 111:Source\FilteringFunctions/arm_correlate_fast_q31.c ****   }
 112:Source\FilteringFunctions/arm_correlate_fast_q31.c ****   else
 113:Source\FilteringFunctions/arm_correlate_fast_q31.c ****   {
 114:Source\FilteringFunctions/arm_correlate_fast_q31.c ****     /* Initialization of inputA pointer */
 115:Source\FilteringFunctions/arm_correlate_fast_q31.c ****     pIn1 = (pSrcB);
 147              		.loc 1 115 0
 148 00c8 4A4B     		ldr	r3, .L33+8
 149 00ca FB18     		add	r3, r7, r3
 150 00cc 1B68     		ldr	r3, [r3]
 151 00ce 4C4A     		ldr	r2, .L33+20
 152 00d0 BA18     		add	r2, r7, r2
 153 00d2 1360     		str	r3, [r2]
 116:Source\FilteringFunctions/arm_correlate_fast_q31.c **** 
 117:Source\FilteringFunctions/arm_correlate_fast_q31.c ****     /* Initialization of inputB pointer */
 118:Source\FilteringFunctions/arm_correlate_fast_q31.c ****     pIn2 = (pSrcA);
 154              		.loc 1 118 0
 155 00d4 464B     		ldr	r3, .L33+4
 156 00d6 FB18     		add	r3, r7, r3
 157 00d8 1B68     		ldr	r3, [r3]
 158 00da C122     		mov	r2, #193
 159 00dc D200     		lsl	r2, r2, #3
 160 00de BA18     		add	r2, r7, r2
 161 00e0 1360     		str	r3, [r2]
 119:Source\FilteringFunctions/arm_correlate_fast_q31.c **** 
 120:Source\FilteringFunctions/arm_correlate_fast_q31.c ****     /* srcBLen is always considered as shorter or equal to srcALen */
 121:Source\FilteringFunctions/arm_correlate_fast_q31.c ****     j = srcBLen;
 162              		.loc 1 121 0
 163 00e2 B323     		mov	r3, #179
 164 00e4 DB00     		lsl	r3, r3, #3
ARM GAS  C:\Users\fneves\AppData\Local\Temp\ccE35dyd.s 			page 6


 165 00e6 FB18     		add	r3, r7, r3
 166 00e8 1B68     		ldr	r3, [r3]
 167 00ea B722     		mov	r2, #183
 168 00ec D200     		lsl	r2, r2, #3
 169 00ee BA18     		add	r2, r7, r2
 170 00f0 1360     		str	r3, [r2]
 122:Source\FilteringFunctions/arm_correlate_fast_q31.c ****     srcBLen = srcALen;
 171              		.loc 1 122 0
 172 00f2 B423     		mov	r3, #180
 173 00f4 DB00     		lsl	r3, r3, #3
 174 00f6 FB18     		add	r3, r7, r3
 175 00f8 1B68     		ldr	r3, [r3]
 176 00fa B322     		mov	r2, #179
 177 00fc D200     		lsl	r2, r2, #3
 178 00fe BA18     		add	r2, r7, r2
 179 0100 1360     		str	r3, [r2]
 123:Source\FilteringFunctions/arm_correlate_fast_q31.c ****     srcALen = j;
 180              		.loc 1 123 0
 181 0102 B723     		mov	r3, #183
 182 0104 DB00     		lsl	r3, r3, #3
 183 0106 FB18     		add	r3, r7, r3
 184 0108 1B68     		ldr	r3, [r3]
 185 010a B422     		mov	r2, #180
 186 010c D200     		lsl	r2, r2, #3
 187 010e BA18     		add	r2, r7, r2
 188 0110 1360     		str	r3, [r2]
 124:Source\FilteringFunctions/arm_correlate_fast_q31.c **** 
 125:Source\FilteringFunctions/arm_correlate_fast_q31.c ****     /* CORR(x, y) = Reverse order(CORR(y, x)) */
 126:Source\FilteringFunctions/arm_correlate_fast_q31.c ****     /* Hence set the destination pointer to point to the last output sample */
 127:Source\FilteringFunctions/arm_correlate_fast_q31.c ****     pOut = pDst + ((srcALen + srcBLen) - 2u);
 189              		.loc 1 127 0
 190 0112 B423     		mov	r3, #180
 191 0114 DB00     		lsl	r3, r3, #3
 192 0116 FB18     		add	r3, r7, r3
 193 0118 1A68     		ldr	r2, [r3]
 194 011a B323     		mov	r3, #179
 195 011c DB00     		lsl	r3, r3, #3
 196 011e FB18     		add	r3, r7, r3
 197 0120 1B68     		ldr	r3, [r3]
 198 0122 D318     		add	r3, r2, r3
 199 0124 384A     		ldr	r2, .L33+28
 200 0126 9446     		mov	ip, r2
 201 0128 6344     		add	r3, r3, ip
 202 012a 9A00     		lsl	r2, r3, #2
 203 012c 9023     		mov	r3, #144
 204 012e B321     		mov	r1, #179
 205 0130 C900     		lsl	r1, r1, #3
 206 0132 8C46     		mov	ip, r1
 207 0134 BC44     		add	ip, ip, r7
 208 0136 6344     		add	r3, r3, ip
 209 0138 1B68     		ldr	r3, [r3]
 210 013a 9B18     		add	r3, r3, r2
 211 013c 2E4A     		ldr	r2, .L33+12
 212 013e BA18     		add	r2, r7, r2
 213 0140 1360     		str	r3, [r2]
 128:Source\FilteringFunctions/arm_correlate_fast_q31.c **** 
 129:Source\FilteringFunctions/arm_correlate_fast_q31.c ****     /* Destination address modifier is set to -1 */
ARM GAS  C:\Users\fneves\AppData\Local\Temp\ccE35dyd.s 			page 7


 130:Source\FilteringFunctions/arm_correlate_fast_q31.c ****     inc = -1;
 214              		.loc 1 130 0
 215 0142 0123     		mov	r3, #1
 216 0144 5B42     		neg	r3, r3
 217 0146 B822     		mov	r2, #184
 218 0148 D200     		lsl	r2, r2, #3
 219 014a BA18     		add	r2, r7, r2
 220 014c 1360     		str	r3, [r2]
 221              	.L3:
 131:Source\FilteringFunctions/arm_correlate_fast_q31.c **** 
 132:Source\FilteringFunctions/arm_correlate_fast_q31.c ****   }
 133:Source\FilteringFunctions/arm_correlate_fast_q31.c **** 
 134:Source\FilteringFunctions/arm_correlate_fast_q31.c ****   /* The function is internally
 135:Source\FilteringFunctions/arm_correlate_fast_q31.c ****    * divided into three parts according to the number of multiplications that has to be
 136:Source\FilteringFunctions/arm_correlate_fast_q31.c ****    * taken place between inputA samples and inputB samples. In the first part of the
 137:Source\FilteringFunctions/arm_correlate_fast_q31.c ****    * algorithm, the multiplications increase by one for every iteration.
 138:Source\FilteringFunctions/arm_correlate_fast_q31.c ****    * In the second part of the algorithm, srcBLen number of multiplications are done.
 139:Source\FilteringFunctions/arm_correlate_fast_q31.c ****    * In the third part of the algorithm, the multiplications decrease by one
 140:Source\FilteringFunctions/arm_correlate_fast_q31.c ****    * for every iteration.*/
 141:Source\FilteringFunctions/arm_correlate_fast_q31.c ****   /* The algorithm is implemented in three stages.
 142:Source\FilteringFunctions/arm_correlate_fast_q31.c ****    * The loop counters of each stage is initiated here. */
 143:Source\FilteringFunctions/arm_correlate_fast_q31.c ****   blockSize1 = srcBLen - 1u;
 222              		.loc 1 143 0
 223 014e B323     		mov	r3, #179
 224 0150 DB00     		lsl	r3, r3, #3
 225 0152 FB18     		add	r3, r7, r3
 226 0154 1B68     		ldr	r3, [r3]
 227 0156 013B     		sub	r3, r3, #1
 228 0158 B922     		mov	r2, #185
 229 015a D200     		lsl	r2, r2, #3
 230 015c BA18     		add	r2, r7, r2
 231 015e 1360     		str	r3, [r2]
 144:Source\FilteringFunctions/arm_correlate_fast_q31.c ****   blockSize2 = srcALen - (srcBLen - 1u);
 232              		.loc 1 144 0
 233 0160 B423     		mov	r3, #180
 234 0162 DB00     		lsl	r3, r3, #3
 235 0164 FB18     		add	r3, r7, r3
 236 0166 1A68     		ldr	r2, [r3]
 237 0168 B323     		mov	r3, #179
 238 016a DB00     		lsl	r3, r3, #3
 239 016c FB18     		add	r3, r7, r3
 240 016e 1B68     		ldr	r3, [r3]
 241 0170 D31A     		sub	r3, r2, r3
 242 0172 0133     		add	r3, r3, #1
 243 0174 254A     		ldr	r2, .L33+32
 244 0176 BA18     		add	r2, r7, r2
 245 0178 1360     		str	r3, [r2]
 145:Source\FilteringFunctions/arm_correlate_fast_q31.c ****   blockSize3 = blockSize1;
 246              		.loc 1 145 0
 247 017a B923     		mov	r3, #185
 248 017c DB00     		lsl	r3, r3, #3
 249 017e FB18     		add	r3, r7, r3
 250 0180 1B68     		ldr	r3, [r3]
 251 0182 234A     		ldr	r2, .L33+36
 252 0184 BA18     		add	r2, r7, r2
 253 0186 1360     		str	r3, [r2]
 146:Source\FilteringFunctions/arm_correlate_fast_q31.c **** 
ARM GAS  C:\Users\fneves\AppData\Local\Temp\ccE35dyd.s 			page 8


 147:Source\FilteringFunctions/arm_correlate_fast_q31.c ****   /* --------------------------
 148:Source\FilteringFunctions/arm_correlate_fast_q31.c ****    * Initializations of stage1
 149:Source\FilteringFunctions/arm_correlate_fast_q31.c ****    * -------------------------*/
 150:Source\FilteringFunctions/arm_correlate_fast_q31.c **** 
 151:Source\FilteringFunctions/arm_correlate_fast_q31.c ****   /* sum = x[0] * y[srcBlen - 1]
 152:Source\FilteringFunctions/arm_correlate_fast_q31.c ****    * sum = x[0] * y[srcBlen - 2] + x[1] * y[srcBlen - 1]
 153:Source\FilteringFunctions/arm_correlate_fast_q31.c ****    * ....
 154:Source\FilteringFunctions/arm_correlate_fast_q31.c ****    * sum = x[0] * y[0] + x[1] * y[1] +...+ x[srcBLen - 1] * y[srcBLen - 1]
 155:Source\FilteringFunctions/arm_correlate_fast_q31.c ****    */
 156:Source\FilteringFunctions/arm_correlate_fast_q31.c **** 
 157:Source\FilteringFunctions/arm_correlate_fast_q31.c ****   /* In this stage the MAC operations are increased by 1 for every iteration.
 158:Source\FilteringFunctions/arm_correlate_fast_q31.c ****      The count variable holds the number of MAC operations performed */
 159:Source\FilteringFunctions/arm_correlate_fast_q31.c ****   count = 1u;
 254              		.loc 1 159 0
 255 0188 0123     		mov	r3, #1
 256 018a BA22     		mov	r2, #186
 257 018c D200     		lsl	r2, r2, #3
 258 018e BA18     		add	r2, r7, r2
 259 0190 1360     		str	r3, [r2]
 160:Source\FilteringFunctions/arm_correlate_fast_q31.c **** 
 161:Source\FilteringFunctions/arm_correlate_fast_q31.c ****   /* Working pointer of inputA */
 162:Source\FilteringFunctions/arm_correlate_fast_q31.c ****   px = pIn1;
 260              		.loc 1 162 0
 261 0192 1B4B     		ldr	r3, .L33+20
 262 0194 FB18     		add	r3, r7, r3
 263 0196 1B68     		ldr	r3, [r3]
 264 0198 C022     		mov	r2, #192
 265 019a D200     		lsl	r2, r2, #3
 266 019c BA18     		add	r2, r7, r2
 267 019e 1360     		str	r3, [r2]
 163:Source\FilteringFunctions/arm_correlate_fast_q31.c **** 
 164:Source\FilteringFunctions/arm_correlate_fast_q31.c ****   /* Working pointer of inputB */
 165:Source\FilteringFunctions/arm_correlate_fast_q31.c ****   pSrc1 = pIn2 + (srcBLen - 1u);
 268              		.loc 1 165 0
 269 01a0 B323     		mov	r3, #179
 270 01a2 DB00     		lsl	r3, r3, #3
 271 01a4 FB18     		add	r3, r7, r3
 272 01a6 1B68     		ldr	r3, [r3]
 273 01a8 1A4A     		ldr	r2, .L33+40
 274 01aa 9446     		mov	ip, r2
 275 01ac 6344     		add	r3, r3, ip
 276 01ae 9A00     		lsl	r2, r3, #2
 277 01b0 C123     		mov	r3, #193
 278 01b2 DB00     		lsl	r3, r3, #3
 279 01b4 FB18     		add	r3, r7, r3
 280 01b6 1B68     		ldr	r3, [r3]
 281 01b8 9B18     		add	r3, r3, r2
 282 01ba BF22     		mov	r2, #191
 283 01bc D200     		lsl	r2, r2, #3
 284 01be BA18     		add	r2, r7, r2
 285 01c0 1360     		str	r3, [r2]
 166:Source\FilteringFunctions/arm_correlate_fast_q31.c ****   py = pSrc1;
 286              		.loc 1 166 0
 287 01c2 BF23     		mov	r3, #191
 288 01c4 DB00     		lsl	r3, r3, #3
 289 01c6 FB18     		add	r3, r7, r3
 290 01c8 1B68     		ldr	r3, [r3]
ARM GAS  C:\Users\fneves\AppData\Local\Temp\ccE35dyd.s 			page 9


 291 01ca 134A     		ldr	r2, .L33+44
 292 01cc BA18     		add	r2, r7, r2
 293 01ce 1360     		str	r3, [r2]
 167:Source\FilteringFunctions/arm_correlate_fast_q31.c **** 
 168:Source\FilteringFunctions/arm_correlate_fast_q31.c ****   /* ------------------------
 169:Source\FilteringFunctions/arm_correlate_fast_q31.c ****    * Stage1 process
 170:Source\FilteringFunctions/arm_correlate_fast_q31.c ****    * ----------------------*/
 171:Source\FilteringFunctions/arm_correlate_fast_q31.c **** 
 172:Source\FilteringFunctions/arm_correlate_fast_q31.c ****   /* The first stage starts here */
 173:Source\FilteringFunctions/arm_correlate_fast_q31.c ****   while (blockSize1 > 0u)
 294              		.loc 1 173 0
 295 01d0 80E2     		b	.L4
 296              	.L9:
 174:Source\FilteringFunctions/arm_correlate_fast_q31.c ****   {
 175:Source\FilteringFunctions/arm_correlate_fast_q31.c ****     /* Accumulator is made zero for every iteration */
 176:Source\FilteringFunctions/arm_correlate_fast_q31.c ****     sum = 0;
 297              		.loc 1 176 0
 298 01d2 0023     		mov	r3, #0
 299 01d4 114A     		ldr	r2, .L33+48
 300 01d6 BA18     		add	r2, r7, r2
 301 01d8 1360     		str	r3, [r2]
 177:Source\FilteringFunctions/arm_correlate_fast_q31.c **** 
 178:Source\FilteringFunctions/arm_correlate_fast_q31.c ****     /* Apply loop unrolling and compute 4 MACs simultaneously. */
 179:Source\FilteringFunctions/arm_correlate_fast_q31.c ****     k = count >> 2;
 302              		.loc 1 179 0
 303 01da BA23     		mov	r3, #186
 304 01dc DB00     		lsl	r3, r3, #3
 305 01de FB18     		add	r3, r7, r3
 306 01e0 1B68     		ldr	r3, [r3]
 307 01e2 9B08     		lsr	r3, r3, #2
 308 01e4 054A     		ldr	r2, .L33+16
 309 01e6 BA18     		add	r2, r7, r2
 310 01e8 1360     		str	r3, [r2]
 180:Source\FilteringFunctions/arm_correlate_fast_q31.c **** 
 181:Source\FilteringFunctions/arm_correlate_fast_q31.c ****     /* First part of the processing with loop unrolling.  Compute 4 MACs at a time.
 182:Source\FilteringFunctions/arm_correlate_fast_q31.c ****      ** a second loop below computes MACs for the remaining 1 to 3 samples. */
 183:Source\FilteringFunctions/arm_correlate_fast_q31.c ****     while (k > 0u)
 311              		.loc 1 183 0
 312 01ea 91E1     		b	.L5
 313              	.L34:
 314              		.align	2
 315              	.L33:
 316 01ec ECF9FFFF 		.word	-1556
 317 01f0 A4050000 		.word	1444
 318 01f4 9C050000 		.word	1436
 319 01f8 04060000 		.word	1540
 320 01fc D4050000 		.word	1492
 321 0200 0C060000 		.word	1548
 322 0204 BC050000 		.word	1468
 323 0208 FEFFFF3F 		.word	1073741822
 324 020c B4050000 		.word	1460
 325 0210 C4050000 		.word	1476
 326 0214 FFFFFF3F 		.word	1073741823
 327 0218 FC050000 		.word	1532
 328 021c F4050000 		.word	1524
 329              	.L6:
 184:Source\FilteringFunctions/arm_correlate_fast_q31.c ****     {
ARM GAS  C:\Users\fneves\AppData\Local\Temp\ccE35dyd.s 			page 10


 185:Source\FilteringFunctions/arm_correlate_fast_q31.c ****       /* x[0] * y[srcBLen - 4] */
 186:Source\FilteringFunctions/arm_correlate_fast_q31.c ****       sum = (q31_t) ((((q63_t) sum << 32) +
 330              		.loc 1 186 0
 331 0220 C34B     		ldr	r3, .L35
 332 0222 FB18     		add	r3, r7, r3
 333 0224 1B68     		ldr	r3, [r3]
 334 0226 B222     		mov	r2, #178
 335 0228 D200     		lsl	r2, r2, #3
 336 022a BA18     		add	r2, r7, r2
 337 022c 1360     		str	r3, [r2]
 338 022e DB17     		asr	r3, r3, #31
 339 0230 C04A     		ldr	r2, .L35+4
 340 0232 BA18     		add	r2, r7, r2
 341 0234 1360     		str	r3, [r2]
 342 0236 B223     		mov	r3, #178
 343 0238 DB00     		lsl	r3, r3, #3
 344 023a FB18     		add	r3, r7, r3
 345 023c 1B68     		ldr	r3, [r3]
 346 023e 1B00     		lsl	r3, r3, #0
 347 0240 BD4A     		ldr	r2, .L35+8
 348 0242 BA18     		add	r2, r7, r2
 349 0244 1360     		str	r3, [r2]
 350 0246 0023     		mov	r3, #0
 351 0248 B122     		mov	r2, #177
 352 024a D200     		lsl	r2, r2, #3
 353 024c BA18     		add	r2, r7, r2
 354 024e 1360     		str	r3, [r2]
 187:Source\FilteringFunctions/arm_correlate_fast_q31.c ****                       ((q63_t) * px++ * (*py++))) >> 32);
 355              		.loc 1 187 0
 356 0250 C023     		mov	r3, #192
 357 0252 DB00     		lsl	r3, r3, #3
 358 0254 FB18     		add	r3, r7, r3
 359 0256 1A68     		ldr	r2, [r3]
 360 0258 131D     		add	r3, r2, #4
 361 025a C021     		mov	r1, #192
 362 025c C900     		lsl	r1, r1, #3
 363 025e 7918     		add	r1, r7, r1
 364 0260 0B60     		str	r3, [r1]
 365 0262 1368     		ldr	r3, [r2]
 366 0264 B022     		mov	r2, #176
 367 0266 D200     		lsl	r2, r2, #3
 368 0268 BA18     		add	r2, r7, r2
 369 026a 1360     		str	r3, [r2]
 370 026c DB17     		asr	r3, r3, #31
 371 026e B34A     		ldr	r2, .L35+12
 372 0270 BA18     		add	r2, r7, r2
 373 0272 1360     		str	r3, [r2]
 374 0274 B24B     		ldr	r3, .L35+16
 375 0276 FB18     		add	r3, r7, r3
 376 0278 1A68     		ldr	r2, [r3]
 377 027a 131D     		add	r3, r2, #4
 378 027c B049     		ldr	r1, .L35+16
 379 027e 7918     		add	r1, r7, r1
 380 0280 0B60     		str	r3, [r1]
 381 0282 1368     		ldr	r3, [r2]
 382 0284 AF22     		mov	r2, #175
 383 0286 D200     		lsl	r2, r2, #3
ARM GAS  C:\Users\fneves\AppData\Local\Temp\ccE35dyd.s 			page 11


 384 0288 BA18     		add	r2, r7, r2
 385 028a 1360     		str	r3, [r2]
 386 028c DB17     		asr	r3, r3, #31
 387 028e AD4A     		ldr	r2, .L35+20
 388 0290 BA18     		add	r2, r7, r2
 389 0292 1360     		str	r3, [r2]
 390 0294 B023     		mov	r3, #176
 391 0296 DB00     		lsl	r3, r3, #3
 392 0298 FB18     		add	r3, r7, r3
 393 029a 1868     		ldr	r0, [r3]
 394 029c 5968     		ldr	r1, [r3, #4]
 395 029e AF23     		mov	r3, #175
 396 02a0 DB00     		lsl	r3, r3, #3
 397 02a2 FB18     		add	r3, r7, r3
 398 02a4 1A68     		ldr	r2, [r3]
 399 02a6 5B68     		ldr	r3, [r3, #4]
 400 02a8 FFF7FEFF 		bl	__aeabi_lmul
 401 02ac 031C     		mov	r3, r0
 402 02ae 0C1C     		mov	r4, r1
 186:Source\FilteringFunctions/arm_correlate_fast_q31.c ****                       ((q63_t) * px++ * (*py++))) >> 32);
 403              		.loc 1 186 0
 404 02b0 B122     		mov	r2, #177
 405 02b2 D200     		lsl	r2, r2, #3
 406 02b4 BA18     		add	r2, r7, r2
 407 02b6 1168     		ldr	r1, [r2]
 408 02b8 5268     		ldr	r2, [r2, #4]
 409 02ba 5B18     		add	r3, r3, r1
 410 02bc 5441     		adc	r4, r4, r2
 411              		.loc 1 187 0
 412 02be 2200     		asr	r2, r4, #0
 413 02c0 AE21     		mov	r1, #174
 414 02c2 C900     		lsl	r1, r1, #3
 415 02c4 7918     		add	r1, r7, r1
 416 02c6 0A60     		str	r2, [r1]
 417 02c8 E317     		asr	r3, r4, #31
 418 02ca 9F4A     		ldr	r2, .L35+24
 419 02cc BA18     		add	r2, r7, r2
 420 02ce 1360     		str	r3, [r2]
 186:Source\FilteringFunctions/arm_correlate_fast_q31.c ****                       ((q63_t) * px++ * (*py++))) >> 32);
 421              		.loc 1 186 0
 422 02d0 AE23     		mov	r3, #174
 423 02d2 DB00     		lsl	r3, r3, #3
 424 02d4 FB18     		add	r3, r7, r3
 425 02d6 1B68     		ldr	r3, [r3]
 426 02d8 954A     		ldr	r2, .L35
 427 02da BA18     		add	r2, r7, r2
 428 02dc 1360     		str	r3, [r2]
 188:Source\FilteringFunctions/arm_correlate_fast_q31.c ****       /* x[1] * y[srcBLen - 3] */
 189:Source\FilteringFunctions/arm_correlate_fast_q31.c ****       sum = (q31_t) ((((q63_t) sum << 32) +
 429              		.loc 1 189 0
 430 02de 944B     		ldr	r3, .L35
 431 02e0 FB18     		add	r3, r7, r3
 432 02e2 1B68     		ldr	r3, [r3]
 433 02e4 AD22     		mov	r2, #173
 434 02e6 D200     		lsl	r2, r2, #3
 435 02e8 BA18     		add	r2, r7, r2
 436 02ea 1360     		str	r3, [r2]
ARM GAS  C:\Users\fneves\AppData\Local\Temp\ccE35dyd.s 			page 12


 437 02ec DB17     		asr	r3, r3, #31
 438 02ee 974A     		ldr	r2, .L35+28
 439 02f0 BA18     		add	r2, r7, r2
 440 02f2 1360     		str	r3, [r2]
 441 02f4 AD23     		mov	r3, #173
 442 02f6 DB00     		lsl	r3, r3, #3
 443 02f8 FB18     		add	r3, r7, r3
 444 02fa 1B68     		ldr	r3, [r3]
 445 02fc 1B00     		lsl	r3, r3, #0
 446 02fe 944A     		ldr	r2, .L35+32
 447 0300 BA18     		add	r2, r7, r2
 448 0302 1360     		str	r3, [r2]
 449 0304 0023     		mov	r3, #0
 450 0306 AC22     		mov	r2, #172
 451 0308 D200     		lsl	r2, r2, #3
 452 030a BA18     		add	r2, r7, r2
 453 030c 1360     		str	r3, [r2]
 190:Source\FilteringFunctions/arm_correlate_fast_q31.c ****                       ((q63_t) * px++ * (*py++))) >> 32);
 454              		.loc 1 190 0
 455 030e C023     		mov	r3, #192
 456 0310 DB00     		lsl	r3, r3, #3
 457 0312 FB18     		add	r3, r7, r3
 458 0314 1A68     		ldr	r2, [r3]
 459 0316 131D     		add	r3, r2, #4
 460 0318 C021     		mov	r1, #192
 461 031a C900     		lsl	r1, r1, #3
 462 031c 7918     		add	r1, r7, r1
 463 031e 0B60     		str	r3, [r1]
 464 0320 1368     		ldr	r3, [r2]
 465 0322 AB22     		mov	r2, #171
 466 0324 D200     		lsl	r2, r2, #3
 467 0326 BA18     		add	r2, r7, r2
 468 0328 1360     		str	r3, [r2]
 469 032a DB17     		asr	r3, r3, #31
 470 032c 894A     		ldr	r2, .L35+36
 471 032e BA18     		add	r2, r7, r2
 472 0330 1360     		str	r3, [r2]
 473 0332 834B     		ldr	r3, .L35+16
 474 0334 FB18     		add	r3, r7, r3
 475 0336 1A68     		ldr	r2, [r3]
 476 0338 131D     		add	r3, r2, #4
 477 033a 8149     		ldr	r1, .L35+16
 478 033c 7918     		add	r1, r7, r1
 479 033e 0B60     		str	r3, [r1]
 480 0340 1368     		ldr	r3, [r2]
 481 0342 AA22     		mov	r2, #170
 482 0344 D200     		lsl	r2, r2, #3
 483 0346 BA18     		add	r2, r7, r2
 484 0348 1360     		str	r3, [r2]
 485 034a DB17     		asr	r3, r3, #31
 486 034c 824A     		ldr	r2, .L35+40
 487 034e BA18     		add	r2, r7, r2
 488 0350 1360     		str	r3, [r2]
 489 0352 AB23     		mov	r3, #171
 490 0354 DB00     		lsl	r3, r3, #3
 491 0356 FB18     		add	r3, r7, r3
 492 0358 1868     		ldr	r0, [r3]
ARM GAS  C:\Users\fneves\AppData\Local\Temp\ccE35dyd.s 			page 13


 493 035a 5968     		ldr	r1, [r3, #4]
 494 035c AA23     		mov	r3, #170
 495 035e DB00     		lsl	r3, r3, #3
 496 0360 FB18     		add	r3, r7, r3
 497 0362 1A68     		ldr	r2, [r3]
 498 0364 5B68     		ldr	r3, [r3, #4]
 499 0366 FFF7FEFF 		bl	__aeabi_lmul
 500 036a 031C     		mov	r3, r0
 501 036c 0C1C     		mov	r4, r1
 189:Source\FilteringFunctions/arm_correlate_fast_q31.c ****                       ((q63_t) * px++ * (*py++))) >> 32);
 502              		.loc 1 189 0
 503 036e AC22     		mov	r2, #172
 504 0370 D200     		lsl	r2, r2, #3
 505 0372 BA18     		add	r2, r7, r2
 506 0374 1168     		ldr	r1, [r2]
 507 0376 5268     		ldr	r2, [r2, #4]
 508 0378 5B18     		add	r3, r3, r1
 509 037a 5441     		adc	r4, r4, r2
 510              		.loc 1 190 0
 511 037c 2200     		asr	r2, r4, #0
 512 037e A921     		mov	r1, #169
 513 0380 C900     		lsl	r1, r1, #3
 514 0382 7918     		add	r1, r7, r1
 515 0384 0A60     		str	r2, [r1]
 516 0386 E317     		asr	r3, r4, #31
 517 0388 744A     		ldr	r2, .L35+44
 518 038a BA18     		add	r2, r7, r2
 519 038c 1360     		str	r3, [r2]
 189:Source\FilteringFunctions/arm_correlate_fast_q31.c ****                       ((q63_t) * px++ * (*py++))) >> 32);
 520              		.loc 1 189 0
 521 038e A923     		mov	r3, #169
 522 0390 DB00     		lsl	r3, r3, #3
 523 0392 FB18     		add	r3, r7, r3
 524 0394 1B68     		ldr	r3, [r3]
 525 0396 664A     		ldr	r2, .L35
 526 0398 BA18     		add	r2, r7, r2
 527 039a 1360     		str	r3, [r2]
 191:Source\FilteringFunctions/arm_correlate_fast_q31.c ****       /* x[2] * y[srcBLen - 2] */
 192:Source\FilteringFunctions/arm_correlate_fast_q31.c ****       sum = (q31_t) ((((q63_t) sum << 32) +
 528              		.loc 1 192 0
 529 039c 644B     		ldr	r3, .L35
 530 039e FB18     		add	r3, r7, r3
 531 03a0 1B68     		ldr	r3, [r3]
 532 03a2 A822     		mov	r2, #168
 533 03a4 D200     		lsl	r2, r2, #3
 534 03a6 BA18     		add	r2, r7, r2
 535 03a8 1360     		str	r3, [r2]
 536 03aa DB17     		asr	r3, r3, #31
 537 03ac 6C4A     		ldr	r2, .L35+48
 538 03ae BA18     		add	r2, r7, r2
 539 03b0 1360     		str	r3, [r2]
 540 03b2 A823     		mov	r3, #168
 541 03b4 DB00     		lsl	r3, r3, #3
 542 03b6 FB18     		add	r3, r7, r3
 543 03b8 1B68     		ldr	r3, [r3]
 544 03ba 1B00     		lsl	r3, r3, #0
 545 03bc 694A     		ldr	r2, .L35+52
ARM GAS  C:\Users\fneves\AppData\Local\Temp\ccE35dyd.s 			page 14


 546 03be BA18     		add	r2, r7, r2
 547 03c0 1360     		str	r3, [r2]
 548 03c2 0023     		mov	r3, #0
 549 03c4 A722     		mov	r2, #167
 550 03c6 D200     		lsl	r2, r2, #3
 551 03c8 BA18     		add	r2, r7, r2
 552 03ca 1360     		str	r3, [r2]
 193:Source\FilteringFunctions/arm_correlate_fast_q31.c ****                       ((q63_t) * px++ * (*py++))) >> 32);
 553              		.loc 1 193 0
 554 03cc C023     		mov	r3, #192
 555 03ce DB00     		lsl	r3, r3, #3
 556 03d0 FB18     		add	r3, r7, r3
 557 03d2 1A68     		ldr	r2, [r3]
 558 03d4 131D     		add	r3, r2, #4
 559 03d6 C021     		mov	r1, #192
 560 03d8 C900     		lsl	r1, r1, #3
 561 03da 7918     		add	r1, r7, r1
 562 03dc 0B60     		str	r3, [r1]
 563 03de 1368     		ldr	r3, [r2]
 564 03e0 A622     		mov	r2, #166
 565 03e2 D200     		lsl	r2, r2, #3
 566 03e4 BA18     		add	r2, r7, r2
 567 03e6 1360     		str	r3, [r2]
 568 03e8 DB17     		asr	r3, r3, #31
 569 03ea 5F4A     		ldr	r2, .L35+56
 570 03ec BA18     		add	r2, r7, r2
 571 03ee 1360     		str	r3, [r2]
 572 03f0 534B     		ldr	r3, .L35+16
 573 03f2 FB18     		add	r3, r7, r3
 574 03f4 1A68     		ldr	r2, [r3]
 575 03f6 131D     		add	r3, r2, #4
 576 03f8 5149     		ldr	r1, .L35+16
 577 03fa 7918     		add	r1, r7, r1
 578 03fc 0B60     		str	r3, [r1]
 579 03fe 1368     		ldr	r3, [r2]
 580 0400 A522     		mov	r2, #165
 581 0402 D200     		lsl	r2, r2, #3
 582 0404 BA18     		add	r2, r7, r2
 583 0406 1360     		str	r3, [r2]
 584 0408 DB17     		asr	r3, r3, #31
 585 040a 584A     		ldr	r2, .L35+60
 586 040c BA18     		add	r2, r7, r2
 587 040e 1360     		str	r3, [r2]
 588 0410 A623     		mov	r3, #166
 589 0412 DB00     		lsl	r3, r3, #3
 590 0414 FB18     		add	r3, r7, r3
 591 0416 1868     		ldr	r0, [r3]
 592 0418 5968     		ldr	r1, [r3, #4]
 593 041a A523     		mov	r3, #165
 594 041c DB00     		lsl	r3, r3, #3
 595 041e FB18     		add	r3, r7, r3
 596 0420 1A68     		ldr	r2, [r3]
 597 0422 5B68     		ldr	r3, [r3, #4]
 598 0424 FFF7FEFF 		bl	__aeabi_lmul
 599 0428 031C     		mov	r3, r0
 600 042a 0C1C     		mov	r4, r1
 192:Source\FilteringFunctions/arm_correlate_fast_q31.c ****                       ((q63_t) * px++ * (*py++))) >> 32);
ARM GAS  C:\Users\fneves\AppData\Local\Temp\ccE35dyd.s 			page 15


 601              		.loc 1 192 0
 602 042c A722     		mov	r2, #167
 603 042e D200     		lsl	r2, r2, #3
 604 0430 BA18     		add	r2, r7, r2
 605 0432 1168     		ldr	r1, [r2]
 606 0434 5268     		ldr	r2, [r2, #4]
 607 0436 5B18     		add	r3, r3, r1
 608 0438 5441     		adc	r4, r4, r2
 609              		.loc 1 193 0
 610 043a 2200     		asr	r2, r4, #0
 611 043c A421     		mov	r1, #164
 612 043e C900     		lsl	r1, r1, #3
 613 0440 7918     		add	r1, r7, r1
 614 0442 0A60     		str	r2, [r1]
 615 0444 E317     		asr	r3, r4, #31
 616 0446 4A4A     		ldr	r2, .L35+64
 617 0448 BA18     		add	r2, r7, r2
 618 044a 1360     		str	r3, [r2]
 192:Source\FilteringFunctions/arm_correlate_fast_q31.c ****                       ((q63_t) * px++ * (*py++))) >> 32);
 619              		.loc 1 192 0
 620 044c A423     		mov	r3, #164
 621 044e DB00     		lsl	r3, r3, #3
 622 0450 FB18     		add	r3, r7, r3
 623 0452 1B68     		ldr	r3, [r3]
 624 0454 364A     		ldr	r2, .L35
 625 0456 BA18     		add	r2, r7, r2
 626 0458 1360     		str	r3, [r2]
 194:Source\FilteringFunctions/arm_correlate_fast_q31.c ****       /* x[3] * y[srcBLen - 1] */
 195:Source\FilteringFunctions/arm_correlate_fast_q31.c ****       sum = (q31_t) ((((q63_t) sum << 32) +
 627              		.loc 1 195 0
 628 045a 354B     		ldr	r3, .L35
 629 045c FB18     		add	r3, r7, r3
 630 045e 1B68     		ldr	r3, [r3]
 631 0460 A322     		mov	r2, #163
 632 0462 D200     		lsl	r2, r2, #3
 633 0464 BA18     		add	r2, r7, r2
 634 0466 1360     		str	r3, [r2]
 635 0468 DB17     		asr	r3, r3, #31
 636 046a 424A     		ldr	r2, .L35+68
 637 046c BA18     		add	r2, r7, r2
 638 046e 1360     		str	r3, [r2]
 639 0470 A323     		mov	r3, #163
 640 0472 DB00     		lsl	r3, r3, #3
 641 0474 FB18     		add	r3, r7, r3
 642 0476 1B68     		ldr	r3, [r3]
 643 0478 1E00     		lsl	r6, r3, #0
 644 047a 0023     		mov	r3, #0
 645 047c 1D1C     		mov	r5, r3
 196:Source\FilteringFunctions/arm_correlate_fast_q31.c ****                       ((q63_t) * px++ * (*py++))) >> 32);
 646              		.loc 1 196 0
 647 047e C023     		mov	r3, #192
 648 0480 DB00     		lsl	r3, r3, #3
 649 0482 FB18     		add	r3, r7, r3
 650 0484 1A68     		ldr	r2, [r3]
 651 0486 131D     		add	r3, r2, #4
 652 0488 C021     		mov	r1, #192
 653 048a C900     		lsl	r1, r1, #3
ARM GAS  C:\Users\fneves\AppData\Local\Temp\ccE35dyd.s 			page 16


 654 048c 7918     		add	r1, r7, r1
 655 048e 0B60     		str	r3, [r1]
 656 0490 1368     		ldr	r3, [r2]
 657 0492 A222     		mov	r2, #162
 658 0494 D200     		lsl	r2, r2, #3
 659 0496 BA18     		add	r2, r7, r2
 660 0498 1360     		str	r3, [r2]
 661 049a DB17     		asr	r3, r3, #31
 662 049c 364A     		ldr	r2, .L35+72
 663 049e BA18     		add	r2, r7, r2
 664 04a0 1360     		str	r3, [r2]
 665 04a2 274B     		ldr	r3, .L35+16
 666 04a4 FB18     		add	r3, r7, r3
 667 04a6 1A68     		ldr	r2, [r3]
 668 04a8 131D     		add	r3, r2, #4
 669 04aa 2549     		ldr	r1, .L35+16
 670 04ac 7918     		add	r1, r7, r1
 671 04ae 0B60     		str	r3, [r1]
 672 04b0 1368     		ldr	r3, [r2]
 673 04b2 A122     		mov	r2, #161
 674 04b4 D200     		lsl	r2, r2, #3
 675 04b6 BA18     		add	r2, r7, r2
 676 04b8 1360     		str	r3, [r2]
 677 04ba DB17     		asr	r3, r3, #31
 678 04bc 2F4A     		ldr	r2, .L35+76
 679 04be BA18     		add	r2, r7, r2
 680 04c0 1360     		str	r3, [r2]
 681 04c2 A223     		mov	r3, #162
 682 04c4 DB00     		lsl	r3, r3, #3
 683 04c6 FB18     		add	r3, r7, r3
 684 04c8 1868     		ldr	r0, [r3]
 685 04ca 5968     		ldr	r1, [r3, #4]
 686 04cc A123     		mov	r3, #161
 687 04ce DB00     		lsl	r3, r3, #3
 688 04d0 FB18     		add	r3, r7, r3
 689 04d2 1A68     		ldr	r2, [r3]
 690 04d4 5B68     		ldr	r3, [r3, #4]
 691 04d6 FFF7FEFF 		bl	__aeabi_lmul
 692 04da 031C     		mov	r3, r0
 693 04dc 0C1C     		mov	r4, r1
 195:Source\FilteringFunctions/arm_correlate_fast_q31.c ****                       ((q63_t) * px++ * (*py++))) >> 32);
 694              		.loc 1 195 0
 695 04de 5B19     		add	r3, r3, r5
 696 04e0 7441     		adc	r4, r4, r6
 697              		.loc 1 196 0
 698 04e2 2200     		asr	r2, r4, #0
 699 04e4 A021     		mov	r1, #160
 700 04e6 C900     		lsl	r1, r1, #3
 701 04e8 7918     		add	r1, r7, r1
 702 04ea 0A60     		str	r2, [r1]
 703 04ec E317     		asr	r3, r4, #31
 704 04ee 244A     		ldr	r2, .L35+80
 705 04f0 BA18     		add	r2, r7, r2
 706 04f2 1360     		str	r3, [r2]
 195:Source\FilteringFunctions/arm_correlate_fast_q31.c ****                       ((q63_t) * px++ * (*py++))) >> 32);
 707              		.loc 1 195 0
 708 04f4 A023     		mov	r3, #160
ARM GAS  C:\Users\fneves\AppData\Local\Temp\ccE35dyd.s 			page 17


 709 04f6 DB00     		lsl	r3, r3, #3
 710 04f8 FB18     		add	r3, r7, r3
 711 04fa 1B68     		ldr	r3, [r3]
 712 04fc 0C4A     		ldr	r2, .L35
 713 04fe BA18     		add	r2, r7, r2
 714 0500 1360     		str	r3, [r2]
 197:Source\FilteringFunctions/arm_correlate_fast_q31.c **** 
 198:Source\FilteringFunctions/arm_correlate_fast_q31.c ****       /* Decrement the loop counter */
 199:Source\FilteringFunctions/arm_correlate_fast_q31.c ****       k--;
 715              		.loc 1 199 0
 716 0502 204B     		ldr	r3, .L35+84
 717 0504 FB18     		add	r3, r7, r3
 718 0506 1B68     		ldr	r3, [r3]
 719 0508 013B     		sub	r3, r3, #1
 720 050a 1E4A     		ldr	r2, .L35+84
 721 050c BA18     		add	r2, r7, r2
 722 050e 1360     		str	r3, [r2]
 723              	.L5:
 183:Source\FilteringFunctions/arm_correlate_fast_q31.c ****     {
 724              		.loc 1 183 0
 725 0510 1C4B     		ldr	r3, .L35+84
 726 0512 FB18     		add	r3, r7, r3
 727 0514 1B68     		ldr	r3, [r3]
 728 0516 002B     		cmp	r3, #0
 729 0518 00D0     		beq	.LCB650
 730 051a 81E6     		b	.L6	@long jump
 731              	.LCB650:
 200:Source\FilteringFunctions/arm_correlate_fast_q31.c ****     }
 201:Source\FilteringFunctions/arm_correlate_fast_q31.c **** 
 202:Source\FilteringFunctions/arm_correlate_fast_q31.c ****     /* If the count is not a multiple of 4, compute any remaining MACs here.
 203:Source\FilteringFunctions/arm_correlate_fast_q31.c ****      ** No loop unrolling is used. */
 204:Source\FilteringFunctions/arm_correlate_fast_q31.c ****     k = count % 0x4u;
 732              		.loc 1 204 0
 733 051c BA23     		mov	r3, #186
 734 051e DB00     		lsl	r3, r3, #3
 735 0520 FB18     		add	r3, r7, r3
 736 0522 1A68     		ldr	r2, [r3]
 737 0524 0323     		mov	r3, #3
 738 0526 1340     		and	r3, r2
 739 0528 164A     		ldr	r2, .L35+84
 740 052a BA18     		add	r2, r7, r2
 741 052c 1360     		str	r3, [r2]
 205:Source\FilteringFunctions/arm_correlate_fast_q31.c **** 
 206:Source\FilteringFunctions/arm_correlate_fast_q31.c ****     while (k > 0u)
 742              		.loc 1 206 0
 743 052e 91E0     		b	.L7
 744              	.L36:
 745              		.align	2
 746              	.L35:
 747 0530 F4050000 		.word	1524
 748 0534 94050000 		.word	1428
 749 0538 8C050000 		.word	1420
 750 053c 84050000 		.word	1412
 751 0540 FC050000 		.word	1532
 752 0544 7C050000 		.word	1404
 753 0548 74050000 		.word	1396
 754 054c 6C050000 		.word	1388
ARM GAS  C:\Users\fneves\AppData\Local\Temp\ccE35dyd.s 			page 18


 755 0550 64050000 		.word	1380
 756 0554 5C050000 		.word	1372
 757 0558 54050000 		.word	1364
 758 055c 4C050000 		.word	1356
 759 0560 44050000 		.word	1348
 760 0564 3C050000 		.word	1340
 761 0568 34050000 		.word	1332
 762 056c 2C050000 		.word	1324
 763 0570 24050000 		.word	1316
 764 0574 1C050000 		.word	1308
 765 0578 14050000 		.word	1300
 766 057c 0C050000 		.word	1292
 767 0580 04050000 		.word	1284
 768 0584 D4050000 		.word	1492
 769              	.L8:
 207:Source\FilteringFunctions/arm_correlate_fast_q31.c ****     {
 208:Source\FilteringFunctions/arm_correlate_fast_q31.c ****       /* Perform the multiply-accumulates */
 209:Source\FilteringFunctions/arm_correlate_fast_q31.c ****       /* x[0] * y[srcBLen - 1] */
 210:Source\FilteringFunctions/arm_correlate_fast_q31.c ****       sum = (q31_t) ((((q63_t) sum << 32) +
 770              		.loc 1 210 0
 771 0588 684B     		ldr	r3, .L37
 772 058a FB18     		add	r3, r7, r3
 773 058c 1B68     		ldr	r3, [r3]
 774 058e 9F22     		mov	r2, #159
 775 0590 D200     		lsl	r2, r2, #3
 776 0592 BA18     		add	r2, r7, r2
 777 0594 1360     		str	r3, [r2]
 778 0596 DB17     		asr	r3, r3, #31
 779 0598 654A     		ldr	r2, .L37+4
 780 059a BA18     		add	r2, r7, r2
 781 059c 1360     		str	r3, [r2]
 782 059e 9F23     		mov	r3, #159
 783 05a0 DB00     		lsl	r3, r3, #3
 784 05a2 FB18     		add	r3, r7, r3
 785 05a4 1B68     		ldr	r3, [r3]
 786 05a6 1B00     		lsl	r3, r3, #0
 787 05a8 624A     		ldr	r2, .L37+8
 788 05aa BA18     		add	r2, r7, r2
 789 05ac 1360     		str	r3, [r2]
 790 05ae 0023     		mov	r3, #0
 791 05b0 9E22     		mov	r2, #158
 792 05b2 D200     		lsl	r2, r2, #3
 793 05b4 BA18     		add	r2, r7, r2
 794 05b6 1360     		str	r3, [r2]
 211:Source\FilteringFunctions/arm_correlate_fast_q31.c ****                       ((q63_t) * px++ * (*py++))) >> 32);
 795              		.loc 1 211 0
 796 05b8 C023     		mov	r3, #192
 797 05ba DB00     		lsl	r3, r3, #3
 798 05bc FB18     		add	r3, r7, r3
 799 05be 1A68     		ldr	r2, [r3]
 800 05c0 131D     		add	r3, r2, #4
 801 05c2 C021     		mov	r1, #192
 802 05c4 C900     		lsl	r1, r1, #3
 803 05c6 7918     		add	r1, r7, r1
 804 05c8 0B60     		str	r3, [r1]
 805 05ca 1368     		ldr	r3, [r2]
 806 05cc 9D22     		mov	r2, #157
ARM GAS  C:\Users\fneves\AppData\Local\Temp\ccE35dyd.s 			page 19


 807 05ce D200     		lsl	r2, r2, #3
 808 05d0 BA18     		add	r2, r7, r2
 809 05d2 1360     		str	r3, [r2]
 810 05d4 DB17     		asr	r3, r3, #31
 811 05d6 584A     		ldr	r2, .L37+12
 812 05d8 BA18     		add	r2, r7, r2
 813 05da 1360     		str	r3, [r2]
 814 05dc 574B     		ldr	r3, .L37+16
 815 05de FB18     		add	r3, r7, r3
 816 05e0 1A68     		ldr	r2, [r3]
 817 05e2 131D     		add	r3, r2, #4
 818 05e4 5549     		ldr	r1, .L37+16
 819 05e6 7918     		add	r1, r7, r1
 820 05e8 0B60     		str	r3, [r1]
 821 05ea 1368     		ldr	r3, [r2]
 822 05ec 9C22     		mov	r2, #156
 823 05ee D200     		lsl	r2, r2, #3
 824 05f0 BA18     		add	r2, r7, r2
 825 05f2 1360     		str	r3, [r2]
 826 05f4 DB17     		asr	r3, r3, #31
 827 05f6 524A     		ldr	r2, .L37+20
 828 05f8 BA18     		add	r2, r7, r2
 829 05fa 1360     		str	r3, [r2]
 830 05fc 9D23     		mov	r3, #157
 831 05fe DB00     		lsl	r3, r3, #3
 832 0600 FB18     		add	r3, r7, r3
 833 0602 1868     		ldr	r0, [r3]
 834 0604 5968     		ldr	r1, [r3, #4]
 835 0606 9C23     		mov	r3, #156
 836 0608 DB00     		lsl	r3, r3, #3
 837 060a FB18     		add	r3, r7, r3
 838 060c 1A68     		ldr	r2, [r3]
 839 060e 5B68     		ldr	r3, [r3, #4]
 840 0610 FFF7FEFF 		bl	__aeabi_lmul
 841 0614 031C     		mov	r3, r0
 842 0616 0C1C     		mov	r4, r1
 210:Source\FilteringFunctions/arm_correlate_fast_q31.c ****                       ((q63_t) * px++ * (*py++))) >> 32);
 843              		.loc 1 210 0
 844 0618 9E22     		mov	r2, #158
 845 061a D200     		lsl	r2, r2, #3
 846 061c BA18     		add	r2, r7, r2
 847 061e 1168     		ldr	r1, [r2]
 848 0620 5268     		ldr	r2, [r2, #4]
 849 0622 5B18     		add	r3, r3, r1
 850 0624 5441     		adc	r4, r4, r2
 851              		.loc 1 211 0
 852 0626 2200     		asr	r2, r4, #0
 853 0628 9B21     		mov	r1, #155
 854 062a C900     		lsl	r1, r1, #3
 855 062c 7918     		add	r1, r7, r1
 856 062e 0A60     		str	r2, [r1]
 857 0630 E317     		asr	r3, r4, #31
 858 0632 444A     		ldr	r2, .L37+24
 859 0634 BA18     		add	r2, r7, r2
 860 0636 1360     		str	r3, [r2]
 210:Source\FilteringFunctions/arm_correlate_fast_q31.c ****                       ((q63_t) * px++ * (*py++))) >> 32);
 861              		.loc 1 210 0
ARM GAS  C:\Users\fneves\AppData\Local\Temp\ccE35dyd.s 			page 20


 862 0638 9B23     		mov	r3, #155
 863 063a DB00     		lsl	r3, r3, #3
 864 063c FB18     		add	r3, r7, r3
 865 063e 1B68     		ldr	r3, [r3]
 866 0640 3A4A     		ldr	r2, .L37
 867 0642 BA18     		add	r2, r7, r2
 868 0644 1360     		str	r3, [r2]
 212:Source\FilteringFunctions/arm_correlate_fast_q31.c **** 
 213:Source\FilteringFunctions/arm_correlate_fast_q31.c ****       /* Decrement the loop counter */
 214:Source\FilteringFunctions/arm_correlate_fast_q31.c ****       k--;
 869              		.loc 1 214 0
 870 0646 404B     		ldr	r3, .L37+28
 871 0648 FB18     		add	r3, r7, r3
 872 064a 1B68     		ldr	r3, [r3]
 873 064c 013B     		sub	r3, r3, #1
 874 064e 3E4A     		ldr	r2, .L37+28
 875 0650 BA18     		add	r2, r7, r2
 876 0652 1360     		str	r3, [r2]
 877              	.L7:
 206:Source\FilteringFunctions/arm_correlate_fast_q31.c ****     {
 878              		.loc 1 206 0
 879 0654 3C4B     		ldr	r3, .L37+28
 880 0656 FB18     		add	r3, r7, r3
 881 0658 1B68     		ldr	r3, [r3]
 882 065a 002B     		cmp	r3, #0
 883 065c 94D1     		bne	.L8
 215:Source\FilteringFunctions/arm_correlate_fast_q31.c ****     }
 216:Source\FilteringFunctions/arm_correlate_fast_q31.c **** 
 217:Source\FilteringFunctions/arm_correlate_fast_q31.c ****     /* Store the result in the accumulator in the destination buffer. */
 218:Source\FilteringFunctions/arm_correlate_fast_q31.c ****     *pOut = sum << 1;
 884              		.loc 1 218 0
 885 065e 334B     		ldr	r3, .L37
 886 0660 FB18     		add	r3, r7, r3
 887 0662 1B68     		ldr	r3, [r3]
 888 0664 5A00     		lsl	r2, r3, #1
 889 0666 394B     		ldr	r3, .L37+32
 890 0668 FB18     		add	r3, r7, r3
 891 066a 1B68     		ldr	r3, [r3]
 892 066c 1A60     		str	r2, [r3]
 219:Source\FilteringFunctions/arm_correlate_fast_q31.c ****     /* Destination pointer is updated according to the address modifier, inc */
 220:Source\FilteringFunctions/arm_correlate_fast_q31.c ****     pOut += inc;
 893              		.loc 1 220 0
 894 066e B823     		mov	r3, #184
 895 0670 DB00     		lsl	r3, r3, #3
 896 0672 FB18     		add	r3, r7, r3
 897 0674 1B68     		ldr	r3, [r3]
 898 0676 9A00     		lsl	r2, r3, #2
 899 0678 344B     		ldr	r3, .L37+32
 900 067a FB18     		add	r3, r7, r3
 901 067c 1B68     		ldr	r3, [r3]
 902 067e 9B18     		add	r3, r3, r2
 903 0680 324A     		ldr	r2, .L37+32
 904 0682 BA18     		add	r2, r7, r2
 905 0684 1360     		str	r3, [r2]
 221:Source\FilteringFunctions/arm_correlate_fast_q31.c **** 
 222:Source\FilteringFunctions/arm_correlate_fast_q31.c ****     /* Update the inputA and inputB pointers for next MAC calculation */
 223:Source\FilteringFunctions/arm_correlate_fast_q31.c ****     py = pSrc1 - count;
ARM GAS  C:\Users\fneves\AppData\Local\Temp\ccE35dyd.s 			page 21


 906              		.loc 1 223 0
 907 0686 BA23     		mov	r3, #186
 908 0688 DB00     		lsl	r3, r3, #3
 909 068a FB18     		add	r3, r7, r3
 910 068c 1B68     		ldr	r3, [r3]
 911 068e 9B00     		lsl	r3, r3, #2
 912 0690 5A42     		neg	r2, r3
 913 0692 BF23     		mov	r3, #191
 914 0694 DB00     		lsl	r3, r3, #3
 915 0696 FB18     		add	r3, r7, r3
 916 0698 1B68     		ldr	r3, [r3]
 917 069a 9B18     		add	r3, r3, r2
 918 069c 274A     		ldr	r2, .L37+16
 919 069e BA18     		add	r2, r7, r2
 920 06a0 1360     		str	r3, [r2]
 224:Source\FilteringFunctions/arm_correlate_fast_q31.c ****     px = pIn1;
 921              		.loc 1 224 0
 922 06a2 2B4B     		ldr	r3, .L37+36
 923 06a4 FB18     		add	r3, r7, r3
 924 06a6 1B68     		ldr	r3, [r3]
 925 06a8 C022     		mov	r2, #192
 926 06aa D200     		lsl	r2, r2, #3
 927 06ac BA18     		add	r2, r7, r2
 928 06ae 1360     		str	r3, [r2]
 225:Source\FilteringFunctions/arm_correlate_fast_q31.c **** 
 226:Source\FilteringFunctions/arm_correlate_fast_q31.c ****     /* Increment the MAC count */
 227:Source\FilteringFunctions/arm_correlate_fast_q31.c ****     count++;
 929              		.loc 1 227 0
 930 06b0 BA23     		mov	r3, #186
 931 06b2 DB00     		lsl	r3, r3, #3
 932 06b4 FB18     		add	r3, r7, r3
 933 06b6 1B68     		ldr	r3, [r3]
 934 06b8 0133     		add	r3, r3, #1
 935 06ba BA22     		mov	r2, #186
 936 06bc D200     		lsl	r2, r2, #3
 937 06be BA18     		add	r2, r7, r2
 938 06c0 1360     		str	r3, [r2]
 228:Source\FilteringFunctions/arm_correlate_fast_q31.c **** 
 229:Source\FilteringFunctions/arm_correlate_fast_q31.c ****     /* Decrement the loop counter */
 230:Source\FilteringFunctions/arm_correlate_fast_q31.c ****     blockSize1--;
 939              		.loc 1 230 0
 940 06c2 B923     		mov	r3, #185
 941 06c4 DB00     		lsl	r3, r3, #3
 942 06c6 FB18     		add	r3, r7, r3
 943 06c8 1B68     		ldr	r3, [r3]
 944 06ca 013B     		sub	r3, r3, #1
 945 06cc B922     		mov	r2, #185
 946 06ce D200     		lsl	r2, r2, #3
 947 06d0 BA18     		add	r2, r7, r2
 948 06d2 1360     		str	r3, [r2]
 949              	.L4:
 173:Source\FilteringFunctions/arm_correlate_fast_q31.c ****   {
 950              		.loc 1 173 0
 951 06d4 B923     		mov	r3, #185
 952 06d6 DB00     		lsl	r3, r3, #3
 953 06d8 FB18     		add	r3, r7, r3
 954 06da 1B68     		ldr	r3, [r3]
ARM GAS  C:\Users\fneves\AppData\Local\Temp\ccE35dyd.s 			page 22


 955 06dc 002B     		cmp	r3, #0
 956 06de 00D0     		beq	.LCB861
 957 06e0 77E5     		b	.L9	@long jump
 958              	.LCB861:
 231:Source\FilteringFunctions/arm_correlate_fast_q31.c ****   }
 232:Source\FilteringFunctions/arm_correlate_fast_q31.c **** 
 233:Source\FilteringFunctions/arm_correlate_fast_q31.c ****   /* --------------------------
 234:Source\FilteringFunctions/arm_correlate_fast_q31.c ****    * Initializations of stage2
 235:Source\FilteringFunctions/arm_correlate_fast_q31.c ****    * ------------------------*/
 236:Source\FilteringFunctions/arm_correlate_fast_q31.c **** 
 237:Source\FilteringFunctions/arm_correlate_fast_q31.c ****   /* sum = x[0] * y[0] + x[1] * y[1] +...+ x[srcBLen-1] * y[srcBLen-1]
 238:Source\FilteringFunctions/arm_correlate_fast_q31.c ****    * sum = x[1] * y[0] + x[2] * y[1] +...+ x[srcBLen] * y[srcBLen-1]
 239:Source\FilteringFunctions/arm_correlate_fast_q31.c ****    * ....
 240:Source\FilteringFunctions/arm_correlate_fast_q31.c ****    * sum = x[srcALen-srcBLen-2] * y[0] + x[srcALen-srcBLen-1] * y[1] +...+ x[srcALen-1] * y[srcBLen
 241:Source\FilteringFunctions/arm_correlate_fast_q31.c ****    */
 242:Source\FilteringFunctions/arm_correlate_fast_q31.c **** 
 243:Source\FilteringFunctions/arm_correlate_fast_q31.c ****   /* Working pointer of inputA */
 244:Source\FilteringFunctions/arm_correlate_fast_q31.c ****   px = pIn1;
 959              		.loc 1 244 0
 960 06e2 1B4B     		ldr	r3, .L37+36
 961 06e4 FB18     		add	r3, r7, r3
 962 06e6 1B68     		ldr	r3, [r3]
 963 06e8 C022     		mov	r2, #192
 964 06ea D200     		lsl	r2, r2, #3
 965 06ec BA18     		add	r2, r7, r2
 966 06ee 1360     		str	r3, [r2]
 245:Source\FilteringFunctions/arm_correlate_fast_q31.c **** 
 246:Source\FilteringFunctions/arm_correlate_fast_q31.c ****   /* Working pointer of inputB */
 247:Source\FilteringFunctions/arm_correlate_fast_q31.c ****   py = pIn2;
 967              		.loc 1 247 0
 968 06f0 C123     		mov	r3, #193
 969 06f2 DB00     		lsl	r3, r3, #3
 970 06f4 FB18     		add	r3, r7, r3
 971 06f6 1B68     		ldr	r3, [r3]
 972 06f8 104A     		ldr	r2, .L37+16
 973 06fa BA18     		add	r2, r7, r2
 974 06fc 1360     		str	r3, [r2]
 248:Source\FilteringFunctions/arm_correlate_fast_q31.c **** 
 249:Source\FilteringFunctions/arm_correlate_fast_q31.c ****   /* count is index by which the pointer pIn1 to be incremented */
 250:Source\FilteringFunctions/arm_correlate_fast_q31.c ****   count = 0u;
 975              		.loc 1 250 0
 976 06fe 0023     		mov	r3, #0
 977 0700 BA22     		mov	r2, #186
 978 0702 D200     		lsl	r2, r2, #3
 979 0704 BA18     		add	r2, r7, r2
 980 0706 1360     		str	r3, [r2]
 251:Source\FilteringFunctions/arm_correlate_fast_q31.c **** 
 252:Source\FilteringFunctions/arm_correlate_fast_q31.c ****   /* -------------------
 253:Source\FilteringFunctions/arm_correlate_fast_q31.c ****    * Stage2 process
 254:Source\FilteringFunctions/arm_correlate_fast_q31.c ****    * ------------------*/
 255:Source\FilteringFunctions/arm_correlate_fast_q31.c **** 
 256:Source\FilteringFunctions/arm_correlate_fast_q31.c ****   /* Stage2 depends on srcBLen as in this stage srcBLen number of MACS are performed.
 257:Source\FilteringFunctions/arm_correlate_fast_q31.c ****    * So, to loop unroll over blockSize2,
 258:Source\FilteringFunctions/arm_correlate_fast_q31.c ****    * srcBLen should be greater than or equal to 4 */
 259:Source\FilteringFunctions/arm_correlate_fast_q31.c ****   if (srcBLen >= 4u)
 981              		.loc 1 259 0
 982 0708 B323     		mov	r3, #179
ARM GAS  C:\Users\fneves\AppData\Local\Temp\ccE35dyd.s 			page 23


 983 070a DB00     		lsl	r3, r3, #3
 984 070c FB18     		add	r3, r7, r3
 985 070e 1B68     		ldr	r3, [r3]
 986 0710 032B     		cmp	r3, #3
 987 0712 01D8     		bhi	.LCB886
 988 0714 01F07AFB 		bl	.L10	@far jump
 989              	.LCB886:
 260:Source\FilteringFunctions/arm_correlate_fast_q31.c ****   {
 261:Source\FilteringFunctions/arm_correlate_fast_q31.c ****     /* Loop unroll over blockSize2, by 4 */
 262:Source\FilteringFunctions/arm_correlate_fast_q31.c ****     blkCnt = blockSize2 >> 2u;
 990              		.loc 1 262 0
 991 0718 0E4B     		ldr	r3, .L37+40
 992 071a FB18     		add	r3, r7, r3
 993 071c 1B68     		ldr	r3, [r3]
 994 071e 9B08     		lsr	r3, r3, #2
 995 0720 0D4A     		ldr	r2, .L37+44
 996 0722 BA18     		add	r2, r7, r2
 997 0724 1360     		str	r3, [r2]
 263:Source\FilteringFunctions/arm_correlate_fast_q31.c **** 
 264:Source\FilteringFunctions/arm_correlate_fast_q31.c ****     while (blkCnt > 0u)
 998              		.loc 1 264 0
 999 0726 01F0F1F8 		bl	.L11	@ far jump
 1000              	.L38:
 1001 072a C046     		.align	2
 1002              	.L37:
 1003 072c F4050000 		.word	1524
 1004 0730 FC040000 		.word	1276
 1005 0734 F4040000 		.word	1268
 1006 0738 EC040000 		.word	1260
 1007 073c FC050000 		.word	1532
 1008 0740 E4040000 		.word	1252
 1009 0744 DC040000 		.word	1244
 1010 0748 D4050000 		.word	1492
 1011 074c 04060000 		.word	1540
 1012 0750 0C060000 		.word	1548
 1013 0754 B4050000 		.word	1460
 1014 0758 CC050000 		.word	1484
 1015              	.L15:
 265:Source\FilteringFunctions/arm_correlate_fast_q31.c ****     {
 266:Source\FilteringFunctions/arm_correlate_fast_q31.c ****       /* Set all accumulators to zero */
 267:Source\FilteringFunctions/arm_correlate_fast_q31.c ****       acc0 = 0;
 1016              		.loc 1 267 0
 1017 075c 0023     		mov	r3, #0
 1018 075e BE22     		mov	r2, #190
 1019 0760 D200     		lsl	r2, r2, #3
 1020 0762 BA18     		add	r2, r7, r2
 1021 0764 1360     		str	r3, [r2]
 268:Source\FilteringFunctions/arm_correlate_fast_q31.c ****       acc1 = 0;
 1022              		.loc 1 268 0
 1023 0766 0023     		mov	r3, #0
 1024 0768 F84A     		ldr	r2, .L39
 1025 076a BA18     		add	r2, r7, r2
 1026 076c 1360     		str	r3, [r2]
 269:Source\FilteringFunctions/arm_correlate_fast_q31.c ****       acc2 = 0;
 1027              		.loc 1 269 0
 1028 076e 0023     		mov	r3, #0
 1029 0770 BD22     		mov	r2, #189
ARM GAS  C:\Users\fneves\AppData\Local\Temp\ccE35dyd.s 			page 24


 1030 0772 D200     		lsl	r2, r2, #3
 1031 0774 BA18     		add	r2, r7, r2
 1032 0776 1360     		str	r3, [r2]
 270:Source\FilteringFunctions/arm_correlate_fast_q31.c ****       acc3 = 0;
 1033              		.loc 1 270 0
 1034 0778 0023     		mov	r3, #0
 1035 077a F54A     		ldr	r2, .L39+4
 1036 077c BA18     		add	r2, r7, r2
 1037 077e 1360     		str	r3, [r2]
 271:Source\FilteringFunctions/arm_correlate_fast_q31.c **** 
 272:Source\FilteringFunctions/arm_correlate_fast_q31.c ****       /* read x[0], x[1], x[2] samples */
 273:Source\FilteringFunctions/arm_correlate_fast_q31.c ****       x0 = *(px++);
 1038              		.loc 1 273 0
 1039 0780 C023     		mov	r3, #192
 1040 0782 DB00     		lsl	r3, r3, #3
 1041 0784 FB18     		add	r3, r7, r3
 1042 0786 1A68     		ldr	r2, [r3]
 1043 0788 131D     		add	r3, r2, #4
 1044 078a C021     		mov	r1, #192
 1045 078c C900     		lsl	r1, r1, #3
 1046 078e 7918     		add	r1, r7, r1
 1047 0790 0B60     		str	r3, [r1]
 1048 0792 1368     		ldr	r3, [r2]
 1049 0794 BC22     		mov	r2, #188
 1050 0796 D200     		lsl	r2, r2, #3
 1051 0798 BA18     		add	r2, r7, r2
 1052 079a 1360     		str	r3, [r2]
 274:Source\FilteringFunctions/arm_correlate_fast_q31.c ****       x1 = *(px++);
 1053              		.loc 1 274 0
 1054 079c C023     		mov	r3, #192
 1055 079e DB00     		lsl	r3, r3, #3
 1056 07a0 FB18     		add	r3, r7, r3
 1057 07a2 1A68     		ldr	r2, [r3]
 1058 07a4 131D     		add	r3, r2, #4
 1059 07a6 C021     		mov	r1, #192
 1060 07a8 C900     		lsl	r1, r1, #3
 1061 07aa 7918     		add	r1, r7, r1
 1062 07ac 0B60     		str	r3, [r1]
 1063 07ae 1368     		ldr	r3, [r2]
 1064 07b0 E84A     		ldr	r2, .L39+8
 1065 07b2 BA18     		add	r2, r7, r2
 1066 07b4 1360     		str	r3, [r2]
 275:Source\FilteringFunctions/arm_correlate_fast_q31.c ****       x2 = *(px++);
 1067              		.loc 1 275 0
 1068 07b6 C023     		mov	r3, #192
 1069 07b8 DB00     		lsl	r3, r3, #3
 1070 07ba FB18     		add	r3, r7, r3
 1071 07bc 1A68     		ldr	r2, [r3]
 1072 07be 131D     		add	r3, r2, #4
 1073 07c0 C021     		mov	r1, #192
 1074 07c2 C900     		lsl	r1, r1, #3
 1075 07c4 7918     		add	r1, r7, r1
 1076 07c6 0B60     		str	r3, [r1]
 1077 07c8 1368     		ldr	r3, [r2]
 1078 07ca BB22     		mov	r2, #187
 1079 07cc D200     		lsl	r2, r2, #3
 1080 07ce BA18     		add	r2, r7, r2
ARM GAS  C:\Users\fneves\AppData\Local\Temp\ccE35dyd.s 			page 25


 1081 07d0 1360     		str	r3, [r2]
 276:Source\FilteringFunctions/arm_correlate_fast_q31.c **** 
 277:Source\FilteringFunctions/arm_correlate_fast_q31.c ****       /* Apply loop unrolling and compute 4 MACs simultaneously. */
 278:Source\FilteringFunctions/arm_correlate_fast_q31.c ****       k = srcBLen >> 2u;
 1082              		.loc 1 278 0
 1083 07d2 B323     		mov	r3, #179
 1084 07d4 DB00     		lsl	r3, r3, #3
 1085 07d6 FB18     		add	r3, r7, r3
 1086 07d8 1B68     		ldr	r3, [r3]
 1087 07da 9B08     		lsr	r3, r3, #2
 1088 07dc DE4A     		ldr	r2, .L39+12
 1089 07de BA18     		add	r2, r7, r2
 1090 07e0 1360     		str	r3, [r2]
 1091              	.L12:
 279:Source\FilteringFunctions/arm_correlate_fast_q31.c **** 
 280:Source\FilteringFunctions/arm_correlate_fast_q31.c ****       /* First part of the processing with loop unrolling.  Compute 4 MACs at a time.
 281:Source\FilteringFunctions/arm_correlate_fast_q31.c ****        ** a second loop below computes MACs for the remaining 1 to 3 samples. */
 282:Source\FilteringFunctions/arm_correlate_fast_q31.c ****       do
 283:Source\FilteringFunctions/arm_correlate_fast_q31.c ****       {
 284:Source\FilteringFunctions/arm_correlate_fast_q31.c ****         /* Read y[0] sample */
 285:Source\FilteringFunctions/arm_correlate_fast_q31.c ****         c0 = *(py++);
 1092              		.loc 1 285 0 discriminator 1
 1093 07e2 DE4B     		ldr	r3, .L39+16
 1094 07e4 FB18     		add	r3, r7, r3
 1095 07e6 1A68     		ldr	r2, [r3]
 1096 07e8 131D     		add	r3, r2, #4
 1097 07ea DC49     		ldr	r1, .L39+16
 1098 07ec 7918     		add	r1, r7, r1
 1099 07ee 0B60     		str	r3, [r1]
 1100 07f0 1368     		ldr	r3, [r2]
 1101 07f2 B622     		mov	r2, #182
 1102 07f4 D200     		lsl	r2, r2, #3
 1103 07f6 BA18     		add	r2, r7, r2
 1104 07f8 1360     		str	r3, [r2]
 286:Source\FilteringFunctions/arm_correlate_fast_q31.c **** 
 287:Source\FilteringFunctions/arm_correlate_fast_q31.c ****         /* Read x[3] sample */
 288:Source\FilteringFunctions/arm_correlate_fast_q31.c ****         x3 = *(px++);
 1105              		.loc 1 288 0 discriminator 1
 1106 07fa C023     		mov	r3, #192
 1107 07fc DB00     		lsl	r3, r3, #3
 1108 07fe FB18     		add	r3, r7, r3
 1109 0800 1A68     		ldr	r2, [r3]
 1110 0802 131D     		add	r3, r2, #4
 1111 0804 C021     		mov	r1, #192
 1112 0806 C900     		lsl	r1, r1, #3
 1113 0808 7918     		add	r1, r7, r1
 1114 080a 0B60     		str	r3, [r1]
 1115 080c 1368     		ldr	r3, [r2]
 1116 080e D44A     		ldr	r2, .L39+20
 1117 0810 BA18     		add	r2, r7, r2
 1118 0812 1360     		str	r3, [r2]
 289:Source\FilteringFunctions/arm_correlate_fast_q31.c **** 
 290:Source\FilteringFunctions/arm_correlate_fast_q31.c ****         /* Perform the multiply-accumulate */
 291:Source\FilteringFunctions/arm_correlate_fast_q31.c ****         /* acc0 +=  x[0] * y[0] */
 292:Source\FilteringFunctions/arm_correlate_fast_q31.c ****         acc0 = (q31_t) ((((q63_t) acc0 << 32) + ((q63_t) x0 * c0)) >> 32);
 1119              		.loc 1 292 0 discriminator 1
 1120 0814 BE23     		mov	r3, #190
ARM GAS  C:\Users\fneves\AppData\Local\Temp\ccE35dyd.s 			page 26


 1121 0816 DB00     		lsl	r3, r3, #3
 1122 0818 FB18     		add	r3, r7, r3
 1123 081a 1B68     		ldr	r3, [r3]
 1124 081c 9A22     		mov	r2, #154
 1125 081e D200     		lsl	r2, r2, #3
 1126 0820 BA18     		add	r2, r7, r2
 1127 0822 1360     		str	r3, [r2]
 1128 0824 DB17     		asr	r3, r3, #31
 1129 0826 CF4A     		ldr	r2, .L39+24
 1130 0828 BA18     		add	r2, r7, r2
 1131 082a 1360     		str	r3, [r2]
 1132 082c 9A23     		mov	r3, #154
 1133 082e DB00     		lsl	r3, r3, #3
 1134 0830 FB18     		add	r3, r7, r3
 1135 0832 1B68     		ldr	r3, [r3]
 1136 0834 1B00     		lsl	r3, r3, #0
 1137 0836 CC4A     		ldr	r2, .L39+28
 1138 0838 BA18     		add	r2, r7, r2
 1139 083a 1360     		str	r3, [r2]
 1140 083c 0023     		mov	r3, #0
 1141 083e 9922     		mov	r2, #153
 1142 0840 D200     		lsl	r2, r2, #3
 1143 0842 BA18     		add	r2, r7, r2
 1144 0844 1360     		str	r3, [r2]
 1145 0846 BC23     		mov	r3, #188
 1146 0848 DB00     		lsl	r3, r3, #3
 1147 084a FB18     		add	r3, r7, r3
 1148 084c 1B68     		ldr	r3, [r3]
 1149 084e 9822     		mov	r2, #152
 1150 0850 D200     		lsl	r2, r2, #3
 1151 0852 BA18     		add	r2, r7, r2
 1152 0854 1360     		str	r3, [r2]
 1153 0856 DB17     		asr	r3, r3, #31
 1154 0858 C44A     		ldr	r2, .L39+32
 1155 085a BA18     		add	r2, r7, r2
 1156 085c 1360     		str	r3, [r2]
 1157 085e B623     		mov	r3, #182
 1158 0860 DB00     		lsl	r3, r3, #3
 1159 0862 FB18     		add	r3, r7, r3
 1160 0864 1B68     		ldr	r3, [r3]
 1161 0866 9722     		mov	r2, #151
 1162 0868 D200     		lsl	r2, r2, #3
 1163 086a BA18     		add	r2, r7, r2
 1164 086c 1360     		str	r3, [r2]
 1165 086e DB17     		asr	r3, r3, #31
 1166 0870 BF4A     		ldr	r2, .L39+36
 1167 0872 BA18     		add	r2, r7, r2
 1168 0874 1360     		str	r3, [r2]
 1169 0876 9823     		mov	r3, #152
 1170 0878 DB00     		lsl	r3, r3, #3
 1171 087a FB18     		add	r3, r7, r3
 1172 087c 1868     		ldr	r0, [r3]
 1173 087e 5968     		ldr	r1, [r3, #4]
 1174 0880 9723     		mov	r3, #151
 1175 0882 DB00     		lsl	r3, r3, #3
 1176 0884 FB18     		add	r3, r7, r3
 1177 0886 1A68     		ldr	r2, [r3]
ARM GAS  C:\Users\fneves\AppData\Local\Temp\ccE35dyd.s 			page 27


 1178 0888 5B68     		ldr	r3, [r3, #4]
 1179 088a FFF7FEFF 		bl	__aeabi_lmul
 1180 088e 031C     		mov	r3, r0
 1181 0890 0C1C     		mov	r4, r1
 1182 0892 9922     		mov	r2, #153
 1183 0894 D200     		lsl	r2, r2, #3
 1184 0896 BA18     		add	r2, r7, r2
 1185 0898 1168     		ldr	r1, [r2]
 1186 089a 5268     		ldr	r2, [r2, #4]
 1187 089c 5B18     		add	r3, r3, r1
 1188 089e 5441     		adc	r4, r4, r2
 1189 08a0 2200     		asr	r2, r4, #0
 1190 08a2 9621     		mov	r1, #150
 1191 08a4 C900     		lsl	r1, r1, #3
 1192 08a6 7918     		add	r1, r7, r1
 1193 08a8 0A60     		str	r2, [r1]
 1194 08aa E317     		asr	r3, r4, #31
 1195 08ac B14A     		ldr	r2, .L39+40
 1196 08ae BA18     		add	r2, r7, r2
 1197 08b0 1360     		str	r3, [r2]
 1198 08b2 9623     		mov	r3, #150
 1199 08b4 DB00     		lsl	r3, r3, #3
 1200 08b6 FB18     		add	r3, r7, r3
 1201 08b8 1B68     		ldr	r3, [r3]
 1202 08ba BE22     		mov	r2, #190
 1203 08bc D200     		lsl	r2, r2, #3
 1204 08be BA18     		add	r2, r7, r2
 1205 08c0 1360     		str	r3, [r2]
 293:Source\FilteringFunctions/arm_correlate_fast_q31.c ****         /* acc1 +=  x[1] * y[0] */
 294:Source\FilteringFunctions/arm_correlate_fast_q31.c ****         acc1 = (q31_t) ((((q63_t) acc1 << 32) + ((q63_t) x1 * c0)) >> 32);
 1206              		.loc 1 294 0 discriminator 1
 1207 08c2 A24B     		ldr	r3, .L39
 1208 08c4 FB18     		add	r3, r7, r3
 1209 08c6 1B68     		ldr	r3, [r3]
 1210 08c8 9522     		mov	r2, #149
 1211 08ca D200     		lsl	r2, r2, #3
 1212 08cc BA18     		add	r2, r7, r2
 1213 08ce 1360     		str	r3, [r2]
 1214 08d0 DB17     		asr	r3, r3, #31
 1215 08d2 A94A     		ldr	r2, .L39+44
 1216 08d4 BA18     		add	r2, r7, r2
 1217 08d6 1360     		str	r3, [r2]
 1218 08d8 9523     		mov	r3, #149
 1219 08da DB00     		lsl	r3, r3, #3
 1220 08dc FB18     		add	r3, r7, r3
 1221 08de 1B68     		ldr	r3, [r3]
 1222 08e0 1B00     		lsl	r3, r3, #0
 1223 08e2 A64A     		ldr	r2, .L39+48
 1224 08e4 BA18     		add	r2, r7, r2
 1225 08e6 1360     		str	r3, [r2]
 1226 08e8 0023     		mov	r3, #0
 1227 08ea 9422     		mov	r2, #148
 1228 08ec D200     		lsl	r2, r2, #3
 1229 08ee BA18     		add	r2, r7, r2
 1230 08f0 1360     		str	r3, [r2]
 1231 08f2 984B     		ldr	r3, .L39+8
 1232 08f4 FB18     		add	r3, r7, r3
ARM GAS  C:\Users\fneves\AppData\Local\Temp\ccE35dyd.s 			page 28


 1233 08f6 1B68     		ldr	r3, [r3]
 1234 08f8 9322     		mov	r2, #147
 1235 08fa D200     		lsl	r2, r2, #3
 1236 08fc BA18     		add	r2, r7, r2
 1237 08fe 1360     		str	r3, [r2]
 1238 0900 DB17     		asr	r3, r3, #31
 1239 0902 9F4A     		ldr	r2, .L39+52
 1240 0904 BA18     		add	r2, r7, r2
 1241 0906 1360     		str	r3, [r2]
 1242 0908 B623     		mov	r3, #182
 1243 090a DB00     		lsl	r3, r3, #3
 1244 090c FB18     		add	r3, r7, r3
 1245 090e 1B68     		ldr	r3, [r3]
 1246 0910 9222     		mov	r2, #146
 1247 0912 D200     		lsl	r2, r2, #3
 1248 0914 BA18     		add	r2, r7, r2
 1249 0916 1360     		str	r3, [r2]
 1250 0918 DB17     		asr	r3, r3, #31
 1251 091a 9A4A     		ldr	r2, .L39+56
 1252 091c BA18     		add	r2, r7, r2
 1253 091e 1360     		str	r3, [r2]
 1254 0920 9323     		mov	r3, #147
 1255 0922 DB00     		lsl	r3, r3, #3
 1256 0924 FB18     		add	r3, r7, r3
 1257 0926 1868     		ldr	r0, [r3]
 1258 0928 5968     		ldr	r1, [r3, #4]
 1259 092a 9223     		mov	r3, #146
 1260 092c DB00     		lsl	r3, r3, #3
 1261 092e FB18     		add	r3, r7, r3
 1262 0930 1A68     		ldr	r2, [r3]
 1263 0932 5B68     		ldr	r3, [r3, #4]
 1264 0934 FFF7FEFF 		bl	__aeabi_lmul
 1265 0938 031C     		mov	r3, r0
 1266 093a 0C1C     		mov	r4, r1
 1267 093c 9422     		mov	r2, #148
 1268 093e D200     		lsl	r2, r2, #3
 1269 0940 BA18     		add	r2, r7, r2
 1270 0942 1168     		ldr	r1, [r2]
 1271 0944 5268     		ldr	r2, [r2, #4]
 1272 0946 5B18     		add	r3, r3, r1
 1273 0948 5441     		adc	r4, r4, r2
 1274 094a 2200     		asr	r2, r4, #0
 1275 094c 9121     		mov	r1, #145
 1276 094e C900     		lsl	r1, r1, #3
 1277 0950 7918     		add	r1, r7, r1
 1278 0952 0A60     		str	r2, [r1]
 1279 0954 E317     		asr	r3, r4, #31
 1280 0956 8C4A     		ldr	r2, .L39+60
 1281 0958 BA18     		add	r2, r7, r2
 1282 095a 1360     		str	r3, [r2]
 1283 095c 9123     		mov	r3, #145
 1284 095e DB00     		lsl	r3, r3, #3
 1285 0960 FB18     		add	r3, r7, r3
 1286 0962 1B68     		ldr	r3, [r3]
 1287 0964 794A     		ldr	r2, .L39
 1288 0966 BA18     		add	r2, r7, r2
 1289 0968 1360     		str	r3, [r2]
ARM GAS  C:\Users\fneves\AppData\Local\Temp\ccE35dyd.s 			page 29


 295:Source\FilteringFunctions/arm_correlate_fast_q31.c ****         /* acc2 +=  x[2] * y[0] */
 296:Source\FilteringFunctions/arm_correlate_fast_q31.c ****         acc2 = (q31_t) ((((q63_t) acc2 << 32) + ((q63_t) x2 * c0)) >> 32);
 1290              		.loc 1 296 0 discriminator 1
 1291 096a BD23     		mov	r3, #189
 1292 096c DB00     		lsl	r3, r3, #3
 1293 096e FB18     		add	r3, r7, r3
 1294 0970 1B68     		ldr	r3, [r3]
 1295 0972 9022     		mov	r2, #144
 1296 0974 D200     		lsl	r2, r2, #3
 1297 0976 BA18     		add	r2, r7, r2
 1298 0978 1360     		str	r3, [r2]
 1299 097a DB17     		asr	r3, r3, #31
 1300 097c 834A     		ldr	r2, .L39+64
 1301 097e BA18     		add	r2, r7, r2
 1302 0980 1360     		str	r3, [r2]
 1303 0982 9023     		mov	r3, #144
 1304 0984 DB00     		lsl	r3, r3, #3
 1305 0986 FB18     		add	r3, r7, r3
 1306 0988 1B68     		ldr	r3, [r3]
 1307 098a 1B00     		lsl	r3, r3, #0
 1308 098c 804A     		ldr	r2, .L39+68
 1309 098e BA18     		add	r2, r7, r2
 1310 0990 1360     		str	r3, [r2]
 1311 0992 0023     		mov	r3, #0
 1312 0994 8F22     		mov	r2, #143
 1313 0996 D200     		lsl	r2, r2, #3
 1314 0998 BA18     		add	r2, r7, r2
 1315 099a 1360     		str	r3, [r2]
 1316 099c BB23     		mov	r3, #187
 1317 099e DB00     		lsl	r3, r3, #3
 1318 09a0 FB18     		add	r3, r7, r3
 1319 09a2 1B68     		ldr	r3, [r3]
 1320 09a4 8E22     		mov	r2, #142
 1321 09a6 D200     		lsl	r2, r2, #3
 1322 09a8 BA18     		add	r2, r7, r2
 1323 09aa 1360     		str	r3, [r2]
 1324 09ac DB17     		asr	r3, r3, #31
 1325 09ae 794A     		ldr	r2, .L39+72
 1326 09b0 BA18     		add	r2, r7, r2
 1327 09b2 1360     		str	r3, [r2]
 1328 09b4 B623     		mov	r3, #182
 1329 09b6 DB00     		lsl	r3, r3, #3
 1330 09b8 FB18     		add	r3, r7, r3
 1331 09ba 1B68     		ldr	r3, [r3]
 1332 09bc 8D22     		mov	r2, #141
 1333 09be D200     		lsl	r2, r2, #3
 1334 09c0 BA18     		add	r2, r7, r2
 1335 09c2 1360     		str	r3, [r2]
 1336 09c4 DB17     		asr	r3, r3, #31
 1337 09c6 744A     		ldr	r2, .L39+76
 1338 09c8 BA18     		add	r2, r7, r2
 1339 09ca 1360     		str	r3, [r2]
 1340 09cc 8E23     		mov	r3, #142
 1341 09ce DB00     		lsl	r3, r3, #3
 1342 09d0 FB18     		add	r3, r7, r3
 1343 09d2 1868     		ldr	r0, [r3]
 1344 09d4 5968     		ldr	r1, [r3, #4]
ARM GAS  C:\Users\fneves\AppData\Local\Temp\ccE35dyd.s 			page 30


 1345 09d6 8D23     		mov	r3, #141
 1346 09d8 DB00     		lsl	r3, r3, #3
 1347 09da FB18     		add	r3, r7, r3
 1348 09dc 1A68     		ldr	r2, [r3]
 1349 09de 5B68     		ldr	r3, [r3, #4]
 1350 09e0 FFF7FEFF 		bl	__aeabi_lmul
 1351 09e4 031C     		mov	r3, r0
 1352 09e6 0C1C     		mov	r4, r1
 1353 09e8 8F22     		mov	r2, #143
 1354 09ea D200     		lsl	r2, r2, #3
 1355 09ec BA18     		add	r2, r7, r2
 1356 09ee 1168     		ldr	r1, [r2]
 1357 09f0 5268     		ldr	r2, [r2, #4]
 1358 09f2 5B18     		add	r3, r3, r1
 1359 09f4 5441     		adc	r4, r4, r2
 1360 09f6 2200     		asr	r2, r4, #0
 1361 09f8 8C21     		mov	r1, #140
 1362 09fa C900     		lsl	r1, r1, #3
 1363 09fc 7918     		add	r1, r7, r1
 1364 09fe 0A60     		str	r2, [r1]
 1365 0a00 E317     		asr	r3, r4, #31
 1366 0a02 664A     		ldr	r2, .L39+80
 1367 0a04 BA18     		add	r2, r7, r2
 1368 0a06 1360     		str	r3, [r2]
 1369 0a08 8C23     		mov	r3, #140
 1370 0a0a DB00     		lsl	r3, r3, #3
 1371 0a0c FB18     		add	r3, r7, r3
 1372 0a0e 1B68     		ldr	r3, [r3]
 1373 0a10 BD22     		mov	r2, #189
 1374 0a12 D200     		lsl	r2, r2, #3
 1375 0a14 BA18     		add	r2, r7, r2
 1376 0a16 1360     		str	r3, [r2]
 297:Source\FilteringFunctions/arm_correlate_fast_q31.c ****         /* acc3 +=  x[3] * y[0] */
 298:Source\FilteringFunctions/arm_correlate_fast_q31.c ****         acc3 = (q31_t) ((((q63_t) acc3 << 32) + ((q63_t) x3 * c0)) >> 32);
 1377              		.loc 1 298 0 discriminator 1
 1378 0a18 4D4B     		ldr	r3, .L39+4
 1379 0a1a FB18     		add	r3, r7, r3
 1380 0a1c 1B68     		ldr	r3, [r3]
 1381 0a1e 8B22     		mov	r2, #139
 1382 0a20 D200     		lsl	r2, r2, #3
 1383 0a22 BA18     		add	r2, r7, r2
 1384 0a24 1360     		str	r3, [r2]
 1385 0a26 DB17     		asr	r3, r3, #31
 1386 0a28 5D4A     		ldr	r2, .L39+84
 1387 0a2a BA18     		add	r2, r7, r2
 1388 0a2c 1360     		str	r3, [r2]
 1389 0a2e 8B23     		mov	r3, #139
 1390 0a30 DB00     		lsl	r3, r3, #3
 1391 0a32 FB18     		add	r3, r7, r3
 1392 0a34 1B68     		ldr	r3, [r3]
 1393 0a36 1B00     		lsl	r3, r3, #0
 1394 0a38 5A4A     		ldr	r2, .L39+88
 1395 0a3a BA18     		add	r2, r7, r2
 1396 0a3c 1360     		str	r3, [r2]
 1397 0a3e 0023     		mov	r3, #0
 1398 0a40 8A22     		mov	r2, #138
 1399 0a42 D200     		lsl	r2, r2, #3
ARM GAS  C:\Users\fneves\AppData\Local\Temp\ccE35dyd.s 			page 31


 1400 0a44 BA18     		add	r2, r7, r2
 1401 0a46 1360     		str	r3, [r2]
 1402 0a48 454B     		ldr	r3, .L39+20
 1403 0a4a FB18     		add	r3, r7, r3
 1404 0a4c 1B68     		ldr	r3, [r3]
 1405 0a4e 8922     		mov	r2, #137
 1406 0a50 D200     		lsl	r2, r2, #3
 1407 0a52 BA18     		add	r2, r7, r2
 1408 0a54 1360     		str	r3, [r2]
 1409 0a56 DB17     		asr	r3, r3, #31
 1410 0a58 534A     		ldr	r2, .L39+92
 1411 0a5a BA18     		add	r2, r7, r2
 1412 0a5c 1360     		str	r3, [r2]
 1413 0a5e B623     		mov	r3, #182
 1414 0a60 DB00     		lsl	r3, r3, #3
 1415 0a62 FB18     		add	r3, r7, r3
 1416 0a64 1B68     		ldr	r3, [r3]
 1417 0a66 8822     		mov	r2, #136
 1418 0a68 D200     		lsl	r2, r2, #3
 1419 0a6a BA18     		add	r2, r7, r2
 1420 0a6c 1360     		str	r3, [r2]
 1421 0a6e DB17     		asr	r3, r3, #31
 1422 0a70 4E4A     		ldr	r2, .L39+96
 1423 0a72 BA18     		add	r2, r7, r2
 1424 0a74 1360     		str	r3, [r2]
 1425 0a76 8923     		mov	r3, #137
 1426 0a78 DB00     		lsl	r3, r3, #3
 1427 0a7a FB18     		add	r3, r7, r3
 1428 0a7c 1868     		ldr	r0, [r3]
 1429 0a7e 5968     		ldr	r1, [r3, #4]
 1430 0a80 8823     		mov	r3, #136
 1431 0a82 DB00     		lsl	r3, r3, #3
 1432 0a84 FB18     		add	r3, r7, r3
 1433 0a86 1A68     		ldr	r2, [r3]
 1434 0a88 5B68     		ldr	r3, [r3, #4]
 1435 0a8a FFF7FEFF 		bl	__aeabi_lmul
 1436 0a8e 031C     		mov	r3, r0
 1437 0a90 0C1C     		mov	r4, r1
 1438 0a92 8A22     		mov	r2, #138
 1439 0a94 D200     		lsl	r2, r2, #3
 1440 0a96 BA18     		add	r2, r7, r2
 1441 0a98 1168     		ldr	r1, [r2]
 1442 0a9a 5268     		ldr	r2, [r2, #4]
 1443 0a9c 5B18     		add	r3, r3, r1
 1444 0a9e 5441     		adc	r4, r4, r2
 1445 0aa0 2200     		asr	r2, r4, #0
 1446 0aa2 8721     		mov	r1, #135
 1447 0aa4 C900     		lsl	r1, r1, #3
 1448 0aa6 7918     		add	r1, r7, r1
 1449 0aa8 0A60     		str	r2, [r1]
 1450 0aaa E317     		asr	r3, r4, #31
 1451 0aac 404A     		ldr	r2, .L39+100
 1452 0aae BA18     		add	r2, r7, r2
 1453 0ab0 1360     		str	r3, [r2]
 1454 0ab2 8723     		mov	r3, #135
 1455 0ab4 DB00     		lsl	r3, r3, #3
 1456 0ab6 FB18     		add	r3, r7, r3
ARM GAS  C:\Users\fneves\AppData\Local\Temp\ccE35dyd.s 			page 32


 1457 0ab8 1B68     		ldr	r3, [r3]
 1458 0aba 254A     		ldr	r2, .L39+4
 1459 0abc BA18     		add	r2, r7, r2
 1460 0abe 1360     		str	r3, [r2]
 299:Source\FilteringFunctions/arm_correlate_fast_q31.c **** 
 300:Source\FilteringFunctions/arm_correlate_fast_q31.c ****         /* Read y[1] sample */
 301:Source\FilteringFunctions/arm_correlate_fast_q31.c ****         c0 = *(py++);
 1461              		.loc 1 301 0 discriminator 1
 1462 0ac0 264B     		ldr	r3, .L39+16
 1463 0ac2 FB18     		add	r3, r7, r3
 1464 0ac4 1A68     		ldr	r2, [r3]
 1465 0ac6 131D     		add	r3, r2, #4
 1466 0ac8 2449     		ldr	r1, .L39+16
 1467 0aca 7918     		add	r1, r7, r1
 1468 0acc 0B60     		str	r3, [r1]
 1469 0ace 1368     		ldr	r3, [r2]
 1470 0ad0 B622     		mov	r2, #182
 1471 0ad2 D200     		lsl	r2, r2, #3
 1472 0ad4 BA18     		add	r2, r7, r2
 1473 0ad6 1360     		str	r3, [r2]
 302:Source\FilteringFunctions/arm_correlate_fast_q31.c **** 
 303:Source\FilteringFunctions/arm_correlate_fast_q31.c ****         /* Read x[4] sample */
 304:Source\FilteringFunctions/arm_correlate_fast_q31.c ****         x0 = *(px++);
 1474              		.loc 1 304 0 discriminator 1
 1475 0ad8 C023     		mov	r3, #192
 1476 0ada DB00     		lsl	r3, r3, #3
 1477 0adc FB18     		add	r3, r7, r3
 1478 0ade 1A68     		ldr	r2, [r3]
 1479 0ae0 131D     		add	r3, r2, #4
 1480 0ae2 C021     		mov	r1, #192
 1481 0ae4 C900     		lsl	r1, r1, #3
 1482 0ae6 7918     		add	r1, r7, r1
 1483 0ae8 0B60     		str	r3, [r1]
 1484 0aea 1368     		ldr	r3, [r2]
 1485 0aec BC22     		mov	r2, #188
 1486 0aee D200     		lsl	r2, r2, #3
 1487 0af0 BA18     		add	r2, r7, r2
 1488 0af2 1360     		str	r3, [r2]
 305:Source\FilteringFunctions/arm_correlate_fast_q31.c **** 
 306:Source\FilteringFunctions/arm_correlate_fast_q31.c ****         /* Perform the multiply-accumulates */
 307:Source\FilteringFunctions/arm_correlate_fast_q31.c ****         /* acc0 +=  x[1] * y[1] */
 308:Source\FilteringFunctions/arm_correlate_fast_q31.c ****         acc0 = (q31_t) ((((q63_t) acc0 << 32) + ((q63_t) x1 * c0)) >> 32);
 1489              		.loc 1 308 0 discriminator 1
 1490 0af4 BE23     		mov	r3, #190
 1491 0af6 DB00     		lsl	r3, r3, #3
 1492 0af8 FB18     		add	r3, r7, r3
 1493 0afa 1B68     		ldr	r3, [r3]
 1494 0afc 8622     		mov	r2, #134
 1495 0afe D200     		lsl	r2, r2, #3
 1496 0b00 BA18     		add	r2, r7, r2
 1497 0b02 1360     		str	r3, [r2]
 1498 0b04 DB17     		asr	r3, r3, #31
 1499 0b06 2B4A     		ldr	r2, .L39+104
 1500 0b08 BA18     		add	r2, r7, r2
 1501 0b0a 1360     		str	r3, [r2]
 1502 0b0c 8623     		mov	r3, #134
 1503 0b0e DB00     		lsl	r3, r3, #3
ARM GAS  C:\Users\fneves\AppData\Local\Temp\ccE35dyd.s 			page 33


 1504 0b10 FB18     		add	r3, r7, r3
 1505 0b12 1B68     		ldr	r3, [r3]
 1506 0b14 1B00     		lsl	r3, r3, #0
 1507 0b16 284A     		ldr	r2, .L39+108
 1508 0b18 BA18     		add	r2, r7, r2
 1509 0b1a 1360     		str	r3, [r2]
 1510 0b1c 0023     		mov	r3, #0
 1511 0b1e 8522     		mov	r2, #133
 1512 0b20 D200     		lsl	r2, r2, #3
 1513 0b22 BA18     		add	r2, r7, r2
 1514 0b24 1360     		str	r3, [r2]
 1515 0b26 0B4B     		ldr	r3, .L39+8
 1516 0b28 FB18     		add	r3, r7, r3
 1517 0b2a 1B68     		ldr	r3, [r3]
 1518 0b2c 8422     		mov	r2, #132
 1519 0b2e D200     		lsl	r2, r2, #3
 1520 0b30 BA18     		add	r2, r7, r2
 1521 0b32 1360     		str	r3, [r2]
 1522 0b34 DB17     		asr	r3, r3, #31
 1523 0b36 214A     		ldr	r2, .L39+112
 1524 0b38 BA18     		add	r2, r7, r2
 1525 0b3a 1360     		str	r3, [r2]
 1526 0b3c B623     		mov	r3, #182
 1527 0b3e DB00     		lsl	r3, r3, #3
 1528 0b40 FB18     		add	r3, r7, r3
 1529 0b42 1B68     		ldr	r3, [r3]
 1530 0b44 8322     		mov	r2, #131
 1531 0b46 D200     		lsl	r2, r2, #3
 1532 0b48 3AE0     		b	.L40
 1533              	.L41:
 1534 0b4a C046     		.align	2
 1535              	.L39:
 1536 0b4c EC050000 		.word	1516
 1537 0b50 E4050000 		.word	1508
 1538 0b54 DC050000 		.word	1500
 1539 0b58 D4050000 		.word	1492
 1540 0b5c FC050000 		.word	1532
 1541 0b60 AC050000 		.word	1452
 1542 0b64 D4040000 		.word	1236
 1543 0b68 CC040000 		.word	1228
 1544 0b6c C4040000 		.word	1220
 1545 0b70 BC040000 		.word	1212
 1546 0b74 B4040000 		.word	1204
 1547 0b78 AC040000 		.word	1196
 1548 0b7c A4040000 		.word	1188
 1549 0b80 9C040000 		.word	1180
 1550 0b84 94040000 		.word	1172
 1551 0b88 8C040000 		.word	1164
 1552 0b8c 84040000 		.word	1156
 1553 0b90 7C040000 		.word	1148
 1554 0b94 74040000 		.word	1140
 1555 0b98 6C040000 		.word	1132
 1556 0b9c 64040000 		.word	1124
 1557 0ba0 5C040000 		.word	1116
 1558 0ba4 54040000 		.word	1108
 1559 0ba8 4C040000 		.word	1100
 1560 0bac 44040000 		.word	1092
ARM GAS  C:\Users\fneves\AppData\Local\Temp\ccE35dyd.s 			page 34


 1561 0bb0 3C040000 		.word	1084
 1562 0bb4 34040000 		.word	1076
 1563 0bb8 2C040000 		.word	1068
 1564 0bbc 24040000 		.word	1060
 1565              	.L40:
 1566 0bc0 BA18     		add	r2, r7, r2
 1567 0bc2 1360     		str	r3, [r2]
 1568 0bc4 DB17     		asr	r3, r3, #31
 1569 0bc6 F64A     		ldr	r2, .L42
 1570 0bc8 BA18     		add	r2, r7, r2
 1571 0bca 1360     		str	r3, [r2]
 1572 0bcc 8423     		mov	r3, #132
 1573 0bce DB00     		lsl	r3, r3, #3
 1574 0bd0 FB18     		add	r3, r7, r3
 1575 0bd2 1868     		ldr	r0, [r3]
 1576 0bd4 5968     		ldr	r1, [r3, #4]
 1577 0bd6 8323     		mov	r3, #131
 1578 0bd8 DB00     		lsl	r3, r3, #3
 1579 0bda FB18     		add	r3, r7, r3
 1580 0bdc 1A68     		ldr	r2, [r3]
 1581 0bde 5B68     		ldr	r3, [r3, #4]
 1582 0be0 FFF7FEFF 		bl	__aeabi_lmul
 1583 0be4 031C     		mov	r3, r0
 1584 0be6 0C1C     		mov	r4, r1
 1585 0be8 8522     		mov	r2, #133
 1586 0bea D200     		lsl	r2, r2, #3
 1587 0bec BA18     		add	r2, r7, r2
 1588 0bee 1168     		ldr	r1, [r2]
 1589 0bf0 5268     		ldr	r2, [r2, #4]
 1590 0bf2 5B18     		add	r3, r3, r1
 1591 0bf4 5441     		adc	r4, r4, r2
 1592 0bf6 2200     		asr	r2, r4, #0
 1593 0bf8 8221     		mov	r1, #130
 1594 0bfa C900     		lsl	r1, r1, #3
 1595 0bfc 7918     		add	r1, r7, r1
 1596 0bfe 0A60     		str	r2, [r1]
 1597 0c00 E317     		asr	r3, r4, #31
 1598 0c02 E84A     		ldr	r2, .L42+4
 1599 0c04 BA18     		add	r2, r7, r2
 1600 0c06 1360     		str	r3, [r2]
 1601 0c08 8223     		mov	r3, #130
 1602 0c0a DB00     		lsl	r3, r3, #3
 1603 0c0c FB18     		add	r3, r7, r3
 1604 0c0e 1B68     		ldr	r3, [r3]
 1605 0c10 BE22     		mov	r2, #190
 1606 0c12 D200     		lsl	r2, r2, #3
 1607 0c14 BA18     		add	r2, r7, r2
 1608 0c16 1360     		str	r3, [r2]
 309:Source\FilteringFunctions/arm_correlate_fast_q31.c ****         /* acc1 +=  x[2] * y[1] */
 310:Source\FilteringFunctions/arm_correlate_fast_q31.c ****         acc1 = (q31_t) ((((q63_t) acc1 << 32) + ((q63_t) x2 * c0)) >> 32);
 1609              		.loc 1 310 0 discriminator 1
 1610 0c18 E34B     		ldr	r3, .L42+8
 1611 0c1a FB18     		add	r3, r7, r3
 1612 0c1c 1B68     		ldr	r3, [r3]
 1613 0c1e 8122     		mov	r2, #129
 1614 0c20 D200     		lsl	r2, r2, #3
 1615 0c22 BA18     		add	r2, r7, r2
ARM GAS  C:\Users\fneves\AppData\Local\Temp\ccE35dyd.s 			page 35


 1616 0c24 1360     		str	r3, [r2]
 1617 0c26 DB17     		asr	r3, r3, #31
 1618 0c28 E04A     		ldr	r2, .L42+12
 1619 0c2a BA18     		add	r2, r7, r2
 1620 0c2c 1360     		str	r3, [r2]
 1621 0c2e 8123     		mov	r3, #129
 1622 0c30 DB00     		lsl	r3, r3, #3
 1623 0c32 FB18     		add	r3, r7, r3
 1624 0c34 1B68     		ldr	r3, [r3]
 1625 0c36 1B00     		lsl	r3, r3, #0
 1626 0c38 DD4A     		ldr	r2, .L42+16
 1627 0c3a BA18     		add	r2, r7, r2
 1628 0c3c 1360     		str	r3, [r2]
 1629 0c3e 0023     		mov	r3, #0
 1630 0c40 8022     		mov	r2, #128
 1631 0c42 D200     		lsl	r2, r2, #3
 1632 0c44 BA18     		add	r2, r7, r2
 1633 0c46 1360     		str	r3, [r2]
 1634 0c48 BB23     		mov	r3, #187
 1635 0c4a DB00     		lsl	r3, r3, #3
 1636 0c4c FB18     		add	r3, r7, r3
 1637 0c4e 1B68     		ldr	r3, [r3]
 1638 0c50 FE22     		mov	r2, #254
 1639 0c52 9200     		lsl	r2, r2, #2
 1640 0c54 BA18     		add	r2, r7, r2
 1641 0c56 1360     		str	r3, [r2]
 1642 0c58 DB17     		asr	r3, r3, #31
 1643 0c5a FF22     		mov	r2, #255
 1644 0c5c 9200     		lsl	r2, r2, #2
 1645 0c5e BA18     		add	r2, r7, r2
 1646 0c60 1360     		str	r3, [r2]
 1647 0c62 B623     		mov	r3, #182
 1648 0c64 DB00     		lsl	r3, r3, #3
 1649 0c66 FB18     		add	r3, r7, r3
 1650 0c68 1B68     		ldr	r3, [r3]
 1651 0c6a FC22     		mov	r2, #252
 1652 0c6c 9200     		lsl	r2, r2, #2
 1653 0c6e BA18     		add	r2, r7, r2
 1654 0c70 1360     		str	r3, [r2]
 1655 0c72 DB17     		asr	r3, r3, #31
 1656 0c74 FD22     		mov	r2, #253
 1657 0c76 9200     		lsl	r2, r2, #2
 1658 0c78 BA18     		add	r2, r7, r2
 1659 0c7a 1360     		str	r3, [r2]
 1660 0c7c FE23     		mov	r3, #254
 1661 0c7e 9B00     		lsl	r3, r3, #2
 1662 0c80 FB18     		add	r3, r7, r3
 1663 0c82 1868     		ldr	r0, [r3]
 1664 0c84 5968     		ldr	r1, [r3, #4]
 1665 0c86 FC23     		mov	r3, #252
 1666 0c88 9B00     		lsl	r3, r3, #2
 1667 0c8a FB18     		add	r3, r7, r3
 1668 0c8c 1A68     		ldr	r2, [r3]
 1669 0c8e 5B68     		ldr	r3, [r3, #4]
 1670 0c90 FFF7FEFF 		bl	__aeabi_lmul
 1671 0c94 031C     		mov	r3, r0
 1672 0c96 0C1C     		mov	r4, r1
ARM GAS  C:\Users\fneves\AppData\Local\Temp\ccE35dyd.s 			page 36


 1673 0c98 8022     		mov	r2, #128
 1674 0c9a D200     		lsl	r2, r2, #3
 1675 0c9c BA18     		add	r2, r7, r2
 1676 0c9e 1168     		ldr	r1, [r2]
 1677 0ca0 5268     		ldr	r2, [r2, #4]
 1678 0ca2 5B18     		add	r3, r3, r1
 1679 0ca4 5441     		adc	r4, r4, r2
 1680 0ca6 2200     		asr	r2, r4, #0
 1681 0ca8 FA21     		mov	r1, #250
 1682 0caa 8900     		lsl	r1, r1, #2
 1683 0cac 7918     		add	r1, r7, r1
 1684 0cae 0A60     		str	r2, [r1]
 1685 0cb0 E317     		asr	r3, r4, #31
 1686 0cb2 FB22     		mov	r2, #251
 1687 0cb4 9200     		lsl	r2, r2, #2
 1688 0cb6 BA18     		add	r2, r7, r2
 1689 0cb8 1360     		str	r3, [r2]
 1690 0cba FA23     		mov	r3, #250
 1691 0cbc 9B00     		lsl	r3, r3, #2
 1692 0cbe FB18     		add	r3, r7, r3
 1693 0cc0 1B68     		ldr	r3, [r3]
 1694 0cc2 B94A     		ldr	r2, .L42+8
 1695 0cc4 BA18     		add	r2, r7, r2
 1696 0cc6 1360     		str	r3, [r2]
 311:Source\FilteringFunctions/arm_correlate_fast_q31.c ****         /* acc2 +=  x[3] * y[1] */
 312:Source\FilteringFunctions/arm_correlate_fast_q31.c ****         acc2 = (q31_t) ((((q63_t) acc2 << 32) + ((q63_t) x3 * c0)) >> 32);
 1697              		.loc 1 312 0 discriminator 1
 1698 0cc8 BD23     		mov	r3, #189
 1699 0cca DB00     		lsl	r3, r3, #3
 1700 0ccc FB18     		add	r3, r7, r3
 1701 0cce 1B68     		ldr	r3, [r3]
 1702 0cd0 F822     		mov	r2, #248
 1703 0cd2 9200     		lsl	r2, r2, #2
 1704 0cd4 BA18     		add	r2, r7, r2
 1705 0cd6 1360     		str	r3, [r2]
 1706 0cd8 DB17     		asr	r3, r3, #31
 1707 0cda F922     		mov	r2, #249
 1708 0cdc 9200     		lsl	r2, r2, #2
 1709 0cde BA18     		add	r2, r7, r2
 1710 0ce0 1360     		str	r3, [r2]
 1711 0ce2 F823     		mov	r3, #248
 1712 0ce4 9B00     		lsl	r3, r3, #2
 1713 0ce6 FB18     		add	r3, r7, r3
 1714 0ce8 1B68     		ldr	r3, [r3]
 1715 0cea 1B00     		lsl	r3, r3, #0
 1716 0cec F722     		mov	r2, #247
 1717 0cee 9200     		lsl	r2, r2, #2
 1718 0cf0 BA18     		add	r2, r7, r2
 1719 0cf2 1360     		str	r3, [r2]
 1720 0cf4 0023     		mov	r3, #0
 1721 0cf6 F622     		mov	r2, #246
 1722 0cf8 9200     		lsl	r2, r2, #2
 1723 0cfa BA18     		add	r2, r7, r2
 1724 0cfc 1360     		str	r3, [r2]
 1725 0cfe AD4B     		ldr	r3, .L42+20
 1726 0d00 FB18     		add	r3, r7, r3
 1727 0d02 1B68     		ldr	r3, [r3]
ARM GAS  C:\Users\fneves\AppData\Local\Temp\ccE35dyd.s 			page 37


 1728 0d04 F422     		mov	r2, #244
 1729 0d06 9200     		lsl	r2, r2, #2
 1730 0d08 BA18     		add	r2, r7, r2
 1731 0d0a 1360     		str	r3, [r2]
 1732 0d0c DB17     		asr	r3, r3, #31
 1733 0d0e F522     		mov	r2, #245
 1734 0d10 9200     		lsl	r2, r2, #2
 1735 0d12 BA18     		add	r2, r7, r2
 1736 0d14 1360     		str	r3, [r2]
 1737 0d16 B623     		mov	r3, #182
 1738 0d18 DB00     		lsl	r3, r3, #3
 1739 0d1a FB18     		add	r3, r7, r3
 1740 0d1c 1B68     		ldr	r3, [r3]
 1741 0d1e F222     		mov	r2, #242
 1742 0d20 9200     		lsl	r2, r2, #2
 1743 0d22 BA18     		add	r2, r7, r2
 1744 0d24 1360     		str	r3, [r2]
 1745 0d26 DB17     		asr	r3, r3, #31
 1746 0d28 F322     		mov	r2, #243
 1747 0d2a 9200     		lsl	r2, r2, #2
 1748 0d2c BA18     		add	r2, r7, r2
 1749 0d2e 1360     		str	r3, [r2]
 1750 0d30 F423     		mov	r3, #244
 1751 0d32 9B00     		lsl	r3, r3, #2
 1752 0d34 FB18     		add	r3, r7, r3
 1753 0d36 1868     		ldr	r0, [r3]
 1754 0d38 5968     		ldr	r1, [r3, #4]
 1755 0d3a F223     		mov	r3, #242
 1756 0d3c 9B00     		lsl	r3, r3, #2
 1757 0d3e FB18     		add	r3, r7, r3
 1758 0d40 1A68     		ldr	r2, [r3]
 1759 0d42 5B68     		ldr	r3, [r3, #4]
 1760 0d44 FFF7FEFF 		bl	__aeabi_lmul
 1761 0d48 031C     		mov	r3, r0
 1762 0d4a 0C1C     		mov	r4, r1
 1763 0d4c F622     		mov	r2, #246
 1764 0d4e 9200     		lsl	r2, r2, #2
 1765 0d50 BA18     		add	r2, r7, r2
 1766 0d52 1168     		ldr	r1, [r2]
 1767 0d54 5268     		ldr	r2, [r2, #4]
 1768 0d56 5B18     		add	r3, r3, r1
 1769 0d58 5441     		adc	r4, r4, r2
 1770 0d5a 2200     		asr	r2, r4, #0
 1771 0d5c F021     		mov	r1, #240
 1772 0d5e 8900     		lsl	r1, r1, #2
 1773 0d60 7918     		add	r1, r7, r1
 1774 0d62 0A60     		str	r2, [r1]
 1775 0d64 E317     		asr	r3, r4, #31
 1776 0d66 F122     		mov	r2, #241
 1777 0d68 9200     		lsl	r2, r2, #2
 1778 0d6a BA18     		add	r2, r7, r2
 1779 0d6c 1360     		str	r3, [r2]
 1780 0d6e F023     		mov	r3, #240
 1781 0d70 9B00     		lsl	r3, r3, #2
 1782 0d72 FB18     		add	r3, r7, r3
 1783 0d74 1B68     		ldr	r3, [r3]
 1784 0d76 BD22     		mov	r2, #189
ARM GAS  C:\Users\fneves\AppData\Local\Temp\ccE35dyd.s 			page 38


 1785 0d78 D200     		lsl	r2, r2, #3
 1786 0d7a BA18     		add	r2, r7, r2
 1787 0d7c 1360     		str	r3, [r2]
 313:Source\FilteringFunctions/arm_correlate_fast_q31.c ****         /* acc3 +=  x[4] * y[1] */
 314:Source\FilteringFunctions/arm_correlate_fast_q31.c ****         acc3 = (q31_t) ((((q63_t) acc3 << 32) + ((q63_t) x0 * c0)) >> 32);
 1788              		.loc 1 314 0 discriminator 1
 1789 0d7e 8E4B     		ldr	r3, .L42+24
 1790 0d80 FB18     		add	r3, r7, r3
 1791 0d82 1B68     		ldr	r3, [r3]
 1792 0d84 EE22     		mov	r2, #238
 1793 0d86 9200     		lsl	r2, r2, #2
 1794 0d88 BA18     		add	r2, r7, r2
 1795 0d8a 1360     		str	r3, [r2]
 1796 0d8c DB17     		asr	r3, r3, #31
 1797 0d8e EF22     		mov	r2, #239
 1798 0d90 9200     		lsl	r2, r2, #2
 1799 0d92 BA18     		add	r2, r7, r2
 1800 0d94 1360     		str	r3, [r2]
 1801 0d96 EE23     		mov	r3, #238
 1802 0d98 9B00     		lsl	r3, r3, #2
 1803 0d9a FB18     		add	r3, r7, r3
 1804 0d9c 1B68     		ldr	r3, [r3]
 1805 0d9e 1B00     		lsl	r3, r3, #0
 1806 0da0 ED22     		mov	r2, #237
 1807 0da2 9200     		lsl	r2, r2, #2
 1808 0da4 BA18     		add	r2, r7, r2
 1809 0da6 1360     		str	r3, [r2]
 1810 0da8 0023     		mov	r3, #0
 1811 0daa EC22     		mov	r2, #236
 1812 0dac 9200     		lsl	r2, r2, #2
 1813 0dae BA18     		add	r2, r7, r2
 1814 0db0 1360     		str	r3, [r2]
 1815 0db2 BC23     		mov	r3, #188
 1816 0db4 DB00     		lsl	r3, r3, #3
 1817 0db6 FB18     		add	r3, r7, r3
 1818 0db8 1B68     		ldr	r3, [r3]
 1819 0dba EA22     		mov	r2, #234
 1820 0dbc 9200     		lsl	r2, r2, #2
 1821 0dbe BA18     		add	r2, r7, r2
 1822 0dc0 1360     		str	r3, [r2]
 1823 0dc2 DB17     		asr	r3, r3, #31
 1824 0dc4 EB22     		mov	r2, #235
 1825 0dc6 9200     		lsl	r2, r2, #2
 1826 0dc8 BA18     		add	r2, r7, r2
 1827 0dca 1360     		str	r3, [r2]
 1828 0dcc B623     		mov	r3, #182
 1829 0dce DB00     		lsl	r3, r3, #3
 1830 0dd0 FB18     		add	r3, r7, r3
 1831 0dd2 1B68     		ldr	r3, [r3]
 1832 0dd4 E822     		mov	r2, #232
 1833 0dd6 9200     		lsl	r2, r2, #2
 1834 0dd8 BA18     		add	r2, r7, r2
 1835 0dda 1360     		str	r3, [r2]
 1836 0ddc DB17     		asr	r3, r3, #31
 1837 0dde E922     		mov	r2, #233
 1838 0de0 9200     		lsl	r2, r2, #2
 1839 0de2 BA18     		add	r2, r7, r2
ARM GAS  C:\Users\fneves\AppData\Local\Temp\ccE35dyd.s 			page 39


 1840 0de4 1360     		str	r3, [r2]
 1841 0de6 EA23     		mov	r3, #234
 1842 0de8 9B00     		lsl	r3, r3, #2
 1843 0dea FB18     		add	r3, r7, r3
 1844 0dec 1868     		ldr	r0, [r3]
 1845 0dee 5968     		ldr	r1, [r3, #4]
 1846 0df0 E823     		mov	r3, #232
 1847 0df2 9B00     		lsl	r3, r3, #2
 1848 0df4 FB18     		add	r3, r7, r3
 1849 0df6 1A68     		ldr	r2, [r3]
 1850 0df8 5B68     		ldr	r3, [r3, #4]
 1851 0dfa FFF7FEFF 		bl	__aeabi_lmul
 1852 0dfe 031C     		mov	r3, r0
 1853 0e00 0C1C     		mov	r4, r1
 1854 0e02 EC22     		mov	r2, #236
 1855 0e04 9200     		lsl	r2, r2, #2
 1856 0e06 BA18     		add	r2, r7, r2
 1857 0e08 1168     		ldr	r1, [r2]
 1858 0e0a 5268     		ldr	r2, [r2, #4]
 1859 0e0c 5B18     		add	r3, r3, r1
 1860 0e0e 5441     		adc	r4, r4, r2
 1861 0e10 2200     		asr	r2, r4, #0
 1862 0e12 E621     		mov	r1, #230
 1863 0e14 8900     		lsl	r1, r1, #2
 1864 0e16 7918     		add	r1, r7, r1
 1865 0e18 0A60     		str	r2, [r1]
 1866 0e1a E317     		asr	r3, r4, #31
 1867 0e1c E722     		mov	r2, #231
 1868 0e1e 9200     		lsl	r2, r2, #2
 1869 0e20 BA18     		add	r2, r7, r2
 1870 0e22 1360     		str	r3, [r2]
 1871 0e24 E623     		mov	r3, #230
 1872 0e26 9B00     		lsl	r3, r3, #2
 1873 0e28 FB18     		add	r3, r7, r3
 1874 0e2a 1B68     		ldr	r3, [r3]
 1875 0e2c 624A     		ldr	r2, .L42+24
 1876 0e2e BA18     		add	r2, r7, r2
 1877 0e30 1360     		str	r3, [r2]
 315:Source\FilteringFunctions/arm_correlate_fast_q31.c **** 
 316:Source\FilteringFunctions/arm_correlate_fast_q31.c ****         /* Read y[2] sample */
 317:Source\FilteringFunctions/arm_correlate_fast_q31.c ****         c0 = *(py++);
 1878              		.loc 1 317 0 discriminator 1
 1879 0e32 624B     		ldr	r3, .L42+28
 1880 0e34 FB18     		add	r3, r7, r3
 1881 0e36 1A68     		ldr	r2, [r3]
 1882 0e38 131D     		add	r3, r2, #4
 1883 0e3a 6049     		ldr	r1, .L42+28
 1884 0e3c 7918     		add	r1, r7, r1
 1885 0e3e 0B60     		str	r3, [r1]
 1886 0e40 1368     		ldr	r3, [r2]
 1887 0e42 B622     		mov	r2, #182
 1888 0e44 D200     		lsl	r2, r2, #3
 1889 0e46 BA18     		add	r2, r7, r2
 1890 0e48 1360     		str	r3, [r2]
 318:Source\FilteringFunctions/arm_correlate_fast_q31.c **** 
 319:Source\FilteringFunctions/arm_correlate_fast_q31.c ****         /* Read x[5] sample */
 320:Source\FilteringFunctions/arm_correlate_fast_q31.c ****         x1 = *(px++);
ARM GAS  C:\Users\fneves\AppData\Local\Temp\ccE35dyd.s 			page 40


 1891              		.loc 1 320 0 discriminator 1
 1892 0e4a C023     		mov	r3, #192
 1893 0e4c DB00     		lsl	r3, r3, #3
 1894 0e4e FB18     		add	r3, r7, r3
 1895 0e50 1A68     		ldr	r2, [r3]
 1896 0e52 131D     		add	r3, r2, #4
 1897 0e54 C021     		mov	r1, #192
 1898 0e56 C900     		lsl	r1, r1, #3
 1899 0e58 7918     		add	r1, r7, r1
 1900 0e5a 0B60     		str	r3, [r1]
 1901 0e5c 1368     		ldr	r3, [r2]
 1902 0e5e 584A     		ldr	r2, .L42+32
 1903 0e60 BA18     		add	r2, r7, r2
 1904 0e62 1360     		str	r3, [r2]
 321:Source\FilteringFunctions/arm_correlate_fast_q31.c **** 
 322:Source\FilteringFunctions/arm_correlate_fast_q31.c ****         /* Perform the multiply-accumulates */
 323:Source\FilteringFunctions/arm_correlate_fast_q31.c ****         /* acc0 +=  x[2] * y[2] */
 324:Source\FilteringFunctions/arm_correlate_fast_q31.c ****         acc0 = (q31_t) ((((q63_t) acc0 << 32) + ((q63_t) x2 * c0)) >> 32);
 1905              		.loc 1 324 0 discriminator 1
 1906 0e64 BE23     		mov	r3, #190
 1907 0e66 DB00     		lsl	r3, r3, #3
 1908 0e68 FB18     		add	r3, r7, r3
 1909 0e6a 1B68     		ldr	r3, [r3]
 1910 0e6c E422     		mov	r2, #228
 1911 0e6e 9200     		lsl	r2, r2, #2
 1912 0e70 BA18     		add	r2, r7, r2
 1913 0e72 1360     		str	r3, [r2]
 1914 0e74 DB17     		asr	r3, r3, #31
 1915 0e76 E522     		mov	r2, #229
 1916 0e78 9200     		lsl	r2, r2, #2
 1917 0e7a BA18     		add	r2, r7, r2
 1918 0e7c 1360     		str	r3, [r2]
 1919 0e7e E423     		mov	r3, #228
 1920 0e80 9B00     		lsl	r3, r3, #2
 1921 0e82 FB18     		add	r3, r7, r3
 1922 0e84 1B68     		ldr	r3, [r3]
 1923 0e86 1B00     		lsl	r3, r3, #0
 1924 0e88 E322     		mov	r2, #227
 1925 0e8a 9200     		lsl	r2, r2, #2
 1926 0e8c BA18     		add	r2, r7, r2
 1927 0e8e 1360     		str	r3, [r2]
 1928 0e90 0023     		mov	r3, #0
 1929 0e92 E222     		mov	r2, #226
 1930 0e94 9200     		lsl	r2, r2, #2
 1931 0e96 BA18     		add	r2, r7, r2
 1932 0e98 1360     		str	r3, [r2]
 1933 0e9a BB23     		mov	r3, #187
 1934 0e9c DB00     		lsl	r3, r3, #3
 1935 0e9e FB18     		add	r3, r7, r3
 1936 0ea0 1B68     		ldr	r3, [r3]
 1937 0ea2 E022     		mov	r2, #224
 1938 0ea4 9200     		lsl	r2, r2, #2
 1939 0ea6 BA18     		add	r2, r7, r2
 1940 0ea8 1360     		str	r3, [r2]
 1941 0eaa DB17     		asr	r3, r3, #31
 1942 0eac E122     		mov	r2, #225
 1943 0eae 9200     		lsl	r2, r2, #2
ARM GAS  C:\Users\fneves\AppData\Local\Temp\ccE35dyd.s 			page 41


 1944 0eb0 BA18     		add	r2, r7, r2
 1945 0eb2 1360     		str	r3, [r2]
 1946 0eb4 B623     		mov	r3, #182
 1947 0eb6 DB00     		lsl	r3, r3, #3
 1948 0eb8 FB18     		add	r3, r7, r3
 1949 0eba 1B68     		ldr	r3, [r3]
 1950 0ebc DE22     		mov	r2, #222
 1951 0ebe 9200     		lsl	r2, r2, #2
 1952 0ec0 BA18     		add	r2, r7, r2
 1953 0ec2 1360     		str	r3, [r2]
 1954 0ec4 DB17     		asr	r3, r3, #31
 1955 0ec6 DF22     		mov	r2, #223
 1956 0ec8 9200     		lsl	r2, r2, #2
 1957 0eca BA18     		add	r2, r7, r2
 1958 0ecc 1360     		str	r3, [r2]
 1959 0ece E023     		mov	r3, #224
 1960 0ed0 9B00     		lsl	r3, r3, #2
 1961 0ed2 FB18     		add	r3, r7, r3
 1962 0ed4 1868     		ldr	r0, [r3]
 1963 0ed6 5968     		ldr	r1, [r3, #4]
 1964 0ed8 DE23     		mov	r3, #222
 1965 0eda 9B00     		lsl	r3, r3, #2
 1966 0edc FB18     		add	r3, r7, r3
 1967 0ede 1A68     		ldr	r2, [r3]
 1968 0ee0 5B68     		ldr	r3, [r3, #4]
 1969 0ee2 FFF7FEFF 		bl	__aeabi_lmul
 1970 0ee6 031C     		mov	r3, r0
 1971 0ee8 0C1C     		mov	r4, r1
 1972 0eea E222     		mov	r2, #226
 1973 0eec 9200     		lsl	r2, r2, #2
 1974 0eee BA18     		add	r2, r7, r2
 1975 0ef0 1168     		ldr	r1, [r2]
 1976 0ef2 5268     		ldr	r2, [r2, #4]
 1977 0ef4 5B18     		add	r3, r3, r1
 1978 0ef6 5441     		adc	r4, r4, r2
 1979 0ef8 2200     		asr	r2, r4, #0
 1980 0efa DC21     		mov	r1, #220
 1981 0efc 8900     		lsl	r1, r1, #2
 1982 0efe 7918     		add	r1, r7, r1
 1983 0f00 0A60     		str	r2, [r1]
 1984 0f02 E317     		asr	r3, r4, #31
 1985 0f04 DD22     		mov	r2, #221
 1986 0f06 9200     		lsl	r2, r2, #2
 1987 0f08 BA18     		add	r2, r7, r2
 1988 0f0a 1360     		str	r3, [r2]
 1989 0f0c DC23     		mov	r3, #220
 1990 0f0e 9B00     		lsl	r3, r3, #2
 1991 0f10 FB18     		add	r3, r7, r3
 1992 0f12 1B68     		ldr	r3, [r3]
 1993 0f14 BE22     		mov	r2, #190
 1994 0f16 D200     		lsl	r2, r2, #3
 1995 0f18 BA18     		add	r2, r7, r2
 1996 0f1a 1360     		str	r3, [r2]
 325:Source\FilteringFunctions/arm_correlate_fast_q31.c ****         /* acc1 +=  x[3] * y[2] */
 326:Source\FilteringFunctions/arm_correlate_fast_q31.c ****         acc1 = (q31_t) ((((q63_t) acc1 << 32) + ((q63_t) x3 * c0)) >> 32);
 1997              		.loc 1 326 0 discriminator 1
 1998 0f1c 224B     		ldr	r3, .L42+8
ARM GAS  C:\Users\fneves\AppData\Local\Temp\ccE35dyd.s 			page 42


 1999 0f1e FB18     		add	r3, r7, r3
 2000 0f20 1B68     		ldr	r3, [r3]
 2001 0f22 DA22     		mov	r2, #218
 2002 0f24 9200     		lsl	r2, r2, #2
 2003 0f26 BA18     		add	r2, r7, r2
 2004 0f28 1360     		str	r3, [r2]
 2005 0f2a DB17     		asr	r3, r3, #31
 2006 0f2c DB22     		mov	r2, #219
 2007 0f2e 9200     		lsl	r2, r2, #2
 2008 0f30 BA18     		add	r2, r7, r2
 2009 0f32 1360     		str	r3, [r2]
 2010 0f34 DA23     		mov	r3, #218
 2011 0f36 9B00     		lsl	r3, r3, #2
 2012 0f38 FB18     		add	r3, r7, r3
 2013 0f3a 1B68     		ldr	r3, [r3]
 2014 0f3c 1B00     		lsl	r3, r3, #0
 2015 0f3e D922     		mov	r2, #217
 2016 0f40 9200     		lsl	r2, r2, #2
 2017 0f42 BA18     		add	r2, r7, r2
 2018 0f44 1360     		str	r3, [r2]
 2019 0f46 0023     		mov	r3, #0
 2020 0f48 D822     		mov	r2, #216
 2021 0f4a 9200     		lsl	r2, r2, #2
 2022 0f4c BA18     		add	r2, r7, r2
 2023 0f4e 1360     		str	r3, [r2]
 2024 0f50 184B     		ldr	r3, .L42+20
 2025 0f52 FB18     		add	r3, r7, r3
 2026 0f54 1B68     		ldr	r3, [r3]
 2027 0f56 D622     		mov	r2, #214
 2028 0f58 9200     		lsl	r2, r2, #2
 2029 0f5a BA18     		add	r2, r7, r2
 2030 0f5c 1360     		str	r3, [r2]
 2031 0f5e DB17     		asr	r3, r3, #31
 2032 0f60 D722     		mov	r2, #215
 2033 0f62 9200     		lsl	r2, r2, #2
 2034 0f64 BA18     		add	r2, r7, r2
 2035 0f66 1360     		str	r3, [r2]
 2036 0f68 B623     		mov	r3, #182
 2037 0f6a DB00     		lsl	r3, r3, #3
 2038 0f6c FB18     		add	r3, r7, r3
 2039 0f6e 1B68     		ldr	r3, [r3]
 2040 0f70 D422     		mov	r2, #212
 2041 0f72 9200     		lsl	r2, r2, #2
 2042 0f74 BA18     		add	r2, r7, r2
 2043 0f76 1360     		str	r3, [r2]
 2044 0f78 DB17     		asr	r3, r3, #31
 2045 0f7a D522     		mov	r2, #213
 2046 0f7c 9200     		lsl	r2, r2, #2
 2047 0f7e BA18     		add	r2, r7, r2
 2048 0f80 1360     		str	r3, [r2]
 2049 0f82 D623     		mov	r3, #214
 2050 0f84 9B00     		lsl	r3, r3, #2
 2051 0f86 FB18     		add	r3, r7, r3
 2052 0f88 1868     		ldr	r0, [r3]
 2053 0f8a 5968     		ldr	r1, [r3, #4]
 2054 0f8c D423     		mov	r3, #212
 2055 0f8e 9B00     		lsl	r3, r3, #2
ARM GAS  C:\Users\fneves\AppData\Local\Temp\ccE35dyd.s 			page 43


 2056 0f90 FB18     		add	r3, r7, r3
 2057 0f92 1A68     		ldr	r2, [r3]
 2058 0f94 5B68     		ldr	r3, [r3, #4]
 2059 0f96 FFF7FEFF 		bl	__aeabi_lmul
 2060 0f9a 031C     		mov	r3, r0
 2061 0f9c 12E0     		b	.L43
 2062              	.L44:
 2063 0f9e C046     		.align	2
 2064              	.L42:
 2065 0fa0 1C040000 		.word	1052
 2066 0fa4 14040000 		.word	1044
 2067 0fa8 EC050000 		.word	1516
 2068 0fac 0C040000 		.word	1036
 2069 0fb0 04040000 		.word	1028
 2070 0fb4 AC050000 		.word	1452
 2071 0fb8 E4050000 		.word	1508
 2072 0fbc FC050000 		.word	1532
 2073 0fc0 DC050000 		.word	1500
 2074              	.L43:
 2075 0fc4 0C1C     		mov	r4, r1
 2076 0fc6 D822     		mov	r2, #216
 2077 0fc8 9200     		lsl	r2, r2, #2
 2078 0fca BA18     		add	r2, r7, r2
 2079 0fcc 1168     		ldr	r1, [r2]
 2080 0fce 5268     		ldr	r2, [r2, #4]
 2081 0fd0 5B18     		add	r3, r3, r1
 2082 0fd2 5441     		adc	r4, r4, r2
 2083 0fd4 2200     		asr	r2, r4, #0
 2084 0fd6 D221     		mov	r1, #210
 2085 0fd8 8900     		lsl	r1, r1, #2
 2086 0fda 7918     		add	r1, r7, r1
 2087 0fdc 0A60     		str	r2, [r1]
 2088 0fde E317     		asr	r3, r4, #31
 2089 0fe0 D322     		mov	r2, #211
 2090 0fe2 9200     		lsl	r2, r2, #2
 2091 0fe4 BA18     		add	r2, r7, r2
 2092 0fe6 1360     		str	r3, [r2]
 2093 0fe8 D223     		mov	r3, #210
 2094 0fea 9B00     		lsl	r3, r3, #2
 2095 0fec FB18     		add	r3, r7, r3
 2096 0fee 1B68     		ldr	r3, [r3]
 2097 0ff0 F64A     		ldr	r2, .L45
 2098 0ff2 BA18     		add	r2, r7, r2
 2099 0ff4 1360     		str	r3, [r2]
 327:Source\FilteringFunctions/arm_correlate_fast_q31.c ****         /* acc2 +=  x[4] * y[2] */
 328:Source\FilteringFunctions/arm_correlate_fast_q31.c ****         acc2 = (q31_t) ((((q63_t) acc2 << 32) + ((q63_t) x0 * c0)) >> 32);
 2100              		.loc 1 328 0 discriminator 1
 2101 0ff6 BD23     		mov	r3, #189
 2102 0ff8 DB00     		lsl	r3, r3, #3
 2103 0ffa FB18     		add	r3, r7, r3
 2104 0ffc 1B68     		ldr	r3, [r3]
 2105 0ffe D022     		mov	r2, #208
 2106 1000 9200     		lsl	r2, r2, #2
 2107 1002 BA18     		add	r2, r7, r2
 2108 1004 1360     		str	r3, [r2]
 2109 1006 DB17     		asr	r3, r3, #31
 2110 1008 D122     		mov	r2, #209
ARM GAS  C:\Users\fneves\AppData\Local\Temp\ccE35dyd.s 			page 44


 2111 100a 9200     		lsl	r2, r2, #2
 2112 100c BA18     		add	r2, r7, r2
 2113 100e 1360     		str	r3, [r2]
 2114 1010 D023     		mov	r3, #208
 2115 1012 9B00     		lsl	r3, r3, #2
 2116 1014 FB18     		add	r3, r7, r3
 2117 1016 1B68     		ldr	r3, [r3]
 2118 1018 1B00     		lsl	r3, r3, #0
 2119 101a CF22     		mov	r2, #207
 2120 101c 9200     		lsl	r2, r2, #2
 2121 101e BA18     		add	r2, r7, r2
 2122 1020 1360     		str	r3, [r2]
 2123 1022 0023     		mov	r3, #0
 2124 1024 CE22     		mov	r2, #206
 2125 1026 9200     		lsl	r2, r2, #2
 2126 1028 BA18     		add	r2, r7, r2
 2127 102a 1360     		str	r3, [r2]
 2128 102c BC23     		mov	r3, #188
 2129 102e DB00     		lsl	r3, r3, #3
 2130 1030 FB18     		add	r3, r7, r3
 2131 1032 1B68     		ldr	r3, [r3]
 2132 1034 CC22     		mov	r2, #204
 2133 1036 9200     		lsl	r2, r2, #2
 2134 1038 BA18     		add	r2, r7, r2
 2135 103a 1360     		str	r3, [r2]
 2136 103c DB17     		asr	r3, r3, #31
 2137 103e CD22     		mov	r2, #205
 2138 1040 9200     		lsl	r2, r2, #2
 2139 1042 BA18     		add	r2, r7, r2
 2140 1044 1360     		str	r3, [r2]
 2141 1046 B623     		mov	r3, #182
 2142 1048 DB00     		lsl	r3, r3, #3
 2143 104a FB18     		add	r3, r7, r3
 2144 104c 1B68     		ldr	r3, [r3]
 2145 104e CA22     		mov	r2, #202
 2146 1050 9200     		lsl	r2, r2, #2
 2147 1052 BA18     		add	r2, r7, r2
 2148 1054 1360     		str	r3, [r2]
 2149 1056 DB17     		asr	r3, r3, #31
 2150 1058 CB22     		mov	r2, #203
 2151 105a 9200     		lsl	r2, r2, #2
 2152 105c BA18     		add	r2, r7, r2
 2153 105e 1360     		str	r3, [r2]
 2154 1060 CC23     		mov	r3, #204
 2155 1062 9B00     		lsl	r3, r3, #2
 2156 1064 FB18     		add	r3, r7, r3
 2157 1066 1868     		ldr	r0, [r3]
 2158 1068 5968     		ldr	r1, [r3, #4]
 2159 106a CA23     		mov	r3, #202
 2160 106c 9B00     		lsl	r3, r3, #2
 2161 106e FB18     		add	r3, r7, r3
 2162 1070 1A68     		ldr	r2, [r3]
 2163 1072 5B68     		ldr	r3, [r3, #4]
 2164 1074 FFF7FEFF 		bl	__aeabi_lmul
 2165 1078 031C     		mov	r3, r0
 2166 107a 0C1C     		mov	r4, r1
 2167 107c CE22     		mov	r2, #206
ARM GAS  C:\Users\fneves\AppData\Local\Temp\ccE35dyd.s 			page 45


 2168 107e 9200     		lsl	r2, r2, #2
 2169 1080 BA18     		add	r2, r7, r2
 2170 1082 1168     		ldr	r1, [r2]
 2171 1084 5268     		ldr	r2, [r2, #4]
 2172 1086 5B18     		add	r3, r3, r1
 2173 1088 5441     		adc	r4, r4, r2
 2174 108a 2200     		asr	r2, r4, #0
 2175 108c C821     		mov	r1, #200
 2176 108e 8900     		lsl	r1, r1, #2
 2177 1090 7918     		add	r1, r7, r1
 2178 1092 0A60     		str	r2, [r1]
 2179 1094 E317     		asr	r3, r4, #31
 2180 1096 C922     		mov	r2, #201
 2181 1098 9200     		lsl	r2, r2, #2
 2182 109a BA18     		add	r2, r7, r2
 2183 109c 1360     		str	r3, [r2]
 2184 109e C823     		mov	r3, #200
 2185 10a0 9B00     		lsl	r3, r3, #2
 2186 10a2 FB18     		add	r3, r7, r3
 2187 10a4 1B68     		ldr	r3, [r3]
 2188 10a6 BD22     		mov	r2, #189
 2189 10a8 D200     		lsl	r2, r2, #3
 2190 10aa BA18     		add	r2, r7, r2
 2191 10ac 1360     		str	r3, [r2]
 329:Source\FilteringFunctions/arm_correlate_fast_q31.c ****         /* acc3 +=  x[5] * y[2] */
 330:Source\FilteringFunctions/arm_correlate_fast_q31.c ****         acc3 = (q31_t) ((((q63_t) acc3 << 32) + ((q63_t) x1 * c0)) >> 32);
 2192              		.loc 1 330 0 discriminator 1
 2193 10ae C84B     		ldr	r3, .L45+4
 2194 10b0 FB18     		add	r3, r7, r3
 2195 10b2 1B68     		ldr	r3, [r3]
 2196 10b4 C622     		mov	r2, #198
 2197 10b6 9200     		lsl	r2, r2, #2
 2198 10b8 BA18     		add	r2, r7, r2
 2199 10ba 1360     		str	r3, [r2]
 2200 10bc DB17     		asr	r3, r3, #31
 2201 10be C722     		mov	r2, #199
 2202 10c0 9200     		lsl	r2, r2, #2
 2203 10c2 BA18     		add	r2, r7, r2
 2204 10c4 1360     		str	r3, [r2]
 2205 10c6 C623     		mov	r3, #198
 2206 10c8 9B00     		lsl	r3, r3, #2
 2207 10ca FB18     		add	r3, r7, r3
 2208 10cc 1B68     		ldr	r3, [r3]
 2209 10ce 1B00     		lsl	r3, r3, #0
 2210 10d0 C522     		mov	r2, #197
 2211 10d2 9200     		lsl	r2, r2, #2
 2212 10d4 BA18     		add	r2, r7, r2
 2213 10d6 1360     		str	r3, [r2]
 2214 10d8 0023     		mov	r3, #0
 2215 10da C422     		mov	r2, #196
 2216 10dc 9200     		lsl	r2, r2, #2
 2217 10de BA18     		add	r2, r7, r2
 2218 10e0 1360     		str	r3, [r2]
 2219 10e2 BC4B     		ldr	r3, .L45+8
 2220 10e4 FB18     		add	r3, r7, r3
 2221 10e6 1B68     		ldr	r3, [r3]
 2222 10e8 C222     		mov	r2, #194
ARM GAS  C:\Users\fneves\AppData\Local\Temp\ccE35dyd.s 			page 46


 2223 10ea 9200     		lsl	r2, r2, #2
 2224 10ec BA18     		add	r2, r7, r2
 2225 10ee 1360     		str	r3, [r2]
 2226 10f0 DB17     		asr	r3, r3, #31
 2227 10f2 C322     		mov	r2, #195
 2228 10f4 9200     		lsl	r2, r2, #2
 2229 10f6 BA18     		add	r2, r7, r2
 2230 10f8 1360     		str	r3, [r2]
 2231 10fa B623     		mov	r3, #182
 2232 10fc DB00     		lsl	r3, r3, #3
 2233 10fe FB18     		add	r3, r7, r3
 2234 1100 1B68     		ldr	r3, [r3]
 2235 1102 C022     		mov	r2, #192
 2236 1104 9200     		lsl	r2, r2, #2
 2237 1106 BA18     		add	r2, r7, r2
 2238 1108 1360     		str	r3, [r2]
 2239 110a DB17     		asr	r3, r3, #31
 2240 110c C122     		mov	r2, #193
 2241 110e 9200     		lsl	r2, r2, #2
 2242 1110 BA18     		add	r2, r7, r2
 2243 1112 1360     		str	r3, [r2]
 2244 1114 C223     		mov	r3, #194
 2245 1116 9B00     		lsl	r3, r3, #2
 2246 1118 FB18     		add	r3, r7, r3
 2247 111a 1868     		ldr	r0, [r3]
 2248 111c 5968     		ldr	r1, [r3, #4]
 2249 111e C023     		mov	r3, #192
 2250 1120 9B00     		lsl	r3, r3, #2
 2251 1122 FB18     		add	r3, r7, r3
 2252 1124 1A68     		ldr	r2, [r3]
 2253 1126 5B68     		ldr	r3, [r3, #4]
 2254 1128 FFF7FEFF 		bl	__aeabi_lmul
 2255 112c 031C     		mov	r3, r0
 2256 112e 0C1C     		mov	r4, r1
 2257 1130 C422     		mov	r2, #196
 2258 1132 9200     		lsl	r2, r2, #2
 2259 1134 BA18     		add	r2, r7, r2
 2260 1136 1168     		ldr	r1, [r2]
 2261 1138 5268     		ldr	r2, [r2, #4]
 2262 113a 5B18     		add	r3, r3, r1
 2263 113c 5441     		adc	r4, r4, r2
 2264 113e 2200     		asr	r2, r4, #0
 2265 1140 BE21     		mov	r1, #190
 2266 1142 8900     		lsl	r1, r1, #2
 2267 1144 7918     		add	r1, r7, r1
 2268 1146 0A60     		str	r2, [r1]
 2269 1148 E317     		asr	r3, r4, #31
 2270 114a BF22     		mov	r2, #191
 2271 114c 9200     		lsl	r2, r2, #2
 2272 114e BA18     		add	r2, r7, r2
 2273 1150 1360     		str	r3, [r2]
 2274 1152 BE23     		mov	r3, #190
 2275 1154 9B00     		lsl	r3, r3, #2
 2276 1156 FB18     		add	r3, r7, r3
 2277 1158 1B68     		ldr	r3, [r3]
 2278 115a 9D4A     		ldr	r2, .L45+4
 2279 115c BA18     		add	r2, r7, r2
ARM GAS  C:\Users\fneves\AppData\Local\Temp\ccE35dyd.s 			page 47


 2280 115e 1360     		str	r3, [r2]
 331:Source\FilteringFunctions/arm_correlate_fast_q31.c **** 
 332:Source\FilteringFunctions/arm_correlate_fast_q31.c ****         /* Read y[3] sample */
 333:Source\FilteringFunctions/arm_correlate_fast_q31.c ****         c0 = *(py++);
 2281              		.loc 1 333 0 discriminator 1
 2282 1160 9D4B     		ldr	r3, .L45+12
 2283 1162 FB18     		add	r3, r7, r3
 2284 1164 1A68     		ldr	r2, [r3]
 2285 1166 131D     		add	r3, r2, #4
 2286 1168 9B49     		ldr	r1, .L45+12
 2287 116a 7918     		add	r1, r7, r1
 2288 116c 0B60     		str	r3, [r1]
 2289 116e 1368     		ldr	r3, [r2]
 2290 1170 B622     		mov	r2, #182
 2291 1172 D200     		lsl	r2, r2, #3
 2292 1174 BA18     		add	r2, r7, r2
 2293 1176 1360     		str	r3, [r2]
 334:Source\FilteringFunctions/arm_correlate_fast_q31.c **** 
 335:Source\FilteringFunctions/arm_correlate_fast_q31.c ****         /* Read x[6] sample */
 336:Source\FilteringFunctions/arm_correlate_fast_q31.c ****         x2 = *(px++);
 2294              		.loc 1 336 0 discriminator 1
 2295 1178 C023     		mov	r3, #192
 2296 117a DB00     		lsl	r3, r3, #3
 2297 117c FB18     		add	r3, r7, r3
 2298 117e 1A68     		ldr	r2, [r3]
 2299 1180 131D     		add	r3, r2, #4
 2300 1182 C021     		mov	r1, #192
 2301 1184 C900     		lsl	r1, r1, #3
 2302 1186 7918     		add	r1, r7, r1
 2303 1188 0B60     		str	r3, [r1]
 2304 118a 1368     		ldr	r3, [r2]
 2305 118c BB22     		mov	r2, #187
 2306 118e D200     		lsl	r2, r2, #3
 2307 1190 BA18     		add	r2, r7, r2
 2308 1192 1360     		str	r3, [r2]
 337:Source\FilteringFunctions/arm_correlate_fast_q31.c **** 
 338:Source\FilteringFunctions/arm_correlate_fast_q31.c ****         /* Perform the multiply-accumulates */
 339:Source\FilteringFunctions/arm_correlate_fast_q31.c ****         /* acc0 +=  x[3] * y[3] */
 340:Source\FilteringFunctions/arm_correlate_fast_q31.c ****         acc0 = (q31_t) ((((q63_t) acc0 << 32) + ((q63_t) x3 * c0)) >> 32);
 2309              		.loc 1 340 0 discriminator 1
 2310 1194 BE23     		mov	r3, #190
 2311 1196 DB00     		lsl	r3, r3, #3
 2312 1198 FB18     		add	r3, r7, r3
 2313 119a 1B68     		ldr	r3, [r3]
 2314 119c BC22     		mov	r2, #188
 2315 119e 9200     		lsl	r2, r2, #2
 2316 11a0 BA18     		add	r2, r7, r2
 2317 11a2 1360     		str	r3, [r2]
 2318 11a4 DB17     		asr	r3, r3, #31
 2319 11a6 BD22     		mov	r2, #189
 2320 11a8 9200     		lsl	r2, r2, #2
 2321 11aa BA18     		add	r2, r7, r2
 2322 11ac 1360     		str	r3, [r2]
 2323 11ae BC23     		mov	r3, #188
 2324 11b0 9B00     		lsl	r3, r3, #2
 2325 11b2 FB18     		add	r3, r7, r3
 2326 11b4 1B68     		ldr	r3, [r3]
ARM GAS  C:\Users\fneves\AppData\Local\Temp\ccE35dyd.s 			page 48


 2327 11b6 1B00     		lsl	r3, r3, #0
 2328 11b8 BB22     		mov	r2, #187
 2329 11ba 9200     		lsl	r2, r2, #2
 2330 11bc BA18     		add	r2, r7, r2
 2331 11be 1360     		str	r3, [r2]
 2332 11c0 0023     		mov	r3, #0
 2333 11c2 BA22     		mov	r2, #186
 2334 11c4 9200     		lsl	r2, r2, #2
 2335 11c6 BA18     		add	r2, r7, r2
 2336 11c8 1360     		str	r3, [r2]
 2337 11ca 844B     		ldr	r3, .L45+16
 2338 11cc FB18     		add	r3, r7, r3
 2339 11ce 1B68     		ldr	r3, [r3]
 2340 11d0 B822     		mov	r2, #184
 2341 11d2 9200     		lsl	r2, r2, #2
 2342 11d4 BA18     		add	r2, r7, r2
 2343 11d6 1360     		str	r3, [r2]
 2344 11d8 DB17     		asr	r3, r3, #31
 2345 11da B922     		mov	r2, #185
 2346 11dc 9200     		lsl	r2, r2, #2
 2347 11de BA18     		add	r2, r7, r2
 2348 11e0 1360     		str	r3, [r2]
 2349 11e2 B623     		mov	r3, #182
 2350 11e4 DB00     		lsl	r3, r3, #3
 2351 11e6 FB18     		add	r3, r7, r3
 2352 11e8 1B68     		ldr	r3, [r3]
 2353 11ea B622     		mov	r2, #182
 2354 11ec 9200     		lsl	r2, r2, #2
 2355 11ee BA18     		add	r2, r7, r2
 2356 11f0 1360     		str	r3, [r2]
 2357 11f2 DB17     		asr	r3, r3, #31
 2358 11f4 B722     		mov	r2, #183
 2359 11f6 9200     		lsl	r2, r2, #2
 2360 11f8 BA18     		add	r2, r7, r2
 2361 11fa 1360     		str	r3, [r2]
 2362 11fc B823     		mov	r3, #184
 2363 11fe 9B00     		lsl	r3, r3, #2
 2364 1200 FB18     		add	r3, r7, r3
 2365 1202 1868     		ldr	r0, [r3]
 2366 1204 5968     		ldr	r1, [r3, #4]
 2367 1206 B623     		mov	r3, #182
 2368 1208 9B00     		lsl	r3, r3, #2
 2369 120a FB18     		add	r3, r7, r3
 2370 120c 1A68     		ldr	r2, [r3]
 2371 120e 5B68     		ldr	r3, [r3, #4]
 2372 1210 FFF7FEFF 		bl	__aeabi_lmul
 2373 1214 031C     		mov	r3, r0
 2374 1216 0C1C     		mov	r4, r1
 2375 1218 BA22     		mov	r2, #186
 2376 121a 9200     		lsl	r2, r2, #2
 2377 121c BA18     		add	r2, r7, r2
 2378 121e 1168     		ldr	r1, [r2]
 2379 1220 5268     		ldr	r2, [r2, #4]
 2380 1222 5B18     		add	r3, r3, r1
 2381 1224 5441     		adc	r4, r4, r2
 2382 1226 2200     		asr	r2, r4, #0
 2383 1228 B421     		mov	r1, #180
ARM GAS  C:\Users\fneves\AppData\Local\Temp\ccE35dyd.s 			page 49


 2384 122a 8900     		lsl	r1, r1, #2
 2385 122c 7918     		add	r1, r7, r1
 2386 122e 0A60     		str	r2, [r1]
 2387 1230 E317     		asr	r3, r4, #31
 2388 1232 B522     		mov	r2, #181
 2389 1234 9200     		lsl	r2, r2, #2
 2390 1236 BA18     		add	r2, r7, r2
 2391 1238 1360     		str	r3, [r2]
 2392 123a B423     		mov	r3, #180
 2393 123c 9B00     		lsl	r3, r3, #2
 2394 123e FB18     		add	r3, r7, r3
 2395 1240 1B68     		ldr	r3, [r3]
 2396 1242 BE22     		mov	r2, #190
 2397 1244 D200     		lsl	r2, r2, #3
 2398 1246 BA18     		add	r2, r7, r2
 2399 1248 1360     		str	r3, [r2]
 341:Source\FilteringFunctions/arm_correlate_fast_q31.c ****         /* acc1 +=  x[4] * y[3] */
 342:Source\FilteringFunctions/arm_correlate_fast_q31.c ****         acc1 = (q31_t) ((((q63_t) acc1 << 32) + ((q63_t) x0 * c0)) >> 32);
 2400              		.loc 1 342 0 discriminator 1
 2401 124a 604B     		ldr	r3, .L45
 2402 124c FB18     		add	r3, r7, r3
 2403 124e 1B68     		ldr	r3, [r3]
 2404 1250 B222     		mov	r2, #178
 2405 1252 9200     		lsl	r2, r2, #2
 2406 1254 BA18     		add	r2, r7, r2
 2407 1256 1360     		str	r3, [r2]
 2408 1258 DB17     		asr	r3, r3, #31
 2409 125a B322     		mov	r2, #179
 2410 125c 9200     		lsl	r2, r2, #2
 2411 125e BA18     		add	r2, r7, r2
 2412 1260 1360     		str	r3, [r2]
 2413 1262 B223     		mov	r3, #178
 2414 1264 9B00     		lsl	r3, r3, #2
 2415 1266 FB18     		add	r3, r7, r3
 2416 1268 1B68     		ldr	r3, [r3]
 2417 126a 1B00     		lsl	r3, r3, #0
 2418 126c B122     		mov	r2, #177
 2419 126e 9200     		lsl	r2, r2, #2
 2420 1270 BA18     		add	r2, r7, r2
 2421 1272 1360     		str	r3, [r2]
 2422 1274 0023     		mov	r3, #0
 2423 1276 B022     		mov	r2, #176
 2424 1278 9200     		lsl	r2, r2, #2
 2425 127a BA18     		add	r2, r7, r2
 2426 127c 1360     		str	r3, [r2]
 2427 127e BC23     		mov	r3, #188
 2428 1280 DB00     		lsl	r3, r3, #3
 2429 1282 FB18     		add	r3, r7, r3
 2430 1284 1B68     		ldr	r3, [r3]
 2431 1286 AE22     		mov	r2, #174
 2432 1288 9200     		lsl	r2, r2, #2
 2433 128a BA18     		add	r2, r7, r2
 2434 128c 1360     		str	r3, [r2]
 2435 128e DB17     		asr	r3, r3, #31
 2436 1290 AF22     		mov	r2, #175
 2437 1292 9200     		lsl	r2, r2, #2
 2438 1294 BA18     		add	r2, r7, r2
ARM GAS  C:\Users\fneves\AppData\Local\Temp\ccE35dyd.s 			page 50


 2439 1296 1360     		str	r3, [r2]
 2440 1298 B623     		mov	r3, #182
 2441 129a DB00     		lsl	r3, r3, #3
 2442 129c FB18     		add	r3, r7, r3
 2443 129e 1B68     		ldr	r3, [r3]
 2444 12a0 AC22     		mov	r2, #172
 2445 12a2 9200     		lsl	r2, r2, #2
 2446 12a4 BA18     		add	r2, r7, r2
 2447 12a6 1360     		str	r3, [r2]
 2448 12a8 DB17     		asr	r3, r3, #31
 2449 12aa AD22     		mov	r2, #173
 2450 12ac 9200     		lsl	r2, r2, #2
 2451 12ae BA18     		add	r2, r7, r2
 2452 12b0 1360     		str	r3, [r2]
 2453 12b2 AE23     		mov	r3, #174
 2454 12b4 9B00     		lsl	r3, r3, #2
 2455 12b6 FB18     		add	r3, r7, r3
 2456 12b8 1868     		ldr	r0, [r3]
 2457 12ba 5968     		ldr	r1, [r3, #4]
 2458 12bc AC23     		mov	r3, #172
 2459 12be 9B00     		lsl	r3, r3, #2
 2460 12c0 FB18     		add	r3, r7, r3
 2461 12c2 1A68     		ldr	r2, [r3]
 2462 12c4 5B68     		ldr	r3, [r3, #4]
 2463 12c6 FFF7FEFF 		bl	__aeabi_lmul
 2464 12ca 031C     		mov	r3, r0
 2465 12cc 0C1C     		mov	r4, r1
 2466 12ce B022     		mov	r2, #176
 2467 12d0 9200     		lsl	r2, r2, #2
 2468 12d2 BA18     		add	r2, r7, r2
 2469 12d4 1168     		ldr	r1, [r2]
 2470 12d6 5268     		ldr	r2, [r2, #4]
 2471 12d8 5B18     		add	r3, r3, r1
 2472 12da 5441     		adc	r4, r4, r2
 2473 12dc 2200     		asr	r2, r4, #0
 2474 12de AA21     		mov	r1, #170
 2475 12e0 8900     		lsl	r1, r1, #2
 2476 12e2 7918     		add	r1, r7, r1
 2477 12e4 0A60     		str	r2, [r1]
 2478 12e6 E317     		asr	r3, r4, #31
 2479 12e8 AB22     		mov	r2, #171
 2480 12ea 9200     		lsl	r2, r2, #2
 2481 12ec BA18     		add	r2, r7, r2
 2482 12ee 1360     		str	r3, [r2]
 2483 12f0 AA23     		mov	r3, #170
 2484 12f2 9B00     		lsl	r3, r3, #2
 2485 12f4 FB18     		add	r3, r7, r3
 2486 12f6 1B68     		ldr	r3, [r3]
 2487 12f8 344A     		ldr	r2, .L45
 2488 12fa BA18     		add	r2, r7, r2
 2489 12fc 1360     		str	r3, [r2]
 343:Source\FilteringFunctions/arm_correlate_fast_q31.c ****         /* acc2 +=  x[5] * y[3] */
 344:Source\FilteringFunctions/arm_correlate_fast_q31.c ****         acc2 = (q31_t) ((((q63_t) acc2 << 32) + ((q63_t) x1 * c0)) >> 32);
 2490              		.loc 1 344 0 discriminator 1
 2491 12fe BD23     		mov	r3, #189
 2492 1300 DB00     		lsl	r3, r3, #3
 2493 1302 FB18     		add	r3, r7, r3
ARM GAS  C:\Users\fneves\AppData\Local\Temp\ccE35dyd.s 			page 51


 2494 1304 1B68     		ldr	r3, [r3]
 2495 1306 A822     		mov	r2, #168
 2496 1308 9200     		lsl	r2, r2, #2
 2497 130a BA18     		add	r2, r7, r2
 2498 130c 1360     		str	r3, [r2]
 2499 130e DB17     		asr	r3, r3, #31
 2500 1310 A922     		mov	r2, #169
 2501 1312 9200     		lsl	r2, r2, #2
 2502 1314 BA18     		add	r2, r7, r2
 2503 1316 1360     		str	r3, [r2]
 2504 1318 A823     		mov	r3, #168
 2505 131a 9B00     		lsl	r3, r3, #2
 2506 131c FB18     		add	r3, r7, r3
 2507 131e 1B68     		ldr	r3, [r3]
 2508 1320 1B00     		lsl	r3, r3, #0
 2509 1322 A722     		mov	r2, #167
 2510 1324 9200     		lsl	r2, r2, #2
 2511 1326 BA18     		add	r2, r7, r2
 2512 1328 1360     		str	r3, [r2]
 2513 132a 0023     		mov	r3, #0
 2514 132c A622     		mov	r2, #166
 2515 132e 9200     		lsl	r2, r2, #2
 2516 1330 BA18     		add	r2, r7, r2
 2517 1332 1360     		str	r3, [r2]
 2518 1334 274B     		ldr	r3, .L45+8
 2519 1336 FB18     		add	r3, r7, r3
 2520 1338 1B68     		ldr	r3, [r3]
 2521 133a A422     		mov	r2, #164
 2522 133c 9200     		lsl	r2, r2, #2
 2523 133e BA18     		add	r2, r7, r2
 2524 1340 1360     		str	r3, [r2]
 2525 1342 DB17     		asr	r3, r3, #31
 2526 1344 A522     		mov	r2, #165
 2527 1346 9200     		lsl	r2, r2, #2
 2528 1348 BA18     		add	r2, r7, r2
 2529 134a 1360     		str	r3, [r2]
 2530 134c B623     		mov	r3, #182
 2531 134e DB00     		lsl	r3, r3, #3
 2532 1350 FB18     		add	r3, r7, r3
 2533 1352 1B68     		ldr	r3, [r3]
 2534 1354 A222     		mov	r2, #162
 2535 1356 9200     		lsl	r2, r2, #2
 2536 1358 BA18     		add	r2, r7, r2
 2537 135a 1360     		str	r3, [r2]
 2538 135c DB17     		asr	r3, r3, #31
 2539 135e A322     		mov	r2, #163
 2540 1360 9200     		lsl	r2, r2, #2
 2541 1362 BA18     		add	r2, r7, r2
 2542 1364 1360     		str	r3, [r2]
 2543 1366 A423     		mov	r3, #164
 2544 1368 9B00     		lsl	r3, r3, #2
 2545 136a FB18     		add	r3, r7, r3
 2546 136c 1868     		ldr	r0, [r3]
 2547 136e 5968     		ldr	r1, [r3, #4]
 2548 1370 A223     		mov	r3, #162
 2549 1372 9B00     		lsl	r3, r3, #2
 2550 1374 FB18     		add	r3, r7, r3
ARM GAS  C:\Users\fneves\AppData\Local\Temp\ccE35dyd.s 			page 52


 2551 1376 1A68     		ldr	r2, [r3]
 2552 1378 5B68     		ldr	r3, [r3, #4]
 2553 137a FFF7FEFF 		bl	__aeabi_lmul
 2554 137e 031C     		mov	r3, r0
 2555 1380 0C1C     		mov	r4, r1
 2556 1382 A622     		mov	r2, #166
 2557 1384 9200     		lsl	r2, r2, #2
 2558 1386 BA18     		add	r2, r7, r2
 2559 1388 1168     		ldr	r1, [r2]
 2560 138a 5268     		ldr	r2, [r2, #4]
 2561 138c 5B18     		add	r3, r3, r1
 2562 138e 5441     		adc	r4, r4, r2
 2563 1390 2200     		asr	r2, r4, #0
 2564 1392 A021     		mov	r1, #160
 2565 1394 8900     		lsl	r1, r1, #2
 2566 1396 7918     		add	r1, r7, r1
 2567 1398 0A60     		str	r2, [r1]
 2568 139a E317     		asr	r3, r4, #31
 2569 139c A122     		mov	r2, #161
 2570 139e 9200     		lsl	r2, r2, #2
 2571 13a0 BA18     		add	r2, r7, r2
 2572 13a2 1360     		str	r3, [r2]
 2573 13a4 A023     		mov	r3, #160
 2574 13a6 9B00     		lsl	r3, r3, #2
 2575 13a8 FB18     		add	r3, r7, r3
 2576 13aa 1B68     		ldr	r3, [r3]
 2577 13ac BD22     		mov	r2, #189
 2578 13ae D200     		lsl	r2, r2, #3
 2579 13b0 BA18     		add	r2, r7, r2
 2580 13b2 1360     		str	r3, [r2]
 345:Source\FilteringFunctions/arm_correlate_fast_q31.c ****         /* acc3 +=  x[6] * y[3] */
 346:Source\FilteringFunctions/arm_correlate_fast_q31.c ****         acc3 = (q31_t) ((((q63_t) acc3 << 32) + ((q63_t) x2 * c0)) >> 32);
 2581              		.loc 1 346 0 discriminator 1
 2582 13b4 064B     		ldr	r3, .L45+4
 2583 13b6 FB18     		add	r3, r7, r3
 2584 13b8 1B68     		ldr	r3, [r3]
 2585 13ba 9E22     		mov	r2, #158
 2586 13bc 9200     		lsl	r2, r2, #2
 2587 13be BA18     		add	r2, r7, r2
 2588 13c0 1360     		str	r3, [r2]
 2589 13c2 DB17     		asr	r3, r3, #31
 2590 13c4 9F22     		mov	r2, #159
 2591 13c6 9200     		lsl	r2, r2, #2
 2592 13c8 BA18     		add	r2, r7, r2
 2593 13ca 09E0     		b	.L46
 2594              	.L47:
 2595              		.align	2
 2596              	.L45:
 2597 13cc EC050000 		.word	1516
 2598 13d0 E4050000 		.word	1508
 2599 13d4 DC050000 		.word	1500
 2600 13d8 FC050000 		.word	1532
 2601 13dc AC050000 		.word	1452
 2602              	.L46:
 2603 13e0 1360     		str	r3, [r2]
 2604 13e2 9E23     		mov	r3, #158
 2605 13e4 9B00     		lsl	r3, r3, #2
ARM GAS  C:\Users\fneves\AppData\Local\Temp\ccE35dyd.s 			page 53


 2606 13e6 FB18     		add	r3, r7, r3
 2607 13e8 1B68     		ldr	r3, [r3]
 2608 13ea 1B00     		lsl	r3, r3, #0
 2609 13ec 9D22     		mov	r2, #157
 2610 13ee 9200     		lsl	r2, r2, #2
 2611 13f0 BA18     		add	r2, r7, r2
 2612 13f2 1360     		str	r3, [r2]
 2613 13f4 0023     		mov	r3, #0
 2614 13f6 9C22     		mov	r2, #156
 2615 13f8 9200     		lsl	r2, r2, #2
 2616 13fa BA18     		add	r2, r7, r2
 2617 13fc 1360     		str	r3, [r2]
 2618 13fe BB23     		mov	r3, #187
 2619 1400 DB00     		lsl	r3, r3, #3
 2620 1402 FB18     		add	r3, r7, r3
 2621 1404 1B68     		ldr	r3, [r3]
 2622 1406 9A22     		mov	r2, #154
 2623 1408 9200     		lsl	r2, r2, #2
 2624 140a BA18     		add	r2, r7, r2
 2625 140c 1360     		str	r3, [r2]
 2626 140e DB17     		asr	r3, r3, #31
 2627 1410 9B22     		mov	r2, #155
 2628 1412 9200     		lsl	r2, r2, #2
 2629 1414 BA18     		add	r2, r7, r2
 2630 1416 1360     		str	r3, [r2]
 2631 1418 B623     		mov	r3, #182
 2632 141a DB00     		lsl	r3, r3, #3
 2633 141c FB18     		add	r3, r7, r3
 2634 141e 1B68     		ldr	r3, [r3]
 2635 1420 9822     		mov	r2, #152
 2636 1422 9200     		lsl	r2, r2, #2
 2637 1424 BA18     		add	r2, r7, r2
 2638 1426 1360     		str	r3, [r2]
 2639 1428 DB17     		asr	r3, r3, #31
 2640 142a 9922     		mov	r2, #153
 2641 142c 9200     		lsl	r2, r2, #2
 2642 142e BA18     		add	r2, r7, r2
 2643 1430 1360     		str	r3, [r2]
 2644 1432 9A23     		mov	r3, #154
 2645 1434 9B00     		lsl	r3, r3, #2
 2646 1436 FB18     		add	r3, r7, r3
 2647 1438 1868     		ldr	r0, [r3]
 2648 143a 5968     		ldr	r1, [r3, #4]
 2649 143c 9823     		mov	r3, #152
 2650 143e 9B00     		lsl	r3, r3, #2
 2651 1440 FB18     		add	r3, r7, r3
 2652 1442 1A68     		ldr	r2, [r3]
 2653 1444 5B68     		ldr	r3, [r3, #4]
 2654 1446 FFF7FEFF 		bl	__aeabi_lmul
 2655 144a 031C     		mov	r3, r0
 2656 144c 0C1C     		mov	r4, r1
 2657 144e 9C22     		mov	r2, #156
 2658 1450 9200     		lsl	r2, r2, #2
 2659 1452 BA18     		add	r2, r7, r2
 2660 1454 1168     		ldr	r1, [r2]
 2661 1456 5268     		ldr	r2, [r2, #4]
 2662 1458 5B18     		add	r3, r3, r1
ARM GAS  C:\Users\fneves\AppData\Local\Temp\ccE35dyd.s 			page 54


 2663 145a 5441     		adc	r4, r4, r2
 2664 145c 2200     		asr	r2, r4, #0
 2665 145e 9621     		mov	r1, #150
 2666 1460 8900     		lsl	r1, r1, #2
 2667 1462 7918     		add	r1, r7, r1
 2668 1464 0A60     		str	r2, [r1]
 2669 1466 E317     		asr	r3, r4, #31
 2670 1468 9722     		mov	r2, #151
 2671 146a 9200     		lsl	r2, r2, #2
 2672 146c BA18     		add	r2, r7, r2
 2673 146e 1360     		str	r3, [r2]
 2674 1470 9623     		mov	r3, #150
 2675 1472 9B00     		lsl	r3, r3, #2
 2676 1474 FB18     		add	r3, r7, r3
 2677 1476 1B68     		ldr	r3, [r3]
 2678 1478 0D4A     		ldr	r2, .L48
 2679 147a BA18     		add	r2, r7, r2
 2680 147c 1360     		str	r3, [r2]
 347:Source\FilteringFunctions/arm_correlate_fast_q31.c **** 
 348:Source\FilteringFunctions/arm_correlate_fast_q31.c **** 
 349:Source\FilteringFunctions/arm_correlate_fast_q31.c ****       } while (--k);
 2681              		.loc 1 349 0 discriminator 1
 2682 147e 0D4B     		ldr	r3, .L48+4
 2683 1480 FB18     		add	r3, r7, r3
 2684 1482 1B68     		ldr	r3, [r3]
 2685 1484 013B     		sub	r3, r3, #1
 2686 1486 0B4A     		ldr	r2, .L48+4
 2687 1488 BA18     		add	r2, r7, r2
 2688 148a 1360     		str	r3, [r2]
 2689 148c 094B     		ldr	r3, .L48+4
 2690 148e FB18     		add	r3, r7, r3
 2691 1490 1B68     		ldr	r3, [r3]
 2692 1492 002B     		cmp	r3, #0
 2693 1494 01D0     		beq	.LCB2505
 2694 1496 FFF7A4F9 		bl	.L12	@far jump
 2695              	.LCB2505:
 350:Source\FilteringFunctions/arm_correlate_fast_q31.c **** 
 351:Source\FilteringFunctions/arm_correlate_fast_q31.c ****       /* If the srcBLen is not a multiple of 4, compute any remaining MACs here.
 352:Source\FilteringFunctions/arm_correlate_fast_q31.c ****        ** No loop unrolling is used. */
 353:Source\FilteringFunctions/arm_correlate_fast_q31.c ****       k = srcBLen % 0x4u;
 2696              		.loc 1 353 0
 2697 149a B323     		mov	r3, #179
 2698 149c DB00     		lsl	r3, r3, #3
 2699 149e FB18     		add	r3, r7, r3
 2700 14a0 1A68     		ldr	r2, [r3]
 2701 14a2 0323     		mov	r3, #3
 2702 14a4 1340     		and	r3, r2
 2703 14a6 034A     		ldr	r2, .L48+4
 2704 14a8 BA18     		add	r2, r7, r2
 2705 14aa 1360     		str	r3, [r2]
 354:Source\FilteringFunctions/arm_correlate_fast_q31.c **** 
 355:Source\FilteringFunctions/arm_correlate_fast_q31.c ****       while (k > 0u)
 2706              		.loc 1 355 0
 2707 14ac A3E1     		b	.L13
 2708              	.L49:
 2709 14ae C046     		.align	2
 2710              	.L48:
ARM GAS  C:\Users\fneves\AppData\Local\Temp\ccE35dyd.s 			page 55


 2711 14b0 E4050000 		.word	1508
 2712 14b4 D4050000 		.word	1492
 2713              	.L14:
 356:Source\FilteringFunctions/arm_correlate_fast_q31.c ****       {
 357:Source\FilteringFunctions/arm_correlate_fast_q31.c ****         /* Read y[4] sample */
 358:Source\FilteringFunctions/arm_correlate_fast_q31.c ****         c0 = *(py++);
 2714              		.loc 1 358 0
 2715 14b8 F74B     		ldr	r3, .L50
 2716 14ba FB18     		add	r3, r7, r3
 2717 14bc 1A68     		ldr	r2, [r3]
 2718 14be 131D     		add	r3, r2, #4
 2719 14c0 F549     		ldr	r1, .L50
 2720 14c2 7918     		add	r1, r7, r1
 2721 14c4 0B60     		str	r3, [r1]
 2722 14c6 1368     		ldr	r3, [r2]
 2723 14c8 B622     		mov	r2, #182
 2724 14ca D200     		lsl	r2, r2, #3
 2725 14cc BA18     		add	r2, r7, r2
 2726 14ce 1360     		str	r3, [r2]
 359:Source\FilteringFunctions/arm_correlate_fast_q31.c **** 
 360:Source\FilteringFunctions/arm_correlate_fast_q31.c ****         /* Read x[7] sample */
 361:Source\FilteringFunctions/arm_correlate_fast_q31.c ****         x3 = *(px++);
 2727              		.loc 1 361 0
 2728 14d0 C023     		mov	r3, #192
 2729 14d2 DB00     		lsl	r3, r3, #3
 2730 14d4 FB18     		add	r3, r7, r3
 2731 14d6 1A68     		ldr	r2, [r3]
 2732 14d8 131D     		add	r3, r2, #4
 2733 14da C021     		mov	r1, #192
 2734 14dc C900     		lsl	r1, r1, #3
 2735 14de 7918     		add	r1, r7, r1
 2736 14e0 0B60     		str	r3, [r1]
 2737 14e2 1368     		ldr	r3, [r2]
 2738 14e4 ED4A     		ldr	r2, .L50+4
 2739 14e6 BA18     		add	r2, r7, r2
 2740 14e8 1360     		str	r3, [r2]
 362:Source\FilteringFunctions/arm_correlate_fast_q31.c **** 
 363:Source\FilteringFunctions/arm_correlate_fast_q31.c ****         /* Perform the multiply-accumulates */
 364:Source\FilteringFunctions/arm_correlate_fast_q31.c ****         /* acc0 +=  x[4] * y[4] */
 365:Source\FilteringFunctions/arm_correlate_fast_q31.c ****         acc0 = (q31_t) ((((q63_t) acc0 << 32) + ((q63_t) x0 * c0)) >> 32);
 2741              		.loc 1 365 0
 2742 14ea BE23     		mov	r3, #190
 2743 14ec DB00     		lsl	r3, r3, #3
 2744 14ee FB18     		add	r3, r7, r3
 2745 14f0 1B68     		ldr	r3, [r3]
 2746 14f2 9422     		mov	r2, #148
 2747 14f4 9200     		lsl	r2, r2, #2
 2748 14f6 BA18     		add	r2, r7, r2
 2749 14f8 1360     		str	r3, [r2]
 2750 14fa DB17     		asr	r3, r3, #31
 2751 14fc 9522     		mov	r2, #149
 2752 14fe 9200     		lsl	r2, r2, #2
 2753 1500 BA18     		add	r2, r7, r2
 2754 1502 1360     		str	r3, [r2]
 2755 1504 9423     		mov	r3, #148
 2756 1506 9B00     		lsl	r3, r3, #2
 2757 1508 FB18     		add	r3, r7, r3
ARM GAS  C:\Users\fneves\AppData\Local\Temp\ccE35dyd.s 			page 56


 2758 150a 1B68     		ldr	r3, [r3]
 2759 150c 1B00     		lsl	r3, r3, #0
 2760 150e 9322     		mov	r2, #147
 2761 1510 9200     		lsl	r2, r2, #2
 2762 1512 BA18     		add	r2, r7, r2
 2763 1514 1360     		str	r3, [r2]
 2764 1516 0023     		mov	r3, #0
 2765 1518 9222     		mov	r2, #146
 2766 151a 9200     		lsl	r2, r2, #2
 2767 151c BA18     		add	r2, r7, r2
 2768 151e 1360     		str	r3, [r2]
 2769 1520 BC23     		mov	r3, #188
 2770 1522 DB00     		lsl	r3, r3, #3
 2771 1524 FB18     		add	r3, r7, r3
 2772 1526 1B68     		ldr	r3, [r3]
 2773 1528 9022     		mov	r2, #144
 2774 152a 9200     		lsl	r2, r2, #2
 2775 152c BA18     		add	r2, r7, r2
 2776 152e 1360     		str	r3, [r2]
 2777 1530 DB17     		asr	r3, r3, #31
 2778 1532 9122     		mov	r2, #145
 2779 1534 9200     		lsl	r2, r2, #2
 2780 1536 BA18     		add	r2, r7, r2
 2781 1538 1360     		str	r3, [r2]
 2782 153a B623     		mov	r3, #182
 2783 153c DB00     		lsl	r3, r3, #3
 2784 153e FB18     		add	r3, r7, r3
 2785 1540 1B68     		ldr	r3, [r3]
 2786 1542 8E22     		mov	r2, #142
 2787 1544 9200     		lsl	r2, r2, #2
 2788 1546 BA18     		add	r2, r7, r2
 2789 1548 1360     		str	r3, [r2]
 2790 154a DB17     		asr	r3, r3, #31
 2791 154c 8F22     		mov	r2, #143
 2792 154e 9200     		lsl	r2, r2, #2
 2793 1550 BA18     		add	r2, r7, r2
 2794 1552 1360     		str	r3, [r2]
 2795 1554 9023     		mov	r3, #144
 2796 1556 9B00     		lsl	r3, r3, #2
 2797 1558 FB18     		add	r3, r7, r3
 2798 155a 1868     		ldr	r0, [r3]
 2799 155c 5968     		ldr	r1, [r3, #4]
 2800 155e 8E23     		mov	r3, #142
 2801 1560 9B00     		lsl	r3, r3, #2
 2802 1562 FB18     		add	r3, r7, r3
 2803 1564 1A68     		ldr	r2, [r3]
 2804 1566 5B68     		ldr	r3, [r3, #4]
 2805 1568 FFF7FEFF 		bl	__aeabi_lmul
 2806 156c 031C     		mov	r3, r0
 2807 156e 0C1C     		mov	r4, r1
 2808 1570 9222     		mov	r2, #146
 2809 1572 9200     		lsl	r2, r2, #2
 2810 1574 BA18     		add	r2, r7, r2
 2811 1576 1168     		ldr	r1, [r2]
 2812 1578 5268     		ldr	r2, [r2, #4]
 2813 157a 5B18     		add	r3, r3, r1
 2814 157c 5441     		adc	r4, r4, r2
ARM GAS  C:\Users\fneves\AppData\Local\Temp\ccE35dyd.s 			page 57


 2815 157e 2200     		asr	r2, r4, #0
 2816 1580 8C21     		mov	r1, #140
 2817 1582 8900     		lsl	r1, r1, #2
 2818 1584 7918     		add	r1, r7, r1
 2819 1586 0A60     		str	r2, [r1]
 2820 1588 E317     		asr	r3, r4, #31
 2821 158a 8D22     		mov	r2, #141
 2822 158c 9200     		lsl	r2, r2, #2
 2823 158e BA18     		add	r2, r7, r2
 2824 1590 1360     		str	r3, [r2]
 2825 1592 8C23     		mov	r3, #140
 2826 1594 9B00     		lsl	r3, r3, #2
 2827 1596 FB18     		add	r3, r7, r3
 2828 1598 1B68     		ldr	r3, [r3]
 2829 159a BE22     		mov	r2, #190
 2830 159c D200     		lsl	r2, r2, #3
 2831 159e BA18     		add	r2, r7, r2
 2832 15a0 1360     		str	r3, [r2]
 366:Source\FilteringFunctions/arm_correlate_fast_q31.c ****         /* acc1 +=  x[5] * y[4] */
 367:Source\FilteringFunctions/arm_correlate_fast_q31.c ****         acc1 = (q31_t) ((((q63_t) acc1 << 32) + ((q63_t) x1 * c0)) >> 32);
 2833              		.loc 1 367 0
 2834 15a2 BF4B     		ldr	r3, .L50+8
 2835 15a4 FB18     		add	r3, r7, r3
 2836 15a6 1B68     		ldr	r3, [r3]
 2837 15a8 8A22     		mov	r2, #138
 2838 15aa 9200     		lsl	r2, r2, #2
 2839 15ac BA18     		add	r2, r7, r2
 2840 15ae 1360     		str	r3, [r2]
 2841 15b0 DB17     		asr	r3, r3, #31
 2842 15b2 8B22     		mov	r2, #139
 2843 15b4 9200     		lsl	r2, r2, #2
 2844 15b6 BA18     		add	r2, r7, r2
 2845 15b8 1360     		str	r3, [r2]
 2846 15ba 8A23     		mov	r3, #138
 2847 15bc 9B00     		lsl	r3, r3, #2
 2848 15be FB18     		add	r3, r7, r3
 2849 15c0 1B68     		ldr	r3, [r3]
 2850 15c2 1B00     		lsl	r3, r3, #0
 2851 15c4 8922     		mov	r2, #137
 2852 15c6 9200     		lsl	r2, r2, #2
 2853 15c8 BA18     		add	r2, r7, r2
 2854 15ca 1360     		str	r3, [r2]
 2855 15cc 0023     		mov	r3, #0
 2856 15ce 8822     		mov	r2, #136
 2857 15d0 9200     		lsl	r2, r2, #2
 2858 15d2 BA18     		add	r2, r7, r2
 2859 15d4 1360     		str	r3, [r2]
 2860 15d6 B34B     		ldr	r3, .L50+12
 2861 15d8 FB18     		add	r3, r7, r3
 2862 15da 1B68     		ldr	r3, [r3]
 2863 15dc 8622     		mov	r2, #134
 2864 15de 9200     		lsl	r2, r2, #2
 2865 15e0 BA18     		add	r2, r7, r2
 2866 15e2 1360     		str	r3, [r2]
 2867 15e4 DB17     		asr	r3, r3, #31
 2868 15e6 8722     		mov	r2, #135
 2869 15e8 9200     		lsl	r2, r2, #2
ARM GAS  C:\Users\fneves\AppData\Local\Temp\ccE35dyd.s 			page 58


 2870 15ea BA18     		add	r2, r7, r2
 2871 15ec 1360     		str	r3, [r2]
 2872 15ee B623     		mov	r3, #182
 2873 15f0 DB00     		lsl	r3, r3, #3
 2874 15f2 FB18     		add	r3, r7, r3
 2875 15f4 1B68     		ldr	r3, [r3]
 2876 15f6 8422     		mov	r2, #132
 2877 15f8 9200     		lsl	r2, r2, #2
 2878 15fa BA18     		add	r2, r7, r2
 2879 15fc 1360     		str	r3, [r2]
 2880 15fe DB17     		asr	r3, r3, #31
 2881 1600 8522     		mov	r2, #133
 2882 1602 9200     		lsl	r2, r2, #2
 2883 1604 BA18     		add	r2, r7, r2
 2884 1606 1360     		str	r3, [r2]
 2885 1608 8623     		mov	r3, #134
 2886 160a 9B00     		lsl	r3, r3, #2
 2887 160c FB18     		add	r3, r7, r3
 2888 160e 1868     		ldr	r0, [r3]
 2889 1610 5968     		ldr	r1, [r3, #4]
 2890 1612 8423     		mov	r3, #132
 2891 1614 9B00     		lsl	r3, r3, #2
 2892 1616 FB18     		add	r3, r7, r3
 2893 1618 1A68     		ldr	r2, [r3]
 2894 161a 5B68     		ldr	r3, [r3, #4]
 2895 161c FFF7FEFF 		bl	__aeabi_lmul
 2896 1620 031C     		mov	r3, r0
 2897 1622 0C1C     		mov	r4, r1
 2898 1624 8822     		mov	r2, #136
 2899 1626 9200     		lsl	r2, r2, #2
 2900 1628 BA18     		add	r2, r7, r2
 2901 162a 1168     		ldr	r1, [r2]
 2902 162c 5268     		ldr	r2, [r2, #4]
 2903 162e 5B18     		add	r3, r3, r1
 2904 1630 5441     		adc	r4, r4, r2
 2905 1632 2200     		asr	r2, r4, #0
 2906 1634 8221     		mov	r1, #130
 2907 1636 8900     		lsl	r1, r1, #2
 2908 1638 7918     		add	r1, r7, r1
 2909 163a 0A60     		str	r2, [r1]
 2910 163c E317     		asr	r3, r4, #31
 2911 163e 8322     		mov	r2, #131
 2912 1640 9200     		lsl	r2, r2, #2
 2913 1642 BA18     		add	r2, r7, r2
 2914 1644 1360     		str	r3, [r2]
 2915 1646 8223     		mov	r3, #130
 2916 1648 9B00     		lsl	r3, r3, #2
 2917 164a FB18     		add	r3, r7, r3
 2918 164c 1B68     		ldr	r3, [r3]
 2919 164e 944A     		ldr	r2, .L50+8
 2920 1650 BA18     		add	r2, r7, r2
 2921 1652 1360     		str	r3, [r2]
 368:Source\FilteringFunctions/arm_correlate_fast_q31.c ****         /* acc2 +=  x[6] * y[4] */
 369:Source\FilteringFunctions/arm_correlate_fast_q31.c ****         acc2 = (q31_t) ((((q63_t) acc2 << 32) + ((q63_t) x2 * c0)) >> 32);
 2922              		.loc 1 369 0
 2923 1654 BD23     		mov	r3, #189
 2924 1656 DB00     		lsl	r3, r3, #3
ARM GAS  C:\Users\fneves\AppData\Local\Temp\ccE35dyd.s 			page 59


 2925 1658 FB18     		add	r3, r7, r3
 2926 165a 1B68     		ldr	r3, [r3]
 2927 165c 8022     		mov	r2, #128
 2928 165e 9200     		lsl	r2, r2, #2
 2929 1660 BA18     		add	r2, r7, r2
 2930 1662 1360     		str	r3, [r2]
 2931 1664 DB17     		asr	r3, r3, #31
 2932 1666 8122     		mov	r2, #129
 2933 1668 9200     		lsl	r2, r2, #2
 2934 166a BA18     		add	r2, r7, r2
 2935 166c 1360     		str	r3, [r2]
 2936 166e 8023     		mov	r3, #128
 2937 1670 9B00     		lsl	r3, r3, #2
 2938 1672 FB18     		add	r3, r7, r3
 2939 1674 1B68     		ldr	r3, [r3]
 2940 1676 1B00     		lsl	r3, r3, #0
 2941 1678 FE22     		mov	r2, #254
 2942 167a 5200     		lsl	r2, r2, #1
 2943 167c BA18     		add	r2, r7, r2
 2944 167e 1360     		str	r3, [r2]
 2945 1680 0023     		mov	r3, #0
 2946 1682 FC22     		mov	r2, #252
 2947 1684 5200     		lsl	r2, r2, #1
 2948 1686 BA18     		add	r2, r7, r2
 2949 1688 1360     		str	r3, [r2]
 2950 168a BB23     		mov	r3, #187
 2951 168c DB00     		lsl	r3, r3, #3
 2952 168e FB18     		add	r3, r7, r3
 2953 1690 1B68     		ldr	r3, [r3]
 2954 1692 F822     		mov	r2, #248
 2955 1694 5200     		lsl	r2, r2, #1
 2956 1696 BA18     		add	r2, r7, r2
 2957 1698 1360     		str	r3, [r2]
 2958 169a DB17     		asr	r3, r3, #31
 2959 169c FA22     		mov	r2, #250
 2960 169e 5200     		lsl	r2, r2, #1
 2961 16a0 BA18     		add	r2, r7, r2
 2962 16a2 1360     		str	r3, [r2]
 2963 16a4 B623     		mov	r3, #182
 2964 16a6 DB00     		lsl	r3, r3, #3
 2965 16a8 FB18     		add	r3, r7, r3
 2966 16aa 1B68     		ldr	r3, [r3]
 2967 16ac F422     		mov	r2, #244
 2968 16ae 5200     		lsl	r2, r2, #1
 2969 16b0 BA18     		add	r2, r7, r2
 2970 16b2 1360     		str	r3, [r2]
 2971 16b4 DB17     		asr	r3, r3, #31
 2972 16b6 F622     		mov	r2, #246
 2973 16b8 5200     		lsl	r2, r2, #1
 2974 16ba BA18     		add	r2, r7, r2
 2975 16bc 1360     		str	r3, [r2]
 2976 16be F823     		mov	r3, #248
 2977 16c0 5B00     		lsl	r3, r3, #1
 2978 16c2 FB18     		add	r3, r7, r3
 2979 16c4 1868     		ldr	r0, [r3]
 2980 16c6 5968     		ldr	r1, [r3, #4]
 2981 16c8 F423     		mov	r3, #244
ARM GAS  C:\Users\fneves\AppData\Local\Temp\ccE35dyd.s 			page 60


 2982 16ca 5B00     		lsl	r3, r3, #1
 2983 16cc FB18     		add	r3, r7, r3
 2984 16ce 1A68     		ldr	r2, [r3]
 2985 16d0 5B68     		ldr	r3, [r3, #4]
 2986 16d2 FFF7FEFF 		bl	__aeabi_lmul
 2987 16d6 031C     		mov	r3, r0
 2988 16d8 0C1C     		mov	r4, r1
 2989 16da FC22     		mov	r2, #252
 2990 16dc 5200     		lsl	r2, r2, #1
 2991 16de BA18     		add	r2, r7, r2
 2992 16e0 1168     		ldr	r1, [r2]
 2993 16e2 5268     		ldr	r2, [r2, #4]
 2994 16e4 5B18     		add	r3, r3, r1
 2995 16e6 5441     		adc	r4, r4, r2
 2996 16e8 2200     		asr	r2, r4, #0
 2997 16ea F021     		mov	r1, #240
 2998 16ec 4900     		lsl	r1, r1, #1
 2999 16ee 7918     		add	r1, r7, r1
 3000 16f0 0A60     		str	r2, [r1]
 3001 16f2 E317     		asr	r3, r4, #31
 3002 16f4 F222     		mov	r2, #242
 3003 16f6 5200     		lsl	r2, r2, #1
 3004 16f8 BA18     		add	r2, r7, r2
 3005 16fa 1360     		str	r3, [r2]
 3006 16fc F023     		mov	r3, #240
 3007 16fe 5B00     		lsl	r3, r3, #1
 3008 1700 FB18     		add	r3, r7, r3
 3009 1702 1B68     		ldr	r3, [r3]
 3010 1704 BD22     		mov	r2, #189
 3011 1706 D200     		lsl	r2, r2, #3
 3012 1708 BA18     		add	r2, r7, r2
 3013 170a 1360     		str	r3, [r2]
 370:Source\FilteringFunctions/arm_correlate_fast_q31.c ****         /* acc3 +=  x[7] * y[4] */
 371:Source\FilteringFunctions/arm_correlate_fast_q31.c ****         acc3 = (q31_t) ((((q63_t) acc3 << 32) + ((q63_t) x3 * c0)) >> 32);
 3014              		.loc 1 371 0
 3015 170c 664B     		ldr	r3, .L50+16
 3016 170e FB18     		add	r3, r7, r3
 3017 1710 1B68     		ldr	r3, [r3]
 3018 1712 EC22     		mov	r2, #236
 3019 1714 5200     		lsl	r2, r2, #1
 3020 1716 BA18     		add	r2, r7, r2
 3021 1718 1360     		str	r3, [r2]
 3022 171a DB17     		asr	r3, r3, #31
 3023 171c EE22     		mov	r2, #238
 3024 171e 5200     		lsl	r2, r2, #1
 3025 1720 BA18     		add	r2, r7, r2
 3026 1722 1360     		str	r3, [r2]
 3027 1724 EC23     		mov	r3, #236
 3028 1726 5B00     		lsl	r3, r3, #1
 3029 1728 FB18     		add	r3, r7, r3
 3030 172a 1B68     		ldr	r3, [r3]
 3031 172c 1B00     		lsl	r3, r3, #0
 3032 172e EA22     		mov	r2, #234
 3033 1730 5200     		lsl	r2, r2, #1
 3034 1732 BA18     		add	r2, r7, r2
 3035 1734 1360     		str	r3, [r2]
 3036 1736 0023     		mov	r3, #0
ARM GAS  C:\Users\fneves\AppData\Local\Temp\ccE35dyd.s 			page 61


 3037 1738 E822     		mov	r2, #232
 3038 173a 5200     		lsl	r2, r2, #1
 3039 173c BA18     		add	r2, r7, r2
 3040 173e 1360     		str	r3, [r2]
 3041 1740 564B     		ldr	r3, .L50+4
 3042 1742 FB18     		add	r3, r7, r3
 3043 1744 1B68     		ldr	r3, [r3]
 3044 1746 E422     		mov	r2, #228
 3045 1748 5200     		lsl	r2, r2, #1
 3046 174a BA18     		add	r2, r7, r2
 3047 174c 1360     		str	r3, [r2]
 3048 174e DB17     		asr	r3, r3, #31
 3049 1750 E622     		mov	r2, #230
 3050 1752 5200     		lsl	r2, r2, #1
 3051 1754 BA18     		add	r2, r7, r2
 3052 1756 1360     		str	r3, [r2]
 3053 1758 B623     		mov	r3, #182
 3054 175a DB00     		lsl	r3, r3, #3
 3055 175c FB18     		add	r3, r7, r3
 3056 175e 1B68     		ldr	r3, [r3]
 3057 1760 E022     		mov	r2, #224
 3058 1762 5200     		lsl	r2, r2, #1
 3059 1764 BA18     		add	r2, r7, r2
 3060 1766 1360     		str	r3, [r2]
 3061 1768 DB17     		asr	r3, r3, #31
 3062 176a E222     		mov	r2, #226
 3063 176c 5200     		lsl	r2, r2, #1
 3064 176e BA18     		add	r2, r7, r2
 3065 1770 1360     		str	r3, [r2]
 3066 1772 E423     		mov	r3, #228
 3067 1774 5B00     		lsl	r3, r3, #1
 3068 1776 FB18     		add	r3, r7, r3
 3069 1778 1868     		ldr	r0, [r3]
 3070 177a 5968     		ldr	r1, [r3, #4]
 3071 177c E023     		mov	r3, #224
 3072 177e 5B00     		lsl	r3, r3, #1
 3073 1780 FB18     		add	r3, r7, r3
 3074 1782 1A68     		ldr	r2, [r3]
 3075 1784 5B68     		ldr	r3, [r3, #4]
 3076 1786 FFF7FEFF 		bl	__aeabi_lmul
 3077 178a 031C     		mov	r3, r0
 3078 178c 0C1C     		mov	r4, r1
 3079 178e E822     		mov	r2, #232
 3080 1790 5200     		lsl	r2, r2, #1
 3081 1792 BA18     		add	r2, r7, r2
 3082 1794 1168     		ldr	r1, [r2]
 3083 1796 5268     		ldr	r2, [r2, #4]
 3084 1798 5B18     		add	r3, r3, r1
 3085 179a 5441     		adc	r4, r4, r2
 3086 179c 2200     		asr	r2, r4, #0
 3087 179e DC21     		mov	r1, #220
 3088 17a0 4900     		lsl	r1, r1, #1
 3089 17a2 7918     		add	r1, r7, r1
 3090 17a4 0A60     		str	r2, [r1]
 3091 17a6 E317     		asr	r3, r4, #31
 3092 17a8 DE22     		mov	r2, #222
 3093 17aa 5200     		lsl	r2, r2, #1
ARM GAS  C:\Users\fneves\AppData\Local\Temp\ccE35dyd.s 			page 62


 3094 17ac BA18     		add	r2, r7, r2
 3095 17ae 1360     		str	r3, [r2]
 3096 17b0 DC23     		mov	r3, #220
 3097 17b2 5B00     		lsl	r3, r3, #1
 3098 17b4 FB18     		add	r3, r7, r3
 3099 17b6 1B68     		ldr	r3, [r3]
 3100 17b8 3B4A     		ldr	r2, .L50+16
 3101 17ba BA18     		add	r2, r7, r2
 3102 17bc 1360     		str	r3, [r2]
 372:Source\FilteringFunctions/arm_correlate_fast_q31.c **** 
 373:Source\FilteringFunctions/arm_correlate_fast_q31.c ****         /* Reuse the present samples for the next MAC */
 374:Source\FilteringFunctions/arm_correlate_fast_q31.c ****         x0 = x1;
 3103              		.loc 1 374 0
 3104 17be 394B     		ldr	r3, .L50+12
 3105 17c0 FB18     		add	r3, r7, r3
 3106 17c2 1B68     		ldr	r3, [r3]
 3107 17c4 BC22     		mov	r2, #188
 3108 17c6 D200     		lsl	r2, r2, #3
 3109 17c8 BA18     		add	r2, r7, r2
 3110 17ca 1360     		str	r3, [r2]
 375:Source\FilteringFunctions/arm_correlate_fast_q31.c ****         x1 = x2;
 3111              		.loc 1 375 0
 3112 17cc BB23     		mov	r3, #187
 3113 17ce DB00     		lsl	r3, r3, #3
 3114 17d0 FB18     		add	r3, r7, r3
 3115 17d2 1B68     		ldr	r3, [r3]
 3116 17d4 334A     		ldr	r2, .L50+12
 3117 17d6 BA18     		add	r2, r7, r2
 3118 17d8 1360     		str	r3, [r2]
 376:Source\FilteringFunctions/arm_correlate_fast_q31.c ****         x2 = x3;
 3119              		.loc 1 376 0
 3120 17da 304B     		ldr	r3, .L50+4
 3121 17dc FB18     		add	r3, r7, r3
 3122 17de 1B68     		ldr	r3, [r3]
 3123 17e0 BB22     		mov	r2, #187
 3124 17e2 D200     		lsl	r2, r2, #3
 3125 17e4 BA18     		add	r2, r7, r2
 3126 17e6 1360     		str	r3, [r2]
 377:Source\FilteringFunctions/arm_correlate_fast_q31.c **** 
 378:Source\FilteringFunctions/arm_correlate_fast_q31.c ****         /* Decrement the loop counter */
 379:Source\FilteringFunctions/arm_correlate_fast_q31.c ****         k--;
 3127              		.loc 1 379 0
 3128 17e8 304B     		ldr	r3, .L50+20
 3129 17ea FB18     		add	r3, r7, r3
 3130 17ec 1B68     		ldr	r3, [r3]
 3131 17ee 013B     		sub	r3, r3, #1
 3132 17f0 2E4A     		ldr	r2, .L50+20
 3133 17f2 BA18     		add	r2, r7, r2
 3134 17f4 1360     		str	r3, [r2]
 3135              	.L13:
 355:Source\FilteringFunctions/arm_correlate_fast_q31.c ****       {
 3136              		.loc 1 355 0
 3137 17f6 2D4B     		ldr	r3, .L50+20
 3138 17f8 FB18     		add	r3, r7, r3
 3139 17fa 1B68     		ldr	r3, [r3]
 3140 17fc 002B     		cmp	r3, #0
 3141 17fe 00D0     		beq	.LCB2927
ARM GAS  C:\Users\fneves\AppData\Local\Temp\ccE35dyd.s 			page 63


 3142 1800 5AE6     		b	.L14	@long jump
 3143              	.LCB2927:
 380:Source\FilteringFunctions/arm_correlate_fast_q31.c ****       }
 381:Source\FilteringFunctions/arm_correlate_fast_q31.c **** 
 382:Source\FilteringFunctions/arm_correlate_fast_q31.c ****       /* Store the result in the accumulator in the destination buffer. */
 383:Source\FilteringFunctions/arm_correlate_fast_q31.c ****       *pOut = (q31_t) (acc0 << 1);
 3144              		.loc 1 383 0
 3145 1802 BE23     		mov	r3, #190
 3146 1804 DB00     		lsl	r3, r3, #3
 3147 1806 FB18     		add	r3, r7, r3
 3148 1808 1B68     		ldr	r3, [r3]
 3149 180a 5A00     		lsl	r2, r3, #1
 3150 180c 284B     		ldr	r3, .L50+24
 3151 180e FB18     		add	r3, r7, r3
 3152 1810 1B68     		ldr	r3, [r3]
 3153 1812 1A60     		str	r2, [r3]
 384:Source\FilteringFunctions/arm_correlate_fast_q31.c ****       /* Destination pointer is updated according to the address modifier, inc */
 385:Source\FilteringFunctions/arm_correlate_fast_q31.c ****       pOut += inc;
 3154              		.loc 1 385 0
 3155 1814 B823     		mov	r3, #184
 3156 1816 DB00     		lsl	r3, r3, #3
 3157 1818 FB18     		add	r3, r7, r3
 3158 181a 1B68     		ldr	r3, [r3]
 3159 181c 9A00     		lsl	r2, r3, #2
 3160 181e 244B     		ldr	r3, .L50+24
 3161 1820 FB18     		add	r3, r7, r3
 3162 1822 1B68     		ldr	r3, [r3]
 3163 1824 9B18     		add	r3, r3, r2
 3164 1826 224A     		ldr	r2, .L50+24
 3165 1828 BA18     		add	r2, r7, r2
 3166 182a 1360     		str	r3, [r2]
 386:Source\FilteringFunctions/arm_correlate_fast_q31.c **** 
 387:Source\FilteringFunctions/arm_correlate_fast_q31.c ****       *pOut = (q31_t) (acc1 << 1);
 3167              		.loc 1 387 0
 3168 182c 1C4B     		ldr	r3, .L50+8
 3169 182e FB18     		add	r3, r7, r3
 3170 1830 1B68     		ldr	r3, [r3]
 3171 1832 5A00     		lsl	r2, r3, #1
 3172 1834 1E4B     		ldr	r3, .L50+24
 3173 1836 FB18     		add	r3, r7, r3
 3174 1838 1B68     		ldr	r3, [r3]
 3175 183a 1A60     		str	r2, [r3]
 388:Source\FilteringFunctions/arm_correlate_fast_q31.c ****       pOut += inc;
 3176              		.loc 1 388 0
 3177 183c B823     		mov	r3, #184
 3178 183e DB00     		lsl	r3, r3, #3
 3179 1840 FB18     		add	r3, r7, r3
 3180 1842 1B68     		ldr	r3, [r3]
 3181 1844 9A00     		lsl	r2, r3, #2
 3182 1846 1A4B     		ldr	r3, .L50+24
 3183 1848 FB18     		add	r3, r7, r3
 3184 184a 1B68     		ldr	r3, [r3]
 3185 184c 9B18     		add	r3, r3, r2
 3186 184e 184A     		ldr	r2, .L50+24
 3187 1850 BA18     		add	r2, r7, r2
 3188 1852 1360     		str	r3, [r2]
 389:Source\FilteringFunctions/arm_correlate_fast_q31.c **** 
ARM GAS  C:\Users\fneves\AppData\Local\Temp\ccE35dyd.s 			page 64


 390:Source\FilteringFunctions/arm_correlate_fast_q31.c ****       *pOut = (q31_t) (acc2 << 1);
 3189              		.loc 1 390 0
 3190 1854 BD23     		mov	r3, #189
 3191 1856 DB00     		lsl	r3, r3, #3
 3192 1858 FB18     		add	r3, r7, r3
 3193 185a 1B68     		ldr	r3, [r3]
 3194 185c 5A00     		lsl	r2, r3, #1
 3195 185e 144B     		ldr	r3, .L50+24
 3196 1860 FB18     		add	r3, r7, r3
 3197 1862 1B68     		ldr	r3, [r3]
 3198 1864 1A60     		str	r2, [r3]
 391:Source\FilteringFunctions/arm_correlate_fast_q31.c ****       pOut += inc;
 3199              		.loc 1 391 0
 3200 1866 B823     		mov	r3, #184
 3201 1868 DB00     		lsl	r3, r3, #3
 3202 186a FB18     		add	r3, r7, r3
 3203 186c 1B68     		ldr	r3, [r3]
 3204 186e 9A00     		lsl	r2, r3, #2
 3205 1870 0F4B     		ldr	r3, .L50+24
 3206 1872 FB18     		add	r3, r7, r3
 3207 1874 1B68     		ldr	r3, [r3]
 3208 1876 9B18     		add	r3, r3, r2
 3209 1878 0D4A     		ldr	r2, .L50+24
 3210 187a BA18     		add	r2, r7, r2
 3211 187c 1360     		str	r3, [r2]
 392:Source\FilteringFunctions/arm_correlate_fast_q31.c **** 
 393:Source\FilteringFunctions/arm_correlate_fast_q31.c ****       *pOut = (q31_t) (acc3 << 1);
 3212              		.loc 1 393 0
 3213 187e 0A4B     		ldr	r3, .L50+16
 3214 1880 FB18     		add	r3, r7, r3
 3215 1882 1B68     		ldr	r3, [r3]
 3216 1884 5A00     		lsl	r2, r3, #1
 3217 1886 0A4B     		ldr	r3, .L50+24
 3218 1888 FB18     		add	r3, r7, r3
 3219 188a 1B68     		ldr	r3, [r3]
 3220 188c 1A60     		str	r2, [r3]
 394:Source\FilteringFunctions/arm_correlate_fast_q31.c ****       pOut += inc;
 3221              		.loc 1 394 0
 3222 188e B823     		mov	r3, #184
 3223 1890 DB00     		lsl	r3, r3, #3
 3224 1892 FB18     		add	r3, r7, r3
 3225 1894 1B68     		ldr	r3, [r3]
 3226 1896 0DE0     		b	.L51
 3227              	.L52:
 3228              		.align	2
 3229              	.L50:
 3230 1898 FC050000 		.word	1532
 3231 189c AC050000 		.word	1452
 3232 18a0 EC050000 		.word	1516
 3233 18a4 DC050000 		.word	1500
 3234 18a8 E4050000 		.word	1508
 3235 18ac D4050000 		.word	1492
 3236 18b0 04060000 		.word	1540
 3237              	.L51:
 3238 18b4 9A00     		lsl	r2, r3, #2
 3239 18b6 244B     		ldr	r3, .L53
 3240 18b8 FB18     		add	r3, r7, r3
ARM GAS  C:\Users\fneves\AppData\Local\Temp\ccE35dyd.s 			page 65


 3241 18ba 1B68     		ldr	r3, [r3]
 3242 18bc 9B18     		add	r3, r3, r2
 3243 18be 224A     		ldr	r2, .L53
 3244 18c0 BA18     		add	r2, r7, r2
 3245 18c2 1360     		str	r3, [r2]
 395:Source\FilteringFunctions/arm_correlate_fast_q31.c **** 
 396:Source\FilteringFunctions/arm_correlate_fast_q31.c ****       /* Increment the pointer pIn1 index, count by 4 */
 397:Source\FilteringFunctions/arm_correlate_fast_q31.c ****       count += 4u;
 3246              		.loc 1 397 0
 3247 18c4 BA23     		mov	r3, #186
 3248 18c6 DB00     		lsl	r3, r3, #3
 3249 18c8 FB18     		add	r3, r7, r3
 3250 18ca 1B68     		ldr	r3, [r3]
 3251 18cc 0433     		add	r3, r3, #4
 3252 18ce BA22     		mov	r2, #186
 3253 18d0 D200     		lsl	r2, r2, #3
 3254 18d2 BA18     		add	r2, r7, r2
 3255 18d4 1360     		str	r3, [r2]
 398:Source\FilteringFunctions/arm_correlate_fast_q31.c **** 
 399:Source\FilteringFunctions/arm_correlate_fast_q31.c ****       /* Update the inputA and inputB pointers for next MAC calculation */
 400:Source\FilteringFunctions/arm_correlate_fast_q31.c ****       px = pIn1 + count;
 3256              		.loc 1 400 0
 3257 18d6 BA23     		mov	r3, #186
 3258 18d8 DB00     		lsl	r3, r3, #3
 3259 18da FB18     		add	r3, r7, r3
 3260 18dc 1B68     		ldr	r3, [r3]
 3261 18de 9A00     		lsl	r2, r3, #2
 3262 18e0 1A4B     		ldr	r3, .L53+4
 3263 18e2 FB18     		add	r3, r7, r3
 3264 18e4 1B68     		ldr	r3, [r3]
 3265 18e6 9B18     		add	r3, r3, r2
 3266 18e8 C022     		mov	r2, #192
 3267 18ea D200     		lsl	r2, r2, #3
 3268 18ec BA18     		add	r2, r7, r2
 3269 18ee 1360     		str	r3, [r2]
 401:Source\FilteringFunctions/arm_correlate_fast_q31.c ****       py = pIn2;
 3270              		.loc 1 401 0
 3271 18f0 C123     		mov	r3, #193
 3272 18f2 DB00     		lsl	r3, r3, #3
 3273 18f4 FB18     		add	r3, r7, r3
 3274 18f6 1B68     		ldr	r3, [r3]
 3275 18f8 154A     		ldr	r2, .L53+8
 3276 18fa BA18     		add	r2, r7, r2
 3277 18fc 1360     		str	r3, [r2]
 402:Source\FilteringFunctions/arm_correlate_fast_q31.c **** 
 403:Source\FilteringFunctions/arm_correlate_fast_q31.c **** 
 404:Source\FilteringFunctions/arm_correlate_fast_q31.c ****       /* Decrement the loop counter */
 405:Source\FilteringFunctions/arm_correlate_fast_q31.c ****       blkCnt--;
 3278              		.loc 1 405 0
 3279 18fe 154B     		ldr	r3, .L53+12
 3280 1900 FB18     		add	r3, r7, r3
 3281 1902 1B68     		ldr	r3, [r3]
 3282 1904 013B     		sub	r3, r3, #1
 3283 1906 134A     		ldr	r2, .L53+12
 3284 1908 BA18     		add	r2, r7, r2
 3285 190a 1360     		str	r3, [r2]
 3286              	.L11:
ARM GAS  C:\Users\fneves\AppData\Local\Temp\ccE35dyd.s 			page 66


 264:Source\FilteringFunctions/arm_correlate_fast_q31.c ****     {
 3287              		.loc 1 264 0
 3288 190c 114B     		ldr	r3, .L53+12
 3289 190e FB18     		add	r3, r7, r3
 3290 1910 1B68     		ldr	r3, [r3]
 3291 1912 002B     		cmp	r3, #0
 3292 1914 01D0     		beq	.LCB3067
 3293 1916 FEF721FF 		bl	.L15	@far jump
 3294              	.LCB3067:
 406:Source\FilteringFunctions/arm_correlate_fast_q31.c ****     }
 407:Source\FilteringFunctions/arm_correlate_fast_q31.c **** 
 408:Source\FilteringFunctions/arm_correlate_fast_q31.c ****     /* If the blockSize2 is not a multiple of 4, compute any remaining output samples here.
 409:Source\FilteringFunctions/arm_correlate_fast_q31.c ****      ** No loop unrolling is used. */
 410:Source\FilteringFunctions/arm_correlate_fast_q31.c ****     blkCnt = blockSize2 % 0x4u;
 3295              		.loc 1 410 0
 3296 191a 0F4B     		ldr	r3, .L53+16
 3297 191c FB18     		add	r3, r7, r3
 3298 191e 1A68     		ldr	r2, [r3]
 3299 1920 0323     		mov	r3, #3
 3300 1922 1340     		and	r3, r2
 3301 1924 0B4A     		ldr	r2, .L53+12
 3302 1926 BA18     		add	r2, r7, r2
 3303 1928 1360     		str	r3, [r2]
 411:Source\FilteringFunctions/arm_correlate_fast_q31.c **** 
 412:Source\FilteringFunctions/arm_correlate_fast_q31.c ****     while (blkCnt > 0u)
 3304              		.loc 1 412 0
 3305 192a 68E2     		b	.L16
 3306              	.L21:
 413:Source\FilteringFunctions/arm_correlate_fast_q31.c ****     {
 414:Source\FilteringFunctions/arm_correlate_fast_q31.c ****       /* Accumulator is made zero for every iteration */
 415:Source\FilteringFunctions/arm_correlate_fast_q31.c ****       sum = 0;
 3307              		.loc 1 415 0
 3308 192c 0023     		mov	r3, #0
 3309 192e 0B4A     		ldr	r2, .L53+20
 3310 1930 BA18     		add	r2, r7, r2
 3311 1932 1360     		str	r3, [r2]
 416:Source\FilteringFunctions/arm_correlate_fast_q31.c **** 
 417:Source\FilteringFunctions/arm_correlate_fast_q31.c ****       /* Apply loop unrolling and compute 4 MACs simultaneously. */
 418:Source\FilteringFunctions/arm_correlate_fast_q31.c ****       k = srcBLen >> 2u;
 3312              		.loc 1 418 0
 3313 1934 B323     		mov	r3, #179
 3314 1936 DB00     		lsl	r3, r3, #3
 3315 1938 FB18     		add	r3, r7, r3
 3316 193a 1B68     		ldr	r3, [r3]
 3317 193c 9B08     		lsr	r3, r3, #2
 3318 193e 084A     		ldr	r2, .L53+24
 3319 1940 BA18     		add	r2, r7, r2
 3320 1942 1360     		str	r3, [r2]
 419:Source\FilteringFunctions/arm_correlate_fast_q31.c **** 
 420:Source\FilteringFunctions/arm_correlate_fast_q31.c ****       /* First part of the processing with loop unrolling.  Compute 4 MACs at a time.
 421:Source\FilteringFunctions/arm_correlate_fast_q31.c ****        ** a second loop below computes MACs for the remaining 1 to 3 samples. */
 422:Source\FilteringFunctions/arm_correlate_fast_q31.c ****       while (k > 0u)
 3321              		.loc 1 422 0
 3322 1944 A5E1     		b	.L17
 3323              	.L54:
 3324 1946 C046     		.align	2
 3325              	.L53:
ARM GAS  C:\Users\fneves\AppData\Local\Temp\ccE35dyd.s 			page 67


 3326 1948 04060000 		.word	1540
 3327 194c 0C060000 		.word	1548
 3328 1950 FC050000 		.word	1532
 3329 1954 CC050000 		.word	1484
 3330 1958 B4050000 		.word	1460
 3331 195c F4050000 		.word	1524
 3332 1960 D4050000 		.word	1492
 3333              	.L18:
 423:Source\FilteringFunctions/arm_correlate_fast_q31.c ****       {
 424:Source\FilteringFunctions/arm_correlate_fast_q31.c ****         /* Perform the multiply-accumulates */
 425:Source\FilteringFunctions/arm_correlate_fast_q31.c ****         sum = (q31_t) ((((q63_t) sum << 32) +
 3334              		.loc 1 425 0
 3335 1964 D34B     		ldr	r3, .L55
 3336 1966 FB18     		add	r3, r7, r3
 3337 1968 1B68     		ldr	r3, [r3]
 3338 196a D822     		mov	r2, #216
 3339 196c 5200     		lsl	r2, r2, #1
 3340 196e BA18     		add	r2, r7, r2
 3341 1970 1360     		str	r3, [r2]
 3342 1972 DB17     		asr	r3, r3, #31
 3343 1974 DA22     		mov	r2, #218
 3344 1976 5200     		lsl	r2, r2, #1
 3345 1978 BA18     		add	r2, r7, r2
 3346 197a 1360     		str	r3, [r2]
 3347 197c D823     		mov	r3, #216
 3348 197e 5B00     		lsl	r3, r3, #1
 3349 1980 FB18     		add	r3, r7, r3
 3350 1982 1B68     		ldr	r3, [r3]
 3351 1984 1B00     		lsl	r3, r3, #0
 3352 1986 D622     		mov	r2, #214
 3353 1988 5200     		lsl	r2, r2, #1
 3354 198a BA18     		add	r2, r7, r2
 3355 198c 1360     		str	r3, [r2]
 3356 198e 0023     		mov	r3, #0
 3357 1990 D422     		mov	r2, #212
 3358 1992 5200     		lsl	r2, r2, #1
 3359 1994 BA18     		add	r2, r7, r2
 3360 1996 1360     		str	r3, [r2]
 426:Source\FilteringFunctions/arm_correlate_fast_q31.c ****                         ((q63_t) * px++ * (*py++))) >> 32);
 3361              		.loc 1 426 0
 3362 1998 C023     		mov	r3, #192
 3363 199a DB00     		lsl	r3, r3, #3
 3364 199c FB18     		add	r3, r7, r3
 3365 199e 1A68     		ldr	r2, [r3]
 3366 19a0 131D     		add	r3, r2, #4
 3367 19a2 C021     		mov	r1, #192
 3368 19a4 C900     		lsl	r1, r1, #3
 3369 19a6 7918     		add	r1, r7, r1
 3370 19a8 0B60     		str	r3, [r1]
 3371 19aa 1368     		ldr	r3, [r2]
 3372 19ac D022     		mov	r2, #208
 3373 19ae 5200     		lsl	r2, r2, #1
 3374 19b0 BA18     		add	r2, r7, r2
 3375 19b2 1360     		str	r3, [r2]
 3376 19b4 DB17     		asr	r3, r3, #31
 3377 19b6 D222     		mov	r2, #210
 3378 19b8 5200     		lsl	r2, r2, #1
ARM GAS  C:\Users\fneves\AppData\Local\Temp\ccE35dyd.s 			page 68


 3379 19ba BA18     		add	r2, r7, r2
 3380 19bc 1360     		str	r3, [r2]
 3381 19be BE4B     		ldr	r3, .L55+4
 3382 19c0 FB18     		add	r3, r7, r3
 3383 19c2 1A68     		ldr	r2, [r3]
 3384 19c4 131D     		add	r3, r2, #4
 3385 19c6 BC49     		ldr	r1, .L55+4
 3386 19c8 7918     		add	r1, r7, r1
 3387 19ca 0B60     		str	r3, [r1]
 3388 19cc 1368     		ldr	r3, [r2]
 3389 19ce CC22     		mov	r2, #204
 3390 19d0 5200     		lsl	r2, r2, #1
 3391 19d2 BA18     		add	r2, r7, r2
 3392 19d4 1360     		str	r3, [r2]
 3393 19d6 DB17     		asr	r3, r3, #31
 3394 19d8 CE22     		mov	r2, #206
 3395 19da 5200     		lsl	r2, r2, #1
 3396 19dc BA18     		add	r2, r7, r2
 3397 19de 1360     		str	r3, [r2]
 3398 19e0 D023     		mov	r3, #208
 3399 19e2 5B00     		lsl	r3, r3, #1
 3400 19e4 FB18     		add	r3, r7, r3
 3401 19e6 1868     		ldr	r0, [r3]
 3402 19e8 5968     		ldr	r1, [r3, #4]
 3403 19ea CC23     		mov	r3, #204
 3404 19ec 5B00     		lsl	r3, r3, #1
 3405 19ee FB18     		add	r3, r7, r3
 3406 19f0 1A68     		ldr	r2, [r3]
 3407 19f2 5B68     		ldr	r3, [r3, #4]
 3408 19f4 FFF7FEFF 		bl	__aeabi_lmul
 3409 19f8 031C     		mov	r3, r0
 3410 19fa 0C1C     		mov	r4, r1
 425:Source\FilteringFunctions/arm_correlate_fast_q31.c ****                         ((q63_t) * px++ * (*py++))) >> 32);
 3411              		.loc 1 425 0
 3412 19fc D422     		mov	r2, #212
 3413 19fe 5200     		lsl	r2, r2, #1
 3414 1a00 BA18     		add	r2, r7, r2
 3415 1a02 1168     		ldr	r1, [r2]
 3416 1a04 5268     		ldr	r2, [r2, #4]
 3417 1a06 5B18     		add	r3, r3, r1
 3418 1a08 5441     		adc	r4, r4, r2
 3419              		.loc 1 426 0
 3420 1a0a 2200     		asr	r2, r4, #0
 3421 1a0c C821     		mov	r1, #200
 3422 1a0e 4900     		lsl	r1, r1, #1
 3423 1a10 7918     		add	r1, r7, r1
 3424 1a12 0A60     		str	r2, [r1]
 3425 1a14 E317     		asr	r3, r4, #31
 3426 1a16 CA22     		mov	r2, #202
 3427 1a18 5200     		lsl	r2, r2, #1
 3428 1a1a BA18     		add	r2, r7, r2
 3429 1a1c 1360     		str	r3, [r2]
 425:Source\FilteringFunctions/arm_correlate_fast_q31.c ****                         ((q63_t) * px++ * (*py++))) >> 32);
 3430              		.loc 1 425 0
 3431 1a1e C823     		mov	r3, #200
 3432 1a20 5B00     		lsl	r3, r3, #1
 3433 1a22 FB18     		add	r3, r7, r3
ARM GAS  C:\Users\fneves\AppData\Local\Temp\ccE35dyd.s 			page 69


 3434 1a24 1B68     		ldr	r3, [r3]
 3435 1a26 A34A     		ldr	r2, .L55
 3436 1a28 BA18     		add	r2, r7, r2
 3437 1a2a 1360     		str	r3, [r2]
 427:Source\FilteringFunctions/arm_correlate_fast_q31.c ****         sum = (q31_t) ((((q63_t) sum << 32) +
 3438              		.loc 1 427 0
 3439 1a2c A14B     		ldr	r3, .L55
 3440 1a2e FB18     		add	r3, r7, r3
 3441 1a30 1B68     		ldr	r3, [r3]
 3442 1a32 C422     		mov	r2, #196
 3443 1a34 5200     		lsl	r2, r2, #1
 3444 1a36 BA18     		add	r2, r7, r2
 3445 1a38 1360     		str	r3, [r2]
 3446 1a3a DB17     		asr	r3, r3, #31
 3447 1a3c C622     		mov	r2, #198
 3448 1a3e 5200     		lsl	r2, r2, #1
 3449 1a40 BA18     		add	r2, r7, r2
 3450 1a42 1360     		str	r3, [r2]
 3451 1a44 C423     		mov	r3, #196
 3452 1a46 5B00     		lsl	r3, r3, #1
 3453 1a48 FB18     		add	r3, r7, r3
 3454 1a4a 1B68     		ldr	r3, [r3]
 3455 1a4c 1B00     		lsl	r3, r3, #0
 3456 1a4e C222     		mov	r2, #194
 3457 1a50 5200     		lsl	r2, r2, #1
 3458 1a52 BA18     		add	r2, r7, r2
 3459 1a54 1360     		str	r3, [r2]
 3460 1a56 0023     		mov	r3, #0
 3461 1a58 C022     		mov	r2, #192
 3462 1a5a 5200     		lsl	r2, r2, #1
 3463 1a5c BA18     		add	r2, r7, r2
 3464 1a5e 1360     		str	r3, [r2]
 428:Source\FilteringFunctions/arm_correlate_fast_q31.c ****                         ((q63_t) * px++ * (*py++))) >> 32);
 3465              		.loc 1 428 0
 3466 1a60 C023     		mov	r3, #192
 3467 1a62 DB00     		lsl	r3, r3, #3
 3468 1a64 FB18     		add	r3, r7, r3
 3469 1a66 1A68     		ldr	r2, [r3]
 3470 1a68 131D     		add	r3, r2, #4
 3471 1a6a C021     		mov	r1, #192
 3472 1a6c C900     		lsl	r1, r1, #3
 3473 1a6e 7918     		add	r1, r7, r1
 3474 1a70 0B60     		str	r3, [r1]
 3475 1a72 1368     		ldr	r3, [r2]
 3476 1a74 BC22     		mov	r2, #188
 3477 1a76 5200     		lsl	r2, r2, #1
 3478 1a78 BA18     		add	r2, r7, r2
 3479 1a7a 1360     		str	r3, [r2]
 3480 1a7c DB17     		asr	r3, r3, #31
 3481 1a7e BE22     		mov	r2, #190
 3482 1a80 5200     		lsl	r2, r2, #1
 3483 1a82 BA18     		add	r2, r7, r2
 3484 1a84 1360     		str	r3, [r2]
 3485 1a86 8C4B     		ldr	r3, .L55+4
 3486 1a88 FB18     		add	r3, r7, r3
 3487 1a8a 1A68     		ldr	r2, [r3]
 3488 1a8c 131D     		add	r3, r2, #4
ARM GAS  C:\Users\fneves\AppData\Local\Temp\ccE35dyd.s 			page 70


 3489 1a8e 8A49     		ldr	r1, .L55+4
 3490 1a90 7918     		add	r1, r7, r1
 3491 1a92 0B60     		str	r3, [r1]
 3492 1a94 1368     		ldr	r3, [r2]
 3493 1a96 B822     		mov	r2, #184
 3494 1a98 5200     		lsl	r2, r2, #1
 3495 1a9a BA18     		add	r2, r7, r2
 3496 1a9c 1360     		str	r3, [r2]
 3497 1a9e DB17     		asr	r3, r3, #31
 3498 1aa0 BA22     		mov	r2, #186
 3499 1aa2 5200     		lsl	r2, r2, #1
 3500 1aa4 BA18     		add	r2, r7, r2
 3501 1aa6 1360     		str	r3, [r2]
 3502 1aa8 BC23     		mov	r3, #188
 3503 1aaa 5B00     		lsl	r3, r3, #1
 3504 1aac FB18     		add	r3, r7, r3
 3505 1aae 1868     		ldr	r0, [r3]
 3506 1ab0 5968     		ldr	r1, [r3, #4]
 3507 1ab2 B823     		mov	r3, #184
 3508 1ab4 5B00     		lsl	r3, r3, #1
 3509 1ab6 FB18     		add	r3, r7, r3
 3510 1ab8 1A68     		ldr	r2, [r3]
 3511 1aba 5B68     		ldr	r3, [r3, #4]
 3512 1abc FFF7FEFF 		bl	__aeabi_lmul
 3513 1ac0 031C     		mov	r3, r0
 3514 1ac2 0C1C     		mov	r4, r1
 427:Source\FilteringFunctions/arm_correlate_fast_q31.c ****         sum = (q31_t) ((((q63_t) sum << 32) +
 3515              		.loc 1 427 0
 3516 1ac4 C022     		mov	r2, #192
 3517 1ac6 5200     		lsl	r2, r2, #1
 3518 1ac8 BA18     		add	r2, r7, r2
 3519 1aca 1168     		ldr	r1, [r2]
 3520 1acc 5268     		ldr	r2, [r2, #4]
 3521 1ace 5B18     		add	r3, r3, r1
 3522 1ad0 5441     		adc	r4, r4, r2
 3523              		.loc 1 428 0
 3524 1ad2 2200     		asr	r2, r4, #0
 3525 1ad4 B421     		mov	r1, #180
 3526 1ad6 4900     		lsl	r1, r1, #1
 3527 1ad8 7918     		add	r1, r7, r1
 3528 1ada 0A60     		str	r2, [r1]
 3529 1adc E317     		asr	r3, r4, #31
 3530 1ade B622     		mov	r2, #182
 3531 1ae0 5200     		lsl	r2, r2, #1
 3532 1ae2 BA18     		add	r2, r7, r2
 3533 1ae4 1360     		str	r3, [r2]
 427:Source\FilteringFunctions/arm_correlate_fast_q31.c ****         sum = (q31_t) ((((q63_t) sum << 32) +
 3534              		.loc 1 427 0
 3535 1ae6 B423     		mov	r3, #180
 3536 1ae8 5B00     		lsl	r3, r3, #1
 3537 1aea FB18     		add	r3, r7, r3
 3538 1aec 1B68     		ldr	r3, [r3]
 3539 1aee 714A     		ldr	r2, .L55
 3540 1af0 BA18     		add	r2, r7, r2
 3541 1af2 1360     		str	r3, [r2]
 429:Source\FilteringFunctions/arm_correlate_fast_q31.c ****         sum = (q31_t) ((((q63_t) sum << 32) +
 3542              		.loc 1 429 0
ARM GAS  C:\Users\fneves\AppData\Local\Temp\ccE35dyd.s 			page 71


 3543 1af4 6F4B     		ldr	r3, .L55
 3544 1af6 FB18     		add	r3, r7, r3
 3545 1af8 1B68     		ldr	r3, [r3]
 3546 1afa B022     		mov	r2, #176
 3547 1afc 5200     		lsl	r2, r2, #1
 3548 1afe BA18     		add	r2, r7, r2
 3549 1b00 1360     		str	r3, [r2]
 3550 1b02 DB17     		asr	r3, r3, #31
 3551 1b04 B222     		mov	r2, #178
 3552 1b06 5200     		lsl	r2, r2, #1
 3553 1b08 BA18     		add	r2, r7, r2
 3554 1b0a 1360     		str	r3, [r2]
 3555 1b0c B023     		mov	r3, #176
 3556 1b0e 5B00     		lsl	r3, r3, #1
 3557 1b10 FB18     		add	r3, r7, r3
 3558 1b12 1B68     		ldr	r3, [r3]
 3559 1b14 1B00     		lsl	r3, r3, #0
 3560 1b16 AE22     		mov	r2, #174
 3561 1b18 5200     		lsl	r2, r2, #1
 3562 1b1a BA18     		add	r2, r7, r2
 3563 1b1c 1360     		str	r3, [r2]
 3564 1b1e 0023     		mov	r3, #0
 3565 1b20 AC22     		mov	r2, #172
 3566 1b22 5200     		lsl	r2, r2, #1
 3567 1b24 BA18     		add	r2, r7, r2
 3568 1b26 1360     		str	r3, [r2]
 430:Source\FilteringFunctions/arm_correlate_fast_q31.c ****                         ((q63_t) * px++ * (*py++))) >> 32);
 3569              		.loc 1 430 0
 3570 1b28 C023     		mov	r3, #192
 3571 1b2a DB00     		lsl	r3, r3, #3
 3572 1b2c FB18     		add	r3, r7, r3
 3573 1b2e 1A68     		ldr	r2, [r3]
 3574 1b30 131D     		add	r3, r2, #4
 3575 1b32 C021     		mov	r1, #192
 3576 1b34 C900     		lsl	r1, r1, #3
 3577 1b36 7918     		add	r1, r7, r1
 3578 1b38 0B60     		str	r3, [r1]
 3579 1b3a 1368     		ldr	r3, [r2]
 3580 1b3c A822     		mov	r2, #168
 3581 1b3e 5200     		lsl	r2, r2, #1
 3582 1b40 BA18     		add	r2, r7, r2
 3583 1b42 1360     		str	r3, [r2]
 3584 1b44 DB17     		asr	r3, r3, #31
 3585 1b46 AA22     		mov	r2, #170
 3586 1b48 5200     		lsl	r2, r2, #1
 3587 1b4a BA18     		add	r2, r7, r2
 3588 1b4c 1360     		str	r3, [r2]
 3589 1b4e 5A4B     		ldr	r3, .L55+4
 3590 1b50 FB18     		add	r3, r7, r3
 3591 1b52 1A68     		ldr	r2, [r3]
 3592 1b54 131D     		add	r3, r2, #4
 3593 1b56 5849     		ldr	r1, .L55+4
 3594 1b58 7918     		add	r1, r7, r1
 3595 1b5a 0B60     		str	r3, [r1]
 3596 1b5c 1368     		ldr	r3, [r2]
 3597 1b5e A422     		mov	r2, #164
 3598 1b60 5200     		lsl	r2, r2, #1
ARM GAS  C:\Users\fneves\AppData\Local\Temp\ccE35dyd.s 			page 72


 3599 1b62 BA18     		add	r2, r7, r2
 3600 1b64 1360     		str	r3, [r2]
 3601 1b66 DB17     		asr	r3, r3, #31
 3602 1b68 A622     		mov	r2, #166
 3603 1b6a 5200     		lsl	r2, r2, #1
 3604 1b6c BA18     		add	r2, r7, r2
 3605 1b6e 1360     		str	r3, [r2]
 3606 1b70 A823     		mov	r3, #168
 3607 1b72 5B00     		lsl	r3, r3, #1
 3608 1b74 FB18     		add	r3, r7, r3
 3609 1b76 1868     		ldr	r0, [r3]
 3610 1b78 5968     		ldr	r1, [r3, #4]
 3611 1b7a A423     		mov	r3, #164
 3612 1b7c 5B00     		lsl	r3, r3, #1
 3613 1b7e FB18     		add	r3, r7, r3
 3614 1b80 1A68     		ldr	r2, [r3]
 3615 1b82 5B68     		ldr	r3, [r3, #4]
 3616 1b84 FFF7FEFF 		bl	__aeabi_lmul
 3617 1b88 031C     		mov	r3, r0
 3618 1b8a 0C1C     		mov	r4, r1
 429:Source\FilteringFunctions/arm_correlate_fast_q31.c ****         sum = (q31_t) ((((q63_t) sum << 32) +
 3619              		.loc 1 429 0
 3620 1b8c AC22     		mov	r2, #172
 3621 1b8e 5200     		lsl	r2, r2, #1
 3622 1b90 BA18     		add	r2, r7, r2
 3623 1b92 1168     		ldr	r1, [r2]
 3624 1b94 5268     		ldr	r2, [r2, #4]
 3625 1b96 5B18     		add	r3, r3, r1
 3626 1b98 5441     		adc	r4, r4, r2
 3627              		.loc 1 430 0
 3628 1b9a 2200     		asr	r2, r4, #0
 3629 1b9c A021     		mov	r1, #160
 3630 1b9e 4900     		lsl	r1, r1, #1
 3631 1ba0 7918     		add	r1, r7, r1
 3632 1ba2 0A60     		str	r2, [r1]
 3633 1ba4 E317     		asr	r3, r4, #31
 3634 1ba6 A222     		mov	r2, #162
 3635 1ba8 5200     		lsl	r2, r2, #1
 3636 1baa BA18     		add	r2, r7, r2
 3637 1bac 1360     		str	r3, [r2]
 429:Source\FilteringFunctions/arm_correlate_fast_q31.c ****         sum = (q31_t) ((((q63_t) sum << 32) +
 3638              		.loc 1 429 0
 3639 1bae A023     		mov	r3, #160
 3640 1bb0 5B00     		lsl	r3, r3, #1
 3641 1bb2 FB18     		add	r3, r7, r3
 3642 1bb4 1B68     		ldr	r3, [r3]
 3643 1bb6 3F4A     		ldr	r2, .L55
 3644 1bb8 BA18     		add	r2, r7, r2
 3645 1bba 1360     		str	r3, [r2]
 431:Source\FilteringFunctions/arm_correlate_fast_q31.c ****         sum = (q31_t) ((((q63_t) sum << 32) +
 3646              		.loc 1 431 0
 3647 1bbc 3D4B     		ldr	r3, .L55
 3648 1bbe FB18     		add	r3, r7, r3
 3649 1bc0 1B68     		ldr	r3, [r3]
 3650 1bc2 9C22     		mov	r2, #156
 3651 1bc4 5200     		lsl	r2, r2, #1
 3652 1bc6 BA18     		add	r2, r7, r2
ARM GAS  C:\Users\fneves\AppData\Local\Temp\ccE35dyd.s 			page 73


 3653 1bc8 1360     		str	r3, [r2]
 3654 1bca DB17     		asr	r3, r3, #31
 3655 1bcc 9E22     		mov	r2, #158
 3656 1bce 5200     		lsl	r2, r2, #1
 3657 1bd0 BA18     		add	r2, r7, r2
 3658 1bd2 1360     		str	r3, [r2]
 3659 1bd4 9C23     		mov	r3, #156
 3660 1bd6 5B00     		lsl	r3, r3, #1
 3661 1bd8 FB18     		add	r3, r7, r3
 3662 1bda 1B68     		ldr	r3, [r3]
 3663 1bdc 1B00     		lsl	r3, r3, #0
 3664 1bde 9A22     		mov	r2, #154
 3665 1be0 5200     		lsl	r2, r2, #1
 3666 1be2 BA18     		add	r2, r7, r2
 3667 1be4 1360     		str	r3, [r2]
 3668 1be6 0023     		mov	r3, #0
 3669 1be8 9822     		mov	r2, #152
 3670 1bea 5200     		lsl	r2, r2, #1
 3671 1bec BA18     		add	r2, r7, r2
 3672 1bee 1360     		str	r3, [r2]
 432:Source\FilteringFunctions/arm_correlate_fast_q31.c ****                         ((q63_t) * px++ * (*py++))) >> 32);
 3673              		.loc 1 432 0
 3674 1bf0 C023     		mov	r3, #192
 3675 1bf2 DB00     		lsl	r3, r3, #3
 3676 1bf4 FB18     		add	r3, r7, r3
 3677 1bf6 1A68     		ldr	r2, [r3]
 3678 1bf8 131D     		add	r3, r2, #4
 3679 1bfa C021     		mov	r1, #192
 3680 1bfc C900     		lsl	r1, r1, #3
 3681 1bfe 7918     		add	r1, r7, r1
 3682 1c00 0B60     		str	r3, [r1]
 3683 1c02 1368     		ldr	r3, [r2]
 3684 1c04 9422     		mov	r2, #148
 3685 1c06 5200     		lsl	r2, r2, #1
 3686 1c08 BA18     		add	r2, r7, r2
 3687 1c0a 1360     		str	r3, [r2]
 3688 1c0c DB17     		asr	r3, r3, #31
 3689 1c0e 9622     		mov	r2, #150
 3690 1c10 5200     		lsl	r2, r2, #1
 3691 1c12 BA18     		add	r2, r7, r2
 3692 1c14 1360     		str	r3, [r2]
 3693 1c16 284B     		ldr	r3, .L55+4
 3694 1c18 FB18     		add	r3, r7, r3
 3695 1c1a 1A68     		ldr	r2, [r3]
 3696 1c1c 131D     		add	r3, r2, #4
 3697 1c1e 2649     		ldr	r1, .L55+4
 3698 1c20 7918     		add	r1, r7, r1
 3699 1c22 0B60     		str	r3, [r1]
 3700 1c24 1368     		ldr	r3, [r2]
 3701 1c26 9022     		mov	r2, #144
 3702 1c28 5200     		lsl	r2, r2, #1
 3703 1c2a BA18     		add	r2, r7, r2
 3704 1c2c 1360     		str	r3, [r2]
 3705 1c2e DB17     		asr	r3, r3, #31
 3706 1c30 9222     		mov	r2, #146
 3707 1c32 5200     		lsl	r2, r2, #1
 3708 1c34 BA18     		add	r2, r7, r2
ARM GAS  C:\Users\fneves\AppData\Local\Temp\ccE35dyd.s 			page 74


 3709 1c36 1360     		str	r3, [r2]
 3710 1c38 9423     		mov	r3, #148
 3711 1c3a 5B00     		lsl	r3, r3, #1
 3712 1c3c FB18     		add	r3, r7, r3
 3713 1c3e 1868     		ldr	r0, [r3]
 3714 1c40 5968     		ldr	r1, [r3, #4]
 3715 1c42 9023     		mov	r3, #144
 3716 1c44 5B00     		lsl	r3, r3, #1
 3717 1c46 FB18     		add	r3, r7, r3
 3718 1c48 1A68     		ldr	r2, [r3]
 3719 1c4a 5B68     		ldr	r3, [r3, #4]
 3720 1c4c FFF7FEFF 		bl	__aeabi_lmul
 3721 1c50 031C     		mov	r3, r0
 3722 1c52 0C1C     		mov	r4, r1
 431:Source\FilteringFunctions/arm_correlate_fast_q31.c ****         sum = (q31_t) ((((q63_t) sum << 32) +
 3723              		.loc 1 431 0
 3724 1c54 9822     		mov	r2, #152
 3725 1c56 5200     		lsl	r2, r2, #1
 3726 1c58 BA18     		add	r2, r7, r2
 3727 1c5a 1168     		ldr	r1, [r2]
 3728 1c5c 5268     		ldr	r2, [r2, #4]
 3729 1c5e 5B18     		add	r3, r3, r1
 3730 1c60 5441     		adc	r4, r4, r2
 3731              		.loc 1 432 0
 3732 1c62 2200     		asr	r2, r4, #0
 3733 1c64 8C21     		mov	r1, #140
 3734 1c66 4900     		lsl	r1, r1, #1
 3735 1c68 7918     		add	r1, r7, r1
 3736 1c6a 0A60     		str	r2, [r1]
 3737 1c6c E317     		asr	r3, r4, #31
 3738 1c6e 8E22     		mov	r2, #142
 3739 1c70 5200     		lsl	r2, r2, #1
 3740 1c72 BA18     		add	r2, r7, r2
 3741 1c74 1360     		str	r3, [r2]
 431:Source\FilteringFunctions/arm_correlate_fast_q31.c ****         sum = (q31_t) ((((q63_t) sum << 32) +
 3742              		.loc 1 431 0
 3743 1c76 8C23     		mov	r3, #140
 3744 1c78 5B00     		lsl	r3, r3, #1
 3745 1c7a FB18     		add	r3, r7, r3
 3746 1c7c 1B68     		ldr	r3, [r3]
 3747 1c7e 0D4A     		ldr	r2, .L55
 3748 1c80 BA18     		add	r2, r7, r2
 3749 1c82 1360     		str	r3, [r2]
 433:Source\FilteringFunctions/arm_correlate_fast_q31.c **** 
 434:Source\FilteringFunctions/arm_correlate_fast_q31.c ****         /* Decrement the loop counter */
 435:Source\FilteringFunctions/arm_correlate_fast_q31.c ****         k--;
 3750              		.loc 1 435 0
 3751 1c84 0D4B     		ldr	r3, .L55+8
 3752 1c86 FB18     		add	r3, r7, r3
 3753 1c88 1B68     		ldr	r3, [r3]
 3754 1c8a 013B     		sub	r3, r3, #1
 3755 1c8c 0B4A     		ldr	r2, .L55+8
 3756 1c8e BA18     		add	r2, r7, r2
 3757 1c90 1360     		str	r3, [r2]
 3758              	.L17:
 422:Source\FilteringFunctions/arm_correlate_fast_q31.c ****       {
 3759              		.loc 1 422 0
ARM GAS  C:\Users\fneves\AppData\Local\Temp\ccE35dyd.s 			page 75


 3760 1c92 0A4B     		ldr	r3, .L55+8
 3761 1c94 FB18     		add	r3, r7, r3
 3762 1c96 1B68     		ldr	r3, [r3]
 3763 1c98 002B     		cmp	r3, #0
 3764 1c9a 00D0     		beq	.LCB3501
 3765 1c9c 62E6     		b	.L18	@long jump
 3766              	.LCB3501:
 436:Source\FilteringFunctions/arm_correlate_fast_q31.c ****       }
 437:Source\FilteringFunctions/arm_correlate_fast_q31.c **** 
 438:Source\FilteringFunctions/arm_correlate_fast_q31.c ****       /* If the srcBLen is not a multiple of 4, compute any remaining MACs here.
 439:Source\FilteringFunctions/arm_correlate_fast_q31.c ****        ** No loop unrolling is used. */
 440:Source\FilteringFunctions/arm_correlate_fast_q31.c ****       k = srcBLen % 0x4u;
 3767              		.loc 1 440 0
 3768 1c9e B323     		mov	r3, #179
 3769 1ca0 DB00     		lsl	r3, r3, #3
 3770 1ca2 FB18     		add	r3, r7, r3
 3771 1ca4 1A68     		ldr	r2, [r3]
 3772 1ca6 0323     		mov	r3, #3
 3773 1ca8 1340     		and	r3, r2
 3774 1caa 044A     		ldr	r2, .L55+8
 3775 1cac BA18     		add	r2, r7, r2
 3776 1cae 1360     		str	r3, [r2]
 441:Source\FilteringFunctions/arm_correlate_fast_q31.c **** 
 442:Source\FilteringFunctions/arm_correlate_fast_q31.c ****       while (k > 0u)
 3777              		.loc 1 442 0
 3778 1cb0 68E0     		b	.L19
 3779              	.L56:
 3780 1cb2 C046     		.align	2
 3781              	.L55:
 3782 1cb4 F4050000 		.word	1524
 3783 1cb8 FC050000 		.word	1532
 3784 1cbc D4050000 		.word	1492
 3785              	.L20:
 443:Source\FilteringFunctions/arm_correlate_fast_q31.c ****       {
 444:Source\FilteringFunctions/arm_correlate_fast_q31.c ****         /* Perform the multiply-accumulate */
 445:Source\FilteringFunctions/arm_correlate_fast_q31.c ****         sum = (q31_t) ((((q63_t) sum << 32) +
 3786              		.loc 1 445 0
 3787 1cc0 C84B     		ldr	r3, .L57
 3788 1cc2 FB18     		add	r3, r7, r3
 3789 1cc4 1B68     		ldr	r3, [r3]
 3790 1cc6 8822     		mov	r2, #136
 3791 1cc8 5200     		lsl	r2, r2, #1
 3792 1cca BA18     		add	r2, r7, r2
 3793 1ccc 1360     		str	r3, [r2]
 3794 1cce DB17     		asr	r3, r3, #31
 3795 1cd0 8A22     		mov	r2, #138
 3796 1cd2 5200     		lsl	r2, r2, #1
 3797 1cd4 BA18     		add	r2, r7, r2
 3798 1cd6 1360     		str	r3, [r2]
 3799 1cd8 8823     		mov	r3, #136
 3800 1cda 5B00     		lsl	r3, r3, #1
 3801 1cdc FB18     		add	r3, r7, r3
 3802 1cde 1B68     		ldr	r3, [r3]
 3803 1ce0 1B00     		lsl	r3, r3, #0
 3804 1ce2 8622     		mov	r2, #134
 3805 1ce4 5200     		lsl	r2, r2, #1
 3806 1ce6 BA18     		add	r2, r7, r2
ARM GAS  C:\Users\fneves\AppData\Local\Temp\ccE35dyd.s 			page 76


 3807 1ce8 1360     		str	r3, [r2]
 3808 1cea 0023     		mov	r3, #0
 3809 1cec 8422     		mov	r2, #132
 3810 1cee 5200     		lsl	r2, r2, #1
 3811 1cf0 BA18     		add	r2, r7, r2
 3812 1cf2 1360     		str	r3, [r2]
 446:Source\FilteringFunctions/arm_correlate_fast_q31.c ****                         ((q63_t) * px++ * (*py++))) >> 32);
 3813              		.loc 1 446 0
 3814 1cf4 C023     		mov	r3, #192
 3815 1cf6 DB00     		lsl	r3, r3, #3
 3816 1cf8 FB18     		add	r3, r7, r3
 3817 1cfa 1A68     		ldr	r2, [r3]
 3818 1cfc 131D     		add	r3, r2, #4
 3819 1cfe C021     		mov	r1, #192
 3820 1d00 C900     		lsl	r1, r1, #3
 3821 1d02 7918     		add	r1, r7, r1
 3822 1d04 0B60     		str	r3, [r1]
 3823 1d06 1368     		ldr	r3, [r2]
 3824 1d08 7A1C     		add	r2, r7, #1
 3825 1d0a FF32     		add	r2, r2, #255
 3826 1d0c 1360     		str	r3, [r2]
 3827 1d0e DB17     		asr	r3, r3, #31
 3828 1d10 7A1D     		add	r2, r7, #5
 3829 1d12 FF32     		add	r2, r2, #255
 3830 1d14 1360     		str	r3, [r2]
 3831 1d16 B44B     		ldr	r3, .L57+4
 3832 1d18 FB18     		add	r3, r7, r3
 3833 1d1a 1A68     		ldr	r2, [r3]
 3834 1d1c 131D     		add	r3, r2, #4
 3835 1d1e B249     		ldr	r1, .L57+4
 3836 1d20 7918     		add	r1, r7, r1
 3837 1d22 0B60     		str	r3, [r1]
 3838 1d24 1368     		ldr	r3, [r2]
 3839 1d26 F822     		mov	r2, #248
 3840 1d28 BA18     		add	r2, r7, r2
 3841 1d2a 1360     		str	r3, [r2]
 3842 1d2c DB17     		asr	r3, r3, #31
 3843 1d2e FC22     		mov	r2, #252
 3844 1d30 BA18     		add	r2, r7, r2
 3845 1d32 1360     		str	r3, [r2]
 3846 1d34 7B1C     		add	r3, r7, #1
 3847 1d36 FF33     		add	r3, r3, #255
 3848 1d38 1868     		ldr	r0, [r3]
 3849 1d3a 5968     		ldr	r1, [r3, #4]
 3850 1d3c F823     		mov	r3, #248
 3851 1d3e FB18     		add	r3, r7, r3
 3852 1d40 1A68     		ldr	r2, [r3]
 3853 1d42 5B68     		ldr	r3, [r3, #4]
 3854 1d44 FFF7FEFF 		bl	__aeabi_lmul
 3855 1d48 031C     		mov	r3, r0
 3856 1d4a 0C1C     		mov	r4, r1
 445:Source\FilteringFunctions/arm_correlate_fast_q31.c ****                         ((q63_t) * px++ * (*py++))) >> 32);
 3857              		.loc 1 445 0
 3858 1d4c 8422     		mov	r2, #132
 3859 1d4e 5200     		lsl	r2, r2, #1
 3860 1d50 BA18     		add	r2, r7, r2
 3861 1d52 1168     		ldr	r1, [r2]
ARM GAS  C:\Users\fneves\AppData\Local\Temp\ccE35dyd.s 			page 77


 3862 1d54 5268     		ldr	r2, [r2, #4]
 3863 1d56 5B18     		add	r3, r3, r1
 3864 1d58 5441     		adc	r4, r4, r2
 3865              		.loc 1 446 0
 3866 1d5a 2200     		asr	r2, r4, #0
 3867 1d5c F021     		mov	r1, #240
 3868 1d5e 7918     		add	r1, r7, r1
 3869 1d60 0A60     		str	r2, [r1]
 3870 1d62 E317     		asr	r3, r4, #31
 3871 1d64 F422     		mov	r2, #244
 3872 1d66 BA18     		add	r2, r7, r2
 3873 1d68 1360     		str	r3, [r2]
 445:Source\FilteringFunctions/arm_correlate_fast_q31.c ****                         ((q63_t) * px++ * (*py++))) >> 32);
 3874              		.loc 1 445 0
 3875 1d6a F023     		mov	r3, #240
 3876 1d6c FB18     		add	r3, r7, r3
 3877 1d6e 1B68     		ldr	r3, [r3]
 3878 1d70 9C4A     		ldr	r2, .L57
 3879 1d72 BA18     		add	r2, r7, r2
 3880 1d74 1360     		str	r3, [r2]
 447:Source\FilteringFunctions/arm_correlate_fast_q31.c **** 
 448:Source\FilteringFunctions/arm_correlate_fast_q31.c ****         /* Decrement the loop counter */
 449:Source\FilteringFunctions/arm_correlate_fast_q31.c ****         k--;
 3881              		.loc 1 449 0
 3882 1d76 9D4B     		ldr	r3, .L57+8
 3883 1d78 FB18     		add	r3, r7, r3
 3884 1d7a 1B68     		ldr	r3, [r3]
 3885 1d7c 013B     		sub	r3, r3, #1
 3886 1d7e 9B4A     		ldr	r2, .L57+8
 3887 1d80 BA18     		add	r2, r7, r2
 3888 1d82 1360     		str	r3, [r2]
 3889              	.L19:
 442:Source\FilteringFunctions/arm_correlate_fast_q31.c ****       {
 3890              		.loc 1 442 0
 3891 1d84 994B     		ldr	r3, .L57+8
 3892 1d86 FB18     		add	r3, r7, r3
 3893 1d88 1B68     		ldr	r3, [r3]
 3894 1d8a 002B     		cmp	r3, #0
 3895 1d8c 98D1     		bne	.L20
 450:Source\FilteringFunctions/arm_correlate_fast_q31.c ****       }
 451:Source\FilteringFunctions/arm_correlate_fast_q31.c **** 
 452:Source\FilteringFunctions/arm_correlate_fast_q31.c ****       /* Store the result in the accumulator in the destination buffer. */
 453:Source\FilteringFunctions/arm_correlate_fast_q31.c ****       *pOut = sum << 1;
 3896              		.loc 1 453 0
 3897 1d8e 954B     		ldr	r3, .L57
 3898 1d90 FB18     		add	r3, r7, r3
 3899 1d92 1B68     		ldr	r3, [r3]
 3900 1d94 5A00     		lsl	r2, r3, #1
 3901 1d96 964B     		ldr	r3, .L57+12
 3902 1d98 FB18     		add	r3, r7, r3
 3903 1d9a 1B68     		ldr	r3, [r3]
 3904 1d9c 1A60     		str	r2, [r3]
 454:Source\FilteringFunctions/arm_correlate_fast_q31.c ****       /* Destination pointer is updated according to the address modifier, inc */
 455:Source\FilteringFunctions/arm_correlate_fast_q31.c ****       pOut += inc;
 3905              		.loc 1 455 0
 3906 1d9e B823     		mov	r3, #184
 3907 1da0 DB00     		lsl	r3, r3, #3
ARM GAS  C:\Users\fneves\AppData\Local\Temp\ccE35dyd.s 			page 78


 3908 1da2 FB18     		add	r3, r7, r3
 3909 1da4 1B68     		ldr	r3, [r3]
 3910 1da6 9A00     		lsl	r2, r3, #2
 3911 1da8 914B     		ldr	r3, .L57+12
 3912 1daa FB18     		add	r3, r7, r3
 3913 1dac 1B68     		ldr	r3, [r3]
 3914 1dae 9B18     		add	r3, r3, r2
 3915 1db0 8F4A     		ldr	r2, .L57+12
 3916 1db2 BA18     		add	r2, r7, r2
 3917 1db4 1360     		str	r3, [r2]
 456:Source\FilteringFunctions/arm_correlate_fast_q31.c **** 
 457:Source\FilteringFunctions/arm_correlate_fast_q31.c ****       /* Increment the MAC count */
 458:Source\FilteringFunctions/arm_correlate_fast_q31.c ****       count++;
 3918              		.loc 1 458 0
 3919 1db6 BA23     		mov	r3, #186
 3920 1db8 DB00     		lsl	r3, r3, #3
 3921 1dba FB18     		add	r3, r7, r3
 3922 1dbc 1B68     		ldr	r3, [r3]
 3923 1dbe 0133     		add	r3, r3, #1
 3924 1dc0 BA22     		mov	r2, #186
 3925 1dc2 D200     		lsl	r2, r2, #3
 3926 1dc4 BA18     		add	r2, r7, r2
 3927 1dc6 1360     		str	r3, [r2]
 459:Source\FilteringFunctions/arm_correlate_fast_q31.c **** 
 460:Source\FilteringFunctions/arm_correlate_fast_q31.c ****       /* Update the inputA and inputB pointers for next MAC calculation */
 461:Source\FilteringFunctions/arm_correlate_fast_q31.c ****       px = pIn1 + count;
 3928              		.loc 1 461 0
 3929 1dc8 BA23     		mov	r3, #186
 3930 1dca DB00     		lsl	r3, r3, #3
 3931 1dcc FB18     		add	r3, r7, r3
 3932 1dce 1B68     		ldr	r3, [r3]
 3933 1dd0 9A00     		lsl	r2, r3, #2
 3934 1dd2 884B     		ldr	r3, .L57+16
 3935 1dd4 FB18     		add	r3, r7, r3
 3936 1dd6 1B68     		ldr	r3, [r3]
 3937 1dd8 9B18     		add	r3, r3, r2
 3938 1dda C022     		mov	r2, #192
 3939 1ddc D200     		lsl	r2, r2, #3
 3940 1dde BA18     		add	r2, r7, r2
 3941 1de0 1360     		str	r3, [r2]
 462:Source\FilteringFunctions/arm_correlate_fast_q31.c ****       py = pIn2;
 3942              		.loc 1 462 0
 3943 1de2 C123     		mov	r3, #193
 3944 1de4 DB00     		lsl	r3, r3, #3
 3945 1de6 FB18     		add	r3, r7, r3
 3946 1de8 1B68     		ldr	r3, [r3]
 3947 1dea 7F4A     		ldr	r2, .L57+4
 3948 1dec BA18     		add	r2, r7, r2
 3949 1dee 1360     		str	r3, [r2]
 463:Source\FilteringFunctions/arm_correlate_fast_q31.c **** 
 464:Source\FilteringFunctions/arm_correlate_fast_q31.c **** 
 465:Source\FilteringFunctions/arm_correlate_fast_q31.c ****       /* Decrement the loop counter */
 466:Source\FilteringFunctions/arm_correlate_fast_q31.c ****       blkCnt--;
 3950              		.loc 1 466 0
 3951 1df0 814B     		ldr	r3, .L57+20
 3952 1df2 FB18     		add	r3, r7, r3
 3953 1df4 1B68     		ldr	r3, [r3]
ARM GAS  C:\Users\fneves\AppData\Local\Temp\ccE35dyd.s 			page 79


 3954 1df6 013B     		sub	r3, r3, #1
 3955 1df8 7F4A     		ldr	r2, .L57+20
 3956 1dfa BA18     		add	r2, r7, r2
 3957 1dfc 1360     		str	r3, [r2]
 3958              	.L16:
 412:Source\FilteringFunctions/arm_correlate_fast_q31.c ****     {
 3959              		.loc 1 412 0
 3960 1dfe 7E4B     		ldr	r3, .L57+20
 3961 1e00 FB18     		add	r3, r7, r3
 3962 1e02 1B68     		ldr	r3, [r3]
 3963 1e04 002B     		cmp	r3, #0
 3964 1e06 00D0     		beq	.LCB3685
 3965 1e08 90E5     		b	.L21	@long jump
 3966              	.LCB3685:
 3967 1e0a B1E0     		b	.L22
 3968              	.L10:
 467:Source\FilteringFunctions/arm_correlate_fast_q31.c ****     }
 468:Source\FilteringFunctions/arm_correlate_fast_q31.c ****   }
 469:Source\FilteringFunctions/arm_correlate_fast_q31.c ****   else
 470:Source\FilteringFunctions/arm_correlate_fast_q31.c ****   {
 471:Source\FilteringFunctions/arm_correlate_fast_q31.c ****     /* If the srcBLen is not a multiple of 4,
 472:Source\FilteringFunctions/arm_correlate_fast_q31.c ****      * the blockSize2 loop cannot be unrolled by 4 */
 473:Source\FilteringFunctions/arm_correlate_fast_q31.c ****     blkCnt = blockSize2;
 3969              		.loc 1 473 0
 3970 1e0c 7B4B     		ldr	r3, .L57+24
 3971 1e0e FB18     		add	r3, r7, r3
 3972 1e10 1B68     		ldr	r3, [r3]
 3973 1e12 794A     		ldr	r2, .L57+20
 3974 1e14 BA18     		add	r2, r7, r2
 3975 1e16 1360     		str	r3, [r2]
 474:Source\FilteringFunctions/arm_correlate_fast_q31.c **** 
 475:Source\FilteringFunctions/arm_correlate_fast_q31.c ****     while (blkCnt > 0u)
 3976              		.loc 1 475 0
 3977 1e18 A4E0     		b	.L23
 3978              	.L26:
 476:Source\FilteringFunctions/arm_correlate_fast_q31.c ****     {
 477:Source\FilteringFunctions/arm_correlate_fast_q31.c ****       /* Accumulator is made zero for every iteration */
 478:Source\FilteringFunctions/arm_correlate_fast_q31.c ****       sum = 0;
 3979              		.loc 1 478 0
 3980 1e1a 0023     		mov	r3, #0
 3981 1e1c 714A     		ldr	r2, .L57
 3982 1e1e BA18     		add	r2, r7, r2
 3983 1e20 1360     		str	r3, [r2]
 479:Source\FilteringFunctions/arm_correlate_fast_q31.c **** 
 480:Source\FilteringFunctions/arm_correlate_fast_q31.c ****       /* Loop over srcBLen */
 481:Source\FilteringFunctions/arm_correlate_fast_q31.c ****       k = srcBLen;
 3984              		.loc 1 481 0
 3985 1e22 B323     		mov	r3, #179
 3986 1e24 DB00     		lsl	r3, r3, #3
 3987 1e26 FB18     		add	r3, r7, r3
 3988 1e28 1B68     		ldr	r3, [r3]
 3989 1e2a 704A     		ldr	r2, .L57+8
 3990 1e2c BA18     		add	r2, r7, r2
 3991 1e2e 1360     		str	r3, [r2]
 482:Source\FilteringFunctions/arm_correlate_fast_q31.c **** 
 483:Source\FilteringFunctions/arm_correlate_fast_q31.c ****       while (k > 0u)
 3992              		.loc 1 483 0
ARM GAS  C:\Users\fneves\AppData\Local\Temp\ccE35dyd.s 			page 80


 3993 1e30 5BE0     		b	.L24
 3994              	.L25:
 484:Source\FilteringFunctions/arm_correlate_fast_q31.c ****       {
 485:Source\FilteringFunctions/arm_correlate_fast_q31.c ****         /* Perform the multiply-accumulate */
 486:Source\FilteringFunctions/arm_correlate_fast_q31.c ****         sum = (q31_t) ((((q63_t) sum << 32) +
 3995              		.loc 1 486 0
 3996 1e32 6C4B     		ldr	r3, .L57
 3997 1e34 FB18     		add	r3, r7, r3
 3998 1e36 1B68     		ldr	r3, [r3]
 3999 1e38 E822     		mov	r2, #232
 4000 1e3a BA18     		add	r2, r7, r2
 4001 1e3c 1360     		str	r3, [r2]
 4002 1e3e DB17     		asr	r3, r3, #31
 4003 1e40 EC22     		mov	r2, #236
 4004 1e42 BA18     		add	r2, r7, r2
 4005 1e44 1360     		str	r3, [r2]
 4006 1e46 E823     		mov	r3, #232
 4007 1e48 FB18     		add	r3, r7, r3
 4008 1e4a 1B68     		ldr	r3, [r3]
 4009 1e4c 1B00     		lsl	r3, r3, #0
 4010 1e4e E422     		mov	r2, #228
 4011 1e50 BA18     		add	r2, r7, r2
 4012 1e52 1360     		str	r3, [r2]
 4013 1e54 0023     		mov	r3, #0
 4014 1e56 E022     		mov	r2, #224
 4015 1e58 BA18     		add	r2, r7, r2
 4016 1e5a 1360     		str	r3, [r2]
 487:Source\FilteringFunctions/arm_correlate_fast_q31.c ****                         ((q63_t) * px++ * (*py++))) >> 32);
 4017              		.loc 1 487 0
 4018 1e5c C023     		mov	r3, #192
 4019 1e5e DB00     		lsl	r3, r3, #3
 4020 1e60 FB18     		add	r3, r7, r3
 4021 1e62 1A68     		ldr	r2, [r3]
 4022 1e64 131D     		add	r3, r2, #4
 4023 1e66 C021     		mov	r1, #192
 4024 1e68 C900     		lsl	r1, r1, #3
 4025 1e6a 7918     		add	r1, r7, r1
 4026 1e6c 0B60     		str	r3, [r1]
 4027 1e6e 1368     		ldr	r3, [r2]
 4028 1e70 D822     		mov	r2, #216
 4029 1e72 BA18     		add	r2, r7, r2
 4030 1e74 1360     		str	r3, [r2]
 4031 1e76 DB17     		asr	r3, r3, #31
 4032 1e78 DC22     		mov	r2, #220
 4033 1e7a BA18     		add	r2, r7, r2
 4034 1e7c 1360     		str	r3, [r2]
 4035 1e7e 5A4B     		ldr	r3, .L57+4
 4036 1e80 FB18     		add	r3, r7, r3
 4037 1e82 1A68     		ldr	r2, [r3]
 4038 1e84 131D     		add	r3, r2, #4
 4039 1e86 5849     		ldr	r1, .L57+4
 4040 1e88 7918     		add	r1, r7, r1
 4041 1e8a 0B60     		str	r3, [r1]
 4042 1e8c 1368     		ldr	r3, [r2]
 4043 1e8e D022     		mov	r2, #208
 4044 1e90 BA18     		add	r2, r7, r2
 4045 1e92 1360     		str	r3, [r2]
ARM GAS  C:\Users\fneves\AppData\Local\Temp\ccE35dyd.s 			page 81


 4046 1e94 DB17     		asr	r3, r3, #31
 4047 1e96 D422     		mov	r2, #212
 4048 1e98 BA18     		add	r2, r7, r2
 4049 1e9a 1360     		str	r3, [r2]
 4050 1e9c D823     		mov	r3, #216
 4051 1e9e FB18     		add	r3, r7, r3
 4052 1ea0 1868     		ldr	r0, [r3]
 4053 1ea2 5968     		ldr	r1, [r3, #4]
 4054 1ea4 D023     		mov	r3, #208
 4055 1ea6 FB18     		add	r3, r7, r3
 4056 1ea8 1A68     		ldr	r2, [r3]
 4057 1eaa 5B68     		ldr	r3, [r3, #4]
 4058 1eac FFF7FEFF 		bl	__aeabi_lmul
 4059 1eb0 031C     		mov	r3, r0
 4060 1eb2 0C1C     		mov	r4, r1
 486:Source\FilteringFunctions/arm_correlate_fast_q31.c ****                         ((q63_t) * px++ * (*py++))) >> 32);
 4061              		.loc 1 486 0
 4062 1eb4 E022     		mov	r2, #224
 4063 1eb6 BA18     		add	r2, r7, r2
 4064 1eb8 1168     		ldr	r1, [r2]
 4065 1eba 5268     		ldr	r2, [r2, #4]
 4066 1ebc 5B18     		add	r3, r3, r1
 4067 1ebe 5441     		adc	r4, r4, r2
 4068              		.loc 1 487 0
 4069 1ec0 2200     		asr	r2, r4, #0
 4070 1ec2 C821     		mov	r1, #200
 4071 1ec4 7918     		add	r1, r7, r1
 4072 1ec6 0A60     		str	r2, [r1]
 4073 1ec8 E317     		asr	r3, r4, #31
 4074 1eca CC22     		mov	r2, #204
 4075 1ecc BA18     		add	r2, r7, r2
 4076 1ece 1360     		str	r3, [r2]
 486:Source\FilteringFunctions/arm_correlate_fast_q31.c ****                         ((q63_t) * px++ * (*py++))) >> 32);
 4077              		.loc 1 486 0
 4078 1ed0 C823     		mov	r3, #200
 4079 1ed2 FB18     		add	r3, r7, r3
 4080 1ed4 1B68     		ldr	r3, [r3]
 4081 1ed6 434A     		ldr	r2, .L57
 4082 1ed8 BA18     		add	r2, r7, r2
 4083 1eda 1360     		str	r3, [r2]
 488:Source\FilteringFunctions/arm_correlate_fast_q31.c **** 
 489:Source\FilteringFunctions/arm_correlate_fast_q31.c ****         /* Decrement the loop counter */
 490:Source\FilteringFunctions/arm_correlate_fast_q31.c ****         k--;
 4084              		.loc 1 490 0
 4085 1edc 434B     		ldr	r3, .L57+8
 4086 1ede FB18     		add	r3, r7, r3
 4087 1ee0 1B68     		ldr	r3, [r3]
 4088 1ee2 013B     		sub	r3, r3, #1
 4089 1ee4 414A     		ldr	r2, .L57+8
 4090 1ee6 BA18     		add	r2, r7, r2
 4091 1ee8 1360     		str	r3, [r2]
 4092              	.L24:
 483:Source\FilteringFunctions/arm_correlate_fast_q31.c ****       {
 4093              		.loc 1 483 0
 4094 1eea 404B     		ldr	r3, .L57+8
 4095 1eec FB18     		add	r3, r7, r3
 4096 1eee 1B68     		ldr	r3, [r3]
ARM GAS  C:\Users\fneves\AppData\Local\Temp\ccE35dyd.s 			page 82


 4097 1ef0 002B     		cmp	r3, #0
 4098 1ef2 9ED1     		bne	.L25
 491:Source\FilteringFunctions/arm_correlate_fast_q31.c ****       }
 492:Source\FilteringFunctions/arm_correlate_fast_q31.c **** 
 493:Source\FilteringFunctions/arm_correlate_fast_q31.c ****       /* Store the result in the accumulator in the destination buffer. */
 494:Source\FilteringFunctions/arm_correlate_fast_q31.c ****       *pOut = sum << 1;
 4099              		.loc 1 494 0
 4100 1ef4 3B4B     		ldr	r3, .L57
 4101 1ef6 FB18     		add	r3, r7, r3
 4102 1ef8 1B68     		ldr	r3, [r3]
 4103 1efa 5A00     		lsl	r2, r3, #1
 4104 1efc 3C4B     		ldr	r3, .L57+12
 4105 1efe FB18     		add	r3, r7, r3
 4106 1f00 1B68     		ldr	r3, [r3]
 4107 1f02 1A60     		str	r2, [r3]
 495:Source\FilteringFunctions/arm_correlate_fast_q31.c ****       /* Destination pointer is updated according to the address modifier, inc */
 496:Source\FilteringFunctions/arm_correlate_fast_q31.c ****       pOut += inc;
 4108              		.loc 1 496 0
 4109 1f04 B823     		mov	r3, #184
 4110 1f06 DB00     		lsl	r3, r3, #3
 4111 1f08 FB18     		add	r3, r7, r3
 4112 1f0a 1B68     		ldr	r3, [r3]
 4113 1f0c 9A00     		lsl	r2, r3, #2
 4114 1f0e 384B     		ldr	r3, .L57+12
 4115 1f10 FB18     		add	r3, r7, r3
 4116 1f12 1B68     		ldr	r3, [r3]
 4117 1f14 9B18     		add	r3, r3, r2
 4118 1f16 364A     		ldr	r2, .L57+12
 4119 1f18 BA18     		add	r2, r7, r2
 4120 1f1a 1360     		str	r3, [r2]
 497:Source\FilteringFunctions/arm_correlate_fast_q31.c **** 
 498:Source\FilteringFunctions/arm_correlate_fast_q31.c ****       /* Increment the MAC count */
 499:Source\FilteringFunctions/arm_correlate_fast_q31.c ****       count++;
 4121              		.loc 1 499 0
 4122 1f1c BA23     		mov	r3, #186
 4123 1f1e DB00     		lsl	r3, r3, #3
 4124 1f20 FB18     		add	r3, r7, r3
 4125 1f22 1B68     		ldr	r3, [r3]
 4126 1f24 0133     		add	r3, r3, #1
 4127 1f26 BA22     		mov	r2, #186
 4128 1f28 D200     		lsl	r2, r2, #3
 4129 1f2a BA18     		add	r2, r7, r2
 4130 1f2c 1360     		str	r3, [r2]
 500:Source\FilteringFunctions/arm_correlate_fast_q31.c **** 
 501:Source\FilteringFunctions/arm_correlate_fast_q31.c ****       /* Update the inputA and inputB pointers for next MAC calculation */
 502:Source\FilteringFunctions/arm_correlate_fast_q31.c ****       px = pIn1 + count;
 4131              		.loc 1 502 0
 4132 1f2e BA23     		mov	r3, #186
 4133 1f30 DB00     		lsl	r3, r3, #3
 4134 1f32 FB18     		add	r3, r7, r3
 4135 1f34 1B68     		ldr	r3, [r3]
 4136 1f36 9A00     		lsl	r2, r3, #2
 4137 1f38 2E4B     		ldr	r3, .L57+16
 4138 1f3a FB18     		add	r3, r7, r3
 4139 1f3c 1B68     		ldr	r3, [r3]
 4140 1f3e 9B18     		add	r3, r3, r2
 4141 1f40 C022     		mov	r2, #192
ARM GAS  C:\Users\fneves\AppData\Local\Temp\ccE35dyd.s 			page 83


 4142 1f42 D200     		lsl	r2, r2, #3
 4143 1f44 BA18     		add	r2, r7, r2
 4144 1f46 1360     		str	r3, [r2]
 503:Source\FilteringFunctions/arm_correlate_fast_q31.c ****       py = pIn2;
 4145              		.loc 1 503 0
 4146 1f48 C123     		mov	r3, #193
 4147 1f4a DB00     		lsl	r3, r3, #3
 4148 1f4c FB18     		add	r3, r7, r3
 4149 1f4e 1B68     		ldr	r3, [r3]
 4150 1f50 254A     		ldr	r2, .L57+4
 4151 1f52 BA18     		add	r2, r7, r2
 4152 1f54 1360     		str	r3, [r2]
 504:Source\FilteringFunctions/arm_correlate_fast_q31.c **** 
 505:Source\FilteringFunctions/arm_correlate_fast_q31.c ****       /* Decrement the loop counter */
 506:Source\FilteringFunctions/arm_correlate_fast_q31.c ****       blkCnt--;
 4153              		.loc 1 506 0
 4154 1f56 284B     		ldr	r3, .L57+20
 4155 1f58 FB18     		add	r3, r7, r3
 4156 1f5a 1B68     		ldr	r3, [r3]
 4157 1f5c 013B     		sub	r3, r3, #1
 4158 1f5e 264A     		ldr	r2, .L57+20
 4159 1f60 BA18     		add	r2, r7, r2
 4160 1f62 1360     		str	r3, [r2]
 4161              	.L23:
 475:Source\FilteringFunctions/arm_correlate_fast_q31.c ****     {
 4162              		.loc 1 475 0
 4163 1f64 244B     		ldr	r3, .L57+20
 4164 1f66 FB18     		add	r3, r7, r3
 4165 1f68 1B68     		ldr	r3, [r3]
 4166 1f6a 002B     		cmp	r3, #0
 4167 1f6c 00D0     		beq	.LCB3871
 4168 1f6e 54E7     		b	.L26	@long jump
 4169              	.LCB3871:
 4170              	.L22:
 507:Source\FilteringFunctions/arm_correlate_fast_q31.c ****     }
 508:Source\FilteringFunctions/arm_correlate_fast_q31.c ****   }
 509:Source\FilteringFunctions/arm_correlate_fast_q31.c **** 
 510:Source\FilteringFunctions/arm_correlate_fast_q31.c ****   /* --------------------------
 511:Source\FilteringFunctions/arm_correlate_fast_q31.c ****    * Initializations of stage3
 512:Source\FilteringFunctions/arm_correlate_fast_q31.c ****    * -------------------------*/
 513:Source\FilteringFunctions/arm_correlate_fast_q31.c **** 
 514:Source\FilteringFunctions/arm_correlate_fast_q31.c ****   /* sum += x[srcALen-srcBLen+1] * y[0] + x[srcALen-srcBLen+2] * y[1] +...+ x[srcALen-1] * y[srcBLe
 515:Source\FilteringFunctions/arm_correlate_fast_q31.c ****    * sum += x[srcALen-srcBLen+2] * y[0] + x[srcALen-srcBLen+3] * y[1] +...+ x[srcALen-1] * y[srcBLe
 516:Source\FilteringFunctions/arm_correlate_fast_q31.c ****    * ....
 517:Source\FilteringFunctions/arm_correlate_fast_q31.c ****    * sum +=  x[srcALen-2] * y[0] + x[srcALen-1] * y[1]
 518:Source\FilteringFunctions/arm_correlate_fast_q31.c ****    * sum +=  x[srcALen-1] * y[0]
 519:Source\FilteringFunctions/arm_correlate_fast_q31.c ****    */
 520:Source\FilteringFunctions/arm_correlate_fast_q31.c **** 
 521:Source\FilteringFunctions/arm_correlate_fast_q31.c ****   /* In this stage the MAC operations are decreased by 1 for every iteration.
 522:Source\FilteringFunctions/arm_correlate_fast_q31.c ****      The count variable holds the number of MAC operations performed */
 523:Source\FilteringFunctions/arm_correlate_fast_q31.c ****   count = srcBLen - 1u;
 4171              		.loc 1 523 0
 4172 1f70 B323     		mov	r3, #179
 4173 1f72 DB00     		lsl	r3, r3, #3
 4174 1f74 FB18     		add	r3, r7, r3
 4175 1f76 1B68     		ldr	r3, [r3]
 4176 1f78 013B     		sub	r3, r3, #1
ARM GAS  C:\Users\fneves\AppData\Local\Temp\ccE35dyd.s 			page 84


 4177 1f7a BA22     		mov	r2, #186
 4178 1f7c D200     		lsl	r2, r2, #3
 4179 1f7e BA18     		add	r2, r7, r2
 4180 1f80 1360     		str	r3, [r2]
 524:Source\FilteringFunctions/arm_correlate_fast_q31.c **** 
 525:Source\FilteringFunctions/arm_correlate_fast_q31.c ****   /* Working pointer of inputA */
 526:Source\FilteringFunctions/arm_correlate_fast_q31.c ****   pSrc1 = ((pIn1 + srcALen) - srcBLen) + 1u;
 4181              		.loc 1 526 0
 4182 1f82 B423     		mov	r3, #180
 4183 1f84 DB00     		lsl	r3, r3, #3
 4184 1f86 FB18     		add	r3, r7, r3
 4185 1f88 1A68     		ldr	r2, [r3]
 4186 1f8a B323     		mov	r3, #179
 4187 1f8c DB00     		lsl	r3, r3, #3
 4188 1f8e FB18     		add	r3, r7, r3
 4189 1f90 1B68     		ldr	r3, [r3]
 4190 1f92 D31A     		sub	r3, r2, r3
 4191 1f94 0133     		add	r3, r3, #1
 4192 1f96 9A00     		lsl	r2, r3, #2
 4193 1f98 164B     		ldr	r3, .L57+16
 4194 1f9a FB18     		add	r3, r7, r3
 4195 1f9c 1B68     		ldr	r3, [r3]
 4196 1f9e 9B18     		add	r3, r3, r2
 4197 1fa0 BF22     		mov	r2, #191
 4198 1fa2 D200     		lsl	r2, r2, #3
 4199 1fa4 BA18     		add	r2, r7, r2
 4200 1fa6 1360     		str	r3, [r2]
 527:Source\FilteringFunctions/arm_correlate_fast_q31.c ****   px = pSrc1;
 4201              		.loc 1 527 0
 4202 1fa8 BF23     		mov	r3, #191
 4203 1faa DB00     		lsl	r3, r3, #3
 4204 1fac FB18     		add	r3, r7, r3
 4205 1fae 1B68     		ldr	r3, [r3]
 4206 1fb0 C022     		mov	r2, #192
 4207 1fb2 D200     		lsl	r2, r2, #3
 4208 1fb4 BA18     		add	r2, r7, r2
 4209 1fb6 1360     		str	r3, [r2]
 528:Source\FilteringFunctions/arm_correlate_fast_q31.c **** 
 529:Source\FilteringFunctions/arm_correlate_fast_q31.c ****   /* Working pointer of inputB */
 530:Source\FilteringFunctions/arm_correlate_fast_q31.c ****   py = pIn2;
 4210              		.loc 1 530 0
 4211 1fb8 C123     		mov	r3, #193
 4212 1fba DB00     		lsl	r3, r3, #3
 4213 1fbc FB18     		add	r3, r7, r3
 4214 1fbe 1B68     		ldr	r3, [r3]
 4215 1fc0 094A     		ldr	r2, .L57+4
 4216 1fc2 BA18     		add	r2, r7, r2
 4217 1fc4 1360     		str	r3, [r2]
 531:Source\FilteringFunctions/arm_correlate_fast_q31.c **** 
 532:Source\FilteringFunctions/arm_correlate_fast_q31.c ****   /* -------------------
 533:Source\FilteringFunctions/arm_correlate_fast_q31.c ****    * Stage3 process
 534:Source\FilteringFunctions/arm_correlate_fast_q31.c ****    * ------------------*/
 535:Source\FilteringFunctions/arm_correlate_fast_q31.c **** 
 536:Source\FilteringFunctions/arm_correlate_fast_q31.c ****   while (blockSize3 > 0u)
 4218              		.loc 1 536 0
 4219 1fc6 C3E1     		b	.L27
 4220              	.L32:
ARM GAS  C:\Users\fneves\AppData\Local\Temp\ccE35dyd.s 			page 85


 537:Source\FilteringFunctions/arm_correlate_fast_q31.c ****   {
 538:Source\FilteringFunctions/arm_correlate_fast_q31.c ****     /* Accumulator is made zero for every iteration */
 539:Source\FilteringFunctions/arm_correlate_fast_q31.c ****     sum = 0;
 4221              		.loc 1 539 0
 4222 1fc8 0023     		mov	r3, #0
 4223 1fca 064A     		ldr	r2, .L57
 4224 1fcc BA18     		add	r2, r7, r2
 4225 1fce 1360     		str	r3, [r2]
 540:Source\FilteringFunctions/arm_correlate_fast_q31.c **** 
 541:Source\FilteringFunctions/arm_correlate_fast_q31.c ****     /* Apply loop unrolling and compute 4 MACs simultaneously. */
 542:Source\FilteringFunctions/arm_correlate_fast_q31.c ****     k = count >> 2u;
 4226              		.loc 1 542 0
 4227 1fd0 BA23     		mov	r3, #186
 4228 1fd2 DB00     		lsl	r3, r3, #3
 4229 1fd4 FB18     		add	r3, r7, r3
 4230 1fd6 1B68     		ldr	r3, [r3]
 4231 1fd8 9B08     		lsr	r3, r3, #2
 4232 1fda 044A     		ldr	r2, .L57+8
 4233 1fdc BA18     		add	r2, r7, r2
 4234 1fde 1360     		str	r3, [r2]
 543:Source\FilteringFunctions/arm_correlate_fast_q31.c **** 
 544:Source\FilteringFunctions/arm_correlate_fast_q31.c ****     /* First part of the processing with loop unrolling.  Compute 4 MACs at a time.
 545:Source\FilteringFunctions/arm_correlate_fast_q31.c ****      ** a second loop below computes MACs for the remaining 1 to 3 samples. */
 546:Source\FilteringFunctions/arm_correlate_fast_q31.c ****     while (k > 0u)
 4235              		.loc 1 546 0
 4236 1fe0 27E1     		b	.L28
 4237              	.L58:
 4238 1fe2 C046     		.align	2
 4239              	.L57:
 4240 1fe4 F4050000 		.word	1524
 4241 1fe8 FC050000 		.word	1532
 4242 1fec D4050000 		.word	1492
 4243 1ff0 04060000 		.word	1540
 4244 1ff4 0C060000 		.word	1548
 4245 1ff8 CC050000 		.word	1484
 4246 1ffc B4050000 		.word	1460
 4247              	.L29:
 547:Source\FilteringFunctions/arm_correlate_fast_q31.c ****     {
 548:Source\FilteringFunctions/arm_correlate_fast_q31.c ****       /* Perform the multiply-accumulates */
 549:Source\FilteringFunctions/arm_correlate_fast_q31.c ****       /* sum += x[srcALen - srcBLen + 4] * y[3] */
 550:Source\FilteringFunctions/arm_correlate_fast_q31.c ****       sum = (q31_t) ((((q63_t) sum << 32) +
 4248              		.loc 1 550 0
 4249 2000 D84B     		ldr	r3, .L59
 4250 2002 FB18     		add	r3, r7, r3
 4251 2004 1B68     		ldr	r3, [r3]
 4252 2006 C022     		mov	r2, #192
 4253 2008 BA18     		add	r2, r7, r2
 4254 200a 1360     		str	r3, [r2]
 4255 200c DB17     		asr	r3, r3, #31
 4256 200e C422     		mov	r2, #196
 4257 2010 BA18     		add	r2, r7, r2
 4258 2012 1360     		str	r3, [r2]
 4259 2014 C023     		mov	r3, #192
 4260 2016 FB18     		add	r3, r7, r3
 4261 2018 1B68     		ldr	r3, [r3]
 4262 201a 1B00     		lsl	r3, r3, #0
 4263 201c BC22     		mov	r2, #188
ARM GAS  C:\Users\fneves\AppData\Local\Temp\ccE35dyd.s 			page 86


 4264 201e BA18     		add	r2, r7, r2
 4265 2020 1360     		str	r3, [r2]
 4266 2022 0023     		mov	r3, #0
 4267 2024 B822     		mov	r2, #184
 4268 2026 BA18     		add	r2, r7, r2
 4269 2028 1360     		str	r3, [r2]
 551:Source\FilteringFunctions/arm_correlate_fast_q31.c ****                       ((q63_t) * px++ * (*py++))) >> 32);
 4270              		.loc 1 551 0
 4271 202a C023     		mov	r3, #192
 4272 202c DB00     		lsl	r3, r3, #3
 4273 202e FB18     		add	r3, r7, r3
 4274 2030 1A68     		ldr	r2, [r3]
 4275 2032 131D     		add	r3, r2, #4
 4276 2034 C021     		mov	r1, #192
 4277 2036 C900     		lsl	r1, r1, #3
 4278 2038 7918     		add	r1, r7, r1
 4279 203a 0B60     		str	r3, [r1]
 4280 203c 1368     		ldr	r3, [r2]
 4281 203e B022     		mov	r2, #176
 4282 2040 BA18     		add	r2, r7, r2
 4283 2042 1360     		str	r3, [r2]
 4284 2044 DB17     		asr	r3, r3, #31
 4285 2046 B422     		mov	r2, #180
 4286 2048 BA18     		add	r2, r7, r2
 4287 204a 1360     		str	r3, [r2]
 4288 204c C64B     		ldr	r3, .L59+4
 4289 204e FB18     		add	r3, r7, r3
 4290 2050 1A68     		ldr	r2, [r3]
 4291 2052 131D     		add	r3, r2, #4
 4292 2054 C449     		ldr	r1, .L59+4
 4293 2056 7918     		add	r1, r7, r1
 4294 2058 0B60     		str	r3, [r1]
 4295 205a 1368     		ldr	r3, [r2]
 4296 205c A822     		mov	r2, #168
 4297 205e BA18     		add	r2, r7, r2
 4298 2060 1360     		str	r3, [r2]
 4299 2062 DB17     		asr	r3, r3, #31
 4300 2064 AC22     		mov	r2, #172
 4301 2066 BA18     		add	r2, r7, r2
 4302 2068 1360     		str	r3, [r2]
 4303 206a B023     		mov	r3, #176
 4304 206c FB18     		add	r3, r7, r3
 4305 206e 1868     		ldr	r0, [r3]
 4306 2070 5968     		ldr	r1, [r3, #4]
 4307 2072 A823     		mov	r3, #168
 4308 2074 FB18     		add	r3, r7, r3
 4309 2076 1A68     		ldr	r2, [r3]
 4310 2078 5B68     		ldr	r3, [r3, #4]
 4311 207a FFF7FEFF 		bl	__aeabi_lmul
 4312 207e 031C     		mov	r3, r0
 4313 2080 0C1C     		mov	r4, r1
 550:Source\FilteringFunctions/arm_correlate_fast_q31.c ****                       ((q63_t) * px++ * (*py++))) >> 32);
 4314              		.loc 1 550 0
 4315 2082 B822     		mov	r2, #184
 4316 2084 BA18     		add	r2, r7, r2
 4317 2086 1168     		ldr	r1, [r2]
 4318 2088 5268     		ldr	r2, [r2, #4]
ARM GAS  C:\Users\fneves\AppData\Local\Temp\ccE35dyd.s 			page 87


 4319 208a 5B18     		add	r3, r3, r1
 4320 208c 5441     		adc	r4, r4, r2
 4321              		.loc 1 551 0
 4322 208e 2200     		asr	r2, r4, #0
 4323 2090 A021     		mov	r1, #160
 4324 2092 7918     		add	r1, r7, r1
 4325 2094 0A60     		str	r2, [r1]
 4326 2096 E317     		asr	r3, r4, #31
 4327 2098 A422     		mov	r2, #164
 4328 209a BA18     		add	r2, r7, r2
 4329 209c 1360     		str	r3, [r2]
 550:Source\FilteringFunctions/arm_correlate_fast_q31.c ****                       ((q63_t) * px++ * (*py++))) >> 32);
 4330              		.loc 1 550 0
 4331 209e A023     		mov	r3, #160
 4332 20a0 FB18     		add	r3, r7, r3
 4333 20a2 1B68     		ldr	r3, [r3]
 4334 20a4 AF4A     		ldr	r2, .L59
 4335 20a6 BA18     		add	r2, r7, r2
 4336 20a8 1360     		str	r3, [r2]
 552:Source\FilteringFunctions/arm_correlate_fast_q31.c ****       /* sum += x[srcALen - srcBLen + 3] * y[2] */
 553:Source\FilteringFunctions/arm_correlate_fast_q31.c ****       sum = (q31_t) ((((q63_t) sum << 32) +
 4337              		.loc 1 553 0
 4338 20aa AE4B     		ldr	r3, .L59
 4339 20ac FB18     		add	r3, r7, r3
 4340 20ae 1B68     		ldr	r3, [r3]
 4341 20b0 9822     		mov	r2, #152
 4342 20b2 BA18     		add	r2, r7, r2
 4343 20b4 1360     		str	r3, [r2]
 4344 20b6 DB17     		asr	r3, r3, #31
 4345 20b8 9C22     		mov	r2, #156
 4346 20ba BA18     		add	r2, r7, r2
 4347 20bc 1360     		str	r3, [r2]
 4348 20be 9823     		mov	r3, #152
 4349 20c0 FB18     		add	r3, r7, r3
 4350 20c2 1B68     		ldr	r3, [r3]
 4351 20c4 1B00     		lsl	r3, r3, #0
 4352 20c6 9422     		mov	r2, #148
 4353 20c8 BA18     		add	r2, r7, r2
 4354 20ca 1360     		str	r3, [r2]
 4355 20cc 0023     		mov	r3, #0
 4356 20ce 9022     		mov	r2, #144
 4357 20d0 BA18     		add	r2, r7, r2
 4358 20d2 1360     		str	r3, [r2]
 554:Source\FilteringFunctions/arm_correlate_fast_q31.c ****                       ((q63_t) * px++ * (*py++))) >> 32);
 4359              		.loc 1 554 0
 4360 20d4 C023     		mov	r3, #192
 4361 20d6 DB00     		lsl	r3, r3, #3
 4362 20d8 FB18     		add	r3, r7, r3
 4363 20da 1A68     		ldr	r2, [r3]
 4364 20dc 131D     		add	r3, r2, #4
 4365 20de C021     		mov	r1, #192
 4366 20e0 C900     		lsl	r1, r1, #3
 4367 20e2 7918     		add	r1, r7, r1
 4368 20e4 0B60     		str	r3, [r1]
 4369 20e6 1368     		ldr	r3, [r2]
 4370 20e8 8822     		mov	r2, #136
 4371 20ea BA18     		add	r2, r7, r2
ARM GAS  C:\Users\fneves\AppData\Local\Temp\ccE35dyd.s 			page 88


 4372 20ec 1360     		str	r3, [r2]
 4373 20ee DB17     		asr	r3, r3, #31
 4374 20f0 8C22     		mov	r2, #140
 4375 20f2 BA18     		add	r2, r7, r2
 4376 20f4 1360     		str	r3, [r2]
 4377 20f6 9C4B     		ldr	r3, .L59+4
 4378 20f8 FB18     		add	r3, r7, r3
 4379 20fa 1A68     		ldr	r2, [r3]
 4380 20fc 131D     		add	r3, r2, #4
 4381 20fe 9A49     		ldr	r1, .L59+4
 4382 2100 7918     		add	r1, r7, r1
 4383 2102 0B60     		str	r3, [r1]
 4384 2104 1368     		ldr	r3, [r2]
 4385 2106 8022     		mov	r2, #128
 4386 2108 BA18     		add	r2, r7, r2
 4387 210a 1360     		str	r3, [r2]
 4388 210c DB17     		asr	r3, r3, #31
 4389 210e 8422     		mov	r2, #132
 4390 2110 BA18     		add	r2, r7, r2
 4391 2112 1360     		str	r3, [r2]
 4392 2114 8823     		mov	r3, #136
 4393 2116 FB18     		add	r3, r7, r3
 4394 2118 1868     		ldr	r0, [r3]
 4395 211a 5968     		ldr	r1, [r3, #4]
 4396 211c 8023     		mov	r3, #128
 4397 211e FB18     		add	r3, r7, r3
 4398 2120 1A68     		ldr	r2, [r3]
 4399 2122 5B68     		ldr	r3, [r3, #4]
 4400 2124 FFF7FEFF 		bl	__aeabi_lmul
 4401 2128 031C     		mov	r3, r0
 4402 212a 0C1C     		mov	r4, r1
 553:Source\FilteringFunctions/arm_correlate_fast_q31.c ****                       ((q63_t) * px++ * (*py++))) >> 32);
 4403              		.loc 1 553 0
 4404 212c 9022     		mov	r2, #144
 4405 212e BA18     		add	r2, r7, r2
 4406 2130 1168     		ldr	r1, [r2]
 4407 2132 5268     		ldr	r2, [r2, #4]
 4408 2134 5B18     		add	r3, r3, r1
 4409 2136 5441     		adc	r4, r4, r2
 4410              		.loc 1 554 0
 4411 2138 2200     		asr	r2, r4, #0
 4412 213a BA67     		str	r2, [r7, #120]
 4413 213c E317     		asr	r3, r4, #31
 4414 213e FB67     		str	r3, [r7, #124]
 553:Source\FilteringFunctions/arm_correlate_fast_q31.c ****                       ((q63_t) * px++ * (*py++))) >> 32);
 4415              		.loc 1 553 0
 4416 2140 BB6F     		ldr	r3, [r7, #120]
 4417 2142 884A     		ldr	r2, .L59
 4418 2144 BA18     		add	r2, r7, r2
 4419 2146 1360     		str	r3, [r2]
 555:Source\FilteringFunctions/arm_correlate_fast_q31.c ****       /* sum += x[srcALen - srcBLen + 2] * y[1] */
 556:Source\FilteringFunctions/arm_correlate_fast_q31.c ****       sum = (q31_t) ((((q63_t) sum << 32) +
 4420              		.loc 1 556 0
 4421 2148 864B     		ldr	r3, .L59
 4422 214a FB18     		add	r3, r7, r3
 4423 214c 1B68     		ldr	r3, [r3]
 4424 214e 3B67     		str	r3, [r7, #112]
ARM GAS  C:\Users\fneves\AppData\Local\Temp\ccE35dyd.s 			page 89


 4425 2150 DB17     		asr	r3, r3, #31
 4426 2152 7B67     		str	r3, [r7, #116]
 4427 2154 3B6F     		ldr	r3, [r7, #112]
 4428 2156 1B00     		lsl	r3, r3, #0
 4429 2158 FB66     		str	r3, [r7, #108]
 4430 215a 0023     		mov	r3, #0
 4431 215c BB66     		str	r3, [r7, #104]
 557:Source\FilteringFunctions/arm_correlate_fast_q31.c ****                       ((q63_t) * px++ * (*py++))) >> 32);
 4432              		.loc 1 557 0
 4433 215e C023     		mov	r3, #192
 4434 2160 DB00     		lsl	r3, r3, #3
 4435 2162 FB18     		add	r3, r7, r3
 4436 2164 1A68     		ldr	r2, [r3]
 4437 2166 131D     		add	r3, r2, #4
 4438 2168 C021     		mov	r1, #192
 4439 216a C900     		lsl	r1, r1, #3
 4440 216c 7918     		add	r1, r7, r1
 4441 216e 0B60     		str	r3, [r1]
 4442 2170 1368     		ldr	r3, [r2]
 4443 2172 3B66     		str	r3, [r7, #96]
 4444 2174 DB17     		asr	r3, r3, #31
 4445 2176 7B66     		str	r3, [r7, #100]
 4446 2178 7B4B     		ldr	r3, .L59+4
 4447 217a FB18     		add	r3, r7, r3
 4448 217c 1A68     		ldr	r2, [r3]
 4449 217e 131D     		add	r3, r2, #4
 4450 2180 7949     		ldr	r1, .L59+4
 4451 2182 7918     		add	r1, r7, r1
 4452 2184 0B60     		str	r3, [r1]
 4453 2186 1368     		ldr	r3, [r2]
 4454 2188 BB65     		str	r3, [r7, #88]
 4455 218a DB17     		asr	r3, r3, #31
 4456 218c FB65     		str	r3, [r7, #92]
 4457 218e 386E     		ldr	r0, [r7, #96]
 4458 2190 796E     		ldr	r1, [r7, #100]
 4459 2192 BA6D     		ldr	r2, [r7, #88]
 4460 2194 FB6D     		ldr	r3, [r7, #92]
 4461 2196 FFF7FEFF 		bl	__aeabi_lmul
 4462 219a 031C     		mov	r3, r0
 4463 219c 0C1C     		mov	r4, r1
 556:Source\FilteringFunctions/arm_correlate_fast_q31.c ****                       ((q63_t) * px++ * (*py++))) >> 32);
 4464              		.loc 1 556 0
 4465 219e B96E     		ldr	r1, [r7, #104]
 4466 21a0 FA6E     		ldr	r2, [r7, #108]
 4467 21a2 5B18     		add	r3, r3, r1
 4468 21a4 5441     		adc	r4, r4, r2
 4469              		.loc 1 557 0
 4470 21a6 2200     		asr	r2, r4, #0
 4471 21a8 3A65     		str	r2, [r7, #80]
 4472 21aa E317     		asr	r3, r4, #31
 4473 21ac 7B65     		str	r3, [r7, #84]
 556:Source\FilteringFunctions/arm_correlate_fast_q31.c ****                       ((q63_t) * px++ * (*py++))) >> 32);
 4474              		.loc 1 556 0
 4475 21ae 3B6D     		ldr	r3, [r7, #80]
 4476 21b0 6C4A     		ldr	r2, .L59
 4477 21b2 BA18     		add	r2, r7, r2
 4478 21b4 1360     		str	r3, [r2]
ARM GAS  C:\Users\fneves\AppData\Local\Temp\ccE35dyd.s 			page 90


 558:Source\FilteringFunctions/arm_correlate_fast_q31.c ****       /* sum += x[srcALen - srcBLen + 1] * y[0] */
 559:Source\FilteringFunctions/arm_correlate_fast_q31.c ****       sum = (q31_t) ((((q63_t) sum << 32) +
 4479              		.loc 1 559 0
 4480 21b6 6B4B     		ldr	r3, .L59
 4481 21b8 FB18     		add	r3, r7, r3
 4482 21ba 1B68     		ldr	r3, [r3]
 4483 21bc BB64     		str	r3, [r7, #72]
 4484 21be DB17     		asr	r3, r3, #31
 4485 21c0 FB64     		str	r3, [r7, #76]
 4486 21c2 BB6C     		ldr	r3, [r7, #72]
 4487 21c4 1B00     		lsl	r3, r3, #0
 4488 21c6 7B64     		str	r3, [r7, #68]
 4489 21c8 0023     		mov	r3, #0
 4490 21ca 3B64     		str	r3, [r7, #64]
 560:Source\FilteringFunctions/arm_correlate_fast_q31.c ****                       ((q63_t) * px++ * (*py++))) >> 32);
 4491              		.loc 1 560 0
 4492 21cc C023     		mov	r3, #192
 4493 21ce DB00     		lsl	r3, r3, #3
 4494 21d0 FB18     		add	r3, r7, r3
 4495 21d2 1A68     		ldr	r2, [r3]
 4496 21d4 131D     		add	r3, r2, #4
 4497 21d6 C021     		mov	r1, #192
 4498 21d8 C900     		lsl	r1, r1, #3
 4499 21da 7918     		add	r1, r7, r1
 4500 21dc 0B60     		str	r3, [r1]
 4501 21de 1368     		ldr	r3, [r2]
 4502 21e0 BB63     		str	r3, [r7, #56]
 4503 21e2 DB17     		asr	r3, r3, #31
 4504 21e4 FB63     		str	r3, [r7, #60]
 4505 21e6 604B     		ldr	r3, .L59+4
 4506 21e8 FB18     		add	r3, r7, r3
 4507 21ea 1A68     		ldr	r2, [r3]
 4508 21ec 131D     		add	r3, r2, #4
 4509 21ee 5E49     		ldr	r1, .L59+4
 4510 21f0 7918     		add	r1, r7, r1
 4511 21f2 0B60     		str	r3, [r1]
 4512 21f4 1368     		ldr	r3, [r2]
 4513 21f6 3B63     		str	r3, [r7, #48]
 4514 21f8 DB17     		asr	r3, r3, #31
 4515 21fa 7B63     		str	r3, [r7, #52]
 4516 21fc B86B     		ldr	r0, [r7, #56]
 4517 21fe F96B     		ldr	r1, [r7, #60]
 4518 2200 3A6B     		ldr	r2, [r7, #48]
 4519 2202 7B6B     		ldr	r3, [r7, #52]
 4520 2204 FFF7FEFF 		bl	__aeabi_lmul
 4521 2208 031C     		mov	r3, r0
 4522 220a 0C1C     		mov	r4, r1
 559:Source\FilteringFunctions/arm_correlate_fast_q31.c ****                       ((q63_t) * px++ * (*py++))) >> 32);
 4523              		.loc 1 559 0
 4524 220c 396C     		ldr	r1, [r7, #64]
 4525 220e 7A6C     		ldr	r2, [r7, #68]
 4526 2210 5B18     		add	r3, r3, r1
 4527 2212 5441     		adc	r4, r4, r2
 4528              		.loc 1 560 0
 4529 2214 2200     		asr	r2, r4, #0
 4530 2216 BA62     		str	r2, [r7, #40]
 4531 2218 E317     		asr	r3, r4, #31
ARM GAS  C:\Users\fneves\AppData\Local\Temp\ccE35dyd.s 			page 91


 4532 221a FB62     		str	r3, [r7, #44]
 559:Source\FilteringFunctions/arm_correlate_fast_q31.c ****                       ((q63_t) * px++ * (*py++))) >> 32);
 4533              		.loc 1 559 0
 4534 221c BB6A     		ldr	r3, [r7, #40]
 4535 221e 514A     		ldr	r2, .L59
 4536 2220 BA18     		add	r2, r7, r2
 4537 2222 1360     		str	r3, [r2]
 561:Source\FilteringFunctions/arm_correlate_fast_q31.c **** 
 562:Source\FilteringFunctions/arm_correlate_fast_q31.c ****       /* Decrement the loop counter */
 563:Source\FilteringFunctions/arm_correlate_fast_q31.c ****       k--;
 4538              		.loc 1 563 0
 4539 2224 514B     		ldr	r3, .L59+8
 4540 2226 FB18     		add	r3, r7, r3
 4541 2228 1B68     		ldr	r3, [r3]
 4542 222a 013B     		sub	r3, r3, #1
 4543 222c 4F4A     		ldr	r2, .L59+8
 4544 222e BA18     		add	r2, r7, r2
 4545 2230 1360     		str	r3, [r2]
 4546              	.L28:
 546:Source\FilteringFunctions/arm_correlate_fast_q31.c ****     {
 4547              		.loc 1 546 0
 4548 2232 4E4B     		ldr	r3, .L59+8
 4549 2234 FB18     		add	r3, r7, r3
 4550 2236 1B68     		ldr	r3, [r3]
 4551 2238 002B     		cmp	r3, #0
 4552 223a 00D0     		beq	.LCB4215
 4553 223c E0E6     		b	.L29	@long jump
 4554              	.LCB4215:
 564:Source\FilteringFunctions/arm_correlate_fast_q31.c ****     }
 565:Source\FilteringFunctions/arm_correlate_fast_q31.c **** 
 566:Source\FilteringFunctions/arm_correlate_fast_q31.c ****     /* If the count is not a multiple of 4, compute any remaining MACs here.
 567:Source\FilteringFunctions/arm_correlate_fast_q31.c ****      ** No loop unrolling is used. */
 568:Source\FilteringFunctions/arm_correlate_fast_q31.c ****     k = count % 0x4u;
 4555              		.loc 1 568 0
 4556 223e BA23     		mov	r3, #186
 4557 2240 DB00     		lsl	r3, r3, #3
 4558 2242 FB18     		add	r3, r7, r3
 4559 2244 1A68     		ldr	r2, [r3]
 4560 2246 0323     		mov	r3, #3
 4561 2248 1340     		and	r3, r2
 4562 224a 484A     		ldr	r2, .L59+8
 4563 224c BA18     		add	r2, r7, r2
 4564 224e 1360     		str	r3, [r2]
 569:Source\FilteringFunctions/arm_correlate_fast_q31.c **** 
 570:Source\FilteringFunctions/arm_correlate_fast_q31.c ****     while (k > 0u)
 4565              		.loc 1 570 0
 4566 2250 3DE0     		b	.L30
 4567              	.L31:
 571:Source\FilteringFunctions/arm_correlate_fast_q31.c ****     {
 572:Source\FilteringFunctions/arm_correlate_fast_q31.c ****       /* Perform the multiply-accumulates */
 573:Source\FilteringFunctions/arm_correlate_fast_q31.c ****       sum = (q31_t) ((((q63_t) sum << 32) +
 4568              		.loc 1 573 0
 4569 2252 444B     		ldr	r3, .L59
 4570 2254 FB18     		add	r3, r7, r3
 4571 2256 1B68     		ldr	r3, [r3]
 4572 2258 3B62     		str	r3, [r7, #32]
 4573 225a DB17     		asr	r3, r3, #31
ARM GAS  C:\Users\fneves\AppData\Local\Temp\ccE35dyd.s 			page 92


 4574 225c 7B62     		str	r3, [r7, #36]
 4575 225e 3B6A     		ldr	r3, [r7, #32]
 4576 2260 1B00     		lsl	r3, r3, #0
 4577 2262 FB61     		str	r3, [r7, #28]
 4578 2264 0023     		mov	r3, #0
 4579 2266 BB61     		str	r3, [r7, #24]
 574:Source\FilteringFunctions/arm_correlate_fast_q31.c ****                       ((q63_t) * px++ * (*py++))) >> 32);
 4580              		.loc 1 574 0
 4581 2268 C023     		mov	r3, #192
 4582 226a DB00     		lsl	r3, r3, #3
 4583 226c FB18     		add	r3, r7, r3
 4584 226e 1A68     		ldr	r2, [r3]
 4585 2270 131D     		add	r3, r2, #4
 4586 2272 C021     		mov	r1, #192
 4587 2274 C900     		lsl	r1, r1, #3
 4588 2276 7918     		add	r1, r7, r1
 4589 2278 0B60     		str	r3, [r1]
 4590 227a 1368     		ldr	r3, [r2]
 4591 227c 3B61     		str	r3, [r7, #16]
 4592 227e DB17     		asr	r3, r3, #31
 4593 2280 7B61     		str	r3, [r7, #20]
 4594 2282 394B     		ldr	r3, .L59+4
 4595 2284 FB18     		add	r3, r7, r3
 4596 2286 1A68     		ldr	r2, [r3]
 4597 2288 131D     		add	r3, r2, #4
 4598 228a 3749     		ldr	r1, .L59+4
 4599 228c 7918     		add	r1, r7, r1
 4600 228e 0B60     		str	r3, [r1]
 4601 2290 1368     		ldr	r3, [r2]
 4602 2292 BB60     		str	r3, [r7, #8]
 4603 2294 DB17     		asr	r3, r3, #31
 4604 2296 FB60     		str	r3, [r7, #12]
 4605 2298 3869     		ldr	r0, [r7, #16]
 4606 229a 7969     		ldr	r1, [r7, #20]
 4607 229c BA68     		ldr	r2, [r7, #8]
 4608 229e FB68     		ldr	r3, [r7, #12]
 4609 22a0 FFF7FEFF 		bl	__aeabi_lmul
 4610 22a4 031C     		mov	r3, r0
 4611 22a6 0C1C     		mov	r4, r1
 573:Source\FilteringFunctions/arm_correlate_fast_q31.c ****                       ((q63_t) * px++ * (*py++))) >> 32);
 4612              		.loc 1 573 0
 4613 22a8 B969     		ldr	r1, [r7, #24]
 4614 22aa FA69     		ldr	r2, [r7, #28]
 4615 22ac 5B18     		add	r3, r3, r1
 4616 22ae 5441     		adc	r4, r4, r2
 4617              		.loc 1 574 0
 4618 22b0 2200     		asr	r2, r4, #0
 4619 22b2 3A60     		str	r2, [r7]
 4620 22b4 E317     		asr	r3, r4, #31
 4621 22b6 7B60     		str	r3, [r7, #4]
 573:Source\FilteringFunctions/arm_correlate_fast_q31.c ****                       ((q63_t) * px++ * (*py++))) >> 32);
 4622              		.loc 1 573 0
 4623 22b8 3B68     		ldr	r3, [r7]
 4624 22ba 2A4A     		ldr	r2, .L59
 4625 22bc BA18     		add	r2, r7, r2
 4626 22be 1360     		str	r3, [r2]
 575:Source\FilteringFunctions/arm_correlate_fast_q31.c **** 
ARM GAS  C:\Users\fneves\AppData\Local\Temp\ccE35dyd.s 			page 93


 576:Source\FilteringFunctions/arm_correlate_fast_q31.c ****       /* Decrement the loop counter */
 577:Source\FilteringFunctions/arm_correlate_fast_q31.c ****       k--;
 4627              		.loc 1 577 0
 4628 22c0 2A4B     		ldr	r3, .L59+8
 4629 22c2 FB18     		add	r3, r7, r3
 4630 22c4 1B68     		ldr	r3, [r3]
 4631 22c6 013B     		sub	r3, r3, #1
 4632 22c8 284A     		ldr	r2, .L59+8
 4633 22ca BA18     		add	r2, r7, r2
 4634 22cc 1360     		str	r3, [r2]
 4635              	.L30:
 570:Source\FilteringFunctions/arm_correlate_fast_q31.c ****     {
 4636              		.loc 1 570 0
 4637 22ce 274B     		ldr	r3, .L59+8
 4638 22d0 FB18     		add	r3, r7, r3
 4639 22d2 1B68     		ldr	r3, [r3]
 4640 22d4 002B     		cmp	r3, #0
 4641 22d6 BCD1     		bne	.L31
 578:Source\FilteringFunctions/arm_correlate_fast_q31.c ****     }
 579:Source\FilteringFunctions/arm_correlate_fast_q31.c **** 
 580:Source\FilteringFunctions/arm_correlate_fast_q31.c ****     /* Store the result in the accumulator in the destination buffer. */
 581:Source\FilteringFunctions/arm_correlate_fast_q31.c ****     *pOut = sum << 1;
 4642              		.loc 1 581 0
 4643 22d8 224B     		ldr	r3, .L59
 4644 22da FB18     		add	r3, r7, r3
 4645 22dc 1B68     		ldr	r3, [r3]
 4646 22de 5A00     		lsl	r2, r3, #1
 4647 22e0 234B     		ldr	r3, .L59+12
 4648 22e2 FB18     		add	r3, r7, r3
 4649 22e4 1B68     		ldr	r3, [r3]
 4650 22e6 1A60     		str	r2, [r3]
 582:Source\FilteringFunctions/arm_correlate_fast_q31.c ****     /* Destination pointer is updated according to the address modifier, inc */
 583:Source\FilteringFunctions/arm_correlate_fast_q31.c ****     pOut += inc;
 4651              		.loc 1 583 0
 4652 22e8 B823     		mov	r3, #184
 4653 22ea DB00     		lsl	r3, r3, #3
 4654 22ec FB18     		add	r3, r7, r3
 4655 22ee 1B68     		ldr	r3, [r3]
 4656 22f0 9A00     		lsl	r2, r3, #2
 4657 22f2 1F4B     		ldr	r3, .L59+12
 4658 22f4 FB18     		add	r3, r7, r3
 4659 22f6 1B68     		ldr	r3, [r3]
 4660 22f8 9B18     		add	r3, r3, r2
 4661 22fa 1D4A     		ldr	r2, .L59+12
 4662 22fc BA18     		add	r2, r7, r2
 4663 22fe 1360     		str	r3, [r2]
 584:Source\FilteringFunctions/arm_correlate_fast_q31.c **** 
 585:Source\FilteringFunctions/arm_correlate_fast_q31.c ****     /* Update the inputA and inputB pointers for next MAC calculation */
 586:Source\FilteringFunctions/arm_correlate_fast_q31.c ****     px = ++pSrc1;
 4664              		.loc 1 586 0
 4665 2300 BF23     		mov	r3, #191
 4666 2302 DB00     		lsl	r3, r3, #3
 4667 2304 FB18     		add	r3, r7, r3
 4668 2306 1B68     		ldr	r3, [r3]
 4669 2308 0433     		add	r3, r3, #4
 4670 230a BF22     		mov	r2, #191
 4671 230c D200     		lsl	r2, r2, #3
ARM GAS  C:\Users\fneves\AppData\Local\Temp\ccE35dyd.s 			page 94


 4672 230e BA18     		add	r2, r7, r2
 4673 2310 1360     		str	r3, [r2]
 4674 2312 BF23     		mov	r3, #191
 4675 2314 DB00     		lsl	r3, r3, #3
 4676 2316 FB18     		add	r3, r7, r3
 4677 2318 1B68     		ldr	r3, [r3]
 4678 231a C022     		mov	r2, #192
 4679 231c D200     		lsl	r2, r2, #3
 4680 231e BA18     		add	r2, r7, r2
 4681 2320 1360     		str	r3, [r2]
 587:Source\FilteringFunctions/arm_correlate_fast_q31.c ****     py = pIn2;
 4682              		.loc 1 587 0
 4683 2322 C123     		mov	r3, #193
 4684 2324 DB00     		lsl	r3, r3, #3
 4685 2326 FB18     		add	r3, r7, r3
 4686 2328 1B68     		ldr	r3, [r3]
 4687 232a 0F4A     		ldr	r2, .L59+4
 4688 232c BA18     		add	r2, r7, r2
 4689 232e 1360     		str	r3, [r2]
 588:Source\FilteringFunctions/arm_correlate_fast_q31.c **** 
 589:Source\FilteringFunctions/arm_correlate_fast_q31.c ****     /* Decrement the MAC count */
 590:Source\FilteringFunctions/arm_correlate_fast_q31.c ****     count--;
 4690              		.loc 1 590 0
 4691 2330 BA23     		mov	r3, #186
 4692 2332 DB00     		lsl	r3, r3, #3
 4693 2334 FB18     		add	r3, r7, r3
 4694 2336 1B68     		ldr	r3, [r3]
 4695 2338 013B     		sub	r3, r3, #1
 4696 233a BA22     		mov	r2, #186
 4697 233c D200     		lsl	r2, r2, #3
 4698 233e BA18     		add	r2, r7, r2
 4699 2340 1360     		str	r3, [r2]
 591:Source\FilteringFunctions/arm_correlate_fast_q31.c **** 
 592:Source\FilteringFunctions/arm_correlate_fast_q31.c ****     /* Decrement the loop counter */
 593:Source\FilteringFunctions/arm_correlate_fast_q31.c ****     blockSize3--;
 4700              		.loc 1 593 0
 4701 2342 0C4B     		ldr	r3, .L59+16
 4702 2344 FB18     		add	r3, r7, r3
 4703 2346 1B68     		ldr	r3, [r3]
 4704 2348 013B     		sub	r3, r3, #1
 4705 234a 0A4A     		ldr	r2, .L59+16
 4706 234c BA18     		add	r2, r7, r2
 4707 234e 1360     		str	r3, [r2]
 4708              	.L27:
 536:Source\FilteringFunctions/arm_correlate_fast_q31.c ****   {
 4709              		.loc 1 536 0
 4710 2350 084B     		ldr	r3, .L59+16
 4711 2352 FB18     		add	r3, r7, r3
 4712 2354 1B68     		ldr	r3, [r3]
 4713 2356 002B     		cmp	r3, #0
 4714 2358 00D0     		beq	.LCB4359
 4715 235a 35E6     		b	.L32	@long jump
 4716              	.LCB4359:
 594:Source\FilteringFunctions/arm_correlate_fast_q31.c ****   }
 595:Source\FilteringFunctions/arm_correlate_fast_q31.c **** 
 596:Source\FilteringFunctions/arm_correlate_fast_q31.c **** }
 4717              		.loc 1 596 0
ARM GAS  C:\Users\fneves\AppData\Local\Temp\ccE35dyd.s 			page 95


 4718 235c BD46     		mov	sp, r7
 4719 235e 064B     		ldr	r3, .L59+20
 4720 2360 9D44     		add	sp, sp, r3
 4721              		@ sp needed
 4722 2362 F0BD     		pop	{r4, r5, r6, r7, pc}
 4723              	.L60:
 4724              		.align	2
 4725              	.L59:
 4726 2364 F4050000 		.word	1524
 4727 2368 FC050000 		.word	1532
 4728 236c D4050000 		.word	1492
 4729 2370 04060000 		.word	1540
 4730 2374 C4050000 		.word	1476
 4731 2378 14060000 		.word	1556
 4732              		.cfi_endproc
 4733              	.LFE82:
 4734              		.size	arm_correlate_fast_q31, .-arm_correlate_fast_q31
 4735              		.text
 4736              	.Letext0:
 4737              		.file 2 "c:\\program files (x86)\\cypress\\psoc creator\\4.0\\psoc creator\\import\\gnu\\arm\\4.9.
 4738              		.file 3 "c:\\program files (x86)\\cypress\\psoc creator\\4.0\\psoc creator\\import\\gnu\\arm\\4.9.
 4739              		.file 4 ".\\Include/arm_math.h"