ARM GAS  C:\Users\fneves\AppData\Local\Temp\ccSSQZcV.s 			page 1


   1              		.cpu cortex-m0plus
   2              		.fpu softvfp
   3              		.eabi_attribute 20, 1
   4              		.eabi_attribute 21, 1
   5              		.eabi_attribute 23, 3
   6              		.eabi_attribute 24, 1
   7              		.eabi_attribute 25, 1
   8              		.eabi_attribute 26, 1
   9              		.eabi_attribute 30, 6
  10              		.eabi_attribute 34, 0
  11              		.eabi_attribute 18, 4
  12              		.code	16
  13              		.file	"arm_negate_q31.c"
  14              		.text
  15              	.Ltext0:
  16              		.cfi_sections	.debug_frame
  17              		.section	.text.arm_negate_q31,"ax",%progbits
  18              		.align	2
  19              		.global	arm_negate_q31
  20              		.code	16
  21              		.thumb_func
  22              		.type	arm_negate_q31, %function
  23              	arm_negate_q31:
  24              	.LFB82:
  25              		.file 1 "Source\\BasicMathFunctions\\arm_negate_q31.c"
   1:Source\BasicMathFunctions/arm_negate_q31.c **** /* ----------------------------------------------------------------------
   2:Source\BasicMathFunctions/arm_negate_q31.c ****  * Project:      CMSIS DSP Library
   3:Source\BasicMathFunctions/arm_negate_q31.c ****  * Title:        arm_negate_q31.c
   4:Source\BasicMathFunctions/arm_negate_q31.c ****  * Description:  Negates Q31 vectors
   5:Source\BasicMathFunctions/arm_negate_q31.c ****  *
   6:Source\BasicMathFunctions/arm_negate_q31.c ****  * $Date:        27. January 2017
   7:Source\BasicMathFunctions/arm_negate_q31.c ****  * $Revision:    V.1.5.1
   8:Source\BasicMathFunctions/arm_negate_q31.c ****  *
   9:Source\BasicMathFunctions/arm_negate_q31.c ****  * Target Processor: Cortex-M cores
  10:Source\BasicMathFunctions/arm_negate_q31.c ****  * -------------------------------------------------------------------- */
  11:Source\BasicMathFunctions/arm_negate_q31.c **** /*
  12:Source\BasicMathFunctions/arm_negate_q31.c ****  * Copyright (C) 2010-2017 ARM Limited or its affiliates. All rights reserved.
  13:Source\BasicMathFunctions/arm_negate_q31.c ****  *
  14:Source\BasicMathFunctions/arm_negate_q31.c ****  * SPDX-License-Identifier: Apache-2.0
  15:Source\BasicMathFunctions/arm_negate_q31.c ****  *
  16:Source\BasicMathFunctions/arm_negate_q31.c ****  * Licensed under the Apache License, Version 2.0 (the License); you may
  17:Source\BasicMathFunctions/arm_negate_q31.c ****  * not use this file except in compliance with the License.
  18:Source\BasicMathFunctions/arm_negate_q31.c ****  * You may obtain a copy of the License at
  19:Source\BasicMathFunctions/arm_negate_q31.c ****  *
  20:Source\BasicMathFunctions/arm_negate_q31.c ****  * www.apache.org/licenses/LICENSE-2.0
  21:Source\BasicMathFunctions/arm_negate_q31.c ****  *
  22:Source\BasicMathFunctions/arm_negate_q31.c ****  * Unless required by applicable law or agreed to in writing, software
  23:Source\BasicMathFunctions/arm_negate_q31.c ****  * distributed under the License is distributed on an AS IS BASIS, WITHOUT
  24:Source\BasicMathFunctions/arm_negate_q31.c ****  * WARRANTIES OR CONDITIONS OF ANY KIND, either express or implied.
  25:Source\BasicMathFunctions/arm_negate_q31.c ****  * See the License for the specific language governing permissions and
  26:Source\BasicMathFunctions/arm_negate_q31.c ****  * limitations under the License.
  27:Source\BasicMathFunctions/arm_negate_q31.c ****  */
  28:Source\BasicMathFunctions/arm_negate_q31.c **** 
  29:Source\BasicMathFunctions/arm_negate_q31.c **** #include "arm_math.h"
  30:Source\BasicMathFunctions/arm_negate_q31.c **** 
  31:Source\BasicMathFunctions/arm_negate_q31.c **** /**
  32:Source\BasicMathFunctions/arm_negate_q31.c ****  * @ingroup groupMath
ARM GAS  C:\Users\fneves\AppData\Local\Temp\ccSSQZcV.s 			page 2


  33:Source\BasicMathFunctions/arm_negate_q31.c ****  */
  34:Source\BasicMathFunctions/arm_negate_q31.c **** 
  35:Source\BasicMathFunctions/arm_negate_q31.c **** /**
  36:Source\BasicMathFunctions/arm_negate_q31.c ****  * @addtogroup negate
  37:Source\BasicMathFunctions/arm_negate_q31.c ****  * @{
  38:Source\BasicMathFunctions/arm_negate_q31.c ****  */
  39:Source\BasicMathFunctions/arm_negate_q31.c **** 
  40:Source\BasicMathFunctions/arm_negate_q31.c **** /**
  41:Source\BasicMathFunctions/arm_negate_q31.c ****  * @brief  Negates the elements of a Q31 vector.
  42:Source\BasicMathFunctions/arm_negate_q31.c ****  * @param[in]  *pSrc points to the input vector
  43:Source\BasicMathFunctions/arm_negate_q31.c ****  * @param[out]  *pDst points to the output vector
  44:Source\BasicMathFunctions/arm_negate_q31.c ****  * @param[in]  blockSize number of samples in the vector
  45:Source\BasicMathFunctions/arm_negate_q31.c ****  * @return none.
  46:Source\BasicMathFunctions/arm_negate_q31.c ****  *
  47:Source\BasicMathFunctions/arm_negate_q31.c ****  * <b>Scaling and Overflow Behavior:</b>
  48:Source\BasicMathFunctions/arm_negate_q31.c ****  * \par
  49:Source\BasicMathFunctions/arm_negate_q31.c ****  * The function uses saturating arithmetic.
  50:Source\BasicMathFunctions/arm_negate_q31.c ****  * The Q31 value -1 (0x80000000) will be saturated to the maximum allowable positive value 0x7FFFFF
  51:Source\BasicMathFunctions/arm_negate_q31.c ****  */
  52:Source\BasicMathFunctions/arm_negate_q31.c **** 
  53:Source\BasicMathFunctions/arm_negate_q31.c **** void arm_negate_q31(
  54:Source\BasicMathFunctions/arm_negate_q31.c ****   q31_t * pSrc,
  55:Source\BasicMathFunctions/arm_negate_q31.c ****   q31_t * pDst,
  56:Source\BasicMathFunctions/arm_negate_q31.c ****   uint32_t blockSize)
  57:Source\BasicMathFunctions/arm_negate_q31.c **** {
  26              		.loc 1 57 0
  27              		.cfi_startproc
  28 0000 80B5     		push	{r7, lr}
  29              		.cfi_def_cfa_offset 8
  30              		.cfi_offset 7, -8
  31              		.cfi_offset 14, -4
  32 0002 86B0     		sub	sp, sp, #24
  33              		.cfi_def_cfa_offset 32
  34 0004 00AF     		add	r7, sp, #0
  35              		.cfi_def_cfa_register 7
  36 0006 F860     		str	r0, [r7, #12]
  37 0008 B960     		str	r1, [r7, #8]
  38 000a 7A60     		str	r2, [r7, #4]
  58:Source\BasicMathFunctions/arm_negate_q31.c ****   q31_t in;                                      /* Temporary variable */
  59:Source\BasicMathFunctions/arm_negate_q31.c ****   uint32_t blkCnt;                               /* loop counter */
  60:Source\BasicMathFunctions/arm_negate_q31.c **** 
  61:Source\BasicMathFunctions/arm_negate_q31.c **** #if defined (ARM_MATH_DSP)
  62:Source\BasicMathFunctions/arm_negate_q31.c **** 
  63:Source\BasicMathFunctions/arm_negate_q31.c **** /* Run the below code for Cortex-M4 and Cortex-M3 */
  64:Source\BasicMathFunctions/arm_negate_q31.c ****   q31_t in1, in2, in3, in4;
  65:Source\BasicMathFunctions/arm_negate_q31.c **** 
  66:Source\BasicMathFunctions/arm_negate_q31.c ****   /*loop Unrolling */
  67:Source\BasicMathFunctions/arm_negate_q31.c ****   blkCnt = blockSize >> 2u;
  68:Source\BasicMathFunctions/arm_negate_q31.c **** 
  69:Source\BasicMathFunctions/arm_negate_q31.c ****   /* First part of the processing with loop unrolling.  Compute 4 outputs at a time.
  70:Source\BasicMathFunctions/arm_negate_q31.c ****    ** a second loop below computes the remaining 1 to 3 samples. */
  71:Source\BasicMathFunctions/arm_negate_q31.c ****   while (blkCnt > 0u)
  72:Source\BasicMathFunctions/arm_negate_q31.c ****   {
  73:Source\BasicMathFunctions/arm_negate_q31.c ****     /* C = -A */
  74:Source\BasicMathFunctions/arm_negate_q31.c ****     /* Negate and then store the results in the destination buffer. */
  75:Source\BasicMathFunctions/arm_negate_q31.c ****     in1 = *pSrc++;
  76:Source\BasicMathFunctions/arm_negate_q31.c ****     in2 = *pSrc++;
ARM GAS  C:\Users\fneves\AppData\Local\Temp\ccSSQZcV.s 			page 3


  77:Source\BasicMathFunctions/arm_negate_q31.c ****     in3 = *pSrc++;
  78:Source\BasicMathFunctions/arm_negate_q31.c ****     in4 = *pSrc++;
  79:Source\BasicMathFunctions/arm_negate_q31.c **** 
  80:Source\BasicMathFunctions/arm_negate_q31.c ****     *pDst++ = __QSUB(0, in1);
  81:Source\BasicMathFunctions/arm_negate_q31.c ****     *pDst++ = __QSUB(0, in2);
  82:Source\BasicMathFunctions/arm_negate_q31.c ****     *pDst++ = __QSUB(0, in3);
  83:Source\BasicMathFunctions/arm_negate_q31.c ****     *pDst++ = __QSUB(0, in4);
  84:Source\BasicMathFunctions/arm_negate_q31.c **** 
  85:Source\BasicMathFunctions/arm_negate_q31.c ****     /* Decrement the loop counter */
  86:Source\BasicMathFunctions/arm_negate_q31.c ****     blkCnt--;
  87:Source\BasicMathFunctions/arm_negate_q31.c ****   }
  88:Source\BasicMathFunctions/arm_negate_q31.c **** 
  89:Source\BasicMathFunctions/arm_negate_q31.c ****   /* If the blockSize is not a multiple of 4, compute any remaining output samples here.
  90:Source\BasicMathFunctions/arm_negate_q31.c ****    ** No loop unrolling is used. */
  91:Source\BasicMathFunctions/arm_negate_q31.c ****   blkCnt = blockSize % 0x4u;
  92:Source\BasicMathFunctions/arm_negate_q31.c **** 
  93:Source\BasicMathFunctions/arm_negate_q31.c **** #else
  94:Source\BasicMathFunctions/arm_negate_q31.c **** 
  95:Source\BasicMathFunctions/arm_negate_q31.c ****   /* Run the below code for Cortex-M0 */
  96:Source\BasicMathFunctions/arm_negate_q31.c **** 
  97:Source\BasicMathFunctions/arm_negate_q31.c ****   /* Initialize blkCnt with number of samples */
  98:Source\BasicMathFunctions/arm_negate_q31.c ****   blkCnt = blockSize;
  39              		.loc 1 98 0
  40 000c 7B68     		ldr	r3, [r7, #4]
  41 000e 7B61     		str	r3, [r7, #20]
  99:Source\BasicMathFunctions/arm_negate_q31.c **** 
 100:Source\BasicMathFunctions/arm_negate_q31.c **** #endif /* #if defined (ARM_MATH_DSP) */
 101:Source\BasicMathFunctions/arm_negate_q31.c **** 
 102:Source\BasicMathFunctions/arm_negate_q31.c **** 
 103:Source\BasicMathFunctions/arm_negate_q31.c ****   while (blkCnt > 0u)
  42              		.loc 1 103 0
  43 0010 14E0     		b	.L2
  44              	.L5:
 104:Source\BasicMathFunctions/arm_negate_q31.c ****   {
 105:Source\BasicMathFunctions/arm_negate_q31.c ****     /* C = -A */
 106:Source\BasicMathFunctions/arm_negate_q31.c ****     /* Negate and then store the result in the destination buffer. */
 107:Source\BasicMathFunctions/arm_negate_q31.c ****     in = *pSrc++;
  45              		.loc 1 107 0
  46 0012 FB68     		ldr	r3, [r7, #12]
  47 0014 1A1D     		add	r2, r3, #4
  48 0016 FA60     		str	r2, [r7, #12]
  49 0018 1B68     		ldr	r3, [r3]
  50 001a 3B61     		str	r3, [r7, #16]
 108:Source\BasicMathFunctions/arm_negate_q31.c ****     *pDst++ = (in == INT32_MIN) ? INT32_MAX : -in;
  51              		.loc 1 108 0
  52 001c BB68     		ldr	r3, [r7, #8]
  53 001e 1A1D     		add	r2, r3, #4
  54 0020 BA60     		str	r2, [r7, #8]
  55 0022 3969     		ldr	r1, [r7, #16]
  56 0024 8022     		mov	r2, #128
  57 0026 1206     		lsl	r2, r2, #24
  58 0028 9142     		cmp	r1, r2
  59 002a 02D0     		beq	.L3
  60              		.loc 1 108 0 is_stmt 0 discriminator 1
  61 002c 3A69     		ldr	r2, [r7, #16]
  62 002e 5242     		neg	r2, r2
  63 0030 00E0     		b	.L4
ARM GAS  C:\Users\fneves\AppData\Local\Temp\ccSSQZcV.s 			page 4


  64              	.L3:
  65              		.loc 1 108 0 discriminator 2
  66 0032 054A     		ldr	r2, .L6
  67              	.L4:
  68              		.loc 1 108 0 discriminator 4
  69 0034 1A60     		str	r2, [r3]
 109:Source\BasicMathFunctions/arm_negate_q31.c **** 
 110:Source\BasicMathFunctions/arm_negate_q31.c ****     /* Decrement the loop counter */
 111:Source\BasicMathFunctions/arm_negate_q31.c ****     blkCnt--;
  70              		.loc 1 111 0 is_stmt 1 discriminator 4
  71 0036 7B69     		ldr	r3, [r7, #20]
  72 0038 013B     		sub	r3, r3, #1
  73 003a 7B61     		str	r3, [r7, #20]
  74              	.L2:
 103:Source\BasicMathFunctions/arm_negate_q31.c ****   {
  75              		.loc 1 103 0
  76 003c 7B69     		ldr	r3, [r7, #20]
  77 003e 002B     		cmp	r3, #0
  78 0040 E7D1     		bne	.L5
 112:Source\BasicMathFunctions/arm_negate_q31.c ****   }
 113:Source\BasicMathFunctions/arm_negate_q31.c **** }
  79              		.loc 1 113 0
  80 0042 BD46     		mov	sp, r7
  81 0044 06B0     		add	sp, sp, #24
  82              		@ sp needed
  83 0046 80BD     		pop	{r7, pc}
  84              	.L7:
  85              		.align	2
  86              	.L6:
  87 0048 FFFFFF7F 		.word	2147483647
  88              		.cfi_endproc
  89              	.LFE82:
  90              		.size	arm_negate_q31, .-arm_negate_q31
  91              		.text
  92              	.Letext0:
  93              		.file 2 "c:\\program files (x86)\\cypress\\psoc creator\\4.0\\psoc creator\\import\\gnu\\arm\\4.9.
  94              		.file 3 "c:\\program files (x86)\\cypress\\psoc creator\\4.0\\psoc creator\\import\\gnu\\arm\\4.9.
  95              		.file 4 ".\\Include/arm_math.h"