ARM GAS  C:\Users\fneves\AppData\Local\Temp\ccx8ai1h.s 			page 1


   1              		.cpu cortex-m0plus
   2              		.fpu softvfp
   3              		.eabi_attribute 20, 1
   4              		.eabi_attribute 21, 1
   5              		.eabi_attribute 23, 3
   6              		.eabi_attribute 24, 1
   7              		.eabi_attribute 25, 1
   8              		.eabi_attribute 26, 1
   9              		.eabi_attribute 30, 6
  10              		.eabi_attribute 34, 0
  11              		.eabi_attribute 18, 4
  12              		.code	16
  13              		.file	"arm_biquad_cascade_df1_fast_q15.c"
  14              		.text
  15              	.Ltext0:
  16              		.cfi_sections	.debug_frame
  17              		.section	.text.arm_biquad_cascade_df1_fast_q15,"ax",%progbits
  18              		.align	2
  19              		.global	arm_biquad_cascade_df1_fast_q15
  20              		.code	16
  21              		.thumb_func
  22              		.type	arm_biquad_cascade_df1_fast_q15, %function
  23              	arm_biquad_cascade_df1_fast_q15:
  24              	.LFB82:
  25              		.file 1 "Source\\FilteringFunctions\\arm_biquad_cascade_df1_fast_q15.c"
   1:Source\FilteringFunctions/arm_biquad_cascade_df1_fast_q15.c **** /* ----------------------------------------------------------------------
   2:Source\FilteringFunctions/arm_biquad_cascade_df1_fast_q15.c ****  * Project:      CMSIS DSP Library
   3:Source\FilteringFunctions/arm_biquad_cascade_df1_fast_q15.c ****  * Title:        arm_biquad_cascade_df1_fast_q15.c
   4:Source\FilteringFunctions/arm_biquad_cascade_df1_fast_q15.c ****  * Description:  Fast processing function for the Q15 Biquad cascade filter
   5:Source\FilteringFunctions/arm_biquad_cascade_df1_fast_q15.c ****  *
   6:Source\FilteringFunctions/arm_biquad_cascade_df1_fast_q15.c ****  * $Date:        27. January 2017
   7:Source\FilteringFunctions/arm_biquad_cascade_df1_fast_q15.c ****  * $Revision:    V.1.5.1
   8:Source\FilteringFunctions/arm_biquad_cascade_df1_fast_q15.c ****  *
   9:Source\FilteringFunctions/arm_biquad_cascade_df1_fast_q15.c ****  * Target Processor: Cortex-M cores
  10:Source\FilteringFunctions/arm_biquad_cascade_df1_fast_q15.c ****  * -------------------------------------------------------------------- */
  11:Source\FilteringFunctions/arm_biquad_cascade_df1_fast_q15.c **** /*
  12:Source\FilteringFunctions/arm_biquad_cascade_df1_fast_q15.c ****  * Copyright (C) 2010-2017 ARM Limited or its affiliates. All rights reserved.
  13:Source\FilteringFunctions/arm_biquad_cascade_df1_fast_q15.c ****  *
  14:Source\FilteringFunctions/arm_biquad_cascade_df1_fast_q15.c ****  * SPDX-License-Identifier: Apache-2.0
  15:Source\FilteringFunctions/arm_biquad_cascade_df1_fast_q15.c ****  *
  16:Source\FilteringFunctions/arm_biquad_cascade_df1_fast_q15.c ****  * Licensed under the Apache License, Version 2.0 (the License); you may
  17:Source\FilteringFunctions/arm_biquad_cascade_df1_fast_q15.c ****  * not use this file except in compliance with the License.
  18:Source\FilteringFunctions/arm_biquad_cascade_df1_fast_q15.c ****  * You may obtain a copy of the License at
  19:Source\FilteringFunctions/arm_biquad_cascade_df1_fast_q15.c ****  *
  20:Source\FilteringFunctions/arm_biquad_cascade_df1_fast_q15.c ****  * www.apache.org/licenses/LICENSE-2.0
  21:Source\FilteringFunctions/arm_biquad_cascade_df1_fast_q15.c ****  *
  22:Source\FilteringFunctions/arm_biquad_cascade_df1_fast_q15.c ****  * Unless required by applicable law or agreed to in writing, software
  23:Source\FilteringFunctions/arm_biquad_cascade_df1_fast_q15.c ****  * distributed under the License is distributed on an AS IS BASIS, WITHOUT
  24:Source\FilteringFunctions/arm_biquad_cascade_df1_fast_q15.c ****  * WARRANTIES OR CONDITIONS OF ANY KIND, either express or implied.
  25:Source\FilteringFunctions/arm_biquad_cascade_df1_fast_q15.c ****  * See the License for the specific language governing permissions and
  26:Source\FilteringFunctions/arm_biquad_cascade_df1_fast_q15.c ****  * limitations under the License.
  27:Source\FilteringFunctions/arm_biquad_cascade_df1_fast_q15.c ****  */
  28:Source\FilteringFunctions/arm_biquad_cascade_df1_fast_q15.c **** 
  29:Source\FilteringFunctions/arm_biquad_cascade_df1_fast_q15.c **** #include "arm_math.h"
  30:Source\FilteringFunctions/arm_biquad_cascade_df1_fast_q15.c **** 
  31:Source\FilteringFunctions/arm_biquad_cascade_df1_fast_q15.c **** /**
  32:Source\FilteringFunctions/arm_biquad_cascade_df1_fast_q15.c ****  * @ingroup groupFilters
ARM GAS  C:\Users\fneves\AppData\Local\Temp\ccx8ai1h.s 			page 2


  33:Source\FilteringFunctions/arm_biquad_cascade_df1_fast_q15.c ****  */
  34:Source\FilteringFunctions/arm_biquad_cascade_df1_fast_q15.c **** 
  35:Source\FilteringFunctions/arm_biquad_cascade_df1_fast_q15.c **** /**
  36:Source\FilteringFunctions/arm_biquad_cascade_df1_fast_q15.c ****  * @addtogroup BiquadCascadeDF1
  37:Source\FilteringFunctions/arm_biquad_cascade_df1_fast_q15.c ****  * @{
  38:Source\FilteringFunctions/arm_biquad_cascade_df1_fast_q15.c ****  */
  39:Source\FilteringFunctions/arm_biquad_cascade_df1_fast_q15.c **** 
  40:Source\FilteringFunctions/arm_biquad_cascade_df1_fast_q15.c **** /**
  41:Source\FilteringFunctions/arm_biquad_cascade_df1_fast_q15.c ****  * @details
  42:Source\FilteringFunctions/arm_biquad_cascade_df1_fast_q15.c ****  * @param[in]  *S points to an instance of the Q15 Biquad cascade structure.
  43:Source\FilteringFunctions/arm_biquad_cascade_df1_fast_q15.c ****  * @param[in]  *pSrc points to the block of input data.
  44:Source\FilteringFunctions/arm_biquad_cascade_df1_fast_q15.c ****  * @param[out] *pDst points to the block of output data.
  45:Source\FilteringFunctions/arm_biquad_cascade_df1_fast_q15.c ****  * @param[in]  blockSize number of samples to process per call.
  46:Source\FilteringFunctions/arm_biquad_cascade_df1_fast_q15.c ****  * @return none.
  47:Source\FilteringFunctions/arm_biquad_cascade_df1_fast_q15.c ****  *
  48:Source\FilteringFunctions/arm_biquad_cascade_df1_fast_q15.c ****  * <b>Scaling and Overflow Behavior:</b>
  49:Source\FilteringFunctions/arm_biquad_cascade_df1_fast_q15.c ****  * \par
  50:Source\FilteringFunctions/arm_biquad_cascade_df1_fast_q15.c ****  * This fast version uses a 32-bit accumulator with 2.30 format.
  51:Source\FilteringFunctions/arm_biquad_cascade_df1_fast_q15.c ****  * The accumulator maintains full precision of the intermediate multiplication results but provides
  52:Source\FilteringFunctions/arm_biquad_cascade_df1_fast_q15.c ****  * Thus, if the accumulator result overflows it wraps around and distorts the result.
  53:Source\FilteringFunctions/arm_biquad_cascade_df1_fast_q15.c ****  * In order to avoid overflows completely the input signal must be scaled down by two bits and lie 
  54:Source\FilteringFunctions/arm_biquad_cascade_df1_fast_q15.c ****  * The 2.30 accumulator is then shifted by <code>postShift</code> bits and the result truncated to 
  55:Source\FilteringFunctions/arm_biquad_cascade_df1_fast_q15.c ****  *
  56:Source\FilteringFunctions/arm_biquad_cascade_df1_fast_q15.c ****  * \par
  57:Source\FilteringFunctions/arm_biquad_cascade_df1_fast_q15.c ****  * Refer to the function <code>arm_biquad_cascade_df1_q15()</code> for a slower implementation of t
  58:Source\FilteringFunctions/arm_biquad_cascade_df1_fast_q15.c ****  * Use the function <code>arm_biquad_cascade_df1_init_q15()</code> to initialize the filter structu
  59:Source\FilteringFunctions/arm_biquad_cascade_df1_fast_q15.c ****  *
  60:Source\FilteringFunctions/arm_biquad_cascade_df1_fast_q15.c ****  */
  61:Source\FilteringFunctions/arm_biquad_cascade_df1_fast_q15.c **** 
  62:Source\FilteringFunctions/arm_biquad_cascade_df1_fast_q15.c **** void arm_biquad_cascade_df1_fast_q15(
  63:Source\FilteringFunctions/arm_biquad_cascade_df1_fast_q15.c ****   const arm_biquad_casd_df1_inst_q15 * S,
  64:Source\FilteringFunctions/arm_biquad_cascade_df1_fast_q15.c ****   q15_t * pSrc,
  65:Source\FilteringFunctions/arm_biquad_cascade_df1_fast_q15.c ****   q15_t * pDst,
  66:Source\FilteringFunctions/arm_biquad_cascade_df1_fast_q15.c ****   uint32_t blockSize)
  67:Source\FilteringFunctions/arm_biquad_cascade_df1_fast_q15.c **** {
  26              		.loc 1 67 0
  27              		.cfi_startproc
  28 0000 80B5     		push	{r7, lr}
  29              		.cfi_def_cfa_offset 8
  30              		.cfi_offset 7, -8
  31              		.cfi_offset 14, -4
  32 0002 BAB0     		sub	sp, sp, #232
  33              		.cfi_def_cfa_offset 240
  34 0004 00AF     		add	r7, sp, #0
  35              		.cfi_def_cfa_register 7
  36 0006 F860     		str	r0, [r7, #12]
  37 0008 B960     		str	r1, [r7, #8]
  38 000a 7A60     		str	r2, [r7, #4]
  39 000c 3B60     		str	r3, [r7]
  68:Source\FilteringFunctions/arm_biquad_cascade_df1_fast_q15.c ****   q15_t *pIn = pSrc;                             /*  Source pointer                               *
  40              		.loc 1 68 0
  41 000e BB68     		ldr	r3, [r7, #8]
  42 0010 FB61     		str	r3, [r7, #28]
  69:Source\FilteringFunctions/arm_biquad_cascade_df1_fast_q15.c ****   q15_t *pOut = pDst;                            /*  Destination pointer                          *
  43              		.loc 1 69 0
  44 0012 7B68     		ldr	r3, [r7, #4]
  45 0014 BB61     		str	r3, [r7, #24]
ARM GAS  C:\Users\fneves\AppData\Local\Temp\ccx8ai1h.s 			page 3


  70:Source\FilteringFunctions/arm_biquad_cascade_df1_fast_q15.c ****   q31_t in;                                      /*  Temporary variable to hold input value       *
  71:Source\FilteringFunctions/arm_biquad_cascade_df1_fast_q15.c ****   q31_t out;                                     /*  Temporary variable to hold output value      *
  72:Source\FilteringFunctions/arm_biquad_cascade_df1_fast_q15.c ****   q31_t b0;                                      /*  Temporary variable to hold bo value          *
  73:Source\FilteringFunctions/arm_biquad_cascade_df1_fast_q15.c ****   q31_t b1, a1;                                  /*  Filter coefficients                          *
  74:Source\FilteringFunctions/arm_biquad_cascade_df1_fast_q15.c ****   q31_t state_in, state_out;                     /*  Filter state variables                       *
  75:Source\FilteringFunctions/arm_biquad_cascade_df1_fast_q15.c ****   q31_t acc;                                     /*  Accumulator                                  *
  76:Source\FilteringFunctions/arm_biquad_cascade_df1_fast_q15.c ****   int32_t shift = (int32_t) (15 - S->postShift); /*  Post shift                                   *
  46              		.loc 1 76 0
  47 0016 FB68     		ldr	r3, [r7, #12]
  48 0018 1B7B     		ldrb	r3, [r3, #12]
  49 001a 5BB2     		sxtb	r3, r3
  50 001c 0F22     		mov	r2, #15
  51 001e D31A     		sub	r3, r2, r3
  52 0020 D422     		mov	r2, #212
  53 0022 BA18     		add	r2, r7, r2
  54 0024 1360     		str	r3, [r2]
  77:Source\FilteringFunctions/arm_biquad_cascade_df1_fast_q15.c ****   q15_t *pState = S->pState;                     /*  State pointer                                *
  55              		.loc 1 77 0
  56 0026 FB68     		ldr	r3, [r7, #12]
  57 0028 5B68     		ldr	r3, [r3, #4]
  58 002a 7B61     		str	r3, [r7, #20]
  78:Source\FilteringFunctions/arm_biquad_cascade_df1_fast_q15.c ****   q15_t *pCoeffs = S->pCoeffs;                   /*  Coefficient pointer                          *
  59              		.loc 1 78 0
  60 002c FB68     		ldr	r3, [r7, #12]
  61 002e 9B68     		ldr	r3, [r3, #8]
  62 0030 3B61     		str	r3, [r7, #16]
  79:Source\FilteringFunctions/arm_biquad_cascade_df1_fast_q15.c ****   uint32_t sample, stage = S->numStages;         /*  Stage loop counter                           *
  63              		.loc 1 79 0
  64 0032 FB68     		ldr	r3, [r7, #12]
  65 0034 1B78     		ldrb	r3, [r3]
  66 0036 5BB2     		sxtb	r3, r3
  67 0038 D822     		mov	r2, #216
  68 003a BA18     		add	r2, r7, r2
  69 003c 1360     		str	r3, [r2]
  70              	.L32:
  80:Source\FilteringFunctions/arm_biquad_cascade_df1_fast_q15.c **** 
  81:Source\FilteringFunctions/arm_biquad_cascade_df1_fast_q15.c **** 
  82:Source\FilteringFunctions/arm_biquad_cascade_df1_fast_q15.c **** 
  83:Source\FilteringFunctions/arm_biquad_cascade_df1_fast_q15.c ****   do
  84:Source\FilteringFunctions/arm_biquad_cascade_df1_fast_q15.c ****   {
  85:Source\FilteringFunctions/arm_biquad_cascade_df1_fast_q15.c **** 
  86:Source\FilteringFunctions/arm_biquad_cascade_df1_fast_q15.c ****     /* Read the b0 and 0 coefficients using SIMD  */
  87:Source\FilteringFunctions/arm_biquad_cascade_df1_fast_q15.c ****     b0 = *__SIMD32(pCoeffs)++;
  71              		.loc 1 87 0
  72 003e 1023     		mov	r3, #16
  73 0040 FB18     		add	r3, r7, r3
  74 0042 1A68     		ldr	r2, [r3]
  75 0044 111D     		add	r1, r2, #4
  76 0046 1960     		str	r1, [r3]
  77 0048 1368     		ldr	r3, [r2]
  78 004a D022     		mov	r2, #208
  79 004c BA18     		add	r2, r7, r2
  80 004e 1360     		str	r3, [r2]
  88:Source\FilteringFunctions/arm_biquad_cascade_df1_fast_q15.c **** 
  89:Source\FilteringFunctions/arm_biquad_cascade_df1_fast_q15.c ****     /* Read the b1 and b2 coefficients using SIMD */
  90:Source\FilteringFunctions/arm_biquad_cascade_df1_fast_q15.c ****     b1 = *__SIMD32(pCoeffs)++;
  81              		.loc 1 90 0
ARM GAS  C:\Users\fneves\AppData\Local\Temp\ccx8ai1h.s 			page 4


  82 0050 1023     		mov	r3, #16
  83 0052 FB18     		add	r3, r7, r3
  84 0054 1A68     		ldr	r2, [r3]
  85 0056 111D     		add	r1, r2, #4
  86 0058 1960     		str	r1, [r3]
  87 005a 1368     		ldr	r3, [r2]
  88 005c CC22     		mov	r2, #204
  89 005e BA18     		add	r2, r7, r2
  90 0060 1360     		str	r3, [r2]
  91:Source\FilteringFunctions/arm_biquad_cascade_df1_fast_q15.c **** 
  92:Source\FilteringFunctions/arm_biquad_cascade_df1_fast_q15.c ****     /* Read the a1 and a2 coefficients using SIMD */
  93:Source\FilteringFunctions/arm_biquad_cascade_df1_fast_q15.c ****     a1 = *__SIMD32(pCoeffs)++;
  91              		.loc 1 93 0
  92 0062 1023     		mov	r3, #16
  93 0064 FB18     		add	r3, r7, r3
  94 0066 1A68     		ldr	r2, [r3]
  95 0068 111D     		add	r1, r2, #4
  96 006a 1960     		str	r1, [r3]
  97 006c 1368     		ldr	r3, [r2]
  98 006e C822     		mov	r2, #200
  99 0070 BA18     		add	r2, r7, r2
 100 0072 1360     		str	r3, [r2]
  94:Source\FilteringFunctions/arm_biquad_cascade_df1_fast_q15.c **** 
  95:Source\FilteringFunctions/arm_biquad_cascade_df1_fast_q15.c ****     /* Read the input state values from the state buffer:  x[n-1], x[n-2] */
  96:Source\FilteringFunctions/arm_biquad_cascade_df1_fast_q15.c ****     state_in = *__SIMD32(pState)++;
 101              		.loc 1 96 0
 102 0074 1423     		mov	r3, #20
 103 0076 FB18     		add	r3, r7, r3
 104 0078 1A68     		ldr	r2, [r3]
 105 007a 111D     		add	r1, r2, #4
 106 007c 1960     		str	r1, [r3]
 107 007e 1368     		ldr	r3, [r2]
 108 0080 E422     		mov	r2, #228
 109 0082 BA18     		add	r2, r7, r2
 110 0084 1360     		str	r3, [r2]
  97:Source\FilteringFunctions/arm_biquad_cascade_df1_fast_q15.c **** 
  98:Source\FilteringFunctions/arm_biquad_cascade_df1_fast_q15.c ****     /* Read the output state values from the state buffer:  y[n-1], y[n-2] */
  99:Source\FilteringFunctions/arm_biquad_cascade_df1_fast_q15.c ****     state_out = *__SIMD32(pState)--;
 111              		.loc 1 99 0
 112 0086 1423     		mov	r3, #20
 113 0088 FB18     		add	r3, r7, r3
 114 008a 1A68     		ldr	r2, [r3]
 115 008c 111F     		sub	r1, r2, #4
 116 008e 1960     		str	r1, [r3]
 117 0090 1368     		ldr	r3, [r2]
 118 0092 E022     		mov	r2, #224
 119 0094 BA18     		add	r2, r7, r2
 120 0096 1360     		str	r3, [r2]
 100:Source\FilteringFunctions/arm_biquad_cascade_df1_fast_q15.c **** 
 101:Source\FilteringFunctions/arm_biquad_cascade_df1_fast_q15.c ****     /* Apply loop unrolling and compute 2 output values simultaneously. */
 102:Source\FilteringFunctions/arm_biquad_cascade_df1_fast_q15.c ****     /*      The variable acc hold output values that are being computed:
 103:Source\FilteringFunctions/arm_biquad_cascade_df1_fast_q15.c ****      *
 104:Source\FilteringFunctions/arm_biquad_cascade_df1_fast_q15.c ****      *    acc =  b0 * x[n] + b1 * x[n-1] + b2 * x[n-2] + a1 * y[n-1] + a2 * y[n-2]
 105:Source\FilteringFunctions/arm_biquad_cascade_df1_fast_q15.c ****      *    acc =  b0 * x[n] + b1 * x[n-1] + b2 * x[n-2] + a1 * y[n-1] + a2 * y[n-2]
 106:Source\FilteringFunctions/arm_biquad_cascade_df1_fast_q15.c ****      */
 107:Source\FilteringFunctions/arm_biquad_cascade_df1_fast_q15.c ****     sample = blockSize >> 1u;
 121              		.loc 1 107 0
ARM GAS  C:\Users\fneves\AppData\Local\Temp\ccx8ai1h.s 			page 5


 122 0098 3B68     		ldr	r3, [r7]
 123 009a 5B08     		lsr	r3, r3, #1
 124 009c DC22     		mov	r2, #220
 125 009e BA18     		add	r2, r7, r2
 126 00a0 1360     		str	r3, [r2]
 108:Source\FilteringFunctions/arm_biquad_cascade_df1_fast_q15.c **** 
 109:Source\FilteringFunctions/arm_biquad_cascade_df1_fast_q15.c ****     /* First part of the processing with loop unrolling.  Compute 2 outputs at a time.
 110:Source\FilteringFunctions/arm_biquad_cascade_df1_fast_q15.c ****      ** a second loop below computes the remaining 1 sample. */
 111:Source\FilteringFunctions/arm_biquad_cascade_df1_fast_q15.c ****     while (sample > 0u)
 127              		.loc 1 111 0
 128 00a2 D1E1     		b	.L2
 129              	.L21:
 112:Source\FilteringFunctions/arm_biquad_cascade_df1_fast_q15.c ****     {
 113:Source\FilteringFunctions/arm_biquad_cascade_df1_fast_q15.c **** 
 114:Source\FilteringFunctions/arm_biquad_cascade_df1_fast_q15.c ****       /* Read the input */
 115:Source\FilteringFunctions/arm_biquad_cascade_df1_fast_q15.c ****       in = *__SIMD32(pIn)++;
 130              		.loc 1 115 0
 131 00a4 1C23     		mov	r3, #28
 132 00a6 FB18     		add	r3, r7, r3
 133 00a8 1A68     		ldr	r2, [r3]
 134 00aa 111D     		add	r1, r2, #4
 135 00ac 1960     		str	r1, [r3]
 136 00ae 1368     		ldr	r3, [r2]
 137 00b0 C422     		mov	r2, #196
 138 00b2 BA18     		add	r2, r7, r2
 139 00b4 1360     		str	r3, [r2]
 116:Source\FilteringFunctions/arm_biquad_cascade_df1_fast_q15.c **** 
 117:Source\FilteringFunctions/arm_biquad_cascade_df1_fast_q15.c ****       /* out =  b0 * x[n] + 0 * 0 */
 118:Source\FilteringFunctions/arm_biquad_cascade_df1_fast_q15.c ****       out = __SMUAD(b0, in);
 140              		.loc 1 118 0
 141 00b6 D023     		mov	r3, #208
 142 00b8 FB18     		add	r3, r7, r3
 143 00ba 1A68     		ldr	r2, [r3]
 144 00bc C423     		mov	r3, #196
 145 00be FB18     		add	r3, r7, r3
 146 00c0 1B68     		ldr	r3, [r3]
 147 00c2 B821     		mov	r1, #184
 148 00c4 7918     		add	r1, r7, r1
 149 00c6 0A60     		str	r2, [r1]
 150 00c8 B422     		mov	r2, #180
 151 00ca BA18     		add	r2, r7, r2
 152 00cc 1360     		str	r3, [r2]
 153              	.LBB26:
 154              	.LBB27:
 155              		.file 2 ".\\Include/arm_math.h"
   1:.\Include/arm_math.h **** /* ----------------------------------------------------------------------
   2:.\Include/arm_math.h ****  * Project:      CMSIS DSP Library
   3:.\Include/arm_math.h ****  * Title:        arm_math.h
   4:.\Include/arm_math.h ****  * Description:  Public header file for CMSIS DSP Library
   5:.\Include/arm_math.h ****  *
   6:.\Include/arm_math.h ****  * $Date:        27. January 2017
   7:.\Include/arm_math.h ****  * $Revision:    V.1.5.1
   8:.\Include/arm_math.h ****  *
   9:.\Include/arm_math.h ****  * Target Processor: Cortex-M cores
  10:.\Include/arm_math.h ****  * -------------------------------------------------------------------- */
  11:.\Include/arm_math.h **** /*
  12:.\Include/arm_math.h ****  * Copyright (C) 2010-2017 ARM Limited or its affiliates. All rights reserved.
ARM GAS  C:\Users\fneves\AppData\Local\Temp\ccx8ai1h.s 			page 6


  13:.\Include/arm_math.h ****  *
  14:.\Include/arm_math.h ****  * SPDX-License-Identifier: Apache-2.0
  15:.\Include/arm_math.h ****  *
  16:.\Include/arm_math.h ****  * Licensed under the Apache License, Version 2.0 (the License); you may
  17:.\Include/arm_math.h ****  * not use this file except in compliance with the License.
  18:.\Include/arm_math.h ****  * You may obtain a copy of the License at
  19:.\Include/arm_math.h ****  *
  20:.\Include/arm_math.h ****  * www.apache.org/licenses/LICENSE-2.0
  21:.\Include/arm_math.h ****  *
  22:.\Include/arm_math.h ****  * Unless required by applicable law or agreed to in writing, software
  23:.\Include/arm_math.h ****  * distributed under the License is distributed on an AS IS BASIS, WITHOUT
  24:.\Include/arm_math.h ****  * WARRANTIES OR CONDITIONS OF ANY KIND, either express or implied.
  25:.\Include/arm_math.h ****  * See the License for the specific language governing permissions and
  26:.\Include/arm_math.h ****  * limitations under the License.
  27:.\Include/arm_math.h ****  */
  28:.\Include/arm_math.h **** 
  29:.\Include/arm_math.h **** /**
  30:.\Include/arm_math.h ****    \mainpage CMSIS DSP Software Library
  31:.\Include/arm_math.h ****    *
  32:.\Include/arm_math.h ****    * Introduction
  33:.\Include/arm_math.h ****    * ------------
  34:.\Include/arm_math.h ****    *
  35:.\Include/arm_math.h ****    * This user manual describes the CMSIS DSP software library,
  36:.\Include/arm_math.h ****    * a suite of common signal processing functions for use on Cortex-M processor based devices.
  37:.\Include/arm_math.h ****    *
  38:.\Include/arm_math.h ****    * The library is divided into a number of functions each covering a specific category:
  39:.\Include/arm_math.h ****    * - Basic math functions
  40:.\Include/arm_math.h ****    * - Fast math functions
  41:.\Include/arm_math.h ****    * - Complex math functions
  42:.\Include/arm_math.h ****    * - Filters
  43:.\Include/arm_math.h ****    * - Matrix functions
  44:.\Include/arm_math.h ****    * - Transforms
  45:.\Include/arm_math.h ****    * - Motor control functions
  46:.\Include/arm_math.h ****    * - Statistical functions
  47:.\Include/arm_math.h ****    * - Support functions
  48:.\Include/arm_math.h ****    * - Interpolation functions
  49:.\Include/arm_math.h ****    *
  50:.\Include/arm_math.h ****    * The library has separate functions for operating on 8-bit integers, 16-bit integers,
  51:.\Include/arm_math.h ****    * 32-bit integer and 32-bit floating-point values.
  52:.\Include/arm_math.h ****    *
  53:.\Include/arm_math.h ****    * Using the Library
  54:.\Include/arm_math.h ****    * ------------
  55:.\Include/arm_math.h ****    *
  56:.\Include/arm_math.h ****    * The library installer contains prebuilt versions of the libraries in the <code>Lib</code> fold
  57:.\Include/arm_math.h ****    * - arm_cortexM7lfdp_math.lib (Cortex-M7, Little endian, Double Precision Floating Point Unit)
  58:.\Include/arm_math.h ****    * - arm_cortexM7bfdp_math.lib (Cortex-M7, Big endian, Double Precision Floating Point Unit)
  59:.\Include/arm_math.h ****    * - arm_cortexM7lfsp_math.lib (Cortex-M7, Little endian, Single Precision Floating Point Unit)
  60:.\Include/arm_math.h ****    * - arm_cortexM7bfsp_math.lib (Cortex-M7, Big endian and Single Precision Floating Point Unit on
  61:.\Include/arm_math.h ****    * - arm_cortexM7l_math.lib (Cortex-M7, Little endian)
  62:.\Include/arm_math.h ****    * - arm_cortexM7b_math.lib (Cortex-M7, Big endian)
  63:.\Include/arm_math.h ****    * - arm_cortexM4lf_math.lib (Cortex-M4, Little endian, Floating Point Unit)
  64:.\Include/arm_math.h ****    * - arm_cortexM4bf_math.lib (Cortex-M4, Big endian, Floating Point Unit)
  65:.\Include/arm_math.h ****    * - arm_cortexM4l_math.lib (Cortex-M4, Little endian)
  66:.\Include/arm_math.h ****    * - arm_cortexM4b_math.lib (Cortex-M4, Big endian)
  67:.\Include/arm_math.h ****    * - arm_cortexM3l_math.lib (Cortex-M3, Little endian)
  68:.\Include/arm_math.h ****    * - arm_cortexM3b_math.lib (Cortex-M3, Big endian)
  69:.\Include/arm_math.h ****    * - arm_cortexM0l_math.lib (Cortex-M0 / Cortex-M0+, Little endian)
ARM GAS  C:\Users\fneves\AppData\Local\Temp\ccx8ai1h.s 			page 7


  70:.\Include/arm_math.h ****    * - arm_cortexM0b_math.lib (Cortex-M0 / Cortex-M0+, Big endian)
  71:.\Include/arm_math.h ****    * - arm_ARMv8MBLl_math.lib (ARMv8M Baseline, Little endian)
  72:.\Include/arm_math.h ****    * - arm_ARMv8MMLl_math.lib (ARMv8M Mainline, Little endian)
  73:.\Include/arm_math.h ****    * - arm_ARMv8MMLlfsp_math.lib (ARMv8M Mainline, Little endian, Single Precision Floating Point U
  74:.\Include/arm_math.h ****    * - arm_ARMv8MMLld_math.lib (ARMv8M Mainline, Little endian, DSP instructions)
  75:.\Include/arm_math.h ****    * - arm_ARMv8MMLldfsp_math.lib (ARMv8M Mainline, Little endian, DSP instructions, Single Precisi
  76:.\Include/arm_math.h ****    *
  77:.\Include/arm_math.h ****    * The library functions are declared in the public file <code>arm_math.h</code> which is placed 
  78:.\Include/arm_math.h ****    * Simply include this file and link the appropriate library in the application and begin calling
  79:.\Include/arm_math.h ****    * public header file <code> arm_math.h</code> for Cortex-M cores with little endian and big endi
  80:.\Include/arm_math.h ****    * Define the appropriate pre processor MACRO ARM_MATH_CM7 or ARM_MATH_CM4 or  ARM_MATH_CM3 or
  81:.\Include/arm_math.h ****    * ARM_MATH_CM0 or ARM_MATH_CM0PLUS depending on the target processor in the application.
  82:.\Include/arm_math.h ****    * For ARMv8M cores define pre processor MACRO ARM_MATH_ARMV8MBL or ARM_MATH_ARMV8MML.
  83:.\Include/arm_math.h ****    * Set Pre processor MACRO __DSP_PRESENT if ARMv8M Mainline core supports DSP instructions.
  84:.\Include/arm_math.h ****    * 
  85:.\Include/arm_math.h ****    *
  86:.\Include/arm_math.h ****    * Examples
  87:.\Include/arm_math.h ****    * --------
  88:.\Include/arm_math.h ****    *
  89:.\Include/arm_math.h ****    * The library ships with a number of examples which demonstrate how to use the library functions
  90:.\Include/arm_math.h ****    *
  91:.\Include/arm_math.h ****    * Toolchain Support
  92:.\Include/arm_math.h ****    * ------------
  93:.\Include/arm_math.h ****    *
  94:.\Include/arm_math.h ****    * The library has been developed and tested with MDK-ARM version 5.14.0.0
  95:.\Include/arm_math.h ****    * The library is being tested in GCC and IAR toolchains and updates on this activity will be mad
  96:.\Include/arm_math.h ****    *
  97:.\Include/arm_math.h ****    * Building the Library
  98:.\Include/arm_math.h ****    * ------------
  99:.\Include/arm_math.h ****    *
 100:.\Include/arm_math.h ****    * The library installer contains a project file to re build libraries on MDK-ARM Tool chain in t
 101:.\Include/arm_math.h ****    * - arm_cortexM_math.uvprojx
 102:.\Include/arm_math.h ****    *
 103:.\Include/arm_math.h ****    *
 104:.\Include/arm_math.h ****    * The libraries can be built by opening the arm_cortexM_math.uvprojx project in MDK-ARM, selecti
 105:.\Include/arm_math.h ****    *
 106:.\Include/arm_math.h ****    * Pre-processor Macros
 107:.\Include/arm_math.h ****    * ------------
 108:.\Include/arm_math.h ****    *
 109:.\Include/arm_math.h ****    * Each library project have differant pre-processor macros.
 110:.\Include/arm_math.h ****    *
 111:.\Include/arm_math.h ****    * - UNALIGNED_SUPPORT_DISABLE:
 112:.\Include/arm_math.h ****    *
 113:.\Include/arm_math.h ****    * Define macro UNALIGNED_SUPPORT_DISABLE, If the silicon does not support unaligned memory acces
 114:.\Include/arm_math.h ****    *
 115:.\Include/arm_math.h ****    * - ARM_MATH_BIG_ENDIAN:
 116:.\Include/arm_math.h ****    *
 117:.\Include/arm_math.h ****    * Define macro ARM_MATH_BIG_ENDIAN to build the library for big endian targets. By default libra
 118:.\Include/arm_math.h ****    *
 119:.\Include/arm_math.h ****    * - ARM_MATH_MATRIX_CHECK:
 120:.\Include/arm_math.h ****    *
 121:.\Include/arm_math.h ****    * Define macro ARM_MATH_MATRIX_CHECK for checking on the input and output sizes of matrices
 122:.\Include/arm_math.h ****    *
 123:.\Include/arm_math.h ****    * - ARM_MATH_ROUNDING:
 124:.\Include/arm_math.h ****    *
 125:.\Include/arm_math.h ****    * Define macro ARM_MATH_ROUNDING for rounding on support functions
 126:.\Include/arm_math.h ****    *
ARM GAS  C:\Users\fneves\AppData\Local\Temp\ccx8ai1h.s 			page 8


 127:.\Include/arm_math.h ****    * - ARM_MATH_CMx:
 128:.\Include/arm_math.h ****    *
 129:.\Include/arm_math.h ****    * Define macro ARM_MATH_CM4 for building the library on Cortex-M4 target, ARM_MATH_CM3 for build
 130:.\Include/arm_math.h ****    * and ARM_MATH_CM0 for building library on Cortex-M0 target, ARM_MATH_CM0PLUS for building libra
 131:.\Include/arm_math.h ****    * ARM_MATH_CM7 for building the library on cortex-M7.
 132:.\Include/arm_math.h ****    *
 133:.\Include/arm_math.h ****    * - ARM_MATH_ARMV8MxL:
 134:.\Include/arm_math.h ****    *
 135:.\Include/arm_math.h ****    * Define macro ARM_MATH_ARMV8MBL for building the library on ARMv8M Baseline target, ARM_MATH_AR
 136:.\Include/arm_math.h ****    * on ARMv8M Mainline target.
 137:.\Include/arm_math.h ****    *
 138:.\Include/arm_math.h ****    * - __FPU_PRESENT:
 139:.\Include/arm_math.h ****    *
 140:.\Include/arm_math.h ****    * Initialize macro __FPU_PRESENT = 1 when building on FPU supported Targets. Enable this macro f
 141:.\Include/arm_math.h ****    *
 142:.\Include/arm_math.h ****    * - __DSP_PRESENT:
 143:.\Include/arm_math.h ****    *
 144:.\Include/arm_math.h ****    * Initialize macro __DSP_PRESENT = 1 when ARMv8M Mainline core supports DSP instructions.
 145:.\Include/arm_math.h ****    *
 146:.\Include/arm_math.h ****    * <hr>
 147:.\Include/arm_math.h ****    * CMSIS-DSP in ARM::CMSIS Pack
 148:.\Include/arm_math.h ****    * -----------------------------
 149:.\Include/arm_math.h ****    *
 150:.\Include/arm_math.h ****    * The following files relevant to CMSIS-DSP are present in the <b>ARM::CMSIS</b> Pack directorie
 151:.\Include/arm_math.h ****    * |File/Folder                   |Content                                                       
 152:.\Include/arm_math.h ****    * |------------------------------|--------------------------------------------------------------
 153:.\Include/arm_math.h ****    * |\b CMSIS\\Documentation\\DSP  | This documentation                                           
 154:.\Include/arm_math.h ****    * |\b CMSIS\\DSP_Lib             | Software license agreement (license.txt)                     
 155:.\Include/arm_math.h ****    * |\b CMSIS\\DSP_Lib\\Examples   | Example projects demonstrating the usage of the library funct
 156:.\Include/arm_math.h ****    * |\b CMSIS\\DSP_Lib\\Source     | Source files for rebuilding the library                      
 157:.\Include/arm_math.h ****    *
 158:.\Include/arm_math.h ****    * <hr>
 159:.\Include/arm_math.h ****    * Revision History of CMSIS-DSP
 160:.\Include/arm_math.h ****    * ------------
 161:.\Include/arm_math.h ****    * Please refer to \ref ChangeLog_pg.
 162:.\Include/arm_math.h ****    *
 163:.\Include/arm_math.h ****    * Copyright Notice
 164:.\Include/arm_math.h ****    * ------------
 165:.\Include/arm_math.h ****    *
 166:.\Include/arm_math.h ****    * Copyright (C) 2010-2015 ARM Limited. All rights reserved.
 167:.\Include/arm_math.h ****    */
 168:.\Include/arm_math.h **** 
 169:.\Include/arm_math.h **** 
 170:.\Include/arm_math.h **** /**
 171:.\Include/arm_math.h ****  * @defgroup groupMath Basic Math Functions
 172:.\Include/arm_math.h ****  */
 173:.\Include/arm_math.h **** 
 174:.\Include/arm_math.h **** /**
 175:.\Include/arm_math.h ****  * @defgroup groupFastMath Fast Math Functions
 176:.\Include/arm_math.h ****  * This set of functions provides a fast approximation to sine, cosine, and square root.
 177:.\Include/arm_math.h ****  * As compared to most of the other functions in the CMSIS math library, the fast math functions
 178:.\Include/arm_math.h ****  * operate on individual values and not arrays.
 179:.\Include/arm_math.h ****  * There are separate functions for Q15, Q31, and floating-point data.
 180:.\Include/arm_math.h ****  *
 181:.\Include/arm_math.h ****  */
 182:.\Include/arm_math.h **** 
 183:.\Include/arm_math.h **** /**
ARM GAS  C:\Users\fneves\AppData\Local\Temp\ccx8ai1h.s 			page 9


 184:.\Include/arm_math.h ****  * @defgroup groupCmplxMath Complex Math Functions
 185:.\Include/arm_math.h ****  * This set of functions operates on complex data vectors.
 186:.\Include/arm_math.h ****  * The data in the complex arrays is stored in an interleaved fashion
 187:.\Include/arm_math.h ****  * (real, imag, real, imag, ...).
 188:.\Include/arm_math.h ****  * In the API functions, the number of samples in a complex array refers
 189:.\Include/arm_math.h ****  * to the number of complex values; the array contains twice this number of
 190:.\Include/arm_math.h ****  * real values.
 191:.\Include/arm_math.h ****  */
 192:.\Include/arm_math.h **** 
 193:.\Include/arm_math.h **** /**
 194:.\Include/arm_math.h ****  * @defgroup groupFilters Filtering Functions
 195:.\Include/arm_math.h ****  */
 196:.\Include/arm_math.h **** 
 197:.\Include/arm_math.h **** /**
 198:.\Include/arm_math.h ****  * @defgroup groupMatrix Matrix Functions
 199:.\Include/arm_math.h ****  *
 200:.\Include/arm_math.h ****  * This set of functions provides basic matrix math operations.
 201:.\Include/arm_math.h ****  * The functions operate on matrix data structures.  For example,
 202:.\Include/arm_math.h ****  * the type
 203:.\Include/arm_math.h ****  * definition for the floating-point matrix structure is shown
 204:.\Include/arm_math.h ****  * below:
 205:.\Include/arm_math.h ****  * <pre>
 206:.\Include/arm_math.h ****  *     typedef struct
 207:.\Include/arm_math.h ****  *     {
 208:.\Include/arm_math.h ****  *       uint16_t numRows;     // number of rows of the matrix.
 209:.\Include/arm_math.h ****  *       uint16_t numCols;     // number of columns of the matrix.
 210:.\Include/arm_math.h ****  *       float32_t *pData;     // points to the data of the matrix.
 211:.\Include/arm_math.h ****  *     } arm_matrix_instance_f32;
 212:.\Include/arm_math.h ****  * </pre>
 213:.\Include/arm_math.h ****  * There are similar definitions for Q15 and Q31 data types.
 214:.\Include/arm_math.h ****  *
 215:.\Include/arm_math.h ****  * The structure specifies the size of the matrix and then points to
 216:.\Include/arm_math.h ****  * an array of data.  The array is of size <code>numRows X numCols</code>
 217:.\Include/arm_math.h ****  * and the values are arranged in row order.  That is, the
 218:.\Include/arm_math.h ****  * matrix element (i, j) is stored at:
 219:.\Include/arm_math.h ****  * <pre>
 220:.\Include/arm_math.h ****  *     pData[i*numCols + j]
 221:.\Include/arm_math.h ****  * </pre>
 222:.\Include/arm_math.h ****  *
 223:.\Include/arm_math.h ****  * \par Init Functions
 224:.\Include/arm_math.h ****  * There is an associated initialization function for each type of matrix
 225:.\Include/arm_math.h ****  * data structure.
 226:.\Include/arm_math.h ****  * The initialization function sets the values of the internal structure fields.
 227:.\Include/arm_math.h ****  * Refer to the function <code>arm_mat_init_f32()</code>, <code>arm_mat_init_q31()</code>
 228:.\Include/arm_math.h ****  * and <code>arm_mat_init_q15()</code> for floating-point, Q31 and Q15 types,  respectively.
 229:.\Include/arm_math.h ****  *
 230:.\Include/arm_math.h ****  * \par
 231:.\Include/arm_math.h ****  * Use of the initialization function is optional. However, if initialization function is used
 232:.\Include/arm_math.h ****  * then the instance structure cannot be placed into a const data section.
 233:.\Include/arm_math.h ****  * To place the instance structure in a const data
 234:.\Include/arm_math.h ****  * section, manually initialize the data structure.  For example:
 235:.\Include/arm_math.h ****  * <pre>
 236:.\Include/arm_math.h ****  * <code>arm_matrix_instance_f32 S = {nRows, nColumns, pData};</code>
 237:.\Include/arm_math.h ****  * <code>arm_matrix_instance_q31 S = {nRows, nColumns, pData};</code>
 238:.\Include/arm_math.h ****  * <code>arm_matrix_instance_q15 S = {nRows, nColumns, pData};</code>
 239:.\Include/arm_math.h ****  * </pre>
 240:.\Include/arm_math.h ****  * where <code>nRows</code> specifies the number of rows, <code>nColumns</code>
ARM GAS  C:\Users\fneves\AppData\Local\Temp\ccx8ai1h.s 			page 10


 241:.\Include/arm_math.h ****  * specifies the number of columns, and <code>pData</code> points to the
 242:.\Include/arm_math.h ****  * data array.
 243:.\Include/arm_math.h ****  *
 244:.\Include/arm_math.h ****  * \par Size Checking
 245:.\Include/arm_math.h ****  * By default all of the matrix functions perform size checking on the input and
 246:.\Include/arm_math.h ****  * output matrices.  For example, the matrix addition function verifies that the
 247:.\Include/arm_math.h ****  * two input matrices and the output matrix all have the same number of rows and
 248:.\Include/arm_math.h ****  * columns.  If the size check fails the functions return:
 249:.\Include/arm_math.h ****  * <pre>
 250:.\Include/arm_math.h ****  *     ARM_MATH_SIZE_MISMATCH
 251:.\Include/arm_math.h ****  * </pre>
 252:.\Include/arm_math.h ****  * Otherwise the functions return
 253:.\Include/arm_math.h ****  * <pre>
 254:.\Include/arm_math.h ****  *     ARM_MATH_SUCCESS
 255:.\Include/arm_math.h ****  * </pre>
 256:.\Include/arm_math.h ****  * There is some overhead associated with this matrix size checking.
 257:.\Include/arm_math.h ****  * The matrix size checking is enabled via the \#define
 258:.\Include/arm_math.h ****  * <pre>
 259:.\Include/arm_math.h ****  *     ARM_MATH_MATRIX_CHECK
 260:.\Include/arm_math.h ****  * </pre>
 261:.\Include/arm_math.h ****  * within the library project settings.  By default this macro is defined
 262:.\Include/arm_math.h ****  * and size checking is enabled.  By changing the project settings and
 263:.\Include/arm_math.h ****  * undefining this macro size checking is eliminated and the functions
 264:.\Include/arm_math.h ****  * run a bit faster.  With size checking disabled the functions always
 265:.\Include/arm_math.h ****  * return <code>ARM_MATH_SUCCESS</code>.
 266:.\Include/arm_math.h ****  */
 267:.\Include/arm_math.h **** 
 268:.\Include/arm_math.h **** /**
 269:.\Include/arm_math.h ****  * @defgroup groupTransforms Transform Functions
 270:.\Include/arm_math.h ****  */
 271:.\Include/arm_math.h **** 
 272:.\Include/arm_math.h **** /**
 273:.\Include/arm_math.h ****  * @defgroup groupController Controller Functions
 274:.\Include/arm_math.h ****  */
 275:.\Include/arm_math.h **** 
 276:.\Include/arm_math.h **** /**
 277:.\Include/arm_math.h ****  * @defgroup groupStats Statistics Functions
 278:.\Include/arm_math.h ****  */
 279:.\Include/arm_math.h **** /**
 280:.\Include/arm_math.h ****  * @defgroup groupSupport Support Functions
 281:.\Include/arm_math.h ****  */
 282:.\Include/arm_math.h **** 
 283:.\Include/arm_math.h **** /**
 284:.\Include/arm_math.h ****  * @defgroup groupInterpolation Interpolation Functions
 285:.\Include/arm_math.h ****  * These functions perform 1- and 2-dimensional interpolation of data.
 286:.\Include/arm_math.h ****  * Linear interpolation is used for 1-dimensional data and
 287:.\Include/arm_math.h ****  * bilinear interpolation is used for 2-dimensional data.
 288:.\Include/arm_math.h ****  */
 289:.\Include/arm_math.h **** 
 290:.\Include/arm_math.h **** /**
 291:.\Include/arm_math.h ****  * @defgroup groupExamples Examples
 292:.\Include/arm_math.h ****  */
 293:.\Include/arm_math.h **** #ifndef _ARM_MATH_H
 294:.\Include/arm_math.h **** #define _ARM_MATH_H
 295:.\Include/arm_math.h **** 
 296:.\Include/arm_math.h **** /* ignore some GCC warnings */
 297:.\Include/arm_math.h **** #if defined ( __GNUC__ )
ARM GAS  C:\Users\fneves\AppData\Local\Temp\ccx8ai1h.s 			page 11


 298:.\Include/arm_math.h **** #pragma GCC diagnostic push
 299:.\Include/arm_math.h **** #pragma GCC diagnostic ignored "-Wsign-conversion"
 300:.\Include/arm_math.h **** #pragma GCC diagnostic ignored "-Wconversion"
 301:.\Include/arm_math.h **** #pragma GCC diagnostic ignored "-Wunused-parameter"
 302:.\Include/arm_math.h **** #endif
 303:.\Include/arm_math.h **** 
 304:.\Include/arm_math.h **** #define __CMSIS_GENERIC         /* disable NVIC and Systick functions */
 305:.\Include/arm_math.h **** 
 306:.\Include/arm_math.h **** #if defined(ARM_MATH_CM7)
 307:.\Include/arm_math.h ****   #include "core_cm7.h"
 308:.\Include/arm_math.h ****   #define ARM_MATH_DSP
 309:.\Include/arm_math.h **** #elif defined (ARM_MATH_CM4)
 310:.\Include/arm_math.h ****   #include "core_cm4.h"
 311:.\Include/arm_math.h ****   #define ARM_MATH_DSP
 312:.\Include/arm_math.h **** #elif defined (ARM_MATH_CM3)
 313:.\Include/arm_math.h ****   #include "core_cm3.h"
 314:.\Include/arm_math.h **** #elif defined (ARM_MATH_CM0)
 315:.\Include/arm_math.h ****   #include "core_cm0.h"
 316:.\Include/arm_math.h ****   #define ARM_MATH_CM0_FAMILY
 317:.\Include/arm_math.h **** #elif defined (ARM_MATH_CM0PLUS)
 318:.\Include/arm_math.h ****   #include "core_cm0plus.h"
 319:.\Include/arm_math.h ****   #define ARM_MATH_CM0_FAMILY
 320:.\Include/arm_math.h **** #elif defined (ARM_MATH_ARMV8MBL)
 321:.\Include/arm_math.h ****   #include "core_armv8mbl.h"
 322:.\Include/arm_math.h ****   #define ARM_MATH_CM0_FAMILY
 323:.\Include/arm_math.h **** #elif defined (ARM_MATH_ARMV8MML)
 324:.\Include/arm_math.h ****   #include "core_armv8mml.h"
 325:.\Include/arm_math.h ****   #if (defined (__DSP_PRESENT) && (__DSP_PRESENT == 1))
 326:.\Include/arm_math.h ****     #define ARM_MATH_DSP
 327:.\Include/arm_math.h ****   #endif
 328:.\Include/arm_math.h **** #else
 329:.\Include/arm_math.h ****   #error "Define according the used Cortex core ARM_MATH_CM7, ARM_MATH_CM4, ARM_MATH_CM3, ARM_MATH_
 330:.\Include/arm_math.h **** #endif
 331:.\Include/arm_math.h **** 
 332:.\Include/arm_math.h **** #undef  __CMSIS_GENERIC         /* enable NVIC and Systick functions */
 333:.\Include/arm_math.h **** #include "string.h"
 334:.\Include/arm_math.h **** #include "math.h"
 335:.\Include/arm_math.h **** #ifdef   __cplusplus
 336:.\Include/arm_math.h **** extern "C"
 337:.\Include/arm_math.h **** {
 338:.\Include/arm_math.h **** #endif
 339:.\Include/arm_math.h **** 
 340:.\Include/arm_math.h **** 
 341:.\Include/arm_math.h ****   /**
 342:.\Include/arm_math.h ****    * @brief Macros required for reciprocal calculation in Normalized LMS
 343:.\Include/arm_math.h ****    */
 344:.\Include/arm_math.h **** 
 345:.\Include/arm_math.h **** #define DELTA_Q31          (0x100)
 346:.\Include/arm_math.h **** #define DELTA_Q15          0x5
 347:.\Include/arm_math.h **** #define INDEX_MASK         0x0000003F
 348:.\Include/arm_math.h **** #ifndef PI
 349:.\Include/arm_math.h ****   #define PI               3.14159265358979f
 350:.\Include/arm_math.h **** #endif
 351:.\Include/arm_math.h **** 
 352:.\Include/arm_math.h ****   /**
 353:.\Include/arm_math.h ****    * @brief Macros required for SINE and COSINE Fast math approximations
 354:.\Include/arm_math.h ****    */
ARM GAS  C:\Users\fneves\AppData\Local\Temp\ccx8ai1h.s 			page 12


 355:.\Include/arm_math.h **** 
 356:.\Include/arm_math.h **** #define FAST_MATH_TABLE_SIZE  512
 357:.\Include/arm_math.h **** #define FAST_MATH_Q31_SHIFT   (32 - 10)
 358:.\Include/arm_math.h **** #define FAST_MATH_Q15_SHIFT   (16 - 10)
 359:.\Include/arm_math.h **** #define CONTROLLER_Q31_SHIFT  (32 - 9)
 360:.\Include/arm_math.h **** #define TABLE_SPACING_Q31     0x400000
 361:.\Include/arm_math.h **** #define TABLE_SPACING_Q15     0x80
 362:.\Include/arm_math.h **** 
 363:.\Include/arm_math.h ****   /**
 364:.\Include/arm_math.h ****    * @brief Macros required for SINE and COSINE Controller functions
 365:.\Include/arm_math.h ****    */
 366:.\Include/arm_math.h ****   /* 1.31(q31) Fixed value of 2/360 */
 367:.\Include/arm_math.h ****   /* -1 to +1 is divided into 360 values so total spacing is (2/360) */
 368:.\Include/arm_math.h **** #define INPUT_SPACING         0xB60B61
 369:.\Include/arm_math.h **** 
 370:.\Include/arm_math.h ****   /**
 371:.\Include/arm_math.h ****    * @brief Macro for Unaligned Support
 372:.\Include/arm_math.h ****    */
 373:.\Include/arm_math.h **** #ifndef UNALIGNED_SUPPORT_DISABLE
 374:.\Include/arm_math.h ****     #define ALIGN4
 375:.\Include/arm_math.h **** #else
 376:.\Include/arm_math.h ****   #if defined  (__GNUC__)
 377:.\Include/arm_math.h ****     #define ALIGN4 __attribute__((aligned(4)))
 378:.\Include/arm_math.h ****   #else
 379:.\Include/arm_math.h ****     #define ALIGN4 __align(4)
 380:.\Include/arm_math.h ****   #endif
 381:.\Include/arm_math.h **** #endif   /* #ifndef UNALIGNED_SUPPORT_DISABLE */
 382:.\Include/arm_math.h **** 
 383:.\Include/arm_math.h ****   /**
 384:.\Include/arm_math.h ****    * @brief Error status returned by some functions in the library.
 385:.\Include/arm_math.h ****    */
 386:.\Include/arm_math.h **** 
 387:.\Include/arm_math.h ****   typedef enum
 388:.\Include/arm_math.h ****   {
 389:.\Include/arm_math.h ****     ARM_MATH_SUCCESS = 0,                /**< No error */
 390:.\Include/arm_math.h ****     ARM_MATH_ARGUMENT_ERROR = -1,        /**< One or more arguments are incorrect */
 391:.\Include/arm_math.h ****     ARM_MATH_LENGTH_ERROR = -2,          /**< Length of data buffer is incorrect */
 392:.\Include/arm_math.h ****     ARM_MATH_SIZE_MISMATCH = -3,         /**< Size of matrices is not compatible with the operation
 393:.\Include/arm_math.h ****     ARM_MATH_NANINF = -4,                /**< Not-a-number (NaN) or infinity is generated */
 394:.\Include/arm_math.h ****     ARM_MATH_SINGULAR = -5,              /**< Generated by matrix inversion if the input matrix is 
 395:.\Include/arm_math.h ****     ARM_MATH_TEST_FAILURE = -6           /**< Test Failed  */
 396:.\Include/arm_math.h ****   } arm_status;
 397:.\Include/arm_math.h **** 
 398:.\Include/arm_math.h ****   /**
 399:.\Include/arm_math.h ****    * @brief 8-bit fractional data type in 1.7 format.
 400:.\Include/arm_math.h ****    */
 401:.\Include/arm_math.h ****   typedef int8_t q7_t;
 402:.\Include/arm_math.h **** 
 403:.\Include/arm_math.h ****   /**
 404:.\Include/arm_math.h ****    * @brief 16-bit fractional data type in 1.15 format.
 405:.\Include/arm_math.h ****    */
 406:.\Include/arm_math.h ****   typedef int16_t q15_t;
 407:.\Include/arm_math.h **** 
 408:.\Include/arm_math.h ****   /**
 409:.\Include/arm_math.h ****    * @brief 32-bit fractional data type in 1.31 format.
 410:.\Include/arm_math.h ****    */
 411:.\Include/arm_math.h ****   typedef int32_t q31_t;
ARM GAS  C:\Users\fneves\AppData\Local\Temp\ccx8ai1h.s 			page 13


 412:.\Include/arm_math.h **** 
 413:.\Include/arm_math.h ****   /**
 414:.\Include/arm_math.h ****    * @brief 64-bit fractional data type in 1.63 format.
 415:.\Include/arm_math.h ****    */
 416:.\Include/arm_math.h ****   typedef int64_t q63_t;
 417:.\Include/arm_math.h **** 
 418:.\Include/arm_math.h ****   /**
 419:.\Include/arm_math.h ****    * @brief 32-bit floating-point type definition.
 420:.\Include/arm_math.h ****    */
 421:.\Include/arm_math.h ****   typedef float float32_t;
 422:.\Include/arm_math.h **** 
 423:.\Include/arm_math.h ****   /**
 424:.\Include/arm_math.h ****    * @brief 64-bit floating-point type definition.
 425:.\Include/arm_math.h ****    */
 426:.\Include/arm_math.h ****   typedef double float64_t;
 427:.\Include/arm_math.h **** 
 428:.\Include/arm_math.h ****   /**
 429:.\Include/arm_math.h ****    * @brief definition to read/write two 16 bit values.
 430:.\Include/arm_math.h ****    */
 431:.\Include/arm_math.h **** #if   defined ( __CC_ARM )
 432:.\Include/arm_math.h ****   #define __SIMD32_TYPE int32_t __packed
 433:.\Include/arm_math.h ****   #define CMSIS_UNUSED __attribute__((unused))
 434:.\Include/arm_math.h ****   #define CMSIS_INLINE __attribute__((always_inline))
 435:.\Include/arm_math.h **** 
 436:.\Include/arm_math.h **** #elif defined ( __ARMCC_VERSION ) && ( __ARMCC_VERSION >= 6010050 )
 437:.\Include/arm_math.h ****   #define __SIMD32_TYPE int32_t
 438:.\Include/arm_math.h ****   #define CMSIS_UNUSED __attribute__((unused))
 439:.\Include/arm_math.h ****   #define CMSIS_INLINE __attribute__((always_inline))
 440:.\Include/arm_math.h **** 
 441:.\Include/arm_math.h **** #elif defined ( __GNUC__ )
 442:.\Include/arm_math.h ****   #define __SIMD32_TYPE int32_t
 443:.\Include/arm_math.h ****   #define CMSIS_UNUSED __attribute__((unused))
 444:.\Include/arm_math.h ****   #define CMSIS_INLINE __attribute__((always_inline))
 445:.\Include/arm_math.h **** 
 446:.\Include/arm_math.h **** #elif defined ( __ICCARM__ )
 447:.\Include/arm_math.h ****   #define __SIMD32_TYPE int32_t __packed
 448:.\Include/arm_math.h ****   #define CMSIS_UNUSED
 449:.\Include/arm_math.h ****   #define CMSIS_INLINE
 450:.\Include/arm_math.h **** 
 451:.\Include/arm_math.h **** #elif defined ( __TI_ARM__ )
 452:.\Include/arm_math.h ****   #define __SIMD32_TYPE int32_t
 453:.\Include/arm_math.h ****   #define CMSIS_UNUSED __attribute__((unused))
 454:.\Include/arm_math.h ****   #define CMSIS_INLINE
 455:.\Include/arm_math.h **** 
 456:.\Include/arm_math.h **** #elif defined ( __CSMC__ )
 457:.\Include/arm_math.h ****   #define __SIMD32_TYPE int32_t
 458:.\Include/arm_math.h ****   #define CMSIS_UNUSED
 459:.\Include/arm_math.h ****   #define CMSIS_INLINE
 460:.\Include/arm_math.h **** 
 461:.\Include/arm_math.h **** #elif defined ( __TASKING__ )
 462:.\Include/arm_math.h ****   #define __SIMD32_TYPE __unaligned int32_t
 463:.\Include/arm_math.h ****   #define CMSIS_UNUSED
 464:.\Include/arm_math.h ****   #define CMSIS_INLINE
 465:.\Include/arm_math.h **** 
 466:.\Include/arm_math.h **** #else
 467:.\Include/arm_math.h ****   #error Unknown compiler
 468:.\Include/arm_math.h **** #endif
ARM GAS  C:\Users\fneves\AppData\Local\Temp\ccx8ai1h.s 			page 14


 469:.\Include/arm_math.h **** 
 470:.\Include/arm_math.h **** #define __SIMD32(addr)        (*(__SIMD32_TYPE **) & (addr))
 471:.\Include/arm_math.h **** #define __SIMD32_CONST(addr)  ((__SIMD32_TYPE *)(addr))
 472:.\Include/arm_math.h **** #define _SIMD32_OFFSET(addr)  (*(__SIMD32_TYPE *)  (addr))
 473:.\Include/arm_math.h **** #define __SIMD64(addr)        (*(int64_t **) & (addr))
 474:.\Include/arm_math.h **** 
 475:.\Include/arm_math.h **** /* #if defined (ARM_MATH_CM3) || defined (ARM_MATH_CM0_FAMILY) */
 476:.\Include/arm_math.h **** #if !defined (ARM_MATH_DSP)
 477:.\Include/arm_math.h ****   /**
 478:.\Include/arm_math.h ****    * @brief definition to pack two 16 bit values.
 479:.\Include/arm_math.h ****    */
 480:.\Include/arm_math.h **** #define __PKHBT(ARG1, ARG2, ARG3) ( (((int32_t)(ARG1) <<    0) & (int32_t)0x0000FFFF) | \
 481:.\Include/arm_math.h ****                                     (((int32_t)(ARG2) << ARG3) & (int32_t)0xFFFF0000)  )
 482:.\Include/arm_math.h **** #define __PKHTB(ARG1, ARG2, ARG3) ( (((int32_t)(ARG1) <<    0) & (int32_t)0xFFFF0000) | \
 483:.\Include/arm_math.h ****                                     (((int32_t)(ARG2) >> ARG3) & (int32_t)0x0000FFFF)  )
 484:.\Include/arm_math.h **** 
 485:.\Include/arm_math.h **** /* #endif // defined (ARM_MATH_CM3) || defined (ARM_MATH_CM0_FAMILY) */
 486:.\Include/arm_math.h **** #endif /* !defined (ARM_MATH_DSP) */
 487:.\Include/arm_math.h **** 
 488:.\Include/arm_math.h ****    /**
 489:.\Include/arm_math.h ****    * @brief definition to pack four 8 bit values.
 490:.\Include/arm_math.h ****    */
 491:.\Include/arm_math.h **** #ifndef ARM_MATH_BIG_ENDIAN
 492:.\Include/arm_math.h **** 
 493:.\Include/arm_math.h **** #define __PACKq7(v0,v1,v2,v3) ( (((int32_t)(v0) <<  0) & (int32_t)0x000000FF) | \
 494:.\Include/arm_math.h ****                                 (((int32_t)(v1) <<  8) & (int32_t)0x0000FF00) | \
 495:.\Include/arm_math.h ****                                 (((int32_t)(v2) << 16) & (int32_t)0x00FF0000) | \
 496:.\Include/arm_math.h ****                                 (((int32_t)(v3) << 24) & (int32_t)0xFF000000)  )
 497:.\Include/arm_math.h **** #else
 498:.\Include/arm_math.h **** 
 499:.\Include/arm_math.h **** #define __PACKq7(v0,v1,v2,v3) ( (((int32_t)(v3) <<  0) & (int32_t)0x000000FF) | \
 500:.\Include/arm_math.h ****                                 (((int32_t)(v2) <<  8) & (int32_t)0x0000FF00) | \
 501:.\Include/arm_math.h ****                                 (((int32_t)(v1) << 16) & (int32_t)0x00FF0000) | \
 502:.\Include/arm_math.h ****                                 (((int32_t)(v0) << 24) & (int32_t)0xFF000000)  )
 503:.\Include/arm_math.h **** 
 504:.\Include/arm_math.h **** #endif
 505:.\Include/arm_math.h **** 
 506:.\Include/arm_math.h **** 
 507:.\Include/arm_math.h ****   /**
 508:.\Include/arm_math.h ****    * @brief Clips Q63 to Q31 values.
 509:.\Include/arm_math.h ****    */
 510:.\Include/arm_math.h ****   CMSIS_INLINE __STATIC_INLINE q31_t clip_q63_to_q31(
 511:.\Include/arm_math.h ****   q63_t x)
 512:.\Include/arm_math.h ****   {
 513:.\Include/arm_math.h ****     return ((q31_t) (x >> 32) != ((q31_t) x >> 31)) ?
 514:.\Include/arm_math.h ****       ((0x7FFFFFFF ^ ((q31_t) (x >> 63)))) : (q31_t) x;
 515:.\Include/arm_math.h ****   }
 516:.\Include/arm_math.h **** 
 517:.\Include/arm_math.h ****   /**
 518:.\Include/arm_math.h ****    * @brief Clips Q63 to Q15 values.
 519:.\Include/arm_math.h ****    */
 520:.\Include/arm_math.h ****   CMSIS_INLINE __STATIC_INLINE q15_t clip_q63_to_q15(
 521:.\Include/arm_math.h ****   q63_t x)
 522:.\Include/arm_math.h ****   {
 523:.\Include/arm_math.h ****     return ((q31_t) (x >> 32) != ((q31_t) x >> 31)) ?
 524:.\Include/arm_math.h ****       ((0x7FFF ^ ((q15_t) (x >> 63)))) : (q15_t) (x >> 15);
 525:.\Include/arm_math.h ****   }
ARM GAS  C:\Users\fneves\AppData\Local\Temp\ccx8ai1h.s 			page 15


 526:.\Include/arm_math.h **** 
 527:.\Include/arm_math.h ****   /**
 528:.\Include/arm_math.h ****    * @brief Clips Q31 to Q7 values.
 529:.\Include/arm_math.h ****    */
 530:.\Include/arm_math.h ****   CMSIS_INLINE __STATIC_INLINE q7_t clip_q31_to_q7(
 531:.\Include/arm_math.h ****   q31_t x)
 532:.\Include/arm_math.h ****   {
 533:.\Include/arm_math.h ****     return ((q31_t) (x >> 24) != ((q31_t) x >> 23)) ?
 534:.\Include/arm_math.h ****       ((0x7F ^ ((q7_t) (x >> 31)))) : (q7_t) x;
 535:.\Include/arm_math.h ****   }
 536:.\Include/arm_math.h **** 
 537:.\Include/arm_math.h ****   /**
 538:.\Include/arm_math.h ****    * @brief Clips Q31 to Q15 values.
 539:.\Include/arm_math.h ****    */
 540:.\Include/arm_math.h ****   CMSIS_INLINE __STATIC_INLINE q15_t clip_q31_to_q15(
 541:.\Include/arm_math.h ****   q31_t x)
 542:.\Include/arm_math.h ****   {
 543:.\Include/arm_math.h ****     return ((q31_t) (x >> 16) != ((q31_t) x >> 15)) ?
 544:.\Include/arm_math.h ****       ((0x7FFF ^ ((q15_t) (x >> 31)))) : (q15_t) x;
 545:.\Include/arm_math.h ****   }
 546:.\Include/arm_math.h **** 
 547:.\Include/arm_math.h ****   /**
 548:.\Include/arm_math.h ****    * @brief Multiplies 32 X 64 and returns 32 bit result in 2.30 format.
 549:.\Include/arm_math.h ****    */
 550:.\Include/arm_math.h **** 
 551:.\Include/arm_math.h ****   CMSIS_INLINE __STATIC_INLINE q63_t mult32x64(
 552:.\Include/arm_math.h ****   q63_t x,
 553:.\Include/arm_math.h ****   q31_t y)
 554:.\Include/arm_math.h ****   {
 555:.\Include/arm_math.h ****     return ((((q63_t) (x & 0x00000000FFFFFFFF) * y) >> 32) +
 556:.\Include/arm_math.h ****             (((q63_t) (x >> 32) * y)));
 557:.\Include/arm_math.h ****   }
 558:.\Include/arm_math.h **** 
 559:.\Include/arm_math.h **** /*
 560:.\Include/arm_math.h ****   #if defined (ARM_MATH_CM0_FAMILY) && defined ( __CC_ARM   )
 561:.\Include/arm_math.h ****   #define __CLZ __clz
 562:.\Include/arm_math.h ****   #endif
 563:.\Include/arm_math.h ****  */
 564:.\Include/arm_math.h **** /* note: function can be removed when all toolchain support __CLZ for Cortex-M0 */
 565:.\Include/arm_math.h **** #if defined (ARM_MATH_CM0_FAMILY) && ((defined (__ICCARM__))  )
 566:.\Include/arm_math.h ****   CMSIS_INLINE __STATIC_INLINE uint32_t __CLZ(
 567:.\Include/arm_math.h ****   q31_t data);
 568:.\Include/arm_math.h **** 
 569:.\Include/arm_math.h ****   CMSIS_INLINE __STATIC_INLINE uint32_t __CLZ(
 570:.\Include/arm_math.h ****   q31_t data)
 571:.\Include/arm_math.h ****   {
 572:.\Include/arm_math.h ****     uint32_t count = 0;
 573:.\Include/arm_math.h ****     uint32_t mask = 0x80000000;
 574:.\Include/arm_math.h **** 
 575:.\Include/arm_math.h ****     while ((data & mask) == 0)
 576:.\Include/arm_math.h ****     {
 577:.\Include/arm_math.h ****       count += 1u;
 578:.\Include/arm_math.h ****       mask = mask >> 1u;
 579:.\Include/arm_math.h ****     }
 580:.\Include/arm_math.h **** 
 581:.\Include/arm_math.h ****     return (count);
 582:.\Include/arm_math.h ****   }
ARM GAS  C:\Users\fneves\AppData\Local\Temp\ccx8ai1h.s 			page 16


 583:.\Include/arm_math.h **** #endif
 584:.\Include/arm_math.h **** 
 585:.\Include/arm_math.h ****   /**
 586:.\Include/arm_math.h ****    * @brief Function to Calculates 1/in (reciprocal) value of Q31 Data type.
 587:.\Include/arm_math.h ****    */
 588:.\Include/arm_math.h **** 
 589:.\Include/arm_math.h ****   CMSIS_INLINE __STATIC_INLINE uint32_t arm_recip_q31(
 590:.\Include/arm_math.h ****   q31_t in,
 591:.\Include/arm_math.h ****   q31_t * dst,
 592:.\Include/arm_math.h ****   q31_t * pRecipTable)
 593:.\Include/arm_math.h ****   {
 594:.\Include/arm_math.h ****     q31_t out;
 595:.\Include/arm_math.h ****     uint32_t tempVal;
 596:.\Include/arm_math.h ****     uint32_t index, i;
 597:.\Include/arm_math.h ****     uint32_t signBits;
 598:.\Include/arm_math.h **** 
 599:.\Include/arm_math.h ****     if (in > 0)
 600:.\Include/arm_math.h ****     {
 601:.\Include/arm_math.h ****       signBits = ((uint32_t) (__CLZ( in) - 1));
 602:.\Include/arm_math.h ****     }
 603:.\Include/arm_math.h ****     else
 604:.\Include/arm_math.h ****     {
 605:.\Include/arm_math.h ****       signBits = ((uint32_t) (__CLZ(-in) - 1));
 606:.\Include/arm_math.h ****     }
 607:.\Include/arm_math.h **** 
 608:.\Include/arm_math.h ****     /* Convert input sample to 1.31 format */
 609:.\Include/arm_math.h ****     in = (in << signBits);
 610:.\Include/arm_math.h **** 
 611:.\Include/arm_math.h ****     /* calculation of index for initial approximated Val */
 612:.\Include/arm_math.h ****     index = (uint32_t)(in >> 24);
 613:.\Include/arm_math.h ****     index = (index & INDEX_MASK);
 614:.\Include/arm_math.h **** 
 615:.\Include/arm_math.h ****     /* 1.31 with exp 1 */
 616:.\Include/arm_math.h ****     out = pRecipTable[index];
 617:.\Include/arm_math.h **** 
 618:.\Include/arm_math.h ****     /* calculation of reciprocal value */
 619:.\Include/arm_math.h ****     /* running approximation for two iterations */
 620:.\Include/arm_math.h ****     for (i = 0u; i < 2u; i++)
 621:.\Include/arm_math.h ****     {
 622:.\Include/arm_math.h ****       tempVal = (uint32_t) (((q63_t) in * out) >> 31);
 623:.\Include/arm_math.h ****       tempVal = 0x7FFFFFFFu - tempVal;
 624:.\Include/arm_math.h ****       /*      1.31 with exp 1 */
 625:.\Include/arm_math.h ****       /* out = (q31_t) (((q63_t) out * tempVal) >> 30); */
 626:.\Include/arm_math.h ****       out = clip_q63_to_q31(((q63_t) out * tempVal) >> 30);
 627:.\Include/arm_math.h ****     }
 628:.\Include/arm_math.h **** 
 629:.\Include/arm_math.h ****     /* write output */
 630:.\Include/arm_math.h ****     *dst = out;
 631:.\Include/arm_math.h **** 
 632:.\Include/arm_math.h ****     /* return num of signbits of out = 1/in value */
 633:.\Include/arm_math.h ****     return (signBits + 1u);
 634:.\Include/arm_math.h ****   }
 635:.\Include/arm_math.h **** 
 636:.\Include/arm_math.h **** 
 637:.\Include/arm_math.h ****   /**
 638:.\Include/arm_math.h ****    * @brief Function to Calculates 1/in (reciprocal) value of Q15 Data type.
 639:.\Include/arm_math.h ****    */
ARM GAS  C:\Users\fneves\AppData\Local\Temp\ccx8ai1h.s 			page 17


 640:.\Include/arm_math.h ****   CMSIS_INLINE __STATIC_INLINE uint32_t arm_recip_q15(
 641:.\Include/arm_math.h ****   q15_t in,
 642:.\Include/arm_math.h ****   q15_t * dst,
 643:.\Include/arm_math.h ****   q15_t * pRecipTable)
 644:.\Include/arm_math.h ****   {
 645:.\Include/arm_math.h ****     q15_t out = 0;
 646:.\Include/arm_math.h ****     uint32_t tempVal = 0;
 647:.\Include/arm_math.h ****     uint32_t index = 0, i = 0;
 648:.\Include/arm_math.h ****     uint32_t signBits = 0;
 649:.\Include/arm_math.h **** 
 650:.\Include/arm_math.h ****     if (in > 0)
 651:.\Include/arm_math.h ****     {
 652:.\Include/arm_math.h ****       signBits = ((uint32_t)(__CLZ( in) - 17));
 653:.\Include/arm_math.h ****     }
 654:.\Include/arm_math.h ****     else
 655:.\Include/arm_math.h ****     {
 656:.\Include/arm_math.h ****       signBits = ((uint32_t)(__CLZ(-in) - 17));
 657:.\Include/arm_math.h ****     }
 658:.\Include/arm_math.h **** 
 659:.\Include/arm_math.h ****     /* Convert input sample to 1.15 format */
 660:.\Include/arm_math.h ****     in = (in << signBits);
 661:.\Include/arm_math.h **** 
 662:.\Include/arm_math.h ****     /* calculation of index for initial approximated Val */
 663:.\Include/arm_math.h ****     index = (uint32_t)(in >>  8);
 664:.\Include/arm_math.h ****     index = (index & INDEX_MASK);
 665:.\Include/arm_math.h **** 
 666:.\Include/arm_math.h ****     /*      1.15 with exp 1  */
 667:.\Include/arm_math.h ****     out = pRecipTable[index];
 668:.\Include/arm_math.h **** 
 669:.\Include/arm_math.h ****     /* calculation of reciprocal value */
 670:.\Include/arm_math.h ****     /* running approximation for two iterations */
 671:.\Include/arm_math.h ****     for (i = 0u; i < 2u; i++)
 672:.\Include/arm_math.h ****     {
 673:.\Include/arm_math.h ****       tempVal = (uint32_t) (((q31_t) in * out) >> 15);
 674:.\Include/arm_math.h ****       tempVal = 0x7FFFu - tempVal;
 675:.\Include/arm_math.h ****       /*      1.15 with exp 1 */
 676:.\Include/arm_math.h ****       out = (q15_t) (((q31_t) out * tempVal) >> 14);
 677:.\Include/arm_math.h ****       /* out = clip_q31_to_q15(((q31_t) out * tempVal) >> 14); */
 678:.\Include/arm_math.h ****     }
 679:.\Include/arm_math.h **** 
 680:.\Include/arm_math.h ****     /* write output */
 681:.\Include/arm_math.h ****     *dst = out;
 682:.\Include/arm_math.h **** 
 683:.\Include/arm_math.h ****     /* return num of signbits of out = 1/in value */
 684:.\Include/arm_math.h ****     return (signBits + 1);
 685:.\Include/arm_math.h ****   }
 686:.\Include/arm_math.h **** 
 687:.\Include/arm_math.h **** 
 688:.\Include/arm_math.h ****   /*
 689:.\Include/arm_math.h ****    * @brief C custom defined intrinisic function for only M0 processors
 690:.\Include/arm_math.h ****    */
 691:.\Include/arm_math.h **** #if defined(ARM_MATH_CM0_FAMILY)
 692:.\Include/arm_math.h ****   CMSIS_INLINE __STATIC_INLINE q31_t __SSAT(
 693:.\Include/arm_math.h ****   q31_t x,
 694:.\Include/arm_math.h ****   uint32_t y)
 695:.\Include/arm_math.h ****   {
 696:.\Include/arm_math.h ****     int32_t posMax, negMin;
ARM GAS  C:\Users\fneves\AppData\Local\Temp\ccx8ai1h.s 			page 18


 697:.\Include/arm_math.h ****     uint32_t i;
 698:.\Include/arm_math.h **** 
 699:.\Include/arm_math.h ****     posMax = 1;
 700:.\Include/arm_math.h ****     for (i = 0; i < (y - 1); i++)
 701:.\Include/arm_math.h ****     {
 702:.\Include/arm_math.h ****       posMax = posMax * 2;
 703:.\Include/arm_math.h ****     }
 704:.\Include/arm_math.h **** 
 705:.\Include/arm_math.h ****     if (x > 0)
 706:.\Include/arm_math.h ****     {
 707:.\Include/arm_math.h ****       posMax = (posMax - 1);
 708:.\Include/arm_math.h **** 
 709:.\Include/arm_math.h ****       if (x > posMax)
 710:.\Include/arm_math.h ****       {
 711:.\Include/arm_math.h ****         x = posMax;
 712:.\Include/arm_math.h ****       }
 713:.\Include/arm_math.h ****     }
 714:.\Include/arm_math.h ****     else
 715:.\Include/arm_math.h ****     {
 716:.\Include/arm_math.h ****       negMin = -posMax;
 717:.\Include/arm_math.h **** 
 718:.\Include/arm_math.h ****       if (x < negMin)
 719:.\Include/arm_math.h ****       {
 720:.\Include/arm_math.h ****         x = negMin;
 721:.\Include/arm_math.h ****       }
 722:.\Include/arm_math.h ****     }
 723:.\Include/arm_math.h ****     return (x);
 724:.\Include/arm_math.h ****   }
 725:.\Include/arm_math.h **** #endif /* end of ARM_MATH_CM0_FAMILY */
 726:.\Include/arm_math.h **** 
 727:.\Include/arm_math.h **** 
 728:.\Include/arm_math.h ****   /*
 729:.\Include/arm_math.h ****    * @brief C custom defined intrinsic function for M3 and M0 processors
 730:.\Include/arm_math.h ****    */
 731:.\Include/arm_math.h **** /* #if defined (ARM_MATH_CM3) || defined (ARM_MATH_CM0_FAMILY) */
 732:.\Include/arm_math.h **** #if !defined (ARM_MATH_DSP)
 733:.\Include/arm_math.h **** 
 734:.\Include/arm_math.h ****   /*
 735:.\Include/arm_math.h ****    * @brief C custom defined QADD8 for M3 and M0 processors
 736:.\Include/arm_math.h ****    */
 737:.\Include/arm_math.h ****   CMSIS_INLINE __STATIC_INLINE uint32_t __QADD8(
 738:.\Include/arm_math.h ****   uint32_t x,
 739:.\Include/arm_math.h ****   uint32_t y)
 740:.\Include/arm_math.h ****   {
 741:.\Include/arm_math.h ****     q31_t r, s, t, u;
 742:.\Include/arm_math.h **** 
 743:.\Include/arm_math.h ****     r = __SSAT(((((q31_t)x << 24) >> 24) + (((q31_t)y << 24) >> 24)), 8) & (int32_t)0x000000FF;
 744:.\Include/arm_math.h ****     s = __SSAT(((((q31_t)x << 16) >> 24) + (((q31_t)y << 16) >> 24)), 8) & (int32_t)0x000000FF;
 745:.\Include/arm_math.h ****     t = __SSAT(((((q31_t)x <<  8) >> 24) + (((q31_t)y <<  8) >> 24)), 8) & (int32_t)0x000000FF;
 746:.\Include/arm_math.h ****     u = __SSAT(((((q31_t)x      ) >> 24) + (((q31_t)y      ) >> 24)), 8) & (int32_t)0x000000FF;
 747:.\Include/arm_math.h **** 
 748:.\Include/arm_math.h ****     return ((uint32_t)((u << 24) | (t << 16) | (s <<  8) | (r      )));
 749:.\Include/arm_math.h ****   }
 750:.\Include/arm_math.h **** 
 751:.\Include/arm_math.h **** 
 752:.\Include/arm_math.h ****   /*
 753:.\Include/arm_math.h ****    * @brief C custom defined QSUB8 for M3 and M0 processors
ARM GAS  C:\Users\fneves\AppData\Local\Temp\ccx8ai1h.s 			page 19


 754:.\Include/arm_math.h ****    */
 755:.\Include/arm_math.h ****   CMSIS_INLINE __STATIC_INLINE uint32_t __QSUB8(
 756:.\Include/arm_math.h ****   uint32_t x,
 757:.\Include/arm_math.h ****   uint32_t y)
 758:.\Include/arm_math.h ****   {
 759:.\Include/arm_math.h ****     q31_t r, s, t, u;
 760:.\Include/arm_math.h **** 
 761:.\Include/arm_math.h ****     r = __SSAT(((((q31_t)x << 24) >> 24) - (((q31_t)y << 24) >> 24)), 8) & (int32_t)0x000000FF;
 762:.\Include/arm_math.h ****     s = __SSAT(((((q31_t)x << 16) >> 24) - (((q31_t)y << 16) >> 24)), 8) & (int32_t)0x000000FF;
 763:.\Include/arm_math.h ****     t = __SSAT(((((q31_t)x <<  8) >> 24) - (((q31_t)y <<  8) >> 24)), 8) & (int32_t)0x000000FF;
 764:.\Include/arm_math.h ****     u = __SSAT(((((q31_t)x      ) >> 24) - (((q31_t)y      ) >> 24)), 8) & (int32_t)0x000000FF;
 765:.\Include/arm_math.h **** 
 766:.\Include/arm_math.h ****     return ((uint32_t)((u << 24) | (t << 16) | (s <<  8) | (r      )));
 767:.\Include/arm_math.h ****   }
 768:.\Include/arm_math.h **** 
 769:.\Include/arm_math.h **** 
 770:.\Include/arm_math.h ****   /*
 771:.\Include/arm_math.h ****    * @brief C custom defined QADD16 for M3 and M0 processors
 772:.\Include/arm_math.h ****    */
 773:.\Include/arm_math.h ****   CMSIS_INLINE __STATIC_INLINE uint32_t __QADD16(
 774:.\Include/arm_math.h ****   uint32_t x,
 775:.\Include/arm_math.h ****   uint32_t y)
 776:.\Include/arm_math.h ****   {
 777:.\Include/arm_math.h **** /*  q31_t r,     s;  without initialisation 'arm_offset_q15 test' fails  but 'intrinsic' tests pass
 778:.\Include/arm_math.h ****     q31_t r = 0, s = 0;
 779:.\Include/arm_math.h **** 
 780:.\Include/arm_math.h ****     r = __SSAT(((((q31_t)x << 16) >> 16) + (((q31_t)y << 16) >> 16)), 16) & (int32_t)0x0000FFFF;
 781:.\Include/arm_math.h ****     s = __SSAT(((((q31_t)x      ) >> 16) + (((q31_t)y      ) >> 16)), 16) & (int32_t)0x0000FFFF;
 782:.\Include/arm_math.h **** 
 783:.\Include/arm_math.h ****     return ((uint32_t)((s << 16) | (r      )));
 784:.\Include/arm_math.h ****   }
 785:.\Include/arm_math.h **** 
 786:.\Include/arm_math.h **** 
 787:.\Include/arm_math.h ****   /*
 788:.\Include/arm_math.h ****    * @brief C custom defined SHADD16 for M3 and M0 processors
 789:.\Include/arm_math.h ****    */
 790:.\Include/arm_math.h ****   CMSIS_INLINE __STATIC_INLINE uint32_t __SHADD16(
 791:.\Include/arm_math.h ****   uint32_t x,
 792:.\Include/arm_math.h ****   uint32_t y)
 793:.\Include/arm_math.h ****   {
 794:.\Include/arm_math.h ****     q31_t r, s;
 795:.\Include/arm_math.h **** 
 796:.\Include/arm_math.h ****     r = (((((q31_t)x << 16) >> 16) + (((q31_t)y << 16) >> 16)) >> 1) & (int32_t)0x0000FFFF;
 797:.\Include/arm_math.h ****     s = (((((q31_t)x      ) >> 16) + (((q31_t)y      ) >> 16)) >> 1) & (int32_t)0x0000FFFF;
 798:.\Include/arm_math.h **** 
 799:.\Include/arm_math.h ****     return ((uint32_t)((s << 16) | (r      )));
 800:.\Include/arm_math.h ****   }
 801:.\Include/arm_math.h **** 
 802:.\Include/arm_math.h **** 
 803:.\Include/arm_math.h ****   /*
 804:.\Include/arm_math.h ****    * @brief C custom defined QSUB16 for M3 and M0 processors
 805:.\Include/arm_math.h ****    */
 806:.\Include/arm_math.h ****   CMSIS_INLINE __STATIC_INLINE uint32_t __QSUB16(
 807:.\Include/arm_math.h ****   uint32_t x,
 808:.\Include/arm_math.h ****   uint32_t y)
 809:.\Include/arm_math.h ****   {
 810:.\Include/arm_math.h ****     q31_t r, s;
ARM GAS  C:\Users\fneves\AppData\Local\Temp\ccx8ai1h.s 			page 20


 811:.\Include/arm_math.h **** 
 812:.\Include/arm_math.h ****     r = __SSAT(((((q31_t)x << 16) >> 16) - (((q31_t)y << 16) >> 16)), 16) & (int32_t)0x0000FFFF;
 813:.\Include/arm_math.h ****     s = __SSAT(((((q31_t)x      ) >> 16) - (((q31_t)y      ) >> 16)), 16) & (int32_t)0x0000FFFF;
 814:.\Include/arm_math.h **** 
 815:.\Include/arm_math.h ****     return ((uint32_t)((s << 16) | (r      )));
 816:.\Include/arm_math.h ****   }
 817:.\Include/arm_math.h **** 
 818:.\Include/arm_math.h **** 
 819:.\Include/arm_math.h ****   /*
 820:.\Include/arm_math.h ****    * @brief C custom defined SHSUB16 for M3 and M0 processors
 821:.\Include/arm_math.h ****    */
 822:.\Include/arm_math.h ****   CMSIS_INLINE __STATIC_INLINE uint32_t __SHSUB16(
 823:.\Include/arm_math.h ****   uint32_t x,
 824:.\Include/arm_math.h ****   uint32_t y)
 825:.\Include/arm_math.h ****   {
 826:.\Include/arm_math.h ****     q31_t r, s;
 827:.\Include/arm_math.h **** 
 828:.\Include/arm_math.h ****     r = (((((q31_t)x << 16) >> 16) - (((q31_t)y << 16) >> 16)) >> 1) & (int32_t)0x0000FFFF;
 829:.\Include/arm_math.h ****     s = (((((q31_t)x      ) >> 16) - (((q31_t)y      ) >> 16)) >> 1) & (int32_t)0x0000FFFF;
 830:.\Include/arm_math.h **** 
 831:.\Include/arm_math.h ****     return ((uint32_t)((s << 16) | (r      )));
 832:.\Include/arm_math.h ****   }
 833:.\Include/arm_math.h **** 
 834:.\Include/arm_math.h **** 
 835:.\Include/arm_math.h ****   /*
 836:.\Include/arm_math.h ****    * @brief C custom defined QASX for M3 and M0 processors
 837:.\Include/arm_math.h ****    */
 838:.\Include/arm_math.h ****   CMSIS_INLINE __STATIC_INLINE uint32_t __QASX(
 839:.\Include/arm_math.h ****   uint32_t x,
 840:.\Include/arm_math.h ****   uint32_t y)
 841:.\Include/arm_math.h ****   {
 842:.\Include/arm_math.h ****     q31_t r, s;
 843:.\Include/arm_math.h **** 
 844:.\Include/arm_math.h ****     r = __SSAT(((((q31_t)x << 16) >> 16) - (((q31_t)y      ) >> 16)), 16) & (int32_t)0x0000FFFF;
 845:.\Include/arm_math.h ****     s = __SSAT(((((q31_t)x      ) >> 16) + (((q31_t)y << 16) >> 16)), 16) & (int32_t)0x0000FFFF;
 846:.\Include/arm_math.h **** 
 847:.\Include/arm_math.h ****     return ((uint32_t)((s << 16) | (r      )));
 848:.\Include/arm_math.h ****   }
 849:.\Include/arm_math.h **** 
 850:.\Include/arm_math.h **** 
 851:.\Include/arm_math.h ****   /*
 852:.\Include/arm_math.h ****    * @brief C custom defined SHASX for M3 and M0 processors
 853:.\Include/arm_math.h ****    */
 854:.\Include/arm_math.h ****   CMSIS_INLINE __STATIC_INLINE uint32_t __SHASX(
 855:.\Include/arm_math.h ****   uint32_t x,
 856:.\Include/arm_math.h ****   uint32_t y)
 857:.\Include/arm_math.h ****   {
 858:.\Include/arm_math.h ****     q31_t r, s;
 859:.\Include/arm_math.h **** 
 860:.\Include/arm_math.h ****     r = (((((q31_t)x << 16) >> 16) - (((q31_t)y      ) >> 16)) >> 1) & (int32_t)0x0000FFFF;
 861:.\Include/arm_math.h ****     s = (((((q31_t)x      ) >> 16) + (((q31_t)y << 16) >> 16)) >> 1) & (int32_t)0x0000FFFF;
 862:.\Include/arm_math.h **** 
 863:.\Include/arm_math.h ****     return ((uint32_t)((s << 16) | (r      )));
 864:.\Include/arm_math.h ****   }
 865:.\Include/arm_math.h **** 
 866:.\Include/arm_math.h **** 
 867:.\Include/arm_math.h ****   /*
ARM GAS  C:\Users\fneves\AppData\Local\Temp\ccx8ai1h.s 			page 21


 868:.\Include/arm_math.h ****    * @brief C custom defined QSAX for M3 and M0 processors
 869:.\Include/arm_math.h ****    */
 870:.\Include/arm_math.h ****   CMSIS_INLINE __STATIC_INLINE uint32_t __QSAX(
 871:.\Include/arm_math.h ****   uint32_t x,
 872:.\Include/arm_math.h ****   uint32_t y)
 873:.\Include/arm_math.h ****   {
 874:.\Include/arm_math.h ****     q31_t r, s;
 875:.\Include/arm_math.h **** 
 876:.\Include/arm_math.h ****     r = __SSAT(((((q31_t)x << 16) >> 16) + (((q31_t)y      ) >> 16)), 16) & (int32_t)0x0000FFFF;
 877:.\Include/arm_math.h ****     s = __SSAT(((((q31_t)x      ) >> 16) - (((q31_t)y << 16) >> 16)), 16) & (int32_t)0x0000FFFF;
 878:.\Include/arm_math.h **** 
 879:.\Include/arm_math.h ****     return ((uint32_t)((s << 16) | (r      )));
 880:.\Include/arm_math.h ****   }
 881:.\Include/arm_math.h **** 
 882:.\Include/arm_math.h **** 
 883:.\Include/arm_math.h ****   /*
 884:.\Include/arm_math.h ****    * @brief C custom defined SHSAX for M3 and M0 processors
 885:.\Include/arm_math.h ****    */
 886:.\Include/arm_math.h ****   CMSIS_INLINE __STATIC_INLINE uint32_t __SHSAX(
 887:.\Include/arm_math.h ****   uint32_t x,
 888:.\Include/arm_math.h ****   uint32_t y)
 889:.\Include/arm_math.h ****   {
 890:.\Include/arm_math.h ****     q31_t r, s;
 891:.\Include/arm_math.h **** 
 892:.\Include/arm_math.h ****     r = (((((q31_t)x << 16) >> 16) + (((q31_t)y      ) >> 16)) >> 1) & (int32_t)0x0000FFFF;
 893:.\Include/arm_math.h ****     s = (((((q31_t)x      ) >> 16) - (((q31_t)y << 16) >> 16)) >> 1) & (int32_t)0x0000FFFF;
 894:.\Include/arm_math.h **** 
 895:.\Include/arm_math.h ****     return ((uint32_t)((s << 16) | (r      )));
 896:.\Include/arm_math.h ****   }
 897:.\Include/arm_math.h **** 
 898:.\Include/arm_math.h **** 
 899:.\Include/arm_math.h ****   /*
 900:.\Include/arm_math.h ****    * @brief C custom defined SMUSDX for M3 and M0 processors
 901:.\Include/arm_math.h ****    */
 902:.\Include/arm_math.h ****   CMSIS_INLINE __STATIC_INLINE uint32_t __SMUSDX(
 903:.\Include/arm_math.h ****   uint32_t x,
 904:.\Include/arm_math.h ****   uint32_t y)
 905:.\Include/arm_math.h ****   {
 906:.\Include/arm_math.h ****     return ((uint32_t)(((((q31_t)x << 16) >> 16) * (((q31_t)y      ) >> 16)) -
 907:.\Include/arm_math.h ****                        ((((q31_t)x      ) >> 16) * (((q31_t)y << 16) >> 16))   ));
 908:.\Include/arm_math.h ****   }
 909:.\Include/arm_math.h **** 
 910:.\Include/arm_math.h ****   /*
 911:.\Include/arm_math.h ****    * @brief C custom defined SMUADX for M3 and M0 processors
 912:.\Include/arm_math.h ****    */
 913:.\Include/arm_math.h ****   CMSIS_INLINE __STATIC_INLINE uint32_t __SMUADX(
 914:.\Include/arm_math.h ****   uint32_t x,
 915:.\Include/arm_math.h ****   uint32_t y)
 916:.\Include/arm_math.h ****   {
 917:.\Include/arm_math.h ****     return ((uint32_t)(((((q31_t)x << 16) >> 16) * (((q31_t)y      ) >> 16)) +
 918:.\Include/arm_math.h ****                        ((((q31_t)x      ) >> 16) * (((q31_t)y << 16) >> 16))   ));
 919:.\Include/arm_math.h ****   }
 920:.\Include/arm_math.h **** 
 921:.\Include/arm_math.h **** 
 922:.\Include/arm_math.h ****   /*
 923:.\Include/arm_math.h ****    * @brief C custom defined QADD for M3 and M0 processors
 924:.\Include/arm_math.h ****    */
ARM GAS  C:\Users\fneves\AppData\Local\Temp\ccx8ai1h.s 			page 22


 925:.\Include/arm_math.h ****   CMSIS_INLINE __STATIC_INLINE int32_t __QADD(
 926:.\Include/arm_math.h ****   int32_t x,
 927:.\Include/arm_math.h ****   int32_t y)
 928:.\Include/arm_math.h ****   {
 929:.\Include/arm_math.h ****     return ((int32_t)(clip_q63_to_q31((q63_t)x + (q31_t)y)));
 930:.\Include/arm_math.h ****   }
 931:.\Include/arm_math.h **** 
 932:.\Include/arm_math.h **** 
 933:.\Include/arm_math.h ****   /*
 934:.\Include/arm_math.h ****    * @brief C custom defined QSUB for M3 and M0 processors
 935:.\Include/arm_math.h ****    */
 936:.\Include/arm_math.h ****   CMSIS_INLINE __STATIC_INLINE int32_t __QSUB(
 937:.\Include/arm_math.h ****   int32_t x,
 938:.\Include/arm_math.h ****   int32_t y)
 939:.\Include/arm_math.h ****   {
 940:.\Include/arm_math.h ****     return ((int32_t)(clip_q63_to_q31((q63_t)x - (q31_t)y)));
 941:.\Include/arm_math.h ****   }
 942:.\Include/arm_math.h **** 
 943:.\Include/arm_math.h **** 
 944:.\Include/arm_math.h ****   /*
 945:.\Include/arm_math.h ****    * @brief C custom defined SMLAD for M3 and M0 processors
 946:.\Include/arm_math.h ****    */
 947:.\Include/arm_math.h ****   CMSIS_INLINE __STATIC_INLINE uint32_t __SMLAD(
 948:.\Include/arm_math.h ****   uint32_t x,
 949:.\Include/arm_math.h ****   uint32_t y,
 950:.\Include/arm_math.h ****   uint32_t sum)
 951:.\Include/arm_math.h ****   {
 952:.\Include/arm_math.h ****     return ((uint32_t)(((((q31_t)x << 16) >> 16) * (((q31_t)y << 16) >> 16)) +
 953:.\Include/arm_math.h ****                        ((((q31_t)x      ) >> 16) * (((q31_t)y      ) >> 16)) +
 954:.\Include/arm_math.h ****                        ( ((q31_t)sum    )                                  )   ));
 955:.\Include/arm_math.h ****   }
 956:.\Include/arm_math.h **** 
 957:.\Include/arm_math.h **** 
 958:.\Include/arm_math.h ****   /*
 959:.\Include/arm_math.h ****    * @brief C custom defined SMLADX for M3 and M0 processors
 960:.\Include/arm_math.h ****    */
 961:.\Include/arm_math.h ****   CMSIS_INLINE __STATIC_INLINE uint32_t __SMLADX(
 962:.\Include/arm_math.h ****   uint32_t x,
 963:.\Include/arm_math.h ****   uint32_t y,
 964:.\Include/arm_math.h ****   uint32_t sum)
 965:.\Include/arm_math.h ****   {
 966:.\Include/arm_math.h ****     return ((uint32_t)(((((q31_t)x << 16) >> 16) * (((q31_t)y      ) >> 16)) +
 967:.\Include/arm_math.h ****                        ((((q31_t)x      ) >> 16) * (((q31_t)y << 16) >> 16)) +
 968:.\Include/arm_math.h ****                        ( ((q31_t)sum    )                                  )   ));
 969:.\Include/arm_math.h ****   }
 970:.\Include/arm_math.h **** 
 971:.\Include/arm_math.h **** 
 972:.\Include/arm_math.h ****   /*
 973:.\Include/arm_math.h ****    * @brief C custom defined SMLSDX for M3 and M0 processors
 974:.\Include/arm_math.h ****    */
 975:.\Include/arm_math.h ****   CMSIS_INLINE __STATIC_INLINE uint32_t __SMLSDX(
 976:.\Include/arm_math.h ****   uint32_t x,
 977:.\Include/arm_math.h ****   uint32_t y,
 978:.\Include/arm_math.h ****   uint32_t sum)
 979:.\Include/arm_math.h ****   {
 980:.\Include/arm_math.h ****     return ((uint32_t)(((((q31_t)x << 16) >> 16) * (((q31_t)y      ) >> 16)) -
 981:.\Include/arm_math.h ****                        ((((q31_t)x      ) >> 16) * (((q31_t)y << 16) >> 16)) +
ARM GAS  C:\Users\fneves\AppData\Local\Temp\ccx8ai1h.s 			page 23


 982:.\Include/arm_math.h ****                        ( ((q31_t)sum    )                                  )   ));
 983:.\Include/arm_math.h ****   }
 984:.\Include/arm_math.h **** 
 985:.\Include/arm_math.h **** 
 986:.\Include/arm_math.h ****   /*
 987:.\Include/arm_math.h ****    * @brief C custom defined SMLALD for M3 and M0 processors
 988:.\Include/arm_math.h ****    */
 989:.\Include/arm_math.h ****   CMSIS_INLINE __STATIC_INLINE uint64_t __SMLALD(
 990:.\Include/arm_math.h ****   uint32_t x,
 991:.\Include/arm_math.h ****   uint32_t y,
 992:.\Include/arm_math.h ****   uint64_t sum)
 993:.\Include/arm_math.h ****   {
 994:.\Include/arm_math.h **** /*  return (sum + ((q15_t) (x >> 16) * (q15_t) (y >> 16)) + ((q15_t) x * (q15_t) y)); */
 995:.\Include/arm_math.h ****     return ((uint64_t)(((((q31_t)x << 16) >> 16) * (((q31_t)y << 16) >> 16)) +
 996:.\Include/arm_math.h ****                        ((((q31_t)x      ) >> 16) * (((q31_t)y      ) >> 16)) +
 997:.\Include/arm_math.h ****                        ( ((q63_t)sum    )                                  )   ));
 998:.\Include/arm_math.h ****   }
 999:.\Include/arm_math.h **** 
1000:.\Include/arm_math.h **** 
1001:.\Include/arm_math.h ****   /*
1002:.\Include/arm_math.h ****    * @brief C custom defined SMLALDX for M3 and M0 processors
1003:.\Include/arm_math.h ****    */
1004:.\Include/arm_math.h ****   CMSIS_INLINE __STATIC_INLINE uint64_t __SMLALDX(
1005:.\Include/arm_math.h ****   uint32_t x,
1006:.\Include/arm_math.h ****   uint32_t y,
1007:.\Include/arm_math.h ****   uint64_t sum)
1008:.\Include/arm_math.h ****   {
1009:.\Include/arm_math.h **** /*  return (sum + ((q15_t) (x >> 16) * (q15_t) y)) + ((q15_t) x * (q15_t) (y >> 16)); */
1010:.\Include/arm_math.h ****     return ((uint64_t)(((((q31_t)x << 16) >> 16) * (((q31_t)y      ) >> 16)) +
1011:.\Include/arm_math.h ****                        ((((q31_t)x      ) >> 16) * (((q31_t)y << 16) >> 16)) +
1012:.\Include/arm_math.h ****                        ( ((q63_t)sum    )                                  )   ));
1013:.\Include/arm_math.h ****   }
1014:.\Include/arm_math.h **** 
1015:.\Include/arm_math.h **** 
1016:.\Include/arm_math.h ****   /*
1017:.\Include/arm_math.h ****    * @brief C custom defined SMUAD for M3 and M0 processors
1018:.\Include/arm_math.h ****    */
1019:.\Include/arm_math.h ****   CMSIS_INLINE __STATIC_INLINE uint32_t __SMUAD(
1020:.\Include/arm_math.h ****   uint32_t x,
1021:.\Include/arm_math.h ****   uint32_t y)
1022:.\Include/arm_math.h ****   {
1023:.\Include/arm_math.h ****     return ((uint32_t)(((((q31_t)x << 16) >> 16) * (((q31_t)y << 16) >> 16)) +
 156              		.loc 2 1023 0
 157 00ce B823     		mov	r3, #184
 158 00d0 FB18     		add	r3, r7, r3
 159 00d2 1B68     		ldr	r3, [r3]
 160 00d4 1B04     		lsl	r3, r3, #16
 161 00d6 1B14     		asr	r3, r3, #16
 162 00d8 B422     		mov	r2, #180
 163 00da BA18     		add	r2, r7, r2
 164 00dc 1268     		ldr	r2, [r2]
 165 00de 1204     		lsl	r2, r2, #16
 166 00e0 1214     		asr	r2, r2, #16
 167 00e2 5A43     		mul	r2, r3
1024:.\Include/arm_math.h ****                        ((((q31_t)x      ) >> 16) * (((q31_t)y      ) >> 16))   ));
 168              		.loc 2 1024 0
 169 00e4 B823     		mov	r3, #184
ARM GAS  C:\Users\fneves\AppData\Local\Temp\ccx8ai1h.s 			page 24


 170 00e6 FB18     		add	r3, r7, r3
 171 00e8 1B68     		ldr	r3, [r3]
 172 00ea 1B14     		asr	r3, r3, #16
 173 00ec B421     		mov	r1, #180
 174 00ee 7918     		add	r1, r7, r1
 175 00f0 0968     		ldr	r1, [r1]
 176 00f2 0914     		asr	r1, r1, #16
 177 00f4 4B43     		mul	r3, r1
1023:.\Include/arm_math.h ****                        ((((q31_t)x      ) >> 16) * (((q31_t)y      ) >> 16))   ));
 178              		.loc 2 1023 0
 179 00f6 D318     		add	r3, r2, r3
 180              	.LBE27:
 181              	.LBE26:
 182              		.loc 1 118 0
 183 00f8 C022     		mov	r2, #192
 184 00fa BA18     		add	r2, r7, r2
 185 00fc 1360     		str	r3, [r2]
 119:Source\FilteringFunctions/arm_biquad_cascade_df1_fast_q15.c ****       /* acc =  b1 * x[n-1] + acc +=  b2 * x[n-2] + out */
 120:Source\FilteringFunctions/arm_biquad_cascade_df1_fast_q15.c ****       acc = __SMLAD(b1, state_in, out);
 186              		.loc 1 120 0
 187 00fe CC23     		mov	r3, #204
 188 0100 FB18     		add	r3, r7, r3
 189 0102 1968     		ldr	r1, [r3]
 190 0104 E423     		mov	r3, #228
 191 0106 FB18     		add	r3, r7, r3
 192 0108 1A68     		ldr	r2, [r3]
 193 010a C023     		mov	r3, #192
 194 010c FB18     		add	r3, r7, r3
 195 010e 1B68     		ldr	r3, [r3]
 196 0110 B020     		mov	r0, #176
 197 0112 3818     		add	r0, r7, r0
 198 0114 0160     		str	r1, [r0]
 199 0116 AC21     		mov	r1, #172
 200 0118 7918     		add	r1, r7, r1
 201 011a 0A60     		str	r2, [r1]
 202 011c A822     		mov	r2, #168
 203 011e BA18     		add	r2, r7, r2
 204 0120 1360     		str	r3, [r2]
 205              	.LBB28:
 206              	.LBB29:
 952:.\Include/arm_math.h ****                        ((((q31_t)x      ) >> 16) * (((q31_t)y      ) >> 16)) +
 207              		.loc 2 952 0
 208 0122 B023     		mov	r3, #176
 209 0124 FB18     		add	r3, r7, r3
 210 0126 1B68     		ldr	r3, [r3]
 211 0128 1B04     		lsl	r3, r3, #16
 212 012a 1B14     		asr	r3, r3, #16
 213 012c AC22     		mov	r2, #172
 214 012e BA18     		add	r2, r7, r2
 215 0130 1268     		ldr	r2, [r2]
 216 0132 1204     		lsl	r2, r2, #16
 217 0134 1214     		asr	r2, r2, #16
 218 0136 5A43     		mul	r2, r3
 953:.\Include/arm_math.h ****                        ( ((q31_t)sum    )                                  )   ));
 219              		.loc 2 953 0
 220 0138 B023     		mov	r3, #176
 221 013a FB18     		add	r3, r7, r3
ARM GAS  C:\Users\fneves\AppData\Local\Temp\ccx8ai1h.s 			page 25


 222 013c 1B68     		ldr	r3, [r3]
 223 013e 1B14     		asr	r3, r3, #16
 224 0140 AC21     		mov	r1, #172
 225 0142 7918     		add	r1, r7, r1
 226 0144 0968     		ldr	r1, [r1]
 227 0146 0914     		asr	r1, r1, #16
 228 0148 4B43     		mul	r3, r1
 952:.\Include/arm_math.h ****                        ((((q31_t)x      ) >> 16) * (((q31_t)y      ) >> 16)) +
 229              		.loc 2 952 0
 230 014a D218     		add	r2, r2, r3
 954:.\Include/arm_math.h ****   }
 231              		.loc 2 954 0
 232 014c A823     		mov	r3, #168
 233 014e FB18     		add	r3, r7, r3
 234 0150 1B68     		ldr	r3, [r3]
 953:.\Include/arm_math.h ****                        ( ((q31_t)sum    )                                  )   ));
 235              		.loc 2 953 0
 236 0152 D318     		add	r3, r2, r3
 237              	.LBE29:
 238              	.LBE28:
 239              		.loc 1 120 0
 240 0154 BC22     		mov	r2, #188
 241 0156 BA18     		add	r2, r7, r2
 242 0158 1360     		str	r3, [r2]
 121:Source\FilteringFunctions/arm_biquad_cascade_df1_fast_q15.c ****       /* acc +=  a1 * y[n-1] + acc +=  a2 * y[n-2] */
 122:Source\FilteringFunctions/arm_biquad_cascade_df1_fast_q15.c ****       acc = __SMLAD(a1, state_out, acc);
 243              		.loc 1 122 0
 244 015a C823     		mov	r3, #200
 245 015c FB18     		add	r3, r7, r3
 246 015e 1968     		ldr	r1, [r3]
 247 0160 E023     		mov	r3, #224
 248 0162 FB18     		add	r3, r7, r3
 249 0164 1A68     		ldr	r2, [r3]
 250 0166 BC23     		mov	r3, #188
 251 0168 FB18     		add	r3, r7, r3
 252 016a 1B68     		ldr	r3, [r3]
 253 016c A420     		mov	r0, #164
 254 016e 3818     		add	r0, r7, r0
 255 0170 0160     		str	r1, [r0]
 256 0172 A021     		mov	r1, #160
 257 0174 7918     		add	r1, r7, r1
 258 0176 0A60     		str	r2, [r1]
 259 0178 9C22     		mov	r2, #156
 260 017a BA18     		add	r2, r7, r2
 261 017c 1360     		str	r3, [r2]
 262              	.LBB30:
 263              	.LBB31:
 952:.\Include/arm_math.h ****                        ((((q31_t)x      ) >> 16) * (((q31_t)y      ) >> 16)) +
 264              		.loc 2 952 0
 265 017e A423     		mov	r3, #164
 266 0180 FB18     		add	r3, r7, r3
 267 0182 1B68     		ldr	r3, [r3]
 268 0184 1B04     		lsl	r3, r3, #16
 269 0186 1B14     		asr	r3, r3, #16
 270 0188 A022     		mov	r2, #160
 271 018a BA18     		add	r2, r7, r2
 272 018c 1268     		ldr	r2, [r2]
ARM GAS  C:\Users\fneves\AppData\Local\Temp\ccx8ai1h.s 			page 26


 273 018e 1204     		lsl	r2, r2, #16
 274 0190 1214     		asr	r2, r2, #16
 275 0192 5A43     		mul	r2, r3
 953:.\Include/arm_math.h ****                        ( ((q31_t)sum    )                                  )   ));
 276              		.loc 2 953 0
 277 0194 A423     		mov	r3, #164
 278 0196 FB18     		add	r3, r7, r3
 279 0198 1B68     		ldr	r3, [r3]
 280 019a 1B14     		asr	r3, r3, #16
 281 019c A021     		mov	r1, #160
 282 019e 7918     		add	r1, r7, r1
 283 01a0 0968     		ldr	r1, [r1]
 284 01a2 0914     		asr	r1, r1, #16
 285 01a4 4B43     		mul	r3, r1
 952:.\Include/arm_math.h ****                        ((((q31_t)x      ) >> 16) * (((q31_t)y      ) >> 16)) +
 286              		.loc 2 952 0
 287 01a6 D218     		add	r2, r2, r3
 954:.\Include/arm_math.h ****   }
 288              		.loc 2 954 0
 289 01a8 9C23     		mov	r3, #156
 290 01aa FB18     		add	r3, r7, r3
 291 01ac 1B68     		ldr	r3, [r3]
 953:.\Include/arm_math.h ****                        ( ((q31_t)sum    )                                  )   ));
 292              		.loc 2 953 0
 293 01ae D318     		add	r3, r2, r3
 294              	.LBE31:
 295              	.LBE30:
 296              		.loc 1 122 0
 297 01b0 BC22     		mov	r2, #188
 298 01b2 BA18     		add	r2, r7, r2
 299 01b4 1360     		str	r3, [r2]
 123:Source\FilteringFunctions/arm_biquad_cascade_df1_fast_q15.c **** 
 124:Source\FilteringFunctions/arm_biquad_cascade_df1_fast_q15.c ****       /* The result is converted from 3.29 to 1.31 and then saturation is applied */
 125:Source\FilteringFunctions/arm_biquad_cascade_df1_fast_q15.c ****       out = __SSAT((acc >> shift), 16);
 300              		.loc 1 125 0
 301 01b6 BC23     		mov	r3, #188
 302 01b8 FB18     		add	r3, r7, r3
 303 01ba 1A68     		ldr	r2, [r3]
 304 01bc D423     		mov	r3, #212
 305 01be FB18     		add	r3, r7, r3
 306 01c0 1B68     		ldr	r3, [r3]
 307 01c2 1A41     		asr	r2, r2, r3
 308 01c4 131C     		mov	r3, r2
 309 01c6 9822     		mov	r2, #152
 310 01c8 BA18     		add	r2, r7, r2
 311 01ca 1360     		str	r3, [r2]
 312 01cc 1023     		mov	r3, #16
 313 01ce 9422     		mov	r2, #148
 314 01d0 BA18     		add	r2, r7, r2
 315 01d2 1360     		str	r3, [r2]
 316              	.LBB32:
 317              	.LBB33:
 699:.\Include/arm_math.h ****     for (i = 0; i < (y - 1); i++)
 318              		.loc 2 699 0
 319 01d4 0123     		mov	r3, #1
 320 01d6 9022     		mov	r2, #144
 321 01d8 BA18     		add	r2, r7, r2
ARM GAS  C:\Users\fneves\AppData\Local\Temp\ccx8ai1h.s 			page 27


 322 01da 1360     		str	r3, [r2]
 700:.\Include/arm_math.h ****     {
 323              		.loc 2 700 0
 324 01dc 0023     		mov	r3, #0
 325 01de 8C22     		mov	r2, #140
 326 01e0 BA18     		add	r2, r7, r2
 327 01e2 1360     		str	r3, [r2]
 328 01e4 0DE0     		b	.L6
 329              	.L7:
 702:.\Include/arm_math.h ****     }
 330              		.loc 2 702 0
 331 01e6 9023     		mov	r3, #144
 332 01e8 FB18     		add	r3, r7, r3
 333 01ea 1B68     		ldr	r3, [r3]
 334 01ec 5B00     		lsl	r3, r3, #1
 335 01ee 9022     		mov	r2, #144
 336 01f0 BA18     		add	r2, r7, r2
 337 01f2 1360     		str	r3, [r2]
 700:.\Include/arm_math.h ****     {
 338              		.loc 2 700 0
 339 01f4 8C23     		mov	r3, #140
 340 01f6 FB18     		add	r3, r7, r3
 341 01f8 1B68     		ldr	r3, [r3]
 342 01fa 0133     		add	r3, r3, #1
 343 01fc 8C22     		mov	r2, #140
 344 01fe BA18     		add	r2, r7, r2
 345 0200 1360     		str	r3, [r2]
 346              	.L6:
 347 0202 9423     		mov	r3, #148
 348 0204 FB18     		add	r3, r7, r3
 349 0206 1B68     		ldr	r3, [r3]
 350 0208 013B     		sub	r3, r3, #1
 351 020a 8C22     		mov	r2, #140
 352 020c BA18     		add	r2, r7, r2
 353 020e 1268     		ldr	r2, [r2]
 354 0210 9A42     		cmp	r2, r3
 355 0212 E8D3     		bcc	.L7
 705:.\Include/arm_math.h ****     {
 356              		.loc 2 705 0
 357 0214 9823     		mov	r3, #152
 358 0216 FB18     		add	r3, r7, r3
 359 0218 1B68     		ldr	r3, [r3]
 360 021a 002B     		cmp	r3, #0
 361 021c 15DD     		ble	.L8
 707:.\Include/arm_math.h **** 
 362              		.loc 2 707 0
 363 021e 9023     		mov	r3, #144
 364 0220 FB18     		add	r3, r7, r3
 365 0222 1B68     		ldr	r3, [r3]
 366 0224 013B     		sub	r3, r3, #1
 367 0226 9022     		mov	r2, #144
 368 0228 BA18     		add	r2, r7, r2
 369 022a 1360     		str	r3, [r2]
 709:.\Include/arm_math.h ****       {
 370              		.loc 2 709 0
 371 022c 9823     		mov	r3, #152
 372 022e FB18     		add	r3, r7, r3
ARM GAS  C:\Users\fneves\AppData\Local\Temp\ccx8ai1h.s 			page 28


 373 0230 1A68     		ldr	r2, [r3]
 374 0232 9023     		mov	r3, #144
 375 0234 FB18     		add	r3, r7, r3
 376 0236 1B68     		ldr	r3, [r3]
 377 0238 9A42     		cmp	r2, r3
 378 023a 1CDD     		ble	.L33
 711:.\Include/arm_math.h ****       }
 379              		.loc 2 711 0
 380 023c 9023     		mov	r3, #144
 381 023e FB18     		add	r3, r7, r3
 382 0240 1B68     		ldr	r3, [r3]
 383 0242 9822     		mov	r2, #152
 384 0244 BA18     		add	r2, r7, r2
 385 0246 1360     		str	r3, [r2]
 386 0248 16E0     		b	.L10
 387              	.L8:
 716:.\Include/arm_math.h **** 
 388              		.loc 2 716 0
 389 024a 9023     		mov	r3, #144
 390 024c FB18     		add	r3, r7, r3
 391 024e 1B68     		ldr	r3, [r3]
 392 0250 5B42     		neg	r3, r3
 393 0252 8822     		mov	r2, #136
 394 0254 BA18     		add	r2, r7, r2
 395 0256 1360     		str	r3, [r2]
 718:.\Include/arm_math.h ****       {
 396              		.loc 2 718 0
 397 0258 9823     		mov	r3, #152
 398 025a FB18     		add	r3, r7, r3
 399 025c 1A68     		ldr	r2, [r3]
 400 025e 8823     		mov	r3, #136
 401 0260 FB18     		add	r3, r7, r3
 402 0262 1B68     		ldr	r3, [r3]
 403 0264 9A42     		cmp	r2, r3
 404 0266 07DA     		bge	.L10
 720:.\Include/arm_math.h ****       }
 405              		.loc 2 720 0
 406 0268 8823     		mov	r3, #136
 407 026a FB18     		add	r3, r7, r3
 408 026c 1B68     		ldr	r3, [r3]
 409 026e 9822     		mov	r2, #152
 410 0270 BA18     		add	r2, r7, r2
 411 0272 1360     		str	r3, [r2]
 412 0274 00E0     		b	.L10
 413              	.L33:
 711:.\Include/arm_math.h ****       }
 414              		.loc 2 711 0
 415 0276 C046     		mov	r8, r8
 416              	.L10:
 723:.\Include/arm_math.h ****   }
 417              		.loc 2 723 0
 418 0278 9823     		mov	r3, #152
 419 027a FB18     		add	r3, r7, r3
 420 027c 1B68     		ldr	r3, [r3]
 421              	.LBE33:
 422              	.LBE32:
 423              		.loc 1 125 0
ARM GAS  C:\Users\fneves\AppData\Local\Temp\ccx8ai1h.s 			page 29


 424 027e C022     		mov	r2, #192
 425 0280 BA18     		add	r2, r7, r2
 426 0282 1360     		str	r3, [r2]
 126:Source\FilteringFunctions/arm_biquad_cascade_df1_fast_q15.c **** 
 127:Source\FilteringFunctions/arm_biquad_cascade_df1_fast_q15.c ****       /* Every time after the output is computed state should be updated. */
 128:Source\FilteringFunctions/arm_biquad_cascade_df1_fast_q15.c ****       /* The states should be updated as:  */
 129:Source\FilteringFunctions/arm_biquad_cascade_df1_fast_q15.c ****       /* Xn2 = Xn1    */
 130:Source\FilteringFunctions/arm_biquad_cascade_df1_fast_q15.c ****       /* Xn1 = Xn     */
 131:Source\FilteringFunctions/arm_biquad_cascade_df1_fast_q15.c ****       /* Yn2 = Yn1    */
 132:Source\FilteringFunctions/arm_biquad_cascade_df1_fast_q15.c ****       /* Yn1 = acc   */
 133:Source\FilteringFunctions/arm_biquad_cascade_df1_fast_q15.c ****       /* x[n-N], x[n-N-1] are packed together to make state_in of type q31 */
 134:Source\FilteringFunctions/arm_biquad_cascade_df1_fast_q15.c ****       /* y[n-N], y[n-N-1] are packed together to make state_out of type q31 */
 135:Source\FilteringFunctions/arm_biquad_cascade_df1_fast_q15.c **** 
 136:Source\FilteringFunctions/arm_biquad_cascade_df1_fast_q15.c **** #ifndef  ARM_MATH_BIG_ENDIAN
 137:Source\FilteringFunctions/arm_biquad_cascade_df1_fast_q15.c **** 
 138:Source\FilteringFunctions/arm_biquad_cascade_df1_fast_q15.c ****       state_in = __PKHBT(in, state_in, 16);
 427              		.loc 1 138 0
 428 0284 C423     		mov	r3, #196
 429 0286 FB18     		add	r3, r7, r3
 430 0288 1B68     		ldr	r3, [r3]
 431 028a 1B04     		lsl	r3, r3, #16
 432 028c 1A0C     		lsr	r2, r3, #16
 433 028e E423     		mov	r3, #228
 434 0290 FB18     		add	r3, r7, r3
 435 0292 1B68     		ldr	r3, [r3]
 436 0294 1B04     		lsl	r3, r3, #16
 437 0296 1343     		orr	r3, r2
 438 0298 E422     		mov	r2, #228
 439 029a BA18     		add	r2, r7, r2
 440 029c 1360     		str	r3, [r2]
 139:Source\FilteringFunctions/arm_biquad_cascade_df1_fast_q15.c ****       state_out = __PKHBT(out, state_out, 16);
 441              		.loc 1 139 0
 442 029e C023     		mov	r3, #192
 443 02a0 FB18     		add	r3, r7, r3
 444 02a2 1B68     		ldr	r3, [r3]
 445 02a4 1B04     		lsl	r3, r3, #16
 446 02a6 1A0C     		lsr	r2, r3, #16
 447 02a8 E023     		mov	r3, #224
 448 02aa FB18     		add	r3, r7, r3
 449 02ac 1B68     		ldr	r3, [r3]
 450 02ae 1B04     		lsl	r3, r3, #16
 451 02b0 1343     		orr	r3, r2
 452 02b2 E022     		mov	r2, #224
 453 02b4 BA18     		add	r2, r7, r2
 454 02b6 1360     		str	r3, [r2]
 140:Source\FilteringFunctions/arm_biquad_cascade_df1_fast_q15.c **** 
 141:Source\FilteringFunctions/arm_biquad_cascade_df1_fast_q15.c **** #else
 142:Source\FilteringFunctions/arm_biquad_cascade_df1_fast_q15.c **** 
 143:Source\FilteringFunctions/arm_biquad_cascade_df1_fast_q15.c ****       state_in = __PKHBT(state_in >> 16, (in >> 16), 16);
 144:Source\FilteringFunctions/arm_biquad_cascade_df1_fast_q15.c ****       state_out = __PKHBT(state_out >> 16, (out), 16);
 145:Source\FilteringFunctions/arm_biquad_cascade_df1_fast_q15.c **** 
 146:Source\FilteringFunctions/arm_biquad_cascade_df1_fast_q15.c **** #endif /*      #ifndef  ARM_MATH_BIG_ENDIAN    */
 147:Source\FilteringFunctions/arm_biquad_cascade_df1_fast_q15.c **** 
 148:Source\FilteringFunctions/arm_biquad_cascade_df1_fast_q15.c ****       /* out =  b0 * x[n] + 0 * 0 */
 149:Source\FilteringFunctions/arm_biquad_cascade_df1_fast_q15.c ****       out = __SMUADX(b0, in);
 455              		.loc 1 149 0
 456 02b8 D023     		mov	r3, #208
ARM GAS  C:\Users\fneves\AppData\Local\Temp\ccx8ai1h.s 			page 30


 457 02ba FB18     		add	r3, r7, r3
 458 02bc 1A68     		ldr	r2, [r3]
 459 02be C423     		mov	r3, #196
 460 02c0 FB18     		add	r3, r7, r3
 461 02c2 1B68     		ldr	r3, [r3]
 462 02c4 8421     		mov	r1, #132
 463 02c6 7918     		add	r1, r7, r1
 464 02c8 0A60     		str	r2, [r1]
 465 02ca 8022     		mov	r2, #128
 466 02cc BA18     		add	r2, r7, r2
 467 02ce 1360     		str	r3, [r2]
 468              	.LBB34:
 469              	.LBB35:
 917:.\Include/arm_math.h ****                        ((((q31_t)x      ) >> 16) * (((q31_t)y << 16) >> 16))   ));
 470              		.loc 2 917 0
 471 02d0 8423     		mov	r3, #132
 472 02d2 FB18     		add	r3, r7, r3
 473 02d4 1B68     		ldr	r3, [r3]
 474 02d6 1B04     		lsl	r3, r3, #16
 475 02d8 1B14     		asr	r3, r3, #16
 476 02da 8022     		mov	r2, #128
 477 02dc BA18     		add	r2, r7, r2
 478 02de 1268     		ldr	r2, [r2]
 479 02e0 1214     		asr	r2, r2, #16
 480 02e2 5A43     		mul	r2, r3
 918:.\Include/arm_math.h ****   }
 481              		.loc 2 918 0
 482 02e4 8423     		mov	r3, #132
 483 02e6 FB18     		add	r3, r7, r3
 484 02e8 1B68     		ldr	r3, [r3]
 485 02ea 1B14     		asr	r3, r3, #16
 486 02ec 8021     		mov	r1, #128
 487 02ee 7918     		add	r1, r7, r1
 488 02f0 0968     		ldr	r1, [r1]
 489 02f2 0904     		lsl	r1, r1, #16
 490 02f4 0914     		asr	r1, r1, #16
 491 02f6 4B43     		mul	r3, r1
 917:.\Include/arm_math.h ****                        ((((q31_t)x      ) >> 16) * (((q31_t)y << 16) >> 16))   ));
 492              		.loc 2 917 0
 493 02f8 D318     		add	r3, r2, r3
 494              	.LBE35:
 495              	.LBE34:
 496              		.loc 1 149 0
 497 02fa C022     		mov	r2, #192
 498 02fc BA18     		add	r2, r7, r2
 499 02fe 1360     		str	r3, [r2]
 150:Source\FilteringFunctions/arm_biquad_cascade_df1_fast_q15.c ****       /* acc0 =  b1 * x[n-1] , acc0 +=  b2 * x[n-2] + out */
 151:Source\FilteringFunctions/arm_biquad_cascade_df1_fast_q15.c ****       acc = __SMLAD(b1, state_in, out);
 500              		.loc 1 151 0
 501 0300 CC23     		mov	r3, #204
 502 0302 FB18     		add	r3, r7, r3
 503 0304 1968     		ldr	r1, [r3]
 504 0306 E423     		mov	r3, #228
 505 0308 FB18     		add	r3, r7, r3
 506 030a 1A68     		ldr	r2, [r3]
 507 030c C023     		mov	r3, #192
 508 030e FB18     		add	r3, r7, r3
ARM GAS  C:\Users\fneves\AppData\Local\Temp\ccx8ai1h.s 			page 31


 509 0310 1B68     		ldr	r3, [r3]
 510 0312 F967     		str	r1, [r7, #124]
 511 0314 BA67     		str	r2, [r7, #120]
 512 0316 7B67     		str	r3, [r7, #116]
 513              	.LBB36:
 514              	.LBB37:
 952:.\Include/arm_math.h ****                        ((((q31_t)x      ) >> 16) * (((q31_t)y      ) >> 16)) +
 515              		.loc 2 952 0
 516 0318 FB6F     		ldr	r3, [r7, #124]
 517 031a 1B04     		lsl	r3, r3, #16
 518 031c 1B14     		asr	r3, r3, #16
 519 031e BA6F     		ldr	r2, [r7, #120]
 520 0320 1204     		lsl	r2, r2, #16
 521 0322 1214     		asr	r2, r2, #16
 522 0324 5A43     		mul	r2, r3
 953:.\Include/arm_math.h ****                        ( ((q31_t)sum    )                                  )   ));
 523              		.loc 2 953 0
 524 0326 FB6F     		ldr	r3, [r7, #124]
 525 0328 1B14     		asr	r3, r3, #16
 526 032a B96F     		ldr	r1, [r7, #120]
 527 032c 0914     		asr	r1, r1, #16
 528 032e 4B43     		mul	r3, r1
 952:.\Include/arm_math.h ****                        ((((q31_t)x      ) >> 16) * (((q31_t)y      ) >> 16)) +
 529              		.loc 2 952 0
 530 0330 D218     		add	r2, r2, r3
 954:.\Include/arm_math.h ****   }
 531              		.loc 2 954 0
 532 0332 7B6F     		ldr	r3, [r7, #116]
 953:.\Include/arm_math.h ****                        ( ((q31_t)sum    )                                  )   ));
 533              		.loc 2 953 0
 534 0334 D318     		add	r3, r2, r3
 535              	.LBE37:
 536              	.LBE36:
 537              		.loc 1 151 0
 538 0336 BC22     		mov	r2, #188
 539 0338 BA18     		add	r2, r7, r2
 540 033a 1360     		str	r3, [r2]
 152:Source\FilteringFunctions/arm_biquad_cascade_df1_fast_q15.c ****       /* acc +=  a1 * y[n-1] + acc +=  a2 * y[n-2] */
 153:Source\FilteringFunctions/arm_biquad_cascade_df1_fast_q15.c ****       acc = __SMLAD(a1, state_out, acc);
 541              		.loc 1 153 0
 542 033c C823     		mov	r3, #200
 543 033e FB18     		add	r3, r7, r3
 544 0340 1968     		ldr	r1, [r3]
 545 0342 E023     		mov	r3, #224
 546 0344 FB18     		add	r3, r7, r3
 547 0346 1A68     		ldr	r2, [r3]
 548 0348 BC23     		mov	r3, #188
 549 034a FB18     		add	r3, r7, r3
 550 034c 1B68     		ldr	r3, [r3]
 551 034e 3967     		str	r1, [r7, #112]
 552 0350 FA66     		str	r2, [r7, #108]
 553 0352 BB66     		str	r3, [r7, #104]
 554              	.LBB38:
 555              	.LBB39:
 952:.\Include/arm_math.h ****                        ((((q31_t)x      ) >> 16) * (((q31_t)y      ) >> 16)) +
 556              		.loc 2 952 0
 557 0354 3B6F     		ldr	r3, [r7, #112]
ARM GAS  C:\Users\fneves\AppData\Local\Temp\ccx8ai1h.s 			page 32


 558 0356 1B04     		lsl	r3, r3, #16
 559 0358 1B14     		asr	r3, r3, #16
 560 035a FA6E     		ldr	r2, [r7, #108]
 561 035c 1204     		lsl	r2, r2, #16
 562 035e 1214     		asr	r2, r2, #16
 563 0360 5A43     		mul	r2, r3
 953:.\Include/arm_math.h ****                        ( ((q31_t)sum    )                                  )   ));
 564              		.loc 2 953 0
 565 0362 3B6F     		ldr	r3, [r7, #112]
 566 0364 1B14     		asr	r3, r3, #16
 567 0366 F96E     		ldr	r1, [r7, #108]
 568 0368 0914     		asr	r1, r1, #16
 569 036a 4B43     		mul	r3, r1
 952:.\Include/arm_math.h ****                        ((((q31_t)x      ) >> 16) * (((q31_t)y      ) >> 16)) +
 570              		.loc 2 952 0
 571 036c D218     		add	r2, r2, r3
 954:.\Include/arm_math.h ****   }
 572              		.loc 2 954 0
 573 036e BB6E     		ldr	r3, [r7, #104]
 953:.\Include/arm_math.h ****                        ( ((q31_t)sum    )                                  )   ));
 574              		.loc 2 953 0
 575 0370 D318     		add	r3, r2, r3
 576              	.LBE39:
 577              	.LBE38:
 578              		.loc 1 153 0
 579 0372 BC22     		mov	r2, #188
 580 0374 BA18     		add	r2, r7, r2
 581 0376 1360     		str	r3, [r2]
 154:Source\FilteringFunctions/arm_biquad_cascade_df1_fast_q15.c **** 
 155:Source\FilteringFunctions/arm_biquad_cascade_df1_fast_q15.c ****       /* The result is converted from 3.29 to 1.31 and then saturation is applied */
 156:Source\FilteringFunctions/arm_biquad_cascade_df1_fast_q15.c ****       out = __SSAT((acc >> shift), 16);
 582              		.loc 1 156 0
 583 0378 BC23     		mov	r3, #188
 584 037a FB18     		add	r3, r7, r3
 585 037c 1A68     		ldr	r2, [r3]
 586 037e D423     		mov	r3, #212
 587 0380 FB18     		add	r3, r7, r3
 588 0382 1B68     		ldr	r3, [r3]
 589 0384 1A41     		asr	r2, r2, r3
 590 0386 131C     		mov	r3, r2
 591 0388 7B66     		str	r3, [r7, #100]
 592 038a 1023     		mov	r3, #16
 593 038c 3B66     		str	r3, [r7, #96]
 594              	.LBB40:
 595              	.LBB41:
 699:.\Include/arm_math.h ****     for (i = 0; i < (y - 1); i++)
 596              		.loc 2 699 0
 597 038e 0123     		mov	r3, #1
 598 0390 FB65     		str	r3, [r7, #92]
 700:.\Include/arm_math.h ****     {
 599              		.loc 2 700 0
 600 0392 0023     		mov	r3, #0
 601 0394 BB65     		str	r3, [r7, #88]
 602 0396 05E0     		b	.L15
 603              	.L16:
 702:.\Include/arm_math.h ****     }
 604              		.loc 2 702 0
ARM GAS  C:\Users\fneves\AppData\Local\Temp\ccx8ai1h.s 			page 33


 605 0398 FB6D     		ldr	r3, [r7, #92]
 606 039a 5B00     		lsl	r3, r3, #1
 607 039c FB65     		str	r3, [r7, #92]
 700:.\Include/arm_math.h ****     {
 608              		.loc 2 700 0
 609 039e BB6D     		ldr	r3, [r7, #88]
 610 03a0 0133     		add	r3, r3, #1
 611 03a2 BB65     		str	r3, [r7, #88]
 612              	.L15:
 613 03a4 3B6E     		ldr	r3, [r7, #96]
 614 03a6 013B     		sub	r3, r3, #1
 615 03a8 BA6D     		ldr	r2, [r7, #88]
 616 03aa 9A42     		cmp	r2, r3
 617 03ac F4D3     		bcc	.L16
 705:.\Include/arm_math.h ****     {
 618              		.loc 2 705 0
 619 03ae 7B6E     		ldr	r3, [r7, #100]
 620 03b0 002B     		cmp	r3, #0
 621 03b2 09DD     		ble	.L17
 707:.\Include/arm_math.h **** 
 622              		.loc 2 707 0
 623 03b4 FB6D     		ldr	r3, [r7, #92]
 624 03b6 013B     		sub	r3, r3, #1
 625 03b8 FB65     		str	r3, [r7, #92]
 709:.\Include/arm_math.h ****       {
 626              		.loc 2 709 0
 627 03ba 7A6E     		ldr	r2, [r7, #100]
 628 03bc FB6D     		ldr	r3, [r7, #92]
 629 03be 9A42     		cmp	r2, r3
 630 03c0 0CDD     		ble	.L34
 711:.\Include/arm_math.h ****       }
 631              		.loc 2 711 0
 632 03c2 FB6D     		ldr	r3, [r7, #92]
 633 03c4 7B66     		str	r3, [r7, #100]
 634 03c6 0AE0     		b	.L19
 635              	.L17:
 716:.\Include/arm_math.h **** 
 636              		.loc 2 716 0
 637 03c8 FB6D     		ldr	r3, [r7, #92]
 638 03ca 5B42     		neg	r3, r3
 639 03cc 7B65     		str	r3, [r7, #84]
 718:.\Include/arm_math.h ****       {
 640              		.loc 2 718 0
 641 03ce 7A6E     		ldr	r2, [r7, #100]
 642 03d0 7B6D     		ldr	r3, [r7, #84]
 643 03d2 9A42     		cmp	r2, r3
 644 03d4 03DA     		bge	.L19
 720:.\Include/arm_math.h ****       }
 645              		.loc 2 720 0
 646 03d6 7B6D     		ldr	r3, [r7, #84]
 647 03d8 7B66     		str	r3, [r7, #100]
 648 03da 00E0     		b	.L19
 649              	.L34:
 711:.\Include/arm_math.h ****       }
 650              		.loc 2 711 0
 651 03dc C046     		mov	r8, r8
 652              	.L19:
ARM GAS  C:\Users\fneves\AppData\Local\Temp\ccx8ai1h.s 			page 34


 723:.\Include/arm_math.h ****   }
 653              		.loc 2 723 0
 654 03de 7B6E     		ldr	r3, [r7, #100]
 655              	.LBE41:
 656              	.LBE40:
 657              		.loc 1 156 0
 658 03e0 C022     		mov	r2, #192
 659 03e2 BA18     		add	r2, r7, r2
 660 03e4 1360     		str	r3, [r2]
 157:Source\FilteringFunctions/arm_biquad_cascade_df1_fast_q15.c **** 
 158:Source\FilteringFunctions/arm_biquad_cascade_df1_fast_q15.c **** 
 159:Source\FilteringFunctions/arm_biquad_cascade_df1_fast_q15.c ****       /* Store the output in the destination buffer. */
 160:Source\FilteringFunctions/arm_biquad_cascade_df1_fast_q15.c **** 
 161:Source\FilteringFunctions/arm_biquad_cascade_df1_fast_q15.c **** #ifndef  ARM_MATH_BIG_ENDIAN
 162:Source\FilteringFunctions/arm_biquad_cascade_df1_fast_q15.c **** 
 163:Source\FilteringFunctions/arm_biquad_cascade_df1_fast_q15.c ****       *__SIMD32(pOut)++ = __PKHBT(state_out, out, 16);
 661              		.loc 1 163 0
 662 03e6 1823     		mov	r3, #24
 663 03e8 FB18     		add	r3, r7, r3
 664 03ea 1A68     		ldr	r2, [r3]
 665 03ec 111D     		add	r1, r2, #4
 666 03ee 1960     		str	r1, [r3]
 667 03f0 E023     		mov	r3, #224
 668 03f2 FB18     		add	r3, r7, r3
 669 03f4 1B68     		ldr	r3, [r3]
 670 03f6 1B04     		lsl	r3, r3, #16
 671 03f8 190C     		lsr	r1, r3, #16
 672 03fa C023     		mov	r3, #192
 673 03fc FB18     		add	r3, r7, r3
 674 03fe 1B68     		ldr	r3, [r3]
 675 0400 1B04     		lsl	r3, r3, #16
 676 0402 0B43     		orr	r3, r1
 677 0404 1360     		str	r3, [r2]
 164:Source\FilteringFunctions/arm_biquad_cascade_df1_fast_q15.c **** 
 165:Source\FilteringFunctions/arm_biquad_cascade_df1_fast_q15.c **** #else
 166:Source\FilteringFunctions/arm_biquad_cascade_df1_fast_q15.c **** 
 167:Source\FilteringFunctions/arm_biquad_cascade_df1_fast_q15.c ****       *__SIMD32(pOut)++ = __PKHBT(out, state_out >> 16, 16);
 168:Source\FilteringFunctions/arm_biquad_cascade_df1_fast_q15.c **** 
 169:Source\FilteringFunctions/arm_biquad_cascade_df1_fast_q15.c **** #endif /* #ifndef  ARM_MATH_BIG_ENDIAN */
 170:Source\FilteringFunctions/arm_biquad_cascade_df1_fast_q15.c **** 
 171:Source\FilteringFunctions/arm_biquad_cascade_df1_fast_q15.c ****       /* Every time after the output is computed state should be updated. */
 172:Source\FilteringFunctions/arm_biquad_cascade_df1_fast_q15.c ****       /* The states should be updated as:  */
 173:Source\FilteringFunctions/arm_biquad_cascade_df1_fast_q15.c ****       /* Xn2 = Xn1    */
 174:Source\FilteringFunctions/arm_biquad_cascade_df1_fast_q15.c ****       /* Xn1 = Xn     */
 175:Source\FilteringFunctions/arm_biquad_cascade_df1_fast_q15.c ****       /* Yn2 = Yn1    */
 176:Source\FilteringFunctions/arm_biquad_cascade_df1_fast_q15.c ****       /* Yn1 = acc   */
 177:Source\FilteringFunctions/arm_biquad_cascade_df1_fast_q15.c ****       /* x[n-N], x[n-N-1] are packed together to make state_in of type q31 */
 178:Source\FilteringFunctions/arm_biquad_cascade_df1_fast_q15.c ****       /* y[n-N], y[n-N-1] are packed together to make state_out of type q31 */
 179:Source\FilteringFunctions/arm_biquad_cascade_df1_fast_q15.c **** 
 180:Source\FilteringFunctions/arm_biquad_cascade_df1_fast_q15.c **** #ifndef  ARM_MATH_BIG_ENDIAN
 181:Source\FilteringFunctions/arm_biquad_cascade_df1_fast_q15.c **** 
 182:Source\FilteringFunctions/arm_biquad_cascade_df1_fast_q15.c ****       state_in = __PKHBT(in >> 16, state_in, 16);
 678              		.loc 1 182 0
 679 0406 C423     		mov	r3, #196
 680 0408 FB18     		add	r3, r7, r3
 681 040a 1B68     		ldr	r3, [r3]
 682 040c 1B0C     		lsr	r3, r3, #16
ARM GAS  C:\Users\fneves\AppData\Local\Temp\ccx8ai1h.s 			page 35


 683 040e 1A1C     		mov	r2, r3
 684 0410 E423     		mov	r3, #228
 685 0412 FB18     		add	r3, r7, r3
 686 0414 1B68     		ldr	r3, [r3]
 687 0416 1B04     		lsl	r3, r3, #16
 688 0418 1343     		orr	r3, r2
 689 041a E422     		mov	r2, #228
 690 041c BA18     		add	r2, r7, r2
 691 041e 1360     		str	r3, [r2]
 183:Source\FilteringFunctions/arm_biquad_cascade_df1_fast_q15.c ****       state_out = __PKHBT(out, state_out, 16);
 692              		.loc 1 183 0
 693 0420 C023     		mov	r3, #192
 694 0422 FB18     		add	r3, r7, r3
 695 0424 1B68     		ldr	r3, [r3]
 696 0426 1B04     		lsl	r3, r3, #16
 697 0428 1A0C     		lsr	r2, r3, #16
 698 042a E023     		mov	r3, #224
 699 042c FB18     		add	r3, r7, r3
 700 042e 1B68     		ldr	r3, [r3]
 701 0430 1B04     		lsl	r3, r3, #16
 702 0432 1343     		orr	r3, r2
 703 0434 E022     		mov	r2, #224
 704 0436 BA18     		add	r2, r7, r2
 705 0438 1360     		str	r3, [r2]
 184:Source\FilteringFunctions/arm_biquad_cascade_df1_fast_q15.c **** 
 185:Source\FilteringFunctions/arm_biquad_cascade_df1_fast_q15.c **** #else
 186:Source\FilteringFunctions/arm_biquad_cascade_df1_fast_q15.c **** 
 187:Source\FilteringFunctions/arm_biquad_cascade_df1_fast_q15.c ****       state_in = __PKHBT(state_in >> 16, in, 16);
 188:Source\FilteringFunctions/arm_biquad_cascade_df1_fast_q15.c ****       state_out = __PKHBT(state_out >> 16, out, 16);
 189:Source\FilteringFunctions/arm_biquad_cascade_df1_fast_q15.c **** 
 190:Source\FilteringFunctions/arm_biquad_cascade_df1_fast_q15.c **** #endif /* #ifndef  ARM_MATH_BIG_ENDIAN */
 191:Source\FilteringFunctions/arm_biquad_cascade_df1_fast_q15.c **** 
 192:Source\FilteringFunctions/arm_biquad_cascade_df1_fast_q15.c **** 
 193:Source\FilteringFunctions/arm_biquad_cascade_df1_fast_q15.c ****       /* Decrement the loop counter */
 194:Source\FilteringFunctions/arm_biquad_cascade_df1_fast_q15.c ****       sample--;
 706              		.loc 1 194 0
 707 043a DC23     		mov	r3, #220
 708 043c FB18     		add	r3, r7, r3
 709 043e 1B68     		ldr	r3, [r3]
 710 0440 013B     		sub	r3, r3, #1
 711 0442 DC22     		mov	r2, #220
 712 0444 BA18     		add	r2, r7, r2
 713 0446 1360     		str	r3, [r2]
 714              	.L2:
 111:Source\FilteringFunctions/arm_biquad_cascade_df1_fast_q15.c ****     {
 715              		.loc 1 111 0
 716 0448 DC23     		mov	r3, #220
 717 044a FB18     		add	r3, r7, r3
 718 044c 1B68     		ldr	r3, [r3]
 719 044e 002B     		cmp	r3, #0
 720 0450 00D0     		beq	.LCB626
 721 0452 27E6     		b	.L21	@long jump
 722              	.LCB626:
 195:Source\FilteringFunctions/arm_biquad_cascade_df1_fast_q15.c **** 
 196:Source\FilteringFunctions/arm_biquad_cascade_df1_fast_q15.c ****     }
 197:Source\FilteringFunctions/arm_biquad_cascade_df1_fast_q15.c **** 
 198:Source\FilteringFunctions/arm_biquad_cascade_df1_fast_q15.c ****     /* If the blockSize is not a multiple of 2, compute any remaining output samples here.
ARM GAS  C:\Users\fneves\AppData\Local\Temp\ccx8ai1h.s 			page 36


 199:Source\FilteringFunctions/arm_biquad_cascade_df1_fast_q15.c ****      ** No loop unrolling is used. */
 200:Source\FilteringFunctions/arm_biquad_cascade_df1_fast_q15.c **** 
 201:Source\FilteringFunctions/arm_biquad_cascade_df1_fast_q15.c ****     if ((blockSize & 0x1u) != 0u)
 723              		.loc 1 201 0
 724 0454 3B68     		ldr	r3, [r7]
 725 0456 0122     		mov	r2, #1
 726 0458 1340     		and	r3, r2
 727 045a 00D1     		bne	.LCB631
 728 045c B4E0     		b	.L22	@long jump
 729              	.LCB631:
 202:Source\FilteringFunctions/arm_biquad_cascade_df1_fast_q15.c ****     {
 203:Source\FilteringFunctions/arm_biquad_cascade_df1_fast_q15.c ****       /* Read the input */
 204:Source\FilteringFunctions/arm_biquad_cascade_df1_fast_q15.c ****       in = *pIn++;
 730              		.loc 1 204 0
 731 045e FB69     		ldr	r3, [r7, #28]
 732 0460 9A1C     		add	r2, r3, #2
 733 0462 FA61     		str	r2, [r7, #28]
 734 0464 1B88     		ldrh	r3, [r3]
 735 0466 1BB2     		sxth	r3, r3
 736 0468 C422     		mov	r2, #196
 737 046a BA18     		add	r2, r7, r2
 738 046c 1360     		str	r3, [r2]
 205:Source\FilteringFunctions/arm_biquad_cascade_df1_fast_q15.c **** 
 206:Source\FilteringFunctions/arm_biquad_cascade_df1_fast_q15.c ****       /* out =  b0 * x[n] + 0 * 0 */
 207:Source\FilteringFunctions/arm_biquad_cascade_df1_fast_q15.c **** 
 208:Source\FilteringFunctions/arm_biquad_cascade_df1_fast_q15.c **** #ifndef  ARM_MATH_BIG_ENDIAN
 209:Source\FilteringFunctions/arm_biquad_cascade_df1_fast_q15.c **** 
 210:Source\FilteringFunctions/arm_biquad_cascade_df1_fast_q15.c ****       out = __SMUAD(b0, in);
 739              		.loc 1 210 0
 740 046e D023     		mov	r3, #208
 741 0470 FB18     		add	r3, r7, r3
 742 0472 1A68     		ldr	r2, [r3]
 743 0474 C423     		mov	r3, #196
 744 0476 FB18     		add	r3, r7, r3
 745 0478 1B68     		ldr	r3, [r3]
 746 047a 3A65     		str	r2, [r7, #80]
 747 047c FB64     		str	r3, [r7, #76]
 748              	.LBB42:
 749              	.LBB43:
1023:.\Include/arm_math.h ****                        ((((q31_t)x      ) >> 16) * (((q31_t)y      ) >> 16))   ));
 750              		.loc 2 1023 0
 751 047e 3B6D     		ldr	r3, [r7, #80]
 752 0480 1B04     		lsl	r3, r3, #16
 753 0482 1B14     		asr	r3, r3, #16
 754 0484 FA6C     		ldr	r2, [r7, #76]
 755 0486 1204     		lsl	r2, r2, #16
 756 0488 1214     		asr	r2, r2, #16
 757 048a 5A43     		mul	r2, r3
 758              		.loc 2 1024 0
 759 048c 3B6D     		ldr	r3, [r7, #80]
 760 048e 1B14     		asr	r3, r3, #16
 761 0490 F96C     		ldr	r1, [r7, #76]
 762 0492 0914     		asr	r1, r1, #16
 763 0494 4B43     		mul	r3, r1
1023:.\Include/arm_math.h ****                        ((((q31_t)x      ) >> 16) * (((q31_t)y      ) >> 16))   ));
 764              		.loc 2 1023 0
 765 0496 D318     		add	r3, r2, r3
ARM GAS  C:\Users\fneves\AppData\Local\Temp\ccx8ai1h.s 			page 37


 766              	.LBE43:
 767              	.LBE42:
 768              		.loc 1 210 0
 769 0498 C022     		mov	r2, #192
 770 049a BA18     		add	r2, r7, r2
 771 049c 1360     		str	r3, [r2]
 211:Source\FilteringFunctions/arm_biquad_cascade_df1_fast_q15.c **** 
 212:Source\FilteringFunctions/arm_biquad_cascade_df1_fast_q15.c **** #else
 213:Source\FilteringFunctions/arm_biquad_cascade_df1_fast_q15.c **** 
 214:Source\FilteringFunctions/arm_biquad_cascade_df1_fast_q15.c ****       out = __SMUADX(b0, in);
 215:Source\FilteringFunctions/arm_biquad_cascade_df1_fast_q15.c **** 
 216:Source\FilteringFunctions/arm_biquad_cascade_df1_fast_q15.c **** #endif /* #ifndef  ARM_MATH_BIG_ENDIAN */
 217:Source\FilteringFunctions/arm_biquad_cascade_df1_fast_q15.c **** 
 218:Source\FilteringFunctions/arm_biquad_cascade_df1_fast_q15.c ****       /* acc =  b1 * x[n-1], acc +=  b2 * x[n-2] + out */
 219:Source\FilteringFunctions/arm_biquad_cascade_df1_fast_q15.c ****       acc = __SMLAD(b1, state_in, out);
 772              		.loc 1 219 0
 773 049e CC23     		mov	r3, #204
 774 04a0 FB18     		add	r3, r7, r3
 775 04a2 1968     		ldr	r1, [r3]
 776 04a4 E423     		mov	r3, #228
 777 04a6 FB18     		add	r3, r7, r3
 778 04a8 1A68     		ldr	r2, [r3]
 779 04aa C023     		mov	r3, #192
 780 04ac FB18     		add	r3, r7, r3
 781 04ae 1B68     		ldr	r3, [r3]
 782 04b0 B964     		str	r1, [r7, #72]
 783 04b2 7A64     		str	r2, [r7, #68]
 784 04b4 3B64     		str	r3, [r7, #64]
 785              	.LBB44:
 786              	.LBB45:
 952:.\Include/arm_math.h ****                        ((((q31_t)x      ) >> 16) * (((q31_t)y      ) >> 16)) +
 787              		.loc 2 952 0
 788 04b6 BB6C     		ldr	r3, [r7, #72]
 789 04b8 1B04     		lsl	r3, r3, #16
 790 04ba 1B14     		asr	r3, r3, #16
 791 04bc 7A6C     		ldr	r2, [r7, #68]
 792 04be 1204     		lsl	r2, r2, #16
 793 04c0 1214     		asr	r2, r2, #16
 794 04c2 5A43     		mul	r2, r3
 953:.\Include/arm_math.h ****                        ( ((q31_t)sum    )                                  )   ));
 795              		.loc 2 953 0
 796 04c4 BB6C     		ldr	r3, [r7, #72]
 797 04c6 1B14     		asr	r3, r3, #16
 798 04c8 796C     		ldr	r1, [r7, #68]
 799 04ca 0914     		asr	r1, r1, #16
 800 04cc 4B43     		mul	r3, r1
 952:.\Include/arm_math.h ****                        ((((q31_t)x      ) >> 16) * (((q31_t)y      ) >> 16)) +
 801              		.loc 2 952 0
 802 04ce D218     		add	r2, r2, r3
 954:.\Include/arm_math.h ****   }
 803              		.loc 2 954 0
 804 04d0 3B6C     		ldr	r3, [r7, #64]
 953:.\Include/arm_math.h ****                        ( ((q31_t)sum    )                                  )   ));
 805              		.loc 2 953 0
 806 04d2 D318     		add	r3, r2, r3
 807              	.LBE45:
 808              	.LBE44:
ARM GAS  C:\Users\fneves\AppData\Local\Temp\ccx8ai1h.s 			page 38


 809              		.loc 1 219 0
 810 04d4 BC22     		mov	r2, #188
 811 04d6 BA18     		add	r2, r7, r2
 812 04d8 1360     		str	r3, [r2]
 220:Source\FilteringFunctions/arm_biquad_cascade_df1_fast_q15.c ****       /* acc +=  a1 * y[n-1] + acc +=  a2 * y[n-2] */
 221:Source\FilteringFunctions/arm_biquad_cascade_df1_fast_q15.c ****       acc = __SMLAD(a1, state_out, acc);
 813              		.loc 1 221 0
 814 04da C823     		mov	r3, #200
 815 04dc FB18     		add	r3, r7, r3
 816 04de 1968     		ldr	r1, [r3]
 817 04e0 E023     		mov	r3, #224
 818 04e2 FB18     		add	r3, r7, r3
 819 04e4 1A68     		ldr	r2, [r3]
 820 04e6 BC23     		mov	r3, #188
 821 04e8 FB18     		add	r3, r7, r3
 822 04ea 1B68     		ldr	r3, [r3]
 823 04ec F963     		str	r1, [r7, #60]
 824 04ee BA63     		str	r2, [r7, #56]
 825 04f0 7B63     		str	r3, [r7, #52]
 826              	.LBB46:
 827              	.LBB47:
 952:.\Include/arm_math.h ****                        ((((q31_t)x      ) >> 16) * (((q31_t)y      ) >> 16)) +
 828              		.loc 2 952 0
 829 04f2 FB6B     		ldr	r3, [r7, #60]
 830 04f4 1B04     		lsl	r3, r3, #16
 831 04f6 1B14     		asr	r3, r3, #16
 832 04f8 BA6B     		ldr	r2, [r7, #56]
 833 04fa 1204     		lsl	r2, r2, #16
 834 04fc 1214     		asr	r2, r2, #16
 835 04fe 5A43     		mul	r2, r3
 953:.\Include/arm_math.h ****                        ( ((q31_t)sum    )                                  )   ));
 836              		.loc 2 953 0
 837 0500 FB6B     		ldr	r3, [r7, #60]
 838 0502 1B14     		asr	r3, r3, #16
 839 0504 B96B     		ldr	r1, [r7, #56]
 840 0506 0914     		asr	r1, r1, #16
 841 0508 4B43     		mul	r3, r1
 952:.\Include/arm_math.h ****                        ((((q31_t)x      ) >> 16) * (((q31_t)y      ) >> 16)) +
 842              		.loc 2 952 0
 843 050a D218     		add	r2, r2, r3
 954:.\Include/arm_math.h ****   }
 844              		.loc 2 954 0
 845 050c 7B6B     		ldr	r3, [r7, #52]
 953:.\Include/arm_math.h ****                        ( ((q31_t)sum    )                                  )   ));
 846              		.loc 2 953 0
 847 050e D318     		add	r3, r2, r3
 848              	.LBE47:
 849              	.LBE46:
 850              		.loc 1 221 0
 851 0510 BC22     		mov	r2, #188
 852 0512 BA18     		add	r2, r7, r2
 853 0514 1360     		str	r3, [r2]
 222:Source\FilteringFunctions/arm_biquad_cascade_df1_fast_q15.c **** 
 223:Source\FilteringFunctions/arm_biquad_cascade_df1_fast_q15.c ****       /* The result is converted from 3.29 to 1.31 and then saturation is applied */
 224:Source\FilteringFunctions/arm_biquad_cascade_df1_fast_q15.c ****       out = __SSAT((acc >> shift), 16);
 854              		.loc 1 224 0
 855 0516 BC23     		mov	r3, #188
ARM GAS  C:\Users\fneves\AppData\Local\Temp\ccx8ai1h.s 			page 39


 856 0518 FB18     		add	r3, r7, r3
 857 051a 1A68     		ldr	r2, [r3]
 858 051c D423     		mov	r3, #212
 859 051e FB18     		add	r3, r7, r3
 860 0520 1B68     		ldr	r3, [r3]
 861 0522 1A41     		asr	r2, r2, r3
 862 0524 131C     		mov	r3, r2
 863 0526 3B63     		str	r3, [r7, #48]
 864 0528 1023     		mov	r3, #16
 865 052a FB62     		str	r3, [r7, #44]
 866              	.LBB48:
 867              	.LBB49:
 699:.\Include/arm_math.h ****     for (i = 0; i < (y - 1); i++)
 868              		.loc 2 699 0
 869 052c 0123     		mov	r3, #1
 870 052e BB62     		str	r3, [r7, #40]
 700:.\Include/arm_math.h ****     {
 871              		.loc 2 700 0
 872 0530 0023     		mov	r3, #0
 873 0532 7B62     		str	r3, [r7, #36]
 874 0534 05E0     		b	.L26
 875              	.L27:
 702:.\Include/arm_math.h ****     }
 876              		.loc 2 702 0
 877 0536 BB6A     		ldr	r3, [r7, #40]
 878 0538 5B00     		lsl	r3, r3, #1
 879 053a BB62     		str	r3, [r7, #40]
 700:.\Include/arm_math.h ****     {
 880              		.loc 2 700 0
 881 053c 7B6A     		ldr	r3, [r7, #36]
 882 053e 0133     		add	r3, r3, #1
 883 0540 7B62     		str	r3, [r7, #36]
 884              	.L26:
 885 0542 FB6A     		ldr	r3, [r7, #44]
 886 0544 013B     		sub	r3, r3, #1
 887 0546 7A6A     		ldr	r2, [r7, #36]
 888 0548 9A42     		cmp	r2, r3
 889 054a F4D3     		bcc	.L27
 705:.\Include/arm_math.h ****     {
 890              		.loc 2 705 0
 891 054c 3B6B     		ldr	r3, [r7, #48]
 892 054e 002B     		cmp	r3, #0
 893 0550 09DD     		ble	.L28
 707:.\Include/arm_math.h **** 
 894              		.loc 2 707 0
 895 0552 BB6A     		ldr	r3, [r7, #40]
 896 0554 013B     		sub	r3, r3, #1
 897 0556 BB62     		str	r3, [r7, #40]
 709:.\Include/arm_math.h ****       {
 898              		.loc 2 709 0
 899 0558 3A6B     		ldr	r2, [r7, #48]
 900 055a BB6A     		ldr	r3, [r7, #40]
 901 055c 9A42     		cmp	r2, r3
 902 055e 0CDD     		ble	.L35
 711:.\Include/arm_math.h ****       }
 903              		.loc 2 711 0
 904 0560 BB6A     		ldr	r3, [r7, #40]
ARM GAS  C:\Users\fneves\AppData\Local\Temp\ccx8ai1h.s 			page 40


 905 0562 3B63     		str	r3, [r7, #48]
 906 0564 0AE0     		b	.L30
 907              	.L28:
 716:.\Include/arm_math.h **** 
 908              		.loc 2 716 0
 909 0566 BB6A     		ldr	r3, [r7, #40]
 910 0568 5B42     		neg	r3, r3
 911 056a 3B62     		str	r3, [r7, #32]
 718:.\Include/arm_math.h ****       {
 912              		.loc 2 718 0
 913 056c 3A6B     		ldr	r2, [r7, #48]
 914 056e 3B6A     		ldr	r3, [r7, #32]
 915 0570 9A42     		cmp	r2, r3
 916 0572 03DA     		bge	.L30
 720:.\Include/arm_math.h ****       }
 917              		.loc 2 720 0
 918 0574 3B6A     		ldr	r3, [r7, #32]
 919 0576 3B63     		str	r3, [r7, #48]
 920 0578 00E0     		b	.L30
 921              	.L35:
 711:.\Include/arm_math.h ****       }
 922              		.loc 2 711 0
 923 057a C046     		mov	r8, r8
 924              	.L30:
 723:.\Include/arm_math.h ****   }
 925              		.loc 2 723 0
 926 057c 3B6B     		ldr	r3, [r7, #48]
 927              	.LBE49:
 928              	.LBE48:
 929              		.loc 1 224 0
 930 057e C022     		mov	r2, #192
 931 0580 BA18     		add	r2, r7, r2
 932 0582 1360     		str	r3, [r2]
 225:Source\FilteringFunctions/arm_biquad_cascade_df1_fast_q15.c **** 
 226:Source\FilteringFunctions/arm_biquad_cascade_df1_fast_q15.c ****       /* Store the output in the destination buffer. */
 227:Source\FilteringFunctions/arm_biquad_cascade_df1_fast_q15.c ****       *pOut++ = (q15_t) out;
 933              		.loc 1 227 0
 934 0584 BB69     		ldr	r3, [r7, #24]
 935 0586 9A1C     		add	r2, r3, #2
 936 0588 BA61     		str	r2, [r7, #24]
 937 058a C022     		mov	r2, #192
 938 058c BA18     		add	r2, r7, r2
 939 058e 1268     		ldr	r2, [r2]
 940 0590 92B2     		uxth	r2, r2
 941 0592 1A80     		strh	r2, [r3]
 228:Source\FilteringFunctions/arm_biquad_cascade_df1_fast_q15.c **** 
 229:Source\FilteringFunctions/arm_biquad_cascade_df1_fast_q15.c ****       /* Every time after the output is computed state should be updated. */
 230:Source\FilteringFunctions/arm_biquad_cascade_df1_fast_q15.c ****       /* The states should be updated as:  */
 231:Source\FilteringFunctions/arm_biquad_cascade_df1_fast_q15.c ****       /* Xn2 = Xn1    */
 232:Source\FilteringFunctions/arm_biquad_cascade_df1_fast_q15.c ****       /* Xn1 = Xn     */
 233:Source\FilteringFunctions/arm_biquad_cascade_df1_fast_q15.c ****       /* Yn2 = Yn1    */
 234:Source\FilteringFunctions/arm_biquad_cascade_df1_fast_q15.c ****       /* Yn1 = acc   */
 235:Source\FilteringFunctions/arm_biquad_cascade_df1_fast_q15.c ****       /* x[n-N], x[n-N-1] are packed together to make state_in of type q31 */
 236:Source\FilteringFunctions/arm_biquad_cascade_df1_fast_q15.c ****       /* y[n-N], y[n-N-1] are packed together to make state_out of type q31 */
 237:Source\FilteringFunctions/arm_biquad_cascade_df1_fast_q15.c **** 
 238:Source\FilteringFunctions/arm_biquad_cascade_df1_fast_q15.c **** #ifndef  ARM_MATH_BIG_ENDIAN
 239:Source\FilteringFunctions/arm_biquad_cascade_df1_fast_q15.c **** 
ARM GAS  C:\Users\fneves\AppData\Local\Temp\ccx8ai1h.s 			page 41


 240:Source\FilteringFunctions/arm_biquad_cascade_df1_fast_q15.c ****       state_in = __PKHBT(in, state_in, 16);
 942              		.loc 1 240 0
 943 0594 C423     		mov	r3, #196
 944 0596 FB18     		add	r3, r7, r3
 945 0598 1B68     		ldr	r3, [r3]
 946 059a 1B04     		lsl	r3, r3, #16
 947 059c 1A0C     		lsr	r2, r3, #16
 948 059e E423     		mov	r3, #228
 949 05a0 FB18     		add	r3, r7, r3
 950 05a2 1B68     		ldr	r3, [r3]
 951 05a4 1B04     		lsl	r3, r3, #16
 952 05a6 1343     		orr	r3, r2
 953 05a8 E422     		mov	r2, #228
 954 05aa BA18     		add	r2, r7, r2
 955 05ac 1360     		str	r3, [r2]
 241:Source\FilteringFunctions/arm_biquad_cascade_df1_fast_q15.c ****       state_out = __PKHBT(out, state_out, 16);
 956              		.loc 1 241 0
 957 05ae C023     		mov	r3, #192
 958 05b0 FB18     		add	r3, r7, r3
 959 05b2 1B68     		ldr	r3, [r3]
 960 05b4 1B04     		lsl	r3, r3, #16
 961 05b6 1A0C     		lsr	r2, r3, #16
 962 05b8 E023     		mov	r3, #224
 963 05ba FB18     		add	r3, r7, r3
 964 05bc 1B68     		ldr	r3, [r3]
 965 05be 1B04     		lsl	r3, r3, #16
 966 05c0 1343     		orr	r3, r2
 967 05c2 E022     		mov	r2, #224
 968 05c4 BA18     		add	r2, r7, r2
 969 05c6 1360     		str	r3, [r2]
 970              	.L22:
 242:Source\FilteringFunctions/arm_biquad_cascade_df1_fast_q15.c **** 
 243:Source\FilteringFunctions/arm_biquad_cascade_df1_fast_q15.c **** #else
 244:Source\FilteringFunctions/arm_biquad_cascade_df1_fast_q15.c **** 
 245:Source\FilteringFunctions/arm_biquad_cascade_df1_fast_q15.c ****       state_in = __PKHBT(state_in >> 16, in, 16);
 246:Source\FilteringFunctions/arm_biquad_cascade_df1_fast_q15.c ****       state_out = __PKHBT(state_out >> 16, out, 16);
 247:Source\FilteringFunctions/arm_biquad_cascade_df1_fast_q15.c **** 
 248:Source\FilteringFunctions/arm_biquad_cascade_df1_fast_q15.c **** #endif /* #ifndef  ARM_MATH_BIG_ENDIAN */
 249:Source\FilteringFunctions/arm_biquad_cascade_df1_fast_q15.c **** 
 250:Source\FilteringFunctions/arm_biquad_cascade_df1_fast_q15.c ****     }
 251:Source\FilteringFunctions/arm_biquad_cascade_df1_fast_q15.c **** 
 252:Source\FilteringFunctions/arm_biquad_cascade_df1_fast_q15.c ****     /*  The first stage goes from the input buffer to the output buffer.  */
 253:Source\FilteringFunctions/arm_biquad_cascade_df1_fast_q15.c ****     /*  Subsequent (numStages - 1) occur in-place in the output buffer  */
 254:Source\FilteringFunctions/arm_biquad_cascade_df1_fast_q15.c ****     pIn = pDst;
 971              		.loc 1 254 0
 972 05c8 7B68     		ldr	r3, [r7, #4]
 973 05ca FB61     		str	r3, [r7, #28]
 255:Source\FilteringFunctions/arm_biquad_cascade_df1_fast_q15.c **** 
 256:Source\FilteringFunctions/arm_biquad_cascade_df1_fast_q15.c ****     /* Reset the output pointer */
 257:Source\FilteringFunctions/arm_biquad_cascade_df1_fast_q15.c ****     pOut = pDst;
 974              		.loc 1 257 0
 975 05cc 7B68     		ldr	r3, [r7, #4]
 976 05ce BB61     		str	r3, [r7, #24]
 258:Source\FilteringFunctions/arm_biquad_cascade_df1_fast_q15.c **** 
 259:Source\FilteringFunctions/arm_biquad_cascade_df1_fast_q15.c ****     /*  Store the updated state variables back into the state array */
 260:Source\FilteringFunctions/arm_biquad_cascade_df1_fast_q15.c ****     *__SIMD32(pState)++ = state_in;
 977              		.loc 1 260 0
ARM GAS  C:\Users\fneves\AppData\Local\Temp\ccx8ai1h.s 			page 42


 978 05d0 1423     		mov	r3, #20
 979 05d2 FB18     		add	r3, r7, r3
 980 05d4 1A68     		ldr	r2, [r3]
 981 05d6 111D     		add	r1, r2, #4
 982 05d8 1960     		str	r1, [r3]
 983 05da E423     		mov	r3, #228
 984 05dc FB18     		add	r3, r7, r3
 985 05de 1B68     		ldr	r3, [r3]
 986 05e0 1360     		str	r3, [r2]
 261:Source\FilteringFunctions/arm_biquad_cascade_df1_fast_q15.c ****     *__SIMD32(pState)++ = state_out;
 987              		.loc 1 261 0
 988 05e2 1423     		mov	r3, #20
 989 05e4 FB18     		add	r3, r7, r3
 990 05e6 1A68     		ldr	r2, [r3]
 991 05e8 111D     		add	r1, r2, #4
 992 05ea 1960     		str	r1, [r3]
 993 05ec E023     		mov	r3, #224
 994 05ee FB18     		add	r3, r7, r3
 995 05f0 1B68     		ldr	r3, [r3]
 996 05f2 1360     		str	r3, [r2]
 262:Source\FilteringFunctions/arm_biquad_cascade_df1_fast_q15.c **** 
 263:Source\FilteringFunctions/arm_biquad_cascade_df1_fast_q15.c **** 
 264:Source\FilteringFunctions/arm_biquad_cascade_df1_fast_q15.c ****     /* Decrement the loop counter */
 265:Source\FilteringFunctions/arm_biquad_cascade_df1_fast_q15.c ****     stage--;
 997              		.loc 1 265 0
 998 05f4 D823     		mov	r3, #216
 999 05f6 FB18     		add	r3, r7, r3
 1000 05f8 1B68     		ldr	r3, [r3]
 1001 05fa 013B     		sub	r3, r3, #1
 1002 05fc D822     		mov	r2, #216
 1003 05fe BA18     		add	r2, r7, r2
 1004 0600 1360     		str	r3, [r2]
 266:Source\FilteringFunctions/arm_biquad_cascade_df1_fast_q15.c **** 
 267:Source\FilteringFunctions/arm_biquad_cascade_df1_fast_q15.c ****   } while (stage > 0u);
 1005              		.loc 1 267 0
 1006 0602 D823     		mov	r3, #216
 1007 0604 FB18     		add	r3, r7, r3
 1008 0606 1B68     		ldr	r3, [r3]
 1009 0608 002B     		cmp	r3, #0
 1010 060a 00D0     		beq	.LCB877
 1011 060c 17E5     		b	.L32	@long jump
 1012              	.LCB877:
 268:Source\FilteringFunctions/arm_biquad_cascade_df1_fast_q15.c **** }
 1013              		.loc 1 268 0
 1014 060e BD46     		mov	sp, r7
 1015 0610 3AB0     		add	sp, sp, #232
 1016              		@ sp needed
 1017 0612 80BD     		pop	{r7, pc}
 1018              		.cfi_endproc
 1019              	.LFE82:
 1020              		.size	arm_biquad_cascade_df1_fast_q15, .-arm_biquad_cascade_df1_fast_q15
 1021              		.text
 1022              	.Letext0:
 1023              		.file 3 "c:\\program files (x86)\\cypress\\psoc creator\\4.0\\psoc creator\\import\\gnu\\arm\\4.9.
 1024              		.file 4 "c:\\program files (x86)\\cypress\\psoc creator\\4.0\\psoc creator\\import\\gnu\\arm\\4.9.