ARM GAS  C:\Users\fneves\AppData\Local\Temp\ccrWy7Z8.s 			page 1


   1              		.cpu cortex-m0plus
   2              		.fpu softvfp
   3              		.eabi_attribute 20, 1
   4              		.eabi_attribute 21, 1
   5              		.eabi_attribute 23, 3
   6              		.eabi_attribute 24, 1
   7              		.eabi_attribute 25, 1
   8              		.eabi_attribute 26, 1
   9              		.eabi_attribute 30, 6
  10              		.eabi_attribute 34, 0
  11              		.eabi_attribute 18, 4
  12              		.code	16
  13              		.file	"arm_q31_to_q7.c"
  14              		.text
  15              	.Ltext0:
  16              		.cfi_sections	.debug_frame
  17              		.section	.text.arm_q31_to_q7,"ax",%progbits
  18              		.align	2
  19              		.global	arm_q31_to_q7
  20              		.code	16
  21              		.thumb_func
  22              		.type	arm_q31_to_q7, %function
  23              	arm_q31_to_q7:
  24              	.LFB82:
  25              		.file 1 "Source\\SupportFunctions\\arm_q31_to_q7.c"
   1:Source\SupportFunctions/arm_q31_to_q7.c **** /* ----------------------------------------------------------------------
   2:Source\SupportFunctions/arm_q31_to_q7.c ****  * Project:      CMSIS DSP Library
   3:Source\SupportFunctions/arm_q31_to_q7.c ****  * Title:        arm_q31_to_q7.c
   4:Source\SupportFunctions/arm_q31_to_q7.c ****  * Description:  Converts the elements of the Q31 vector to Q7 vector
   5:Source\SupportFunctions/arm_q31_to_q7.c ****  *
   6:Source\SupportFunctions/arm_q31_to_q7.c ****  * $Date:        27. January 2017
   7:Source\SupportFunctions/arm_q31_to_q7.c ****  * $Revision:    V.1.5.1
   8:Source\SupportFunctions/arm_q31_to_q7.c ****  *
   9:Source\SupportFunctions/arm_q31_to_q7.c ****  * Target Processor: Cortex-M cores
  10:Source\SupportFunctions/arm_q31_to_q7.c ****  * -------------------------------------------------------------------- */
  11:Source\SupportFunctions/arm_q31_to_q7.c **** /*
  12:Source\SupportFunctions/arm_q31_to_q7.c ****  * Copyright (C) 2010-2017 ARM Limited or its affiliates. All rights reserved.
  13:Source\SupportFunctions/arm_q31_to_q7.c ****  *
  14:Source\SupportFunctions/arm_q31_to_q7.c ****  * SPDX-License-Identifier: Apache-2.0
  15:Source\SupportFunctions/arm_q31_to_q7.c ****  *
  16:Source\SupportFunctions/arm_q31_to_q7.c ****  * Licensed under the Apache License, Version 2.0 (the License); you may
  17:Source\SupportFunctions/arm_q31_to_q7.c ****  * not use this file except in compliance with the License.
  18:Source\SupportFunctions/arm_q31_to_q7.c ****  * You may obtain a copy of the License at
  19:Source\SupportFunctions/arm_q31_to_q7.c ****  *
  20:Source\SupportFunctions/arm_q31_to_q7.c ****  * www.apache.org/licenses/LICENSE-2.0
  21:Source\SupportFunctions/arm_q31_to_q7.c ****  *
  22:Source\SupportFunctions/arm_q31_to_q7.c ****  * Unless required by applicable law or agreed to in writing, software
  23:Source\SupportFunctions/arm_q31_to_q7.c ****  * distributed under the License is distributed on an AS IS BASIS, WITHOUT
  24:Source\SupportFunctions/arm_q31_to_q7.c ****  * WARRANTIES OR CONDITIONS OF ANY KIND, either express or implied.
  25:Source\SupportFunctions/arm_q31_to_q7.c ****  * See the License for the specific language governing permissions and
  26:Source\SupportFunctions/arm_q31_to_q7.c ****  * limitations under the License.
  27:Source\SupportFunctions/arm_q31_to_q7.c ****  */
  28:Source\SupportFunctions/arm_q31_to_q7.c **** 
  29:Source\SupportFunctions/arm_q31_to_q7.c **** #include "arm_math.h"
  30:Source\SupportFunctions/arm_q31_to_q7.c **** 
  31:Source\SupportFunctions/arm_q31_to_q7.c **** /**
  32:Source\SupportFunctions/arm_q31_to_q7.c ****  * @ingroup groupSupport
ARM GAS  C:\Users\fneves\AppData\Local\Temp\ccrWy7Z8.s 			page 2


  33:Source\SupportFunctions/arm_q31_to_q7.c ****  */
  34:Source\SupportFunctions/arm_q31_to_q7.c **** 
  35:Source\SupportFunctions/arm_q31_to_q7.c **** /**
  36:Source\SupportFunctions/arm_q31_to_q7.c ****  * @addtogroup q31_to_x
  37:Source\SupportFunctions/arm_q31_to_q7.c ****  * @{
  38:Source\SupportFunctions/arm_q31_to_q7.c ****  */
  39:Source\SupportFunctions/arm_q31_to_q7.c **** 
  40:Source\SupportFunctions/arm_q31_to_q7.c **** /**
  41:Source\SupportFunctions/arm_q31_to_q7.c ****  * @brief Converts the elements of the Q31 vector to Q7 vector.
  42:Source\SupportFunctions/arm_q31_to_q7.c ****  * @param[in]       *pSrc points to the Q31 input vector
  43:Source\SupportFunctions/arm_q31_to_q7.c ****  * @param[out]      *pDst points to the Q7 output vector
  44:Source\SupportFunctions/arm_q31_to_q7.c ****  * @param[in]       blockSize length of the input vector
  45:Source\SupportFunctions/arm_q31_to_q7.c ****  * @return none.
  46:Source\SupportFunctions/arm_q31_to_q7.c ****  *
  47:Source\SupportFunctions/arm_q31_to_q7.c ****  * \par Description:
  48:Source\SupportFunctions/arm_q31_to_q7.c ****  *
  49:Source\SupportFunctions/arm_q31_to_q7.c ****  * The equation used for the conversion process is:
  50:Source\SupportFunctions/arm_q31_to_q7.c ****  *
  51:Source\SupportFunctions/arm_q31_to_q7.c ****  * <pre>
  52:Source\SupportFunctions/arm_q31_to_q7.c ****  * 	pDst[n] = (q7_t) pSrc[n] >> 24;   0 <= n < blockSize.
  53:Source\SupportFunctions/arm_q31_to_q7.c ****  * </pre>
  54:Source\SupportFunctions/arm_q31_to_q7.c ****  *
  55:Source\SupportFunctions/arm_q31_to_q7.c ****  */
  56:Source\SupportFunctions/arm_q31_to_q7.c **** 
  57:Source\SupportFunctions/arm_q31_to_q7.c **** 
  58:Source\SupportFunctions/arm_q31_to_q7.c **** void arm_q31_to_q7(
  59:Source\SupportFunctions/arm_q31_to_q7.c ****   q31_t * pSrc,
  60:Source\SupportFunctions/arm_q31_to_q7.c ****   q7_t * pDst,
  61:Source\SupportFunctions/arm_q31_to_q7.c ****   uint32_t blockSize)
  62:Source\SupportFunctions/arm_q31_to_q7.c **** {
  26              		.loc 1 62 0
  27              		.cfi_startproc
  28 0000 80B5     		push	{r7, lr}
  29              		.cfi_def_cfa_offset 8
  30              		.cfi_offset 7, -8
  31              		.cfi_offset 14, -4
  32 0002 86B0     		sub	sp, sp, #24
  33              		.cfi_def_cfa_offset 32
  34 0004 00AF     		add	r7, sp, #0
  35              		.cfi_def_cfa_register 7
  36 0006 F860     		str	r0, [r7, #12]
  37 0008 B960     		str	r1, [r7, #8]
  38 000a 7A60     		str	r2, [r7, #4]
  63:Source\SupportFunctions/arm_q31_to_q7.c ****   q31_t *pIn = pSrc;                             /* Src pointer */
  39              		.loc 1 63 0
  40 000c FB68     		ldr	r3, [r7, #12]
  41 000e 7B61     		str	r3, [r7, #20]
  64:Source\SupportFunctions/arm_q31_to_q7.c ****   uint32_t blkCnt;                               /* loop counter */
  65:Source\SupportFunctions/arm_q31_to_q7.c **** 
  66:Source\SupportFunctions/arm_q31_to_q7.c **** #if defined (ARM_MATH_DSP)
  67:Source\SupportFunctions/arm_q31_to_q7.c **** 
  68:Source\SupportFunctions/arm_q31_to_q7.c ****   /* Run the below code for Cortex-M4 and Cortex-M3 */
  69:Source\SupportFunctions/arm_q31_to_q7.c ****   q31_t in1, in2, in3, in4;
  70:Source\SupportFunctions/arm_q31_to_q7.c ****   q7_t out1, out2, out3, out4;
  71:Source\SupportFunctions/arm_q31_to_q7.c **** 
  72:Source\SupportFunctions/arm_q31_to_q7.c ****   /*loop Unrolling */
  73:Source\SupportFunctions/arm_q31_to_q7.c ****   blkCnt = blockSize >> 2u;
ARM GAS  C:\Users\fneves\AppData\Local\Temp\ccrWy7Z8.s 			page 3


  74:Source\SupportFunctions/arm_q31_to_q7.c **** 
  75:Source\SupportFunctions/arm_q31_to_q7.c ****   /* First part of the processing with loop unrolling.  Compute 4 outputs at a time.
  76:Source\SupportFunctions/arm_q31_to_q7.c ****    ** a second loop below computes the remaining 1 to 3 samples. */
  77:Source\SupportFunctions/arm_q31_to_q7.c ****   while (blkCnt > 0u)
  78:Source\SupportFunctions/arm_q31_to_q7.c ****   {
  79:Source\SupportFunctions/arm_q31_to_q7.c ****     /* C = (q7_t) A >> 24 */
  80:Source\SupportFunctions/arm_q31_to_q7.c ****     /* convert from q31 to q7 and then store the results in the destination buffer */
  81:Source\SupportFunctions/arm_q31_to_q7.c ****     in1 = *pIn++;
  82:Source\SupportFunctions/arm_q31_to_q7.c ****     in2 = *pIn++;
  83:Source\SupportFunctions/arm_q31_to_q7.c ****     in3 = *pIn++;
  84:Source\SupportFunctions/arm_q31_to_q7.c ****     in4 = *pIn++;
  85:Source\SupportFunctions/arm_q31_to_q7.c **** 
  86:Source\SupportFunctions/arm_q31_to_q7.c ****     out1 = (q7_t) (in1 >> 24);
  87:Source\SupportFunctions/arm_q31_to_q7.c ****     out2 = (q7_t) (in2 >> 24);
  88:Source\SupportFunctions/arm_q31_to_q7.c ****     out3 = (q7_t) (in3 >> 24);
  89:Source\SupportFunctions/arm_q31_to_q7.c ****     out4 = (q7_t) (in4 >> 24);
  90:Source\SupportFunctions/arm_q31_to_q7.c **** 
  91:Source\SupportFunctions/arm_q31_to_q7.c ****     *__SIMD32(pDst)++ = __PACKq7(out1, out2, out3, out4);
  92:Source\SupportFunctions/arm_q31_to_q7.c **** 
  93:Source\SupportFunctions/arm_q31_to_q7.c ****     /* Decrement the loop counter */
  94:Source\SupportFunctions/arm_q31_to_q7.c ****     blkCnt--;
  95:Source\SupportFunctions/arm_q31_to_q7.c ****   }
  96:Source\SupportFunctions/arm_q31_to_q7.c **** 
  97:Source\SupportFunctions/arm_q31_to_q7.c ****   /* If the blockSize is not a multiple of 4, compute any remaining output samples here.
  98:Source\SupportFunctions/arm_q31_to_q7.c ****    ** No loop unrolling is used. */
  99:Source\SupportFunctions/arm_q31_to_q7.c ****   blkCnt = blockSize % 0x4u;
 100:Source\SupportFunctions/arm_q31_to_q7.c **** 
 101:Source\SupportFunctions/arm_q31_to_q7.c **** #else
 102:Source\SupportFunctions/arm_q31_to_q7.c **** 
 103:Source\SupportFunctions/arm_q31_to_q7.c ****   /* Run the below code for Cortex-M0 */
 104:Source\SupportFunctions/arm_q31_to_q7.c **** 
 105:Source\SupportFunctions/arm_q31_to_q7.c ****   /* Loop over blockSize number of values */
 106:Source\SupportFunctions/arm_q31_to_q7.c ****   blkCnt = blockSize;
  42              		.loc 1 106 0
  43 0010 7B68     		ldr	r3, [r7, #4]
  44 0012 3B61     		str	r3, [r7, #16]
 107:Source\SupportFunctions/arm_q31_to_q7.c **** 
 108:Source\SupportFunctions/arm_q31_to_q7.c **** #endif /* #if defined (ARM_MATH_DSP) */
 109:Source\SupportFunctions/arm_q31_to_q7.c **** 
 110:Source\SupportFunctions/arm_q31_to_q7.c ****   while (blkCnt > 0u)
  45              		.loc 1 110 0
  46 0014 0CE0     		b	.L2
  47              	.L3:
 111:Source\SupportFunctions/arm_q31_to_q7.c ****   {
 112:Source\SupportFunctions/arm_q31_to_q7.c ****     /* C = (q7_t) A >> 24 */
 113:Source\SupportFunctions/arm_q31_to_q7.c ****     /* convert from q31 to q7 and then store the results in the destination buffer */
 114:Source\SupportFunctions/arm_q31_to_q7.c ****     *pDst++ = (q7_t) (*pIn++ >> 24);
  48              		.loc 1 114 0
  49 0016 BA68     		ldr	r2, [r7, #8]
  50 0018 531C     		add	r3, r2, #1
  51 001a BB60     		str	r3, [r7, #8]
  52 001c 7B69     		ldr	r3, [r7, #20]
  53 001e 191D     		add	r1, r3, #4
  54 0020 7961     		str	r1, [r7, #20]
  55 0022 1B68     		ldr	r3, [r3]
  56 0024 1B16     		asr	r3, r3, #24
  57 0026 DBB2     		uxtb	r3, r3
ARM GAS  C:\Users\fneves\AppData\Local\Temp\ccrWy7Z8.s 			page 4


  58 0028 1370     		strb	r3, [r2]
 115:Source\SupportFunctions/arm_q31_to_q7.c **** 
 116:Source\SupportFunctions/arm_q31_to_q7.c ****     /* Decrement the loop counter */
 117:Source\SupportFunctions/arm_q31_to_q7.c ****     blkCnt--;
  59              		.loc 1 117 0
  60 002a 3B69     		ldr	r3, [r7, #16]
  61 002c 013B     		sub	r3, r3, #1
  62 002e 3B61     		str	r3, [r7, #16]
  63              	.L2:
 110:Source\SupportFunctions/arm_q31_to_q7.c ****   {
  64              		.loc 1 110 0
  65 0030 3B69     		ldr	r3, [r7, #16]
  66 0032 002B     		cmp	r3, #0
  67 0034 EFD1     		bne	.L3
 118:Source\SupportFunctions/arm_q31_to_q7.c ****   }
 119:Source\SupportFunctions/arm_q31_to_q7.c **** 
 120:Source\SupportFunctions/arm_q31_to_q7.c **** }
  68              		.loc 1 120 0
  69 0036 BD46     		mov	sp, r7
  70 0038 06B0     		add	sp, sp, #24
  71              		@ sp needed
  72 003a 80BD     		pop	{r7, pc}
  73              		.cfi_endproc
  74              	.LFE82:
  75              		.size	arm_q31_to_q7, .-arm_q31_to_q7
  76              		.text
  77              	.Letext0:
  78              		.file 2 "c:\\program files (x86)\\cypress\\psoc creator\\4.0\\psoc creator\\import\\gnu\\arm\\4.9.
  79              		.file 3 "c:\\program files (x86)\\cypress\\psoc creator\\4.0\\psoc creator\\import\\gnu\\arm\\4.9.
  80              		.file 4 ".\\Include/arm_math.h"