ARM GAS  C:\Users\fneves\AppData\Local\Temp\cca8VXA4.s 			page 1


   1              		.cpu cortex-m0plus
   2              		.fpu softvfp
   3              		.eabi_attribute 20, 1
   4              		.eabi_attribute 21, 1
   5              		.eabi_attribute 23, 3
   6              		.eabi_attribute 24, 1
   7              		.eabi_attribute 25, 1
   8              		.eabi_attribute 26, 1
   9              		.eabi_attribute 30, 6
  10              		.eabi_attribute 34, 0
  11              		.eabi_attribute 18, 4
  12              		.code	16
  13              		.file	"arm_power_f32.c"
  14              		.text
  15              	.Ltext0:
  16              		.cfi_sections	.debug_frame
  17              		.global	__aeabi_fmul
  18              		.global	__aeabi_fadd
  19              		.section	.text.arm_power_f32,"ax",%progbits
  20              		.align	2
  21              		.global	arm_power_f32
  22              		.code	16
  23              		.thumb_func
  24              		.type	arm_power_f32, %function
  25              	arm_power_f32:
  26              	.LFB82:
  27              		.file 1 "Source\\StatisticsFunctions\\arm_power_f32.c"
   1:Source\StatisticsFunctions/arm_power_f32.c **** /* ----------------------------------------------------------------------
   2:Source\StatisticsFunctions/arm_power_f32.c ****  * Project:      CMSIS DSP Library
   3:Source\StatisticsFunctions/arm_power_f32.c ****  * Title:        arm_power_f32.c
   4:Source\StatisticsFunctions/arm_power_f32.c ****  * Description:  Sum of the squares of the elements of a floating-point vector
   5:Source\StatisticsFunctions/arm_power_f32.c ****  *
   6:Source\StatisticsFunctions/arm_power_f32.c ****  * $Date:        27. January 2017
   7:Source\StatisticsFunctions/arm_power_f32.c ****  * $Revision:    V.1.5.1
   8:Source\StatisticsFunctions/arm_power_f32.c ****  *
   9:Source\StatisticsFunctions/arm_power_f32.c ****  * Target Processor: Cortex-M cores
  10:Source\StatisticsFunctions/arm_power_f32.c ****  * -------------------------------------------------------------------- */
  11:Source\StatisticsFunctions/arm_power_f32.c **** /*
  12:Source\StatisticsFunctions/arm_power_f32.c ****  * Copyright (C) 2010-2017 ARM Limited or its affiliates. All rights reserved.
  13:Source\StatisticsFunctions/arm_power_f32.c ****  *
  14:Source\StatisticsFunctions/arm_power_f32.c ****  * SPDX-License-Identifier: Apache-2.0
  15:Source\StatisticsFunctions/arm_power_f32.c ****  *
  16:Source\StatisticsFunctions/arm_power_f32.c ****  * Licensed under the Apache License, Version 2.0 (the License); you may
  17:Source\StatisticsFunctions/arm_power_f32.c ****  * not use this file except in compliance with the License.
  18:Source\StatisticsFunctions/arm_power_f32.c ****  * You may obtain a copy of the License at
  19:Source\StatisticsFunctions/arm_power_f32.c ****  *
  20:Source\StatisticsFunctions/arm_power_f32.c ****  * www.apache.org/licenses/LICENSE-2.0
  21:Source\StatisticsFunctions/arm_power_f32.c ****  *
  22:Source\StatisticsFunctions/arm_power_f32.c ****  * Unless required by applicable law or agreed to in writing, software
  23:Source\StatisticsFunctions/arm_power_f32.c ****  * distributed under the License is distributed on an AS IS BASIS, WITHOUT
  24:Source\StatisticsFunctions/arm_power_f32.c ****  * WARRANTIES OR CONDITIONS OF ANY KIND, either express or implied.
  25:Source\StatisticsFunctions/arm_power_f32.c ****  * See the License for the specific language governing permissions and
  26:Source\StatisticsFunctions/arm_power_f32.c ****  * limitations under the License.
  27:Source\StatisticsFunctions/arm_power_f32.c ****  */
  28:Source\StatisticsFunctions/arm_power_f32.c **** 
  29:Source\StatisticsFunctions/arm_power_f32.c **** #include "arm_math.h"
  30:Source\StatisticsFunctions/arm_power_f32.c **** 
ARM GAS  C:\Users\fneves\AppData\Local\Temp\cca8VXA4.s 			page 2


  31:Source\StatisticsFunctions/arm_power_f32.c **** /**
  32:Source\StatisticsFunctions/arm_power_f32.c ****  * @ingroup groupStats
  33:Source\StatisticsFunctions/arm_power_f32.c ****  */
  34:Source\StatisticsFunctions/arm_power_f32.c **** 
  35:Source\StatisticsFunctions/arm_power_f32.c **** /**
  36:Source\StatisticsFunctions/arm_power_f32.c ****  * @defgroup power Power
  37:Source\StatisticsFunctions/arm_power_f32.c ****  *
  38:Source\StatisticsFunctions/arm_power_f32.c ****  * Calculates the sum of the squares of the elements in the input vector.
  39:Source\StatisticsFunctions/arm_power_f32.c ****  * The underlying algorithm is used:
  40:Source\StatisticsFunctions/arm_power_f32.c ****  *
  41:Source\StatisticsFunctions/arm_power_f32.c ****  * <pre>
  42:Source\StatisticsFunctions/arm_power_f32.c ****  * 	Result = pSrc[0] * pSrc[0] + pSrc[1] * pSrc[1] + pSrc[2] * pSrc[2] + ... + pSrc[blockSize-1] * 
  43:Source\StatisticsFunctions/arm_power_f32.c ****  * </pre>
  44:Source\StatisticsFunctions/arm_power_f32.c ****  *
  45:Source\StatisticsFunctions/arm_power_f32.c ****  * There are separate functions for floating point, Q31, Q15, and Q7 data types.
  46:Source\StatisticsFunctions/arm_power_f32.c ****  */
  47:Source\StatisticsFunctions/arm_power_f32.c **** 
  48:Source\StatisticsFunctions/arm_power_f32.c **** /**
  49:Source\StatisticsFunctions/arm_power_f32.c ****  * @addtogroup power
  50:Source\StatisticsFunctions/arm_power_f32.c ****  * @{
  51:Source\StatisticsFunctions/arm_power_f32.c ****  */
  52:Source\StatisticsFunctions/arm_power_f32.c **** 
  53:Source\StatisticsFunctions/arm_power_f32.c **** 
  54:Source\StatisticsFunctions/arm_power_f32.c **** /**
  55:Source\StatisticsFunctions/arm_power_f32.c ****  * @brief Sum of the squares of the elements of a floating-point vector.
  56:Source\StatisticsFunctions/arm_power_f32.c ****  * @param[in]       *pSrc points to the input vector
  57:Source\StatisticsFunctions/arm_power_f32.c ****  * @param[in]       blockSize length of the input vector
  58:Source\StatisticsFunctions/arm_power_f32.c ****  * @param[out]      *pResult sum of the squares value returned here
  59:Source\StatisticsFunctions/arm_power_f32.c ****  * @return none.
  60:Source\StatisticsFunctions/arm_power_f32.c ****  *
  61:Source\StatisticsFunctions/arm_power_f32.c ****  */
  62:Source\StatisticsFunctions/arm_power_f32.c **** 
  63:Source\StatisticsFunctions/arm_power_f32.c **** 
  64:Source\StatisticsFunctions/arm_power_f32.c **** void arm_power_f32(
  65:Source\StatisticsFunctions/arm_power_f32.c ****   float32_t * pSrc,
  66:Source\StatisticsFunctions/arm_power_f32.c ****   uint32_t blockSize,
  67:Source\StatisticsFunctions/arm_power_f32.c ****   float32_t * pResult)
  68:Source\StatisticsFunctions/arm_power_f32.c **** {
  28              		.loc 1 68 0
  29              		.cfi_startproc
  30 0000 80B5     		push	{r7, lr}
  31              		.cfi_def_cfa_offset 8
  32              		.cfi_offset 7, -8
  33              		.cfi_offset 14, -4
  34 0002 88B0     		sub	sp, sp, #32
  35              		.cfi_def_cfa_offset 40
  36 0004 00AF     		add	r7, sp, #0
  37              		.cfi_def_cfa_register 7
  38 0006 F860     		str	r0, [r7, #12]
  39 0008 B960     		str	r1, [r7, #8]
  40 000a 7A60     		str	r2, [r7, #4]
  69:Source\StatisticsFunctions/arm_power_f32.c ****   float32_t sum = 0.0f;                          /* accumulator */
  41              		.loc 1 69 0
  42 000c 0023     		mov	r3, #0
  43 000e FB61     		str	r3, [r7, #28]
  70:Source\StatisticsFunctions/arm_power_f32.c ****   float32_t in;                                  /* Temporary variable to store input value */
  71:Source\StatisticsFunctions/arm_power_f32.c ****   uint32_t blkCnt;                               /* loop counter */
ARM GAS  C:\Users\fneves\AppData\Local\Temp\cca8VXA4.s 			page 3


  72:Source\StatisticsFunctions/arm_power_f32.c **** 
  73:Source\StatisticsFunctions/arm_power_f32.c **** #if defined (ARM_MATH_DSP)
  74:Source\StatisticsFunctions/arm_power_f32.c ****   /* Run the below code for Cortex-M4 and Cortex-M3 */
  75:Source\StatisticsFunctions/arm_power_f32.c **** 
  76:Source\StatisticsFunctions/arm_power_f32.c ****   /*loop Unrolling */
  77:Source\StatisticsFunctions/arm_power_f32.c ****   blkCnt = blockSize >> 2u;
  78:Source\StatisticsFunctions/arm_power_f32.c **** 
  79:Source\StatisticsFunctions/arm_power_f32.c ****   /* First part of the processing with loop unrolling.  Compute 4 outputs at a time.
  80:Source\StatisticsFunctions/arm_power_f32.c ****    ** a second loop below computes the remaining 1 to 3 samples. */
  81:Source\StatisticsFunctions/arm_power_f32.c ****   while (blkCnt > 0u)
  82:Source\StatisticsFunctions/arm_power_f32.c ****   {
  83:Source\StatisticsFunctions/arm_power_f32.c ****     /* C = A[0] * A[0] + A[1] * A[1] + A[2] * A[2] + ... + A[blockSize-1] * A[blockSize-1] */
  84:Source\StatisticsFunctions/arm_power_f32.c ****     /* Compute Power and then store the result in a temporary variable, sum. */
  85:Source\StatisticsFunctions/arm_power_f32.c ****     in = *pSrc++;
  86:Source\StatisticsFunctions/arm_power_f32.c ****     sum += in * in;
  87:Source\StatisticsFunctions/arm_power_f32.c ****     in = *pSrc++;
  88:Source\StatisticsFunctions/arm_power_f32.c ****     sum += in * in;
  89:Source\StatisticsFunctions/arm_power_f32.c ****     in = *pSrc++;
  90:Source\StatisticsFunctions/arm_power_f32.c ****     sum += in * in;
  91:Source\StatisticsFunctions/arm_power_f32.c ****     in = *pSrc++;
  92:Source\StatisticsFunctions/arm_power_f32.c ****     sum += in * in;
  93:Source\StatisticsFunctions/arm_power_f32.c **** 
  94:Source\StatisticsFunctions/arm_power_f32.c ****     /* Decrement the loop counter */
  95:Source\StatisticsFunctions/arm_power_f32.c ****     blkCnt--;
  96:Source\StatisticsFunctions/arm_power_f32.c ****   }
  97:Source\StatisticsFunctions/arm_power_f32.c **** 
  98:Source\StatisticsFunctions/arm_power_f32.c ****   /* If the blockSize is not a multiple of 4, compute any remaining output samples here.
  99:Source\StatisticsFunctions/arm_power_f32.c ****    ** No loop unrolling is used. */
 100:Source\StatisticsFunctions/arm_power_f32.c ****   blkCnt = blockSize % 0x4u;
 101:Source\StatisticsFunctions/arm_power_f32.c **** 
 102:Source\StatisticsFunctions/arm_power_f32.c **** 
 103:Source\StatisticsFunctions/arm_power_f32.c **** #else
 104:Source\StatisticsFunctions/arm_power_f32.c ****   /* Run the below code for Cortex-M0 */
 105:Source\StatisticsFunctions/arm_power_f32.c **** 
 106:Source\StatisticsFunctions/arm_power_f32.c ****   /* Loop over blockSize number of values */
 107:Source\StatisticsFunctions/arm_power_f32.c ****   blkCnt = blockSize;
  44              		.loc 1 107 0
  45 0010 BB68     		ldr	r3, [r7, #8]
  46 0012 BB61     		str	r3, [r7, #24]
 108:Source\StatisticsFunctions/arm_power_f32.c **** 
 109:Source\StatisticsFunctions/arm_power_f32.c **** #endif /* #if defined (ARM_MATH_DSP) */
 110:Source\StatisticsFunctions/arm_power_f32.c **** 
 111:Source\StatisticsFunctions/arm_power_f32.c **** 
 112:Source\StatisticsFunctions/arm_power_f32.c ****   while (blkCnt > 0u)
  47              		.loc 1 112 0
  48 0014 12E0     		b	.L2
  49              	.L3:
 113:Source\StatisticsFunctions/arm_power_f32.c ****   {
 114:Source\StatisticsFunctions/arm_power_f32.c ****     /* C = A[0] * A[0] + A[1] * A[1] + A[2] * A[2] + ... + A[blockSize-1] * A[blockSize-1] */
 115:Source\StatisticsFunctions/arm_power_f32.c ****     /* compute power and then store the result in a temporary variable, sum. */
 116:Source\StatisticsFunctions/arm_power_f32.c ****     in = *pSrc++;
  50              		.loc 1 116 0
  51 0016 FB68     		ldr	r3, [r7, #12]
  52 0018 1A1D     		add	r2, r3, #4
  53 001a FA60     		str	r2, [r7, #12]
  54 001c 1B68     		ldr	r3, [r3]
  55 001e 7B61     		str	r3, [r7, #20]
ARM GAS  C:\Users\fneves\AppData\Local\Temp\cca8VXA4.s 			page 4


 117:Source\StatisticsFunctions/arm_power_f32.c ****     sum += in * in;
  56              		.loc 1 117 0
  57 0020 7869     		ldr	r0, [r7, #20]
  58 0022 7969     		ldr	r1, [r7, #20]
  59 0024 FFF7FEFF 		bl	__aeabi_fmul
  60 0028 031C     		add	r3, r0, #0
  61 002a F869     		ldr	r0, [r7, #28]
  62 002c 191C     		add	r1, r3, #0
  63 002e FFF7FEFF 		bl	__aeabi_fadd
  64 0032 031C     		add	r3, r0, #0
  65 0034 FB61     		str	r3, [r7, #28]
 118:Source\StatisticsFunctions/arm_power_f32.c **** 
 119:Source\StatisticsFunctions/arm_power_f32.c ****     /* Decrement the loop counter */
 120:Source\StatisticsFunctions/arm_power_f32.c ****     blkCnt--;
  66              		.loc 1 120 0
  67 0036 BB69     		ldr	r3, [r7, #24]
  68 0038 013B     		sub	r3, r3, #1
  69 003a BB61     		str	r3, [r7, #24]
  70              	.L2:
 112:Source\StatisticsFunctions/arm_power_f32.c ****   {
  71              		.loc 1 112 0
  72 003c BB69     		ldr	r3, [r7, #24]
  73 003e 002B     		cmp	r3, #0
  74 0040 E9D1     		bne	.L3
 121:Source\StatisticsFunctions/arm_power_f32.c ****   }
 122:Source\StatisticsFunctions/arm_power_f32.c **** 
 123:Source\StatisticsFunctions/arm_power_f32.c ****   /* Store the result to the destination */
 124:Source\StatisticsFunctions/arm_power_f32.c ****   *pResult = sum;
  75              		.loc 1 124 0
  76 0042 7B68     		ldr	r3, [r7, #4]
  77 0044 FA69     		ldr	r2, [r7, #28]
  78 0046 1A60     		str	r2, [r3]
 125:Source\StatisticsFunctions/arm_power_f32.c **** }
  79              		.loc 1 125 0
  80 0048 BD46     		mov	sp, r7
  81 004a 08B0     		add	sp, sp, #32
  82              		@ sp needed
  83 004c 80BD     		pop	{r7, pc}
  84              		.cfi_endproc
  85              	.LFE82:
  86              		.size	arm_power_f32, .-arm_power_f32
  87 004e C046     		.text
  88              	.Letext0:
  89              		.file 2 "c:\\program files (x86)\\cypress\\psoc creator\\4.0\\psoc creator\\import\\gnu\\arm\\4.9.
  90              		.file 3 "c:\\program files (x86)\\cypress\\psoc creator\\4.0\\psoc creator\\import\\gnu\\arm\\4.9.
  91              		.file 4 ".\\Include/arm_math.h"