ARM GAS  C:\Users\fneves\AppData\Local\Temp\ccNGtL0g.s 			page 1


   1              		.cpu cortex-m0plus
   2              		.fpu softvfp
   3              		.eabi_attribute 20, 1
   4              		.eabi_attribute 21, 1
   5              		.eabi_attribute 23, 3
   6              		.eabi_attribute 24, 1
   7              		.eabi_attribute 25, 1
   8              		.eabi_attribute 26, 1
   9              		.eabi_attribute 30, 6
  10              		.eabi_attribute 34, 0
  11              		.eabi_attribute 18, 4
  12              		.code	16
  13              		.file	"arm_copy_q7.c"
  14              		.text
  15              	.Ltext0:
  16              		.cfi_sections	.debug_frame
  17              		.section	.text.arm_copy_q7,"ax",%progbits
  18              		.align	2
  19              		.global	arm_copy_q7
  20              		.code	16
  21              		.thumb_func
  22              		.type	arm_copy_q7, %function
  23              	arm_copy_q7:
  24              	.LFB82:
  25              		.file 1 "Source\\SupportFunctions\\arm_copy_q7.c"
   1:Source\SupportFunctions/arm_copy_q7.c **** /* ----------------------------------------------------------------------
   2:Source\SupportFunctions/arm_copy_q7.c ****  * Project:      CMSIS DSP Library
   3:Source\SupportFunctions/arm_copy_q7.c ****  * Title:        arm_copy_q7.c
   4:Source\SupportFunctions/arm_copy_q7.c ****  * Description:  Copies the elements of a Q7 vector
   5:Source\SupportFunctions/arm_copy_q7.c ****  *
   6:Source\SupportFunctions/arm_copy_q7.c ****  * $Date:        27. January 2017
   7:Source\SupportFunctions/arm_copy_q7.c ****  * $Revision:    V.1.5.1
   8:Source\SupportFunctions/arm_copy_q7.c ****  *
   9:Source\SupportFunctions/arm_copy_q7.c ****  * Target Processor: Cortex-M cores
  10:Source\SupportFunctions/arm_copy_q7.c ****  * -------------------------------------------------------------------- */
  11:Source\SupportFunctions/arm_copy_q7.c **** /*
  12:Source\SupportFunctions/arm_copy_q7.c ****  * Copyright (C) 2010-2017 ARM Limited or its affiliates. All rights reserved.
  13:Source\SupportFunctions/arm_copy_q7.c ****  *
  14:Source\SupportFunctions/arm_copy_q7.c ****  * SPDX-License-Identifier: Apache-2.0
  15:Source\SupportFunctions/arm_copy_q7.c ****  *
  16:Source\SupportFunctions/arm_copy_q7.c ****  * Licensed under the Apache License, Version 2.0 (the License); you may
  17:Source\SupportFunctions/arm_copy_q7.c ****  * not use this file except in compliance with the License.
  18:Source\SupportFunctions/arm_copy_q7.c ****  * You may obtain a copy of the License at
  19:Source\SupportFunctions/arm_copy_q7.c ****  *
  20:Source\SupportFunctions/arm_copy_q7.c ****  * www.apache.org/licenses/LICENSE-2.0
  21:Source\SupportFunctions/arm_copy_q7.c ****  *
  22:Source\SupportFunctions/arm_copy_q7.c ****  * Unless required by applicable law or agreed to in writing, software
  23:Source\SupportFunctions/arm_copy_q7.c ****  * distributed under the License is distributed on an AS IS BASIS, WITHOUT
  24:Source\SupportFunctions/arm_copy_q7.c ****  * WARRANTIES OR CONDITIONS OF ANY KIND, either express or implied.
  25:Source\SupportFunctions/arm_copy_q7.c ****  * See the License for the specific language governing permissions and
  26:Source\SupportFunctions/arm_copy_q7.c ****  * limitations under the License.
  27:Source\SupportFunctions/arm_copy_q7.c ****  */
  28:Source\SupportFunctions/arm_copy_q7.c **** 
  29:Source\SupportFunctions/arm_copy_q7.c **** #include "arm_math.h"
  30:Source\SupportFunctions/arm_copy_q7.c **** 
  31:Source\SupportFunctions/arm_copy_q7.c **** /**
  32:Source\SupportFunctions/arm_copy_q7.c ****  * @ingroup groupSupport
ARM GAS  C:\Users\fneves\AppData\Local\Temp\ccNGtL0g.s 			page 2


  33:Source\SupportFunctions/arm_copy_q7.c ****  */
  34:Source\SupportFunctions/arm_copy_q7.c **** 
  35:Source\SupportFunctions/arm_copy_q7.c **** /**
  36:Source\SupportFunctions/arm_copy_q7.c ****  * @addtogroup copy
  37:Source\SupportFunctions/arm_copy_q7.c ****  * @{
  38:Source\SupportFunctions/arm_copy_q7.c ****  */
  39:Source\SupportFunctions/arm_copy_q7.c **** 
  40:Source\SupportFunctions/arm_copy_q7.c **** /**
  41:Source\SupportFunctions/arm_copy_q7.c ****  * @brief Copies the elements of a Q7 vector.
  42:Source\SupportFunctions/arm_copy_q7.c ****  * @param[in]       *pSrc points to input vector
  43:Source\SupportFunctions/arm_copy_q7.c ****  * @param[out]      *pDst points to output vector
  44:Source\SupportFunctions/arm_copy_q7.c ****  * @param[in]       blockSize length of the input vector
  45:Source\SupportFunctions/arm_copy_q7.c ****  * @return none.
  46:Source\SupportFunctions/arm_copy_q7.c ****  *
  47:Source\SupportFunctions/arm_copy_q7.c ****  */
  48:Source\SupportFunctions/arm_copy_q7.c **** 
  49:Source\SupportFunctions/arm_copy_q7.c **** void arm_copy_q7(
  50:Source\SupportFunctions/arm_copy_q7.c ****   q7_t * pSrc,
  51:Source\SupportFunctions/arm_copy_q7.c ****   q7_t * pDst,
  52:Source\SupportFunctions/arm_copy_q7.c ****   uint32_t blockSize)
  53:Source\SupportFunctions/arm_copy_q7.c **** {
  26              		.loc 1 53 0
  27              		.cfi_startproc
  28 0000 80B5     		push	{r7, lr}
  29              		.cfi_def_cfa_offset 8
  30              		.cfi_offset 7, -8
  31              		.cfi_offset 14, -4
  32 0002 86B0     		sub	sp, sp, #24
  33              		.cfi_def_cfa_offset 32
  34 0004 00AF     		add	r7, sp, #0
  35              		.cfi_def_cfa_register 7
  36 0006 F860     		str	r0, [r7, #12]
  37 0008 B960     		str	r1, [r7, #8]
  38 000a 7A60     		str	r2, [r7, #4]
  54:Source\SupportFunctions/arm_copy_q7.c ****   uint32_t blkCnt;                               /* loop counter */
  55:Source\SupportFunctions/arm_copy_q7.c **** 
  56:Source\SupportFunctions/arm_copy_q7.c **** #if defined (ARM_MATH_DSP)
  57:Source\SupportFunctions/arm_copy_q7.c **** 
  58:Source\SupportFunctions/arm_copy_q7.c ****   /* Run the below code for Cortex-M4 and Cortex-M3 */
  59:Source\SupportFunctions/arm_copy_q7.c **** 
  60:Source\SupportFunctions/arm_copy_q7.c ****   /*loop Unrolling */
  61:Source\SupportFunctions/arm_copy_q7.c ****   blkCnt = blockSize >> 2u;
  62:Source\SupportFunctions/arm_copy_q7.c **** 
  63:Source\SupportFunctions/arm_copy_q7.c ****   /* First part of the processing with loop unrolling.  Compute 4 outputs at a time.
  64:Source\SupportFunctions/arm_copy_q7.c ****    ** a second loop below computes the remaining 1 to 3 samples. */
  65:Source\SupportFunctions/arm_copy_q7.c ****   while (blkCnt > 0u)
  66:Source\SupportFunctions/arm_copy_q7.c ****   {
  67:Source\SupportFunctions/arm_copy_q7.c ****     /* C = A */
  68:Source\SupportFunctions/arm_copy_q7.c ****     /* Copy and then store the results in the destination buffer */
  69:Source\SupportFunctions/arm_copy_q7.c ****     /* 4 samples are copied and stored at a time using SIMD */
  70:Source\SupportFunctions/arm_copy_q7.c ****     *__SIMD32(pDst)++ = *__SIMD32(pSrc)++;
  71:Source\SupportFunctions/arm_copy_q7.c **** 
  72:Source\SupportFunctions/arm_copy_q7.c ****     /* Decrement the loop counter */
  73:Source\SupportFunctions/arm_copy_q7.c ****     blkCnt--;
  74:Source\SupportFunctions/arm_copy_q7.c ****   }
  75:Source\SupportFunctions/arm_copy_q7.c **** 
  76:Source\SupportFunctions/arm_copy_q7.c ****   /* If the blockSize is not a multiple of 4, compute any remaining output samples here.
ARM GAS  C:\Users\fneves\AppData\Local\Temp\ccNGtL0g.s 			page 3


  77:Source\SupportFunctions/arm_copy_q7.c ****    ** No loop unrolling is used. */
  78:Source\SupportFunctions/arm_copy_q7.c ****   blkCnt = blockSize % 0x4u;
  79:Source\SupportFunctions/arm_copy_q7.c **** 
  80:Source\SupportFunctions/arm_copy_q7.c **** #else
  81:Source\SupportFunctions/arm_copy_q7.c **** 
  82:Source\SupportFunctions/arm_copy_q7.c ****   /* Run the below code for Cortex-M0 */
  83:Source\SupportFunctions/arm_copy_q7.c **** 
  84:Source\SupportFunctions/arm_copy_q7.c ****   /* Loop over blockSize number of values */
  85:Source\SupportFunctions/arm_copy_q7.c ****   blkCnt = blockSize;
  39              		.loc 1 85 0
  40 000c 7B68     		ldr	r3, [r7, #4]
  41 000e 7B61     		str	r3, [r7, #20]
  86:Source\SupportFunctions/arm_copy_q7.c **** 
  87:Source\SupportFunctions/arm_copy_q7.c **** #endif /* #if defined (ARM_MATH_DSP) */
  88:Source\SupportFunctions/arm_copy_q7.c **** 
  89:Source\SupportFunctions/arm_copy_q7.c **** 
  90:Source\SupportFunctions/arm_copy_q7.c ****   while (blkCnt > 0u)
  42              		.loc 1 90 0
  43 0010 0AE0     		b	.L2
  44              	.L3:
  91:Source\SupportFunctions/arm_copy_q7.c ****   {
  92:Source\SupportFunctions/arm_copy_q7.c ****     /* C = A */
  93:Source\SupportFunctions/arm_copy_q7.c ****     /* Copy and then store the results in the destination buffer */
  94:Source\SupportFunctions/arm_copy_q7.c ****     *pDst++ = *pSrc++;
  45              		.loc 1 94 0
  46 0012 BB68     		ldr	r3, [r7, #8]
  47 0014 5A1C     		add	r2, r3, #1
  48 0016 BA60     		str	r2, [r7, #8]
  49 0018 FA68     		ldr	r2, [r7, #12]
  50 001a 511C     		add	r1, r2, #1
  51 001c F960     		str	r1, [r7, #12]
  52 001e 1278     		ldrb	r2, [r2]
  53 0020 1A70     		strb	r2, [r3]
  95:Source\SupportFunctions/arm_copy_q7.c **** 
  96:Source\SupportFunctions/arm_copy_q7.c ****     /* Decrement the loop counter */
  97:Source\SupportFunctions/arm_copy_q7.c ****     blkCnt--;
  54              		.loc 1 97 0
  55 0022 7B69     		ldr	r3, [r7, #20]
  56 0024 013B     		sub	r3, r3, #1
  57 0026 7B61     		str	r3, [r7, #20]
  58              	.L2:
  90:Source\SupportFunctions/arm_copy_q7.c ****   {
  59              		.loc 1 90 0
  60 0028 7B69     		ldr	r3, [r7, #20]
  61 002a 002B     		cmp	r3, #0
  62 002c F1D1     		bne	.L3
  98:Source\SupportFunctions/arm_copy_q7.c ****   }
  99:Source\SupportFunctions/arm_copy_q7.c **** }
  63              		.loc 1 99 0
  64 002e BD46     		mov	sp, r7
  65 0030 06B0     		add	sp, sp, #24
  66              		@ sp needed
  67 0032 80BD     		pop	{r7, pc}
  68              		.cfi_endproc
  69              	.LFE82:
  70              		.size	arm_copy_q7, .-arm_copy_q7
  71              		.text
ARM GAS  C:\Users\fneves\AppData\Local\Temp\ccNGtL0g.s 			page 4


  72              	.Letext0:
  73              		.file 2 "c:\\program files (x86)\\cypress\\psoc creator\\4.0\\psoc creator\\import\\gnu\\arm\\4.9.
  74              		.file 3 "c:\\program files (x86)\\cypress\\psoc creator\\4.0\\psoc creator\\import\\gnu\\arm\\4.9.
  75              		.file 4 ".\\Include/arm_math.h"