ARM GAS  C:\Users\fneves\AppData\Local\Temp\ccFUaZy9.s 			page 1


   1              		.cpu cortex-m0plus
   2              		.fpu softvfp
   3              		.eabi_attribute 20, 1
   4              		.eabi_attribute 21, 1
   5              		.eabi_attribute 23, 3
   6              		.eabi_attribute 24, 1
   7              		.eabi_attribute 25, 1
   8              		.eabi_attribute 26, 1
   9              		.eabi_attribute 30, 6
  10              		.eabi_attribute 34, 0
  11              		.eabi_attribute 18, 4
  12              		.code	16
  13              		.file	"arm_mat_inverse_f32.c"
  14              		.text
  15              	.Ltext0:
  16              		.cfi_sections	.debug_frame
  17              		.global	__aeabi_fcmpeq
  18              		.global	__aeabi_fdiv
  19              		.global	__aeabi_fmul
  20              		.global	__aeabi_fsub
  21              		.section	.text.arm_mat_inverse_f32,"ax",%progbits
  22              		.align	2
  23              		.global	arm_mat_inverse_f32
  24              		.code	16
  25              		.thumb_func
  26              		.type	arm_mat_inverse_f32, %function
  27              	arm_mat_inverse_f32:
  28              	.LFB82:
  29              		.file 1 "Source\\MatrixFunctions\\arm_mat_inverse_f32.c"
   1:Source\MatrixFunctions/arm_mat_inverse_f32.c **** /* ----------------------------------------------------------------------
   2:Source\MatrixFunctions/arm_mat_inverse_f32.c ****  * Project:      CMSIS DSP Library
   3:Source\MatrixFunctions/arm_mat_inverse_f32.c ****  * Title:        arm_mat_inverse_f32.c
   4:Source\MatrixFunctions/arm_mat_inverse_f32.c ****  * Description:  Floating-point matrix inverse
   5:Source\MatrixFunctions/arm_mat_inverse_f32.c ****  *
   6:Source\MatrixFunctions/arm_mat_inverse_f32.c ****  * $Date:        27. January 2017
   7:Source\MatrixFunctions/arm_mat_inverse_f32.c ****  * $Revision:    V.1.5.1
   8:Source\MatrixFunctions/arm_mat_inverse_f32.c ****  *
   9:Source\MatrixFunctions/arm_mat_inverse_f32.c ****  * Target Processor: Cortex-M cores
  10:Source\MatrixFunctions/arm_mat_inverse_f32.c ****  * -------------------------------------------------------------------- */
  11:Source\MatrixFunctions/arm_mat_inverse_f32.c **** /*
  12:Source\MatrixFunctions/arm_mat_inverse_f32.c ****  * Copyright (C) 2010-2017 ARM Limited or its affiliates. All rights reserved.
  13:Source\MatrixFunctions/arm_mat_inverse_f32.c ****  *
  14:Source\MatrixFunctions/arm_mat_inverse_f32.c ****  * SPDX-License-Identifier: Apache-2.0
  15:Source\MatrixFunctions/arm_mat_inverse_f32.c ****  *
  16:Source\MatrixFunctions/arm_mat_inverse_f32.c ****  * Licensed under the Apache License, Version 2.0 (the License); you may
  17:Source\MatrixFunctions/arm_mat_inverse_f32.c ****  * not use this file except in compliance with the License.
  18:Source\MatrixFunctions/arm_mat_inverse_f32.c ****  * You may obtain a copy of the License at
  19:Source\MatrixFunctions/arm_mat_inverse_f32.c ****  *
  20:Source\MatrixFunctions/arm_mat_inverse_f32.c ****  * www.apache.org/licenses/LICENSE-2.0
  21:Source\MatrixFunctions/arm_mat_inverse_f32.c ****  *
  22:Source\MatrixFunctions/arm_mat_inverse_f32.c ****  * Unless required by applicable law or agreed to in writing, software
  23:Source\MatrixFunctions/arm_mat_inverse_f32.c ****  * distributed under the License is distributed on an AS IS BASIS, WITHOUT
  24:Source\MatrixFunctions/arm_mat_inverse_f32.c ****  * WARRANTIES OR CONDITIONS OF ANY KIND, either express or implied.
  25:Source\MatrixFunctions/arm_mat_inverse_f32.c ****  * See the License for the specific language governing permissions and
  26:Source\MatrixFunctions/arm_mat_inverse_f32.c ****  * limitations under the License.
  27:Source\MatrixFunctions/arm_mat_inverse_f32.c ****  */
  28:Source\MatrixFunctions/arm_mat_inverse_f32.c **** 
ARM GAS  C:\Users\fneves\AppData\Local\Temp\ccFUaZy9.s 			page 2


  29:Source\MatrixFunctions/arm_mat_inverse_f32.c **** #include "arm_math.h"
  30:Source\MatrixFunctions/arm_mat_inverse_f32.c **** 
  31:Source\MatrixFunctions/arm_mat_inverse_f32.c **** /**
  32:Source\MatrixFunctions/arm_mat_inverse_f32.c ****  * @ingroup groupMatrix
  33:Source\MatrixFunctions/arm_mat_inverse_f32.c ****  */
  34:Source\MatrixFunctions/arm_mat_inverse_f32.c **** 
  35:Source\MatrixFunctions/arm_mat_inverse_f32.c **** /**
  36:Source\MatrixFunctions/arm_mat_inverse_f32.c ****  * @defgroup MatrixInv Matrix Inverse
  37:Source\MatrixFunctions/arm_mat_inverse_f32.c ****  *
  38:Source\MatrixFunctions/arm_mat_inverse_f32.c ****  * Computes the inverse of a matrix.
  39:Source\MatrixFunctions/arm_mat_inverse_f32.c ****  *
  40:Source\MatrixFunctions/arm_mat_inverse_f32.c ****  * The inverse is defined only if the input matrix is square and non-singular (the determinant
  41:Source\MatrixFunctions/arm_mat_inverse_f32.c ****  * is non-zero). The function checks that the input and output matrices are square and of the
  42:Source\MatrixFunctions/arm_mat_inverse_f32.c ****  * same size.
  43:Source\MatrixFunctions/arm_mat_inverse_f32.c ****  *
  44:Source\MatrixFunctions/arm_mat_inverse_f32.c ****  * Matrix inversion is numerically sensitive and the CMSIS DSP library only supports matrix
  45:Source\MatrixFunctions/arm_mat_inverse_f32.c ****  * inversion of floating-point matrices.
  46:Source\MatrixFunctions/arm_mat_inverse_f32.c ****  *
  47:Source\MatrixFunctions/arm_mat_inverse_f32.c ****  * \par Algorithm
  48:Source\MatrixFunctions/arm_mat_inverse_f32.c ****  * The Gauss-Jordan method is used to find the inverse.
  49:Source\MatrixFunctions/arm_mat_inverse_f32.c ****  * The algorithm performs a sequence of elementary row-operations until it
  50:Source\MatrixFunctions/arm_mat_inverse_f32.c ****  * reduces the input matrix to an identity matrix. Applying the same sequence
  51:Source\MatrixFunctions/arm_mat_inverse_f32.c ****  * of elementary row-operations to an identity matrix yields the inverse matrix.
  52:Source\MatrixFunctions/arm_mat_inverse_f32.c ****  * If the input matrix is singular, then the algorithm terminates and returns error status
  53:Source\MatrixFunctions/arm_mat_inverse_f32.c ****  * <code>ARM_MATH_SINGULAR</code>.
  54:Source\MatrixFunctions/arm_mat_inverse_f32.c ****  * \image html MatrixInverse.gif "Matrix Inverse of a 3 x 3 matrix using Gauss-Jordan Method"
  55:Source\MatrixFunctions/arm_mat_inverse_f32.c ****  */
  56:Source\MatrixFunctions/arm_mat_inverse_f32.c **** 
  57:Source\MatrixFunctions/arm_mat_inverse_f32.c **** /**
  58:Source\MatrixFunctions/arm_mat_inverse_f32.c ****  * @addtogroup MatrixInv
  59:Source\MatrixFunctions/arm_mat_inverse_f32.c ****  * @{
  60:Source\MatrixFunctions/arm_mat_inverse_f32.c ****  */
  61:Source\MatrixFunctions/arm_mat_inverse_f32.c **** 
  62:Source\MatrixFunctions/arm_mat_inverse_f32.c **** /**
  63:Source\MatrixFunctions/arm_mat_inverse_f32.c ****  * @brief Floating-point matrix inverse.
  64:Source\MatrixFunctions/arm_mat_inverse_f32.c ****  * @param[in]       *pSrc points to input matrix structure
  65:Source\MatrixFunctions/arm_mat_inverse_f32.c ****  * @param[out]      *pDst points to output matrix structure
  66:Source\MatrixFunctions/arm_mat_inverse_f32.c ****  * @return     		The function returns
  67:Source\MatrixFunctions/arm_mat_inverse_f32.c ****  * <code>ARM_MATH_SIZE_MISMATCH</code> if the input matrix is not square or if the size
  68:Source\MatrixFunctions/arm_mat_inverse_f32.c ****  * of the output matrix does not match the size of the input matrix.
  69:Source\MatrixFunctions/arm_mat_inverse_f32.c ****  * If the input matrix is found to be singular (non-invertible), then the function returns
  70:Source\MatrixFunctions/arm_mat_inverse_f32.c ****  * <code>ARM_MATH_SINGULAR</code>.  Otherwise, the function returns <code>ARM_MATH_SUCCESS</code>.
  71:Source\MatrixFunctions/arm_mat_inverse_f32.c ****  */
  72:Source\MatrixFunctions/arm_mat_inverse_f32.c **** 
  73:Source\MatrixFunctions/arm_mat_inverse_f32.c **** arm_status arm_mat_inverse_f32(
  74:Source\MatrixFunctions/arm_mat_inverse_f32.c ****   const arm_matrix_instance_f32 * pSrc,
  75:Source\MatrixFunctions/arm_mat_inverse_f32.c ****   arm_matrix_instance_f32 * pDst)
  76:Source\MatrixFunctions/arm_mat_inverse_f32.c **** {
  30              		.loc 1 76 0
  31              		.cfi_startproc
  32 0000 90B5     		push	{r4, r7, lr}
  33              		.cfi_def_cfa_offset 12
  34              		.cfi_offset 4, -12
  35              		.cfi_offset 7, -8
  36              		.cfi_offset 14, -4
  37 0002 99B0     		sub	sp, sp, #100
  38              		.cfi_def_cfa_offset 112
ARM GAS  C:\Users\fneves\AppData\Local\Temp\ccFUaZy9.s 			page 3


  39 0004 00AF     		add	r7, sp, #0
  40              		.cfi_def_cfa_register 7
  41 0006 7860     		str	r0, [r7, #4]
  42 0008 3960     		str	r1, [r7]
  77:Source\MatrixFunctions/arm_mat_inverse_f32.c ****   float32_t *pIn = pSrc->pData;                  /* input data matrix pointer */
  43              		.loc 1 77 0
  44 000a 7B68     		ldr	r3, [r7, #4]
  45 000c 5B68     		ldr	r3, [r3, #4]
  46 000e FB65     		str	r3, [r7, #92]
  78:Source\MatrixFunctions/arm_mat_inverse_f32.c ****   float32_t *pOut = pDst->pData;                 /* output data matrix pointer */
  47              		.loc 1 78 0
  48 0010 3B68     		ldr	r3, [r7]
  49 0012 5B68     		ldr	r3, [r3, #4]
  50 0014 FB61     		str	r3, [r7, #28]
  79:Source\MatrixFunctions/arm_mat_inverse_f32.c ****   float32_t *pInT1, *pInT2;                      /* Temporary input data matrix pointer */
  80:Source\MatrixFunctions/arm_mat_inverse_f32.c ****   float32_t *pOutT1, *pOutT2;                    /* Temporary output data matrix pointer */
  81:Source\MatrixFunctions/arm_mat_inverse_f32.c ****   float32_t *pPivotRowIn, *pPRT_in, *pPivotRowDst, *pPRT_pDst;  /* Temporary input and output data 
  82:Source\MatrixFunctions/arm_mat_inverse_f32.c ****   uint32_t numRows = pSrc->numRows;              /* Number of rows in the matrix  */
  51              		.loc 1 82 0
  52 0016 7B68     		ldr	r3, [r7, #4]
  53 0018 1B88     		ldrh	r3, [r3]
  54 001a BB61     		str	r3, [r7, #24]
  83:Source\MatrixFunctions/arm_mat_inverse_f32.c ****   uint32_t numCols = pSrc->numCols;              /* Number of Cols in the matrix  */
  55              		.loc 1 83 0
  56 001c 7B68     		ldr	r3, [r7, #4]
  57 001e 5B88     		ldrh	r3, [r3, #2]
  58 0020 7B61     		str	r3, [r7, #20]
  84:Source\MatrixFunctions/arm_mat_inverse_f32.c **** 
  85:Source\MatrixFunctions/arm_mat_inverse_f32.c **** #if defined (ARM_MATH_DSP)
  86:Source\MatrixFunctions/arm_mat_inverse_f32.c ****   float32_t maxC;                                /* maximum value in the column */
  87:Source\MatrixFunctions/arm_mat_inverse_f32.c **** 
  88:Source\MatrixFunctions/arm_mat_inverse_f32.c ****   /* Run the below code for Cortex-M4 and Cortex-M3 */
  89:Source\MatrixFunctions/arm_mat_inverse_f32.c **** 
  90:Source\MatrixFunctions/arm_mat_inverse_f32.c ****   float32_t Xchg, in = 0.0f, in1;                /* Temporary input values  */
  91:Source\MatrixFunctions/arm_mat_inverse_f32.c ****   uint32_t i, rowCnt, flag = 0u, j, loopCnt, k, l;      /* loop counters */
  92:Source\MatrixFunctions/arm_mat_inverse_f32.c ****   arm_status status;                             /* status of matrix inverse */
  93:Source\MatrixFunctions/arm_mat_inverse_f32.c **** 
  94:Source\MatrixFunctions/arm_mat_inverse_f32.c **** #ifdef ARM_MATH_MATRIX_CHECK
  95:Source\MatrixFunctions/arm_mat_inverse_f32.c **** 
  96:Source\MatrixFunctions/arm_mat_inverse_f32.c **** 
  97:Source\MatrixFunctions/arm_mat_inverse_f32.c ****   /* Check for matrix mismatch condition */
  98:Source\MatrixFunctions/arm_mat_inverse_f32.c ****   if ((pSrc->numRows != pSrc->numCols) || (pDst->numRows != pDst->numCols)
  99:Source\MatrixFunctions/arm_mat_inverse_f32.c ****      || (pSrc->numRows != pDst->numRows))
 100:Source\MatrixFunctions/arm_mat_inverse_f32.c ****   {
 101:Source\MatrixFunctions/arm_mat_inverse_f32.c ****     /* Set status as ARM_MATH_SIZE_MISMATCH */
 102:Source\MatrixFunctions/arm_mat_inverse_f32.c ****     status = ARM_MATH_SIZE_MISMATCH;
 103:Source\MatrixFunctions/arm_mat_inverse_f32.c ****   }
 104:Source\MatrixFunctions/arm_mat_inverse_f32.c ****   else
 105:Source\MatrixFunctions/arm_mat_inverse_f32.c **** #endif /*    #ifdef ARM_MATH_MATRIX_CHECK    */
 106:Source\MatrixFunctions/arm_mat_inverse_f32.c **** 
 107:Source\MatrixFunctions/arm_mat_inverse_f32.c ****   {
 108:Source\MatrixFunctions/arm_mat_inverse_f32.c **** 
 109:Source\MatrixFunctions/arm_mat_inverse_f32.c ****     /*---------------------------------------------------------------------------------------------
 110:Source\MatrixFunctions/arm_mat_inverse_f32.c **** 	 * Matrix Inverse can be solved using elementary row operations.
 111:Source\MatrixFunctions/arm_mat_inverse_f32.c **** 	 *
 112:Source\MatrixFunctions/arm_mat_inverse_f32.c **** 	 *	Gauss-Jordan Method:
 113:Source\MatrixFunctions/arm_mat_inverse_f32.c **** 	 *
ARM GAS  C:\Users\fneves\AppData\Local\Temp\ccFUaZy9.s 			page 4


 114:Source\MatrixFunctions/arm_mat_inverse_f32.c **** 	 *	   1. First combine the identity matrix and the input matrix separated by a bar to form an
 115:Source\MatrixFunctions/arm_mat_inverse_f32.c **** 	 *        augmented matrix as follows:
 116:Source\MatrixFunctions/arm_mat_inverse_f32.c **** 	 *				        _ 	      	       _         _	       _
 117:Source\MatrixFunctions/arm_mat_inverse_f32.c **** 	 *					   |  a11  a12 | 1   0  |       |  X11 X12  |
 118:Source\MatrixFunctions/arm_mat_inverse_f32.c **** 	 *					   |           |        |   =   |           |
 119:Source\MatrixFunctions/arm_mat_inverse_f32.c **** 	 *					   |_ a21  a22 | 0   1 _|       |_ X21 X21 _|
 120:Source\MatrixFunctions/arm_mat_inverse_f32.c **** 	 *
 121:Source\MatrixFunctions/arm_mat_inverse_f32.c **** 	 *		2. In our implementation, pDst Matrix is used as identity matrix.
 122:Source\MatrixFunctions/arm_mat_inverse_f32.c **** 	 *
 123:Source\MatrixFunctions/arm_mat_inverse_f32.c **** 	 *		3. Begin with the first row. Let i = 1.
 124:Source\MatrixFunctions/arm_mat_inverse_f32.c **** 	 *
 125:Source\MatrixFunctions/arm_mat_inverse_f32.c **** 	 *	    4. Check to see if the pivot for column i is the greatest of the column.
 126:Source\MatrixFunctions/arm_mat_inverse_f32.c **** 	 *		   The pivot is the element of the main diagonal that is on the current row.
 127:Source\MatrixFunctions/arm_mat_inverse_f32.c **** 	 *		   For instance, if working with row i, then the pivot element is aii.
 128:Source\MatrixFunctions/arm_mat_inverse_f32.c **** 	 *		   If the pivot is not the most significant of the columns, exchange that row with a row
 129:Source\MatrixFunctions/arm_mat_inverse_f32.c **** 	 *		   below it that does contain the most significant value in column i. If the most
 130:Source\MatrixFunctions/arm_mat_inverse_f32.c **** 	 *         significant value of the column is zero, then an inverse to that matrix does not exist.
 131:Source\MatrixFunctions/arm_mat_inverse_f32.c **** 	 *		   The most significant value of the column is the absolute maximum.
 132:Source\MatrixFunctions/arm_mat_inverse_f32.c **** 	 *
 133:Source\MatrixFunctions/arm_mat_inverse_f32.c **** 	 *	    5. Divide every element of row i by the pivot.
 134:Source\MatrixFunctions/arm_mat_inverse_f32.c **** 	 *
 135:Source\MatrixFunctions/arm_mat_inverse_f32.c **** 	 *	    6. For every row below and  row i, replace that row with the sum of that row and
 136:Source\MatrixFunctions/arm_mat_inverse_f32.c **** 	 *		   a multiple of row i so that each new element in column i below row i is zero.
 137:Source\MatrixFunctions/arm_mat_inverse_f32.c **** 	 *
 138:Source\MatrixFunctions/arm_mat_inverse_f32.c **** 	 *	    7. Move to the next row and column and repeat steps 2 through 5 until you have zeros
 139:Source\MatrixFunctions/arm_mat_inverse_f32.c **** 	 *		   for every element below and above the main diagonal.
 140:Source\MatrixFunctions/arm_mat_inverse_f32.c **** 	 *
 141:Source\MatrixFunctions/arm_mat_inverse_f32.c **** 	 *		8. Now an identical matrix is formed to the left of the bar(input matrix, pSrc).
 142:Source\MatrixFunctions/arm_mat_inverse_f32.c **** 	 *		   Therefore, the matrix to the right of the bar is our solution(pDst matrix, pDst).
 143:Source\MatrixFunctions/arm_mat_inverse_f32.c **** 	 *------------------------------------------------------------------------------------------------
 144:Source\MatrixFunctions/arm_mat_inverse_f32.c **** 
 145:Source\MatrixFunctions/arm_mat_inverse_f32.c ****     /* Working pointer for destination matrix */
 146:Source\MatrixFunctions/arm_mat_inverse_f32.c ****     pOutT1 = pOut;
 147:Source\MatrixFunctions/arm_mat_inverse_f32.c **** 
 148:Source\MatrixFunctions/arm_mat_inverse_f32.c ****     /* Loop over the number of rows */
 149:Source\MatrixFunctions/arm_mat_inverse_f32.c ****     rowCnt = numRows;
 150:Source\MatrixFunctions/arm_mat_inverse_f32.c **** 
 151:Source\MatrixFunctions/arm_mat_inverse_f32.c ****     /* Making the destination matrix as identity matrix */
 152:Source\MatrixFunctions/arm_mat_inverse_f32.c ****     while (rowCnt > 0u)
 153:Source\MatrixFunctions/arm_mat_inverse_f32.c ****     {
 154:Source\MatrixFunctions/arm_mat_inverse_f32.c ****       /* Writing all zeroes in lower triangle of the destination matrix */
 155:Source\MatrixFunctions/arm_mat_inverse_f32.c ****       j = numRows - rowCnt;
 156:Source\MatrixFunctions/arm_mat_inverse_f32.c ****       while (j > 0u)
 157:Source\MatrixFunctions/arm_mat_inverse_f32.c ****       {
 158:Source\MatrixFunctions/arm_mat_inverse_f32.c ****         *pOutT1++ = 0.0f;
 159:Source\MatrixFunctions/arm_mat_inverse_f32.c ****         j--;
 160:Source\MatrixFunctions/arm_mat_inverse_f32.c ****       }
 161:Source\MatrixFunctions/arm_mat_inverse_f32.c **** 
 162:Source\MatrixFunctions/arm_mat_inverse_f32.c ****       /* Writing all ones in the diagonal of the destination matrix */
 163:Source\MatrixFunctions/arm_mat_inverse_f32.c ****       *pOutT1++ = 1.0f;
 164:Source\MatrixFunctions/arm_mat_inverse_f32.c **** 
 165:Source\MatrixFunctions/arm_mat_inverse_f32.c ****       /* Writing all zeroes in upper triangle of the destination matrix */
 166:Source\MatrixFunctions/arm_mat_inverse_f32.c ****       j = rowCnt - 1u;
 167:Source\MatrixFunctions/arm_mat_inverse_f32.c ****       while (j > 0u)
 168:Source\MatrixFunctions/arm_mat_inverse_f32.c ****       {
 169:Source\MatrixFunctions/arm_mat_inverse_f32.c ****         *pOutT1++ = 0.0f;
 170:Source\MatrixFunctions/arm_mat_inverse_f32.c ****         j--;
ARM GAS  C:\Users\fneves\AppData\Local\Temp\ccFUaZy9.s 			page 5


 171:Source\MatrixFunctions/arm_mat_inverse_f32.c ****       }
 172:Source\MatrixFunctions/arm_mat_inverse_f32.c **** 
 173:Source\MatrixFunctions/arm_mat_inverse_f32.c ****       /* Decrement the loop counter */
 174:Source\MatrixFunctions/arm_mat_inverse_f32.c ****       rowCnt--;
 175:Source\MatrixFunctions/arm_mat_inverse_f32.c ****     }
 176:Source\MatrixFunctions/arm_mat_inverse_f32.c **** 
 177:Source\MatrixFunctions/arm_mat_inverse_f32.c ****     /* Loop over the number of columns of the input matrix.
 178:Source\MatrixFunctions/arm_mat_inverse_f32.c ****        All the elements in each column are processed by the row operations */
 179:Source\MatrixFunctions/arm_mat_inverse_f32.c ****     loopCnt = numCols;
 180:Source\MatrixFunctions/arm_mat_inverse_f32.c **** 
 181:Source\MatrixFunctions/arm_mat_inverse_f32.c ****     /* Index modifier to navigate through the columns */
 182:Source\MatrixFunctions/arm_mat_inverse_f32.c ****     l = 0u;
 183:Source\MatrixFunctions/arm_mat_inverse_f32.c **** 
 184:Source\MatrixFunctions/arm_mat_inverse_f32.c ****     while (loopCnt > 0u)
 185:Source\MatrixFunctions/arm_mat_inverse_f32.c ****     {
 186:Source\MatrixFunctions/arm_mat_inverse_f32.c ****       /* Check if the pivot element is zero..
 187:Source\MatrixFunctions/arm_mat_inverse_f32.c ****        * If it is zero then interchange the row with non zero row below.
 188:Source\MatrixFunctions/arm_mat_inverse_f32.c ****        * If there is no non zero element to replace in the rows below,
 189:Source\MatrixFunctions/arm_mat_inverse_f32.c ****        * then the matrix is Singular. */
 190:Source\MatrixFunctions/arm_mat_inverse_f32.c **** 
 191:Source\MatrixFunctions/arm_mat_inverse_f32.c ****       /* Working pointer for the input matrix that points
 192:Source\MatrixFunctions/arm_mat_inverse_f32.c ****        * to the pivot element of the particular row  */
 193:Source\MatrixFunctions/arm_mat_inverse_f32.c ****       pInT1 = pIn + (l * numCols);
 194:Source\MatrixFunctions/arm_mat_inverse_f32.c **** 
 195:Source\MatrixFunctions/arm_mat_inverse_f32.c ****       /* Working pointer for the destination matrix that points
 196:Source\MatrixFunctions/arm_mat_inverse_f32.c ****        * to the pivot element of the particular row  */
 197:Source\MatrixFunctions/arm_mat_inverse_f32.c ****       pOutT1 = pOut + (l * numCols);
 198:Source\MatrixFunctions/arm_mat_inverse_f32.c **** 
 199:Source\MatrixFunctions/arm_mat_inverse_f32.c ****       /* Temporary variable to hold the pivot value */
 200:Source\MatrixFunctions/arm_mat_inverse_f32.c ****       in = *pInT1;
 201:Source\MatrixFunctions/arm_mat_inverse_f32.c **** 
 202:Source\MatrixFunctions/arm_mat_inverse_f32.c ****       /* Grab the most significant value from column l */
 203:Source\MatrixFunctions/arm_mat_inverse_f32.c ****       maxC = 0;
 204:Source\MatrixFunctions/arm_mat_inverse_f32.c ****       for (i = l; i < numRows; i++)
 205:Source\MatrixFunctions/arm_mat_inverse_f32.c ****       {
 206:Source\MatrixFunctions/arm_mat_inverse_f32.c ****         maxC = *pInT1 > 0 ? (*pInT1 > maxC ? *pInT1 : maxC) : (-*pInT1 > maxC ? -*pInT1 : maxC);
 207:Source\MatrixFunctions/arm_mat_inverse_f32.c ****         pInT1 += numCols;
 208:Source\MatrixFunctions/arm_mat_inverse_f32.c ****       }
 209:Source\MatrixFunctions/arm_mat_inverse_f32.c **** 
 210:Source\MatrixFunctions/arm_mat_inverse_f32.c ****       /* Update the status if the matrix is singular */
 211:Source\MatrixFunctions/arm_mat_inverse_f32.c ****       if (maxC == 0.0f)
 212:Source\MatrixFunctions/arm_mat_inverse_f32.c ****       {
 213:Source\MatrixFunctions/arm_mat_inverse_f32.c ****         return ARM_MATH_SINGULAR;
 214:Source\MatrixFunctions/arm_mat_inverse_f32.c ****       }
 215:Source\MatrixFunctions/arm_mat_inverse_f32.c **** 
 216:Source\MatrixFunctions/arm_mat_inverse_f32.c ****       /* Restore pInT1  */
 217:Source\MatrixFunctions/arm_mat_inverse_f32.c ****       pInT1 = pIn;
 218:Source\MatrixFunctions/arm_mat_inverse_f32.c **** 
 219:Source\MatrixFunctions/arm_mat_inverse_f32.c ****       /* Destination pointer modifier */
 220:Source\MatrixFunctions/arm_mat_inverse_f32.c ****       k = 1u;
 221:Source\MatrixFunctions/arm_mat_inverse_f32.c **** 
 222:Source\MatrixFunctions/arm_mat_inverse_f32.c ****       /* Check if the pivot element is the most significant of the column */
 223:Source\MatrixFunctions/arm_mat_inverse_f32.c ****       if ( (in > 0.0f ? in : -in) != maxC)
 224:Source\MatrixFunctions/arm_mat_inverse_f32.c ****       {
 225:Source\MatrixFunctions/arm_mat_inverse_f32.c ****         /* Loop over the number rows present below */
 226:Source\MatrixFunctions/arm_mat_inverse_f32.c ****         i = numRows - (l + 1u);
 227:Source\MatrixFunctions/arm_mat_inverse_f32.c **** 
ARM GAS  C:\Users\fneves\AppData\Local\Temp\ccFUaZy9.s 			page 6


 228:Source\MatrixFunctions/arm_mat_inverse_f32.c ****         while (i > 0u)
 229:Source\MatrixFunctions/arm_mat_inverse_f32.c ****         {
 230:Source\MatrixFunctions/arm_mat_inverse_f32.c ****           /* Update the input and destination pointers */
 231:Source\MatrixFunctions/arm_mat_inverse_f32.c ****           pInT2 = pInT1 + (numCols * l);
 232:Source\MatrixFunctions/arm_mat_inverse_f32.c ****           pOutT2 = pOutT1 + (numCols * k);
 233:Source\MatrixFunctions/arm_mat_inverse_f32.c **** 
 234:Source\MatrixFunctions/arm_mat_inverse_f32.c ****           /* Look for the most significant element to
 235:Source\MatrixFunctions/arm_mat_inverse_f32.c ****            * replace in the rows below */
 236:Source\MatrixFunctions/arm_mat_inverse_f32.c ****           if ((*pInT2 > 0.0f ? *pInT2: -*pInT2) == maxC)
 237:Source\MatrixFunctions/arm_mat_inverse_f32.c ****           {
 238:Source\MatrixFunctions/arm_mat_inverse_f32.c ****             /* Loop over number of columns
 239:Source\MatrixFunctions/arm_mat_inverse_f32.c ****              * to the right of the pilot element */
 240:Source\MatrixFunctions/arm_mat_inverse_f32.c ****             j = numCols - l;
 241:Source\MatrixFunctions/arm_mat_inverse_f32.c **** 
 242:Source\MatrixFunctions/arm_mat_inverse_f32.c ****             while (j > 0u)
 243:Source\MatrixFunctions/arm_mat_inverse_f32.c ****             {
 244:Source\MatrixFunctions/arm_mat_inverse_f32.c ****               /* Exchange the row elements of the input matrix */
 245:Source\MatrixFunctions/arm_mat_inverse_f32.c ****               Xchg = *pInT2;
 246:Source\MatrixFunctions/arm_mat_inverse_f32.c ****               *pInT2++ = *pInT1;
 247:Source\MatrixFunctions/arm_mat_inverse_f32.c ****               *pInT1++ = Xchg;
 248:Source\MatrixFunctions/arm_mat_inverse_f32.c **** 
 249:Source\MatrixFunctions/arm_mat_inverse_f32.c ****               /* Decrement the loop counter */
 250:Source\MatrixFunctions/arm_mat_inverse_f32.c ****               j--;
 251:Source\MatrixFunctions/arm_mat_inverse_f32.c ****             }
 252:Source\MatrixFunctions/arm_mat_inverse_f32.c **** 
 253:Source\MatrixFunctions/arm_mat_inverse_f32.c ****             /* Loop over number of columns of the destination matrix */
 254:Source\MatrixFunctions/arm_mat_inverse_f32.c ****             j = numCols;
 255:Source\MatrixFunctions/arm_mat_inverse_f32.c **** 
 256:Source\MatrixFunctions/arm_mat_inverse_f32.c ****             while (j > 0u)
 257:Source\MatrixFunctions/arm_mat_inverse_f32.c ****             {
 258:Source\MatrixFunctions/arm_mat_inverse_f32.c ****               /* Exchange the row elements of the destination matrix */
 259:Source\MatrixFunctions/arm_mat_inverse_f32.c ****               Xchg = *pOutT2;
 260:Source\MatrixFunctions/arm_mat_inverse_f32.c ****               *pOutT2++ = *pOutT1;
 261:Source\MatrixFunctions/arm_mat_inverse_f32.c ****               *pOutT1++ = Xchg;
 262:Source\MatrixFunctions/arm_mat_inverse_f32.c **** 
 263:Source\MatrixFunctions/arm_mat_inverse_f32.c ****               /* Decrement the loop counter */
 264:Source\MatrixFunctions/arm_mat_inverse_f32.c ****               j--;
 265:Source\MatrixFunctions/arm_mat_inverse_f32.c ****             }
 266:Source\MatrixFunctions/arm_mat_inverse_f32.c **** 
 267:Source\MatrixFunctions/arm_mat_inverse_f32.c ****             /* Flag to indicate whether exchange is done or not */
 268:Source\MatrixFunctions/arm_mat_inverse_f32.c ****             flag = 1u;
 269:Source\MatrixFunctions/arm_mat_inverse_f32.c **** 
 270:Source\MatrixFunctions/arm_mat_inverse_f32.c ****             /* Break after exchange is done */
 271:Source\MatrixFunctions/arm_mat_inverse_f32.c ****             break;
 272:Source\MatrixFunctions/arm_mat_inverse_f32.c ****           }
 273:Source\MatrixFunctions/arm_mat_inverse_f32.c **** 
 274:Source\MatrixFunctions/arm_mat_inverse_f32.c ****           /* Update the destination pointer modifier */
 275:Source\MatrixFunctions/arm_mat_inverse_f32.c ****           k++;
 276:Source\MatrixFunctions/arm_mat_inverse_f32.c **** 
 277:Source\MatrixFunctions/arm_mat_inverse_f32.c ****           /* Decrement the loop counter */
 278:Source\MatrixFunctions/arm_mat_inverse_f32.c ****           i--;
 279:Source\MatrixFunctions/arm_mat_inverse_f32.c ****         }
 280:Source\MatrixFunctions/arm_mat_inverse_f32.c ****       }
 281:Source\MatrixFunctions/arm_mat_inverse_f32.c **** 
 282:Source\MatrixFunctions/arm_mat_inverse_f32.c ****       /* Update the status if the matrix is singular */
 283:Source\MatrixFunctions/arm_mat_inverse_f32.c ****       if ((flag != 1u) && (in == 0.0f))
 284:Source\MatrixFunctions/arm_mat_inverse_f32.c ****       {
ARM GAS  C:\Users\fneves\AppData\Local\Temp\ccFUaZy9.s 			page 7


 285:Source\MatrixFunctions/arm_mat_inverse_f32.c ****         return ARM_MATH_SINGULAR;
 286:Source\MatrixFunctions/arm_mat_inverse_f32.c ****       }
 287:Source\MatrixFunctions/arm_mat_inverse_f32.c **** 
 288:Source\MatrixFunctions/arm_mat_inverse_f32.c ****       /* Points to the pivot row of input and destination matrices */
 289:Source\MatrixFunctions/arm_mat_inverse_f32.c ****       pPivotRowIn = pIn + (l * numCols);
 290:Source\MatrixFunctions/arm_mat_inverse_f32.c ****       pPivotRowDst = pOut + (l * numCols);
 291:Source\MatrixFunctions/arm_mat_inverse_f32.c **** 
 292:Source\MatrixFunctions/arm_mat_inverse_f32.c ****       /* Temporary pointers to the pivot row pointers */
 293:Source\MatrixFunctions/arm_mat_inverse_f32.c ****       pInT1 = pPivotRowIn;
 294:Source\MatrixFunctions/arm_mat_inverse_f32.c ****       pInT2 = pPivotRowDst;
 295:Source\MatrixFunctions/arm_mat_inverse_f32.c **** 
 296:Source\MatrixFunctions/arm_mat_inverse_f32.c ****       /* Pivot element of the row */
 297:Source\MatrixFunctions/arm_mat_inverse_f32.c ****       in = *pPivotRowIn;
 298:Source\MatrixFunctions/arm_mat_inverse_f32.c **** 
 299:Source\MatrixFunctions/arm_mat_inverse_f32.c ****       /* Loop over number of columns
 300:Source\MatrixFunctions/arm_mat_inverse_f32.c ****        * to the right of the pilot element */
 301:Source\MatrixFunctions/arm_mat_inverse_f32.c ****       j = (numCols - l);
 302:Source\MatrixFunctions/arm_mat_inverse_f32.c **** 
 303:Source\MatrixFunctions/arm_mat_inverse_f32.c ****       while (j > 0u)
 304:Source\MatrixFunctions/arm_mat_inverse_f32.c ****       {
 305:Source\MatrixFunctions/arm_mat_inverse_f32.c ****         /* Divide each element of the row of the input matrix
 306:Source\MatrixFunctions/arm_mat_inverse_f32.c ****          * by the pivot element */
 307:Source\MatrixFunctions/arm_mat_inverse_f32.c ****         in1 = *pInT1;
 308:Source\MatrixFunctions/arm_mat_inverse_f32.c ****         *pInT1++ = in1 / in;
 309:Source\MatrixFunctions/arm_mat_inverse_f32.c **** 
 310:Source\MatrixFunctions/arm_mat_inverse_f32.c ****         /* Decrement the loop counter */
 311:Source\MatrixFunctions/arm_mat_inverse_f32.c ****         j--;
 312:Source\MatrixFunctions/arm_mat_inverse_f32.c ****       }
 313:Source\MatrixFunctions/arm_mat_inverse_f32.c **** 
 314:Source\MatrixFunctions/arm_mat_inverse_f32.c ****       /* Loop over number of columns of the destination matrix */
 315:Source\MatrixFunctions/arm_mat_inverse_f32.c ****       j = numCols;
 316:Source\MatrixFunctions/arm_mat_inverse_f32.c **** 
 317:Source\MatrixFunctions/arm_mat_inverse_f32.c ****       while (j > 0u)
 318:Source\MatrixFunctions/arm_mat_inverse_f32.c ****       {
 319:Source\MatrixFunctions/arm_mat_inverse_f32.c ****         /* Divide each element of the row of the destination matrix
 320:Source\MatrixFunctions/arm_mat_inverse_f32.c ****          * by the pivot element */
 321:Source\MatrixFunctions/arm_mat_inverse_f32.c ****         in1 = *pInT2;
 322:Source\MatrixFunctions/arm_mat_inverse_f32.c ****         *pInT2++ = in1 / in;
 323:Source\MatrixFunctions/arm_mat_inverse_f32.c **** 
 324:Source\MatrixFunctions/arm_mat_inverse_f32.c ****         /* Decrement the loop counter */
 325:Source\MatrixFunctions/arm_mat_inverse_f32.c ****         j--;
 326:Source\MatrixFunctions/arm_mat_inverse_f32.c ****       }
 327:Source\MatrixFunctions/arm_mat_inverse_f32.c **** 
 328:Source\MatrixFunctions/arm_mat_inverse_f32.c ****       /* Replace the rows with the sum of that row and a multiple of row i
 329:Source\MatrixFunctions/arm_mat_inverse_f32.c ****        * so that each new element in column i above row i is zero.*/
 330:Source\MatrixFunctions/arm_mat_inverse_f32.c **** 
 331:Source\MatrixFunctions/arm_mat_inverse_f32.c ****       /* Temporary pointers for input and destination matrices */
 332:Source\MatrixFunctions/arm_mat_inverse_f32.c ****       pInT1 = pIn;
 333:Source\MatrixFunctions/arm_mat_inverse_f32.c ****       pInT2 = pOut;
 334:Source\MatrixFunctions/arm_mat_inverse_f32.c **** 
 335:Source\MatrixFunctions/arm_mat_inverse_f32.c ****       /* index used to check for pivot element */
 336:Source\MatrixFunctions/arm_mat_inverse_f32.c ****       i = 0u;
 337:Source\MatrixFunctions/arm_mat_inverse_f32.c **** 
 338:Source\MatrixFunctions/arm_mat_inverse_f32.c ****       /* Loop over number of rows */
 339:Source\MatrixFunctions/arm_mat_inverse_f32.c ****       /*  to be replaced by the sum of that row and a multiple of row i */
 340:Source\MatrixFunctions/arm_mat_inverse_f32.c ****       k = numRows;
 341:Source\MatrixFunctions/arm_mat_inverse_f32.c **** 
ARM GAS  C:\Users\fneves\AppData\Local\Temp\ccFUaZy9.s 			page 8


 342:Source\MatrixFunctions/arm_mat_inverse_f32.c ****       while (k > 0u)
 343:Source\MatrixFunctions/arm_mat_inverse_f32.c ****       {
 344:Source\MatrixFunctions/arm_mat_inverse_f32.c ****         /* Check for the pivot element */
 345:Source\MatrixFunctions/arm_mat_inverse_f32.c ****         if (i == l)
 346:Source\MatrixFunctions/arm_mat_inverse_f32.c ****         {
 347:Source\MatrixFunctions/arm_mat_inverse_f32.c ****           /* If the processing element is the pivot element,
 348:Source\MatrixFunctions/arm_mat_inverse_f32.c ****              only the columns to the right are to be processed */
 349:Source\MatrixFunctions/arm_mat_inverse_f32.c ****           pInT1 += numCols - l;
 350:Source\MatrixFunctions/arm_mat_inverse_f32.c **** 
 351:Source\MatrixFunctions/arm_mat_inverse_f32.c ****           pInT2 += numCols;
 352:Source\MatrixFunctions/arm_mat_inverse_f32.c ****         }
 353:Source\MatrixFunctions/arm_mat_inverse_f32.c ****         else
 354:Source\MatrixFunctions/arm_mat_inverse_f32.c ****         {
 355:Source\MatrixFunctions/arm_mat_inverse_f32.c ****           /* Element of the reference row */
 356:Source\MatrixFunctions/arm_mat_inverse_f32.c ****           in = *pInT1;
 357:Source\MatrixFunctions/arm_mat_inverse_f32.c **** 
 358:Source\MatrixFunctions/arm_mat_inverse_f32.c ****           /* Working pointers for input and destination pivot rows */
 359:Source\MatrixFunctions/arm_mat_inverse_f32.c ****           pPRT_in = pPivotRowIn;
 360:Source\MatrixFunctions/arm_mat_inverse_f32.c ****           pPRT_pDst = pPivotRowDst;
 361:Source\MatrixFunctions/arm_mat_inverse_f32.c **** 
 362:Source\MatrixFunctions/arm_mat_inverse_f32.c ****           /* Loop over the number of columns to the right of the pivot element,
 363:Source\MatrixFunctions/arm_mat_inverse_f32.c ****              to replace the elements in the input matrix */
 364:Source\MatrixFunctions/arm_mat_inverse_f32.c ****           j = (numCols - l);
 365:Source\MatrixFunctions/arm_mat_inverse_f32.c **** 
 366:Source\MatrixFunctions/arm_mat_inverse_f32.c ****           while (j > 0u)
 367:Source\MatrixFunctions/arm_mat_inverse_f32.c ****           {
 368:Source\MatrixFunctions/arm_mat_inverse_f32.c ****             /* Replace the element by the sum of that row
 369:Source\MatrixFunctions/arm_mat_inverse_f32.c ****                and a multiple of the reference row  */
 370:Source\MatrixFunctions/arm_mat_inverse_f32.c ****             in1 = *pInT1;
 371:Source\MatrixFunctions/arm_mat_inverse_f32.c ****             *pInT1++ = in1 - (in * *pPRT_in++);
 372:Source\MatrixFunctions/arm_mat_inverse_f32.c **** 
 373:Source\MatrixFunctions/arm_mat_inverse_f32.c ****             /* Decrement the loop counter */
 374:Source\MatrixFunctions/arm_mat_inverse_f32.c ****             j--;
 375:Source\MatrixFunctions/arm_mat_inverse_f32.c ****           }
 376:Source\MatrixFunctions/arm_mat_inverse_f32.c **** 
 377:Source\MatrixFunctions/arm_mat_inverse_f32.c ****           /* Loop over the number of columns to
 378:Source\MatrixFunctions/arm_mat_inverse_f32.c ****              replace the elements in the destination matrix */
 379:Source\MatrixFunctions/arm_mat_inverse_f32.c ****           j = numCols;
 380:Source\MatrixFunctions/arm_mat_inverse_f32.c **** 
 381:Source\MatrixFunctions/arm_mat_inverse_f32.c ****           while (j > 0u)
 382:Source\MatrixFunctions/arm_mat_inverse_f32.c ****           {
 383:Source\MatrixFunctions/arm_mat_inverse_f32.c ****             /* Replace the element by the sum of that row
 384:Source\MatrixFunctions/arm_mat_inverse_f32.c ****                and a multiple of the reference row  */
 385:Source\MatrixFunctions/arm_mat_inverse_f32.c ****             in1 = *pInT2;
 386:Source\MatrixFunctions/arm_mat_inverse_f32.c ****             *pInT2++ = in1 - (in * *pPRT_pDst++);
 387:Source\MatrixFunctions/arm_mat_inverse_f32.c **** 
 388:Source\MatrixFunctions/arm_mat_inverse_f32.c ****             /* Decrement the loop counter */
 389:Source\MatrixFunctions/arm_mat_inverse_f32.c ****             j--;
 390:Source\MatrixFunctions/arm_mat_inverse_f32.c ****           }
 391:Source\MatrixFunctions/arm_mat_inverse_f32.c **** 
 392:Source\MatrixFunctions/arm_mat_inverse_f32.c ****         }
 393:Source\MatrixFunctions/arm_mat_inverse_f32.c **** 
 394:Source\MatrixFunctions/arm_mat_inverse_f32.c ****         /* Increment the temporary input pointer */
 395:Source\MatrixFunctions/arm_mat_inverse_f32.c ****         pInT1 = pInT1 + l;
 396:Source\MatrixFunctions/arm_mat_inverse_f32.c **** 
 397:Source\MatrixFunctions/arm_mat_inverse_f32.c ****         /* Decrement the loop counter */
 398:Source\MatrixFunctions/arm_mat_inverse_f32.c ****         k--;
ARM GAS  C:\Users\fneves\AppData\Local\Temp\ccFUaZy9.s 			page 9


 399:Source\MatrixFunctions/arm_mat_inverse_f32.c **** 
 400:Source\MatrixFunctions/arm_mat_inverse_f32.c ****         /* Increment the pivot index */
 401:Source\MatrixFunctions/arm_mat_inverse_f32.c ****         i++;
 402:Source\MatrixFunctions/arm_mat_inverse_f32.c ****       }
 403:Source\MatrixFunctions/arm_mat_inverse_f32.c **** 
 404:Source\MatrixFunctions/arm_mat_inverse_f32.c ****       /* Increment the input pointer */
 405:Source\MatrixFunctions/arm_mat_inverse_f32.c ****       pIn++;
 406:Source\MatrixFunctions/arm_mat_inverse_f32.c **** 
 407:Source\MatrixFunctions/arm_mat_inverse_f32.c ****       /* Decrement the loop counter */
 408:Source\MatrixFunctions/arm_mat_inverse_f32.c ****       loopCnt--;
 409:Source\MatrixFunctions/arm_mat_inverse_f32.c **** 
 410:Source\MatrixFunctions/arm_mat_inverse_f32.c ****       /* Increment the index modifier */
 411:Source\MatrixFunctions/arm_mat_inverse_f32.c ****       l++;
 412:Source\MatrixFunctions/arm_mat_inverse_f32.c ****     }
 413:Source\MatrixFunctions/arm_mat_inverse_f32.c **** 
 414:Source\MatrixFunctions/arm_mat_inverse_f32.c **** 
 415:Source\MatrixFunctions/arm_mat_inverse_f32.c **** #else
 416:Source\MatrixFunctions/arm_mat_inverse_f32.c **** 
 417:Source\MatrixFunctions/arm_mat_inverse_f32.c ****   /* Run the below code for Cortex-M0 */
 418:Source\MatrixFunctions/arm_mat_inverse_f32.c **** 
 419:Source\MatrixFunctions/arm_mat_inverse_f32.c ****   float32_t Xchg, in = 0.0f;                     /* Temporary input values  */
  59              		.loc 1 419 0
  60 0022 0023     		mov	r3, #0
  61 0024 3B64     		str	r3, [r7, #64]
 420:Source\MatrixFunctions/arm_mat_inverse_f32.c ****   uint32_t i, rowCnt, flag = 0u, j, loopCnt, k, l;      /* loop counters */
  62              		.loc 1 420 0
  63 0026 0023     		mov	r3, #0
  64 0028 7B63     		str	r3, [r7, #52]
 421:Source\MatrixFunctions/arm_mat_inverse_f32.c ****   arm_status status;                             /* status of matrix inverse */
 422:Source\MatrixFunctions/arm_mat_inverse_f32.c **** 
 423:Source\MatrixFunctions/arm_mat_inverse_f32.c **** #ifdef ARM_MATH_MATRIX_CHECK
 424:Source\MatrixFunctions/arm_mat_inverse_f32.c **** 
 425:Source\MatrixFunctions/arm_mat_inverse_f32.c ****   /* Check for matrix mismatch condition */
 426:Source\MatrixFunctions/arm_mat_inverse_f32.c ****   if ((pSrc->numRows != pSrc->numCols) || (pDst->numRows != pDst->numCols)
 427:Source\MatrixFunctions/arm_mat_inverse_f32.c ****      || (pSrc->numRows != pDst->numRows))
 428:Source\MatrixFunctions/arm_mat_inverse_f32.c ****   {
 429:Source\MatrixFunctions/arm_mat_inverse_f32.c ****     /* Set status as ARM_MATH_SIZE_MISMATCH */
 430:Source\MatrixFunctions/arm_mat_inverse_f32.c ****     status = ARM_MATH_SIZE_MISMATCH;
 431:Source\MatrixFunctions/arm_mat_inverse_f32.c ****   }
 432:Source\MatrixFunctions/arm_mat_inverse_f32.c ****   else
 433:Source\MatrixFunctions/arm_mat_inverse_f32.c **** #endif /*      #ifdef ARM_MATH_MATRIX_CHECK    */
 434:Source\MatrixFunctions/arm_mat_inverse_f32.c ****   {
 435:Source\MatrixFunctions/arm_mat_inverse_f32.c **** 
 436:Source\MatrixFunctions/arm_mat_inverse_f32.c ****     /*---------------------------------------------------------------------------------------------
 437:Source\MatrixFunctions/arm_mat_inverse_f32.c **** 	 * Matrix Inverse can be solved using elementary row operations.
 438:Source\MatrixFunctions/arm_mat_inverse_f32.c **** 	 *
 439:Source\MatrixFunctions/arm_mat_inverse_f32.c **** 	 *	Gauss-Jordan Method:
 440:Source\MatrixFunctions/arm_mat_inverse_f32.c **** 	 *
 441:Source\MatrixFunctions/arm_mat_inverse_f32.c **** 	 *	   1. First combine the identity matrix and the input matrix separated by a bar to form an
 442:Source\MatrixFunctions/arm_mat_inverse_f32.c **** 	 *        augmented matrix as follows:
 443:Source\MatrixFunctions/arm_mat_inverse_f32.c **** 	 *				        _  _	      _	    _	   _   _         _	       _
 444:Source\MatrixFunctions/arm_mat_inverse_f32.c **** 	 *					   |  |  a11  a12  | | | 1   0  |   |       |  X11 X12  |
 445:Source\MatrixFunctions/arm_mat_inverse_f32.c **** 	 *					   |  |            | | |        |   |   =   |           |
 446:Source\MatrixFunctions/arm_mat_inverse_f32.c **** 	 *					   |_ |_ a21  a22 _| | |_0   1 _|  _|       |_ X21 X21 _|
 447:Source\MatrixFunctions/arm_mat_inverse_f32.c **** 	 *
 448:Source\MatrixFunctions/arm_mat_inverse_f32.c **** 	 *		2. In our implementation, pDst Matrix is used as identity matrix.
 449:Source\MatrixFunctions/arm_mat_inverse_f32.c **** 	 *
ARM GAS  C:\Users\fneves\AppData\Local\Temp\ccFUaZy9.s 			page 10


 450:Source\MatrixFunctions/arm_mat_inverse_f32.c **** 	 *		3. Begin with the first row. Let i = 1.
 451:Source\MatrixFunctions/arm_mat_inverse_f32.c **** 	 *
 452:Source\MatrixFunctions/arm_mat_inverse_f32.c **** 	 *	    4. Check to see if the pivot for row i is zero.
 453:Source\MatrixFunctions/arm_mat_inverse_f32.c **** 	 *		   The pivot is the element of the main diagonal that is on the current row.
 454:Source\MatrixFunctions/arm_mat_inverse_f32.c **** 	 *		   For instance, if working with row i, then the pivot element is aii.
 455:Source\MatrixFunctions/arm_mat_inverse_f32.c **** 	 *		   If the pivot is zero, exchange that row with a row below it that does not
 456:Source\MatrixFunctions/arm_mat_inverse_f32.c **** 	 *		   contain a zero in column i. If this is not possible, then an inverse
 457:Source\MatrixFunctions/arm_mat_inverse_f32.c **** 	 *		   to that matrix does not exist.
 458:Source\MatrixFunctions/arm_mat_inverse_f32.c **** 	 *
 459:Source\MatrixFunctions/arm_mat_inverse_f32.c **** 	 *	    5. Divide every element of row i by the pivot.
 460:Source\MatrixFunctions/arm_mat_inverse_f32.c **** 	 *
 461:Source\MatrixFunctions/arm_mat_inverse_f32.c **** 	 *	    6. For every row below and  row i, replace that row with the sum of that row and
 462:Source\MatrixFunctions/arm_mat_inverse_f32.c **** 	 *		   a multiple of row i so that each new element in column i below row i is zero.
 463:Source\MatrixFunctions/arm_mat_inverse_f32.c **** 	 *
 464:Source\MatrixFunctions/arm_mat_inverse_f32.c **** 	 *	    7. Move to the next row and column and repeat steps 2 through 5 until you have zeros
 465:Source\MatrixFunctions/arm_mat_inverse_f32.c **** 	 *		   for every element below and above the main diagonal.
 466:Source\MatrixFunctions/arm_mat_inverse_f32.c **** 	 *
 467:Source\MatrixFunctions/arm_mat_inverse_f32.c **** 	 *		8. Now an identical matrix is formed to the left of the bar(input matrix, src).
 468:Source\MatrixFunctions/arm_mat_inverse_f32.c **** 	 *		   Therefore, the matrix to the right of the bar is our solution(dst matrix, dst).
 469:Source\MatrixFunctions/arm_mat_inverse_f32.c **** 	 *------------------------------------------------------------------------------------------------
 470:Source\MatrixFunctions/arm_mat_inverse_f32.c **** 
 471:Source\MatrixFunctions/arm_mat_inverse_f32.c ****     /* Working pointer for destination matrix */
 472:Source\MatrixFunctions/arm_mat_inverse_f32.c ****     pOutT1 = pOut;
  65              		.loc 1 472 0
  66 002a FB69     		ldr	r3, [r7, #28]
  67 002c 3B65     		str	r3, [r7, #80]
 473:Source\MatrixFunctions/arm_mat_inverse_f32.c **** 
 474:Source\MatrixFunctions/arm_mat_inverse_f32.c ****     /* Loop over the number of rows */
 475:Source\MatrixFunctions/arm_mat_inverse_f32.c ****     rowCnt = numRows;
  68              		.loc 1 475 0
  69 002e BB69     		ldr	r3, [r7, #24]
  70 0030 BB63     		str	r3, [r7, #56]
 476:Source\MatrixFunctions/arm_mat_inverse_f32.c **** 
 477:Source\MatrixFunctions/arm_mat_inverse_f32.c ****     /* Making the destination matrix as identity matrix */
 478:Source\MatrixFunctions/arm_mat_inverse_f32.c ****     while (rowCnt > 0u)
  71              		.loc 1 478 0
  72 0032 27E0     		b	.L2
  73              	.L7:
 479:Source\MatrixFunctions/arm_mat_inverse_f32.c ****     {
 480:Source\MatrixFunctions/arm_mat_inverse_f32.c ****       /* Writing all zeroes in lower triangle of the destination matrix */
 481:Source\MatrixFunctions/arm_mat_inverse_f32.c ****       j = numRows - rowCnt;
  74              		.loc 1 481 0
  75 0034 BA69     		ldr	r2, [r7, #24]
  76 0036 BB6B     		ldr	r3, [r7, #56]
  77 0038 D31A     		sub	r3, r2, r3
  78 003a 3B63     		str	r3, [r7, #48]
 482:Source\MatrixFunctions/arm_mat_inverse_f32.c ****       while (j > 0u)
  79              		.loc 1 482 0
  80 003c 07E0     		b	.L3
  81              	.L4:
 483:Source\MatrixFunctions/arm_mat_inverse_f32.c ****       {
 484:Source\MatrixFunctions/arm_mat_inverse_f32.c ****         *pOutT1++ = 0.0f;
  82              		.loc 1 484 0
  83 003e 3B6D     		ldr	r3, [r7, #80]
  84 0040 1A1D     		add	r2, r3, #4
  85 0042 3A65     		str	r2, [r7, #80]
  86 0044 0022     		mov	r2, #0
ARM GAS  C:\Users\fneves\AppData\Local\Temp\ccFUaZy9.s 			page 11


  87 0046 1A60     		str	r2, [r3]
 485:Source\MatrixFunctions/arm_mat_inverse_f32.c ****         j--;
  88              		.loc 1 485 0
  89 0048 3B6B     		ldr	r3, [r7, #48]
  90 004a 013B     		sub	r3, r3, #1
  91 004c 3B63     		str	r3, [r7, #48]
  92              	.L3:
 482:Source\MatrixFunctions/arm_mat_inverse_f32.c ****       while (j > 0u)
  93              		.loc 1 482 0
  94 004e 3B6B     		ldr	r3, [r7, #48]
  95 0050 002B     		cmp	r3, #0
  96 0052 F4D1     		bne	.L4
 486:Source\MatrixFunctions/arm_mat_inverse_f32.c ****       }
 487:Source\MatrixFunctions/arm_mat_inverse_f32.c **** 
 488:Source\MatrixFunctions/arm_mat_inverse_f32.c ****       /* Writing all ones in the diagonal of the destination matrix */
 489:Source\MatrixFunctions/arm_mat_inverse_f32.c ****       *pOutT1++ = 1.0f;
  97              		.loc 1 489 0
  98 0054 3B6D     		ldr	r3, [r7, #80]
  99 0056 1A1D     		add	r2, r3, #4
 100 0058 3A65     		str	r2, [r7, #80]
 101 005a FE22     		mov	r2, #254
 102 005c 9205     		lsl	r2, r2, #22
 103 005e 1A60     		str	r2, [r3]
 490:Source\MatrixFunctions/arm_mat_inverse_f32.c **** 
 491:Source\MatrixFunctions/arm_mat_inverse_f32.c ****       /* Writing all zeroes in upper triangle of the destination matrix */
 492:Source\MatrixFunctions/arm_mat_inverse_f32.c ****       j = rowCnt - 1u;
 104              		.loc 1 492 0
 105 0060 BB6B     		ldr	r3, [r7, #56]
 106 0062 013B     		sub	r3, r3, #1
 107 0064 3B63     		str	r3, [r7, #48]
 493:Source\MatrixFunctions/arm_mat_inverse_f32.c ****       while (j > 0u)
 108              		.loc 1 493 0
 109 0066 07E0     		b	.L5
 110              	.L6:
 494:Source\MatrixFunctions/arm_mat_inverse_f32.c ****       {
 495:Source\MatrixFunctions/arm_mat_inverse_f32.c ****         *pOutT1++ = 0.0f;
 111              		.loc 1 495 0
 112 0068 3B6D     		ldr	r3, [r7, #80]
 113 006a 1A1D     		add	r2, r3, #4
 114 006c 3A65     		str	r2, [r7, #80]
 115 006e 0022     		mov	r2, #0
 116 0070 1A60     		str	r2, [r3]
 496:Source\MatrixFunctions/arm_mat_inverse_f32.c ****         j--;
 117              		.loc 1 496 0
 118 0072 3B6B     		ldr	r3, [r7, #48]
 119 0074 013B     		sub	r3, r3, #1
 120 0076 3B63     		str	r3, [r7, #48]
 121              	.L5:
 493:Source\MatrixFunctions/arm_mat_inverse_f32.c ****       while (j > 0u)
 122              		.loc 1 493 0
 123 0078 3B6B     		ldr	r3, [r7, #48]
 124 007a 002B     		cmp	r3, #0
 125 007c F4D1     		bne	.L6
 497:Source\MatrixFunctions/arm_mat_inverse_f32.c ****       }
 498:Source\MatrixFunctions/arm_mat_inverse_f32.c **** 
 499:Source\MatrixFunctions/arm_mat_inverse_f32.c ****       /* Decrement the loop counter */
 500:Source\MatrixFunctions/arm_mat_inverse_f32.c ****       rowCnt--;
ARM GAS  C:\Users\fneves\AppData\Local\Temp\ccFUaZy9.s 			page 12


 126              		.loc 1 500 0
 127 007e BB6B     		ldr	r3, [r7, #56]
 128 0080 013B     		sub	r3, r3, #1
 129 0082 BB63     		str	r3, [r7, #56]
 130              	.L2:
 478:Source\MatrixFunctions/arm_mat_inverse_f32.c ****     {
 131              		.loc 1 478 0
 132 0084 BB6B     		ldr	r3, [r7, #56]
 133 0086 002B     		cmp	r3, #0
 134 0088 D4D1     		bne	.L7
 501:Source\MatrixFunctions/arm_mat_inverse_f32.c ****     }
 502:Source\MatrixFunctions/arm_mat_inverse_f32.c **** 
 503:Source\MatrixFunctions/arm_mat_inverse_f32.c ****     /* Loop over the number of columns of the input matrix.
 504:Source\MatrixFunctions/arm_mat_inverse_f32.c ****        All the elements in each column are processed by the row operations */
 505:Source\MatrixFunctions/arm_mat_inverse_f32.c ****     loopCnt = numCols;
 135              		.loc 1 505 0
 136 008a 7B69     		ldr	r3, [r7, #20]
 137 008c FB62     		str	r3, [r7, #44]
 506:Source\MatrixFunctions/arm_mat_inverse_f32.c **** 
 507:Source\MatrixFunctions/arm_mat_inverse_f32.c ****     /* Index modifier to navigate through the columns */
 508:Source\MatrixFunctions/arm_mat_inverse_f32.c ****     l = 0u;
 138              		.loc 1 508 0
 139 008e 0023     		mov	r3, #0
 140 0090 7B62     		str	r3, [r7, #36]
 509:Source\MatrixFunctions/arm_mat_inverse_f32.c ****     //for(loopCnt = 0u; loopCnt < numCols; loopCnt++)
 510:Source\MatrixFunctions/arm_mat_inverse_f32.c ****     while (loopCnt > 0u)
 141              		.loc 1 510 0
 142 0092 3EE1     		b	.L8
 143              	.L34:
 511:Source\MatrixFunctions/arm_mat_inverse_f32.c ****     {
 512:Source\MatrixFunctions/arm_mat_inverse_f32.c ****       /* Check if the pivot element is zero..
 513:Source\MatrixFunctions/arm_mat_inverse_f32.c ****        * If it is zero then interchange the row with non zero row below.
 514:Source\MatrixFunctions/arm_mat_inverse_f32.c ****        * If there is no non zero element to replace in the rows below,
 515:Source\MatrixFunctions/arm_mat_inverse_f32.c ****        * then the matrix is Singular. */
 516:Source\MatrixFunctions/arm_mat_inverse_f32.c **** 
 517:Source\MatrixFunctions/arm_mat_inverse_f32.c ****       /* Working pointer for the input matrix that points
 518:Source\MatrixFunctions/arm_mat_inverse_f32.c ****        * to the pivot element of the particular row  */
 519:Source\MatrixFunctions/arm_mat_inverse_f32.c ****       pInT1 = pIn + (l * numCols);
 144              		.loc 1 519 0
 145 0094 7B6A     		ldr	r3, [r7, #36]
 146 0096 7A69     		ldr	r2, [r7, #20]
 147 0098 5343     		mul	r3, r2
 148 009a 9B00     		lsl	r3, r3, #2
 149 009c FA6D     		ldr	r2, [r7, #92]
 150 009e D318     		add	r3, r2, r3
 151 00a0 BB65     		str	r3, [r7, #88]
 520:Source\MatrixFunctions/arm_mat_inverse_f32.c **** 
 521:Source\MatrixFunctions/arm_mat_inverse_f32.c ****       /* Working pointer for the destination matrix that points
 522:Source\MatrixFunctions/arm_mat_inverse_f32.c ****        * to the pivot element of the particular row  */
 523:Source\MatrixFunctions/arm_mat_inverse_f32.c ****       pOutT1 = pOut + (l * numCols);
 152              		.loc 1 523 0
 153 00a2 7B6A     		ldr	r3, [r7, #36]
 154 00a4 7A69     		ldr	r2, [r7, #20]
 155 00a6 5343     		mul	r3, r2
 156 00a8 9B00     		lsl	r3, r3, #2
 157 00aa FA69     		ldr	r2, [r7, #28]
 158 00ac D318     		add	r3, r2, r3
ARM GAS  C:\Users\fneves\AppData\Local\Temp\ccFUaZy9.s 			page 13


 159 00ae 3B65     		str	r3, [r7, #80]
 524:Source\MatrixFunctions/arm_mat_inverse_f32.c **** 
 525:Source\MatrixFunctions/arm_mat_inverse_f32.c ****       /* Temporary variable to hold the pivot value */
 526:Source\MatrixFunctions/arm_mat_inverse_f32.c ****       in = *pInT1;
 160              		.loc 1 526 0
 161 00b0 BB6D     		ldr	r3, [r7, #88]
 162 00b2 1B68     		ldr	r3, [r3]
 163 00b4 3B64     		str	r3, [r7, #64]
 527:Source\MatrixFunctions/arm_mat_inverse_f32.c **** 
 528:Source\MatrixFunctions/arm_mat_inverse_f32.c ****       /* Destination pointer modifier */
 529:Source\MatrixFunctions/arm_mat_inverse_f32.c ****       k = 1u;
 164              		.loc 1 529 0
 165 00b6 0123     		mov	r3, #1
 166 00b8 BB62     		str	r3, [r7, #40]
 530:Source\MatrixFunctions/arm_mat_inverse_f32.c **** 
 531:Source\MatrixFunctions/arm_mat_inverse_f32.c ****       /* Check if the pivot element is zero */
 532:Source\MatrixFunctions/arm_mat_inverse_f32.c ****       if (*pInT1 == 0.0f)
 167              		.loc 1 532 0
 168 00ba BB6D     		ldr	r3, [r7, #88]
 169 00bc 1B68     		ldr	r3, [r3]
 170 00be 181C     		add	r0, r3, #0
 171 00c0 0021     		mov	r1, #0
 172 00c2 FFF7FEFF 		bl	__aeabi_fcmpeq
 173 00c6 031E     		sub	r3, r0, #0
 174 00c8 58D0     		beq	.L9
 533:Source\MatrixFunctions/arm_mat_inverse_f32.c ****       {
 534:Source\MatrixFunctions/arm_mat_inverse_f32.c ****         /* Loop over the number rows present below */
 535:Source\MatrixFunctions/arm_mat_inverse_f32.c ****         for (i = (l + 1u); i < numRows; i++)
 175              		.loc 1 535 0
 176 00ca 7B6A     		ldr	r3, [r7, #36]
 177 00cc 0133     		add	r3, r3, #1
 178 00ce FB63     		str	r3, [r7, #60]
 179 00d0 50E0     		b	.L11
 180              	.L18:
 536:Source\MatrixFunctions/arm_mat_inverse_f32.c ****         {
 537:Source\MatrixFunctions/arm_mat_inverse_f32.c ****           /* Update the input and destination pointers */
 538:Source\MatrixFunctions/arm_mat_inverse_f32.c ****           pInT2 = pInT1 + (numCols * l);
 181              		.loc 1 538 0
 182 00d2 7B69     		ldr	r3, [r7, #20]
 183 00d4 7A6A     		ldr	r2, [r7, #36]
 184 00d6 5343     		mul	r3, r2
 185 00d8 9B00     		lsl	r3, r3, #2
 186 00da BA6D     		ldr	r2, [r7, #88]
 187 00dc D318     		add	r3, r2, r3
 188 00de 7B65     		str	r3, [r7, #84]
 539:Source\MatrixFunctions/arm_mat_inverse_f32.c ****           pOutT2 = pOutT1 + (numCols * k);
 189              		.loc 1 539 0
 190 00e0 7B69     		ldr	r3, [r7, #20]
 191 00e2 BA6A     		ldr	r2, [r7, #40]
 192 00e4 5343     		mul	r3, r2
 193 00e6 9B00     		lsl	r3, r3, #2
 194 00e8 3A6D     		ldr	r2, [r7, #80]
 195 00ea D318     		add	r3, r2, r3
 196 00ec FB64     		str	r3, [r7, #76]
 540:Source\MatrixFunctions/arm_mat_inverse_f32.c **** 
 541:Source\MatrixFunctions/arm_mat_inverse_f32.c ****           /* Check if there is a non zero pivot element to
 542:Source\MatrixFunctions/arm_mat_inverse_f32.c ****            * replace in the rows below */
ARM GAS  C:\Users\fneves\AppData\Local\Temp\ccFUaZy9.s 			page 14


 543:Source\MatrixFunctions/arm_mat_inverse_f32.c ****           if (*pInT2 != 0.0f)
 197              		.loc 1 543 0
 198 00ee 7B6D     		ldr	r3, [r7, #84]
 199 00f0 1B68     		ldr	r3, [r3]
 200 00f2 181C     		add	r0, r3, #0
 201 00f4 0021     		mov	r1, #0
 202 00f6 FFF7FEFF 		bl	__aeabi_fcmpeq
 203 00fa 031E     		sub	r3, r0, #0
 204 00fc 34D1     		bne	.L47
 544:Source\MatrixFunctions/arm_mat_inverse_f32.c ****           {
 545:Source\MatrixFunctions/arm_mat_inverse_f32.c ****             /* Loop over number of columns
 546:Source\MatrixFunctions/arm_mat_inverse_f32.c ****              * to the right of the pilot element */
 547:Source\MatrixFunctions/arm_mat_inverse_f32.c ****             for (j = 0u; j < (numCols - l); j++)
 205              		.loc 1 547 0
 206 00fe 0023     		mov	r3, #0
 207 0100 3B63     		str	r3, [r7, #48]
 208 0102 10E0     		b	.L14
 209              	.L15:
 548:Source\MatrixFunctions/arm_mat_inverse_f32.c ****             {
 549:Source\MatrixFunctions/arm_mat_inverse_f32.c ****               /* Exchange the row elements of the input matrix */
 550:Source\MatrixFunctions/arm_mat_inverse_f32.c ****               Xchg = *pInT2;
 210              		.loc 1 550 0 discriminator 3
 211 0104 7B6D     		ldr	r3, [r7, #84]
 212 0106 1B68     		ldr	r3, [r3]
 213 0108 3B61     		str	r3, [r7, #16]
 551:Source\MatrixFunctions/arm_mat_inverse_f32.c ****               *pInT2++ = *pInT1;
 214              		.loc 1 551 0 discriminator 3
 215 010a 7B6D     		ldr	r3, [r7, #84]
 216 010c 1A1D     		add	r2, r3, #4
 217 010e 7A65     		str	r2, [r7, #84]
 218 0110 BA6D     		ldr	r2, [r7, #88]
 219 0112 1268     		ldr	r2, [r2]
 220 0114 1A60     		str	r2, [r3]
 552:Source\MatrixFunctions/arm_mat_inverse_f32.c ****               *pInT1++ = Xchg;
 221              		.loc 1 552 0 discriminator 3
 222 0116 BB6D     		ldr	r3, [r7, #88]
 223 0118 1A1D     		add	r2, r3, #4
 224 011a BA65     		str	r2, [r7, #88]
 225 011c 3A69     		ldr	r2, [r7, #16]
 226 011e 1A60     		str	r2, [r3]
 547:Source\MatrixFunctions/arm_mat_inverse_f32.c ****             {
 227              		.loc 1 547 0 discriminator 3
 228 0120 3B6B     		ldr	r3, [r7, #48]
 229 0122 0133     		add	r3, r3, #1
 230 0124 3B63     		str	r3, [r7, #48]
 231              	.L14:
 547:Source\MatrixFunctions/arm_mat_inverse_f32.c ****             {
 232              		.loc 1 547 0 is_stmt 0 discriminator 1
 233 0126 7A69     		ldr	r2, [r7, #20]
 234 0128 7B6A     		ldr	r3, [r7, #36]
 235 012a D21A     		sub	r2, r2, r3
 236 012c 3B6B     		ldr	r3, [r7, #48]
 237 012e 9A42     		cmp	r2, r3
 238 0130 E8D8     		bhi	.L15
 553:Source\MatrixFunctions/arm_mat_inverse_f32.c ****             }
 554:Source\MatrixFunctions/arm_mat_inverse_f32.c **** 
 555:Source\MatrixFunctions/arm_mat_inverse_f32.c ****             for (j = 0u; j < numCols; j++)
ARM GAS  C:\Users\fneves\AppData\Local\Temp\ccFUaZy9.s 			page 15


 239              		.loc 1 555 0 is_stmt 1
 240 0132 0023     		mov	r3, #0
 241 0134 3B63     		str	r3, [r7, #48]
 242 0136 10E0     		b	.L16
 243              	.L17:
 556:Source\MatrixFunctions/arm_mat_inverse_f32.c ****             {
 557:Source\MatrixFunctions/arm_mat_inverse_f32.c ****               Xchg = *pOutT2;
 244              		.loc 1 557 0 discriminator 3
 245 0138 FB6C     		ldr	r3, [r7, #76]
 246 013a 1B68     		ldr	r3, [r3]
 247 013c 3B61     		str	r3, [r7, #16]
 558:Source\MatrixFunctions/arm_mat_inverse_f32.c ****               *pOutT2++ = *pOutT1;
 248              		.loc 1 558 0 discriminator 3
 249 013e FB6C     		ldr	r3, [r7, #76]
 250 0140 1A1D     		add	r2, r3, #4
 251 0142 FA64     		str	r2, [r7, #76]
 252 0144 3A6D     		ldr	r2, [r7, #80]
 253 0146 1268     		ldr	r2, [r2]
 254 0148 1A60     		str	r2, [r3]
 559:Source\MatrixFunctions/arm_mat_inverse_f32.c ****               *pOutT1++ = Xchg;
 255              		.loc 1 559 0 discriminator 3
 256 014a 3B6D     		ldr	r3, [r7, #80]
 257 014c 1A1D     		add	r2, r3, #4
 258 014e 3A65     		str	r2, [r7, #80]
 259 0150 3A69     		ldr	r2, [r7, #16]
 260 0152 1A60     		str	r2, [r3]
 555:Source\MatrixFunctions/arm_mat_inverse_f32.c ****             {
 261              		.loc 1 555 0 discriminator 3
 262 0154 3B6B     		ldr	r3, [r7, #48]
 263 0156 0133     		add	r3, r3, #1
 264 0158 3B63     		str	r3, [r7, #48]
 265              	.L16:
 555:Source\MatrixFunctions/arm_mat_inverse_f32.c ****             {
 266              		.loc 1 555 0 is_stmt 0 discriminator 1
 267 015a 3A6B     		ldr	r2, [r7, #48]
 268 015c 7B69     		ldr	r3, [r7, #20]
 269 015e 9A42     		cmp	r2, r3
 270 0160 EAD3     		bcc	.L17
 560:Source\MatrixFunctions/arm_mat_inverse_f32.c ****             }
 561:Source\MatrixFunctions/arm_mat_inverse_f32.c **** 
 562:Source\MatrixFunctions/arm_mat_inverse_f32.c ****             /* Flag to indicate whether exchange is done or not */
 563:Source\MatrixFunctions/arm_mat_inverse_f32.c ****             flag = 1u;
 271              		.loc 1 563 0 is_stmt 1
 272 0162 0123     		mov	r3, #1
 273 0164 7B63     		str	r3, [r7, #52]
 564:Source\MatrixFunctions/arm_mat_inverse_f32.c **** 
 565:Source\MatrixFunctions/arm_mat_inverse_f32.c ****             /* Break after exchange is done */
 566:Source\MatrixFunctions/arm_mat_inverse_f32.c ****             break;
 274              		.loc 1 566 0
 275 0166 09E0     		b	.L9
 276              	.L47:
 567:Source\MatrixFunctions/arm_mat_inverse_f32.c ****           }
 568:Source\MatrixFunctions/arm_mat_inverse_f32.c **** 
 569:Source\MatrixFunctions/arm_mat_inverse_f32.c ****           /* Update the destination pointer modifier */
 570:Source\MatrixFunctions/arm_mat_inverse_f32.c ****           k++;
 277              		.loc 1 570 0 discriminator 2
 278 0168 BB6A     		ldr	r3, [r7, #40]
ARM GAS  C:\Users\fneves\AppData\Local\Temp\ccFUaZy9.s 			page 16


 279 016a 0133     		add	r3, r3, #1
 280 016c BB62     		str	r3, [r7, #40]
 535:Source\MatrixFunctions/arm_mat_inverse_f32.c ****         {
 281              		.loc 1 535 0 discriminator 2
 282 016e FB6B     		ldr	r3, [r7, #60]
 283 0170 0133     		add	r3, r3, #1
 284 0172 FB63     		str	r3, [r7, #60]
 285              	.L11:
 535:Source\MatrixFunctions/arm_mat_inverse_f32.c ****         {
 286              		.loc 1 535 0 is_stmt 0 discriminator 1
 287 0174 FA6B     		ldr	r2, [r7, #60]
 288 0176 BB69     		ldr	r3, [r7, #24]
 289 0178 9A42     		cmp	r2, r3
 290 017a AAD3     		bcc	.L18
 291              	.L9:
 571:Source\MatrixFunctions/arm_mat_inverse_f32.c ****         }
 572:Source\MatrixFunctions/arm_mat_inverse_f32.c ****       }
 573:Source\MatrixFunctions/arm_mat_inverse_f32.c **** 
 574:Source\MatrixFunctions/arm_mat_inverse_f32.c ****       /* Update the status if the matrix is singular */
 575:Source\MatrixFunctions/arm_mat_inverse_f32.c ****       if ((flag != 1u) && (in == 0.0f))
 292              		.loc 1 575 0 is_stmt 1
 293 017c 7B6B     		ldr	r3, [r7, #52]
 294 017e 012B     		cmp	r3, #1
 295 0180 07D0     		beq	.L19
 296              		.loc 1 575 0 is_stmt 0 discriminator 1
 297 0182 386C     		ldr	r0, [r7, #64]
 298 0184 0021     		mov	r1, #0
 299 0186 FFF7FEFF 		bl	__aeabi_fcmpeq
 300 018a 031E     		sub	r3, r0, #0
 301 018c 01D0     		beq	.L19
 576:Source\MatrixFunctions/arm_mat_inverse_f32.c ****       {
 577:Source\MatrixFunctions/arm_mat_inverse_f32.c ****         return ARM_MATH_SINGULAR;
 302              		.loc 1 577 0 is_stmt 1
 303 018e FB23     		mov	r3, #251
 304 0190 F8E0     		b	.L21
 305              	.L19:
 578:Source\MatrixFunctions/arm_mat_inverse_f32.c ****       }
 579:Source\MatrixFunctions/arm_mat_inverse_f32.c **** 
 580:Source\MatrixFunctions/arm_mat_inverse_f32.c ****       /* Points to the pivot row of input and destination matrices */
 581:Source\MatrixFunctions/arm_mat_inverse_f32.c ****       pPivotRowIn = pIn + (l * numCols);
 306              		.loc 1 581 0
 307 0192 7B6A     		ldr	r3, [r7, #36]
 308 0194 7A69     		ldr	r2, [r7, #20]
 309 0196 5343     		mul	r3, r2
 310 0198 9B00     		lsl	r3, r3, #2
 311 019a FA6D     		ldr	r2, [r7, #92]
 312 019c D318     		add	r3, r2, r3
 313 019e FB60     		str	r3, [r7, #12]
 582:Source\MatrixFunctions/arm_mat_inverse_f32.c ****       pPivotRowDst = pOut + (l * numCols);
 314              		.loc 1 582 0
 315 01a0 7B6A     		ldr	r3, [r7, #36]
 316 01a2 7A69     		ldr	r2, [r7, #20]
 317 01a4 5343     		mul	r3, r2
 318 01a6 9B00     		lsl	r3, r3, #2
 319 01a8 FA69     		ldr	r2, [r7, #28]
 320 01aa D318     		add	r3, r2, r3
 321 01ac BB60     		str	r3, [r7, #8]
ARM GAS  C:\Users\fneves\AppData\Local\Temp\ccFUaZy9.s 			page 17


 583:Source\MatrixFunctions/arm_mat_inverse_f32.c **** 
 584:Source\MatrixFunctions/arm_mat_inverse_f32.c ****       /* Temporary pointers to the pivot row pointers */
 585:Source\MatrixFunctions/arm_mat_inverse_f32.c ****       pInT1 = pPivotRowIn;
 322              		.loc 1 585 0
 323 01ae FB68     		ldr	r3, [r7, #12]
 324 01b0 BB65     		str	r3, [r7, #88]
 586:Source\MatrixFunctions/arm_mat_inverse_f32.c ****       pOutT1 = pPivotRowDst;
 325              		.loc 1 586 0
 326 01b2 BB68     		ldr	r3, [r7, #8]
 327 01b4 3B65     		str	r3, [r7, #80]
 587:Source\MatrixFunctions/arm_mat_inverse_f32.c **** 
 588:Source\MatrixFunctions/arm_mat_inverse_f32.c ****       /* Pivot element of the row */
 589:Source\MatrixFunctions/arm_mat_inverse_f32.c ****       in = *(pIn + (l * numCols));
 328              		.loc 1 589 0
 329 01b6 7B6A     		ldr	r3, [r7, #36]
 330 01b8 7A69     		ldr	r2, [r7, #20]
 331 01ba 5343     		mul	r3, r2
 332 01bc 9B00     		lsl	r3, r3, #2
 333 01be FA6D     		ldr	r2, [r7, #92]
 334 01c0 D318     		add	r3, r2, r3
 335 01c2 1B68     		ldr	r3, [r3]
 336 01c4 3B64     		str	r3, [r7, #64]
 590:Source\MatrixFunctions/arm_mat_inverse_f32.c **** 
 591:Source\MatrixFunctions/arm_mat_inverse_f32.c ****       /* Loop over number of columns
 592:Source\MatrixFunctions/arm_mat_inverse_f32.c ****        * to the right of the pilot element */
 593:Source\MatrixFunctions/arm_mat_inverse_f32.c ****       for (j = 0u; j < (numCols - l); j++)
 337              		.loc 1 593 0
 338 01c6 0023     		mov	r3, #0
 339 01c8 3B63     		str	r3, [r7, #48]
 340 01ca 0FE0     		b	.L22
 341              	.L23:
 594:Source\MatrixFunctions/arm_mat_inverse_f32.c ****       {
 595:Source\MatrixFunctions/arm_mat_inverse_f32.c ****         /* Divide each element of the row of the input matrix
 596:Source\MatrixFunctions/arm_mat_inverse_f32.c ****          * by the pivot element */
 597:Source\MatrixFunctions/arm_mat_inverse_f32.c ****         *pInT1 = *pInT1 / in;
 342              		.loc 1 597 0 discriminator 3
 343 01cc BB6D     		ldr	r3, [r7, #88]
 344 01ce 1B68     		ldr	r3, [r3]
 345 01d0 181C     		add	r0, r3, #0
 346 01d2 396C     		ldr	r1, [r7, #64]
 347 01d4 FFF7FEFF 		bl	__aeabi_fdiv
 348 01d8 031C     		add	r3, r0, #0
 349 01da 1A1C     		add	r2, r3, #0
 350 01dc BB6D     		ldr	r3, [r7, #88]
 351 01de 1A60     		str	r2, [r3]
 598:Source\MatrixFunctions/arm_mat_inverse_f32.c ****         pInT1++;
 352              		.loc 1 598 0 discriminator 3
 353 01e0 BB6D     		ldr	r3, [r7, #88]
 354 01e2 0433     		add	r3, r3, #4
 355 01e4 BB65     		str	r3, [r7, #88]
 593:Source\MatrixFunctions/arm_mat_inverse_f32.c ****       {
 356              		.loc 1 593 0 discriminator 3
 357 01e6 3B6B     		ldr	r3, [r7, #48]
 358 01e8 0133     		add	r3, r3, #1
 359 01ea 3B63     		str	r3, [r7, #48]
 360              	.L22:
 593:Source\MatrixFunctions/arm_mat_inverse_f32.c ****       {
ARM GAS  C:\Users\fneves\AppData\Local\Temp\ccFUaZy9.s 			page 18


 361              		.loc 1 593 0 is_stmt 0 discriminator 1
 362 01ec 7A69     		ldr	r2, [r7, #20]
 363 01ee 7B6A     		ldr	r3, [r7, #36]
 364 01f0 D21A     		sub	r2, r2, r3
 365 01f2 3B6B     		ldr	r3, [r7, #48]
 366 01f4 9A42     		cmp	r2, r3
 367 01f6 E9D8     		bhi	.L23
 599:Source\MatrixFunctions/arm_mat_inverse_f32.c ****       }
 600:Source\MatrixFunctions/arm_mat_inverse_f32.c ****       for (j = 0u; j < numCols; j++)
 368              		.loc 1 600 0 is_stmt 1
 369 01f8 0023     		mov	r3, #0
 370 01fa 3B63     		str	r3, [r7, #48]
 371 01fc 0FE0     		b	.L24
 372              	.L25:
 601:Source\MatrixFunctions/arm_mat_inverse_f32.c ****       {
 602:Source\MatrixFunctions/arm_mat_inverse_f32.c ****         /* Divide each element of the row of the destination matrix
 603:Source\MatrixFunctions/arm_mat_inverse_f32.c ****          * by the pivot element */
 604:Source\MatrixFunctions/arm_mat_inverse_f32.c ****         *pOutT1 = *pOutT1 / in;
 373              		.loc 1 604 0 discriminator 3
 374 01fe 3B6D     		ldr	r3, [r7, #80]
 375 0200 1B68     		ldr	r3, [r3]
 376 0202 181C     		add	r0, r3, #0
 377 0204 396C     		ldr	r1, [r7, #64]
 378 0206 FFF7FEFF 		bl	__aeabi_fdiv
 379 020a 031C     		add	r3, r0, #0
 380 020c 1A1C     		add	r2, r3, #0
 381 020e 3B6D     		ldr	r3, [r7, #80]
 382 0210 1A60     		str	r2, [r3]
 605:Source\MatrixFunctions/arm_mat_inverse_f32.c ****         pOutT1++;
 383              		.loc 1 605 0 discriminator 3
 384 0212 3B6D     		ldr	r3, [r7, #80]
 385 0214 0433     		add	r3, r3, #4
 386 0216 3B65     		str	r3, [r7, #80]
 600:Source\MatrixFunctions/arm_mat_inverse_f32.c ****       {
 387              		.loc 1 600 0 discriminator 3
 388 0218 3B6B     		ldr	r3, [r7, #48]
 389 021a 0133     		add	r3, r3, #1
 390 021c 3B63     		str	r3, [r7, #48]
 391              	.L24:
 600:Source\MatrixFunctions/arm_mat_inverse_f32.c ****       {
 392              		.loc 1 600 0 is_stmt 0 discriminator 1
 393 021e 3A6B     		ldr	r2, [r7, #48]
 394 0220 7B69     		ldr	r3, [r7, #20]
 395 0222 9A42     		cmp	r2, r3
 396 0224 EBD3     		bcc	.L25
 606:Source\MatrixFunctions/arm_mat_inverse_f32.c ****       }
 607:Source\MatrixFunctions/arm_mat_inverse_f32.c **** 
 608:Source\MatrixFunctions/arm_mat_inverse_f32.c ****       /* Replace the rows with the sum of that row and a multiple of row i
 609:Source\MatrixFunctions/arm_mat_inverse_f32.c ****        * so that each new element in column i above row i is zero.*/
 610:Source\MatrixFunctions/arm_mat_inverse_f32.c **** 
 611:Source\MatrixFunctions/arm_mat_inverse_f32.c ****       /* Temporary pointers for input and destination matrices */
 612:Source\MatrixFunctions/arm_mat_inverse_f32.c ****       pInT1 = pIn;
 397              		.loc 1 612 0 is_stmt 1
 398 0226 FB6D     		ldr	r3, [r7, #92]
 399 0228 BB65     		str	r3, [r7, #88]
 613:Source\MatrixFunctions/arm_mat_inverse_f32.c ****       pOutT1 = pOut;
 400              		.loc 1 613 0
ARM GAS  C:\Users\fneves\AppData\Local\Temp\ccFUaZy9.s 			page 19


 401 022a FB69     		ldr	r3, [r7, #28]
 402 022c 3B65     		str	r3, [r7, #80]
 614:Source\MatrixFunctions/arm_mat_inverse_f32.c **** 
 615:Source\MatrixFunctions/arm_mat_inverse_f32.c ****       for (i = 0u; i < numRows; i++)
 403              		.loc 1 615 0
 404 022e 0023     		mov	r3, #0
 405 0230 FB63     		str	r3, [r7, #60]
 406 0232 61E0     		b	.L26
 407              	.L33:
 616:Source\MatrixFunctions/arm_mat_inverse_f32.c ****       {
 617:Source\MatrixFunctions/arm_mat_inverse_f32.c ****         /* Check for the pivot element */
 618:Source\MatrixFunctions/arm_mat_inverse_f32.c ****         if (i == l)
 408              		.loc 1 618 0
 409 0234 FA6B     		ldr	r2, [r7, #60]
 410 0236 7B6A     		ldr	r3, [r7, #36]
 411 0238 9A42     		cmp	r2, r3
 412 023a 0CD1     		bne	.L27
 619:Source\MatrixFunctions/arm_mat_inverse_f32.c ****         {
 620:Source\MatrixFunctions/arm_mat_inverse_f32.c ****           /* If the processing element is the pivot element,
 621:Source\MatrixFunctions/arm_mat_inverse_f32.c ****              only the columns to the right are to be processed */
 622:Source\MatrixFunctions/arm_mat_inverse_f32.c ****           pInT1 += numCols - l;
 413              		.loc 1 622 0
 414 023c 7A69     		ldr	r2, [r7, #20]
 415 023e 7B6A     		ldr	r3, [r7, #36]
 416 0240 D31A     		sub	r3, r2, r3
 417 0242 9B00     		lsl	r3, r3, #2
 418 0244 BA6D     		ldr	r2, [r7, #88]
 419 0246 D318     		add	r3, r2, r3
 420 0248 BB65     		str	r3, [r7, #88]
 623:Source\MatrixFunctions/arm_mat_inverse_f32.c ****           pOutT1 += numCols;
 421              		.loc 1 623 0
 422 024a 7B69     		ldr	r3, [r7, #20]
 423 024c 9B00     		lsl	r3, r3, #2
 424 024e 3A6D     		ldr	r2, [r7, #80]
 425 0250 D318     		add	r3, r2, r3
 426 0252 3B65     		str	r3, [r7, #80]
 427 0254 48E0     		b	.L28
 428              	.L27:
 624:Source\MatrixFunctions/arm_mat_inverse_f32.c ****         }
 625:Source\MatrixFunctions/arm_mat_inverse_f32.c ****         else
 626:Source\MatrixFunctions/arm_mat_inverse_f32.c ****         {
 627:Source\MatrixFunctions/arm_mat_inverse_f32.c ****           /* Element of the reference row */
 628:Source\MatrixFunctions/arm_mat_inverse_f32.c ****           in = *pInT1;
 429              		.loc 1 628 0
 430 0256 BB6D     		ldr	r3, [r7, #88]
 431 0258 1B68     		ldr	r3, [r3]
 432 025a 3B64     		str	r3, [r7, #64]
 629:Source\MatrixFunctions/arm_mat_inverse_f32.c **** 
 630:Source\MatrixFunctions/arm_mat_inverse_f32.c ****           /* Working pointers for input and destination pivot rows */
 631:Source\MatrixFunctions/arm_mat_inverse_f32.c ****           pPRT_in = pPivotRowIn;
 433              		.loc 1 631 0
 434 025c FB68     		ldr	r3, [r7, #12]
 435 025e BB64     		str	r3, [r7, #72]
 632:Source\MatrixFunctions/arm_mat_inverse_f32.c ****           pPRT_pDst = pPivotRowDst;
 436              		.loc 1 632 0
 437 0260 BB68     		ldr	r3, [r7, #8]
 438 0262 7B64     		str	r3, [r7, #68]
ARM GAS  C:\Users\fneves\AppData\Local\Temp\ccFUaZy9.s 			page 20


 633:Source\MatrixFunctions/arm_mat_inverse_f32.c **** 
 634:Source\MatrixFunctions/arm_mat_inverse_f32.c ****           /* Loop over the number of columns to the right of the pivot element,
 635:Source\MatrixFunctions/arm_mat_inverse_f32.c ****              to replace the elements in the input matrix */
 636:Source\MatrixFunctions/arm_mat_inverse_f32.c ****           for (j = 0u; j < (numCols - l); j++)
 439              		.loc 1 636 0
 440 0264 0023     		mov	r3, #0
 441 0266 3B63     		str	r3, [r7, #48]
 442 0268 18E0     		b	.L29
 443              	.L30:
 637:Source\MatrixFunctions/arm_mat_inverse_f32.c ****           {
 638:Source\MatrixFunctions/arm_mat_inverse_f32.c ****             /* Replace the element by the sum of that row
 639:Source\MatrixFunctions/arm_mat_inverse_f32.c ****                and a multiple of the reference row  */
 640:Source\MatrixFunctions/arm_mat_inverse_f32.c ****             *pInT1 = *pInT1 - (in * *pPRT_in++);
 444              		.loc 1 640 0 discriminator 3
 445 026a BB6D     		ldr	r3, [r7, #88]
 446 026c 1C68     		ldr	r4, [r3]
 447 026e BB6C     		ldr	r3, [r7, #72]
 448 0270 1A1D     		add	r2, r3, #4
 449 0272 BA64     		str	r2, [r7, #72]
 450 0274 1B68     		ldr	r3, [r3]
 451 0276 181C     		add	r0, r3, #0
 452 0278 396C     		ldr	r1, [r7, #64]
 453 027a FFF7FEFF 		bl	__aeabi_fmul
 454 027e 031C     		add	r3, r0, #0
 455 0280 201C     		add	r0, r4, #0
 456 0282 191C     		add	r1, r3, #0
 457 0284 FFF7FEFF 		bl	__aeabi_fsub
 458 0288 031C     		add	r3, r0, #0
 459 028a 1A1C     		add	r2, r3, #0
 460 028c BB6D     		ldr	r3, [r7, #88]
 461 028e 1A60     		str	r2, [r3]
 641:Source\MatrixFunctions/arm_mat_inverse_f32.c ****             pInT1++;
 462              		.loc 1 641 0 discriminator 3
 463 0290 BB6D     		ldr	r3, [r7, #88]
 464 0292 0433     		add	r3, r3, #4
 465 0294 BB65     		str	r3, [r7, #88]
 636:Source\MatrixFunctions/arm_mat_inverse_f32.c ****           {
 466              		.loc 1 636 0 discriminator 3
 467 0296 3B6B     		ldr	r3, [r7, #48]
 468 0298 0133     		add	r3, r3, #1
 469 029a 3B63     		str	r3, [r7, #48]
 470              	.L29:
 636:Source\MatrixFunctions/arm_mat_inverse_f32.c ****           {
 471              		.loc 1 636 0 is_stmt 0 discriminator 1
 472 029c 7A69     		ldr	r2, [r7, #20]
 473 029e 7B6A     		ldr	r3, [r7, #36]
 474 02a0 D21A     		sub	r2, r2, r3
 475 02a2 3B6B     		ldr	r3, [r7, #48]
 476 02a4 9A42     		cmp	r2, r3
 477 02a6 E0D8     		bhi	.L30
 642:Source\MatrixFunctions/arm_mat_inverse_f32.c ****           }
 643:Source\MatrixFunctions/arm_mat_inverse_f32.c ****           /* Loop over the number of columns to
 644:Source\MatrixFunctions/arm_mat_inverse_f32.c ****              replace the elements in the destination matrix */
 645:Source\MatrixFunctions/arm_mat_inverse_f32.c ****           for (j = 0u; j < numCols; j++)
 478              		.loc 1 645 0 is_stmt 1
 479 02a8 0023     		mov	r3, #0
 480 02aa 3B63     		str	r3, [r7, #48]
ARM GAS  C:\Users\fneves\AppData\Local\Temp\ccFUaZy9.s 			page 21


 481 02ac 18E0     		b	.L31
 482              	.L32:
 646:Source\MatrixFunctions/arm_mat_inverse_f32.c ****           {
 647:Source\MatrixFunctions/arm_mat_inverse_f32.c ****             /* Replace the element by the sum of that row
 648:Source\MatrixFunctions/arm_mat_inverse_f32.c ****                and a multiple of the reference row  */
 649:Source\MatrixFunctions/arm_mat_inverse_f32.c ****             *pOutT1 = *pOutT1 - (in * *pPRT_pDst++);
 483              		.loc 1 649 0 discriminator 3
 484 02ae 3B6D     		ldr	r3, [r7, #80]
 485 02b0 1C68     		ldr	r4, [r3]
 486 02b2 7B6C     		ldr	r3, [r7, #68]
 487 02b4 1A1D     		add	r2, r3, #4
 488 02b6 7A64     		str	r2, [r7, #68]
 489 02b8 1B68     		ldr	r3, [r3]
 490 02ba 181C     		add	r0, r3, #0
 491 02bc 396C     		ldr	r1, [r7, #64]
 492 02be FFF7FEFF 		bl	__aeabi_fmul
 493 02c2 031C     		add	r3, r0, #0
 494 02c4 201C     		add	r0, r4, #0
 495 02c6 191C     		add	r1, r3, #0
 496 02c8 FFF7FEFF 		bl	__aeabi_fsub
 497 02cc 031C     		add	r3, r0, #0
 498 02ce 1A1C     		add	r2, r3, #0
 499 02d0 3B6D     		ldr	r3, [r7, #80]
 500 02d2 1A60     		str	r2, [r3]
 650:Source\MatrixFunctions/arm_mat_inverse_f32.c ****             pOutT1++;
 501              		.loc 1 650 0 discriminator 3
 502 02d4 3B6D     		ldr	r3, [r7, #80]
 503 02d6 0433     		add	r3, r3, #4
 504 02d8 3B65     		str	r3, [r7, #80]
 645:Source\MatrixFunctions/arm_mat_inverse_f32.c ****           {
 505              		.loc 1 645 0 discriminator 3
 506 02da 3B6B     		ldr	r3, [r7, #48]
 507 02dc 0133     		add	r3, r3, #1
 508 02de 3B63     		str	r3, [r7, #48]
 509              	.L31:
 645:Source\MatrixFunctions/arm_mat_inverse_f32.c ****           {
 510              		.loc 1 645 0 is_stmt 0 discriminator 1
 511 02e0 3A6B     		ldr	r2, [r7, #48]
 512 02e2 7B69     		ldr	r3, [r7, #20]
 513 02e4 9A42     		cmp	r2, r3
 514 02e6 E2D3     		bcc	.L32
 515              	.L28:
 651:Source\MatrixFunctions/arm_mat_inverse_f32.c ****           }
 652:Source\MatrixFunctions/arm_mat_inverse_f32.c **** 
 653:Source\MatrixFunctions/arm_mat_inverse_f32.c ****         }
 654:Source\MatrixFunctions/arm_mat_inverse_f32.c ****         /* Increment the temporary input pointer */
 655:Source\MatrixFunctions/arm_mat_inverse_f32.c ****         pInT1 = pInT1 + l;
 516              		.loc 1 655 0 is_stmt 1 discriminator 2
 517 02e8 7B6A     		ldr	r3, [r7, #36]
 518 02ea 9B00     		lsl	r3, r3, #2
 519 02ec BA6D     		ldr	r2, [r7, #88]
 520 02ee D318     		add	r3, r2, r3
 521 02f0 BB65     		str	r3, [r7, #88]
 615:Source\MatrixFunctions/arm_mat_inverse_f32.c ****       {
 522              		.loc 1 615 0 discriminator 2
 523 02f2 FB6B     		ldr	r3, [r7, #60]
 524 02f4 0133     		add	r3, r3, #1
ARM GAS  C:\Users\fneves\AppData\Local\Temp\ccFUaZy9.s 			page 22


 525 02f6 FB63     		str	r3, [r7, #60]
 526              	.L26:
 615:Source\MatrixFunctions/arm_mat_inverse_f32.c ****       {
 527              		.loc 1 615 0 is_stmt 0 discriminator 1
 528 02f8 FA6B     		ldr	r2, [r7, #60]
 529 02fa BB69     		ldr	r3, [r7, #24]
 530 02fc 9A42     		cmp	r2, r3
 531 02fe 99D3     		bcc	.L33
 656:Source\MatrixFunctions/arm_mat_inverse_f32.c ****       }
 657:Source\MatrixFunctions/arm_mat_inverse_f32.c ****       /* Increment the input pointer */
 658:Source\MatrixFunctions/arm_mat_inverse_f32.c ****       pIn++;
 532              		.loc 1 658 0 is_stmt 1
 533 0300 FB6D     		ldr	r3, [r7, #92]
 534 0302 0433     		add	r3, r3, #4
 535 0304 FB65     		str	r3, [r7, #92]
 659:Source\MatrixFunctions/arm_mat_inverse_f32.c **** 
 660:Source\MatrixFunctions/arm_mat_inverse_f32.c ****       /* Decrement the loop counter */
 661:Source\MatrixFunctions/arm_mat_inverse_f32.c ****       loopCnt--;
 536              		.loc 1 661 0
 537 0306 FB6A     		ldr	r3, [r7, #44]
 538 0308 013B     		sub	r3, r3, #1
 539 030a FB62     		str	r3, [r7, #44]
 662:Source\MatrixFunctions/arm_mat_inverse_f32.c ****       /* Increment the index modifier */
 663:Source\MatrixFunctions/arm_mat_inverse_f32.c ****       l++;
 540              		.loc 1 663 0
 541 030c 7B6A     		ldr	r3, [r7, #36]
 542 030e 0133     		add	r3, r3, #1
 543 0310 7B62     		str	r3, [r7, #36]
 544              	.L8:
 510:Source\MatrixFunctions/arm_mat_inverse_f32.c ****     {
 545              		.loc 1 510 0
 546 0312 FB6A     		ldr	r3, [r7, #44]
 547 0314 002B     		cmp	r3, #0
 548 0316 00D0     		beq	.LCB470
 549 0318 BCE6     		b	.L34	@long jump
 550              	.LCB470:
 664:Source\MatrixFunctions/arm_mat_inverse_f32.c ****     }
 665:Source\MatrixFunctions/arm_mat_inverse_f32.c **** 
 666:Source\MatrixFunctions/arm_mat_inverse_f32.c **** 
 667:Source\MatrixFunctions/arm_mat_inverse_f32.c **** #endif /* #if defined (ARM_MATH_DSP) */
 668:Source\MatrixFunctions/arm_mat_inverse_f32.c **** 
 669:Source\MatrixFunctions/arm_mat_inverse_f32.c ****     /* Set status as ARM_MATH_SUCCESS */
 670:Source\MatrixFunctions/arm_mat_inverse_f32.c ****     status = ARM_MATH_SUCCESS;
 551              		.loc 1 670 0
 552 031a 2323     		mov	r3, #35
 553 031c FB18     		add	r3, r7, r3
 554 031e 0022     		mov	r2, #0
 555 0320 1A70     		strb	r2, [r3]
 671:Source\MatrixFunctions/arm_mat_inverse_f32.c **** 
 672:Source\MatrixFunctions/arm_mat_inverse_f32.c ****     if ((flag != 1u) && (in == 0.0f))
 556              		.loc 1 672 0
 557 0322 7B6B     		ldr	r3, [r7, #52]
 558 0324 012B     		cmp	r3, #1
 559 0326 2AD0     		beq	.L35
 560              		.loc 1 672 0 is_stmt 0 discriminator 1
 561 0328 386C     		ldr	r0, [r7, #64]
 562 032a 0021     		mov	r1, #0
ARM GAS  C:\Users\fneves\AppData\Local\Temp\ccFUaZy9.s 			page 23


 563 032c FFF7FEFF 		bl	__aeabi_fcmpeq
 564 0330 031E     		sub	r3, r0, #0
 565 0332 24D0     		beq	.L35
 673:Source\MatrixFunctions/arm_mat_inverse_f32.c ****     {
 674:Source\MatrixFunctions/arm_mat_inverse_f32.c ****       pIn = pSrc->pData;
 566              		.loc 1 674 0 is_stmt 1
 567 0334 7B68     		ldr	r3, [r7, #4]
 568 0336 5B68     		ldr	r3, [r3, #4]
 569 0338 FB65     		str	r3, [r7, #92]
 675:Source\MatrixFunctions/arm_mat_inverse_f32.c ****       for (i = 0; i < numRows * numCols; i++)
 570              		.loc 1 675 0
 571 033a 0023     		mov	r3, #0
 572 033c FB63     		str	r3, [r7, #60]
 573 033e 0EE0     		b	.L37
 574              	.L41:
 676:Source\MatrixFunctions/arm_mat_inverse_f32.c ****       {
 677:Source\MatrixFunctions/arm_mat_inverse_f32.c ****         if (pIn[i] != 0.0f)
 575              		.loc 1 677 0
 576 0340 FB6B     		ldr	r3, [r7, #60]
 577 0342 9B00     		lsl	r3, r3, #2
 578 0344 FA6D     		ldr	r2, [r7, #92]
 579 0346 D318     		add	r3, r2, r3
 580 0348 1B68     		ldr	r3, [r3]
 581 034a 181C     		add	r0, r3, #0
 582 034c 0021     		mov	r1, #0
 583 034e FFF7FEFF 		bl	__aeabi_fcmpeq
 584 0352 031E     		sub	r3, r0, #0
 585 0354 00D1     		bne	.L48
 678:Source\MatrixFunctions/arm_mat_inverse_f32.c ****             break;
 586              		.loc 1 678 0
 587 0356 08E0     		b	.L40
 588              	.L48:
 675:Source\MatrixFunctions/arm_mat_inverse_f32.c ****       for (i = 0; i < numRows * numCols; i++)
 589              		.loc 1 675 0 discriminator 2
 590 0358 FB6B     		ldr	r3, [r7, #60]
 591 035a 0133     		add	r3, r3, #1
 592 035c FB63     		str	r3, [r7, #60]
 593              	.L37:
 675:Source\MatrixFunctions/arm_mat_inverse_f32.c ****       for (i = 0; i < numRows * numCols; i++)
 594              		.loc 1 675 0 is_stmt 0 discriminator 1
 595 035e BB69     		ldr	r3, [r7, #24]
 596 0360 7A69     		ldr	r2, [r7, #20]
 597 0362 5A43     		mul	r2, r3
 598 0364 FB6B     		ldr	r3, [r7, #60]
 599 0366 9A42     		cmp	r2, r3
 600 0368 EAD8     		bhi	.L41
 601              	.L40:
 679:Source\MatrixFunctions/arm_mat_inverse_f32.c ****       }
 680:Source\MatrixFunctions/arm_mat_inverse_f32.c **** 
 681:Source\MatrixFunctions/arm_mat_inverse_f32.c ****       if (i == numRows * numCols)
 602              		.loc 1 681 0 is_stmt 1
 603 036a BB69     		ldr	r3, [r7, #24]
 604 036c 7A69     		ldr	r2, [r7, #20]
 605 036e 5A43     		mul	r2, r3
 606 0370 FB6B     		ldr	r3, [r7, #60]
 607 0372 9A42     		cmp	r2, r3
 608 0374 03D1     		bne	.L35
ARM GAS  C:\Users\fneves\AppData\Local\Temp\ccFUaZy9.s 			page 24


 682:Source\MatrixFunctions/arm_mat_inverse_f32.c ****         status = ARM_MATH_SINGULAR;
 609              		.loc 1 682 0
 610 0376 2323     		mov	r3, #35
 611 0378 FB18     		add	r3, r7, r3
 612 037a FB22     		mov	r2, #251
 613 037c 1A70     		strb	r2, [r3]
 614              	.L35:
 683:Source\MatrixFunctions/arm_mat_inverse_f32.c ****     }
 684:Source\MatrixFunctions/arm_mat_inverse_f32.c ****   }
 685:Source\MatrixFunctions/arm_mat_inverse_f32.c ****   /* Return to application */
 686:Source\MatrixFunctions/arm_mat_inverse_f32.c ****   return (status);
 615              		.loc 1 686 0
 616 037e 2323     		mov	r3, #35
 617 0380 FB18     		add	r3, r7, r3
 618 0382 1B78     		ldrb	r3, [r3]
 619              	.L21:
 620 0384 5BB2     		sxtb	r3, r3
 687:Source\MatrixFunctions/arm_mat_inverse_f32.c **** }
 621              		.loc 1 687 0
 622 0386 181C     		mov	r0, r3
 623 0388 BD46     		mov	sp, r7
 624 038a 19B0     		add	sp, sp, #100
 625              		@ sp needed
 626 038c 90BD     		pop	{r4, r7, pc}
 627              		.cfi_endproc
 628              	.LFE82:
 629              		.size	arm_mat_inverse_f32, .-arm_mat_inverse_f32
 630 038e C046     		.text
 631              	.Letext0:
 632              		.file 2 "c:\\program files (x86)\\cypress\\psoc creator\\4.0\\psoc creator\\import\\gnu\\arm\\4.9.
 633              		.file 3 "c:\\program files (x86)\\cypress\\psoc creator\\4.0\\psoc creator\\import\\gnu\\arm\\4.9.
 634              		.file 4 ".\\Include/arm_math.h"