ARM GAS  C:\Users\fneves\AppData\Local\Temp\ccwhstnr.s 			page 1


   1              		.cpu cortex-m0plus
   2              		.fpu softvfp
   3              		.eabi_attribute 20, 1
   4              		.eabi_attribute 21, 1
   5              		.eabi_attribute 23, 3
   6              		.eabi_attribute 24, 1
   7              		.eabi_attribute 25, 1
   8              		.eabi_attribute 26, 1
   9              		.eabi_attribute 30, 6
  10              		.eabi_attribute 34, 0
  11              		.eabi_attribute 18, 4
  12              		.code	16
  13              		.file	"arm_fir_decimate_q31.c"
  14              		.text
  15              	.Ltext0:
  16              		.cfi_sections	.debug_frame
  17              		.global	__aeabi_uidiv
  18              		.global	__aeabi_lmul
  19              		.section	.text.arm_fir_decimate_q31,"ax",%progbits
  20              		.align	2
  21              		.global	arm_fir_decimate_q31
  22              		.code	16
  23              		.thumb_func
  24              		.type	arm_fir_decimate_q31, %function
  25              	arm_fir_decimate_q31:
  26              	.LFB82:
  27              		.file 1 "Source\\FilteringFunctions\\arm_fir_decimate_q31.c"
   1:Source\FilteringFunctions/arm_fir_decimate_q31.c **** /* ----------------------------------------------------------------------
   2:Source\FilteringFunctions/arm_fir_decimate_q31.c ****  * Project:      CMSIS DSP Library
   3:Source\FilteringFunctions/arm_fir_decimate_q31.c ****  * Title:        arm_fir_decimate_q31.c
   4:Source\FilteringFunctions/arm_fir_decimate_q31.c ****  * Description:  Q31 FIR Decimator
   5:Source\FilteringFunctions/arm_fir_decimate_q31.c ****  *
   6:Source\FilteringFunctions/arm_fir_decimate_q31.c ****  * $Date:        27. January 2017
   7:Source\FilteringFunctions/arm_fir_decimate_q31.c ****  * $Revision:    V.1.5.1
   8:Source\FilteringFunctions/arm_fir_decimate_q31.c ****  *
   9:Source\FilteringFunctions/arm_fir_decimate_q31.c ****  * Target Processor: Cortex-M cores
  10:Source\FilteringFunctions/arm_fir_decimate_q31.c ****  * -------------------------------------------------------------------- */
  11:Source\FilteringFunctions/arm_fir_decimate_q31.c **** /*
  12:Source\FilteringFunctions/arm_fir_decimate_q31.c ****  * Copyright (C) 2010-2017 ARM Limited or its affiliates. All rights reserved.
  13:Source\FilteringFunctions/arm_fir_decimate_q31.c ****  *
  14:Source\FilteringFunctions/arm_fir_decimate_q31.c ****  * SPDX-License-Identifier: Apache-2.0
  15:Source\FilteringFunctions/arm_fir_decimate_q31.c ****  *
  16:Source\FilteringFunctions/arm_fir_decimate_q31.c ****  * Licensed under the Apache License, Version 2.0 (the License); you may
  17:Source\FilteringFunctions/arm_fir_decimate_q31.c ****  * not use this file except in compliance with the License.
  18:Source\FilteringFunctions/arm_fir_decimate_q31.c ****  * You may obtain a copy of the License at
  19:Source\FilteringFunctions/arm_fir_decimate_q31.c ****  *
  20:Source\FilteringFunctions/arm_fir_decimate_q31.c ****  * www.apache.org/licenses/LICENSE-2.0
  21:Source\FilteringFunctions/arm_fir_decimate_q31.c ****  *
  22:Source\FilteringFunctions/arm_fir_decimate_q31.c ****  * Unless required by applicable law or agreed to in writing, software
  23:Source\FilteringFunctions/arm_fir_decimate_q31.c ****  * distributed under the License is distributed on an AS IS BASIS, WITHOUT
  24:Source\FilteringFunctions/arm_fir_decimate_q31.c ****  * WARRANTIES OR CONDITIONS OF ANY KIND, either express or implied.
  25:Source\FilteringFunctions/arm_fir_decimate_q31.c ****  * See the License for the specific language governing permissions and
  26:Source\FilteringFunctions/arm_fir_decimate_q31.c ****  * limitations under the License.
  27:Source\FilteringFunctions/arm_fir_decimate_q31.c ****  */
  28:Source\FilteringFunctions/arm_fir_decimate_q31.c **** 
  29:Source\FilteringFunctions/arm_fir_decimate_q31.c **** #include "arm_math.h"
  30:Source\FilteringFunctions/arm_fir_decimate_q31.c **** 
ARM GAS  C:\Users\fneves\AppData\Local\Temp\ccwhstnr.s 			page 2


  31:Source\FilteringFunctions/arm_fir_decimate_q31.c **** /**
  32:Source\FilteringFunctions/arm_fir_decimate_q31.c ****  * @ingroup groupFilters
  33:Source\FilteringFunctions/arm_fir_decimate_q31.c ****  */
  34:Source\FilteringFunctions/arm_fir_decimate_q31.c **** 
  35:Source\FilteringFunctions/arm_fir_decimate_q31.c **** /**
  36:Source\FilteringFunctions/arm_fir_decimate_q31.c ****  * @addtogroup FIR_decimate
  37:Source\FilteringFunctions/arm_fir_decimate_q31.c ****  * @{
  38:Source\FilteringFunctions/arm_fir_decimate_q31.c ****  */
  39:Source\FilteringFunctions/arm_fir_decimate_q31.c **** 
  40:Source\FilteringFunctions/arm_fir_decimate_q31.c **** /**
  41:Source\FilteringFunctions/arm_fir_decimate_q31.c ****  * @brief Processing function for the Q31 FIR decimator.
  42:Source\FilteringFunctions/arm_fir_decimate_q31.c ****  * @param[in] *S points to an instance of the Q31 FIR decimator structure.
  43:Source\FilteringFunctions/arm_fir_decimate_q31.c ****  * @param[in] *pSrc points to the block of input data.
  44:Source\FilteringFunctions/arm_fir_decimate_q31.c ****  * @param[out] *pDst points to the block of output data
  45:Source\FilteringFunctions/arm_fir_decimate_q31.c ****  * @param[in] blockSize number of input samples to process per call.
  46:Source\FilteringFunctions/arm_fir_decimate_q31.c ****  * @return none
  47:Source\FilteringFunctions/arm_fir_decimate_q31.c ****  *
  48:Source\FilteringFunctions/arm_fir_decimate_q31.c ****  * <b>Scaling and Overflow Behavior:</b>
  49:Source\FilteringFunctions/arm_fir_decimate_q31.c ****  * \par
  50:Source\FilteringFunctions/arm_fir_decimate_q31.c ****  * The function is implemented using an internal 64-bit accumulator.
  51:Source\FilteringFunctions/arm_fir_decimate_q31.c ****  * The accumulator has a 2.62 format and maintains full precision of the intermediate multiplicatio
  52:Source\FilteringFunctions/arm_fir_decimate_q31.c ****  * Thus, if the accumulator result overflows it wraps around rather than clip.
  53:Source\FilteringFunctions/arm_fir_decimate_q31.c ****  * In order to avoid overflows completely the input signal must be scaled down by log2(numTaps) bit
  54:Source\FilteringFunctions/arm_fir_decimate_q31.c ****  * After all multiply-accumulates are performed, the 2.62 accumulator is truncated to 1.32 format a
  55:Source\FilteringFunctions/arm_fir_decimate_q31.c ****  *
  56:Source\FilteringFunctions/arm_fir_decimate_q31.c ****  * \par
  57:Source\FilteringFunctions/arm_fir_decimate_q31.c ****  * Refer to the function <code>arm_fir_decimate_fast_q31()</code> for a faster but less precise imp
  58:Source\FilteringFunctions/arm_fir_decimate_q31.c ****  */
  59:Source\FilteringFunctions/arm_fir_decimate_q31.c **** 
  60:Source\FilteringFunctions/arm_fir_decimate_q31.c **** void arm_fir_decimate_q31(
  61:Source\FilteringFunctions/arm_fir_decimate_q31.c ****   const arm_fir_decimate_instance_q31 * S,
  62:Source\FilteringFunctions/arm_fir_decimate_q31.c ****   q31_t * pSrc,
  63:Source\FilteringFunctions/arm_fir_decimate_q31.c ****   q31_t * pDst,
  64:Source\FilteringFunctions/arm_fir_decimate_q31.c ****   uint32_t blockSize)
  65:Source\FilteringFunctions/arm_fir_decimate_q31.c **** {
  28              		.loc 1 65 0
  29              		.cfi_startproc
  30 0000 B0B5     		push	{r4, r5, r7, lr}
  31              		.cfi_def_cfa_offset 16
  32              		.cfi_offset 4, -16
  33              		.cfi_offset 5, -12
  34              		.cfi_offset 7, -8
  35              		.cfi_offset 14, -4
  36 0002 96B0     		sub	sp, sp, #88
  37              		.cfi_def_cfa_offset 104
  38 0004 00AF     		add	r7, sp, #0
  39              		.cfi_def_cfa_register 7
  40 0006 F861     		str	r0, [r7, #28]
  41 0008 B961     		str	r1, [r7, #24]
  42 000a 7A61     		str	r2, [r7, #20]
  43 000c 3B61     		str	r3, [r7, #16]
  66:Source\FilteringFunctions/arm_fir_decimate_q31.c ****   q31_t *pState = S->pState;                     /* State pointer */
  44              		.loc 1 66 0
  45 000e FB69     		ldr	r3, [r7, #28]
  46 0010 9B68     		ldr	r3, [r3, #8]
  47 0012 7B65     		str	r3, [r7, #84]
  67:Source\FilteringFunctions/arm_fir_decimate_q31.c ****   q31_t *pCoeffs = S->pCoeffs;                   /* Coefficient pointer */
ARM GAS  C:\Users\fneves\AppData\Local\Temp\ccwhstnr.s 			page 3


  48              		.loc 1 67 0
  49 0014 FB69     		ldr	r3, [r7, #28]
  50 0016 5B68     		ldr	r3, [r3, #4]
  51 0018 3B63     		str	r3, [r7, #48]
  68:Source\FilteringFunctions/arm_fir_decimate_q31.c ****   q31_t *pStateCurnt;                            /* Points to the current sample of the state */
  69:Source\FilteringFunctions/arm_fir_decimate_q31.c ****   q31_t x0, c0;                                  /* Temporary variables to hold state and coefficie
  70:Source\FilteringFunctions/arm_fir_decimate_q31.c ****   q31_t *px;                                     /* Temporary pointers for state buffer */
  71:Source\FilteringFunctions/arm_fir_decimate_q31.c ****   q31_t *pb;                                     /* Temporary pointers for coefficient buffer */
  72:Source\FilteringFunctions/arm_fir_decimate_q31.c ****   q63_t sum0;                                    /* Accumulator */
  73:Source\FilteringFunctions/arm_fir_decimate_q31.c ****   uint32_t numTaps = S->numTaps;                 /* Number of taps */
  52              		.loc 1 73 0
  53 001a FB69     		ldr	r3, [r7, #28]
  54 001c 5B88     		ldrh	r3, [r3, #2]
  55 001e FB62     		str	r3, [r7, #44]
  74:Source\FilteringFunctions/arm_fir_decimate_q31.c ****   uint32_t i, tapCnt, blkCnt, outBlockSize = blockSize / S->M;  /* Loop counters */
  56              		.loc 1 74 0
  57 0020 FB69     		ldr	r3, [r7, #28]
  58 0022 1B78     		ldrb	r3, [r3]
  59 0024 3869     		ldr	r0, [r7, #16]
  60 0026 191C     		mov	r1, r3
  61 0028 FFF7FEFF 		bl	__aeabi_uidiv
  62 002c 031C     		mov	r3, r0
  63 002e BB62     		str	r3, [r7, #40]
  75:Source\FilteringFunctions/arm_fir_decimate_q31.c **** 
  76:Source\FilteringFunctions/arm_fir_decimate_q31.c **** 
  77:Source\FilteringFunctions/arm_fir_decimate_q31.c **** #if defined (ARM_MATH_DSP)
  78:Source\FilteringFunctions/arm_fir_decimate_q31.c **** 
  79:Source\FilteringFunctions/arm_fir_decimate_q31.c ****   /* Run the below code for Cortex-M4 and Cortex-M3 */
  80:Source\FilteringFunctions/arm_fir_decimate_q31.c **** 
  81:Source\FilteringFunctions/arm_fir_decimate_q31.c ****   /* S->pState buffer contains previous frame (numTaps - 1) samples */
  82:Source\FilteringFunctions/arm_fir_decimate_q31.c ****   /* pStateCurnt points to the location where the new input data should be written */
  83:Source\FilteringFunctions/arm_fir_decimate_q31.c ****   pStateCurnt = S->pState + (numTaps - 1u);
  84:Source\FilteringFunctions/arm_fir_decimate_q31.c **** 
  85:Source\FilteringFunctions/arm_fir_decimate_q31.c ****   /* Total number of output samples to be computed */
  86:Source\FilteringFunctions/arm_fir_decimate_q31.c ****   blkCnt = outBlockSize;
  87:Source\FilteringFunctions/arm_fir_decimate_q31.c **** 
  88:Source\FilteringFunctions/arm_fir_decimate_q31.c ****   while (blkCnt > 0u)
  89:Source\FilteringFunctions/arm_fir_decimate_q31.c ****   {
  90:Source\FilteringFunctions/arm_fir_decimate_q31.c ****     /* Copy decimation factor number of new input samples into the state buffer */
  91:Source\FilteringFunctions/arm_fir_decimate_q31.c ****     i = S->M;
  92:Source\FilteringFunctions/arm_fir_decimate_q31.c **** 
  93:Source\FilteringFunctions/arm_fir_decimate_q31.c ****     do
  94:Source\FilteringFunctions/arm_fir_decimate_q31.c ****     {
  95:Source\FilteringFunctions/arm_fir_decimate_q31.c ****       *pStateCurnt++ = *pSrc++;
  96:Source\FilteringFunctions/arm_fir_decimate_q31.c **** 
  97:Source\FilteringFunctions/arm_fir_decimate_q31.c ****     } while (--i);
  98:Source\FilteringFunctions/arm_fir_decimate_q31.c **** 
  99:Source\FilteringFunctions/arm_fir_decimate_q31.c ****     /* Set accumulator to zero */
 100:Source\FilteringFunctions/arm_fir_decimate_q31.c ****     sum0 = 0;
 101:Source\FilteringFunctions/arm_fir_decimate_q31.c **** 
 102:Source\FilteringFunctions/arm_fir_decimate_q31.c ****     /* Initialize state pointer */
 103:Source\FilteringFunctions/arm_fir_decimate_q31.c ****     px = pState;
 104:Source\FilteringFunctions/arm_fir_decimate_q31.c **** 
 105:Source\FilteringFunctions/arm_fir_decimate_q31.c ****     /* Initialize coeff pointer */
 106:Source\FilteringFunctions/arm_fir_decimate_q31.c ****     pb = pCoeffs;
 107:Source\FilteringFunctions/arm_fir_decimate_q31.c **** 
 108:Source\FilteringFunctions/arm_fir_decimate_q31.c ****     /* Loop unrolling.  Process 4 taps at a time. */
ARM GAS  C:\Users\fneves\AppData\Local\Temp\ccwhstnr.s 			page 4


 109:Source\FilteringFunctions/arm_fir_decimate_q31.c ****     tapCnt = numTaps >> 2;
 110:Source\FilteringFunctions/arm_fir_decimate_q31.c **** 
 111:Source\FilteringFunctions/arm_fir_decimate_q31.c ****     /* Loop over the number of taps.  Unroll by a factor of 4.
 112:Source\FilteringFunctions/arm_fir_decimate_q31.c ****      ** Repeat until we've computed numTaps-4 coefficients. */
 113:Source\FilteringFunctions/arm_fir_decimate_q31.c ****     while (tapCnt > 0u)
 114:Source\FilteringFunctions/arm_fir_decimate_q31.c ****     {
 115:Source\FilteringFunctions/arm_fir_decimate_q31.c ****       /* Read the b[numTaps-1] coefficient */
 116:Source\FilteringFunctions/arm_fir_decimate_q31.c ****       c0 = *(pb++);
 117:Source\FilteringFunctions/arm_fir_decimate_q31.c **** 
 118:Source\FilteringFunctions/arm_fir_decimate_q31.c ****       /* Read x[n-numTaps-1] sample */
 119:Source\FilteringFunctions/arm_fir_decimate_q31.c ****       x0 = *(px++);
 120:Source\FilteringFunctions/arm_fir_decimate_q31.c **** 
 121:Source\FilteringFunctions/arm_fir_decimate_q31.c ****       /* Perform the multiply-accumulate */
 122:Source\FilteringFunctions/arm_fir_decimate_q31.c ****       sum0 += (q63_t) x0 *c0;
 123:Source\FilteringFunctions/arm_fir_decimate_q31.c **** 
 124:Source\FilteringFunctions/arm_fir_decimate_q31.c ****       /* Read the b[numTaps-2] coefficient */
 125:Source\FilteringFunctions/arm_fir_decimate_q31.c ****       c0 = *(pb++);
 126:Source\FilteringFunctions/arm_fir_decimate_q31.c **** 
 127:Source\FilteringFunctions/arm_fir_decimate_q31.c ****       /* Read x[n-numTaps-2] sample */
 128:Source\FilteringFunctions/arm_fir_decimate_q31.c ****       x0 = *(px++);
 129:Source\FilteringFunctions/arm_fir_decimate_q31.c **** 
 130:Source\FilteringFunctions/arm_fir_decimate_q31.c ****       /* Perform the multiply-accumulate */
 131:Source\FilteringFunctions/arm_fir_decimate_q31.c ****       sum0 += (q63_t) x0 *c0;
 132:Source\FilteringFunctions/arm_fir_decimate_q31.c **** 
 133:Source\FilteringFunctions/arm_fir_decimate_q31.c ****       /* Read the b[numTaps-3] coefficient */
 134:Source\FilteringFunctions/arm_fir_decimate_q31.c ****       c0 = *(pb++);
 135:Source\FilteringFunctions/arm_fir_decimate_q31.c **** 
 136:Source\FilteringFunctions/arm_fir_decimate_q31.c ****       /* Read x[n-numTaps-3] sample */
 137:Source\FilteringFunctions/arm_fir_decimate_q31.c ****       x0 = *(px++);
 138:Source\FilteringFunctions/arm_fir_decimate_q31.c **** 
 139:Source\FilteringFunctions/arm_fir_decimate_q31.c ****       /* Perform the multiply-accumulate */
 140:Source\FilteringFunctions/arm_fir_decimate_q31.c ****       sum0 += (q63_t) x0 *c0;
 141:Source\FilteringFunctions/arm_fir_decimate_q31.c **** 
 142:Source\FilteringFunctions/arm_fir_decimate_q31.c ****       /* Read the b[numTaps-4] coefficient */
 143:Source\FilteringFunctions/arm_fir_decimate_q31.c ****       c0 = *(pb++);
 144:Source\FilteringFunctions/arm_fir_decimate_q31.c **** 
 145:Source\FilteringFunctions/arm_fir_decimate_q31.c ****       /* Read x[n-numTaps-4] sample */
 146:Source\FilteringFunctions/arm_fir_decimate_q31.c ****       x0 = *(px++);
 147:Source\FilteringFunctions/arm_fir_decimate_q31.c **** 
 148:Source\FilteringFunctions/arm_fir_decimate_q31.c ****       /* Perform the multiply-accumulate */
 149:Source\FilteringFunctions/arm_fir_decimate_q31.c ****       sum0 += (q63_t) x0 *c0;
 150:Source\FilteringFunctions/arm_fir_decimate_q31.c **** 
 151:Source\FilteringFunctions/arm_fir_decimate_q31.c ****       /* Decrement the loop counter */
 152:Source\FilteringFunctions/arm_fir_decimate_q31.c ****       tapCnt--;
 153:Source\FilteringFunctions/arm_fir_decimate_q31.c ****     }
 154:Source\FilteringFunctions/arm_fir_decimate_q31.c **** 
 155:Source\FilteringFunctions/arm_fir_decimate_q31.c ****     /* If the filter length is not a multiple of 4, compute the remaining filter taps */
 156:Source\FilteringFunctions/arm_fir_decimate_q31.c ****     tapCnt = numTaps % 0x4u;
 157:Source\FilteringFunctions/arm_fir_decimate_q31.c **** 
 158:Source\FilteringFunctions/arm_fir_decimate_q31.c ****     while (tapCnt > 0u)
 159:Source\FilteringFunctions/arm_fir_decimate_q31.c ****     {
 160:Source\FilteringFunctions/arm_fir_decimate_q31.c ****       /* Read coefficients */
 161:Source\FilteringFunctions/arm_fir_decimate_q31.c ****       c0 = *(pb++);
 162:Source\FilteringFunctions/arm_fir_decimate_q31.c **** 
 163:Source\FilteringFunctions/arm_fir_decimate_q31.c ****       /* Fetch 1 state variable */
 164:Source\FilteringFunctions/arm_fir_decimate_q31.c ****       x0 = *(px++);
 165:Source\FilteringFunctions/arm_fir_decimate_q31.c **** 
ARM GAS  C:\Users\fneves\AppData\Local\Temp\ccwhstnr.s 			page 5


 166:Source\FilteringFunctions/arm_fir_decimate_q31.c ****       /* Perform the multiply-accumulate */
 167:Source\FilteringFunctions/arm_fir_decimate_q31.c ****       sum0 += (q63_t) x0 *c0;
 168:Source\FilteringFunctions/arm_fir_decimate_q31.c **** 
 169:Source\FilteringFunctions/arm_fir_decimate_q31.c ****       /* Decrement the loop counter */
 170:Source\FilteringFunctions/arm_fir_decimate_q31.c ****       tapCnt--;
 171:Source\FilteringFunctions/arm_fir_decimate_q31.c ****     }
 172:Source\FilteringFunctions/arm_fir_decimate_q31.c **** 
 173:Source\FilteringFunctions/arm_fir_decimate_q31.c ****     /* Advance the state pointer by the decimation factor
 174:Source\FilteringFunctions/arm_fir_decimate_q31.c ****      * to process the next group of decimation factor number samples */
 175:Source\FilteringFunctions/arm_fir_decimate_q31.c ****     pState = pState + S->M;
 176:Source\FilteringFunctions/arm_fir_decimate_q31.c **** 
 177:Source\FilteringFunctions/arm_fir_decimate_q31.c ****     /* The result is in the accumulator, store in the destination buffer. */
 178:Source\FilteringFunctions/arm_fir_decimate_q31.c ****     *pDst++ = (q31_t) (sum0 >> 31);
 179:Source\FilteringFunctions/arm_fir_decimate_q31.c **** 
 180:Source\FilteringFunctions/arm_fir_decimate_q31.c ****     /* Decrement the loop counter */
 181:Source\FilteringFunctions/arm_fir_decimate_q31.c ****     blkCnt--;
 182:Source\FilteringFunctions/arm_fir_decimate_q31.c ****   }
 183:Source\FilteringFunctions/arm_fir_decimate_q31.c **** 
 184:Source\FilteringFunctions/arm_fir_decimate_q31.c ****   /* Processing is complete.
 185:Source\FilteringFunctions/arm_fir_decimate_q31.c ****    ** Now copy the last numTaps - 1 samples to the satrt of the state buffer.
 186:Source\FilteringFunctions/arm_fir_decimate_q31.c ****    ** This prepares the state buffer for the next function call. */
 187:Source\FilteringFunctions/arm_fir_decimate_q31.c **** 
 188:Source\FilteringFunctions/arm_fir_decimate_q31.c ****   /* Points to the start of the state buffer */
 189:Source\FilteringFunctions/arm_fir_decimate_q31.c ****   pStateCurnt = S->pState;
 190:Source\FilteringFunctions/arm_fir_decimate_q31.c **** 
 191:Source\FilteringFunctions/arm_fir_decimate_q31.c ****   i = (numTaps - 1u) >> 2u;
 192:Source\FilteringFunctions/arm_fir_decimate_q31.c **** 
 193:Source\FilteringFunctions/arm_fir_decimate_q31.c ****   /* copy data */
 194:Source\FilteringFunctions/arm_fir_decimate_q31.c ****   while (i > 0u)
 195:Source\FilteringFunctions/arm_fir_decimate_q31.c ****   {
 196:Source\FilteringFunctions/arm_fir_decimate_q31.c ****     *pStateCurnt++ = *pState++;
 197:Source\FilteringFunctions/arm_fir_decimate_q31.c ****     *pStateCurnt++ = *pState++;
 198:Source\FilteringFunctions/arm_fir_decimate_q31.c ****     *pStateCurnt++ = *pState++;
 199:Source\FilteringFunctions/arm_fir_decimate_q31.c ****     *pStateCurnt++ = *pState++;
 200:Source\FilteringFunctions/arm_fir_decimate_q31.c **** 
 201:Source\FilteringFunctions/arm_fir_decimate_q31.c ****     /* Decrement the loop counter */
 202:Source\FilteringFunctions/arm_fir_decimate_q31.c ****     i--;
 203:Source\FilteringFunctions/arm_fir_decimate_q31.c ****   }
 204:Source\FilteringFunctions/arm_fir_decimate_q31.c **** 
 205:Source\FilteringFunctions/arm_fir_decimate_q31.c ****   i = (numTaps - 1u) % 0x04u;
 206:Source\FilteringFunctions/arm_fir_decimate_q31.c **** 
 207:Source\FilteringFunctions/arm_fir_decimate_q31.c ****   /* copy data */
 208:Source\FilteringFunctions/arm_fir_decimate_q31.c ****   while (i > 0u)
 209:Source\FilteringFunctions/arm_fir_decimate_q31.c ****   {
 210:Source\FilteringFunctions/arm_fir_decimate_q31.c ****     *pStateCurnt++ = *pState++;
 211:Source\FilteringFunctions/arm_fir_decimate_q31.c **** 
 212:Source\FilteringFunctions/arm_fir_decimate_q31.c ****     /* Decrement the loop counter */
 213:Source\FilteringFunctions/arm_fir_decimate_q31.c ****     i--;
 214:Source\FilteringFunctions/arm_fir_decimate_q31.c ****   }
 215:Source\FilteringFunctions/arm_fir_decimate_q31.c **** 
 216:Source\FilteringFunctions/arm_fir_decimate_q31.c **** #else
 217:Source\FilteringFunctions/arm_fir_decimate_q31.c **** 
 218:Source\FilteringFunctions/arm_fir_decimate_q31.c **** /* Run the below code for Cortex-M0 */
 219:Source\FilteringFunctions/arm_fir_decimate_q31.c **** 
 220:Source\FilteringFunctions/arm_fir_decimate_q31.c ****   /* S->pState buffer contains previous frame (numTaps - 1) samples */
 221:Source\FilteringFunctions/arm_fir_decimate_q31.c ****   /* pStateCurnt points to the location where the new input data should be written */
 222:Source\FilteringFunctions/arm_fir_decimate_q31.c ****   pStateCurnt = S->pState + (numTaps - 1u);
ARM GAS  C:\Users\fneves\AppData\Local\Temp\ccwhstnr.s 			page 6


  64              		.loc 1 222 0
  65 0030 FB69     		ldr	r3, [r7, #28]
  66 0032 9A68     		ldr	r2, [r3, #8]
  67 0034 FB6A     		ldr	r3, [r7, #44]
  68 0036 3E49     		ldr	r1, .L9
  69 0038 8C46     		mov	ip, r1
  70 003a 6344     		add	r3, r3, ip
  71 003c 9B00     		lsl	r3, r3, #2
  72 003e D318     		add	r3, r2, r3
  73 0040 3B65     		str	r3, [r7, #80]
 223:Source\FilteringFunctions/arm_fir_decimate_q31.c **** 
 224:Source\FilteringFunctions/arm_fir_decimate_q31.c ****   /* Total number of output samples to be computed */
 225:Source\FilteringFunctions/arm_fir_decimate_q31.c ****   blkCnt = outBlockSize;
  74              		.loc 1 225 0
  75 0042 BB6A     		ldr	r3, [r7, #40]
  76 0044 7B63     		str	r3, [r7, #52]
 226:Source\FilteringFunctions/arm_fir_decimate_q31.c **** 
 227:Source\FilteringFunctions/arm_fir_decimate_q31.c ****   while (blkCnt > 0u)
  77              		.loc 1 227 0
  78 0046 58E0     		b	.L2
  79              	.L6:
 228:Source\FilteringFunctions/arm_fir_decimate_q31.c ****   {
 229:Source\FilteringFunctions/arm_fir_decimate_q31.c ****     /* Copy decimation factor number of new input samples into the state buffer */
 230:Source\FilteringFunctions/arm_fir_decimate_q31.c ****     i = S->M;
  80              		.loc 1 230 0
  81 0048 FB69     		ldr	r3, [r7, #28]
  82 004a 1B78     		ldrb	r3, [r3]
  83 004c FB63     		str	r3, [r7, #60]
  84              	.L3:
 231:Source\FilteringFunctions/arm_fir_decimate_q31.c **** 
 232:Source\FilteringFunctions/arm_fir_decimate_q31.c ****     do
 233:Source\FilteringFunctions/arm_fir_decimate_q31.c ****     {
 234:Source\FilteringFunctions/arm_fir_decimate_q31.c ****       *pStateCurnt++ = *pSrc++;
  85              		.loc 1 234 0 discriminator 1
  86 004e 3B6D     		ldr	r3, [r7, #80]
  87 0050 1A1D     		add	r2, r3, #4
  88 0052 3A65     		str	r2, [r7, #80]
  89 0054 BA69     		ldr	r2, [r7, #24]
  90 0056 111D     		add	r1, r2, #4
  91 0058 B961     		str	r1, [r7, #24]
  92 005a 1268     		ldr	r2, [r2]
  93 005c 1A60     		str	r2, [r3]
 235:Source\FilteringFunctions/arm_fir_decimate_q31.c **** 
 236:Source\FilteringFunctions/arm_fir_decimate_q31.c ****     } while (--i);
  94              		.loc 1 236 0 discriminator 1
  95 005e FB6B     		ldr	r3, [r7, #60]
  96 0060 013B     		sub	r3, r3, #1
  97 0062 FB63     		str	r3, [r7, #60]
  98 0064 FB6B     		ldr	r3, [r7, #60]
  99 0066 002B     		cmp	r3, #0
 100 0068 F1D1     		bne	.L3
 237:Source\FilteringFunctions/arm_fir_decimate_q31.c **** 
 238:Source\FilteringFunctions/arm_fir_decimate_q31.c ****     /* Set accumulator to zero */
 239:Source\FilteringFunctions/arm_fir_decimate_q31.c ****     sum0 = 0;
 101              		.loc 1 239 0
 102 006a 0022     		mov	r2, #0
 103 006c 0023     		mov	r3, #0
ARM GAS  C:\Users\fneves\AppData\Local\Temp\ccwhstnr.s 			page 7


 104 006e 3A64     		str	r2, [r7, #64]
 105 0070 7B64     		str	r3, [r7, #68]
 240:Source\FilteringFunctions/arm_fir_decimate_q31.c **** 
 241:Source\FilteringFunctions/arm_fir_decimate_q31.c ****     /* Initialize state pointer */
 242:Source\FilteringFunctions/arm_fir_decimate_q31.c ****     px = pState;
 106              		.loc 1 242 0
 107 0072 7B6D     		ldr	r3, [r7, #84]
 108 0074 FB64     		str	r3, [r7, #76]
 243:Source\FilteringFunctions/arm_fir_decimate_q31.c **** 
 244:Source\FilteringFunctions/arm_fir_decimate_q31.c ****     /* Initialize coeff pointer */
 245:Source\FilteringFunctions/arm_fir_decimate_q31.c ****     pb = pCoeffs;
 109              		.loc 1 245 0
 110 0076 3B6B     		ldr	r3, [r7, #48]
 111 0078 BB64     		str	r3, [r7, #72]
 246:Source\FilteringFunctions/arm_fir_decimate_q31.c **** 
 247:Source\FilteringFunctions/arm_fir_decimate_q31.c ****     tapCnt = numTaps;
 112              		.loc 1 247 0
 113 007a FB6A     		ldr	r3, [r7, #44]
 114 007c BB63     		str	r3, [r7, #56]
 248:Source\FilteringFunctions/arm_fir_decimate_q31.c **** 
 249:Source\FilteringFunctions/arm_fir_decimate_q31.c ****     while (tapCnt > 0u)
 115              		.loc 1 249 0
 116 007e 24E0     		b	.L4
 117              	.L5:
 250:Source\FilteringFunctions/arm_fir_decimate_q31.c ****     {
 251:Source\FilteringFunctions/arm_fir_decimate_q31.c ****       /* Read coefficients */
 252:Source\FilteringFunctions/arm_fir_decimate_q31.c ****       c0 = *pb++;
 118              		.loc 1 252 0
 119 0080 BB6C     		ldr	r3, [r7, #72]
 120 0082 1A1D     		add	r2, r3, #4
 121 0084 BA64     		str	r2, [r7, #72]
 122 0086 1B68     		ldr	r3, [r3]
 123 0088 7B62     		str	r3, [r7, #36]
 253:Source\FilteringFunctions/arm_fir_decimate_q31.c **** 
 254:Source\FilteringFunctions/arm_fir_decimate_q31.c ****       /* Fetch 1 state variable */
 255:Source\FilteringFunctions/arm_fir_decimate_q31.c ****       x0 = *px++;
 124              		.loc 1 255 0
 125 008a FB6C     		ldr	r3, [r7, #76]
 126 008c 1A1D     		add	r2, r3, #4
 127 008e FA64     		str	r2, [r7, #76]
 128 0090 1B68     		ldr	r3, [r3]
 129 0092 3B62     		str	r3, [r7, #32]
 256:Source\FilteringFunctions/arm_fir_decimate_q31.c **** 
 257:Source\FilteringFunctions/arm_fir_decimate_q31.c ****       /* Perform the multiply-accumulate */
 258:Source\FilteringFunctions/arm_fir_decimate_q31.c ****       sum0 += (q63_t) x0 *c0;
 130              		.loc 1 258 0
 131 0094 3B6A     		ldr	r3, [r7, #32]
 132 0096 BB60     		str	r3, [r7, #8]
 133 0098 DB17     		asr	r3, r3, #31
 134 009a FB60     		str	r3, [r7, #12]
 135 009c 7B6A     		ldr	r3, [r7, #36]
 136 009e 3B60     		str	r3, [r7]
 137 00a0 DB17     		asr	r3, r3, #31
 138 00a2 7B60     		str	r3, [r7, #4]
 139 00a4 B868     		ldr	r0, [r7, #8]
 140 00a6 F968     		ldr	r1, [r7, #12]
 141 00a8 3A68     		ldr	r2, [r7]
ARM GAS  C:\Users\fneves\AppData\Local\Temp\ccwhstnr.s 			page 8


 142 00aa 7B68     		ldr	r3, [r7, #4]
 143 00ac FFF7FEFF 		bl	__aeabi_lmul
 144 00b0 021C     		mov	r2, r0
 145 00b2 0B1C     		mov	r3, r1
 146 00b4 101C     		mov	r0, r2
 147 00b6 191C     		mov	r1, r3
 148 00b8 3A6C     		ldr	r2, [r7, #64]
 149 00ba 7B6C     		ldr	r3, [r7, #68]
 150 00bc 1218     		add	r2, r2, r0
 151 00be 4B41     		adc	r3, r3, r1
 152 00c0 3A64     		str	r2, [r7, #64]
 153 00c2 7B64     		str	r3, [r7, #68]
 259:Source\FilteringFunctions/arm_fir_decimate_q31.c **** 
 260:Source\FilteringFunctions/arm_fir_decimate_q31.c ****       /* Decrement the loop counter */
 261:Source\FilteringFunctions/arm_fir_decimate_q31.c ****       tapCnt--;
 154              		.loc 1 261 0
 155 00c4 BB6B     		ldr	r3, [r7, #56]
 156 00c6 013B     		sub	r3, r3, #1
 157 00c8 BB63     		str	r3, [r7, #56]
 158              	.L4:
 249:Source\FilteringFunctions/arm_fir_decimate_q31.c ****     {
 159              		.loc 1 249 0
 160 00ca BB6B     		ldr	r3, [r7, #56]
 161 00cc 002B     		cmp	r3, #0
 162 00ce D7D1     		bne	.L5
 262:Source\FilteringFunctions/arm_fir_decimate_q31.c ****     }
 263:Source\FilteringFunctions/arm_fir_decimate_q31.c **** 
 264:Source\FilteringFunctions/arm_fir_decimate_q31.c ****     /* Advance the state pointer by the decimation factor
 265:Source\FilteringFunctions/arm_fir_decimate_q31.c ****      * to process the next group of decimation factor number samples */
 266:Source\FilteringFunctions/arm_fir_decimate_q31.c ****     pState = pState + S->M;
 163              		.loc 1 266 0
 164 00d0 FB69     		ldr	r3, [r7, #28]
 165 00d2 1B78     		ldrb	r3, [r3]
 166 00d4 9B00     		lsl	r3, r3, #2
 167 00d6 7A6D     		ldr	r2, [r7, #84]
 168 00d8 D318     		add	r3, r2, r3
 169 00da 7B65     		str	r3, [r7, #84]
 267:Source\FilteringFunctions/arm_fir_decimate_q31.c **** 
 268:Source\FilteringFunctions/arm_fir_decimate_q31.c ****     /* The result is in the accumulator, store in the destination buffer. */
 269:Source\FilteringFunctions/arm_fir_decimate_q31.c ****     *pDst++ = (q31_t) (sum0 >> 31);
 170              		.loc 1 269 0
 171 00dc 7B69     		ldr	r3, [r7, #20]
 172 00de 1A1D     		add	r2, r3, #4
 173 00e0 7A61     		str	r2, [r7, #20]
 174 00e2 7A6C     		ldr	r2, [r7, #68]
 175 00e4 5200     		lsl	r2, r2, #1
 176 00e6 396C     		ldr	r1, [r7, #64]
 177 00e8 CC0F     		lsr	r4, r1, #31
 178 00ea 1443     		orr	r4, r2
 179 00ec 7A6C     		ldr	r2, [r7, #68]
 180 00ee D517     		asr	r5, r2, #31
 181 00f0 221C     		mov	r2, r4
 182 00f2 1A60     		str	r2, [r3]
 270:Source\FilteringFunctions/arm_fir_decimate_q31.c **** 
 271:Source\FilteringFunctions/arm_fir_decimate_q31.c ****     /* Decrement the loop counter */
 272:Source\FilteringFunctions/arm_fir_decimate_q31.c ****     blkCnt--;
 183              		.loc 1 272 0
ARM GAS  C:\Users\fneves\AppData\Local\Temp\ccwhstnr.s 			page 9


 184 00f4 7B6B     		ldr	r3, [r7, #52]
 185 00f6 013B     		sub	r3, r3, #1
 186 00f8 7B63     		str	r3, [r7, #52]
 187              	.L2:
 227:Source\FilteringFunctions/arm_fir_decimate_q31.c ****   {
 188              		.loc 1 227 0
 189 00fa 7B6B     		ldr	r3, [r7, #52]
 190 00fc 002B     		cmp	r3, #0
 191 00fe A3D1     		bne	.L6
 273:Source\FilteringFunctions/arm_fir_decimate_q31.c ****   }
 274:Source\FilteringFunctions/arm_fir_decimate_q31.c **** 
 275:Source\FilteringFunctions/arm_fir_decimate_q31.c ****   /* Processing is complete.
 276:Source\FilteringFunctions/arm_fir_decimate_q31.c ****    ** Now copy the last numTaps - 1 samples to the start of the state buffer.
 277:Source\FilteringFunctions/arm_fir_decimate_q31.c ****    ** This prepares the state buffer for the next function call. */
 278:Source\FilteringFunctions/arm_fir_decimate_q31.c **** 
 279:Source\FilteringFunctions/arm_fir_decimate_q31.c ****   /* Points to the start of the state buffer */
 280:Source\FilteringFunctions/arm_fir_decimate_q31.c ****   pStateCurnt = S->pState;
 192              		.loc 1 280 0
 193 0100 FB69     		ldr	r3, [r7, #28]
 194 0102 9B68     		ldr	r3, [r3, #8]
 195 0104 3B65     		str	r3, [r7, #80]
 281:Source\FilteringFunctions/arm_fir_decimate_q31.c **** 
 282:Source\FilteringFunctions/arm_fir_decimate_q31.c ****   i = numTaps - 1u;
 196              		.loc 1 282 0
 197 0106 FB6A     		ldr	r3, [r7, #44]
 198 0108 013B     		sub	r3, r3, #1
 199 010a FB63     		str	r3, [r7, #60]
 283:Source\FilteringFunctions/arm_fir_decimate_q31.c **** 
 284:Source\FilteringFunctions/arm_fir_decimate_q31.c ****   /* copy data */
 285:Source\FilteringFunctions/arm_fir_decimate_q31.c ****   while (i > 0u)
 200              		.loc 1 285 0
 201 010c 0AE0     		b	.L7
 202              	.L8:
 286:Source\FilteringFunctions/arm_fir_decimate_q31.c ****   {
 287:Source\FilteringFunctions/arm_fir_decimate_q31.c ****     *pStateCurnt++ = *pState++;
 203              		.loc 1 287 0
 204 010e 3B6D     		ldr	r3, [r7, #80]
 205 0110 1A1D     		add	r2, r3, #4
 206 0112 3A65     		str	r2, [r7, #80]
 207 0114 7A6D     		ldr	r2, [r7, #84]
 208 0116 111D     		add	r1, r2, #4
 209 0118 7965     		str	r1, [r7, #84]
 210 011a 1268     		ldr	r2, [r2]
 211 011c 1A60     		str	r2, [r3]
 288:Source\FilteringFunctions/arm_fir_decimate_q31.c **** 
 289:Source\FilteringFunctions/arm_fir_decimate_q31.c ****     /* Decrement the loop counter */
 290:Source\FilteringFunctions/arm_fir_decimate_q31.c ****     i--;
 212              		.loc 1 290 0
 213 011e FB6B     		ldr	r3, [r7, #60]
 214 0120 013B     		sub	r3, r3, #1
 215 0122 FB63     		str	r3, [r7, #60]
 216              	.L7:
 285:Source\FilteringFunctions/arm_fir_decimate_q31.c ****   {
 217              		.loc 1 285 0
 218 0124 FB6B     		ldr	r3, [r7, #60]
 219 0126 002B     		cmp	r3, #0
 220 0128 F1D1     		bne	.L8
ARM GAS  C:\Users\fneves\AppData\Local\Temp\ccwhstnr.s 			page 10


 291:Source\FilteringFunctions/arm_fir_decimate_q31.c ****   }
 292:Source\FilteringFunctions/arm_fir_decimate_q31.c **** 
 293:Source\FilteringFunctions/arm_fir_decimate_q31.c **** #endif /*   #if defined (ARM_MATH_DSP) */
 294:Source\FilteringFunctions/arm_fir_decimate_q31.c **** 
 295:Source\FilteringFunctions/arm_fir_decimate_q31.c **** }
 221              		.loc 1 295 0
 222 012a BD46     		mov	sp, r7
 223 012c 16B0     		add	sp, sp, #88
 224              		@ sp needed
 225 012e B0BD     		pop	{r4, r5, r7, pc}
 226              	.L10:
 227              		.align	2
 228              	.L9:
 229 0130 FFFFFF3F 		.word	1073741823
 230              		.cfi_endproc
 231              	.LFE82:
 232              		.size	arm_fir_decimate_q31, .-arm_fir_decimate_q31
 233              		.text
 234              	.Letext0:
 235              		.file 2 "c:\\program files (x86)\\cypress\\psoc creator\\4.0\\psoc creator\\import\\gnu\\arm\\4.9.
 236              		.file 3 "c:\\program files (x86)\\cypress\\psoc creator\\4.0\\psoc creator\\import\\gnu\\arm\\4.9.
 237              		.file 4 ".\\Include/arm_math.h"