ARM GAS  C:\Users\fneves\AppData\Local\Temp\ccpf1t8p.s 			page 1


   1              		.cpu cortex-m0plus
   2              		.fpu softvfp
   3              		.eabi_attribute 20, 1
   4              		.eabi_attribute 21, 1
   5              		.eabi_attribute 23, 3
   6              		.eabi_attribute 24, 1
   7              		.eabi_attribute 25, 1
   8              		.eabi_attribute 26, 1
   9              		.eabi_attribute 30, 6
  10              		.eabi_attribute 34, 0
  11              		.eabi_attribute 18, 4
  12              		.code	16
  13              		.file	"arm_power_q31.c"
  14              		.text
  15              	.Ltext0:
  16              		.cfi_sections	.debug_frame
  17              		.global	__aeabi_lmul
  18              		.section	.text.arm_power_q31,"ax",%progbits
  19              		.align	2
  20              		.global	arm_power_q31
  21              		.code	16
  22              		.thumb_func
  23              		.type	arm_power_q31, %function
  24              	arm_power_q31:
  25              	.LFB82:
  26              		.file 1 "Source\\StatisticsFunctions\\arm_power_q31.c"
   1:Source\StatisticsFunctions/arm_power_q31.c **** /* ----------------------------------------------------------------------
   2:Source\StatisticsFunctions/arm_power_q31.c ****  * Project:      CMSIS DSP Library
   3:Source\StatisticsFunctions/arm_power_q31.c ****  * Title:        arm_power_q31.c
   4:Source\StatisticsFunctions/arm_power_q31.c ****  * Description:  Sum of the squares of the elements of a Q31 vector
   5:Source\StatisticsFunctions/arm_power_q31.c ****  *
   6:Source\StatisticsFunctions/arm_power_q31.c ****  * $Date:        27. January 2017
   7:Source\StatisticsFunctions/arm_power_q31.c ****  * $Revision:    V.1.5.1
   8:Source\StatisticsFunctions/arm_power_q31.c ****  *
   9:Source\StatisticsFunctions/arm_power_q31.c ****  * Target Processor: Cortex-M cores
  10:Source\StatisticsFunctions/arm_power_q31.c ****  * -------------------------------------------------------------------- */
  11:Source\StatisticsFunctions/arm_power_q31.c **** /*
  12:Source\StatisticsFunctions/arm_power_q31.c ****  * Copyright (C) 2010-2017 ARM Limited or its affiliates. All rights reserved.
  13:Source\StatisticsFunctions/arm_power_q31.c ****  *
  14:Source\StatisticsFunctions/arm_power_q31.c ****  * SPDX-License-Identifier: Apache-2.0
  15:Source\StatisticsFunctions/arm_power_q31.c ****  *
  16:Source\StatisticsFunctions/arm_power_q31.c ****  * Licensed under the Apache License, Version 2.0 (the License); you may
  17:Source\StatisticsFunctions/arm_power_q31.c ****  * not use this file except in compliance with the License.
  18:Source\StatisticsFunctions/arm_power_q31.c ****  * You may obtain a copy of the License at
  19:Source\StatisticsFunctions/arm_power_q31.c ****  *
  20:Source\StatisticsFunctions/arm_power_q31.c ****  * www.apache.org/licenses/LICENSE-2.0
  21:Source\StatisticsFunctions/arm_power_q31.c ****  *
  22:Source\StatisticsFunctions/arm_power_q31.c ****  * Unless required by applicable law or agreed to in writing, software
  23:Source\StatisticsFunctions/arm_power_q31.c ****  * distributed under the License is distributed on an AS IS BASIS, WITHOUT
  24:Source\StatisticsFunctions/arm_power_q31.c ****  * WARRANTIES OR CONDITIONS OF ANY KIND, either express or implied.
  25:Source\StatisticsFunctions/arm_power_q31.c ****  * See the License for the specific language governing permissions and
  26:Source\StatisticsFunctions/arm_power_q31.c ****  * limitations under the License.
  27:Source\StatisticsFunctions/arm_power_q31.c ****  */
  28:Source\StatisticsFunctions/arm_power_q31.c **** 
  29:Source\StatisticsFunctions/arm_power_q31.c **** #include "arm_math.h"
  30:Source\StatisticsFunctions/arm_power_q31.c **** 
  31:Source\StatisticsFunctions/arm_power_q31.c **** /**
ARM GAS  C:\Users\fneves\AppData\Local\Temp\ccpf1t8p.s 			page 2


  32:Source\StatisticsFunctions/arm_power_q31.c ****  * @ingroup groupStats
  33:Source\StatisticsFunctions/arm_power_q31.c ****  */
  34:Source\StatisticsFunctions/arm_power_q31.c **** 
  35:Source\StatisticsFunctions/arm_power_q31.c **** /**
  36:Source\StatisticsFunctions/arm_power_q31.c ****  * @addtogroup power
  37:Source\StatisticsFunctions/arm_power_q31.c ****  * @{
  38:Source\StatisticsFunctions/arm_power_q31.c ****  */
  39:Source\StatisticsFunctions/arm_power_q31.c **** 
  40:Source\StatisticsFunctions/arm_power_q31.c **** /**
  41:Source\StatisticsFunctions/arm_power_q31.c ****  * @brief Sum of the squares of the elements of a Q31 vector.
  42:Source\StatisticsFunctions/arm_power_q31.c ****  * @param[in]       *pSrc points to the input vector
  43:Source\StatisticsFunctions/arm_power_q31.c ****  * @param[in]       blockSize length of the input vector
  44:Source\StatisticsFunctions/arm_power_q31.c ****  * @param[out]      *pResult sum of the squares value returned here
  45:Source\StatisticsFunctions/arm_power_q31.c ****  * @return none.
  46:Source\StatisticsFunctions/arm_power_q31.c ****  *
  47:Source\StatisticsFunctions/arm_power_q31.c ****  * @details
  48:Source\StatisticsFunctions/arm_power_q31.c ****  * <b>Scaling and Overflow Behavior:</b>
  49:Source\StatisticsFunctions/arm_power_q31.c ****  *
  50:Source\StatisticsFunctions/arm_power_q31.c ****  * \par
  51:Source\StatisticsFunctions/arm_power_q31.c ****  * The function is implemented using a 64-bit internal accumulator.
  52:Source\StatisticsFunctions/arm_power_q31.c ****  * The input is represented in 1.31 format.
  53:Source\StatisticsFunctions/arm_power_q31.c ****  * Intermediate multiplication yields a 2.62 format, and this
  54:Source\StatisticsFunctions/arm_power_q31.c ****  * result is truncated to 2.48 format by discarding the lower 14 bits.
  55:Source\StatisticsFunctions/arm_power_q31.c ****  * The 2.48 result is then added without saturation to a 64-bit accumulator in 16.48 format.
  56:Source\StatisticsFunctions/arm_power_q31.c ****  * With 15 guard bits in the accumulator, there is no risk of overflow, and the
  57:Source\StatisticsFunctions/arm_power_q31.c ****  * full precision of the intermediate multiplication is preserved.
  58:Source\StatisticsFunctions/arm_power_q31.c ****  * Finally, the return result is in 16.48 format.
  59:Source\StatisticsFunctions/arm_power_q31.c ****  *
  60:Source\StatisticsFunctions/arm_power_q31.c ****  */
  61:Source\StatisticsFunctions/arm_power_q31.c **** 
  62:Source\StatisticsFunctions/arm_power_q31.c **** void arm_power_q31(
  63:Source\StatisticsFunctions/arm_power_q31.c ****   q31_t * pSrc,
  64:Source\StatisticsFunctions/arm_power_q31.c ****   uint32_t blockSize,
  65:Source\StatisticsFunctions/arm_power_q31.c ****   q63_t * pResult)
  66:Source\StatisticsFunctions/arm_power_q31.c **** {
  27              		.loc 1 66 0
  28              		.cfi_startproc
  29 0000 B0B5     		push	{r4, r5, r7, lr}
  30              		.cfi_def_cfa_offset 16
  31              		.cfi_offset 4, -16
  32              		.cfi_offset 5, -12
  33              		.cfi_offset 7, -8
  34              		.cfi_offset 14, -4
  35 0002 8CB0     		sub	sp, sp, #48
  36              		.cfi_def_cfa_offset 64
  37 0004 00AF     		add	r7, sp, #0
  38              		.cfi_def_cfa_register 7
  39 0006 F861     		str	r0, [r7, #28]
  40 0008 B961     		str	r1, [r7, #24]
  41 000a 7A61     		str	r2, [r7, #20]
  67:Source\StatisticsFunctions/arm_power_q31.c ****   q63_t sum = 0;                                 /* Temporary result storage */
  42              		.loc 1 67 0
  43 000c 0022     		mov	r2, #0
  44 000e 0023     		mov	r3, #0
  45 0010 BA62     		str	r2, [r7, #40]
  46 0012 FB62     		str	r3, [r7, #44]
  68:Source\StatisticsFunctions/arm_power_q31.c ****   q31_t in;
ARM GAS  C:\Users\fneves\AppData\Local\Temp\ccpf1t8p.s 			page 3


  69:Source\StatisticsFunctions/arm_power_q31.c ****   uint32_t blkCnt;                               /* loop counter */
  70:Source\StatisticsFunctions/arm_power_q31.c **** 
  71:Source\StatisticsFunctions/arm_power_q31.c **** 
  72:Source\StatisticsFunctions/arm_power_q31.c **** #if defined (ARM_MATH_DSP)
  73:Source\StatisticsFunctions/arm_power_q31.c ****   /* Run the below code for Cortex-M4 and Cortex-M3 */
  74:Source\StatisticsFunctions/arm_power_q31.c **** 
  75:Source\StatisticsFunctions/arm_power_q31.c ****   /*loop Unrolling */
  76:Source\StatisticsFunctions/arm_power_q31.c ****   blkCnt = blockSize >> 2u;
  77:Source\StatisticsFunctions/arm_power_q31.c **** 
  78:Source\StatisticsFunctions/arm_power_q31.c ****   /* First part of the processing with loop unrolling.  Compute 4 outputs at a time.
  79:Source\StatisticsFunctions/arm_power_q31.c ****    ** a second loop below computes the remaining 1 to 3 samples. */
  80:Source\StatisticsFunctions/arm_power_q31.c ****   while (blkCnt > 0u)
  81:Source\StatisticsFunctions/arm_power_q31.c ****   {
  82:Source\StatisticsFunctions/arm_power_q31.c ****     /* C = A[0] * A[0] + A[1] * A[1] + A[2] * A[2] + ... + A[blockSize-1] * A[blockSize-1] */
  83:Source\StatisticsFunctions/arm_power_q31.c ****     /* Compute Power then shift intermediate results by 14 bits to maintain 16.48 format and then s
  84:Source\StatisticsFunctions/arm_power_q31.c ****     in = *pSrc++;
  85:Source\StatisticsFunctions/arm_power_q31.c ****     sum += ((q63_t) in * in) >> 14u;
  86:Source\StatisticsFunctions/arm_power_q31.c **** 
  87:Source\StatisticsFunctions/arm_power_q31.c ****     in = *pSrc++;
  88:Source\StatisticsFunctions/arm_power_q31.c ****     sum += ((q63_t) in * in) >> 14u;
  89:Source\StatisticsFunctions/arm_power_q31.c **** 
  90:Source\StatisticsFunctions/arm_power_q31.c ****     in = *pSrc++;
  91:Source\StatisticsFunctions/arm_power_q31.c ****     sum += ((q63_t) in * in) >> 14u;
  92:Source\StatisticsFunctions/arm_power_q31.c **** 
  93:Source\StatisticsFunctions/arm_power_q31.c ****     in = *pSrc++;
  94:Source\StatisticsFunctions/arm_power_q31.c ****     sum += ((q63_t) in * in) >> 14u;
  95:Source\StatisticsFunctions/arm_power_q31.c **** 
  96:Source\StatisticsFunctions/arm_power_q31.c ****     /* Decrement the loop counter */
  97:Source\StatisticsFunctions/arm_power_q31.c ****     blkCnt--;
  98:Source\StatisticsFunctions/arm_power_q31.c ****   }
  99:Source\StatisticsFunctions/arm_power_q31.c **** 
 100:Source\StatisticsFunctions/arm_power_q31.c ****   /* If the blockSize is not a multiple of 4, compute any remaining output samples here.
 101:Source\StatisticsFunctions/arm_power_q31.c ****    ** No loop unrolling is used. */
 102:Source\StatisticsFunctions/arm_power_q31.c ****   blkCnt = blockSize % 0x4u;
 103:Source\StatisticsFunctions/arm_power_q31.c **** 
 104:Source\StatisticsFunctions/arm_power_q31.c **** #else
 105:Source\StatisticsFunctions/arm_power_q31.c ****   /* Run the below code for Cortex-M0 */
 106:Source\StatisticsFunctions/arm_power_q31.c **** 
 107:Source\StatisticsFunctions/arm_power_q31.c ****   /* Loop over blockSize number of values */
 108:Source\StatisticsFunctions/arm_power_q31.c ****   blkCnt = blockSize;
  47              		.loc 1 108 0
  48 0014 BB69     		ldr	r3, [r7, #24]
  49 0016 7B62     		str	r3, [r7, #36]
 109:Source\StatisticsFunctions/arm_power_q31.c **** 
 110:Source\StatisticsFunctions/arm_power_q31.c **** #endif /* #if defined (ARM_MATH_DSP) */
 111:Source\StatisticsFunctions/arm_power_q31.c **** 
 112:Source\StatisticsFunctions/arm_power_q31.c ****   while (blkCnt > 0u)
  50              		.loc 1 112 0
  51 0018 21E0     		b	.L2
  52              	.L3:
 113:Source\StatisticsFunctions/arm_power_q31.c ****   {
 114:Source\StatisticsFunctions/arm_power_q31.c ****     /* C = A[0] * A[0] + A[1] * A[1] + A[2] * A[2] + ... + A[blockSize-1] * A[blockSize-1] */
 115:Source\StatisticsFunctions/arm_power_q31.c ****     /* Compute Power and then store the result in a temporary variable, sum. */
 116:Source\StatisticsFunctions/arm_power_q31.c ****     in = *pSrc++;
  53              		.loc 1 116 0
  54 001a FB69     		ldr	r3, [r7, #28]
  55 001c 1A1D     		add	r2, r3, #4
ARM GAS  C:\Users\fneves\AppData\Local\Temp\ccpf1t8p.s 			page 4


  56 001e FA61     		str	r2, [r7, #28]
  57 0020 1B68     		ldr	r3, [r3]
  58 0022 3B62     		str	r3, [r7, #32]
 117:Source\StatisticsFunctions/arm_power_q31.c ****     sum += ((q63_t) in * in) >> 14u;
  59              		.loc 1 117 0
  60 0024 3B6A     		ldr	r3, [r7, #32]
  61 0026 BB60     		str	r3, [r7, #8]
  62 0028 DB17     		asr	r3, r3, #31
  63 002a FB60     		str	r3, [r7, #12]
  64 002c 3B6A     		ldr	r3, [r7, #32]
  65 002e 3B60     		str	r3, [r7]
  66 0030 DB17     		asr	r3, r3, #31
  67 0032 7B60     		str	r3, [r7, #4]
  68 0034 B868     		ldr	r0, [r7, #8]
  69 0036 F968     		ldr	r1, [r7, #12]
  70 0038 3A68     		ldr	r2, [r7]
  71 003a 7B68     		ldr	r3, [r7, #4]
  72 003c FFF7FEFF 		bl	__aeabi_lmul
  73 0040 021C     		mov	r2, r0
  74 0042 0B1C     		mov	r3, r1
  75 0044 9904     		lsl	r1, r3, #18
  76 0046 940B     		lsr	r4, r2, #14
  77 0048 0C43     		orr	r4, r1
  78 004a 9D13     		asr	r5, r3, #14
  79 004c BA6A     		ldr	r2, [r7, #40]
  80 004e FB6A     		ldr	r3, [r7, #44]
  81 0050 1219     		add	r2, r2, r4
  82 0052 6B41     		adc	r3, r3, r5
  83 0054 BA62     		str	r2, [r7, #40]
  84 0056 FB62     		str	r3, [r7, #44]
 118:Source\StatisticsFunctions/arm_power_q31.c **** 
 119:Source\StatisticsFunctions/arm_power_q31.c ****     /* Decrement the loop counter */
 120:Source\StatisticsFunctions/arm_power_q31.c ****     blkCnt--;
  85              		.loc 1 120 0
  86 0058 7B6A     		ldr	r3, [r7, #36]
  87 005a 013B     		sub	r3, r3, #1
  88 005c 7B62     		str	r3, [r7, #36]
  89              	.L2:
 112:Source\StatisticsFunctions/arm_power_q31.c ****   {
  90              		.loc 1 112 0
  91 005e 7B6A     		ldr	r3, [r7, #36]
  92 0060 002B     		cmp	r3, #0
  93 0062 DAD1     		bne	.L3
 121:Source\StatisticsFunctions/arm_power_q31.c ****   }
 122:Source\StatisticsFunctions/arm_power_q31.c **** 
 123:Source\StatisticsFunctions/arm_power_q31.c ****   /* Store the results in 16.48 format  */
 124:Source\StatisticsFunctions/arm_power_q31.c ****   *pResult = sum;
  94              		.loc 1 124 0
  95 0064 7A69     		ldr	r2, [r7, #20]
  96 0066 BB6A     		ldr	r3, [r7, #40]
  97 0068 FC6A     		ldr	r4, [r7, #44]
  98 006a 1360     		str	r3, [r2]
  99 006c 5460     		str	r4, [r2, #4]
 125:Source\StatisticsFunctions/arm_power_q31.c **** }
 100              		.loc 1 125 0
 101 006e BD46     		mov	sp, r7
 102 0070 0CB0     		add	sp, sp, #48
ARM GAS  C:\Users\fneves\AppData\Local\Temp\ccpf1t8p.s 			page 5


 103              		@ sp needed
 104 0072 B0BD     		pop	{r4, r5, r7, pc}
 105              		.cfi_endproc
 106              	.LFE82:
 107              		.size	arm_power_q31, .-arm_power_q31
 108              		.text
 109              	.Letext0:
 110              		.file 2 "c:\\program files (x86)\\cypress\\psoc creator\\4.0\\psoc creator\\import\\gnu\\arm\\4.9.
 111              		.file 3 "c:\\program files (x86)\\cypress\\psoc creator\\4.0\\psoc creator\\import\\gnu\\arm\\4.9.
 112              		.file 4 ".\\Include/arm_math.h"