ARM GAS  C:\Users\fneves\AppData\Local\Temp\ccTkQGkc.s 			page 1


   1              		.cpu cortex-m0plus
   2              		.fpu softvfp
   3              		.eabi_attribute 20, 1
   4              		.eabi_attribute 21, 1
   5              		.eabi_attribute 23, 3
   6              		.eabi_attribute 24, 1
   7              		.eabi_attribute 25, 1
   8              		.eabi_attribute 26, 1
   9              		.eabi_attribute 30, 6
  10              		.eabi_attribute 34, 0
  11              		.eabi_attribute 18, 4
  12              		.code	16
  13              		.file	"arm_cmplx_mult_real_f32.c"
  14              		.text
  15              	.Ltext0:
  16              		.cfi_sections	.debug_frame
  17              		.global	__aeabi_fmul
  18              		.section	.text.arm_cmplx_mult_real_f32,"ax",%progbits
  19              		.align	2
  20              		.global	arm_cmplx_mult_real_f32
  21              		.code	16
  22              		.thumb_func
  23              		.type	arm_cmplx_mult_real_f32, %function
  24              	arm_cmplx_mult_real_f32:
  25              	.LFB82:
  26              		.file 1 "Source\\ComplexMathFunctions\\arm_cmplx_mult_real_f32.c"
   1:Source\ComplexMathFunctions/arm_cmplx_mult_real_f32.c **** /* ----------------------------------------------------------------------
   2:Source\ComplexMathFunctions/arm_cmplx_mult_real_f32.c ****  * Project:      CMSIS DSP Library
   3:Source\ComplexMathFunctions/arm_cmplx_mult_real_f32.c ****  * Title:        arm_cmplx_mult_real_f32.c
   4:Source\ComplexMathFunctions/arm_cmplx_mult_real_f32.c ****  * Description:  Floating-point complex by real multiplication
   5:Source\ComplexMathFunctions/arm_cmplx_mult_real_f32.c ****  *
   6:Source\ComplexMathFunctions/arm_cmplx_mult_real_f32.c ****  * $Date:        27. January 2017
   7:Source\ComplexMathFunctions/arm_cmplx_mult_real_f32.c ****  * $Revision:    V.1.5.1
   8:Source\ComplexMathFunctions/arm_cmplx_mult_real_f32.c ****  *
   9:Source\ComplexMathFunctions/arm_cmplx_mult_real_f32.c ****  * Target Processor: Cortex-M cores
  10:Source\ComplexMathFunctions/arm_cmplx_mult_real_f32.c ****  * -------------------------------------------------------------------- */
  11:Source\ComplexMathFunctions/arm_cmplx_mult_real_f32.c **** /*
  12:Source\ComplexMathFunctions/arm_cmplx_mult_real_f32.c ****  * Copyright (C) 2010-2017 ARM Limited or its affiliates. All rights reserved.
  13:Source\ComplexMathFunctions/arm_cmplx_mult_real_f32.c ****  *
  14:Source\ComplexMathFunctions/arm_cmplx_mult_real_f32.c ****  * SPDX-License-Identifier: Apache-2.0
  15:Source\ComplexMathFunctions/arm_cmplx_mult_real_f32.c ****  *
  16:Source\ComplexMathFunctions/arm_cmplx_mult_real_f32.c ****  * Licensed under the Apache License, Version 2.0 (the License); you may
  17:Source\ComplexMathFunctions/arm_cmplx_mult_real_f32.c ****  * not use this file except in compliance with the License.
  18:Source\ComplexMathFunctions/arm_cmplx_mult_real_f32.c ****  * You may obtain a copy of the License at
  19:Source\ComplexMathFunctions/arm_cmplx_mult_real_f32.c ****  *
  20:Source\ComplexMathFunctions/arm_cmplx_mult_real_f32.c ****  * www.apache.org/licenses/LICENSE-2.0
  21:Source\ComplexMathFunctions/arm_cmplx_mult_real_f32.c ****  *
  22:Source\ComplexMathFunctions/arm_cmplx_mult_real_f32.c ****  * Unless required by applicable law or agreed to in writing, software
  23:Source\ComplexMathFunctions/arm_cmplx_mult_real_f32.c ****  * distributed under the License is distributed on an AS IS BASIS, WITHOUT
  24:Source\ComplexMathFunctions/arm_cmplx_mult_real_f32.c ****  * WARRANTIES OR CONDITIONS OF ANY KIND, either express or implied.
  25:Source\ComplexMathFunctions/arm_cmplx_mult_real_f32.c ****  * See the License for the specific language governing permissions and
  26:Source\ComplexMathFunctions/arm_cmplx_mult_real_f32.c ****  * limitations under the License.
  27:Source\ComplexMathFunctions/arm_cmplx_mult_real_f32.c ****  */
  28:Source\ComplexMathFunctions/arm_cmplx_mult_real_f32.c **** 
  29:Source\ComplexMathFunctions/arm_cmplx_mult_real_f32.c **** #include "arm_math.h"
  30:Source\ComplexMathFunctions/arm_cmplx_mult_real_f32.c **** 
  31:Source\ComplexMathFunctions/arm_cmplx_mult_real_f32.c **** /**
ARM GAS  C:\Users\fneves\AppData\Local\Temp\ccTkQGkc.s 			page 2


  32:Source\ComplexMathFunctions/arm_cmplx_mult_real_f32.c ****  * @ingroup groupCmplxMath
  33:Source\ComplexMathFunctions/arm_cmplx_mult_real_f32.c ****  */
  34:Source\ComplexMathFunctions/arm_cmplx_mult_real_f32.c **** 
  35:Source\ComplexMathFunctions/arm_cmplx_mult_real_f32.c **** /**
  36:Source\ComplexMathFunctions/arm_cmplx_mult_real_f32.c ****  * @defgroup CmplxByRealMult Complex-by-Real Multiplication
  37:Source\ComplexMathFunctions/arm_cmplx_mult_real_f32.c ****  *
  38:Source\ComplexMathFunctions/arm_cmplx_mult_real_f32.c ****  * Multiplies a complex vector by a real vector and generates a complex result.
  39:Source\ComplexMathFunctions/arm_cmplx_mult_real_f32.c ****  * The data in the complex arrays is stored in an interleaved fashion
  40:Source\ComplexMathFunctions/arm_cmplx_mult_real_f32.c ****  * (real, imag, real, imag, ...).
  41:Source\ComplexMathFunctions/arm_cmplx_mult_real_f32.c ****  * The parameter <code>numSamples</code> represents the number of complex
  42:Source\ComplexMathFunctions/arm_cmplx_mult_real_f32.c ****  * samples processed.  The complex arrays have a total of <code>2*numSamples</code>
  43:Source\ComplexMathFunctions/arm_cmplx_mult_real_f32.c ****  * real values while the real array has a total of <code>numSamples</code>
  44:Source\ComplexMathFunctions/arm_cmplx_mult_real_f32.c ****  * real values.
  45:Source\ComplexMathFunctions/arm_cmplx_mult_real_f32.c ****  *
  46:Source\ComplexMathFunctions/arm_cmplx_mult_real_f32.c ****  * The underlying algorithm is used:
  47:Source\ComplexMathFunctions/arm_cmplx_mult_real_f32.c ****  *
  48:Source\ComplexMathFunctions/arm_cmplx_mult_real_f32.c ****  * <pre>
  49:Source\ComplexMathFunctions/arm_cmplx_mult_real_f32.c ****  * for(n=0; n<numSamples; n++) {
  50:Source\ComplexMathFunctions/arm_cmplx_mult_real_f32.c ****  *     pCmplxDst[(2*n)+0] = pSrcCmplx[(2*n)+0] * pSrcReal[n];
  51:Source\ComplexMathFunctions/arm_cmplx_mult_real_f32.c ****  *     pCmplxDst[(2*n)+1] = pSrcCmplx[(2*n)+1] * pSrcReal[n];
  52:Source\ComplexMathFunctions/arm_cmplx_mult_real_f32.c ****  * }
  53:Source\ComplexMathFunctions/arm_cmplx_mult_real_f32.c ****  * </pre>
  54:Source\ComplexMathFunctions/arm_cmplx_mult_real_f32.c ****  *
  55:Source\ComplexMathFunctions/arm_cmplx_mult_real_f32.c ****  * There are separate functions for floating-point, Q15, and Q31 data types.
  56:Source\ComplexMathFunctions/arm_cmplx_mult_real_f32.c ****  */
  57:Source\ComplexMathFunctions/arm_cmplx_mult_real_f32.c **** 
  58:Source\ComplexMathFunctions/arm_cmplx_mult_real_f32.c **** /**
  59:Source\ComplexMathFunctions/arm_cmplx_mult_real_f32.c ****  * @addtogroup CmplxByRealMult
  60:Source\ComplexMathFunctions/arm_cmplx_mult_real_f32.c ****  * @{
  61:Source\ComplexMathFunctions/arm_cmplx_mult_real_f32.c ****  */
  62:Source\ComplexMathFunctions/arm_cmplx_mult_real_f32.c **** 
  63:Source\ComplexMathFunctions/arm_cmplx_mult_real_f32.c **** 
  64:Source\ComplexMathFunctions/arm_cmplx_mult_real_f32.c **** /**
  65:Source\ComplexMathFunctions/arm_cmplx_mult_real_f32.c ****  * @brief  Floating-point complex-by-real multiplication
  66:Source\ComplexMathFunctions/arm_cmplx_mult_real_f32.c ****  * @param[in]  *pSrcCmplx points to the complex input vector
  67:Source\ComplexMathFunctions/arm_cmplx_mult_real_f32.c ****  * @param[in]  *pSrcReal points to the real input vector
  68:Source\ComplexMathFunctions/arm_cmplx_mult_real_f32.c ****  * @param[out]  *pCmplxDst points to the complex output vector
  69:Source\ComplexMathFunctions/arm_cmplx_mult_real_f32.c ****  * @param[in]  numSamples number of samples in each vector
  70:Source\ComplexMathFunctions/arm_cmplx_mult_real_f32.c ****  * @return none.
  71:Source\ComplexMathFunctions/arm_cmplx_mult_real_f32.c ****  */
  72:Source\ComplexMathFunctions/arm_cmplx_mult_real_f32.c **** 
  73:Source\ComplexMathFunctions/arm_cmplx_mult_real_f32.c **** void arm_cmplx_mult_real_f32(
  74:Source\ComplexMathFunctions/arm_cmplx_mult_real_f32.c ****   float32_t * pSrcCmplx,
  75:Source\ComplexMathFunctions/arm_cmplx_mult_real_f32.c ****   float32_t * pSrcReal,
  76:Source\ComplexMathFunctions/arm_cmplx_mult_real_f32.c ****   float32_t * pCmplxDst,
  77:Source\ComplexMathFunctions/arm_cmplx_mult_real_f32.c ****   uint32_t numSamples)
  78:Source\ComplexMathFunctions/arm_cmplx_mult_real_f32.c **** {
  27              		.loc 1 78 0
  28              		.cfi_startproc
  29 0000 90B5     		push	{r4, r7, lr}
  30              		.cfi_def_cfa_offset 12
  31              		.cfi_offset 4, -12
  32              		.cfi_offset 7, -8
  33              		.cfi_offset 14, -4
  34 0002 87B0     		sub	sp, sp, #28
  35              		.cfi_def_cfa_offset 40
  36 0004 00AF     		add	r7, sp, #0
ARM GAS  C:\Users\fneves\AppData\Local\Temp\ccTkQGkc.s 			page 3


  37              		.cfi_def_cfa_register 7
  38 0006 F860     		str	r0, [r7, #12]
  39 0008 B960     		str	r1, [r7, #8]
  40 000a 7A60     		str	r2, [r7, #4]
  41 000c 3B60     		str	r3, [r7]
  79:Source\ComplexMathFunctions/arm_cmplx_mult_real_f32.c ****   float32_t in;                                  /* Temporary variable to store input value */
  80:Source\ComplexMathFunctions/arm_cmplx_mult_real_f32.c ****   uint32_t blkCnt;                               /* loop counters */
  81:Source\ComplexMathFunctions/arm_cmplx_mult_real_f32.c **** 
  82:Source\ComplexMathFunctions/arm_cmplx_mult_real_f32.c **** #if defined (ARM_MATH_DSP)
  83:Source\ComplexMathFunctions/arm_cmplx_mult_real_f32.c **** 
  84:Source\ComplexMathFunctions/arm_cmplx_mult_real_f32.c ****   /* Run the below code for Cortex-M4 and Cortex-M3 */
  85:Source\ComplexMathFunctions/arm_cmplx_mult_real_f32.c ****   float32_t inA1, inA2, inA3, inA4;              /* Temporary variables to hold input data */
  86:Source\ComplexMathFunctions/arm_cmplx_mult_real_f32.c ****   float32_t inA5, inA6, inA7, inA8;              /* Temporary variables to hold input data */
  87:Source\ComplexMathFunctions/arm_cmplx_mult_real_f32.c ****   float32_t inB1, inB2, inB3, inB4;              /* Temporary variables to hold input data */
  88:Source\ComplexMathFunctions/arm_cmplx_mult_real_f32.c ****   float32_t out1, out2, out3, out4;              /* Temporary variables to hold output data */
  89:Source\ComplexMathFunctions/arm_cmplx_mult_real_f32.c ****   float32_t out5, out6, out7, out8;              /* Temporary variables to hold output data */
  90:Source\ComplexMathFunctions/arm_cmplx_mult_real_f32.c **** 
  91:Source\ComplexMathFunctions/arm_cmplx_mult_real_f32.c ****   /* loop Unrolling */
  92:Source\ComplexMathFunctions/arm_cmplx_mult_real_f32.c ****   blkCnt = numSamples >> 2u;
  93:Source\ComplexMathFunctions/arm_cmplx_mult_real_f32.c **** 
  94:Source\ComplexMathFunctions/arm_cmplx_mult_real_f32.c ****   /* First part of the processing with loop unrolling.  Compute 4 outputs at a time.
  95:Source\ComplexMathFunctions/arm_cmplx_mult_real_f32.c ****    ** a second loop below computes the remaining 1 to 3 samples. */
  96:Source\ComplexMathFunctions/arm_cmplx_mult_real_f32.c ****   while (blkCnt > 0u)
  97:Source\ComplexMathFunctions/arm_cmplx_mult_real_f32.c ****   {
  98:Source\ComplexMathFunctions/arm_cmplx_mult_real_f32.c ****     /* C[2 * i] = A[2 * i] * B[i].            */
  99:Source\ComplexMathFunctions/arm_cmplx_mult_real_f32.c ****     /* C[2 * i + 1] = A[2 * i + 1] * B[i].        */
 100:Source\ComplexMathFunctions/arm_cmplx_mult_real_f32.c ****     /* read input from complex input buffer */
 101:Source\ComplexMathFunctions/arm_cmplx_mult_real_f32.c ****     inA1 = pSrcCmplx[0];
 102:Source\ComplexMathFunctions/arm_cmplx_mult_real_f32.c ****     inA2 = pSrcCmplx[1];
 103:Source\ComplexMathFunctions/arm_cmplx_mult_real_f32.c ****     /* read input from real input buffer */
 104:Source\ComplexMathFunctions/arm_cmplx_mult_real_f32.c ****     inB1 = pSrcReal[0];
 105:Source\ComplexMathFunctions/arm_cmplx_mult_real_f32.c **** 
 106:Source\ComplexMathFunctions/arm_cmplx_mult_real_f32.c ****     /* read input from complex input buffer */
 107:Source\ComplexMathFunctions/arm_cmplx_mult_real_f32.c ****     inA3 = pSrcCmplx[2];
 108:Source\ComplexMathFunctions/arm_cmplx_mult_real_f32.c **** 
 109:Source\ComplexMathFunctions/arm_cmplx_mult_real_f32.c ****     /* multiply complex buffer real input with real buffer input */
 110:Source\ComplexMathFunctions/arm_cmplx_mult_real_f32.c ****     out1 = inA1 * inB1;
 111:Source\ComplexMathFunctions/arm_cmplx_mult_real_f32.c **** 
 112:Source\ComplexMathFunctions/arm_cmplx_mult_real_f32.c ****     /* read input from complex input buffer */
 113:Source\ComplexMathFunctions/arm_cmplx_mult_real_f32.c ****     inA4 = pSrcCmplx[3];
 114:Source\ComplexMathFunctions/arm_cmplx_mult_real_f32.c **** 
 115:Source\ComplexMathFunctions/arm_cmplx_mult_real_f32.c ****     /* multiply complex buffer imaginary input with real buffer input */
 116:Source\ComplexMathFunctions/arm_cmplx_mult_real_f32.c ****     out2 = inA2 * inB1;
 117:Source\ComplexMathFunctions/arm_cmplx_mult_real_f32.c **** 
 118:Source\ComplexMathFunctions/arm_cmplx_mult_real_f32.c ****     /* read input from real input buffer */
 119:Source\ComplexMathFunctions/arm_cmplx_mult_real_f32.c ****     inB2 = pSrcReal[1];
 120:Source\ComplexMathFunctions/arm_cmplx_mult_real_f32.c ****     /* read input from complex input buffer */
 121:Source\ComplexMathFunctions/arm_cmplx_mult_real_f32.c ****     inA5 = pSrcCmplx[4];
 122:Source\ComplexMathFunctions/arm_cmplx_mult_real_f32.c **** 
 123:Source\ComplexMathFunctions/arm_cmplx_mult_real_f32.c ****     /* multiply complex buffer real input with real buffer input */
 124:Source\ComplexMathFunctions/arm_cmplx_mult_real_f32.c ****     out3 = inA3 * inB2;
 125:Source\ComplexMathFunctions/arm_cmplx_mult_real_f32.c **** 
 126:Source\ComplexMathFunctions/arm_cmplx_mult_real_f32.c ****     /* read input from complex input buffer */
 127:Source\ComplexMathFunctions/arm_cmplx_mult_real_f32.c ****     inA6 = pSrcCmplx[5];
 128:Source\ComplexMathFunctions/arm_cmplx_mult_real_f32.c ****     /* read input from real input buffer */
 129:Source\ComplexMathFunctions/arm_cmplx_mult_real_f32.c ****     inB3 = pSrcReal[2];
 130:Source\ComplexMathFunctions/arm_cmplx_mult_real_f32.c **** 
ARM GAS  C:\Users\fneves\AppData\Local\Temp\ccTkQGkc.s 			page 4


 131:Source\ComplexMathFunctions/arm_cmplx_mult_real_f32.c ****     /* multiply complex buffer imaginary input with real buffer input */
 132:Source\ComplexMathFunctions/arm_cmplx_mult_real_f32.c ****     out4 = inA4 * inB2;
 133:Source\ComplexMathFunctions/arm_cmplx_mult_real_f32.c **** 
 134:Source\ComplexMathFunctions/arm_cmplx_mult_real_f32.c ****     /* read input from complex input buffer */
 135:Source\ComplexMathFunctions/arm_cmplx_mult_real_f32.c ****     inA7 = pSrcCmplx[6];
 136:Source\ComplexMathFunctions/arm_cmplx_mult_real_f32.c **** 
 137:Source\ComplexMathFunctions/arm_cmplx_mult_real_f32.c ****     /* multiply complex buffer real input with real buffer input */
 138:Source\ComplexMathFunctions/arm_cmplx_mult_real_f32.c ****     out5 = inA5 * inB3;
 139:Source\ComplexMathFunctions/arm_cmplx_mult_real_f32.c **** 
 140:Source\ComplexMathFunctions/arm_cmplx_mult_real_f32.c ****     /* read input from complex input buffer */
 141:Source\ComplexMathFunctions/arm_cmplx_mult_real_f32.c ****     inA8 = pSrcCmplx[7];
 142:Source\ComplexMathFunctions/arm_cmplx_mult_real_f32.c **** 
 143:Source\ComplexMathFunctions/arm_cmplx_mult_real_f32.c ****     /* multiply complex buffer imaginary input with real buffer input */
 144:Source\ComplexMathFunctions/arm_cmplx_mult_real_f32.c ****     out6 = inA6 * inB3;
 145:Source\ComplexMathFunctions/arm_cmplx_mult_real_f32.c **** 
 146:Source\ComplexMathFunctions/arm_cmplx_mult_real_f32.c ****     /* read input from real input buffer */
 147:Source\ComplexMathFunctions/arm_cmplx_mult_real_f32.c ****     inB4 = pSrcReal[3];
 148:Source\ComplexMathFunctions/arm_cmplx_mult_real_f32.c **** 
 149:Source\ComplexMathFunctions/arm_cmplx_mult_real_f32.c ****     /* store result to destination bufer */
 150:Source\ComplexMathFunctions/arm_cmplx_mult_real_f32.c ****     pCmplxDst[0] = out1;
 151:Source\ComplexMathFunctions/arm_cmplx_mult_real_f32.c **** 
 152:Source\ComplexMathFunctions/arm_cmplx_mult_real_f32.c ****     /* multiply complex buffer real input with real buffer input */
 153:Source\ComplexMathFunctions/arm_cmplx_mult_real_f32.c ****     out7 = inA7 * inB4;
 154:Source\ComplexMathFunctions/arm_cmplx_mult_real_f32.c **** 
 155:Source\ComplexMathFunctions/arm_cmplx_mult_real_f32.c ****     /* store result to destination bufer */
 156:Source\ComplexMathFunctions/arm_cmplx_mult_real_f32.c ****     pCmplxDst[1] = out2;
 157:Source\ComplexMathFunctions/arm_cmplx_mult_real_f32.c **** 
 158:Source\ComplexMathFunctions/arm_cmplx_mult_real_f32.c ****     /* multiply complex buffer imaginary input with real buffer input */
 159:Source\ComplexMathFunctions/arm_cmplx_mult_real_f32.c ****     out8 = inA8 * inB4;
 160:Source\ComplexMathFunctions/arm_cmplx_mult_real_f32.c **** 
 161:Source\ComplexMathFunctions/arm_cmplx_mult_real_f32.c ****     /* store result to destination bufer */
 162:Source\ComplexMathFunctions/arm_cmplx_mult_real_f32.c ****     pCmplxDst[2] = out3;
 163:Source\ComplexMathFunctions/arm_cmplx_mult_real_f32.c ****     pCmplxDst[3] = out4;
 164:Source\ComplexMathFunctions/arm_cmplx_mult_real_f32.c ****     pCmplxDst[4] = out5;
 165:Source\ComplexMathFunctions/arm_cmplx_mult_real_f32.c **** 
 166:Source\ComplexMathFunctions/arm_cmplx_mult_real_f32.c ****     /* incremnet complex input buffer by 8 to process next samples */
 167:Source\ComplexMathFunctions/arm_cmplx_mult_real_f32.c ****     pSrcCmplx += 8u;
 168:Source\ComplexMathFunctions/arm_cmplx_mult_real_f32.c **** 
 169:Source\ComplexMathFunctions/arm_cmplx_mult_real_f32.c ****     /* store result to destination bufer */
 170:Source\ComplexMathFunctions/arm_cmplx_mult_real_f32.c ****     pCmplxDst[5] = out6;
 171:Source\ComplexMathFunctions/arm_cmplx_mult_real_f32.c **** 
 172:Source\ComplexMathFunctions/arm_cmplx_mult_real_f32.c ****     /* increment real input buffer by 4 to process next samples */
 173:Source\ComplexMathFunctions/arm_cmplx_mult_real_f32.c ****     pSrcReal += 4u;
 174:Source\ComplexMathFunctions/arm_cmplx_mult_real_f32.c **** 
 175:Source\ComplexMathFunctions/arm_cmplx_mult_real_f32.c ****     /* store result to destination bufer */
 176:Source\ComplexMathFunctions/arm_cmplx_mult_real_f32.c ****     pCmplxDst[6] = out7;
 177:Source\ComplexMathFunctions/arm_cmplx_mult_real_f32.c ****     pCmplxDst[7] = out8;
 178:Source\ComplexMathFunctions/arm_cmplx_mult_real_f32.c **** 
 179:Source\ComplexMathFunctions/arm_cmplx_mult_real_f32.c ****     /* increment destination buffer by 8 to process next sampels */
 180:Source\ComplexMathFunctions/arm_cmplx_mult_real_f32.c ****     pCmplxDst += 8u;
 181:Source\ComplexMathFunctions/arm_cmplx_mult_real_f32.c **** 
 182:Source\ComplexMathFunctions/arm_cmplx_mult_real_f32.c ****     /* Decrement the numSamples loop counter */
 183:Source\ComplexMathFunctions/arm_cmplx_mult_real_f32.c ****     blkCnt--;
 184:Source\ComplexMathFunctions/arm_cmplx_mult_real_f32.c ****   }
 185:Source\ComplexMathFunctions/arm_cmplx_mult_real_f32.c **** 
 186:Source\ComplexMathFunctions/arm_cmplx_mult_real_f32.c ****   /* If the numSamples is not a multiple of 4, compute any remaining output samples here.
 187:Source\ComplexMathFunctions/arm_cmplx_mult_real_f32.c ****    ** No loop unrolling is used. */
ARM GAS  C:\Users\fneves\AppData\Local\Temp\ccTkQGkc.s 			page 5


 188:Source\ComplexMathFunctions/arm_cmplx_mult_real_f32.c ****   blkCnt = numSamples % 0x4u;
 189:Source\ComplexMathFunctions/arm_cmplx_mult_real_f32.c **** 
 190:Source\ComplexMathFunctions/arm_cmplx_mult_real_f32.c **** #else
 191:Source\ComplexMathFunctions/arm_cmplx_mult_real_f32.c **** 
 192:Source\ComplexMathFunctions/arm_cmplx_mult_real_f32.c ****   /* Run the below code for Cortex-M0 */
 193:Source\ComplexMathFunctions/arm_cmplx_mult_real_f32.c ****   blkCnt = numSamples;
  42              		.loc 1 193 0
  43 000e 3B68     		ldr	r3, [r7]
  44 0010 7B61     		str	r3, [r7, #20]
 194:Source\ComplexMathFunctions/arm_cmplx_mult_real_f32.c **** 
 195:Source\ComplexMathFunctions/arm_cmplx_mult_real_f32.c **** #endif /* #if defined (ARM_MATH_DSP) */
 196:Source\ComplexMathFunctions/arm_cmplx_mult_real_f32.c **** 
 197:Source\ComplexMathFunctions/arm_cmplx_mult_real_f32.c ****   while (blkCnt > 0u)
  45              		.loc 1 197 0
  46 0012 21E0     		b	.L2
  47              	.L3:
 198:Source\ComplexMathFunctions/arm_cmplx_mult_real_f32.c ****   {
 199:Source\ComplexMathFunctions/arm_cmplx_mult_real_f32.c ****     /* C[2 * i] = A[2 * i] * B[i].            */
 200:Source\ComplexMathFunctions/arm_cmplx_mult_real_f32.c ****     /* C[2 * i + 1] = A[2 * i + 1] * B[i].        */
 201:Source\ComplexMathFunctions/arm_cmplx_mult_real_f32.c ****     in = *pSrcReal++;
  48              		.loc 1 201 0
  49 0014 BB68     		ldr	r3, [r7, #8]
  50 0016 1A1D     		add	r2, r3, #4
  51 0018 BA60     		str	r2, [r7, #8]
  52 001a 1B68     		ldr	r3, [r3]
  53 001c 3B61     		str	r3, [r7, #16]
 202:Source\ComplexMathFunctions/arm_cmplx_mult_real_f32.c ****     /* store the result in the destination buffer. */
 203:Source\ComplexMathFunctions/arm_cmplx_mult_real_f32.c ****     *pCmplxDst++ = (*pSrcCmplx++) * (in);
  54              		.loc 1 203 0
  55 001e 7C68     		ldr	r4, [r7, #4]
  56 0020 231D     		add	r3, r4, #4
  57 0022 7B60     		str	r3, [r7, #4]
  58 0024 FB68     		ldr	r3, [r7, #12]
  59 0026 1A1D     		add	r2, r3, #4
  60 0028 FA60     		str	r2, [r7, #12]
  61 002a 1B68     		ldr	r3, [r3]
  62 002c 181C     		add	r0, r3, #0
  63 002e 3969     		ldr	r1, [r7, #16]
  64 0030 FFF7FEFF 		bl	__aeabi_fmul
  65 0034 031C     		add	r3, r0, #0
  66 0036 2360     		str	r3, [r4]
 204:Source\ComplexMathFunctions/arm_cmplx_mult_real_f32.c ****     *pCmplxDst++ = (*pSrcCmplx++) * (in);
  67              		.loc 1 204 0
  68 0038 7C68     		ldr	r4, [r7, #4]
  69 003a 231D     		add	r3, r4, #4
  70 003c 7B60     		str	r3, [r7, #4]
  71 003e FB68     		ldr	r3, [r7, #12]
  72 0040 1A1D     		add	r2, r3, #4
  73 0042 FA60     		str	r2, [r7, #12]
  74 0044 1B68     		ldr	r3, [r3]
  75 0046 181C     		add	r0, r3, #0
  76 0048 3969     		ldr	r1, [r7, #16]
  77 004a FFF7FEFF 		bl	__aeabi_fmul
  78 004e 031C     		add	r3, r0, #0
  79 0050 2360     		str	r3, [r4]
 205:Source\ComplexMathFunctions/arm_cmplx_mult_real_f32.c **** 
 206:Source\ComplexMathFunctions/arm_cmplx_mult_real_f32.c ****     /* Decrement the numSamples loop counter */
ARM GAS  C:\Users\fneves\AppData\Local\Temp\ccTkQGkc.s 			page 6


 207:Source\ComplexMathFunctions/arm_cmplx_mult_real_f32.c ****     blkCnt--;
  80              		.loc 1 207 0
  81 0052 7B69     		ldr	r3, [r7, #20]
  82 0054 013B     		sub	r3, r3, #1
  83 0056 7B61     		str	r3, [r7, #20]
  84              	.L2:
 197:Source\ComplexMathFunctions/arm_cmplx_mult_real_f32.c ****   {
  85              		.loc 1 197 0
  86 0058 7B69     		ldr	r3, [r7, #20]
  87 005a 002B     		cmp	r3, #0
  88 005c DAD1     		bne	.L3
 208:Source\ComplexMathFunctions/arm_cmplx_mult_real_f32.c ****   }
 209:Source\ComplexMathFunctions/arm_cmplx_mult_real_f32.c **** }
  89              		.loc 1 209 0
  90 005e BD46     		mov	sp, r7
  91 0060 07B0     		add	sp, sp, #28
  92              		@ sp needed
  93 0062 90BD     		pop	{r4, r7, pc}
  94              		.cfi_endproc
  95              	.LFE82:
  96              		.size	arm_cmplx_mult_real_f32, .-arm_cmplx_mult_real_f32
  97              		.text
  98              	.Letext0:
  99              		.file 2 "c:\\program files (x86)\\cypress\\psoc creator\\4.0\\psoc creator\\import\\gnu\\arm\\4.9.
 100              		.file 3 "c:\\program files (x86)\\cypress\\psoc creator\\4.0\\psoc creator\\import\\gnu\\arm\\4.9.
 101              		.file 4 ".\\Include/arm_math.h"