ARM GAS  C:\Users\fneves\AppData\Local\Temp\ccD5EsxG.s 			page 1


   1              		.cpu cortex-m0plus
   2              		.fpu softvfp
   3              		.eabi_attribute 20, 1
   4              		.eabi_attribute 21, 1
   5              		.eabi_attribute 23, 3
   6              		.eabi_attribute 24, 1
   7              		.eabi_attribute 25, 1
   8              		.eabi_attribute 26, 1
   9              		.eabi_attribute 30, 6
  10              		.eabi_attribute 34, 0
  11              		.eabi_attribute 18, 4
  12              		.code	16
  13              		.file	"arm_fir_decimate_init_f32.c"
  14              		.text
  15              	.Ltext0:
  16              		.cfi_sections	.debug_frame
  17              		.global	__aeabi_uidivmod
  18              		.section	.text.arm_fir_decimate_init_f32,"ax",%progbits
  19              		.align	2
  20              		.global	arm_fir_decimate_init_f32
  21              		.code	16
  22              		.thumb_func
  23              		.type	arm_fir_decimate_init_f32, %function
  24              	arm_fir_decimate_init_f32:
  25              	.LFB82:
  26              		.file 1 "Source\\FilteringFunctions\\arm_fir_decimate_init_f32.c"
   1:Source\FilteringFunctions/arm_fir_decimate_init_f32.c **** /* ----------------------------------------------------------------------
   2:Source\FilteringFunctions/arm_fir_decimate_init_f32.c ****  * Project:      CMSIS DSP Library
   3:Source\FilteringFunctions/arm_fir_decimate_init_f32.c ****  * Title:        arm_fir_decimate_init_f32.c
   4:Source\FilteringFunctions/arm_fir_decimate_init_f32.c ****  * Description:  Floating-point FIR Decimator initialization function
   5:Source\FilteringFunctions/arm_fir_decimate_init_f32.c ****  *
   6:Source\FilteringFunctions/arm_fir_decimate_init_f32.c ****  * $Date:        27. January 2017
   7:Source\FilteringFunctions/arm_fir_decimate_init_f32.c ****  * $Revision:    V.1.5.1
   8:Source\FilteringFunctions/arm_fir_decimate_init_f32.c ****  *
   9:Source\FilteringFunctions/arm_fir_decimate_init_f32.c ****  * Target Processor: Cortex-M cores
  10:Source\FilteringFunctions/arm_fir_decimate_init_f32.c ****  * -------------------------------------------------------------------- */
  11:Source\FilteringFunctions/arm_fir_decimate_init_f32.c **** /*
  12:Source\FilteringFunctions/arm_fir_decimate_init_f32.c ****  * Copyright (C) 2010-2017 ARM Limited or its affiliates. All rights reserved.
  13:Source\FilteringFunctions/arm_fir_decimate_init_f32.c ****  *
  14:Source\FilteringFunctions/arm_fir_decimate_init_f32.c ****  * SPDX-License-Identifier: Apache-2.0
  15:Source\FilteringFunctions/arm_fir_decimate_init_f32.c ****  *
  16:Source\FilteringFunctions/arm_fir_decimate_init_f32.c ****  * Licensed under the Apache License, Version 2.0 (the License); you may
  17:Source\FilteringFunctions/arm_fir_decimate_init_f32.c ****  * not use this file except in compliance with the License.
  18:Source\FilteringFunctions/arm_fir_decimate_init_f32.c ****  * You may obtain a copy of the License at
  19:Source\FilteringFunctions/arm_fir_decimate_init_f32.c ****  *
  20:Source\FilteringFunctions/arm_fir_decimate_init_f32.c ****  * www.apache.org/licenses/LICENSE-2.0
  21:Source\FilteringFunctions/arm_fir_decimate_init_f32.c ****  *
  22:Source\FilteringFunctions/arm_fir_decimate_init_f32.c ****  * Unless required by applicable law or agreed to in writing, software
  23:Source\FilteringFunctions/arm_fir_decimate_init_f32.c ****  * distributed under the License is distributed on an AS IS BASIS, WITHOUT
  24:Source\FilteringFunctions/arm_fir_decimate_init_f32.c ****  * WARRANTIES OR CONDITIONS OF ANY KIND, either express or implied.
  25:Source\FilteringFunctions/arm_fir_decimate_init_f32.c ****  * See the License for the specific language governing permissions and
  26:Source\FilteringFunctions/arm_fir_decimate_init_f32.c ****  * limitations under the License.
  27:Source\FilteringFunctions/arm_fir_decimate_init_f32.c ****  */
  28:Source\FilteringFunctions/arm_fir_decimate_init_f32.c **** 
  29:Source\FilteringFunctions/arm_fir_decimate_init_f32.c **** #include "arm_math.h"
  30:Source\FilteringFunctions/arm_fir_decimate_init_f32.c **** 
  31:Source\FilteringFunctions/arm_fir_decimate_init_f32.c **** /**
ARM GAS  C:\Users\fneves\AppData\Local\Temp\ccD5EsxG.s 			page 2


  32:Source\FilteringFunctions/arm_fir_decimate_init_f32.c ****  * @ingroup groupFilters
  33:Source\FilteringFunctions/arm_fir_decimate_init_f32.c ****  */
  34:Source\FilteringFunctions/arm_fir_decimate_init_f32.c **** 
  35:Source\FilteringFunctions/arm_fir_decimate_init_f32.c **** /**
  36:Source\FilteringFunctions/arm_fir_decimate_init_f32.c ****  * @addtogroup FIR_decimate
  37:Source\FilteringFunctions/arm_fir_decimate_init_f32.c ****  * @{
  38:Source\FilteringFunctions/arm_fir_decimate_init_f32.c ****  */
  39:Source\FilteringFunctions/arm_fir_decimate_init_f32.c **** 
  40:Source\FilteringFunctions/arm_fir_decimate_init_f32.c **** /**
  41:Source\FilteringFunctions/arm_fir_decimate_init_f32.c ****  * @brief  Initialization function for the floating-point FIR decimator.
  42:Source\FilteringFunctions/arm_fir_decimate_init_f32.c ****  * @param[in,out] *S points to an instance of the floating-point FIR decimator structure.
  43:Source\FilteringFunctions/arm_fir_decimate_init_f32.c ****  * @param[in] numTaps  number of coefficients in the filter.
  44:Source\FilteringFunctions/arm_fir_decimate_init_f32.c ****  * @param[in] M  decimation factor.
  45:Source\FilteringFunctions/arm_fir_decimate_init_f32.c ****  * @param[in] *pCoeffs points to the filter coefficients.
  46:Source\FilteringFunctions/arm_fir_decimate_init_f32.c ****  * @param[in] *pState points to the state buffer.
  47:Source\FilteringFunctions/arm_fir_decimate_init_f32.c ****  * @param[in] blockSize number of input samples to process per call.
  48:Source\FilteringFunctions/arm_fir_decimate_init_f32.c ****  * @return    The function returns ARM_MATH_SUCCESS if initialization was successful or ARM_MATH_LE
  49:Source\FilteringFunctions/arm_fir_decimate_init_f32.c ****  * <code>blockSize</code> is not a multiple of <code>M</code>.
  50:Source\FilteringFunctions/arm_fir_decimate_init_f32.c ****  *
  51:Source\FilteringFunctions/arm_fir_decimate_init_f32.c ****  * <b>Description:</b>
  52:Source\FilteringFunctions/arm_fir_decimate_init_f32.c ****  * \par
  53:Source\FilteringFunctions/arm_fir_decimate_init_f32.c ****  * <code>pCoeffs</code> points to the array of filter coefficients stored in time reversed order:
  54:Source\FilteringFunctions/arm_fir_decimate_init_f32.c ****  * <pre>
  55:Source\FilteringFunctions/arm_fir_decimate_init_f32.c ****  *    {b[numTaps-1], b[numTaps-2], b[N-2], ..., b[1], b[0]}
  56:Source\FilteringFunctions/arm_fir_decimate_init_f32.c ****  * </pre>
  57:Source\FilteringFunctions/arm_fir_decimate_init_f32.c ****  * \par
  58:Source\FilteringFunctions/arm_fir_decimate_init_f32.c ****  * <code>pState</code> points to the array of state variables.
  59:Source\FilteringFunctions/arm_fir_decimate_init_f32.c ****  * <code>pState</code> is of length <code>numTaps+blockSize-1</code> words where <code>blockSize</c
  60:Source\FilteringFunctions/arm_fir_decimate_init_f32.c ****  * <code>M</code> is the decimation factor.
  61:Source\FilteringFunctions/arm_fir_decimate_init_f32.c ****  */
  62:Source\FilteringFunctions/arm_fir_decimate_init_f32.c **** 
  63:Source\FilteringFunctions/arm_fir_decimate_init_f32.c **** arm_status arm_fir_decimate_init_f32(
  64:Source\FilteringFunctions/arm_fir_decimate_init_f32.c ****   arm_fir_decimate_instance_f32 * S,
  65:Source\FilteringFunctions/arm_fir_decimate_init_f32.c ****   uint16_t numTaps,
  66:Source\FilteringFunctions/arm_fir_decimate_init_f32.c ****   uint8_t M,
  67:Source\FilteringFunctions/arm_fir_decimate_init_f32.c ****   float32_t * pCoeffs,
  68:Source\FilteringFunctions/arm_fir_decimate_init_f32.c ****   float32_t * pState,
  69:Source\FilteringFunctions/arm_fir_decimate_init_f32.c ****   uint32_t blockSize)
  70:Source\FilteringFunctions/arm_fir_decimate_init_f32.c **** {
  27              		.loc 1 70 0
  28              		.cfi_startproc
  29 0000 80B5     		push	{r7, lr}
  30              		.cfi_def_cfa_offset 8
  31              		.cfi_offset 7, -8
  32              		.cfi_offset 14, -4
  33 0002 86B0     		sub	sp, sp, #24
  34              		.cfi_def_cfa_offset 32
  35 0004 00AF     		add	r7, sp, #0
  36              		.cfi_def_cfa_register 7
  37 0006 F860     		str	r0, [r7, #12]
  38 0008 081C     		mov	r0, r1
  39 000a 111C     		mov	r1, r2
  40 000c 7B60     		str	r3, [r7, #4]
  41 000e 0A23     		mov	r3, #10
  42 0010 FB18     		add	r3, r7, r3
  43 0012 021C     		add	r2, r0, #0
  44 0014 1A80     		strh	r2, [r3]
ARM GAS  C:\Users\fneves\AppData\Local\Temp\ccD5EsxG.s 			page 3


  45 0016 0923     		mov	r3, #9
  46 0018 FB18     		add	r3, r7, r3
  47 001a 0A1C     		add	r2, r1, #0
  48 001c 1A70     		strb	r2, [r3]
  71:Source\FilteringFunctions/arm_fir_decimate_init_f32.c ****   arm_status status;
  72:Source\FilteringFunctions/arm_fir_decimate_init_f32.c **** 
  73:Source\FilteringFunctions/arm_fir_decimate_init_f32.c ****   /* The size of the input block must be a multiple of the decimation factor */
  74:Source\FilteringFunctions/arm_fir_decimate_init_f32.c ****   if ((blockSize % M) != 0u)
  49              		.loc 1 74 0
  50 001e 0923     		mov	r3, #9
  51 0020 FB18     		add	r3, r7, r3
  52 0022 1B78     		ldrb	r3, [r3]
  53 0024 7A6A     		ldr	r2, [r7, #36]
  54 0026 101C     		mov	r0, r2
  55 0028 191C     		mov	r1, r3
  56 002a FFF7FEFF 		bl	__aeabi_uidivmod
  57 002e 0B1E     		sub	r3, r1, #0
  58 0030 04D0     		beq	.L2
  75:Source\FilteringFunctions/arm_fir_decimate_init_f32.c ****   {
  76:Source\FilteringFunctions/arm_fir_decimate_init_f32.c ****     /* Set status as ARM_MATH_LENGTH_ERROR */
  77:Source\FilteringFunctions/arm_fir_decimate_init_f32.c ****     status = ARM_MATH_LENGTH_ERROR;
  59              		.loc 1 77 0
  60 0032 1723     		mov	r3, #23
  61 0034 FB18     		add	r3, r7, r3
  62 0036 FE22     		mov	r2, #254
  63 0038 1A70     		strb	r2, [r3]
  64 003a 22E0     		b	.L3
  65              	.L2:
  78:Source\FilteringFunctions/arm_fir_decimate_init_f32.c ****   }
  79:Source\FilteringFunctions/arm_fir_decimate_init_f32.c ****   else
  80:Source\FilteringFunctions/arm_fir_decimate_init_f32.c ****   {
  81:Source\FilteringFunctions/arm_fir_decimate_init_f32.c ****     /* Assign filter taps */
  82:Source\FilteringFunctions/arm_fir_decimate_init_f32.c ****     S->numTaps = numTaps;
  66              		.loc 1 82 0
  67 003c FB68     		ldr	r3, [r7, #12]
  68 003e 0A22     		mov	r2, #10
  69 0040 BA18     		add	r2, r7, r2
  70 0042 1288     		ldrh	r2, [r2]
  71 0044 5A80     		strh	r2, [r3, #2]
  83:Source\FilteringFunctions/arm_fir_decimate_init_f32.c **** 
  84:Source\FilteringFunctions/arm_fir_decimate_init_f32.c ****     /* Assign coefficient pointer */
  85:Source\FilteringFunctions/arm_fir_decimate_init_f32.c ****     S->pCoeffs = pCoeffs;
  72              		.loc 1 85 0
  73 0046 FB68     		ldr	r3, [r7, #12]
  74 0048 7A68     		ldr	r2, [r7, #4]
  75 004a 5A60     		str	r2, [r3, #4]
  86:Source\FilteringFunctions/arm_fir_decimate_init_f32.c **** 
  87:Source\FilteringFunctions/arm_fir_decimate_init_f32.c ****     /* Clear state buffer and size is always (blockSize + numTaps - 1) */
  88:Source\FilteringFunctions/arm_fir_decimate_init_f32.c ****     memset(pState, 0, (numTaps + (blockSize - 1u)) * sizeof(float32_t));
  76              		.loc 1 88 0
  77 004c 0A23     		mov	r3, #10
  78 004e FB18     		add	r3, r7, r3
  79 0050 1A88     		ldrh	r2, [r3]
  80 0052 7B6A     		ldr	r3, [r7, #36]
  81 0054 D318     		add	r3, r2, r3
  82 0056 0F4A     		ldr	r2, .L5
  83 0058 9446     		mov	ip, r2
ARM GAS  C:\Users\fneves\AppData\Local\Temp\ccD5EsxG.s 			page 4


  84 005a 6344     		add	r3, r3, ip
  85 005c 9B00     		lsl	r3, r3, #2
  86 005e 3A6A     		ldr	r2, [r7, #32]
  87 0060 101C     		mov	r0, r2
  88 0062 0021     		mov	r1, #0
  89 0064 1A1C     		mov	r2, r3
  90 0066 FFF7FEFF 		bl	memset
  89:Source\FilteringFunctions/arm_fir_decimate_init_f32.c **** 
  90:Source\FilteringFunctions/arm_fir_decimate_init_f32.c ****     /* Assign state pointer */
  91:Source\FilteringFunctions/arm_fir_decimate_init_f32.c ****     S->pState = pState;
  91              		.loc 1 91 0
  92 006a FB68     		ldr	r3, [r7, #12]
  93 006c 3A6A     		ldr	r2, [r7, #32]
  94 006e 9A60     		str	r2, [r3, #8]
  92:Source\FilteringFunctions/arm_fir_decimate_init_f32.c **** 
  93:Source\FilteringFunctions/arm_fir_decimate_init_f32.c ****     /* Assign Decimation Factor */
  94:Source\FilteringFunctions/arm_fir_decimate_init_f32.c ****     S->M = M;
  95              		.loc 1 94 0
  96 0070 FB68     		ldr	r3, [r7, #12]
  97 0072 0922     		mov	r2, #9
  98 0074 BA18     		add	r2, r7, r2
  99 0076 1278     		ldrb	r2, [r2]
 100 0078 1A70     		strb	r2, [r3]
  95:Source\FilteringFunctions/arm_fir_decimate_init_f32.c **** 
  96:Source\FilteringFunctions/arm_fir_decimate_init_f32.c ****     status = ARM_MATH_SUCCESS;
 101              		.loc 1 96 0
 102 007a 1723     		mov	r3, #23
 103 007c FB18     		add	r3, r7, r3
 104 007e 0022     		mov	r2, #0
 105 0080 1A70     		strb	r2, [r3]
 106              	.L3:
  97:Source\FilteringFunctions/arm_fir_decimate_init_f32.c ****   }
  98:Source\FilteringFunctions/arm_fir_decimate_init_f32.c **** 
  99:Source\FilteringFunctions/arm_fir_decimate_init_f32.c ****   return (status);
 107              		.loc 1 99 0
 108 0082 1723     		mov	r3, #23
 109 0084 FB18     		add	r3, r7, r3
 110 0086 1B78     		ldrb	r3, [r3]
 111 0088 5BB2     		sxtb	r3, r3
 100:Source\FilteringFunctions/arm_fir_decimate_init_f32.c **** 
 101:Source\FilteringFunctions/arm_fir_decimate_init_f32.c **** }
 112              		.loc 1 101 0
 113 008a 181C     		mov	r0, r3
 114 008c BD46     		mov	sp, r7
 115 008e 06B0     		add	sp, sp, #24
 116              		@ sp needed
 117 0090 80BD     		pop	{r7, pc}
 118              	.L6:
 119 0092 C046     		.align	2
 120              	.L5:
 121 0094 FFFFFF3F 		.word	1073741823
 122              		.cfi_endproc
 123              	.LFE82:
 124              		.size	arm_fir_decimate_init_f32, .-arm_fir_decimate_init_f32
 125              		.text
 126              	.Letext0:
 127              		.file 2 "c:\\program files (x86)\\cypress\\psoc creator\\4.0\\psoc creator\\import\\gnu\\arm\\4.9.
ARM GAS  C:\Users\fneves\AppData\Local\Temp\ccD5EsxG.s 			page 5


 128              		.file 3 "c:\\program files (x86)\\cypress\\psoc creator\\4.0\\psoc creator\\import\\gnu\\arm\\4.9.
 129              		.file 4 ".\\Include/arm_math.h"