ARM GAS  C:\Users\fneves\AppData\Local\Temp\ccyQHZqi.s 			page 1


   1              		.cpu cortex-m0plus
   2              		.fpu softvfp
   3              		.eabi_attribute 20, 1
   4              		.eabi_attribute 21, 1
   5              		.eabi_attribute 23, 3
   6              		.eabi_attribute 24, 1
   7              		.eabi_attribute 25, 1
   8              		.eabi_attribute 26, 1
   9              		.eabi_attribute 30, 6
  10              		.eabi_attribute 34, 0
  11              		.eabi_attribute 18, 4
  12              		.code	16
  13              		.file	"arm_cfft_radix4_f32.c"
  14              		.text
  15              	.Ltext0:
  16              		.cfi_sections	.debug_frame
  17              		.section	.text.arm_cfft_radix4_f32,"ax",%progbits
  18              		.align	2
  19              		.global	arm_cfft_radix4_f32
  20              		.code	16
  21              		.thumb_func
  22              		.type	arm_cfft_radix4_f32, %function
  23              	arm_cfft_radix4_f32:
  24              	.LFB82:
  25              		.file 1 "Source\\TransformFunctions\\arm_cfft_radix4_f32.c"
   1:Source\TransformFunctions/arm_cfft_radix4_f32.c **** /* ----------------------------------------------------------------------
   2:Source\TransformFunctions/arm_cfft_radix4_f32.c ****  * Project:      CMSIS DSP Library
   3:Source\TransformFunctions/arm_cfft_radix4_f32.c ****  * Title:        arm_cfft_radix4_f32.c
   4:Source\TransformFunctions/arm_cfft_radix4_f32.c ****  * Description:  Radix-4 Decimation in Frequency CFFT & CIFFT Floating point processing function
   5:Source\TransformFunctions/arm_cfft_radix4_f32.c ****  *
   6:Source\TransformFunctions/arm_cfft_radix4_f32.c ****  * $Date:        27. January 2017
   7:Source\TransformFunctions/arm_cfft_radix4_f32.c ****  * $Revision:    V.1.5.1
   8:Source\TransformFunctions/arm_cfft_radix4_f32.c ****  *
   9:Source\TransformFunctions/arm_cfft_radix4_f32.c ****  * Target Processor: Cortex-M cores
  10:Source\TransformFunctions/arm_cfft_radix4_f32.c ****  * -------------------------------------------------------------------- */
  11:Source\TransformFunctions/arm_cfft_radix4_f32.c **** /*
  12:Source\TransformFunctions/arm_cfft_radix4_f32.c ****  * Copyright (C) 2010-2017 ARM Limited or its affiliates. All rights reserved.
  13:Source\TransformFunctions/arm_cfft_radix4_f32.c ****  *
  14:Source\TransformFunctions/arm_cfft_radix4_f32.c ****  * SPDX-License-Identifier: Apache-2.0
  15:Source\TransformFunctions/arm_cfft_radix4_f32.c ****  *
  16:Source\TransformFunctions/arm_cfft_radix4_f32.c ****  * Licensed under the Apache License, Version 2.0 (the License); you may
  17:Source\TransformFunctions/arm_cfft_radix4_f32.c ****  * not use this file except in compliance with the License.
  18:Source\TransformFunctions/arm_cfft_radix4_f32.c ****  * You may obtain a copy of the License at
  19:Source\TransformFunctions/arm_cfft_radix4_f32.c ****  *
  20:Source\TransformFunctions/arm_cfft_radix4_f32.c ****  * www.apache.org/licenses/LICENSE-2.0
  21:Source\TransformFunctions/arm_cfft_radix4_f32.c ****  *
  22:Source\TransformFunctions/arm_cfft_radix4_f32.c ****  * Unless required by applicable law or agreed to in writing, software
  23:Source\TransformFunctions/arm_cfft_radix4_f32.c ****  * distributed under the License is distributed on an AS IS BASIS, WITHOUT
  24:Source\TransformFunctions/arm_cfft_radix4_f32.c ****  * WARRANTIES OR CONDITIONS OF ANY KIND, either express or implied.
  25:Source\TransformFunctions/arm_cfft_radix4_f32.c ****  * See the License for the specific language governing permissions and
  26:Source\TransformFunctions/arm_cfft_radix4_f32.c ****  * limitations under the License.
  27:Source\TransformFunctions/arm_cfft_radix4_f32.c ****  */
  28:Source\TransformFunctions/arm_cfft_radix4_f32.c **** 
  29:Source\TransformFunctions/arm_cfft_radix4_f32.c **** #include "arm_math.h"
  30:Source\TransformFunctions/arm_cfft_radix4_f32.c **** 
  31:Source\TransformFunctions/arm_cfft_radix4_f32.c **** extern void arm_bitreversal_f32(
  32:Source\TransformFunctions/arm_cfft_radix4_f32.c **** float32_t * pSrc,
ARM GAS  C:\Users\fneves\AppData\Local\Temp\ccyQHZqi.s 			page 2


  33:Source\TransformFunctions/arm_cfft_radix4_f32.c **** uint16_t fftSize,
  34:Source\TransformFunctions/arm_cfft_radix4_f32.c **** uint16_t bitRevFactor,
  35:Source\TransformFunctions/arm_cfft_radix4_f32.c **** uint16_t * pBitRevTab);
  36:Source\TransformFunctions/arm_cfft_radix4_f32.c **** 
  37:Source\TransformFunctions/arm_cfft_radix4_f32.c **** void arm_radix4_butterfly_f32(
  38:Source\TransformFunctions/arm_cfft_radix4_f32.c **** float32_t * pSrc,
  39:Source\TransformFunctions/arm_cfft_radix4_f32.c **** uint16_t fftLen,
  40:Source\TransformFunctions/arm_cfft_radix4_f32.c **** float32_t * pCoef,
  41:Source\TransformFunctions/arm_cfft_radix4_f32.c **** uint16_t twidCoefModifier);
  42:Source\TransformFunctions/arm_cfft_radix4_f32.c **** 
  43:Source\TransformFunctions/arm_cfft_radix4_f32.c **** void arm_radix4_butterfly_inverse_f32(
  44:Source\TransformFunctions/arm_cfft_radix4_f32.c **** float32_t * pSrc,
  45:Source\TransformFunctions/arm_cfft_radix4_f32.c **** uint16_t fftLen,
  46:Source\TransformFunctions/arm_cfft_radix4_f32.c **** float32_t * pCoef,
  47:Source\TransformFunctions/arm_cfft_radix4_f32.c **** uint16_t twidCoefModifier,
  48:Source\TransformFunctions/arm_cfft_radix4_f32.c **** float32_t onebyfftLen);
  49:Source\TransformFunctions/arm_cfft_radix4_f32.c **** 
  50:Source\TransformFunctions/arm_cfft_radix4_f32.c **** 
  51:Source\TransformFunctions/arm_cfft_radix4_f32.c **** /**
  52:Source\TransformFunctions/arm_cfft_radix4_f32.c **** * @ingroup groupTransforms
  53:Source\TransformFunctions/arm_cfft_radix4_f32.c **** */
  54:Source\TransformFunctions/arm_cfft_radix4_f32.c **** 
  55:Source\TransformFunctions/arm_cfft_radix4_f32.c **** /**
  56:Source\TransformFunctions/arm_cfft_radix4_f32.c **** * @addtogroup ComplexFFT
  57:Source\TransformFunctions/arm_cfft_radix4_f32.c **** * @{
  58:Source\TransformFunctions/arm_cfft_radix4_f32.c **** */
  59:Source\TransformFunctions/arm_cfft_radix4_f32.c **** 
  60:Source\TransformFunctions/arm_cfft_radix4_f32.c **** /**
  61:Source\TransformFunctions/arm_cfft_radix4_f32.c **** * @details
  62:Source\TransformFunctions/arm_cfft_radix4_f32.c **** * @brief Processing function for the floating-point Radix-4 CFFT/CIFFT.
  63:Source\TransformFunctions/arm_cfft_radix4_f32.c **** * @deprecated Do not use this function.  It has been superseded by \ref arm_cfft_f32 and will be re
  64:Source\TransformFunctions/arm_cfft_radix4_f32.c **** * in the future.
  65:Source\TransformFunctions/arm_cfft_radix4_f32.c **** * @param[in]      *S    points to an instance of the floating-point Radix-4 CFFT/CIFFT structure.
  66:Source\TransformFunctions/arm_cfft_radix4_f32.c **** * @param[in, out] *pSrc points to the complex data buffer of size <code>2*fftLen</code>. Processing
  67:Source\TransformFunctions/arm_cfft_radix4_f32.c **** * @return none.
  68:Source\TransformFunctions/arm_cfft_radix4_f32.c **** */
  69:Source\TransformFunctions/arm_cfft_radix4_f32.c **** 
  70:Source\TransformFunctions/arm_cfft_radix4_f32.c **** void arm_cfft_radix4_f32(
  71:Source\TransformFunctions/arm_cfft_radix4_f32.c ****   const arm_cfft_radix4_instance_f32 * S,
  72:Source\TransformFunctions/arm_cfft_radix4_f32.c ****   float32_t * pSrc)
  73:Source\TransformFunctions/arm_cfft_radix4_f32.c **** {
  26              		.loc 1 73 0
  27              		.cfi_startproc
  28 0000 90B5     		push	{r4, r7, lr}
  29              		.cfi_def_cfa_offset 12
  30              		.cfi_offset 4, -12
  31              		.cfi_offset 7, -8
  32              		.cfi_offset 14, -4
  33 0002 85B0     		sub	sp, sp, #20
  34              		.cfi_def_cfa_offset 32
  35 0004 02AF     		add	r7, sp, #8
  36              		.cfi_def_cfa 7, 24
  37 0006 7860     		str	r0, [r7, #4]
  38 0008 3960     		str	r1, [r7]
  74:Source\TransformFunctions/arm_cfft_radix4_f32.c ****    if (S->ifftFlag == 1u)
  39              		.loc 1 74 0
  40 000a 7B68     		ldr	r3, [r7, #4]
ARM GAS  C:\Users\fneves\AppData\Local\Temp\ccyQHZqi.s 			page 3


  41 000c 9B78     		ldrb	r3, [r3, #2]
  42 000e 012B     		cmp	r3, #1
  43 0010 0DD1     		bne	.L2
  75:Source\TransformFunctions/arm_cfft_radix4_f32.c ****    {
  76:Source\TransformFunctions/arm_cfft_radix4_f32.c ****       /*  Complex IFFT radix-4  */
  77:Source\TransformFunctions/arm_cfft_radix4_f32.c ****       arm_radix4_butterfly_inverse_f32(pSrc, S->fftLen, S->pTwiddle, S->twidCoefModifier, S->onebyf
  44              		.loc 1 77 0
  45 0012 7B68     		ldr	r3, [r7, #4]
  46 0014 1988     		ldrh	r1, [r3]
  47 0016 7B68     		ldr	r3, [r7, #4]
  48 0018 5A68     		ldr	r2, [r3, #4]
  49 001a 7B68     		ldr	r3, [r7, #4]
  50 001c 9C89     		ldrh	r4, [r3, #12]
  51 001e 7B68     		ldr	r3, [r7, #4]
  52 0020 1B69     		ldr	r3, [r3, #16]
  53 0022 3868     		ldr	r0, [r7]
  54 0024 0093     		str	r3, [sp]
  55 0026 231C     		mov	r3, r4
  56 0028 FFF7FEFF 		bl	arm_radix4_butterfly_inverse_f32
  57 002c 08E0     		b	.L3
  58              	.L2:
  78:Source\TransformFunctions/arm_cfft_radix4_f32.c ****    }
  79:Source\TransformFunctions/arm_cfft_radix4_f32.c ****    else
  80:Source\TransformFunctions/arm_cfft_radix4_f32.c ****    {
  81:Source\TransformFunctions/arm_cfft_radix4_f32.c ****       /*  Complex FFT radix-4  */
  82:Source\TransformFunctions/arm_cfft_radix4_f32.c ****       arm_radix4_butterfly_f32(pSrc, S->fftLen, S->pTwiddle, S->twidCoefModifier);
  59              		.loc 1 82 0
  60 002e 7B68     		ldr	r3, [r7, #4]
  61 0030 1988     		ldrh	r1, [r3]
  62 0032 7B68     		ldr	r3, [r7, #4]
  63 0034 5A68     		ldr	r2, [r3, #4]
  64 0036 7B68     		ldr	r3, [r7, #4]
  65 0038 9B89     		ldrh	r3, [r3, #12]
  66 003a 3868     		ldr	r0, [r7]
  67 003c FFF7FEFF 		bl	arm_radix4_butterfly_f32
  68              	.L3:
  83:Source\TransformFunctions/arm_cfft_radix4_f32.c ****    }
  84:Source\TransformFunctions/arm_cfft_radix4_f32.c **** 
  85:Source\TransformFunctions/arm_cfft_radix4_f32.c ****    if (S->bitReverseFlag == 1u)
  69              		.loc 1 85 0
  70 0040 7B68     		ldr	r3, [r7, #4]
  71 0042 DB78     		ldrb	r3, [r3, #3]
  72 0044 012B     		cmp	r3, #1
  73 0046 08D1     		bne	.L1
  86:Source\TransformFunctions/arm_cfft_radix4_f32.c ****    {
  87:Source\TransformFunctions/arm_cfft_radix4_f32.c ****       /*  Bit Reversal */
  88:Source\TransformFunctions/arm_cfft_radix4_f32.c ****       arm_bitreversal_f32(pSrc, S->fftLen, S->bitRevFactor, S->pBitRevTable);
  74              		.loc 1 88 0
  75 0048 7B68     		ldr	r3, [r7, #4]
  76 004a 1988     		ldrh	r1, [r3]
  77 004c 7B68     		ldr	r3, [r7, #4]
  78 004e DA89     		ldrh	r2, [r3, #14]
  79 0050 7B68     		ldr	r3, [r7, #4]
  80 0052 9B68     		ldr	r3, [r3, #8]
  81 0054 3868     		ldr	r0, [r7]
  82 0056 FFF7FEFF 		bl	arm_bitreversal_f32
  83              	.L1:
ARM GAS  C:\Users\fneves\AppData\Local\Temp\ccyQHZqi.s 			page 4


  89:Source\TransformFunctions/arm_cfft_radix4_f32.c ****    }
  90:Source\TransformFunctions/arm_cfft_radix4_f32.c **** 
  91:Source\TransformFunctions/arm_cfft_radix4_f32.c **** }
  84              		.loc 1 91 0
  85 005a BD46     		mov	sp, r7
  86 005c 03B0     		add	sp, sp, #12
  87              		@ sp needed
  88 005e 90BD     		pop	{r4, r7, pc}
  89              		.cfi_endproc
  90              	.LFE82:
  91              		.size	arm_cfft_radix4_f32, .-arm_cfft_radix4_f32
  92              		.global	__aeabi_fadd
  93              		.global	__aeabi_fsub
  94              		.global	__aeabi_fmul
  95              		.section	.text.arm_radix4_butterfly_f32,"ax",%progbits
  96              		.align	2
  97              		.global	arm_radix4_butterfly_f32
  98              		.code	16
  99              		.thumb_func
 100              		.type	arm_radix4_butterfly_f32, %function
 101              	arm_radix4_butterfly_f32:
 102              	.LFB83:
  92:Source\TransformFunctions/arm_cfft_radix4_f32.c **** 
  93:Source\TransformFunctions/arm_cfft_radix4_f32.c **** /**
  94:Source\TransformFunctions/arm_cfft_radix4_f32.c **** * @} end of ComplexFFT group
  95:Source\TransformFunctions/arm_cfft_radix4_f32.c **** */
  96:Source\TransformFunctions/arm_cfft_radix4_f32.c **** 
  97:Source\TransformFunctions/arm_cfft_radix4_f32.c **** /* ----------------------------------------------------------------------
  98:Source\TransformFunctions/arm_cfft_radix4_f32.c ****  * Internal helper function used by the FFTs
  99:Source\TransformFunctions/arm_cfft_radix4_f32.c ****  * ---------------------------------------------------------------------- */
 100:Source\TransformFunctions/arm_cfft_radix4_f32.c **** 
 101:Source\TransformFunctions/arm_cfft_radix4_f32.c **** /*
 102:Source\TransformFunctions/arm_cfft_radix4_f32.c **** * @brief  Core function for the floating-point CFFT butterfly process.
 103:Source\TransformFunctions/arm_cfft_radix4_f32.c **** * @param[in, out] *pSrc            points to the in-place buffer of floating-point data type.
 104:Source\TransformFunctions/arm_cfft_radix4_f32.c **** * @param[in]      fftLen           length of the FFT.
 105:Source\TransformFunctions/arm_cfft_radix4_f32.c **** * @param[in]      *pCoef           points to the twiddle coefficient buffer.
 106:Source\TransformFunctions/arm_cfft_radix4_f32.c **** * @param[in]      twidCoefModifier twiddle coefficient modifier that supports different size FFTs w
 107:Source\TransformFunctions/arm_cfft_radix4_f32.c **** * @return none.
 108:Source\TransformFunctions/arm_cfft_radix4_f32.c **** */
 109:Source\TransformFunctions/arm_cfft_radix4_f32.c **** 
 110:Source\TransformFunctions/arm_cfft_radix4_f32.c **** void arm_radix4_butterfly_f32(
 111:Source\TransformFunctions/arm_cfft_radix4_f32.c **** float32_t * pSrc,
 112:Source\TransformFunctions/arm_cfft_radix4_f32.c **** uint16_t fftLen,
 113:Source\TransformFunctions/arm_cfft_radix4_f32.c **** float32_t * pCoef,
 114:Source\TransformFunctions/arm_cfft_radix4_f32.c **** uint16_t twidCoefModifier)
 115:Source\TransformFunctions/arm_cfft_radix4_f32.c **** {
 103              		.loc 1 115 0
 104              		.cfi_startproc
 105 0000 B0B5     		push	{r4, r5, r7, lr}
 106              		.cfi_def_cfa_offset 16
 107              		.cfi_offset 4, -16
 108              		.cfi_offset 5, -12
 109              		.cfi_offset 7, -8
 110              		.cfi_offset 14, -4
 111 0002 9CB0     		sub	sp, sp, #112
 112              		.cfi_def_cfa_offset 128
 113 0004 00AF     		add	r7, sp, #0
ARM GAS  C:\Users\fneves\AppData\Local\Temp\ccyQHZqi.s 			page 5


 114              		.cfi_def_cfa_register 7
 115 0006 F860     		str	r0, [r7, #12]
 116 0008 081C     		mov	r0, r1
 117 000a 7A60     		str	r2, [r7, #4]
 118 000c 191C     		mov	r1, r3
 119 000e 0A23     		mov	r3, #10
 120 0010 FB18     		add	r3, r7, r3
 121 0012 021C     		add	r2, r0, #0
 122 0014 1A80     		strh	r2, [r3]
 123 0016 0823     		mov	r3, #8
 124 0018 FB18     		add	r3, r7, r3
 125 001a 0A1C     		add	r2, r1, #0
 126 001c 1A80     		strh	r2, [r3]
 116:Source\TransformFunctions/arm_cfft_radix4_f32.c **** 
 117:Source\TransformFunctions/arm_cfft_radix4_f32.c ****    float32_t co1, co2, co3, si1, si2, si3;
 118:Source\TransformFunctions/arm_cfft_radix4_f32.c ****    uint32_t ia1, ia2, ia3;
 119:Source\TransformFunctions/arm_cfft_radix4_f32.c ****    uint32_t i0, i1, i2, i3;
 120:Source\TransformFunctions/arm_cfft_radix4_f32.c ****    uint32_t n1, n2, j, k;
 121:Source\TransformFunctions/arm_cfft_radix4_f32.c **** 
 122:Source\TransformFunctions/arm_cfft_radix4_f32.c **** #if defined (ARM_MATH_DSP)
 123:Source\TransformFunctions/arm_cfft_radix4_f32.c **** 
 124:Source\TransformFunctions/arm_cfft_radix4_f32.c ****    /* Run the below code for Cortex-M4 and Cortex-M3 */
 125:Source\TransformFunctions/arm_cfft_radix4_f32.c **** 
 126:Source\TransformFunctions/arm_cfft_radix4_f32.c ****    float32_t xaIn, yaIn, xbIn, ybIn, xcIn, ycIn, xdIn, ydIn;
 127:Source\TransformFunctions/arm_cfft_radix4_f32.c ****    float32_t Xaplusc, Xbplusd, Yaplusc, Ybplusd, Xaminusc, Xbminusd, Yaminusc,
 128:Source\TransformFunctions/arm_cfft_radix4_f32.c ****    Ybminusd;
 129:Source\TransformFunctions/arm_cfft_radix4_f32.c ****    float32_t Xb12C_out, Yb12C_out, Xc12C_out, Yc12C_out, Xd12C_out, Yd12C_out;
 130:Source\TransformFunctions/arm_cfft_radix4_f32.c ****    float32_t Xb12_out, Yb12_out, Xc12_out, Yc12_out, Xd12_out, Yd12_out;
 131:Source\TransformFunctions/arm_cfft_radix4_f32.c ****    float32_t *ptr1;
 132:Source\TransformFunctions/arm_cfft_radix4_f32.c ****    float32_t p0,p1,p2,p3,p4,p5;
 133:Source\TransformFunctions/arm_cfft_radix4_f32.c ****    float32_t a0,a1,a2,a3,a4,a5,a6,a7;
 134:Source\TransformFunctions/arm_cfft_radix4_f32.c **** 
 135:Source\TransformFunctions/arm_cfft_radix4_f32.c ****    /*  Initializations for the first stage */
 136:Source\TransformFunctions/arm_cfft_radix4_f32.c ****    n2 = fftLen;
 137:Source\TransformFunctions/arm_cfft_radix4_f32.c ****    n1 = n2;
 138:Source\TransformFunctions/arm_cfft_radix4_f32.c **** 
 139:Source\TransformFunctions/arm_cfft_radix4_f32.c ****    /* n2 = fftLen/4 */
 140:Source\TransformFunctions/arm_cfft_radix4_f32.c ****    n2 >>= 2u;
 141:Source\TransformFunctions/arm_cfft_radix4_f32.c ****    i0 = 0u;
 142:Source\TransformFunctions/arm_cfft_radix4_f32.c ****    ia1 = 0u;
 143:Source\TransformFunctions/arm_cfft_radix4_f32.c **** 
 144:Source\TransformFunctions/arm_cfft_radix4_f32.c ****    j = n2;
 145:Source\TransformFunctions/arm_cfft_radix4_f32.c **** 
 146:Source\TransformFunctions/arm_cfft_radix4_f32.c ****    /*  Calculation of first stage */
 147:Source\TransformFunctions/arm_cfft_radix4_f32.c ****    do
 148:Source\TransformFunctions/arm_cfft_radix4_f32.c ****    {
 149:Source\TransformFunctions/arm_cfft_radix4_f32.c ****       /*  index calculation for the input as, */
 150:Source\TransformFunctions/arm_cfft_radix4_f32.c ****       /*  pSrc[i0 + 0], pSrc[i0 + fftLen/4], pSrc[i0 + fftLen/2], pSrc[i0 + 3fftLen/4] */
 151:Source\TransformFunctions/arm_cfft_radix4_f32.c ****       i1 = i0 + n2;
 152:Source\TransformFunctions/arm_cfft_radix4_f32.c ****       i2 = i1 + n2;
 153:Source\TransformFunctions/arm_cfft_radix4_f32.c ****       i3 = i2 + n2;
 154:Source\TransformFunctions/arm_cfft_radix4_f32.c **** 
 155:Source\TransformFunctions/arm_cfft_radix4_f32.c ****       xaIn = pSrc[(2u * i0)];
 156:Source\TransformFunctions/arm_cfft_radix4_f32.c ****       yaIn = pSrc[(2u * i0) + 1u];
 157:Source\TransformFunctions/arm_cfft_radix4_f32.c **** 
 158:Source\TransformFunctions/arm_cfft_radix4_f32.c ****       xbIn = pSrc[(2u * i1)];
 159:Source\TransformFunctions/arm_cfft_radix4_f32.c ****       ybIn = pSrc[(2u * i1) + 1u];
ARM GAS  C:\Users\fneves\AppData\Local\Temp\ccyQHZqi.s 			page 6


 160:Source\TransformFunctions/arm_cfft_radix4_f32.c **** 
 161:Source\TransformFunctions/arm_cfft_radix4_f32.c ****       xcIn = pSrc[(2u * i2)];
 162:Source\TransformFunctions/arm_cfft_radix4_f32.c ****       ycIn = pSrc[(2u * i2) + 1u];
 163:Source\TransformFunctions/arm_cfft_radix4_f32.c **** 
 164:Source\TransformFunctions/arm_cfft_radix4_f32.c ****       xdIn = pSrc[(2u * i3)];
 165:Source\TransformFunctions/arm_cfft_radix4_f32.c ****       ydIn = pSrc[(2u * i3) + 1u];
 166:Source\TransformFunctions/arm_cfft_radix4_f32.c **** 
 167:Source\TransformFunctions/arm_cfft_radix4_f32.c ****       /* xa + xc */
 168:Source\TransformFunctions/arm_cfft_radix4_f32.c ****       Xaplusc = xaIn + xcIn;
 169:Source\TransformFunctions/arm_cfft_radix4_f32.c ****       /* xb + xd */
 170:Source\TransformFunctions/arm_cfft_radix4_f32.c ****       Xbplusd = xbIn + xdIn;
 171:Source\TransformFunctions/arm_cfft_radix4_f32.c ****       /* ya + yc */
 172:Source\TransformFunctions/arm_cfft_radix4_f32.c ****       Yaplusc = yaIn + ycIn;
 173:Source\TransformFunctions/arm_cfft_radix4_f32.c ****       /* yb + yd */
 174:Source\TransformFunctions/arm_cfft_radix4_f32.c ****       Ybplusd = ybIn + ydIn;
 175:Source\TransformFunctions/arm_cfft_radix4_f32.c **** 
 176:Source\TransformFunctions/arm_cfft_radix4_f32.c ****       /*  index calculation for the coefficients */
 177:Source\TransformFunctions/arm_cfft_radix4_f32.c ****       ia2 = ia1 + ia1;
 178:Source\TransformFunctions/arm_cfft_radix4_f32.c ****       co2 = pCoef[ia2 * 2u];
 179:Source\TransformFunctions/arm_cfft_radix4_f32.c ****       si2 = pCoef[(ia2 * 2u) + 1u];
 180:Source\TransformFunctions/arm_cfft_radix4_f32.c **** 
 181:Source\TransformFunctions/arm_cfft_radix4_f32.c ****       /* xa - xc */
 182:Source\TransformFunctions/arm_cfft_radix4_f32.c ****       Xaminusc = xaIn - xcIn;
 183:Source\TransformFunctions/arm_cfft_radix4_f32.c ****       /* xb - xd */
 184:Source\TransformFunctions/arm_cfft_radix4_f32.c ****       Xbminusd = xbIn - xdIn;
 185:Source\TransformFunctions/arm_cfft_radix4_f32.c ****       /* ya - yc */
 186:Source\TransformFunctions/arm_cfft_radix4_f32.c ****       Yaminusc = yaIn - ycIn;
 187:Source\TransformFunctions/arm_cfft_radix4_f32.c ****       /* yb - yd */
 188:Source\TransformFunctions/arm_cfft_radix4_f32.c ****       Ybminusd = ybIn - ydIn;
 189:Source\TransformFunctions/arm_cfft_radix4_f32.c **** 
 190:Source\TransformFunctions/arm_cfft_radix4_f32.c ****       /* xa' = xa + xb + xc + xd */
 191:Source\TransformFunctions/arm_cfft_radix4_f32.c ****       pSrc[(2u * i0)] = Xaplusc + Xbplusd;
 192:Source\TransformFunctions/arm_cfft_radix4_f32.c ****       /* ya' = ya + yb + yc + yd */
 193:Source\TransformFunctions/arm_cfft_radix4_f32.c ****       pSrc[(2u * i0) + 1u] = Yaplusc + Ybplusd;
 194:Source\TransformFunctions/arm_cfft_radix4_f32.c **** 
 195:Source\TransformFunctions/arm_cfft_radix4_f32.c ****       /* (xa - xc) + (yb - yd) */
 196:Source\TransformFunctions/arm_cfft_radix4_f32.c ****       Xb12C_out = (Xaminusc + Ybminusd);
 197:Source\TransformFunctions/arm_cfft_radix4_f32.c ****       /* (ya - yc) + (xb - xd) */
 198:Source\TransformFunctions/arm_cfft_radix4_f32.c ****       Yb12C_out = (Yaminusc - Xbminusd);
 199:Source\TransformFunctions/arm_cfft_radix4_f32.c ****       /* (xa + xc) - (xb + xd) */
 200:Source\TransformFunctions/arm_cfft_radix4_f32.c ****       Xc12C_out = (Xaplusc - Xbplusd);
 201:Source\TransformFunctions/arm_cfft_radix4_f32.c ****       /* (ya + yc) - (yb + yd) */
 202:Source\TransformFunctions/arm_cfft_radix4_f32.c ****       Yc12C_out = (Yaplusc - Ybplusd);
 203:Source\TransformFunctions/arm_cfft_radix4_f32.c ****       /* (xa - xc) - (yb - yd) */
 204:Source\TransformFunctions/arm_cfft_radix4_f32.c ****       Xd12C_out = (Xaminusc - Ybminusd);
 205:Source\TransformFunctions/arm_cfft_radix4_f32.c ****       /* (ya - yc) + (xb - xd) */
 206:Source\TransformFunctions/arm_cfft_radix4_f32.c ****       Yd12C_out = (Xbminusd + Yaminusc);
 207:Source\TransformFunctions/arm_cfft_radix4_f32.c **** 
 208:Source\TransformFunctions/arm_cfft_radix4_f32.c ****       co1 = pCoef[ia1 * 2u];
 209:Source\TransformFunctions/arm_cfft_radix4_f32.c ****       si1 = pCoef[(ia1 * 2u) + 1u];
 210:Source\TransformFunctions/arm_cfft_radix4_f32.c **** 
 211:Source\TransformFunctions/arm_cfft_radix4_f32.c ****       /*  index calculation for the coefficients */
 212:Source\TransformFunctions/arm_cfft_radix4_f32.c ****       ia3 = ia2 + ia1;
 213:Source\TransformFunctions/arm_cfft_radix4_f32.c ****       co3 = pCoef[ia3 * 2u];
 214:Source\TransformFunctions/arm_cfft_radix4_f32.c ****       si3 = pCoef[(ia3 * 2u) + 1u];
 215:Source\TransformFunctions/arm_cfft_radix4_f32.c **** 
 216:Source\TransformFunctions/arm_cfft_radix4_f32.c ****       Xb12_out = Xb12C_out * co1;
ARM GAS  C:\Users\fneves\AppData\Local\Temp\ccyQHZqi.s 			page 7


 217:Source\TransformFunctions/arm_cfft_radix4_f32.c ****       Yb12_out = Yb12C_out * co1;
 218:Source\TransformFunctions/arm_cfft_radix4_f32.c ****       Xc12_out = Xc12C_out * co2;
 219:Source\TransformFunctions/arm_cfft_radix4_f32.c ****       Yc12_out = Yc12C_out * co2;
 220:Source\TransformFunctions/arm_cfft_radix4_f32.c ****       Xd12_out = Xd12C_out * co3;
 221:Source\TransformFunctions/arm_cfft_radix4_f32.c ****       Yd12_out = Yd12C_out * co3;
 222:Source\TransformFunctions/arm_cfft_radix4_f32.c **** 
 223:Source\TransformFunctions/arm_cfft_radix4_f32.c ****       /* xb' = (xa+yb-xc-yd)co1 - (ya-xb-yc+xd)(si1) */
 224:Source\TransformFunctions/arm_cfft_radix4_f32.c ****       //Xb12_out -= Yb12C_out * si1;
 225:Source\TransformFunctions/arm_cfft_radix4_f32.c ****       p0 = Yb12C_out * si1;
 226:Source\TransformFunctions/arm_cfft_radix4_f32.c ****       /* yb' = (ya-xb-yc+xd)co1 + (xa+yb-xc-yd)(si1) */
 227:Source\TransformFunctions/arm_cfft_radix4_f32.c ****       //Yb12_out += Xb12C_out * si1;
 228:Source\TransformFunctions/arm_cfft_radix4_f32.c ****       p1 = Xb12C_out * si1;
 229:Source\TransformFunctions/arm_cfft_radix4_f32.c ****       /* xc' = (xa-xb+xc-xd)co2 - (ya-yb+yc-yd)(si2) */
 230:Source\TransformFunctions/arm_cfft_radix4_f32.c ****       //Xc12_out -= Yc12C_out * si2;
 231:Source\TransformFunctions/arm_cfft_radix4_f32.c ****       p2 = Yc12C_out * si2;
 232:Source\TransformFunctions/arm_cfft_radix4_f32.c ****       /* yc' = (ya-yb+yc-yd)co2 + (xa-xb+xc-xd)(si2) */
 233:Source\TransformFunctions/arm_cfft_radix4_f32.c ****       //Yc12_out += Xc12C_out * si2;
 234:Source\TransformFunctions/arm_cfft_radix4_f32.c ****       p3 = Xc12C_out * si2;
 235:Source\TransformFunctions/arm_cfft_radix4_f32.c ****       /* xd' = (xa-yb-xc+yd)co3 - (ya+xb-yc-xd)(si3) */
 236:Source\TransformFunctions/arm_cfft_radix4_f32.c ****       //Xd12_out -= Yd12C_out * si3;
 237:Source\TransformFunctions/arm_cfft_radix4_f32.c ****       p4 = Yd12C_out * si3;
 238:Source\TransformFunctions/arm_cfft_radix4_f32.c ****       /* yd' = (ya+xb-yc-xd)co3 + (xa-yb-xc+yd)(si3) */
 239:Source\TransformFunctions/arm_cfft_radix4_f32.c ****       //Yd12_out += Xd12C_out * si3;
 240:Source\TransformFunctions/arm_cfft_radix4_f32.c ****       p5 = Xd12C_out * si3;
 241:Source\TransformFunctions/arm_cfft_radix4_f32.c **** 
 242:Source\TransformFunctions/arm_cfft_radix4_f32.c ****       Xb12_out += p0;
 243:Source\TransformFunctions/arm_cfft_radix4_f32.c ****       Yb12_out -= p1;
 244:Source\TransformFunctions/arm_cfft_radix4_f32.c ****       Xc12_out += p2;
 245:Source\TransformFunctions/arm_cfft_radix4_f32.c ****       Yc12_out -= p3;
 246:Source\TransformFunctions/arm_cfft_radix4_f32.c ****       Xd12_out += p4;
 247:Source\TransformFunctions/arm_cfft_radix4_f32.c ****       Yd12_out -= p5;
 248:Source\TransformFunctions/arm_cfft_radix4_f32.c **** 
 249:Source\TransformFunctions/arm_cfft_radix4_f32.c ****       /* xc' = (xa-xb+xc-xd)co2 + (ya-yb+yc-yd)(si2) */
 250:Source\TransformFunctions/arm_cfft_radix4_f32.c ****       pSrc[2u * i1] = Xc12_out;
 251:Source\TransformFunctions/arm_cfft_radix4_f32.c **** 
 252:Source\TransformFunctions/arm_cfft_radix4_f32.c ****       /* yc' = (ya-yb+yc-yd)co2 - (xa-xb+xc-xd)(si2) */
 253:Source\TransformFunctions/arm_cfft_radix4_f32.c ****       pSrc[(2u * i1) + 1u] = Yc12_out;
 254:Source\TransformFunctions/arm_cfft_radix4_f32.c **** 
 255:Source\TransformFunctions/arm_cfft_radix4_f32.c ****       /* xb' = (xa+yb-xc-yd)co1 + (ya-xb-yc+xd)(si1) */
 256:Source\TransformFunctions/arm_cfft_radix4_f32.c ****       pSrc[2u * i2] = Xb12_out;
 257:Source\TransformFunctions/arm_cfft_radix4_f32.c **** 
 258:Source\TransformFunctions/arm_cfft_radix4_f32.c ****       /* yb' = (ya-xb-yc+xd)co1 - (xa+yb-xc-yd)(si1) */
 259:Source\TransformFunctions/arm_cfft_radix4_f32.c ****       pSrc[(2u * i2) + 1u] = Yb12_out;
 260:Source\TransformFunctions/arm_cfft_radix4_f32.c **** 
 261:Source\TransformFunctions/arm_cfft_radix4_f32.c ****       /* xd' = (xa-yb-xc+yd)co3 + (ya+xb-yc-xd)(si3) */
 262:Source\TransformFunctions/arm_cfft_radix4_f32.c ****       pSrc[2u * i3] = Xd12_out;
 263:Source\TransformFunctions/arm_cfft_radix4_f32.c **** 
 264:Source\TransformFunctions/arm_cfft_radix4_f32.c ****       /* yd' = (ya+xb-yc-xd)co3 - (xa-yb-xc+yd)(si3) */
 265:Source\TransformFunctions/arm_cfft_radix4_f32.c ****       pSrc[(2u * i3) + 1u] = Yd12_out;
 266:Source\TransformFunctions/arm_cfft_radix4_f32.c **** 
 267:Source\TransformFunctions/arm_cfft_radix4_f32.c ****       /*  Twiddle coefficients index modifier */
 268:Source\TransformFunctions/arm_cfft_radix4_f32.c ****       ia1 += twidCoefModifier;
 269:Source\TransformFunctions/arm_cfft_radix4_f32.c **** 
 270:Source\TransformFunctions/arm_cfft_radix4_f32.c ****       /*  Updating input index */
 271:Source\TransformFunctions/arm_cfft_radix4_f32.c ****       i0++;
 272:Source\TransformFunctions/arm_cfft_radix4_f32.c **** 
 273:Source\TransformFunctions/arm_cfft_radix4_f32.c ****    }
ARM GAS  C:\Users\fneves\AppData\Local\Temp\ccyQHZqi.s 			page 8


 274:Source\TransformFunctions/arm_cfft_radix4_f32.c ****    while (--j);
 275:Source\TransformFunctions/arm_cfft_radix4_f32.c **** 
 276:Source\TransformFunctions/arm_cfft_radix4_f32.c ****    twidCoefModifier <<= 2u;
 277:Source\TransformFunctions/arm_cfft_radix4_f32.c **** 
 278:Source\TransformFunctions/arm_cfft_radix4_f32.c ****    /*  Calculation of second stage to excluding last stage */
 279:Source\TransformFunctions/arm_cfft_radix4_f32.c ****    for (k = fftLen >> 2u; k > 4u; k >>= 2u)
 280:Source\TransformFunctions/arm_cfft_radix4_f32.c ****    {
 281:Source\TransformFunctions/arm_cfft_radix4_f32.c ****       /*  Initializations for the first stage */
 282:Source\TransformFunctions/arm_cfft_radix4_f32.c ****       n1 = n2;
 283:Source\TransformFunctions/arm_cfft_radix4_f32.c ****       n2 >>= 2u;
 284:Source\TransformFunctions/arm_cfft_radix4_f32.c ****       ia1 = 0u;
 285:Source\TransformFunctions/arm_cfft_radix4_f32.c **** 
 286:Source\TransformFunctions/arm_cfft_radix4_f32.c ****       /*  Calculation of first stage */
 287:Source\TransformFunctions/arm_cfft_radix4_f32.c ****       j = 0;
 288:Source\TransformFunctions/arm_cfft_radix4_f32.c ****       do
 289:Source\TransformFunctions/arm_cfft_radix4_f32.c ****       {
 290:Source\TransformFunctions/arm_cfft_radix4_f32.c ****          /*  index calculation for the coefficients */
 291:Source\TransformFunctions/arm_cfft_radix4_f32.c ****          ia2 = ia1 + ia1;
 292:Source\TransformFunctions/arm_cfft_radix4_f32.c ****          ia3 = ia2 + ia1;
 293:Source\TransformFunctions/arm_cfft_radix4_f32.c ****          co1 = pCoef[ia1 * 2u];
 294:Source\TransformFunctions/arm_cfft_radix4_f32.c ****          si1 = pCoef[(ia1 * 2u) + 1u];
 295:Source\TransformFunctions/arm_cfft_radix4_f32.c ****          co2 = pCoef[ia2 * 2u];
 296:Source\TransformFunctions/arm_cfft_radix4_f32.c ****          si2 = pCoef[(ia2 * 2u) + 1u];
 297:Source\TransformFunctions/arm_cfft_radix4_f32.c ****          co3 = pCoef[ia3 * 2u];
 298:Source\TransformFunctions/arm_cfft_radix4_f32.c ****          si3 = pCoef[(ia3 * 2u) + 1u];
 299:Source\TransformFunctions/arm_cfft_radix4_f32.c **** 
 300:Source\TransformFunctions/arm_cfft_radix4_f32.c ****          /*  Twiddle coefficients index modifier */
 301:Source\TransformFunctions/arm_cfft_radix4_f32.c ****          ia1 += twidCoefModifier;
 302:Source\TransformFunctions/arm_cfft_radix4_f32.c **** 
 303:Source\TransformFunctions/arm_cfft_radix4_f32.c ****          i0 = j;
 304:Source\TransformFunctions/arm_cfft_radix4_f32.c ****          do
 305:Source\TransformFunctions/arm_cfft_radix4_f32.c ****          {
 306:Source\TransformFunctions/arm_cfft_radix4_f32.c ****             /*  index calculation for the input as, */
 307:Source\TransformFunctions/arm_cfft_radix4_f32.c ****             /*  pSrc[i0 + 0], pSrc[i0 + fftLen/4], pSrc[i0 + fftLen/2], pSrc[i0 + 3fftLen/4] */
 308:Source\TransformFunctions/arm_cfft_radix4_f32.c ****             i1 = i0 + n2;
 309:Source\TransformFunctions/arm_cfft_radix4_f32.c ****             i2 = i1 + n2;
 310:Source\TransformFunctions/arm_cfft_radix4_f32.c ****             i3 = i2 + n2;
 311:Source\TransformFunctions/arm_cfft_radix4_f32.c **** 
 312:Source\TransformFunctions/arm_cfft_radix4_f32.c ****             xaIn = pSrc[(2u * i0)];
 313:Source\TransformFunctions/arm_cfft_radix4_f32.c ****             yaIn = pSrc[(2u * i0) + 1u];
 314:Source\TransformFunctions/arm_cfft_radix4_f32.c **** 
 315:Source\TransformFunctions/arm_cfft_radix4_f32.c ****             xbIn = pSrc[(2u * i1)];
 316:Source\TransformFunctions/arm_cfft_radix4_f32.c ****             ybIn = pSrc[(2u * i1) + 1u];
 317:Source\TransformFunctions/arm_cfft_radix4_f32.c **** 
 318:Source\TransformFunctions/arm_cfft_radix4_f32.c ****             xcIn = pSrc[(2u * i2)];
 319:Source\TransformFunctions/arm_cfft_radix4_f32.c ****             ycIn = pSrc[(2u * i2) + 1u];
 320:Source\TransformFunctions/arm_cfft_radix4_f32.c **** 
 321:Source\TransformFunctions/arm_cfft_radix4_f32.c ****             xdIn = pSrc[(2u * i3)];
 322:Source\TransformFunctions/arm_cfft_radix4_f32.c ****             ydIn = pSrc[(2u * i3) + 1u];
 323:Source\TransformFunctions/arm_cfft_radix4_f32.c **** 
 324:Source\TransformFunctions/arm_cfft_radix4_f32.c ****             /* xa - xc */
 325:Source\TransformFunctions/arm_cfft_radix4_f32.c ****             Xaminusc = xaIn - xcIn;
 326:Source\TransformFunctions/arm_cfft_radix4_f32.c ****             /* (xb - xd) */
 327:Source\TransformFunctions/arm_cfft_radix4_f32.c ****             Xbminusd = xbIn - xdIn;
 328:Source\TransformFunctions/arm_cfft_radix4_f32.c ****             /* ya - yc */
 329:Source\TransformFunctions/arm_cfft_radix4_f32.c ****             Yaminusc = yaIn - ycIn;
 330:Source\TransformFunctions/arm_cfft_radix4_f32.c ****             /* (yb - yd) */
ARM GAS  C:\Users\fneves\AppData\Local\Temp\ccyQHZqi.s 			page 9


 331:Source\TransformFunctions/arm_cfft_radix4_f32.c ****             Ybminusd = ybIn - ydIn;
 332:Source\TransformFunctions/arm_cfft_radix4_f32.c **** 
 333:Source\TransformFunctions/arm_cfft_radix4_f32.c ****             /* xa + xc */
 334:Source\TransformFunctions/arm_cfft_radix4_f32.c ****             Xaplusc = xaIn + xcIn;
 335:Source\TransformFunctions/arm_cfft_radix4_f32.c ****             /* xb + xd */
 336:Source\TransformFunctions/arm_cfft_radix4_f32.c ****             Xbplusd = xbIn + xdIn;
 337:Source\TransformFunctions/arm_cfft_radix4_f32.c ****             /* ya + yc */
 338:Source\TransformFunctions/arm_cfft_radix4_f32.c ****             Yaplusc = yaIn + ycIn;
 339:Source\TransformFunctions/arm_cfft_radix4_f32.c ****             /* yb + yd */
 340:Source\TransformFunctions/arm_cfft_radix4_f32.c ****             Ybplusd = ybIn + ydIn;
 341:Source\TransformFunctions/arm_cfft_radix4_f32.c **** 
 342:Source\TransformFunctions/arm_cfft_radix4_f32.c ****             /* (xa - xc) + (yb - yd) */
 343:Source\TransformFunctions/arm_cfft_radix4_f32.c ****             Xb12C_out = (Xaminusc + Ybminusd);
 344:Source\TransformFunctions/arm_cfft_radix4_f32.c ****             /* (ya - yc) -  (xb - xd) */
 345:Source\TransformFunctions/arm_cfft_radix4_f32.c ****             Yb12C_out = (Yaminusc - Xbminusd);
 346:Source\TransformFunctions/arm_cfft_radix4_f32.c ****             /* xa + xc -(xb + xd) */
 347:Source\TransformFunctions/arm_cfft_radix4_f32.c ****             Xc12C_out = (Xaplusc - Xbplusd);
 348:Source\TransformFunctions/arm_cfft_radix4_f32.c ****             /* (ya + yc) - (yb + yd) */
 349:Source\TransformFunctions/arm_cfft_radix4_f32.c ****             Yc12C_out = (Yaplusc - Ybplusd);
 350:Source\TransformFunctions/arm_cfft_radix4_f32.c ****             /* (xa - xc) - (yb - yd) */
 351:Source\TransformFunctions/arm_cfft_radix4_f32.c ****             Xd12C_out = (Xaminusc - Ybminusd);
 352:Source\TransformFunctions/arm_cfft_radix4_f32.c ****             /* (ya - yc) +  (xb - xd) */
 353:Source\TransformFunctions/arm_cfft_radix4_f32.c ****             Yd12C_out = (Xbminusd + Yaminusc);
 354:Source\TransformFunctions/arm_cfft_radix4_f32.c **** 
 355:Source\TransformFunctions/arm_cfft_radix4_f32.c ****             pSrc[(2u * i0)] = Xaplusc + Xbplusd;
 356:Source\TransformFunctions/arm_cfft_radix4_f32.c ****             pSrc[(2u * i0) + 1u] = Yaplusc + Ybplusd;
 357:Source\TransformFunctions/arm_cfft_radix4_f32.c **** 
 358:Source\TransformFunctions/arm_cfft_radix4_f32.c ****             Xb12_out = Xb12C_out * co1;
 359:Source\TransformFunctions/arm_cfft_radix4_f32.c ****             Yb12_out = Yb12C_out * co1;
 360:Source\TransformFunctions/arm_cfft_radix4_f32.c ****             Xc12_out = Xc12C_out * co2;
 361:Source\TransformFunctions/arm_cfft_radix4_f32.c ****             Yc12_out = Yc12C_out * co2;
 362:Source\TransformFunctions/arm_cfft_radix4_f32.c ****             Xd12_out = Xd12C_out * co3;
 363:Source\TransformFunctions/arm_cfft_radix4_f32.c ****             Yd12_out = Yd12C_out * co3;
 364:Source\TransformFunctions/arm_cfft_radix4_f32.c **** 
 365:Source\TransformFunctions/arm_cfft_radix4_f32.c ****             /* xb' = (xa+yb-xc-yd)co1 - (ya-xb-yc+xd)(si1) */
 366:Source\TransformFunctions/arm_cfft_radix4_f32.c ****             //Xb12_out -= Yb12C_out * si1;
 367:Source\TransformFunctions/arm_cfft_radix4_f32.c ****             p0 = Yb12C_out * si1;
 368:Source\TransformFunctions/arm_cfft_radix4_f32.c ****             /* yb' = (ya-xb-yc+xd)co1 + (xa+yb-xc-yd)(si1) */
 369:Source\TransformFunctions/arm_cfft_radix4_f32.c ****             //Yb12_out += Xb12C_out * si1;
 370:Source\TransformFunctions/arm_cfft_radix4_f32.c ****             p1 = Xb12C_out * si1;
 371:Source\TransformFunctions/arm_cfft_radix4_f32.c ****             /* xc' = (xa-xb+xc-xd)co2 - (ya-yb+yc-yd)(si2) */
 372:Source\TransformFunctions/arm_cfft_radix4_f32.c ****             //Xc12_out -= Yc12C_out * si2;
 373:Source\TransformFunctions/arm_cfft_radix4_f32.c ****             p2 = Yc12C_out * si2;
 374:Source\TransformFunctions/arm_cfft_radix4_f32.c ****             /* yc' = (ya-yb+yc-yd)co2 + (xa-xb+xc-xd)(si2) */
 375:Source\TransformFunctions/arm_cfft_radix4_f32.c ****             //Yc12_out += Xc12C_out * si2;
 376:Source\TransformFunctions/arm_cfft_radix4_f32.c ****             p3 = Xc12C_out * si2;
 377:Source\TransformFunctions/arm_cfft_radix4_f32.c ****             /* xd' = (xa-yb-xc+yd)co3 - (ya+xb-yc-xd)(si3) */
 378:Source\TransformFunctions/arm_cfft_radix4_f32.c ****             //Xd12_out -= Yd12C_out * si3;
 379:Source\TransformFunctions/arm_cfft_radix4_f32.c ****             p4 = Yd12C_out * si3;
 380:Source\TransformFunctions/arm_cfft_radix4_f32.c ****             /* yd' = (ya+xb-yc-xd)co3 + (xa-yb-xc+yd)(si3) */
 381:Source\TransformFunctions/arm_cfft_radix4_f32.c ****             //Yd12_out += Xd12C_out * si3;
 382:Source\TransformFunctions/arm_cfft_radix4_f32.c ****             p5 = Xd12C_out * si3;
 383:Source\TransformFunctions/arm_cfft_radix4_f32.c **** 
 384:Source\TransformFunctions/arm_cfft_radix4_f32.c ****             Xb12_out += p0;
 385:Source\TransformFunctions/arm_cfft_radix4_f32.c ****             Yb12_out -= p1;
 386:Source\TransformFunctions/arm_cfft_radix4_f32.c ****             Xc12_out += p2;
 387:Source\TransformFunctions/arm_cfft_radix4_f32.c ****             Yc12_out -= p3;
ARM GAS  C:\Users\fneves\AppData\Local\Temp\ccyQHZqi.s 			page 10


 388:Source\TransformFunctions/arm_cfft_radix4_f32.c ****             Xd12_out += p4;
 389:Source\TransformFunctions/arm_cfft_radix4_f32.c ****             Yd12_out -= p5;
 390:Source\TransformFunctions/arm_cfft_radix4_f32.c **** 
 391:Source\TransformFunctions/arm_cfft_radix4_f32.c ****             /* xc' = (xa-xb+xc-xd)co2 + (ya-yb+yc-yd)(si2) */
 392:Source\TransformFunctions/arm_cfft_radix4_f32.c ****             pSrc[2u * i1] = Xc12_out;
 393:Source\TransformFunctions/arm_cfft_radix4_f32.c **** 
 394:Source\TransformFunctions/arm_cfft_radix4_f32.c ****             /* yc' = (ya-yb+yc-yd)co2 - (xa-xb+xc-xd)(si2) */
 395:Source\TransformFunctions/arm_cfft_radix4_f32.c ****             pSrc[(2u * i1) + 1u] = Yc12_out;
 396:Source\TransformFunctions/arm_cfft_radix4_f32.c **** 
 397:Source\TransformFunctions/arm_cfft_radix4_f32.c ****             /* xb' = (xa+yb-xc-yd)co1 + (ya-xb-yc+xd)(si1) */
 398:Source\TransformFunctions/arm_cfft_radix4_f32.c ****             pSrc[2u * i2] = Xb12_out;
 399:Source\TransformFunctions/arm_cfft_radix4_f32.c **** 
 400:Source\TransformFunctions/arm_cfft_radix4_f32.c ****             /* yb' = (ya-xb-yc+xd)co1 - (xa+yb-xc-yd)(si1) */
 401:Source\TransformFunctions/arm_cfft_radix4_f32.c ****             pSrc[(2u * i2) + 1u] = Yb12_out;
 402:Source\TransformFunctions/arm_cfft_radix4_f32.c **** 
 403:Source\TransformFunctions/arm_cfft_radix4_f32.c ****             /* xd' = (xa-yb-xc+yd)co3 + (ya+xb-yc-xd)(si3) */
 404:Source\TransformFunctions/arm_cfft_radix4_f32.c ****             pSrc[2u * i3] = Xd12_out;
 405:Source\TransformFunctions/arm_cfft_radix4_f32.c **** 
 406:Source\TransformFunctions/arm_cfft_radix4_f32.c ****             /* yd' = (ya+xb-yc-xd)co3 - (xa-yb-xc+yd)(si3) */
 407:Source\TransformFunctions/arm_cfft_radix4_f32.c ****             pSrc[(2u * i3) + 1u] = Yd12_out;
 408:Source\TransformFunctions/arm_cfft_radix4_f32.c **** 
 409:Source\TransformFunctions/arm_cfft_radix4_f32.c ****             i0 += n1;
 410:Source\TransformFunctions/arm_cfft_radix4_f32.c ****          } while (i0 < fftLen);
 411:Source\TransformFunctions/arm_cfft_radix4_f32.c ****          j++;
 412:Source\TransformFunctions/arm_cfft_radix4_f32.c ****       } while (j <= (n2 - 1u));
 413:Source\TransformFunctions/arm_cfft_radix4_f32.c ****       twidCoefModifier <<= 2u;
 414:Source\TransformFunctions/arm_cfft_radix4_f32.c ****    }
 415:Source\TransformFunctions/arm_cfft_radix4_f32.c **** 
 416:Source\TransformFunctions/arm_cfft_radix4_f32.c ****    j = fftLen >> 2;
 417:Source\TransformFunctions/arm_cfft_radix4_f32.c ****    ptr1 = &pSrc[0];
 418:Source\TransformFunctions/arm_cfft_radix4_f32.c **** 
 419:Source\TransformFunctions/arm_cfft_radix4_f32.c ****    /*  Calculations of last stage */
 420:Source\TransformFunctions/arm_cfft_radix4_f32.c ****    do
 421:Source\TransformFunctions/arm_cfft_radix4_f32.c ****    {
 422:Source\TransformFunctions/arm_cfft_radix4_f32.c ****       xaIn = ptr1[0];
 423:Source\TransformFunctions/arm_cfft_radix4_f32.c ****       yaIn = ptr1[1];
 424:Source\TransformFunctions/arm_cfft_radix4_f32.c ****       xbIn = ptr1[2];
 425:Source\TransformFunctions/arm_cfft_radix4_f32.c ****       ybIn = ptr1[3];
 426:Source\TransformFunctions/arm_cfft_radix4_f32.c ****       xcIn = ptr1[4];
 427:Source\TransformFunctions/arm_cfft_radix4_f32.c ****       ycIn = ptr1[5];
 428:Source\TransformFunctions/arm_cfft_radix4_f32.c ****       xdIn = ptr1[6];
 429:Source\TransformFunctions/arm_cfft_radix4_f32.c ****       ydIn = ptr1[7];
 430:Source\TransformFunctions/arm_cfft_radix4_f32.c **** 
 431:Source\TransformFunctions/arm_cfft_radix4_f32.c ****       /* xa + xc */
 432:Source\TransformFunctions/arm_cfft_radix4_f32.c ****       Xaplusc = xaIn + xcIn;
 433:Source\TransformFunctions/arm_cfft_radix4_f32.c **** 
 434:Source\TransformFunctions/arm_cfft_radix4_f32.c ****       /* xa - xc */
 435:Source\TransformFunctions/arm_cfft_radix4_f32.c ****       Xaminusc = xaIn - xcIn;
 436:Source\TransformFunctions/arm_cfft_radix4_f32.c **** 
 437:Source\TransformFunctions/arm_cfft_radix4_f32.c ****       /* ya + yc */
 438:Source\TransformFunctions/arm_cfft_radix4_f32.c ****       Yaplusc = yaIn + ycIn;
 439:Source\TransformFunctions/arm_cfft_radix4_f32.c **** 
 440:Source\TransformFunctions/arm_cfft_radix4_f32.c ****       /* ya - yc */
 441:Source\TransformFunctions/arm_cfft_radix4_f32.c ****       Yaminusc = yaIn - ycIn;
 442:Source\TransformFunctions/arm_cfft_radix4_f32.c **** 
 443:Source\TransformFunctions/arm_cfft_radix4_f32.c ****       /* xb + xd */
 444:Source\TransformFunctions/arm_cfft_radix4_f32.c ****       Xbplusd = xbIn + xdIn;
ARM GAS  C:\Users\fneves\AppData\Local\Temp\ccyQHZqi.s 			page 11


 445:Source\TransformFunctions/arm_cfft_radix4_f32.c **** 
 446:Source\TransformFunctions/arm_cfft_radix4_f32.c ****       /* yb + yd */
 447:Source\TransformFunctions/arm_cfft_radix4_f32.c ****       Ybplusd = ybIn + ydIn;
 448:Source\TransformFunctions/arm_cfft_radix4_f32.c **** 
 449:Source\TransformFunctions/arm_cfft_radix4_f32.c ****       /* (xb-xd) */
 450:Source\TransformFunctions/arm_cfft_radix4_f32.c ****       Xbminusd = xbIn - xdIn;
 451:Source\TransformFunctions/arm_cfft_radix4_f32.c **** 
 452:Source\TransformFunctions/arm_cfft_radix4_f32.c ****       /* (yb-yd) */
 453:Source\TransformFunctions/arm_cfft_radix4_f32.c ****       Ybminusd = ybIn - ydIn;
 454:Source\TransformFunctions/arm_cfft_radix4_f32.c **** 
 455:Source\TransformFunctions/arm_cfft_radix4_f32.c ****       /* xa' = xa + xb + xc + xd */
 456:Source\TransformFunctions/arm_cfft_radix4_f32.c ****       a0 = (Xaplusc + Xbplusd);
 457:Source\TransformFunctions/arm_cfft_radix4_f32.c ****       /* ya' = ya + yb + yc + yd */
 458:Source\TransformFunctions/arm_cfft_radix4_f32.c ****       a1 = (Yaplusc + Ybplusd);
 459:Source\TransformFunctions/arm_cfft_radix4_f32.c ****       /* xc' = (xa-xb+xc-xd) */
 460:Source\TransformFunctions/arm_cfft_radix4_f32.c ****       a2 = (Xaplusc - Xbplusd);
 461:Source\TransformFunctions/arm_cfft_radix4_f32.c ****       /* yc' = (ya-yb+yc-yd) */
 462:Source\TransformFunctions/arm_cfft_radix4_f32.c ****       a3 = (Yaplusc - Ybplusd);
 463:Source\TransformFunctions/arm_cfft_radix4_f32.c ****       /* xb' = (xa+yb-xc-yd) */
 464:Source\TransformFunctions/arm_cfft_radix4_f32.c ****       a4 = (Xaminusc + Ybminusd);
 465:Source\TransformFunctions/arm_cfft_radix4_f32.c ****       /* yb' = (ya-xb-yc+xd) */
 466:Source\TransformFunctions/arm_cfft_radix4_f32.c ****       a5 = (Yaminusc - Xbminusd);
 467:Source\TransformFunctions/arm_cfft_radix4_f32.c ****       /* xd' = (xa-yb-xc+yd)) */
 468:Source\TransformFunctions/arm_cfft_radix4_f32.c ****       a6 = (Xaminusc - Ybminusd);
 469:Source\TransformFunctions/arm_cfft_radix4_f32.c ****       /* yd' = (ya+xb-yc-xd) */
 470:Source\TransformFunctions/arm_cfft_radix4_f32.c ****       a7 = (Xbminusd + Yaminusc);
 471:Source\TransformFunctions/arm_cfft_radix4_f32.c **** 
 472:Source\TransformFunctions/arm_cfft_radix4_f32.c ****       ptr1[0] = a0;
 473:Source\TransformFunctions/arm_cfft_radix4_f32.c ****       ptr1[1] = a1;
 474:Source\TransformFunctions/arm_cfft_radix4_f32.c ****       ptr1[2] = a2;
 475:Source\TransformFunctions/arm_cfft_radix4_f32.c ****       ptr1[3] = a3;
 476:Source\TransformFunctions/arm_cfft_radix4_f32.c ****       ptr1[4] = a4;
 477:Source\TransformFunctions/arm_cfft_radix4_f32.c ****       ptr1[5] = a5;
 478:Source\TransformFunctions/arm_cfft_radix4_f32.c ****       ptr1[6] = a6;
 479:Source\TransformFunctions/arm_cfft_radix4_f32.c ****       ptr1[7] = a7;
 480:Source\TransformFunctions/arm_cfft_radix4_f32.c **** 
 481:Source\TransformFunctions/arm_cfft_radix4_f32.c ****       /* increment pointer by 8 */
 482:Source\TransformFunctions/arm_cfft_radix4_f32.c ****       ptr1 += 8u;
 483:Source\TransformFunctions/arm_cfft_radix4_f32.c ****    } while (--j);
 484:Source\TransformFunctions/arm_cfft_radix4_f32.c **** 
 485:Source\TransformFunctions/arm_cfft_radix4_f32.c **** #else
 486:Source\TransformFunctions/arm_cfft_radix4_f32.c **** 
 487:Source\TransformFunctions/arm_cfft_radix4_f32.c ****    float32_t t1, t2, r1, r2, s1, s2;
 488:Source\TransformFunctions/arm_cfft_radix4_f32.c **** 
 489:Source\TransformFunctions/arm_cfft_radix4_f32.c ****    /* Run the below code for Cortex-M0 */
 490:Source\TransformFunctions/arm_cfft_radix4_f32.c **** 
 491:Source\TransformFunctions/arm_cfft_radix4_f32.c ****    /*  Initializations for the fft calculation */
 492:Source\TransformFunctions/arm_cfft_radix4_f32.c ****    n2 = fftLen;
 127              		.loc 1 492 0
 128 001e 0A23     		mov	r3, #10
 129 0020 FB18     		add	r3, r7, r3
 130 0022 1B88     		ldrh	r3, [r3]
 131 0024 7B66     		str	r3, [r7, #100]
 493:Source\TransformFunctions/arm_cfft_radix4_f32.c ****    n1 = n2;
 132              		.loc 1 493 0
 133 0026 7B6E     		ldr	r3, [r7, #100]
 134 0028 BB65     		str	r3, [r7, #88]
ARM GAS  C:\Users\fneves\AppData\Local\Temp\ccyQHZqi.s 			page 12


 494:Source\TransformFunctions/arm_cfft_radix4_f32.c ****    for (k = fftLen; k > 1u; k >>= 2u)
 135              		.loc 1 494 0
 136 002a 0A23     		mov	r3, #10
 137 002c FB18     		add	r3, r7, r3
 138 002e 1B88     		ldrh	r3, [r3]
 139 0030 FB65     		str	r3, [r7, #92]
 140 0032 ABE1     		b	.L6
 141              	.L9:
 495:Source\TransformFunctions/arm_cfft_radix4_f32.c ****    {
 496:Source\TransformFunctions/arm_cfft_radix4_f32.c ****       /*  Initializations for the fft calculation */
 497:Source\TransformFunctions/arm_cfft_radix4_f32.c ****       n1 = n2;
 142              		.loc 1 497 0
 143 0034 7B6E     		ldr	r3, [r7, #100]
 144 0036 BB65     		str	r3, [r7, #88]
 498:Source\TransformFunctions/arm_cfft_radix4_f32.c ****       n2 >>= 2u;
 145              		.loc 1 498 0
 146 0038 7B6E     		ldr	r3, [r7, #100]
 147 003a 9B08     		lsr	r3, r3, #2
 148 003c 7B66     		str	r3, [r7, #100]
 499:Source\TransformFunctions/arm_cfft_radix4_f32.c ****       ia1 = 0u;
 149              		.loc 1 499 0
 150 003e 0023     		mov	r3, #0
 151 0040 FB66     		str	r3, [r7, #108]
 500:Source\TransformFunctions/arm_cfft_radix4_f32.c **** 
 501:Source\TransformFunctions/arm_cfft_radix4_f32.c ****       /*  FFT Calculation */
 502:Source\TransformFunctions/arm_cfft_radix4_f32.c ****       j = 0;
 152              		.loc 1 502 0
 153 0042 0023     		mov	r3, #0
 154 0044 3B66     		str	r3, [r7, #96]
 155              	.L8:
 503:Source\TransformFunctions/arm_cfft_radix4_f32.c ****       do
 504:Source\TransformFunctions/arm_cfft_radix4_f32.c ****       {
 505:Source\TransformFunctions/arm_cfft_radix4_f32.c ****          /*  index calculation for the coefficients */
 506:Source\TransformFunctions/arm_cfft_radix4_f32.c ****          ia2 = ia1 + ia1;
 156              		.loc 1 506 0
 157 0046 FA6E     		ldr	r2, [r7, #108]
 158 0048 FB6E     		ldr	r3, [r7, #108]
 159 004a D318     		add	r3, r2, r3
 160 004c 7B65     		str	r3, [r7, #84]
 507:Source\TransformFunctions/arm_cfft_radix4_f32.c ****          ia3 = ia2 + ia1;
 161              		.loc 1 507 0
 162 004e 7A6D     		ldr	r2, [r7, #84]
 163 0050 FB6E     		ldr	r3, [r7, #108]
 164 0052 D318     		add	r3, r2, r3
 165 0054 3B65     		str	r3, [r7, #80]
 508:Source\TransformFunctions/arm_cfft_radix4_f32.c ****          co1 = pCoef[ia1 * 2u];
 166              		.loc 1 508 0
 167 0056 FB6E     		ldr	r3, [r7, #108]
 168 0058 DB00     		lsl	r3, r3, #3
 169 005a 7A68     		ldr	r2, [r7, #4]
 170 005c D318     		add	r3, r2, r3
 171 005e 1B68     		ldr	r3, [r3]
 172 0060 FB64     		str	r3, [r7, #76]
 509:Source\TransformFunctions/arm_cfft_radix4_f32.c ****          si1 = pCoef[(ia1 * 2u) + 1u];
 173              		.loc 1 509 0
 174 0062 FB6E     		ldr	r3, [r7, #108]
 175 0064 DB00     		lsl	r3, r3, #3
ARM GAS  C:\Users\fneves\AppData\Local\Temp\ccyQHZqi.s 			page 13


 176 0066 0433     		add	r3, r3, #4
 177 0068 7A68     		ldr	r2, [r7, #4]
 178 006a D318     		add	r3, r2, r3
 179 006c 1B68     		ldr	r3, [r3]
 180 006e BB64     		str	r3, [r7, #72]
 510:Source\TransformFunctions/arm_cfft_radix4_f32.c ****          co2 = pCoef[ia2 * 2u];
 181              		.loc 1 510 0
 182 0070 7B6D     		ldr	r3, [r7, #84]
 183 0072 DB00     		lsl	r3, r3, #3
 184 0074 7A68     		ldr	r2, [r7, #4]
 185 0076 D318     		add	r3, r2, r3
 186 0078 1B68     		ldr	r3, [r3]
 187 007a 7B64     		str	r3, [r7, #68]
 511:Source\TransformFunctions/arm_cfft_radix4_f32.c ****          si2 = pCoef[(ia2 * 2u) + 1u];
 188              		.loc 1 511 0
 189 007c 7B6D     		ldr	r3, [r7, #84]
 190 007e DB00     		lsl	r3, r3, #3
 191 0080 0433     		add	r3, r3, #4
 192 0082 7A68     		ldr	r2, [r7, #4]
 193 0084 D318     		add	r3, r2, r3
 194 0086 1B68     		ldr	r3, [r3]
 195 0088 3B64     		str	r3, [r7, #64]
 512:Source\TransformFunctions/arm_cfft_radix4_f32.c ****          co3 = pCoef[ia3 * 2u];
 196              		.loc 1 512 0
 197 008a 3B6D     		ldr	r3, [r7, #80]
 198 008c DB00     		lsl	r3, r3, #3
 199 008e 7A68     		ldr	r2, [r7, #4]
 200 0090 D318     		add	r3, r2, r3
 201 0092 1B68     		ldr	r3, [r3]
 202 0094 FB63     		str	r3, [r7, #60]
 513:Source\TransformFunctions/arm_cfft_radix4_f32.c ****          si3 = pCoef[(ia3 * 2u) + 1u];
 203              		.loc 1 513 0
 204 0096 3B6D     		ldr	r3, [r7, #80]
 205 0098 DB00     		lsl	r3, r3, #3
 206 009a 0433     		add	r3, r3, #4
 207 009c 7A68     		ldr	r2, [r7, #4]
 208 009e D318     		add	r3, r2, r3
 209 00a0 1B68     		ldr	r3, [r3]
 210 00a2 BB63     		str	r3, [r7, #56]
 514:Source\TransformFunctions/arm_cfft_radix4_f32.c **** 
 515:Source\TransformFunctions/arm_cfft_radix4_f32.c ****          /*  Twiddle coefficients index modifier */
 516:Source\TransformFunctions/arm_cfft_radix4_f32.c ****          ia1 = ia1 + twidCoefModifier;
 211              		.loc 1 516 0
 212 00a4 0823     		mov	r3, #8
 213 00a6 FB18     		add	r3, r7, r3
 214 00a8 1B88     		ldrh	r3, [r3]
 215 00aa FA6E     		ldr	r2, [r7, #108]
 216 00ac D318     		add	r3, r2, r3
 217 00ae FB66     		str	r3, [r7, #108]
 517:Source\TransformFunctions/arm_cfft_radix4_f32.c **** 
 518:Source\TransformFunctions/arm_cfft_radix4_f32.c ****          i0 = j;
 218              		.loc 1 518 0
 219 00b0 3B6E     		ldr	r3, [r7, #96]
 220 00b2 BB66     		str	r3, [r7, #104]
 221              	.L7:
 519:Source\TransformFunctions/arm_cfft_radix4_f32.c ****          do
 520:Source\TransformFunctions/arm_cfft_radix4_f32.c ****          {
ARM GAS  C:\Users\fneves\AppData\Local\Temp\ccyQHZqi.s 			page 14


 521:Source\TransformFunctions/arm_cfft_radix4_f32.c ****             /*  index calculation for the input as, */
 522:Source\TransformFunctions/arm_cfft_radix4_f32.c ****             /*  pSrc[i0 + 0], pSrc[i0 + fftLen/4], pSrc[i0 + fftLen/2], pSrc[i0 + 3fftLen/4] */
 523:Source\TransformFunctions/arm_cfft_radix4_f32.c ****             i1 = i0 + n2;
 222              		.loc 1 523 0 discriminator 1
 223 00b4 BA6E     		ldr	r2, [r7, #104]
 224 00b6 7B6E     		ldr	r3, [r7, #100]
 225 00b8 D318     		add	r3, r2, r3
 226 00ba 7B63     		str	r3, [r7, #52]
 524:Source\TransformFunctions/arm_cfft_radix4_f32.c ****             i2 = i1 + n2;
 227              		.loc 1 524 0 discriminator 1
 228 00bc 7A6B     		ldr	r2, [r7, #52]
 229 00be 7B6E     		ldr	r3, [r7, #100]
 230 00c0 D318     		add	r3, r2, r3
 231 00c2 3B63     		str	r3, [r7, #48]
 525:Source\TransformFunctions/arm_cfft_radix4_f32.c ****             i3 = i2 + n2;
 232              		.loc 1 525 0 discriminator 1
 233 00c4 3A6B     		ldr	r2, [r7, #48]
 234 00c6 7B6E     		ldr	r3, [r7, #100]
 235 00c8 D318     		add	r3, r2, r3
 236 00ca FB62     		str	r3, [r7, #44]
 526:Source\TransformFunctions/arm_cfft_radix4_f32.c **** 
 527:Source\TransformFunctions/arm_cfft_radix4_f32.c ****             /* xa + xc */
 528:Source\TransformFunctions/arm_cfft_radix4_f32.c ****             r1 = pSrc[(2u * i0)] + pSrc[(2u * i2)];
 237              		.loc 1 528 0 discriminator 1
 238 00cc BB6E     		ldr	r3, [r7, #104]
 239 00ce DB00     		lsl	r3, r3, #3
 240 00d0 FA68     		ldr	r2, [r7, #12]
 241 00d2 D318     		add	r3, r2, r3
 242 00d4 1968     		ldr	r1, [r3]
 243 00d6 3B6B     		ldr	r3, [r7, #48]
 244 00d8 DB00     		lsl	r3, r3, #3
 245 00da FA68     		ldr	r2, [r7, #12]
 246 00dc D318     		add	r3, r2, r3
 247 00de 1B68     		ldr	r3, [r3]
 248 00e0 081C     		add	r0, r1, #0
 249 00e2 191C     		add	r1, r3, #0
 250 00e4 FFF7FEFF 		bl	__aeabi_fadd
 251 00e8 031C     		add	r3, r0, #0
 252 00ea BB62     		str	r3, [r7, #40]
 529:Source\TransformFunctions/arm_cfft_radix4_f32.c **** 
 530:Source\TransformFunctions/arm_cfft_radix4_f32.c ****             /* xa - xc */
 531:Source\TransformFunctions/arm_cfft_radix4_f32.c ****             r2 = pSrc[(2u * i0)] - pSrc[(2u * i2)];
 253              		.loc 1 531 0 discriminator 1
 254 00ec BB6E     		ldr	r3, [r7, #104]
 255 00ee DB00     		lsl	r3, r3, #3
 256 00f0 FA68     		ldr	r2, [r7, #12]
 257 00f2 D318     		add	r3, r2, r3
 258 00f4 1968     		ldr	r1, [r3]
 259 00f6 3B6B     		ldr	r3, [r7, #48]
 260 00f8 DB00     		lsl	r3, r3, #3
 261 00fa FA68     		ldr	r2, [r7, #12]
 262 00fc D318     		add	r3, r2, r3
 263 00fe 1B68     		ldr	r3, [r3]
 264 0100 081C     		add	r0, r1, #0
 265 0102 191C     		add	r1, r3, #0
 266 0104 FFF7FEFF 		bl	__aeabi_fsub
 267 0108 031C     		add	r3, r0, #0
ARM GAS  C:\Users\fneves\AppData\Local\Temp\ccyQHZqi.s 			page 15


 268 010a 7B62     		str	r3, [r7, #36]
 532:Source\TransformFunctions/arm_cfft_radix4_f32.c **** 
 533:Source\TransformFunctions/arm_cfft_radix4_f32.c ****             /* ya + yc */
 534:Source\TransformFunctions/arm_cfft_radix4_f32.c ****             s1 = pSrc[(2u * i0) + 1u] + pSrc[(2u * i2) + 1u];
 269              		.loc 1 534 0 discriminator 1
 270 010c BB6E     		ldr	r3, [r7, #104]
 271 010e DB00     		lsl	r3, r3, #3
 272 0110 0433     		add	r3, r3, #4
 273 0112 FA68     		ldr	r2, [r7, #12]
 274 0114 D318     		add	r3, r2, r3
 275 0116 1968     		ldr	r1, [r3]
 276 0118 3B6B     		ldr	r3, [r7, #48]
 277 011a DB00     		lsl	r3, r3, #3
 278 011c 0433     		add	r3, r3, #4
 279 011e FA68     		ldr	r2, [r7, #12]
 280 0120 D318     		add	r3, r2, r3
 281 0122 1B68     		ldr	r3, [r3]
 282 0124 081C     		add	r0, r1, #0
 283 0126 191C     		add	r1, r3, #0
 284 0128 FFF7FEFF 		bl	__aeabi_fadd
 285 012c 031C     		add	r3, r0, #0
 286 012e 3B62     		str	r3, [r7, #32]
 535:Source\TransformFunctions/arm_cfft_radix4_f32.c **** 
 536:Source\TransformFunctions/arm_cfft_radix4_f32.c ****             /* ya - yc */
 537:Source\TransformFunctions/arm_cfft_radix4_f32.c ****             s2 = pSrc[(2u * i0) + 1u] - pSrc[(2u * i2) + 1u];
 287              		.loc 1 537 0 discriminator 1
 288 0130 BB6E     		ldr	r3, [r7, #104]
 289 0132 DB00     		lsl	r3, r3, #3
 290 0134 0433     		add	r3, r3, #4
 291 0136 FA68     		ldr	r2, [r7, #12]
 292 0138 D318     		add	r3, r2, r3
 293 013a 1968     		ldr	r1, [r3]
 294 013c 3B6B     		ldr	r3, [r7, #48]
 295 013e DB00     		lsl	r3, r3, #3
 296 0140 0433     		add	r3, r3, #4
 297 0142 FA68     		ldr	r2, [r7, #12]
 298 0144 D318     		add	r3, r2, r3
 299 0146 1B68     		ldr	r3, [r3]
 300 0148 081C     		add	r0, r1, #0
 301 014a 191C     		add	r1, r3, #0
 302 014c FFF7FEFF 		bl	__aeabi_fsub
 303 0150 031C     		add	r3, r0, #0
 304 0152 FB61     		str	r3, [r7, #28]
 538:Source\TransformFunctions/arm_cfft_radix4_f32.c **** 
 539:Source\TransformFunctions/arm_cfft_radix4_f32.c ****             /* xb + xd */
 540:Source\TransformFunctions/arm_cfft_radix4_f32.c ****             t1 = pSrc[2u * i1] + pSrc[2u * i3];
 305              		.loc 1 540 0 discriminator 1
 306 0154 7B6B     		ldr	r3, [r7, #52]
 307 0156 DB00     		lsl	r3, r3, #3
 308 0158 FA68     		ldr	r2, [r7, #12]
 309 015a D318     		add	r3, r2, r3
 310 015c 1968     		ldr	r1, [r3]
 311 015e FB6A     		ldr	r3, [r7, #44]
 312 0160 DB00     		lsl	r3, r3, #3
 313 0162 FA68     		ldr	r2, [r7, #12]
 314 0164 D318     		add	r3, r2, r3
 315 0166 1B68     		ldr	r3, [r3]
ARM GAS  C:\Users\fneves\AppData\Local\Temp\ccyQHZqi.s 			page 16


 316 0168 081C     		add	r0, r1, #0
 317 016a 191C     		add	r1, r3, #0
 318 016c FFF7FEFF 		bl	__aeabi_fadd
 319 0170 031C     		add	r3, r0, #0
 320 0172 BB61     		str	r3, [r7, #24]
 541:Source\TransformFunctions/arm_cfft_radix4_f32.c **** 
 542:Source\TransformFunctions/arm_cfft_radix4_f32.c ****             /* xa' = xa + xb + xc + xd */
 543:Source\TransformFunctions/arm_cfft_radix4_f32.c ****             pSrc[2u * i0] = r1 + t1;
 321              		.loc 1 543 0 discriminator 1
 322 0174 BB6E     		ldr	r3, [r7, #104]
 323 0176 DB00     		lsl	r3, r3, #3
 324 0178 FA68     		ldr	r2, [r7, #12]
 325 017a D418     		add	r4, r2, r3
 326 017c B86A     		ldr	r0, [r7, #40]
 327 017e B969     		ldr	r1, [r7, #24]
 328 0180 FFF7FEFF 		bl	__aeabi_fadd
 329 0184 031C     		add	r3, r0, #0
 330 0186 2360     		str	r3, [r4]
 544:Source\TransformFunctions/arm_cfft_radix4_f32.c **** 
 545:Source\TransformFunctions/arm_cfft_radix4_f32.c ****             /* xa + xc -(xb + xd) */
 546:Source\TransformFunctions/arm_cfft_radix4_f32.c ****             r1 = r1 - t1;
 331              		.loc 1 546 0 discriminator 1
 332 0188 B86A     		ldr	r0, [r7, #40]
 333 018a B969     		ldr	r1, [r7, #24]
 334 018c FFF7FEFF 		bl	__aeabi_fsub
 335 0190 031C     		add	r3, r0, #0
 336 0192 BB62     		str	r3, [r7, #40]
 547:Source\TransformFunctions/arm_cfft_radix4_f32.c **** 
 548:Source\TransformFunctions/arm_cfft_radix4_f32.c ****             /* yb + yd */
 549:Source\TransformFunctions/arm_cfft_radix4_f32.c ****             t2 = pSrc[(2u * i1) + 1u] + pSrc[(2u * i3) + 1u];
 337              		.loc 1 549 0 discriminator 1
 338 0194 7B6B     		ldr	r3, [r7, #52]
 339 0196 DB00     		lsl	r3, r3, #3
 340 0198 0433     		add	r3, r3, #4
 341 019a FA68     		ldr	r2, [r7, #12]
 342 019c D318     		add	r3, r2, r3
 343 019e 1968     		ldr	r1, [r3]
 344 01a0 FB6A     		ldr	r3, [r7, #44]
 345 01a2 DB00     		lsl	r3, r3, #3
 346 01a4 0433     		add	r3, r3, #4
 347 01a6 FA68     		ldr	r2, [r7, #12]
 348 01a8 D318     		add	r3, r2, r3
 349 01aa 1B68     		ldr	r3, [r3]
 350 01ac 081C     		add	r0, r1, #0
 351 01ae 191C     		add	r1, r3, #0
 352 01b0 FFF7FEFF 		bl	__aeabi_fadd
 353 01b4 031C     		add	r3, r0, #0
 354 01b6 7B61     		str	r3, [r7, #20]
 550:Source\TransformFunctions/arm_cfft_radix4_f32.c **** 
 551:Source\TransformFunctions/arm_cfft_radix4_f32.c ****             /* ya' = ya + yb + yc + yd */
 552:Source\TransformFunctions/arm_cfft_radix4_f32.c ****             pSrc[(2u * i0) + 1u] = s1 + t2;
 355              		.loc 1 552 0 discriminator 1
 356 01b8 BB6E     		ldr	r3, [r7, #104]
 357 01ba DB00     		lsl	r3, r3, #3
 358 01bc 0433     		add	r3, r3, #4
 359 01be FA68     		ldr	r2, [r7, #12]
 360 01c0 D418     		add	r4, r2, r3
ARM GAS  C:\Users\fneves\AppData\Local\Temp\ccyQHZqi.s 			page 17


 361 01c2 386A     		ldr	r0, [r7, #32]
 362 01c4 7969     		ldr	r1, [r7, #20]
 363 01c6 FFF7FEFF 		bl	__aeabi_fadd
 364 01ca 031C     		add	r3, r0, #0
 365 01cc 2360     		str	r3, [r4]
 553:Source\TransformFunctions/arm_cfft_radix4_f32.c **** 
 554:Source\TransformFunctions/arm_cfft_radix4_f32.c ****             /* (ya + yc) - (yb + yd) */
 555:Source\TransformFunctions/arm_cfft_radix4_f32.c ****             s1 = s1 - t2;
 366              		.loc 1 555 0 discriminator 1
 367 01ce 386A     		ldr	r0, [r7, #32]
 368 01d0 7969     		ldr	r1, [r7, #20]
 369 01d2 FFF7FEFF 		bl	__aeabi_fsub
 370 01d6 031C     		add	r3, r0, #0
 371 01d8 3B62     		str	r3, [r7, #32]
 556:Source\TransformFunctions/arm_cfft_radix4_f32.c **** 
 557:Source\TransformFunctions/arm_cfft_radix4_f32.c ****             /* (yb - yd) */
 558:Source\TransformFunctions/arm_cfft_radix4_f32.c ****             t1 = pSrc[(2u * i1) + 1u] - pSrc[(2u * i3) + 1u];
 372              		.loc 1 558 0 discriminator 1
 373 01da 7B6B     		ldr	r3, [r7, #52]
 374 01dc DB00     		lsl	r3, r3, #3
 375 01de 0433     		add	r3, r3, #4
 376 01e0 FA68     		ldr	r2, [r7, #12]
 377 01e2 D318     		add	r3, r2, r3
 378 01e4 1968     		ldr	r1, [r3]
 379 01e6 FB6A     		ldr	r3, [r7, #44]
 380 01e8 DB00     		lsl	r3, r3, #3
 381 01ea 0433     		add	r3, r3, #4
 382 01ec FA68     		ldr	r2, [r7, #12]
 383 01ee D318     		add	r3, r2, r3
 384 01f0 1B68     		ldr	r3, [r3]
 385 01f2 081C     		add	r0, r1, #0
 386 01f4 191C     		add	r1, r3, #0
 387 01f6 FFF7FEFF 		bl	__aeabi_fsub
 388 01fa 031C     		add	r3, r0, #0
 389 01fc BB61     		str	r3, [r7, #24]
 559:Source\TransformFunctions/arm_cfft_radix4_f32.c **** 
 560:Source\TransformFunctions/arm_cfft_radix4_f32.c ****             /* (xb - xd) */
 561:Source\TransformFunctions/arm_cfft_radix4_f32.c ****             t2 = pSrc[2u * i1] - pSrc[2u * i3];
 390              		.loc 1 561 0 discriminator 1
 391 01fe 7B6B     		ldr	r3, [r7, #52]
 392 0200 DB00     		lsl	r3, r3, #3
 393 0202 FA68     		ldr	r2, [r7, #12]
 394 0204 D318     		add	r3, r2, r3
 395 0206 1968     		ldr	r1, [r3]
 396 0208 FB6A     		ldr	r3, [r7, #44]
 397 020a DB00     		lsl	r3, r3, #3
 398 020c FA68     		ldr	r2, [r7, #12]
 399 020e D318     		add	r3, r2, r3
 400 0210 1B68     		ldr	r3, [r3]
 401 0212 081C     		add	r0, r1, #0
 402 0214 191C     		add	r1, r3, #0
 403 0216 FFF7FEFF 		bl	__aeabi_fsub
 404 021a 031C     		add	r3, r0, #0
 405 021c 7B61     		str	r3, [r7, #20]
 562:Source\TransformFunctions/arm_cfft_radix4_f32.c **** 
 563:Source\TransformFunctions/arm_cfft_radix4_f32.c ****             /* xc' = (xa-xb+xc-xd)co2 + (ya-yb+yc-yd)(si2) */
 564:Source\TransformFunctions/arm_cfft_radix4_f32.c ****             pSrc[2u * i1] = (r1 * co2) + (s1 * si2);
ARM GAS  C:\Users\fneves\AppData\Local\Temp\ccyQHZqi.s 			page 18


 406              		.loc 1 564 0 discriminator 1
 407 021e 7B6B     		ldr	r3, [r7, #52]
 408 0220 DB00     		lsl	r3, r3, #3
 409 0222 FA68     		ldr	r2, [r7, #12]
 410 0224 D418     		add	r4, r2, r3
 411 0226 B86A     		ldr	r0, [r7, #40]
 412 0228 796C     		ldr	r1, [r7, #68]
 413 022a FFF7FEFF 		bl	__aeabi_fmul
 414 022e 031C     		add	r3, r0, #0
 415 0230 1D1C     		add	r5, r3, #0
 416 0232 386A     		ldr	r0, [r7, #32]
 417 0234 396C     		ldr	r1, [r7, #64]
 418 0236 FFF7FEFF 		bl	__aeabi_fmul
 419 023a 031C     		add	r3, r0, #0
 420 023c 281C     		add	r0, r5, #0
 421 023e 191C     		add	r1, r3, #0
 422 0240 FFF7FEFF 		bl	__aeabi_fadd
 423 0244 031C     		add	r3, r0, #0
 424 0246 2360     		str	r3, [r4]
 565:Source\TransformFunctions/arm_cfft_radix4_f32.c **** 
 566:Source\TransformFunctions/arm_cfft_radix4_f32.c ****             /* yc' = (ya-yb+yc-yd)co2 - (xa-xb+xc-xd)(si2) */
 567:Source\TransformFunctions/arm_cfft_radix4_f32.c ****             pSrc[(2u * i1) + 1u] = (s1 * co2) - (r1 * si2);
 425              		.loc 1 567 0 discriminator 1
 426 0248 7B6B     		ldr	r3, [r7, #52]
 427 024a DB00     		lsl	r3, r3, #3
 428 024c 0433     		add	r3, r3, #4
 429 024e FA68     		ldr	r2, [r7, #12]
 430 0250 D418     		add	r4, r2, r3
 431 0252 386A     		ldr	r0, [r7, #32]
 432 0254 796C     		ldr	r1, [r7, #68]
 433 0256 FFF7FEFF 		bl	__aeabi_fmul
 434 025a 031C     		add	r3, r0, #0
 435 025c 1D1C     		add	r5, r3, #0
 436 025e B86A     		ldr	r0, [r7, #40]
 437 0260 396C     		ldr	r1, [r7, #64]
 438 0262 FFF7FEFF 		bl	__aeabi_fmul
 439 0266 031C     		add	r3, r0, #0
 440 0268 281C     		add	r0, r5, #0
 441 026a 191C     		add	r1, r3, #0
 442 026c FFF7FEFF 		bl	__aeabi_fsub
 443 0270 031C     		add	r3, r0, #0
 444 0272 2360     		str	r3, [r4]
 568:Source\TransformFunctions/arm_cfft_radix4_f32.c **** 
 569:Source\TransformFunctions/arm_cfft_radix4_f32.c ****             /* (xa - xc) + (yb - yd) */
 570:Source\TransformFunctions/arm_cfft_radix4_f32.c ****             r1 = r2 + t1;
 445              		.loc 1 570 0 discriminator 1
 446 0274 786A     		ldr	r0, [r7, #36]
 447 0276 B969     		ldr	r1, [r7, #24]
 448 0278 FFF7FEFF 		bl	__aeabi_fadd
 449 027c 031C     		add	r3, r0, #0
 450 027e BB62     		str	r3, [r7, #40]
 571:Source\TransformFunctions/arm_cfft_radix4_f32.c **** 
 572:Source\TransformFunctions/arm_cfft_radix4_f32.c ****             /* (xa - xc) - (yb - yd) */
 573:Source\TransformFunctions/arm_cfft_radix4_f32.c ****             r2 = r2 - t1;
 451              		.loc 1 573 0 discriminator 1
 452 0280 786A     		ldr	r0, [r7, #36]
 453 0282 B969     		ldr	r1, [r7, #24]
ARM GAS  C:\Users\fneves\AppData\Local\Temp\ccyQHZqi.s 			page 19


 454 0284 FFF7FEFF 		bl	__aeabi_fsub
 455 0288 031C     		add	r3, r0, #0
 456 028a 7B62     		str	r3, [r7, #36]
 574:Source\TransformFunctions/arm_cfft_radix4_f32.c **** 
 575:Source\TransformFunctions/arm_cfft_radix4_f32.c ****             /* (ya - yc) -  (xb - xd) */
 576:Source\TransformFunctions/arm_cfft_radix4_f32.c ****             s1 = s2 - t2;
 457              		.loc 1 576 0 discriminator 1
 458 028c F869     		ldr	r0, [r7, #28]
 459 028e 7969     		ldr	r1, [r7, #20]
 460 0290 FFF7FEFF 		bl	__aeabi_fsub
 461 0294 031C     		add	r3, r0, #0
 462 0296 3B62     		str	r3, [r7, #32]
 577:Source\TransformFunctions/arm_cfft_radix4_f32.c **** 
 578:Source\TransformFunctions/arm_cfft_radix4_f32.c ****             /* (ya - yc) +  (xb - xd) */
 579:Source\TransformFunctions/arm_cfft_radix4_f32.c ****             s2 = s2 + t2;
 463              		.loc 1 579 0 discriminator 1
 464 0298 F869     		ldr	r0, [r7, #28]
 465 029a 7969     		ldr	r1, [r7, #20]
 466 029c FFF7FEFF 		bl	__aeabi_fadd
 467 02a0 031C     		add	r3, r0, #0
 468 02a2 FB61     		str	r3, [r7, #28]
 580:Source\TransformFunctions/arm_cfft_radix4_f32.c **** 
 581:Source\TransformFunctions/arm_cfft_radix4_f32.c ****             /* xb' = (xa+yb-xc-yd)co1 + (ya-xb-yc+xd)(si1) */
 582:Source\TransformFunctions/arm_cfft_radix4_f32.c ****             pSrc[2u * i2] = (r1 * co1) + (s1 * si1);
 469              		.loc 1 582 0 discriminator 1
 470 02a4 3B6B     		ldr	r3, [r7, #48]
 471 02a6 DB00     		lsl	r3, r3, #3
 472 02a8 FA68     		ldr	r2, [r7, #12]
 473 02aa D418     		add	r4, r2, r3
 474 02ac B86A     		ldr	r0, [r7, #40]
 475 02ae F96C     		ldr	r1, [r7, #76]
 476 02b0 FFF7FEFF 		bl	__aeabi_fmul
 477 02b4 031C     		add	r3, r0, #0
 478 02b6 1D1C     		add	r5, r3, #0
 479 02b8 386A     		ldr	r0, [r7, #32]
 480 02ba B96C     		ldr	r1, [r7, #72]
 481 02bc FFF7FEFF 		bl	__aeabi_fmul
 482 02c0 031C     		add	r3, r0, #0
 483 02c2 281C     		add	r0, r5, #0
 484 02c4 191C     		add	r1, r3, #0
 485 02c6 FFF7FEFF 		bl	__aeabi_fadd
 486 02ca 031C     		add	r3, r0, #0
 487 02cc 2360     		str	r3, [r4]
 583:Source\TransformFunctions/arm_cfft_radix4_f32.c **** 
 584:Source\TransformFunctions/arm_cfft_radix4_f32.c ****             /* yb' = (ya-xb-yc+xd)co1 - (xa+yb-xc-yd)(si1) */
 585:Source\TransformFunctions/arm_cfft_radix4_f32.c ****             pSrc[(2u * i2) + 1u] = (s1 * co1) - (r1 * si1);
 488              		.loc 1 585 0 discriminator 1
 489 02ce 3B6B     		ldr	r3, [r7, #48]
 490 02d0 DB00     		lsl	r3, r3, #3
 491 02d2 0433     		add	r3, r3, #4
 492 02d4 FA68     		ldr	r2, [r7, #12]
 493 02d6 D418     		add	r4, r2, r3
 494 02d8 386A     		ldr	r0, [r7, #32]
 495 02da F96C     		ldr	r1, [r7, #76]
 496 02dc FFF7FEFF 		bl	__aeabi_fmul
 497 02e0 031C     		add	r3, r0, #0
 498 02e2 1D1C     		add	r5, r3, #0
ARM GAS  C:\Users\fneves\AppData\Local\Temp\ccyQHZqi.s 			page 20


 499 02e4 B86A     		ldr	r0, [r7, #40]
 500 02e6 B96C     		ldr	r1, [r7, #72]
 501 02e8 FFF7FEFF 		bl	__aeabi_fmul
 502 02ec 031C     		add	r3, r0, #0
 503 02ee 281C     		add	r0, r5, #0
 504 02f0 191C     		add	r1, r3, #0
 505 02f2 FFF7FEFF 		bl	__aeabi_fsub
 506 02f6 031C     		add	r3, r0, #0
 507 02f8 2360     		str	r3, [r4]
 586:Source\TransformFunctions/arm_cfft_radix4_f32.c **** 
 587:Source\TransformFunctions/arm_cfft_radix4_f32.c ****             /* xd' = (xa-yb-xc+yd)co3 + (ya+xb-yc-xd)(si3) */
 588:Source\TransformFunctions/arm_cfft_radix4_f32.c ****             pSrc[2u * i3] = (r2 * co3) + (s2 * si3);
 508              		.loc 1 588 0 discriminator 1
 509 02fa FB6A     		ldr	r3, [r7, #44]
 510 02fc DB00     		lsl	r3, r3, #3
 511 02fe FA68     		ldr	r2, [r7, #12]
 512 0300 D418     		add	r4, r2, r3
 513 0302 786A     		ldr	r0, [r7, #36]
 514 0304 F96B     		ldr	r1, [r7, #60]
 515 0306 FFF7FEFF 		bl	__aeabi_fmul
 516 030a 031C     		add	r3, r0, #0
 517 030c 1D1C     		add	r5, r3, #0
 518 030e F869     		ldr	r0, [r7, #28]
 519 0310 B96B     		ldr	r1, [r7, #56]
 520 0312 FFF7FEFF 		bl	__aeabi_fmul
 521 0316 031C     		add	r3, r0, #0
 522 0318 281C     		add	r0, r5, #0
 523 031a 191C     		add	r1, r3, #0
 524 031c FFF7FEFF 		bl	__aeabi_fadd
 525 0320 031C     		add	r3, r0, #0
 526 0322 2360     		str	r3, [r4]
 589:Source\TransformFunctions/arm_cfft_radix4_f32.c **** 
 590:Source\TransformFunctions/arm_cfft_radix4_f32.c ****             /* yd' = (ya+xb-yc-xd)co3 - (xa-yb-xc+yd)(si3) */
 591:Source\TransformFunctions/arm_cfft_radix4_f32.c ****             pSrc[(2u * i3) + 1u] = (s2 * co3) - (r2 * si3);
 527              		.loc 1 591 0 discriminator 1
 528 0324 FB6A     		ldr	r3, [r7, #44]
 529 0326 DB00     		lsl	r3, r3, #3
 530 0328 0433     		add	r3, r3, #4
 531 032a FA68     		ldr	r2, [r7, #12]
 532 032c D418     		add	r4, r2, r3
 533 032e F869     		ldr	r0, [r7, #28]
 534 0330 F96B     		ldr	r1, [r7, #60]
 535 0332 FFF7FEFF 		bl	__aeabi_fmul
 536 0336 031C     		add	r3, r0, #0
 537 0338 1D1C     		add	r5, r3, #0
 538 033a 786A     		ldr	r0, [r7, #36]
 539 033c B96B     		ldr	r1, [r7, #56]
 540 033e FFF7FEFF 		bl	__aeabi_fmul
 541 0342 031C     		add	r3, r0, #0
 542 0344 281C     		add	r0, r5, #0
 543 0346 191C     		add	r1, r3, #0
 544 0348 FFF7FEFF 		bl	__aeabi_fsub
 545 034c 031C     		add	r3, r0, #0
 546 034e 2360     		str	r3, [r4]
 592:Source\TransformFunctions/arm_cfft_radix4_f32.c **** 
 593:Source\TransformFunctions/arm_cfft_radix4_f32.c ****             i0 += n1;
 547              		.loc 1 593 0 discriminator 1
ARM GAS  C:\Users\fneves\AppData\Local\Temp\ccyQHZqi.s 			page 21


 548 0350 BA6E     		ldr	r2, [r7, #104]
 549 0352 BB6D     		ldr	r3, [r7, #88]
 550 0354 D318     		add	r3, r2, r3
 551 0356 BB66     		str	r3, [r7, #104]
 594:Source\TransformFunctions/arm_cfft_radix4_f32.c ****          } while ( i0 < fftLen);
 552              		.loc 1 594 0 discriminator 1
 553 0358 0A23     		mov	r3, #10
 554 035a FB18     		add	r3, r7, r3
 555 035c 1A88     		ldrh	r2, [r3]
 556 035e BB6E     		ldr	r3, [r7, #104]
 557 0360 9A42     		cmp	r2, r3
 558 0362 00D9     		bls	.LCB486
 559 0364 A6E6     		b	.L7	@long jump
 560              	.LCB486:
 595:Source\TransformFunctions/arm_cfft_radix4_f32.c ****          j++;
 561              		.loc 1 595 0
 562 0366 3B6E     		ldr	r3, [r7, #96]
 563 0368 0133     		add	r3, r3, #1
 564 036a 3B66     		str	r3, [r7, #96]
 596:Source\TransformFunctions/arm_cfft_radix4_f32.c ****       } while (j <= (n2 - 1u));
 565              		.loc 1 596 0
 566 036c 7B6E     		ldr	r3, [r7, #100]
 567 036e 5A1E     		sub	r2, r3, #1
 568 0370 3B6E     		ldr	r3, [r7, #96]
 569 0372 9A42     		cmp	r2, r3
 570 0374 00D3     		bcc	.LCB494
 571 0376 66E6     		b	.L8	@long jump
 572              	.LCB494:
 597:Source\TransformFunctions/arm_cfft_radix4_f32.c ****       twidCoefModifier <<= 2u;
 573              		.loc 1 597 0 discriminator 2
 574 0378 0823     		mov	r3, #8
 575 037a FB18     		add	r3, r7, r3
 576 037c 0822     		mov	r2, #8
 577 037e BA18     		add	r2, r7, r2
 578 0380 1288     		ldrh	r2, [r2]
 579 0382 9200     		lsl	r2, r2, #2
 580 0384 1A80     		strh	r2, [r3]
 494:Source\TransformFunctions/arm_cfft_radix4_f32.c ****    {
 581              		.loc 1 494 0 discriminator 2
 582 0386 FB6D     		ldr	r3, [r7, #92]
 583 0388 9B08     		lsr	r3, r3, #2
 584 038a FB65     		str	r3, [r7, #92]
 585              	.L6:
 494:Source\TransformFunctions/arm_cfft_radix4_f32.c ****    {
 586              		.loc 1 494 0 is_stmt 0 discriminator 1
 587 038c FB6D     		ldr	r3, [r7, #92]
 588 038e 012B     		cmp	r3, #1
 589 0390 00D9     		bls	.LCB509
 590 0392 4FE6     		b	.L9	@long jump
 591              	.LCB509:
 598:Source\TransformFunctions/arm_cfft_radix4_f32.c ****    }
 599:Source\TransformFunctions/arm_cfft_radix4_f32.c **** 
 600:Source\TransformFunctions/arm_cfft_radix4_f32.c **** #endif /* #if defined (ARM_MATH_DSP) */
 601:Source\TransformFunctions/arm_cfft_radix4_f32.c **** 
 602:Source\TransformFunctions/arm_cfft_radix4_f32.c **** }
 592              		.loc 1 602 0 is_stmt 1
 593 0394 BD46     		mov	sp, r7
ARM GAS  C:\Users\fneves\AppData\Local\Temp\ccyQHZqi.s 			page 22


 594 0396 1CB0     		add	sp, sp, #112
 595              		@ sp needed
 596 0398 B0BD     		pop	{r4, r5, r7, pc}
 597              		.cfi_endproc
 598              	.LFE83:
 599              		.size	arm_radix4_butterfly_f32, .-arm_radix4_butterfly_f32
 600 039a C046     		.section	.text.arm_radix4_butterfly_inverse_f32,"ax",%progbits
 601              		.align	2
 602              		.global	arm_radix4_butterfly_inverse_f32
 603              		.code	16
 604              		.thumb_func
 605              		.type	arm_radix4_butterfly_inverse_f32, %function
 606              	arm_radix4_butterfly_inverse_f32:
 607              	.LFB84:
 603:Source\TransformFunctions/arm_cfft_radix4_f32.c **** 
 604:Source\TransformFunctions/arm_cfft_radix4_f32.c **** /*
 605:Source\TransformFunctions/arm_cfft_radix4_f32.c **** * @brief  Core function for the floating-point CIFFT butterfly process.
 606:Source\TransformFunctions/arm_cfft_radix4_f32.c **** * @param[in, out] *pSrc            points to the in-place buffer of floating-point data type.
 607:Source\TransformFunctions/arm_cfft_radix4_f32.c **** * @param[in]      fftLen           length of the FFT.
 608:Source\TransformFunctions/arm_cfft_radix4_f32.c **** * @param[in]      *pCoef           points to twiddle coefficient buffer.
 609:Source\TransformFunctions/arm_cfft_radix4_f32.c **** * @param[in]      twidCoefModifier twiddle coefficient modifier that supports different size FFTs w
 610:Source\TransformFunctions/arm_cfft_radix4_f32.c **** * @param[in]      onebyfftLen      value of 1/fftLen.
 611:Source\TransformFunctions/arm_cfft_radix4_f32.c **** * @return none.
 612:Source\TransformFunctions/arm_cfft_radix4_f32.c **** */
 613:Source\TransformFunctions/arm_cfft_radix4_f32.c **** 
 614:Source\TransformFunctions/arm_cfft_radix4_f32.c **** void arm_radix4_butterfly_inverse_f32(
 615:Source\TransformFunctions/arm_cfft_radix4_f32.c **** float32_t * pSrc,
 616:Source\TransformFunctions/arm_cfft_radix4_f32.c **** uint16_t fftLen,
 617:Source\TransformFunctions/arm_cfft_radix4_f32.c **** float32_t * pCoef,
 618:Source\TransformFunctions/arm_cfft_radix4_f32.c **** uint16_t twidCoefModifier,
 619:Source\TransformFunctions/arm_cfft_radix4_f32.c **** float32_t onebyfftLen)
 620:Source\TransformFunctions/arm_cfft_radix4_f32.c **** {
 608              		.loc 1 620 0
 609              		.cfi_startproc
 610 0000 B0B5     		push	{r4, r5, r7, lr}
 611              		.cfi_def_cfa_offset 16
 612              		.cfi_offset 4, -16
 613              		.cfi_offset 5, -12
 614              		.cfi_offset 7, -8
 615              		.cfi_offset 14, -4
 616 0002 9CB0     		sub	sp, sp, #112
 617              		.cfi_def_cfa_offset 128
 618 0004 00AF     		add	r7, sp, #0
 619              		.cfi_def_cfa_register 7
 620 0006 F860     		str	r0, [r7, #12]
 621 0008 081C     		mov	r0, r1
 622 000a 7A60     		str	r2, [r7, #4]
 623 000c 191C     		mov	r1, r3
 624 000e 0A23     		mov	r3, #10
 625 0010 FB18     		add	r3, r7, r3
 626 0012 021C     		add	r2, r0, #0
 627 0014 1A80     		strh	r2, [r3]
 628 0016 0823     		mov	r3, #8
 629 0018 FB18     		add	r3, r7, r3
 630 001a 0A1C     		add	r2, r1, #0
 631 001c 1A80     		strh	r2, [r3]
 621:Source\TransformFunctions/arm_cfft_radix4_f32.c ****    float32_t co1, co2, co3, si1, si2, si3;
ARM GAS  C:\Users\fneves\AppData\Local\Temp\ccyQHZqi.s 			page 23


 622:Source\TransformFunctions/arm_cfft_radix4_f32.c ****    uint32_t ia1, ia2, ia3;
 623:Source\TransformFunctions/arm_cfft_radix4_f32.c ****    uint32_t i0, i1, i2, i3;
 624:Source\TransformFunctions/arm_cfft_radix4_f32.c ****    uint32_t n1, n2, j, k;
 625:Source\TransformFunctions/arm_cfft_radix4_f32.c **** 
 626:Source\TransformFunctions/arm_cfft_radix4_f32.c **** #if defined (ARM_MATH_DSP)
 627:Source\TransformFunctions/arm_cfft_radix4_f32.c **** 
 628:Source\TransformFunctions/arm_cfft_radix4_f32.c ****    float32_t xaIn, yaIn, xbIn, ybIn, xcIn, ycIn, xdIn, ydIn;
 629:Source\TransformFunctions/arm_cfft_radix4_f32.c ****    float32_t Xaplusc, Xbplusd, Yaplusc, Ybplusd, Xaminusc, Xbminusd, Yaminusc,
 630:Source\TransformFunctions/arm_cfft_radix4_f32.c ****    Ybminusd;
 631:Source\TransformFunctions/arm_cfft_radix4_f32.c ****    float32_t Xb12C_out, Yb12C_out, Xc12C_out, Yc12C_out, Xd12C_out, Yd12C_out;
 632:Source\TransformFunctions/arm_cfft_radix4_f32.c ****    float32_t Xb12_out, Yb12_out, Xc12_out, Yc12_out, Xd12_out, Yd12_out;
 633:Source\TransformFunctions/arm_cfft_radix4_f32.c ****    float32_t *ptr1;
 634:Source\TransformFunctions/arm_cfft_radix4_f32.c ****    float32_t p0,p1,p2,p3,p4,p5,p6,p7;
 635:Source\TransformFunctions/arm_cfft_radix4_f32.c ****    float32_t a0,a1,a2,a3,a4,a5,a6,a7;
 636:Source\TransformFunctions/arm_cfft_radix4_f32.c **** 
 637:Source\TransformFunctions/arm_cfft_radix4_f32.c **** 
 638:Source\TransformFunctions/arm_cfft_radix4_f32.c ****    /*  Initializations for the first stage */
 639:Source\TransformFunctions/arm_cfft_radix4_f32.c ****    n2 = fftLen;
 640:Source\TransformFunctions/arm_cfft_radix4_f32.c ****    n1 = n2;
 641:Source\TransformFunctions/arm_cfft_radix4_f32.c **** 
 642:Source\TransformFunctions/arm_cfft_radix4_f32.c ****    /* n2 = fftLen/4 */
 643:Source\TransformFunctions/arm_cfft_radix4_f32.c ****    n2 >>= 2u;
 644:Source\TransformFunctions/arm_cfft_radix4_f32.c ****    i0 = 0u;
 645:Source\TransformFunctions/arm_cfft_radix4_f32.c ****    ia1 = 0u;
 646:Source\TransformFunctions/arm_cfft_radix4_f32.c **** 
 647:Source\TransformFunctions/arm_cfft_radix4_f32.c ****    j = n2;
 648:Source\TransformFunctions/arm_cfft_radix4_f32.c **** 
 649:Source\TransformFunctions/arm_cfft_radix4_f32.c ****    /*  Calculation of first stage */
 650:Source\TransformFunctions/arm_cfft_radix4_f32.c ****    do
 651:Source\TransformFunctions/arm_cfft_radix4_f32.c ****    {
 652:Source\TransformFunctions/arm_cfft_radix4_f32.c ****       /*  index calculation for the input as, */
 653:Source\TransformFunctions/arm_cfft_radix4_f32.c ****       /*  pSrc[i0 + 0], pSrc[i0 + fftLen/4], pSrc[i0 + fftLen/2], pSrc[i0 + 3fftLen/4] */
 654:Source\TransformFunctions/arm_cfft_radix4_f32.c ****       i1 = i0 + n2;
 655:Source\TransformFunctions/arm_cfft_radix4_f32.c ****       i2 = i1 + n2;
 656:Source\TransformFunctions/arm_cfft_radix4_f32.c ****       i3 = i2 + n2;
 657:Source\TransformFunctions/arm_cfft_radix4_f32.c **** 
 658:Source\TransformFunctions/arm_cfft_radix4_f32.c ****       /*  Butterfly implementation */
 659:Source\TransformFunctions/arm_cfft_radix4_f32.c ****       xaIn = pSrc[(2u * i0)];
 660:Source\TransformFunctions/arm_cfft_radix4_f32.c ****       yaIn = pSrc[(2u * i0) + 1u];
 661:Source\TransformFunctions/arm_cfft_radix4_f32.c **** 
 662:Source\TransformFunctions/arm_cfft_radix4_f32.c ****       xcIn = pSrc[(2u * i2)];
 663:Source\TransformFunctions/arm_cfft_radix4_f32.c ****       ycIn = pSrc[(2u * i2) + 1u];
 664:Source\TransformFunctions/arm_cfft_radix4_f32.c **** 
 665:Source\TransformFunctions/arm_cfft_radix4_f32.c ****       xbIn = pSrc[(2u * i1)];
 666:Source\TransformFunctions/arm_cfft_radix4_f32.c ****       ybIn = pSrc[(2u * i1) + 1u];
 667:Source\TransformFunctions/arm_cfft_radix4_f32.c **** 
 668:Source\TransformFunctions/arm_cfft_radix4_f32.c ****       xdIn = pSrc[(2u * i3)];
 669:Source\TransformFunctions/arm_cfft_radix4_f32.c ****       ydIn = pSrc[(2u * i3) + 1u];
 670:Source\TransformFunctions/arm_cfft_radix4_f32.c **** 
 671:Source\TransformFunctions/arm_cfft_radix4_f32.c ****       /* xa + xc */
 672:Source\TransformFunctions/arm_cfft_radix4_f32.c ****       Xaplusc = xaIn + xcIn;
 673:Source\TransformFunctions/arm_cfft_radix4_f32.c ****       /* xb + xd */
 674:Source\TransformFunctions/arm_cfft_radix4_f32.c ****       Xbplusd = xbIn + xdIn;
 675:Source\TransformFunctions/arm_cfft_radix4_f32.c ****       /* ya + yc */
 676:Source\TransformFunctions/arm_cfft_radix4_f32.c ****       Yaplusc = yaIn + ycIn;
 677:Source\TransformFunctions/arm_cfft_radix4_f32.c ****       /* yb + yd */
 678:Source\TransformFunctions/arm_cfft_radix4_f32.c ****       Ybplusd = ybIn + ydIn;
ARM GAS  C:\Users\fneves\AppData\Local\Temp\ccyQHZqi.s 			page 24


 679:Source\TransformFunctions/arm_cfft_radix4_f32.c **** 
 680:Source\TransformFunctions/arm_cfft_radix4_f32.c ****       /*  index calculation for the coefficients */
 681:Source\TransformFunctions/arm_cfft_radix4_f32.c ****       ia2 = ia1 + ia1;
 682:Source\TransformFunctions/arm_cfft_radix4_f32.c ****       co2 = pCoef[ia2 * 2u];
 683:Source\TransformFunctions/arm_cfft_radix4_f32.c ****       si2 = pCoef[(ia2 * 2u) + 1u];
 684:Source\TransformFunctions/arm_cfft_radix4_f32.c **** 
 685:Source\TransformFunctions/arm_cfft_radix4_f32.c ****       /* xa - xc */
 686:Source\TransformFunctions/arm_cfft_radix4_f32.c ****       Xaminusc = xaIn - xcIn;
 687:Source\TransformFunctions/arm_cfft_radix4_f32.c ****       /* xb - xd */
 688:Source\TransformFunctions/arm_cfft_radix4_f32.c ****       Xbminusd = xbIn - xdIn;
 689:Source\TransformFunctions/arm_cfft_radix4_f32.c ****       /* ya - yc */
 690:Source\TransformFunctions/arm_cfft_radix4_f32.c ****       Yaminusc = yaIn - ycIn;
 691:Source\TransformFunctions/arm_cfft_radix4_f32.c ****       /* yb - yd */
 692:Source\TransformFunctions/arm_cfft_radix4_f32.c ****       Ybminusd = ybIn - ydIn;
 693:Source\TransformFunctions/arm_cfft_radix4_f32.c **** 
 694:Source\TransformFunctions/arm_cfft_radix4_f32.c ****       /* xa' = xa + xb + xc + xd */
 695:Source\TransformFunctions/arm_cfft_radix4_f32.c ****       pSrc[(2u * i0)] = Xaplusc + Xbplusd;
 696:Source\TransformFunctions/arm_cfft_radix4_f32.c **** 
 697:Source\TransformFunctions/arm_cfft_radix4_f32.c ****       /* ya' = ya + yb + yc + yd */
 698:Source\TransformFunctions/arm_cfft_radix4_f32.c ****       pSrc[(2u * i0) + 1u] = Yaplusc + Ybplusd;
 699:Source\TransformFunctions/arm_cfft_radix4_f32.c **** 
 700:Source\TransformFunctions/arm_cfft_radix4_f32.c ****       /* (xa - xc) - (yb - yd) */
 701:Source\TransformFunctions/arm_cfft_radix4_f32.c ****       Xb12C_out = (Xaminusc - Ybminusd);
 702:Source\TransformFunctions/arm_cfft_radix4_f32.c ****       /* (ya - yc) + (xb - xd) */
 703:Source\TransformFunctions/arm_cfft_radix4_f32.c ****       Yb12C_out = (Yaminusc + Xbminusd);
 704:Source\TransformFunctions/arm_cfft_radix4_f32.c ****       /* (xa + xc) - (xb + xd) */
 705:Source\TransformFunctions/arm_cfft_radix4_f32.c ****       Xc12C_out = (Xaplusc - Xbplusd);
 706:Source\TransformFunctions/arm_cfft_radix4_f32.c ****       /* (ya + yc) - (yb + yd) */
 707:Source\TransformFunctions/arm_cfft_radix4_f32.c ****       Yc12C_out = (Yaplusc - Ybplusd);
 708:Source\TransformFunctions/arm_cfft_radix4_f32.c ****       /* (xa - xc) + (yb - yd) */
 709:Source\TransformFunctions/arm_cfft_radix4_f32.c ****       Xd12C_out = (Xaminusc + Ybminusd);
 710:Source\TransformFunctions/arm_cfft_radix4_f32.c ****       /* (ya - yc) - (xb - xd) */
 711:Source\TransformFunctions/arm_cfft_radix4_f32.c ****       Yd12C_out = (Yaminusc - Xbminusd);
 712:Source\TransformFunctions/arm_cfft_radix4_f32.c **** 
 713:Source\TransformFunctions/arm_cfft_radix4_f32.c ****       co1 = pCoef[ia1 * 2u];
 714:Source\TransformFunctions/arm_cfft_radix4_f32.c ****       si1 = pCoef[(ia1 * 2u) + 1u];
 715:Source\TransformFunctions/arm_cfft_radix4_f32.c **** 
 716:Source\TransformFunctions/arm_cfft_radix4_f32.c ****       /*  index calculation for the coefficients */
 717:Source\TransformFunctions/arm_cfft_radix4_f32.c ****       ia3 = ia2 + ia1;
 718:Source\TransformFunctions/arm_cfft_radix4_f32.c ****       co3 = pCoef[ia3 * 2u];
 719:Source\TransformFunctions/arm_cfft_radix4_f32.c ****       si3 = pCoef[(ia3 * 2u) + 1u];
 720:Source\TransformFunctions/arm_cfft_radix4_f32.c **** 
 721:Source\TransformFunctions/arm_cfft_radix4_f32.c ****       Xb12_out = Xb12C_out * co1;
 722:Source\TransformFunctions/arm_cfft_radix4_f32.c ****       Yb12_out = Yb12C_out * co1;
 723:Source\TransformFunctions/arm_cfft_radix4_f32.c ****       Xc12_out = Xc12C_out * co2;
 724:Source\TransformFunctions/arm_cfft_radix4_f32.c ****       Yc12_out = Yc12C_out * co2;
 725:Source\TransformFunctions/arm_cfft_radix4_f32.c ****       Xd12_out = Xd12C_out * co3;
 726:Source\TransformFunctions/arm_cfft_radix4_f32.c ****       Yd12_out = Yd12C_out * co3;
 727:Source\TransformFunctions/arm_cfft_radix4_f32.c **** 
 728:Source\TransformFunctions/arm_cfft_radix4_f32.c ****       /* xb' = (xa+yb-xc-yd)co1 - (ya-xb-yc+xd)(si1) */
 729:Source\TransformFunctions/arm_cfft_radix4_f32.c ****       //Xb12_out -= Yb12C_out * si1;
 730:Source\TransformFunctions/arm_cfft_radix4_f32.c ****       p0 = Yb12C_out * si1;
 731:Source\TransformFunctions/arm_cfft_radix4_f32.c ****       /* yb' = (ya-xb-yc+xd)co1 + (xa+yb-xc-yd)(si1) */
 732:Source\TransformFunctions/arm_cfft_radix4_f32.c ****       //Yb12_out += Xb12C_out * si1;
 733:Source\TransformFunctions/arm_cfft_radix4_f32.c ****       p1 = Xb12C_out * si1;
 734:Source\TransformFunctions/arm_cfft_radix4_f32.c ****       /* xc' = (xa-xb+xc-xd)co2 - (ya-yb+yc-yd)(si2) */
 735:Source\TransformFunctions/arm_cfft_radix4_f32.c ****       //Xc12_out -= Yc12C_out * si2;
ARM GAS  C:\Users\fneves\AppData\Local\Temp\ccyQHZqi.s 			page 25


 736:Source\TransformFunctions/arm_cfft_radix4_f32.c ****       p2 = Yc12C_out * si2;
 737:Source\TransformFunctions/arm_cfft_radix4_f32.c ****       /* yc' = (ya-yb+yc-yd)co2 + (xa-xb+xc-xd)(si2) */
 738:Source\TransformFunctions/arm_cfft_radix4_f32.c ****       //Yc12_out += Xc12C_out * si2;
 739:Source\TransformFunctions/arm_cfft_radix4_f32.c ****       p3 = Xc12C_out * si2;
 740:Source\TransformFunctions/arm_cfft_radix4_f32.c ****       /* xd' = (xa-yb-xc+yd)co3 - (ya+xb-yc-xd)(si3) */
 741:Source\TransformFunctions/arm_cfft_radix4_f32.c ****       //Xd12_out -= Yd12C_out * si3;
 742:Source\TransformFunctions/arm_cfft_radix4_f32.c ****       p4 = Yd12C_out * si3;
 743:Source\TransformFunctions/arm_cfft_radix4_f32.c ****       /* yd' = (ya+xb-yc-xd)co3 + (xa-yb-xc+yd)(si3) */
 744:Source\TransformFunctions/arm_cfft_radix4_f32.c ****       //Yd12_out += Xd12C_out * si3;
 745:Source\TransformFunctions/arm_cfft_radix4_f32.c ****       p5 = Xd12C_out * si3;
 746:Source\TransformFunctions/arm_cfft_radix4_f32.c **** 
 747:Source\TransformFunctions/arm_cfft_radix4_f32.c ****       Xb12_out -= p0;
 748:Source\TransformFunctions/arm_cfft_radix4_f32.c ****       Yb12_out += p1;
 749:Source\TransformFunctions/arm_cfft_radix4_f32.c ****       Xc12_out -= p2;
 750:Source\TransformFunctions/arm_cfft_radix4_f32.c ****       Yc12_out += p3;
 751:Source\TransformFunctions/arm_cfft_radix4_f32.c ****       Xd12_out -= p4;
 752:Source\TransformFunctions/arm_cfft_radix4_f32.c ****       Yd12_out += p5;
 753:Source\TransformFunctions/arm_cfft_radix4_f32.c **** 
 754:Source\TransformFunctions/arm_cfft_radix4_f32.c ****       /* xc' = (xa-xb+xc-xd)co2 - (ya-yb+yc-yd)(si2) */
 755:Source\TransformFunctions/arm_cfft_radix4_f32.c ****       pSrc[2u * i1] = Xc12_out;
 756:Source\TransformFunctions/arm_cfft_radix4_f32.c **** 
 757:Source\TransformFunctions/arm_cfft_radix4_f32.c ****       /* yc' = (ya-yb+yc-yd)co2 + (xa-xb+xc-xd)(si2) */
 758:Source\TransformFunctions/arm_cfft_radix4_f32.c ****       pSrc[(2u * i1) + 1u] = Yc12_out;
 759:Source\TransformFunctions/arm_cfft_radix4_f32.c **** 
 760:Source\TransformFunctions/arm_cfft_radix4_f32.c ****       /* xb' = (xa+yb-xc-yd)co1 - (ya-xb-yc+xd)(si1) */
 761:Source\TransformFunctions/arm_cfft_radix4_f32.c ****       pSrc[2u * i2] = Xb12_out;
 762:Source\TransformFunctions/arm_cfft_radix4_f32.c **** 
 763:Source\TransformFunctions/arm_cfft_radix4_f32.c ****       /* yb' = (ya-xb-yc+xd)co1 + (xa+yb-xc-yd)(si1) */
 764:Source\TransformFunctions/arm_cfft_radix4_f32.c ****       pSrc[(2u * i2) + 1u] = Yb12_out;
 765:Source\TransformFunctions/arm_cfft_radix4_f32.c **** 
 766:Source\TransformFunctions/arm_cfft_radix4_f32.c ****       /* xd' = (xa-yb-xc+yd)co3 - (ya+xb-yc-xd)(si3) */
 767:Source\TransformFunctions/arm_cfft_radix4_f32.c ****       pSrc[2u * i3] = Xd12_out;
 768:Source\TransformFunctions/arm_cfft_radix4_f32.c **** 
 769:Source\TransformFunctions/arm_cfft_radix4_f32.c ****       /* yd' = (ya+xb-yc-xd)co3 + (xa-yb-xc+yd)(si3) */
 770:Source\TransformFunctions/arm_cfft_radix4_f32.c ****       pSrc[(2u * i3) + 1u] = Yd12_out;
 771:Source\TransformFunctions/arm_cfft_radix4_f32.c **** 
 772:Source\TransformFunctions/arm_cfft_radix4_f32.c ****       /*  Twiddle coefficients index modifier */
 773:Source\TransformFunctions/arm_cfft_radix4_f32.c ****       ia1 = ia1 + twidCoefModifier;
 774:Source\TransformFunctions/arm_cfft_radix4_f32.c **** 
 775:Source\TransformFunctions/arm_cfft_radix4_f32.c ****       /*  Updating input index */
 776:Source\TransformFunctions/arm_cfft_radix4_f32.c ****       i0 = i0 + 1u;
 777:Source\TransformFunctions/arm_cfft_radix4_f32.c **** 
 778:Source\TransformFunctions/arm_cfft_radix4_f32.c ****    } while (--j);
 779:Source\TransformFunctions/arm_cfft_radix4_f32.c **** 
 780:Source\TransformFunctions/arm_cfft_radix4_f32.c ****    twidCoefModifier <<= 2u;
 781:Source\TransformFunctions/arm_cfft_radix4_f32.c **** 
 782:Source\TransformFunctions/arm_cfft_radix4_f32.c ****    /*  Calculation of second stage to excluding last stage */
 783:Source\TransformFunctions/arm_cfft_radix4_f32.c ****    for (k = fftLen >> 2u; k > 4u; k >>= 2u)
 784:Source\TransformFunctions/arm_cfft_radix4_f32.c ****    {
 785:Source\TransformFunctions/arm_cfft_radix4_f32.c ****       /*  Initializations for the first stage */
 786:Source\TransformFunctions/arm_cfft_radix4_f32.c ****       n1 = n2;
 787:Source\TransformFunctions/arm_cfft_radix4_f32.c ****       n2 >>= 2u;
 788:Source\TransformFunctions/arm_cfft_radix4_f32.c ****       ia1 = 0u;
 789:Source\TransformFunctions/arm_cfft_radix4_f32.c **** 
 790:Source\TransformFunctions/arm_cfft_radix4_f32.c ****       /*  Calculation of first stage */
 791:Source\TransformFunctions/arm_cfft_radix4_f32.c ****       j = 0;
 792:Source\TransformFunctions/arm_cfft_radix4_f32.c ****       do
ARM GAS  C:\Users\fneves\AppData\Local\Temp\ccyQHZqi.s 			page 26


 793:Source\TransformFunctions/arm_cfft_radix4_f32.c ****       {
 794:Source\TransformFunctions/arm_cfft_radix4_f32.c ****          /*  index calculation for the coefficients */
 795:Source\TransformFunctions/arm_cfft_radix4_f32.c ****          ia2 = ia1 + ia1;
 796:Source\TransformFunctions/arm_cfft_radix4_f32.c ****          ia3 = ia2 + ia1;
 797:Source\TransformFunctions/arm_cfft_radix4_f32.c ****          co1 = pCoef[ia1 * 2u];
 798:Source\TransformFunctions/arm_cfft_radix4_f32.c ****          si1 = pCoef[(ia1 * 2u) + 1u];
 799:Source\TransformFunctions/arm_cfft_radix4_f32.c ****          co2 = pCoef[ia2 * 2u];
 800:Source\TransformFunctions/arm_cfft_radix4_f32.c ****          si2 = pCoef[(ia2 * 2u) + 1u];
 801:Source\TransformFunctions/arm_cfft_radix4_f32.c ****          co3 = pCoef[ia3 * 2u];
 802:Source\TransformFunctions/arm_cfft_radix4_f32.c ****          si3 = pCoef[(ia3 * 2u) + 1u];
 803:Source\TransformFunctions/arm_cfft_radix4_f32.c **** 
 804:Source\TransformFunctions/arm_cfft_radix4_f32.c ****          /*  Twiddle coefficients index modifier */
 805:Source\TransformFunctions/arm_cfft_radix4_f32.c ****          ia1 = ia1 + twidCoefModifier;
 806:Source\TransformFunctions/arm_cfft_radix4_f32.c **** 
 807:Source\TransformFunctions/arm_cfft_radix4_f32.c ****          i0 = j;
 808:Source\TransformFunctions/arm_cfft_radix4_f32.c ****          do
 809:Source\TransformFunctions/arm_cfft_radix4_f32.c ****          {
 810:Source\TransformFunctions/arm_cfft_radix4_f32.c ****             /*  index calculation for the input as, */
 811:Source\TransformFunctions/arm_cfft_radix4_f32.c ****             /*  pSrc[i0 + 0], pSrc[i0 + fftLen/4], pSrc[i0 + fftLen/2], pSrc[i0 + 3fftLen/4] */
 812:Source\TransformFunctions/arm_cfft_radix4_f32.c ****             i1 = i0 + n2;
 813:Source\TransformFunctions/arm_cfft_radix4_f32.c ****             i2 = i1 + n2;
 814:Source\TransformFunctions/arm_cfft_radix4_f32.c ****             i3 = i2 + n2;
 815:Source\TransformFunctions/arm_cfft_radix4_f32.c **** 
 816:Source\TransformFunctions/arm_cfft_radix4_f32.c ****             xaIn = pSrc[(2u * i0)];
 817:Source\TransformFunctions/arm_cfft_radix4_f32.c ****             yaIn = pSrc[(2u * i0) + 1u];
 818:Source\TransformFunctions/arm_cfft_radix4_f32.c **** 
 819:Source\TransformFunctions/arm_cfft_radix4_f32.c ****             xbIn = pSrc[(2u * i1)];
 820:Source\TransformFunctions/arm_cfft_radix4_f32.c ****             ybIn = pSrc[(2u * i1) + 1u];
 821:Source\TransformFunctions/arm_cfft_radix4_f32.c **** 
 822:Source\TransformFunctions/arm_cfft_radix4_f32.c ****             xcIn = pSrc[(2u * i2)];
 823:Source\TransformFunctions/arm_cfft_radix4_f32.c ****             ycIn = pSrc[(2u * i2) + 1u];
 824:Source\TransformFunctions/arm_cfft_radix4_f32.c **** 
 825:Source\TransformFunctions/arm_cfft_radix4_f32.c ****             xdIn = pSrc[(2u * i3)];
 826:Source\TransformFunctions/arm_cfft_radix4_f32.c ****             ydIn = pSrc[(2u * i3) + 1u];
 827:Source\TransformFunctions/arm_cfft_radix4_f32.c **** 
 828:Source\TransformFunctions/arm_cfft_radix4_f32.c ****             /* xa - xc */
 829:Source\TransformFunctions/arm_cfft_radix4_f32.c ****             Xaminusc = xaIn - xcIn;
 830:Source\TransformFunctions/arm_cfft_radix4_f32.c ****             /* (xb - xd) */
 831:Source\TransformFunctions/arm_cfft_radix4_f32.c ****             Xbminusd = xbIn - xdIn;
 832:Source\TransformFunctions/arm_cfft_radix4_f32.c ****             /* ya - yc */
 833:Source\TransformFunctions/arm_cfft_radix4_f32.c ****             Yaminusc = yaIn - ycIn;
 834:Source\TransformFunctions/arm_cfft_radix4_f32.c ****             /* (yb - yd) */
 835:Source\TransformFunctions/arm_cfft_radix4_f32.c ****             Ybminusd = ybIn - ydIn;
 836:Source\TransformFunctions/arm_cfft_radix4_f32.c **** 
 837:Source\TransformFunctions/arm_cfft_radix4_f32.c ****             /* xa + xc */
 838:Source\TransformFunctions/arm_cfft_radix4_f32.c ****             Xaplusc = xaIn + xcIn;
 839:Source\TransformFunctions/arm_cfft_radix4_f32.c ****             /* xb + xd */
 840:Source\TransformFunctions/arm_cfft_radix4_f32.c ****             Xbplusd = xbIn + xdIn;
 841:Source\TransformFunctions/arm_cfft_radix4_f32.c ****             /* ya + yc */
 842:Source\TransformFunctions/arm_cfft_radix4_f32.c ****             Yaplusc = yaIn + ycIn;
 843:Source\TransformFunctions/arm_cfft_radix4_f32.c ****             /* yb + yd */
 844:Source\TransformFunctions/arm_cfft_radix4_f32.c ****             Ybplusd = ybIn + ydIn;
 845:Source\TransformFunctions/arm_cfft_radix4_f32.c **** 
 846:Source\TransformFunctions/arm_cfft_radix4_f32.c ****             /* (xa - xc) - (yb - yd) */
 847:Source\TransformFunctions/arm_cfft_radix4_f32.c ****             Xb12C_out = (Xaminusc - Ybminusd);
 848:Source\TransformFunctions/arm_cfft_radix4_f32.c ****             /* (ya - yc) +  (xb - xd) */
 849:Source\TransformFunctions/arm_cfft_radix4_f32.c ****             Yb12C_out = (Yaminusc + Xbminusd);
ARM GAS  C:\Users\fneves\AppData\Local\Temp\ccyQHZqi.s 			page 27


 850:Source\TransformFunctions/arm_cfft_radix4_f32.c ****             /* xa + xc -(xb + xd) */
 851:Source\TransformFunctions/arm_cfft_radix4_f32.c ****             Xc12C_out = (Xaplusc - Xbplusd);
 852:Source\TransformFunctions/arm_cfft_radix4_f32.c ****             /* (ya + yc) - (yb + yd) */
 853:Source\TransformFunctions/arm_cfft_radix4_f32.c ****             Yc12C_out = (Yaplusc - Ybplusd);
 854:Source\TransformFunctions/arm_cfft_radix4_f32.c ****             /* (xa - xc) + (yb - yd) */
 855:Source\TransformFunctions/arm_cfft_radix4_f32.c ****             Xd12C_out = (Xaminusc + Ybminusd);
 856:Source\TransformFunctions/arm_cfft_radix4_f32.c ****             /* (ya - yc) -  (xb - xd) */
 857:Source\TransformFunctions/arm_cfft_radix4_f32.c ****             Yd12C_out = (Yaminusc - Xbminusd);
 858:Source\TransformFunctions/arm_cfft_radix4_f32.c **** 
 859:Source\TransformFunctions/arm_cfft_radix4_f32.c ****             pSrc[(2u * i0)] = Xaplusc + Xbplusd;
 860:Source\TransformFunctions/arm_cfft_radix4_f32.c ****             pSrc[(2u * i0) + 1u] = Yaplusc + Ybplusd;
 861:Source\TransformFunctions/arm_cfft_radix4_f32.c **** 
 862:Source\TransformFunctions/arm_cfft_radix4_f32.c ****             Xb12_out = Xb12C_out * co1;
 863:Source\TransformFunctions/arm_cfft_radix4_f32.c ****             Yb12_out = Yb12C_out * co1;
 864:Source\TransformFunctions/arm_cfft_radix4_f32.c ****             Xc12_out = Xc12C_out * co2;
 865:Source\TransformFunctions/arm_cfft_radix4_f32.c ****             Yc12_out = Yc12C_out * co2;
 866:Source\TransformFunctions/arm_cfft_radix4_f32.c ****             Xd12_out = Xd12C_out * co3;
 867:Source\TransformFunctions/arm_cfft_radix4_f32.c ****             Yd12_out = Yd12C_out * co3;
 868:Source\TransformFunctions/arm_cfft_radix4_f32.c **** 
 869:Source\TransformFunctions/arm_cfft_radix4_f32.c ****             /* xb' = (xa+yb-xc-yd)co1 - (ya-xb-yc+xd)(si1) */
 870:Source\TransformFunctions/arm_cfft_radix4_f32.c ****             //Xb12_out -= Yb12C_out * si1;
 871:Source\TransformFunctions/arm_cfft_radix4_f32.c ****             p0 = Yb12C_out * si1;
 872:Source\TransformFunctions/arm_cfft_radix4_f32.c ****             /* yb' = (ya-xb-yc+xd)co1 + (xa+yb-xc-yd)(si1) */
 873:Source\TransformFunctions/arm_cfft_radix4_f32.c ****             //Yb12_out += Xb12C_out * si1;
 874:Source\TransformFunctions/arm_cfft_radix4_f32.c ****             p1 = Xb12C_out * si1;
 875:Source\TransformFunctions/arm_cfft_radix4_f32.c ****             /* xc' = (xa-xb+xc-xd)co2 - (ya-yb+yc-yd)(si2) */
 876:Source\TransformFunctions/arm_cfft_radix4_f32.c ****             //Xc12_out -= Yc12C_out * si2;
 877:Source\TransformFunctions/arm_cfft_radix4_f32.c ****             p2 = Yc12C_out * si2;
 878:Source\TransformFunctions/arm_cfft_radix4_f32.c ****             /* yc' = (ya-yb+yc-yd)co2 + (xa-xb+xc-xd)(si2) */
 879:Source\TransformFunctions/arm_cfft_radix4_f32.c ****             //Yc12_out += Xc12C_out * si2;
 880:Source\TransformFunctions/arm_cfft_radix4_f32.c ****             p3 = Xc12C_out * si2;
 881:Source\TransformFunctions/arm_cfft_radix4_f32.c ****             /* xd' = (xa-yb-xc+yd)co3 - (ya+xb-yc-xd)(si3) */
 882:Source\TransformFunctions/arm_cfft_radix4_f32.c ****             //Xd12_out -= Yd12C_out * si3;
 883:Source\TransformFunctions/arm_cfft_radix4_f32.c ****             p4 = Yd12C_out * si3;
 884:Source\TransformFunctions/arm_cfft_radix4_f32.c ****             /* yd' = (ya+xb-yc-xd)co3 + (xa-yb-xc+yd)(si3) */
 885:Source\TransformFunctions/arm_cfft_radix4_f32.c ****             //Yd12_out += Xd12C_out * si3;
 886:Source\TransformFunctions/arm_cfft_radix4_f32.c ****             p5 = Xd12C_out * si3;
 887:Source\TransformFunctions/arm_cfft_radix4_f32.c **** 
 888:Source\TransformFunctions/arm_cfft_radix4_f32.c ****             Xb12_out -= p0;
 889:Source\TransformFunctions/arm_cfft_radix4_f32.c ****             Yb12_out += p1;
 890:Source\TransformFunctions/arm_cfft_radix4_f32.c ****             Xc12_out -= p2;
 891:Source\TransformFunctions/arm_cfft_radix4_f32.c ****             Yc12_out += p3;
 892:Source\TransformFunctions/arm_cfft_radix4_f32.c ****             Xd12_out -= p4;
 893:Source\TransformFunctions/arm_cfft_radix4_f32.c ****             Yd12_out += p5;
 894:Source\TransformFunctions/arm_cfft_radix4_f32.c **** 
 895:Source\TransformFunctions/arm_cfft_radix4_f32.c ****             /* xc' = (xa-xb+xc-xd)co2 - (ya-yb+yc-yd)(si2) */
 896:Source\TransformFunctions/arm_cfft_radix4_f32.c ****             pSrc[2u * i1] = Xc12_out;
 897:Source\TransformFunctions/arm_cfft_radix4_f32.c **** 
 898:Source\TransformFunctions/arm_cfft_radix4_f32.c ****             /* yc' = (ya-yb+yc-yd)co2 + (xa-xb+xc-xd)(si2) */
 899:Source\TransformFunctions/arm_cfft_radix4_f32.c ****             pSrc[(2u * i1) + 1u] = Yc12_out;
 900:Source\TransformFunctions/arm_cfft_radix4_f32.c **** 
 901:Source\TransformFunctions/arm_cfft_radix4_f32.c ****             /* xb' = (xa+yb-xc-yd)co1 - (ya-xb-yc+xd)(si1) */
 902:Source\TransformFunctions/arm_cfft_radix4_f32.c ****             pSrc[2u * i2] = Xb12_out;
 903:Source\TransformFunctions/arm_cfft_radix4_f32.c **** 
 904:Source\TransformFunctions/arm_cfft_radix4_f32.c ****             /* yb' = (ya-xb-yc+xd)co1 + (xa+yb-xc-yd)(si1) */
 905:Source\TransformFunctions/arm_cfft_radix4_f32.c ****             pSrc[(2u * i2) + 1u] = Yb12_out;
 906:Source\TransformFunctions/arm_cfft_radix4_f32.c **** 
ARM GAS  C:\Users\fneves\AppData\Local\Temp\ccyQHZqi.s 			page 28


 907:Source\TransformFunctions/arm_cfft_radix4_f32.c ****             /* xd' = (xa-yb-xc+yd)co3 - (ya+xb-yc-xd)(si3) */
 908:Source\TransformFunctions/arm_cfft_radix4_f32.c ****             pSrc[2u * i3] = Xd12_out;
 909:Source\TransformFunctions/arm_cfft_radix4_f32.c **** 
 910:Source\TransformFunctions/arm_cfft_radix4_f32.c ****             /* yd' = (ya+xb-yc-xd)co3 + (xa-yb-xc+yd)(si3) */
 911:Source\TransformFunctions/arm_cfft_radix4_f32.c ****             pSrc[(2u * i3) + 1u] = Yd12_out;
 912:Source\TransformFunctions/arm_cfft_radix4_f32.c **** 
 913:Source\TransformFunctions/arm_cfft_radix4_f32.c ****             i0 += n1;
 914:Source\TransformFunctions/arm_cfft_radix4_f32.c ****          } while (i0 < fftLen);
 915:Source\TransformFunctions/arm_cfft_radix4_f32.c ****          j++;
 916:Source\TransformFunctions/arm_cfft_radix4_f32.c ****       } while (j <= (n2 - 1u));
 917:Source\TransformFunctions/arm_cfft_radix4_f32.c ****       twidCoefModifier <<= 2u;
 918:Source\TransformFunctions/arm_cfft_radix4_f32.c ****    }
 919:Source\TransformFunctions/arm_cfft_radix4_f32.c ****    /*  Initializations of last stage */
 920:Source\TransformFunctions/arm_cfft_radix4_f32.c **** 
 921:Source\TransformFunctions/arm_cfft_radix4_f32.c ****    j = fftLen >> 2;
 922:Source\TransformFunctions/arm_cfft_radix4_f32.c ****    ptr1 = &pSrc[0];
 923:Source\TransformFunctions/arm_cfft_radix4_f32.c **** 
 924:Source\TransformFunctions/arm_cfft_radix4_f32.c ****    /*  Calculations of last stage */
 925:Source\TransformFunctions/arm_cfft_radix4_f32.c ****    do
 926:Source\TransformFunctions/arm_cfft_radix4_f32.c ****    {
 927:Source\TransformFunctions/arm_cfft_radix4_f32.c ****       xaIn = ptr1[0];
 928:Source\TransformFunctions/arm_cfft_radix4_f32.c ****       yaIn = ptr1[1];
 929:Source\TransformFunctions/arm_cfft_radix4_f32.c ****       xbIn = ptr1[2];
 930:Source\TransformFunctions/arm_cfft_radix4_f32.c ****       ybIn = ptr1[3];
 931:Source\TransformFunctions/arm_cfft_radix4_f32.c ****       xcIn = ptr1[4];
 932:Source\TransformFunctions/arm_cfft_radix4_f32.c ****       ycIn = ptr1[5];
 933:Source\TransformFunctions/arm_cfft_radix4_f32.c ****       xdIn = ptr1[6];
 934:Source\TransformFunctions/arm_cfft_radix4_f32.c ****       ydIn = ptr1[7];
 935:Source\TransformFunctions/arm_cfft_radix4_f32.c **** 
 936:Source\TransformFunctions/arm_cfft_radix4_f32.c ****       /*  Butterfly implementation */
 937:Source\TransformFunctions/arm_cfft_radix4_f32.c ****       /* xa + xc */
 938:Source\TransformFunctions/arm_cfft_radix4_f32.c ****       Xaplusc = xaIn + xcIn;
 939:Source\TransformFunctions/arm_cfft_radix4_f32.c **** 
 940:Source\TransformFunctions/arm_cfft_radix4_f32.c ****       /* xa - xc */
 941:Source\TransformFunctions/arm_cfft_radix4_f32.c ****       Xaminusc = xaIn - xcIn;
 942:Source\TransformFunctions/arm_cfft_radix4_f32.c **** 
 943:Source\TransformFunctions/arm_cfft_radix4_f32.c ****       /* ya + yc */
 944:Source\TransformFunctions/arm_cfft_radix4_f32.c ****       Yaplusc = yaIn + ycIn;
 945:Source\TransformFunctions/arm_cfft_radix4_f32.c **** 
 946:Source\TransformFunctions/arm_cfft_radix4_f32.c ****       /* ya - yc */
 947:Source\TransformFunctions/arm_cfft_radix4_f32.c ****       Yaminusc = yaIn - ycIn;
 948:Source\TransformFunctions/arm_cfft_radix4_f32.c **** 
 949:Source\TransformFunctions/arm_cfft_radix4_f32.c ****       /* xb + xd */
 950:Source\TransformFunctions/arm_cfft_radix4_f32.c ****       Xbplusd = xbIn + xdIn;
 951:Source\TransformFunctions/arm_cfft_radix4_f32.c **** 
 952:Source\TransformFunctions/arm_cfft_radix4_f32.c ****       /* yb + yd */
 953:Source\TransformFunctions/arm_cfft_radix4_f32.c ****       Ybplusd = ybIn + ydIn;
 954:Source\TransformFunctions/arm_cfft_radix4_f32.c **** 
 955:Source\TransformFunctions/arm_cfft_radix4_f32.c ****       /* (xb-xd) */
 956:Source\TransformFunctions/arm_cfft_radix4_f32.c ****       Xbminusd = xbIn - xdIn;
 957:Source\TransformFunctions/arm_cfft_radix4_f32.c **** 
 958:Source\TransformFunctions/arm_cfft_radix4_f32.c ****       /* (yb-yd) */
 959:Source\TransformFunctions/arm_cfft_radix4_f32.c ****       Ybminusd = ybIn - ydIn;
 960:Source\TransformFunctions/arm_cfft_radix4_f32.c **** 
 961:Source\TransformFunctions/arm_cfft_radix4_f32.c ****       /* xa' = (xa+xb+xc+xd) * onebyfftLen */
 962:Source\TransformFunctions/arm_cfft_radix4_f32.c ****       a0 = (Xaplusc + Xbplusd);
 963:Source\TransformFunctions/arm_cfft_radix4_f32.c ****       /* ya' = (ya+yb+yc+yd) * onebyfftLen */
ARM GAS  C:\Users\fneves\AppData\Local\Temp\ccyQHZqi.s 			page 29


 964:Source\TransformFunctions/arm_cfft_radix4_f32.c ****       a1 = (Yaplusc + Ybplusd);
 965:Source\TransformFunctions/arm_cfft_radix4_f32.c ****       /* xc' = (xa-xb+xc-xd) * onebyfftLen */
 966:Source\TransformFunctions/arm_cfft_radix4_f32.c ****       a2 = (Xaplusc - Xbplusd);
 967:Source\TransformFunctions/arm_cfft_radix4_f32.c ****       /* yc' = (ya-yb+yc-yd) * onebyfftLen  */
 968:Source\TransformFunctions/arm_cfft_radix4_f32.c ****       a3 = (Yaplusc - Ybplusd);
 969:Source\TransformFunctions/arm_cfft_radix4_f32.c ****       /* xb' = (xa-yb-xc+yd) * onebyfftLen */
 970:Source\TransformFunctions/arm_cfft_radix4_f32.c ****       a4 = (Xaminusc - Ybminusd);
 971:Source\TransformFunctions/arm_cfft_radix4_f32.c ****       /* yb' = (ya+xb-yc-xd) * onebyfftLen */
 972:Source\TransformFunctions/arm_cfft_radix4_f32.c ****       a5 = (Yaminusc + Xbminusd);
 973:Source\TransformFunctions/arm_cfft_radix4_f32.c ****       /* xd' = (xa-yb-xc+yd) * onebyfftLen */
 974:Source\TransformFunctions/arm_cfft_radix4_f32.c ****       a6 = (Xaminusc + Ybminusd);
 975:Source\TransformFunctions/arm_cfft_radix4_f32.c ****       /* yd' = (ya-xb-yc+xd) * onebyfftLen */
 976:Source\TransformFunctions/arm_cfft_radix4_f32.c ****       a7 = (Yaminusc - Xbminusd);
 977:Source\TransformFunctions/arm_cfft_radix4_f32.c **** 
 978:Source\TransformFunctions/arm_cfft_radix4_f32.c ****       p0 = a0 * onebyfftLen;
 979:Source\TransformFunctions/arm_cfft_radix4_f32.c ****       p1 = a1 * onebyfftLen;
 980:Source\TransformFunctions/arm_cfft_radix4_f32.c ****       p2 = a2 * onebyfftLen;
 981:Source\TransformFunctions/arm_cfft_radix4_f32.c ****       p3 = a3 * onebyfftLen;
 982:Source\TransformFunctions/arm_cfft_radix4_f32.c ****       p4 = a4 * onebyfftLen;
 983:Source\TransformFunctions/arm_cfft_radix4_f32.c ****       p5 = a5 * onebyfftLen;
 984:Source\TransformFunctions/arm_cfft_radix4_f32.c ****       p6 = a6 * onebyfftLen;
 985:Source\TransformFunctions/arm_cfft_radix4_f32.c ****       p7 = a7 * onebyfftLen;
 986:Source\TransformFunctions/arm_cfft_radix4_f32.c **** 
 987:Source\TransformFunctions/arm_cfft_radix4_f32.c ****       /* xa' = (xa+xb+xc+xd) * onebyfftLen */
 988:Source\TransformFunctions/arm_cfft_radix4_f32.c ****       ptr1[0] = p0;
 989:Source\TransformFunctions/arm_cfft_radix4_f32.c ****       /* ya' = (ya+yb+yc+yd) * onebyfftLen */
 990:Source\TransformFunctions/arm_cfft_radix4_f32.c ****       ptr1[1] = p1;
 991:Source\TransformFunctions/arm_cfft_radix4_f32.c ****       /* xc' = (xa-xb+xc-xd) * onebyfftLen */
 992:Source\TransformFunctions/arm_cfft_radix4_f32.c ****       ptr1[2] = p2;
 993:Source\TransformFunctions/arm_cfft_radix4_f32.c ****       /* yc' = (ya-yb+yc-yd) * onebyfftLen  */
 994:Source\TransformFunctions/arm_cfft_radix4_f32.c ****       ptr1[3] = p3;
 995:Source\TransformFunctions/arm_cfft_radix4_f32.c ****       /* xb' = (xa-yb-xc+yd) * onebyfftLen */
 996:Source\TransformFunctions/arm_cfft_radix4_f32.c ****       ptr1[4] = p4;
 997:Source\TransformFunctions/arm_cfft_radix4_f32.c ****       /* yb' = (ya+xb-yc-xd) * onebyfftLen */
 998:Source\TransformFunctions/arm_cfft_radix4_f32.c ****       ptr1[5] = p5;
 999:Source\TransformFunctions/arm_cfft_radix4_f32.c ****       /* xd' = (xa-yb-xc+yd) * onebyfftLen */
1000:Source\TransformFunctions/arm_cfft_radix4_f32.c ****       ptr1[6] = p6;
1001:Source\TransformFunctions/arm_cfft_radix4_f32.c ****       /* yd' = (ya-xb-yc+xd) * onebyfftLen */
1002:Source\TransformFunctions/arm_cfft_radix4_f32.c ****       ptr1[7] = p7;
1003:Source\TransformFunctions/arm_cfft_radix4_f32.c **** 
1004:Source\TransformFunctions/arm_cfft_radix4_f32.c ****       /* increment source pointer by 8 for next calculations */
1005:Source\TransformFunctions/arm_cfft_radix4_f32.c ****       ptr1 = ptr1 + 8u;
1006:Source\TransformFunctions/arm_cfft_radix4_f32.c **** 
1007:Source\TransformFunctions/arm_cfft_radix4_f32.c ****    } while (--j);
1008:Source\TransformFunctions/arm_cfft_radix4_f32.c **** 
1009:Source\TransformFunctions/arm_cfft_radix4_f32.c **** #else
1010:Source\TransformFunctions/arm_cfft_radix4_f32.c **** 
1011:Source\TransformFunctions/arm_cfft_radix4_f32.c ****    float32_t t1, t2, r1, r2, s1, s2;
1012:Source\TransformFunctions/arm_cfft_radix4_f32.c **** 
1013:Source\TransformFunctions/arm_cfft_radix4_f32.c ****    /* Run the below code for Cortex-M0 */
1014:Source\TransformFunctions/arm_cfft_radix4_f32.c **** 
1015:Source\TransformFunctions/arm_cfft_radix4_f32.c ****    /*  Initializations for the first stage */
1016:Source\TransformFunctions/arm_cfft_radix4_f32.c ****    n2 = fftLen;
 632              		.loc 1 1016 0
 633 001e 0A23     		mov	r3, #10
 634 0020 FB18     		add	r3, r7, r3
 635 0022 1B88     		ldrh	r3, [r3]
ARM GAS  C:\Users\fneves\AppData\Local\Temp\ccyQHZqi.s 			page 30


 636 0024 7B66     		str	r3, [r7, #100]
1017:Source\TransformFunctions/arm_cfft_radix4_f32.c ****    n1 = n2;
 637              		.loc 1 1017 0
 638 0026 7B6E     		ldr	r3, [r7, #100]
 639 0028 BB65     		str	r3, [r7, #88]
1018:Source\TransformFunctions/arm_cfft_radix4_f32.c **** 
1019:Source\TransformFunctions/arm_cfft_radix4_f32.c ****    /*  Calculation of first stage */
1020:Source\TransformFunctions/arm_cfft_radix4_f32.c ****    for (k = fftLen; k > 4u; k >>= 2u)
 640              		.loc 1 1020 0
 641 002a 0A23     		mov	r3, #10
 642 002c FB18     		add	r3, r7, r3
 643 002e 1B88     		ldrh	r3, [r3]
 644 0030 FB65     		str	r3, [r7, #92]
 645 0032 ABE1     		b	.L11
 646              	.L14:
1021:Source\TransformFunctions/arm_cfft_radix4_f32.c ****    {
1022:Source\TransformFunctions/arm_cfft_radix4_f32.c ****       /*  Initializations for the first stage */
1023:Source\TransformFunctions/arm_cfft_radix4_f32.c ****       n1 = n2;
 647              		.loc 1 1023 0
 648 0034 7B6E     		ldr	r3, [r7, #100]
 649 0036 BB65     		str	r3, [r7, #88]
1024:Source\TransformFunctions/arm_cfft_radix4_f32.c ****       n2 >>= 2u;
 650              		.loc 1 1024 0
 651 0038 7B6E     		ldr	r3, [r7, #100]
 652 003a 9B08     		lsr	r3, r3, #2
 653 003c 7B66     		str	r3, [r7, #100]
1025:Source\TransformFunctions/arm_cfft_radix4_f32.c ****       ia1 = 0u;
 654              		.loc 1 1025 0
 655 003e 0023     		mov	r3, #0
 656 0040 FB66     		str	r3, [r7, #108]
1026:Source\TransformFunctions/arm_cfft_radix4_f32.c **** 
1027:Source\TransformFunctions/arm_cfft_radix4_f32.c ****       /*  Calculation of first stage */
1028:Source\TransformFunctions/arm_cfft_radix4_f32.c ****       j = 0;
 657              		.loc 1 1028 0
 658 0042 0023     		mov	r3, #0
 659 0044 3B66     		str	r3, [r7, #96]
 660              	.L13:
1029:Source\TransformFunctions/arm_cfft_radix4_f32.c ****       do
1030:Source\TransformFunctions/arm_cfft_radix4_f32.c ****       {
1031:Source\TransformFunctions/arm_cfft_radix4_f32.c ****          /*  index calculation for the coefficients */
1032:Source\TransformFunctions/arm_cfft_radix4_f32.c ****          ia2 = ia1 + ia1;
 661              		.loc 1 1032 0
 662 0046 FA6E     		ldr	r2, [r7, #108]
 663 0048 FB6E     		ldr	r3, [r7, #108]
 664 004a D318     		add	r3, r2, r3
 665 004c 7B65     		str	r3, [r7, #84]
1033:Source\TransformFunctions/arm_cfft_radix4_f32.c ****          ia3 = ia2 + ia1;
 666              		.loc 1 1033 0
 667 004e 7A6D     		ldr	r2, [r7, #84]
 668 0050 FB6E     		ldr	r3, [r7, #108]
 669 0052 D318     		add	r3, r2, r3
 670 0054 3B65     		str	r3, [r7, #80]
1034:Source\TransformFunctions/arm_cfft_radix4_f32.c ****          co1 = pCoef[ia1 * 2u];
 671              		.loc 1 1034 0
 672 0056 FB6E     		ldr	r3, [r7, #108]
 673 0058 DB00     		lsl	r3, r3, #3
 674 005a 7A68     		ldr	r2, [r7, #4]
ARM GAS  C:\Users\fneves\AppData\Local\Temp\ccyQHZqi.s 			page 31


 675 005c D318     		add	r3, r2, r3
 676 005e 1B68     		ldr	r3, [r3]
 677 0060 FB64     		str	r3, [r7, #76]
1035:Source\TransformFunctions/arm_cfft_radix4_f32.c ****          si1 = pCoef[(ia1 * 2u) + 1u];
 678              		.loc 1 1035 0
 679 0062 FB6E     		ldr	r3, [r7, #108]
 680 0064 DB00     		lsl	r3, r3, #3
 681 0066 0433     		add	r3, r3, #4
 682 0068 7A68     		ldr	r2, [r7, #4]
 683 006a D318     		add	r3, r2, r3
 684 006c 1B68     		ldr	r3, [r3]
 685 006e BB64     		str	r3, [r7, #72]
1036:Source\TransformFunctions/arm_cfft_radix4_f32.c ****          co2 = pCoef[ia2 * 2u];
 686              		.loc 1 1036 0
 687 0070 7B6D     		ldr	r3, [r7, #84]
 688 0072 DB00     		lsl	r3, r3, #3
 689 0074 7A68     		ldr	r2, [r7, #4]
 690 0076 D318     		add	r3, r2, r3
 691 0078 1B68     		ldr	r3, [r3]
 692 007a 7B64     		str	r3, [r7, #68]
1037:Source\TransformFunctions/arm_cfft_radix4_f32.c ****          si2 = pCoef[(ia2 * 2u) + 1u];
 693              		.loc 1 1037 0
 694 007c 7B6D     		ldr	r3, [r7, #84]
 695 007e DB00     		lsl	r3, r3, #3
 696 0080 0433     		add	r3, r3, #4
 697 0082 7A68     		ldr	r2, [r7, #4]
 698 0084 D318     		add	r3, r2, r3
 699 0086 1B68     		ldr	r3, [r3]
 700 0088 3B64     		str	r3, [r7, #64]
1038:Source\TransformFunctions/arm_cfft_radix4_f32.c ****          co3 = pCoef[ia3 * 2u];
 701              		.loc 1 1038 0
 702 008a 3B6D     		ldr	r3, [r7, #80]
 703 008c DB00     		lsl	r3, r3, #3
 704 008e 7A68     		ldr	r2, [r7, #4]
 705 0090 D318     		add	r3, r2, r3
 706 0092 1B68     		ldr	r3, [r3]
 707 0094 FB63     		str	r3, [r7, #60]
1039:Source\TransformFunctions/arm_cfft_radix4_f32.c ****          si3 = pCoef[(ia3 * 2u) + 1u];
 708              		.loc 1 1039 0
 709 0096 3B6D     		ldr	r3, [r7, #80]
 710 0098 DB00     		lsl	r3, r3, #3
 711 009a 0433     		add	r3, r3, #4
 712 009c 7A68     		ldr	r2, [r7, #4]
 713 009e D318     		add	r3, r2, r3
 714 00a0 1B68     		ldr	r3, [r3]
 715 00a2 BB63     		str	r3, [r7, #56]
1040:Source\TransformFunctions/arm_cfft_radix4_f32.c **** 
1041:Source\TransformFunctions/arm_cfft_radix4_f32.c ****          /*  Twiddle coefficients index modifier */
1042:Source\TransformFunctions/arm_cfft_radix4_f32.c ****          ia1 = ia1 + twidCoefModifier;
 716              		.loc 1 1042 0
 717 00a4 0823     		mov	r3, #8
 718 00a6 FB18     		add	r3, r7, r3
 719 00a8 1B88     		ldrh	r3, [r3]
 720 00aa FA6E     		ldr	r2, [r7, #108]
 721 00ac D318     		add	r3, r2, r3
 722 00ae FB66     		str	r3, [r7, #108]
1043:Source\TransformFunctions/arm_cfft_radix4_f32.c **** 
ARM GAS  C:\Users\fneves\AppData\Local\Temp\ccyQHZqi.s 			page 32


1044:Source\TransformFunctions/arm_cfft_radix4_f32.c ****          i0 = j;
 723              		.loc 1 1044 0
 724 00b0 3B6E     		ldr	r3, [r7, #96]
 725 00b2 BB66     		str	r3, [r7, #104]
 726              	.L12:
1045:Source\TransformFunctions/arm_cfft_radix4_f32.c ****          do
1046:Source\TransformFunctions/arm_cfft_radix4_f32.c ****          {
1047:Source\TransformFunctions/arm_cfft_radix4_f32.c ****             /*  index calculation for the input as, */
1048:Source\TransformFunctions/arm_cfft_radix4_f32.c ****             /*  pSrc[i0 + 0], pSrc[i0 + fftLen/4], pSrc[i0 + fftLen/2], pSrc[i0 + 3fftLen/4] */
1049:Source\TransformFunctions/arm_cfft_radix4_f32.c ****             i1 = i0 + n2;
 727              		.loc 1 1049 0 discriminator 1
 728 00b4 BA6E     		ldr	r2, [r7, #104]
 729 00b6 7B6E     		ldr	r3, [r7, #100]
 730 00b8 D318     		add	r3, r2, r3
 731 00ba 7B63     		str	r3, [r7, #52]
1050:Source\TransformFunctions/arm_cfft_radix4_f32.c ****             i2 = i1 + n2;
 732              		.loc 1 1050 0 discriminator 1
 733 00bc 7A6B     		ldr	r2, [r7, #52]
 734 00be 7B6E     		ldr	r3, [r7, #100]
 735 00c0 D318     		add	r3, r2, r3
 736 00c2 3B63     		str	r3, [r7, #48]
1051:Source\TransformFunctions/arm_cfft_radix4_f32.c ****             i3 = i2 + n2;
 737              		.loc 1 1051 0 discriminator 1
 738 00c4 3A6B     		ldr	r2, [r7, #48]
 739 00c6 7B6E     		ldr	r3, [r7, #100]
 740 00c8 D318     		add	r3, r2, r3
 741 00ca FB62     		str	r3, [r7, #44]
1052:Source\TransformFunctions/arm_cfft_radix4_f32.c **** 
1053:Source\TransformFunctions/arm_cfft_radix4_f32.c ****             /* xa + xc */
1054:Source\TransformFunctions/arm_cfft_radix4_f32.c ****             r1 = pSrc[(2u * i0)] + pSrc[(2u * i2)];
 742              		.loc 1 1054 0 discriminator 1
 743 00cc BB6E     		ldr	r3, [r7, #104]
 744 00ce DB00     		lsl	r3, r3, #3
 745 00d0 FA68     		ldr	r2, [r7, #12]
 746 00d2 D318     		add	r3, r2, r3
 747 00d4 1968     		ldr	r1, [r3]
 748 00d6 3B6B     		ldr	r3, [r7, #48]
 749 00d8 DB00     		lsl	r3, r3, #3
 750 00da FA68     		ldr	r2, [r7, #12]
 751 00dc D318     		add	r3, r2, r3
 752 00de 1B68     		ldr	r3, [r3]
 753 00e0 081C     		add	r0, r1, #0
 754 00e2 191C     		add	r1, r3, #0
 755 00e4 FFF7FEFF 		bl	__aeabi_fadd
 756 00e8 031C     		add	r3, r0, #0
 757 00ea BB62     		str	r3, [r7, #40]
1055:Source\TransformFunctions/arm_cfft_radix4_f32.c **** 
1056:Source\TransformFunctions/arm_cfft_radix4_f32.c ****             /* xa - xc */
1057:Source\TransformFunctions/arm_cfft_radix4_f32.c ****             r2 = pSrc[(2u * i0)] - pSrc[(2u * i2)];
 758              		.loc 1 1057 0 discriminator 1
 759 00ec BB6E     		ldr	r3, [r7, #104]
 760 00ee DB00     		lsl	r3, r3, #3
 761 00f0 FA68     		ldr	r2, [r7, #12]
 762 00f2 D318     		add	r3, r2, r3
 763 00f4 1968     		ldr	r1, [r3]
 764 00f6 3B6B     		ldr	r3, [r7, #48]
 765 00f8 DB00     		lsl	r3, r3, #3
ARM GAS  C:\Users\fneves\AppData\Local\Temp\ccyQHZqi.s 			page 33


 766 00fa FA68     		ldr	r2, [r7, #12]
 767 00fc D318     		add	r3, r2, r3
 768 00fe 1B68     		ldr	r3, [r3]
 769 0100 081C     		add	r0, r1, #0
 770 0102 191C     		add	r1, r3, #0
 771 0104 FFF7FEFF 		bl	__aeabi_fsub
 772 0108 031C     		add	r3, r0, #0
 773 010a 7B62     		str	r3, [r7, #36]
1058:Source\TransformFunctions/arm_cfft_radix4_f32.c **** 
1059:Source\TransformFunctions/arm_cfft_radix4_f32.c ****             /* ya + yc */
1060:Source\TransformFunctions/arm_cfft_radix4_f32.c ****             s1 = pSrc[(2u * i0) + 1u] + pSrc[(2u * i2) + 1u];
 774              		.loc 1 1060 0 discriminator 1
 775 010c BB6E     		ldr	r3, [r7, #104]
 776 010e DB00     		lsl	r3, r3, #3
 777 0110 0433     		add	r3, r3, #4
 778 0112 FA68     		ldr	r2, [r7, #12]
 779 0114 D318     		add	r3, r2, r3
 780 0116 1968     		ldr	r1, [r3]
 781 0118 3B6B     		ldr	r3, [r7, #48]
 782 011a DB00     		lsl	r3, r3, #3
 783 011c 0433     		add	r3, r3, #4
 784 011e FA68     		ldr	r2, [r7, #12]
 785 0120 D318     		add	r3, r2, r3
 786 0122 1B68     		ldr	r3, [r3]
 787 0124 081C     		add	r0, r1, #0
 788 0126 191C     		add	r1, r3, #0
 789 0128 FFF7FEFF 		bl	__aeabi_fadd
 790 012c 031C     		add	r3, r0, #0
 791 012e 3B62     		str	r3, [r7, #32]
1061:Source\TransformFunctions/arm_cfft_radix4_f32.c **** 
1062:Source\TransformFunctions/arm_cfft_radix4_f32.c ****             /* ya - yc */
1063:Source\TransformFunctions/arm_cfft_radix4_f32.c ****             s2 = pSrc[(2u * i0) + 1u] - pSrc[(2u * i2) + 1u];
 792              		.loc 1 1063 0 discriminator 1
 793 0130 BB6E     		ldr	r3, [r7, #104]
 794 0132 DB00     		lsl	r3, r3, #3
 795 0134 0433     		add	r3, r3, #4
 796 0136 FA68     		ldr	r2, [r7, #12]
 797 0138 D318     		add	r3, r2, r3
 798 013a 1968     		ldr	r1, [r3]
 799 013c 3B6B     		ldr	r3, [r7, #48]
 800 013e DB00     		lsl	r3, r3, #3
 801 0140 0433     		add	r3, r3, #4
 802 0142 FA68     		ldr	r2, [r7, #12]
 803 0144 D318     		add	r3, r2, r3
 804 0146 1B68     		ldr	r3, [r3]
 805 0148 081C     		add	r0, r1, #0
 806 014a 191C     		add	r1, r3, #0
 807 014c FFF7FEFF 		bl	__aeabi_fsub
 808 0150 031C     		add	r3, r0, #0
 809 0152 FB61     		str	r3, [r7, #28]
1064:Source\TransformFunctions/arm_cfft_radix4_f32.c **** 
1065:Source\TransformFunctions/arm_cfft_radix4_f32.c ****             /* xb + xd */
1066:Source\TransformFunctions/arm_cfft_radix4_f32.c ****             t1 = pSrc[2u * i1] + pSrc[2u * i3];
 810              		.loc 1 1066 0 discriminator 1
 811 0154 7B6B     		ldr	r3, [r7, #52]
 812 0156 DB00     		lsl	r3, r3, #3
 813 0158 FA68     		ldr	r2, [r7, #12]
ARM GAS  C:\Users\fneves\AppData\Local\Temp\ccyQHZqi.s 			page 34


 814 015a D318     		add	r3, r2, r3
 815 015c 1968     		ldr	r1, [r3]
 816 015e FB6A     		ldr	r3, [r7, #44]
 817 0160 DB00     		lsl	r3, r3, #3
 818 0162 FA68     		ldr	r2, [r7, #12]
 819 0164 D318     		add	r3, r2, r3
 820 0166 1B68     		ldr	r3, [r3]
 821 0168 081C     		add	r0, r1, #0
 822 016a 191C     		add	r1, r3, #0
 823 016c FFF7FEFF 		bl	__aeabi_fadd
 824 0170 031C     		add	r3, r0, #0
 825 0172 BB61     		str	r3, [r7, #24]
1067:Source\TransformFunctions/arm_cfft_radix4_f32.c **** 
1068:Source\TransformFunctions/arm_cfft_radix4_f32.c ****             /* xa' = xa + xb + xc + xd */
1069:Source\TransformFunctions/arm_cfft_radix4_f32.c ****             pSrc[2u * i0] = r1 + t1;
 826              		.loc 1 1069 0 discriminator 1
 827 0174 BB6E     		ldr	r3, [r7, #104]
 828 0176 DB00     		lsl	r3, r3, #3
 829 0178 FA68     		ldr	r2, [r7, #12]
 830 017a D418     		add	r4, r2, r3
 831 017c B86A     		ldr	r0, [r7, #40]
 832 017e B969     		ldr	r1, [r7, #24]
 833 0180 FFF7FEFF 		bl	__aeabi_fadd
 834 0184 031C     		add	r3, r0, #0
 835 0186 2360     		str	r3, [r4]
1070:Source\TransformFunctions/arm_cfft_radix4_f32.c **** 
1071:Source\TransformFunctions/arm_cfft_radix4_f32.c ****             /* xa + xc -(xb + xd) */
1072:Source\TransformFunctions/arm_cfft_radix4_f32.c ****             r1 = r1 - t1;
 836              		.loc 1 1072 0 discriminator 1
 837 0188 B86A     		ldr	r0, [r7, #40]
 838 018a B969     		ldr	r1, [r7, #24]
 839 018c FFF7FEFF 		bl	__aeabi_fsub
 840 0190 031C     		add	r3, r0, #0
 841 0192 BB62     		str	r3, [r7, #40]
1073:Source\TransformFunctions/arm_cfft_radix4_f32.c **** 
1074:Source\TransformFunctions/arm_cfft_radix4_f32.c ****             /* yb + yd */
1075:Source\TransformFunctions/arm_cfft_radix4_f32.c ****             t2 = pSrc[(2u * i1) + 1u] + pSrc[(2u * i3) + 1u];
 842              		.loc 1 1075 0 discriminator 1
 843 0194 7B6B     		ldr	r3, [r7, #52]
 844 0196 DB00     		lsl	r3, r3, #3
 845 0198 0433     		add	r3, r3, #4
 846 019a FA68     		ldr	r2, [r7, #12]
 847 019c D318     		add	r3, r2, r3
 848 019e 1968     		ldr	r1, [r3]
 849 01a0 FB6A     		ldr	r3, [r7, #44]
 850 01a2 DB00     		lsl	r3, r3, #3
 851 01a4 0433     		add	r3, r3, #4
 852 01a6 FA68     		ldr	r2, [r7, #12]
 853 01a8 D318     		add	r3, r2, r3
 854 01aa 1B68     		ldr	r3, [r3]
 855 01ac 081C     		add	r0, r1, #0
 856 01ae 191C     		add	r1, r3, #0
 857 01b0 FFF7FEFF 		bl	__aeabi_fadd
 858 01b4 031C     		add	r3, r0, #0
 859 01b6 7B61     		str	r3, [r7, #20]
1076:Source\TransformFunctions/arm_cfft_radix4_f32.c **** 
1077:Source\TransformFunctions/arm_cfft_radix4_f32.c ****             /* ya' = ya + yb + yc + yd */
ARM GAS  C:\Users\fneves\AppData\Local\Temp\ccyQHZqi.s 			page 35


1078:Source\TransformFunctions/arm_cfft_radix4_f32.c ****             pSrc[(2u * i0) + 1u] = s1 + t2;
 860              		.loc 1 1078 0 discriminator 1
 861 01b8 BB6E     		ldr	r3, [r7, #104]
 862 01ba DB00     		lsl	r3, r3, #3
 863 01bc 0433     		add	r3, r3, #4
 864 01be FA68     		ldr	r2, [r7, #12]
 865 01c0 D418     		add	r4, r2, r3
 866 01c2 386A     		ldr	r0, [r7, #32]
 867 01c4 7969     		ldr	r1, [r7, #20]
 868 01c6 FFF7FEFF 		bl	__aeabi_fadd
 869 01ca 031C     		add	r3, r0, #0
 870 01cc 2360     		str	r3, [r4]
1079:Source\TransformFunctions/arm_cfft_radix4_f32.c **** 
1080:Source\TransformFunctions/arm_cfft_radix4_f32.c ****             /* (ya + yc) - (yb + yd) */
1081:Source\TransformFunctions/arm_cfft_radix4_f32.c ****             s1 = s1 - t2;
 871              		.loc 1 1081 0 discriminator 1
 872 01ce 386A     		ldr	r0, [r7, #32]
 873 01d0 7969     		ldr	r1, [r7, #20]
 874 01d2 FFF7FEFF 		bl	__aeabi_fsub
 875 01d6 031C     		add	r3, r0, #0
 876 01d8 3B62     		str	r3, [r7, #32]
1082:Source\TransformFunctions/arm_cfft_radix4_f32.c **** 
1083:Source\TransformFunctions/arm_cfft_radix4_f32.c ****             /* (yb - yd) */
1084:Source\TransformFunctions/arm_cfft_radix4_f32.c ****             t1 = pSrc[(2u * i1) + 1u] - pSrc[(2u * i3) + 1u];
 877              		.loc 1 1084 0 discriminator 1
 878 01da 7B6B     		ldr	r3, [r7, #52]
 879 01dc DB00     		lsl	r3, r3, #3
 880 01de 0433     		add	r3, r3, #4
 881 01e0 FA68     		ldr	r2, [r7, #12]
 882 01e2 D318     		add	r3, r2, r3
 883 01e4 1968     		ldr	r1, [r3]
 884 01e6 FB6A     		ldr	r3, [r7, #44]
 885 01e8 DB00     		lsl	r3, r3, #3
 886 01ea 0433     		add	r3, r3, #4
 887 01ec FA68     		ldr	r2, [r7, #12]
 888 01ee D318     		add	r3, r2, r3
 889 01f0 1B68     		ldr	r3, [r3]
 890 01f2 081C     		add	r0, r1, #0
 891 01f4 191C     		add	r1, r3, #0
 892 01f6 FFF7FEFF 		bl	__aeabi_fsub
 893 01fa 031C     		add	r3, r0, #0
 894 01fc BB61     		str	r3, [r7, #24]
1085:Source\TransformFunctions/arm_cfft_radix4_f32.c **** 
1086:Source\TransformFunctions/arm_cfft_radix4_f32.c ****             /* (xb - xd) */
1087:Source\TransformFunctions/arm_cfft_radix4_f32.c ****             t2 = pSrc[2u * i1] - pSrc[2u * i3];
 895              		.loc 1 1087 0 discriminator 1
 896 01fe 7B6B     		ldr	r3, [r7, #52]
 897 0200 DB00     		lsl	r3, r3, #3
 898 0202 FA68     		ldr	r2, [r7, #12]
 899 0204 D318     		add	r3, r2, r3
 900 0206 1968     		ldr	r1, [r3]
 901 0208 FB6A     		ldr	r3, [r7, #44]
 902 020a DB00     		lsl	r3, r3, #3
 903 020c FA68     		ldr	r2, [r7, #12]
 904 020e D318     		add	r3, r2, r3
 905 0210 1B68     		ldr	r3, [r3]
 906 0212 081C     		add	r0, r1, #0
ARM GAS  C:\Users\fneves\AppData\Local\Temp\ccyQHZqi.s 			page 36


 907 0214 191C     		add	r1, r3, #0
 908 0216 FFF7FEFF 		bl	__aeabi_fsub
 909 021a 031C     		add	r3, r0, #0
 910 021c 7B61     		str	r3, [r7, #20]
1088:Source\TransformFunctions/arm_cfft_radix4_f32.c **** 
1089:Source\TransformFunctions/arm_cfft_radix4_f32.c ****             /* xc' = (xa-xb+xc-xd)co2 - (ya-yb+yc-yd)(si2) */
1090:Source\TransformFunctions/arm_cfft_radix4_f32.c ****             pSrc[2u * i1] = (r1 * co2) - (s1 * si2);
 911              		.loc 1 1090 0 discriminator 1
 912 021e 7B6B     		ldr	r3, [r7, #52]
 913 0220 DB00     		lsl	r3, r3, #3
 914 0222 FA68     		ldr	r2, [r7, #12]
 915 0224 D418     		add	r4, r2, r3
 916 0226 B86A     		ldr	r0, [r7, #40]
 917 0228 796C     		ldr	r1, [r7, #68]
 918 022a FFF7FEFF 		bl	__aeabi_fmul
 919 022e 031C     		add	r3, r0, #0
 920 0230 1D1C     		add	r5, r3, #0
 921 0232 386A     		ldr	r0, [r7, #32]
 922 0234 396C     		ldr	r1, [r7, #64]
 923 0236 FFF7FEFF 		bl	__aeabi_fmul
 924 023a 031C     		add	r3, r0, #0
 925 023c 281C     		add	r0, r5, #0
 926 023e 191C     		add	r1, r3, #0
 927 0240 FFF7FEFF 		bl	__aeabi_fsub
 928 0244 031C     		add	r3, r0, #0
 929 0246 2360     		str	r3, [r4]
1091:Source\TransformFunctions/arm_cfft_radix4_f32.c **** 
1092:Source\TransformFunctions/arm_cfft_radix4_f32.c ****             /* yc' = (ya-yb+yc-yd)co2 + (xa-xb+xc-xd)(si2) */
1093:Source\TransformFunctions/arm_cfft_radix4_f32.c ****             pSrc[(2u * i1) + 1u] = (s1 * co2) + (r1 * si2);
 930              		.loc 1 1093 0 discriminator 1
 931 0248 7B6B     		ldr	r3, [r7, #52]
 932 024a DB00     		lsl	r3, r3, #3
 933 024c 0433     		add	r3, r3, #4
 934 024e FA68     		ldr	r2, [r7, #12]
 935 0250 D418     		add	r4, r2, r3
 936 0252 386A     		ldr	r0, [r7, #32]
 937 0254 796C     		ldr	r1, [r7, #68]
 938 0256 FFF7FEFF 		bl	__aeabi_fmul
 939 025a 031C     		add	r3, r0, #0
 940 025c 1D1C     		add	r5, r3, #0
 941 025e B86A     		ldr	r0, [r7, #40]
 942 0260 396C     		ldr	r1, [r7, #64]
 943 0262 FFF7FEFF 		bl	__aeabi_fmul
 944 0266 031C     		add	r3, r0, #0
 945 0268 281C     		add	r0, r5, #0
 946 026a 191C     		add	r1, r3, #0
 947 026c FFF7FEFF 		bl	__aeabi_fadd
 948 0270 031C     		add	r3, r0, #0
 949 0272 2360     		str	r3, [r4]
1094:Source\TransformFunctions/arm_cfft_radix4_f32.c **** 
1095:Source\TransformFunctions/arm_cfft_radix4_f32.c ****             /* (xa - xc) - (yb - yd) */
1096:Source\TransformFunctions/arm_cfft_radix4_f32.c ****             r1 = r2 - t1;
 950              		.loc 1 1096 0 discriminator 1
 951 0274 786A     		ldr	r0, [r7, #36]
 952 0276 B969     		ldr	r1, [r7, #24]
 953 0278 FFF7FEFF 		bl	__aeabi_fsub
 954 027c 031C     		add	r3, r0, #0
ARM GAS  C:\Users\fneves\AppData\Local\Temp\ccyQHZqi.s 			page 37


 955 027e BB62     		str	r3, [r7, #40]
1097:Source\TransformFunctions/arm_cfft_radix4_f32.c **** 
1098:Source\TransformFunctions/arm_cfft_radix4_f32.c ****             /* (xa - xc) + (yb - yd) */
1099:Source\TransformFunctions/arm_cfft_radix4_f32.c ****             r2 = r2 + t1;
 956              		.loc 1 1099 0 discriminator 1
 957 0280 786A     		ldr	r0, [r7, #36]
 958 0282 B969     		ldr	r1, [r7, #24]
 959 0284 FFF7FEFF 		bl	__aeabi_fadd
 960 0288 031C     		add	r3, r0, #0
 961 028a 7B62     		str	r3, [r7, #36]
1100:Source\TransformFunctions/arm_cfft_radix4_f32.c **** 
1101:Source\TransformFunctions/arm_cfft_radix4_f32.c ****             /* (ya - yc) +  (xb - xd) */
1102:Source\TransformFunctions/arm_cfft_radix4_f32.c ****             s1 = s2 + t2;
 962              		.loc 1 1102 0 discriminator 1
 963 028c F869     		ldr	r0, [r7, #28]
 964 028e 7969     		ldr	r1, [r7, #20]
 965 0290 FFF7FEFF 		bl	__aeabi_fadd
 966 0294 031C     		add	r3, r0, #0
 967 0296 3B62     		str	r3, [r7, #32]
1103:Source\TransformFunctions/arm_cfft_radix4_f32.c **** 
1104:Source\TransformFunctions/arm_cfft_radix4_f32.c ****             /* (ya - yc) -  (xb - xd) */
1105:Source\TransformFunctions/arm_cfft_radix4_f32.c ****             s2 = s2 - t2;
 968              		.loc 1 1105 0 discriminator 1
 969 0298 F869     		ldr	r0, [r7, #28]
 970 029a 7969     		ldr	r1, [r7, #20]
 971 029c FFF7FEFF 		bl	__aeabi_fsub
 972 02a0 031C     		add	r3, r0, #0
 973 02a2 FB61     		str	r3, [r7, #28]
1106:Source\TransformFunctions/arm_cfft_radix4_f32.c **** 
1107:Source\TransformFunctions/arm_cfft_radix4_f32.c ****             /* xb' = (xa+yb-xc-yd)co1 - (ya-xb-yc+xd)(si1) */
1108:Source\TransformFunctions/arm_cfft_radix4_f32.c ****             pSrc[2u * i2] = (r1 * co1) - (s1 * si1);
 974              		.loc 1 1108 0 discriminator 1
 975 02a4 3B6B     		ldr	r3, [r7, #48]
 976 02a6 DB00     		lsl	r3, r3, #3
 977 02a8 FA68     		ldr	r2, [r7, #12]
 978 02aa D418     		add	r4, r2, r3
 979 02ac B86A     		ldr	r0, [r7, #40]
 980 02ae F96C     		ldr	r1, [r7, #76]
 981 02b0 FFF7FEFF 		bl	__aeabi_fmul
 982 02b4 031C     		add	r3, r0, #0
 983 02b6 1D1C     		add	r5, r3, #0
 984 02b8 386A     		ldr	r0, [r7, #32]
 985 02ba B96C     		ldr	r1, [r7, #72]
 986 02bc FFF7FEFF 		bl	__aeabi_fmul
 987 02c0 031C     		add	r3, r0, #0
 988 02c2 281C     		add	r0, r5, #0
 989 02c4 191C     		add	r1, r3, #0
 990 02c6 FFF7FEFF 		bl	__aeabi_fsub
 991 02ca 031C     		add	r3, r0, #0
 992 02cc 2360     		str	r3, [r4]
1109:Source\TransformFunctions/arm_cfft_radix4_f32.c **** 
1110:Source\TransformFunctions/arm_cfft_radix4_f32.c ****             /* yb' = (ya-xb-yc+xd)co1 + (xa+yb-xc-yd)(si1) */
1111:Source\TransformFunctions/arm_cfft_radix4_f32.c ****             pSrc[(2u * i2) + 1u] = (s1 * co1) + (r1 * si1);
 993              		.loc 1 1111 0 discriminator 1
 994 02ce 3B6B     		ldr	r3, [r7, #48]
 995 02d0 DB00     		lsl	r3, r3, #3
 996 02d2 0433     		add	r3, r3, #4
ARM GAS  C:\Users\fneves\AppData\Local\Temp\ccyQHZqi.s 			page 38


 997 02d4 FA68     		ldr	r2, [r7, #12]
 998 02d6 D418     		add	r4, r2, r3
 999 02d8 386A     		ldr	r0, [r7, #32]
 1000 02da F96C     		ldr	r1, [r7, #76]
 1001 02dc FFF7FEFF 		bl	__aeabi_fmul
 1002 02e0 031C     		add	r3, r0, #0
 1003 02e2 1D1C     		add	r5, r3, #0
 1004 02e4 B86A     		ldr	r0, [r7, #40]
 1005 02e6 B96C     		ldr	r1, [r7, #72]
 1006 02e8 FFF7FEFF 		bl	__aeabi_fmul
 1007 02ec 031C     		add	r3, r0, #0
 1008 02ee 281C     		add	r0, r5, #0
 1009 02f0 191C     		add	r1, r3, #0
 1010 02f2 FFF7FEFF 		bl	__aeabi_fadd
 1011 02f6 031C     		add	r3, r0, #0
 1012 02f8 2360     		str	r3, [r4]
1112:Source\TransformFunctions/arm_cfft_radix4_f32.c **** 
1113:Source\TransformFunctions/arm_cfft_radix4_f32.c ****             /* xd' = (xa-yb-xc+yd)co3 - (ya+xb-yc-xd)(si3) */
1114:Source\TransformFunctions/arm_cfft_radix4_f32.c ****             pSrc[2u * i3] = (r2 * co3) - (s2 * si3);
 1013              		.loc 1 1114 0 discriminator 1
 1014 02fa FB6A     		ldr	r3, [r7, #44]
 1015 02fc DB00     		lsl	r3, r3, #3
 1016 02fe FA68     		ldr	r2, [r7, #12]
 1017 0300 D418     		add	r4, r2, r3
 1018 0302 786A     		ldr	r0, [r7, #36]
 1019 0304 F96B     		ldr	r1, [r7, #60]
 1020 0306 FFF7FEFF 		bl	__aeabi_fmul
 1021 030a 031C     		add	r3, r0, #0
 1022 030c 1D1C     		add	r5, r3, #0
 1023 030e F869     		ldr	r0, [r7, #28]
 1024 0310 B96B     		ldr	r1, [r7, #56]
 1025 0312 FFF7FEFF 		bl	__aeabi_fmul
 1026 0316 031C     		add	r3, r0, #0
 1027 0318 281C     		add	r0, r5, #0
 1028 031a 191C     		add	r1, r3, #0
 1029 031c FFF7FEFF 		bl	__aeabi_fsub
 1030 0320 031C     		add	r3, r0, #0
 1031 0322 2360     		str	r3, [r4]
1115:Source\TransformFunctions/arm_cfft_radix4_f32.c **** 
1116:Source\TransformFunctions/arm_cfft_radix4_f32.c ****             /* yd' = (ya+xb-yc-xd)co3 + (xa-yb-xc+yd)(si3) */
1117:Source\TransformFunctions/arm_cfft_radix4_f32.c ****             pSrc[(2u * i3) + 1u] = (s2 * co3) + (r2 * si3);
 1032              		.loc 1 1117 0 discriminator 1
 1033 0324 FB6A     		ldr	r3, [r7, #44]
 1034 0326 DB00     		lsl	r3, r3, #3
 1035 0328 0433     		add	r3, r3, #4
 1036 032a FA68     		ldr	r2, [r7, #12]
 1037 032c D418     		add	r4, r2, r3
 1038 032e F869     		ldr	r0, [r7, #28]
 1039 0330 F96B     		ldr	r1, [r7, #60]
 1040 0332 FFF7FEFF 		bl	__aeabi_fmul
 1041 0336 031C     		add	r3, r0, #0
 1042 0338 1D1C     		add	r5, r3, #0
 1043 033a 786A     		ldr	r0, [r7, #36]
 1044 033c B96B     		ldr	r1, [r7, #56]
 1045 033e FFF7FEFF 		bl	__aeabi_fmul
 1046 0342 031C     		add	r3, r0, #0
 1047 0344 281C     		add	r0, r5, #0
ARM GAS  C:\Users\fneves\AppData\Local\Temp\ccyQHZqi.s 			page 39


 1048 0346 191C     		add	r1, r3, #0
 1049 0348 FFF7FEFF 		bl	__aeabi_fadd
 1050 034c 031C     		add	r3, r0, #0
 1051 034e 2360     		str	r3, [r4]
1118:Source\TransformFunctions/arm_cfft_radix4_f32.c **** 
1119:Source\TransformFunctions/arm_cfft_radix4_f32.c ****             i0 += n1;
 1052              		.loc 1 1119 0 discriminator 1
 1053 0350 BA6E     		ldr	r2, [r7, #104]
 1054 0352 BB6D     		ldr	r3, [r7, #88]
 1055 0354 D318     		add	r3, r2, r3
 1056 0356 BB66     		str	r3, [r7, #104]
1120:Source\TransformFunctions/arm_cfft_radix4_f32.c ****          } while ( i0 < fftLen);
 1057              		.loc 1 1120 0 discriminator 1
 1058 0358 0A23     		mov	r3, #10
 1059 035a FB18     		add	r3, r7, r3
 1060 035c 1A88     		ldrh	r2, [r3]
 1061 035e BB6E     		ldr	r3, [r7, #104]
 1062 0360 9A42     		cmp	r2, r3
 1063 0362 00D9     		bls	.LCB938
 1064 0364 A6E6     		b	.L12	@long jump
 1065              	.LCB938:
1121:Source\TransformFunctions/arm_cfft_radix4_f32.c ****          j++;
 1066              		.loc 1 1121 0
 1067 0366 3B6E     		ldr	r3, [r7, #96]
 1068 0368 0133     		add	r3, r3, #1
 1069 036a 3B66     		str	r3, [r7, #96]
1122:Source\TransformFunctions/arm_cfft_radix4_f32.c ****       } while (j <= (n2 - 1u));
 1070              		.loc 1 1122 0
 1071 036c 7B6E     		ldr	r3, [r7, #100]
 1072 036e 5A1E     		sub	r2, r3, #1
 1073 0370 3B6E     		ldr	r3, [r7, #96]
 1074 0372 9A42     		cmp	r2, r3
 1075 0374 00D3     		bcc	.LCB946
 1076 0376 66E6     		b	.L13	@long jump
 1077              	.LCB946:
1123:Source\TransformFunctions/arm_cfft_radix4_f32.c ****       twidCoefModifier <<= 2u;
 1078              		.loc 1 1123 0 discriminator 2
 1079 0378 0823     		mov	r3, #8
 1080 037a FB18     		add	r3, r7, r3
 1081 037c 0822     		mov	r2, #8
 1082 037e BA18     		add	r2, r7, r2
 1083 0380 1288     		ldrh	r2, [r2]
 1084 0382 9200     		lsl	r2, r2, #2
 1085 0384 1A80     		strh	r2, [r3]
1020:Source\TransformFunctions/arm_cfft_radix4_f32.c ****    {
 1086              		.loc 1 1020 0 discriminator 2
 1087 0386 FB6D     		ldr	r3, [r7, #92]
 1088 0388 9B08     		lsr	r3, r3, #2
 1089 038a FB65     		str	r3, [r7, #92]
 1090              	.L11:
1020:Source\TransformFunctions/arm_cfft_radix4_f32.c ****    {
 1091              		.loc 1 1020 0 is_stmt 0 discriminator 1
 1092 038c FB6D     		ldr	r3, [r7, #92]
 1093 038e 042B     		cmp	r3, #4
 1094 0390 00D9     		bls	.LCB961
 1095 0392 4FE6     		b	.L14	@long jump
 1096              	.LCB961:
ARM GAS  C:\Users\fneves\AppData\Local\Temp\ccyQHZqi.s 			page 40


1124:Source\TransformFunctions/arm_cfft_radix4_f32.c ****    }
1125:Source\TransformFunctions/arm_cfft_radix4_f32.c ****    /*  Initializations of last stage */
1126:Source\TransformFunctions/arm_cfft_radix4_f32.c ****    n1 = n2;
 1097              		.loc 1 1126 0 is_stmt 1
 1098 0394 7B6E     		ldr	r3, [r7, #100]
 1099 0396 BB65     		str	r3, [r7, #88]
1127:Source\TransformFunctions/arm_cfft_radix4_f32.c ****    n2 >>= 2u;
 1100              		.loc 1 1127 0
 1101 0398 7B6E     		ldr	r3, [r7, #100]
 1102 039a 9B08     		lsr	r3, r3, #2
 1103 039c 7B66     		str	r3, [r7, #100]
1128:Source\TransformFunctions/arm_cfft_radix4_f32.c **** 
1129:Source\TransformFunctions/arm_cfft_radix4_f32.c ****    /*  Calculations of last stage */
1130:Source\TransformFunctions/arm_cfft_radix4_f32.c ****    for (i0 = 0u; i0 <= (fftLen - n1); i0 += n1)
 1104              		.loc 1 1130 0
 1105 039e 0023     		mov	r3, #0
 1106 03a0 BB66     		str	r3, [r7, #104]
 1107 03a2 29E1     		b	.L15
 1108              	.L16:
1131:Source\TransformFunctions/arm_cfft_radix4_f32.c ****    {
1132:Source\TransformFunctions/arm_cfft_radix4_f32.c ****       /*  index calculation for the input as, */
1133:Source\TransformFunctions/arm_cfft_radix4_f32.c ****       /*  pSrc[i0 + 0], pSrc[i0 + fftLen/4], pSrc[i0 + fftLen/2], pSrc[i0 + 3fftLen/4] */
1134:Source\TransformFunctions/arm_cfft_radix4_f32.c ****       i1 = i0 + n2;
 1109              		.loc 1 1134 0 discriminator 3
 1110 03a4 BA6E     		ldr	r2, [r7, #104]
 1111 03a6 7B6E     		ldr	r3, [r7, #100]
 1112 03a8 D318     		add	r3, r2, r3
 1113 03aa 7B63     		str	r3, [r7, #52]
1135:Source\TransformFunctions/arm_cfft_radix4_f32.c ****       i2 = i1 + n2;
 1114              		.loc 1 1135 0 discriminator 3
 1115 03ac 7A6B     		ldr	r2, [r7, #52]
 1116 03ae 7B6E     		ldr	r3, [r7, #100]
 1117 03b0 D318     		add	r3, r2, r3
 1118 03b2 3B63     		str	r3, [r7, #48]
1136:Source\TransformFunctions/arm_cfft_radix4_f32.c ****       i3 = i2 + n2;
 1119              		.loc 1 1136 0 discriminator 3
 1120 03b4 3A6B     		ldr	r2, [r7, #48]
 1121 03b6 7B6E     		ldr	r3, [r7, #100]
 1122 03b8 D318     		add	r3, r2, r3
 1123 03ba FB62     		str	r3, [r7, #44]
1137:Source\TransformFunctions/arm_cfft_radix4_f32.c **** 
1138:Source\TransformFunctions/arm_cfft_radix4_f32.c ****       /*  Butterfly implementation */
1139:Source\TransformFunctions/arm_cfft_radix4_f32.c ****       /* xa + xc */
1140:Source\TransformFunctions/arm_cfft_radix4_f32.c ****       r1 = pSrc[2u * i0] + pSrc[2u * i2];
 1124              		.loc 1 1140 0 discriminator 3
 1125 03bc BB6E     		ldr	r3, [r7, #104]
 1126 03be DB00     		lsl	r3, r3, #3
 1127 03c0 FA68     		ldr	r2, [r7, #12]
 1128 03c2 D318     		add	r3, r2, r3
 1129 03c4 1968     		ldr	r1, [r3]
 1130 03c6 3B6B     		ldr	r3, [r7, #48]
 1131 03c8 DB00     		lsl	r3, r3, #3
 1132 03ca FA68     		ldr	r2, [r7, #12]
 1133 03cc D318     		add	r3, r2, r3
 1134 03ce 1B68     		ldr	r3, [r3]
 1135 03d0 081C     		add	r0, r1, #0
 1136 03d2 191C     		add	r1, r3, #0
ARM GAS  C:\Users\fneves\AppData\Local\Temp\ccyQHZqi.s 			page 41


 1137 03d4 FFF7FEFF 		bl	__aeabi_fadd
 1138 03d8 031C     		add	r3, r0, #0
 1139 03da BB62     		str	r3, [r7, #40]
1141:Source\TransformFunctions/arm_cfft_radix4_f32.c **** 
1142:Source\TransformFunctions/arm_cfft_radix4_f32.c ****       /* xa - xc */
1143:Source\TransformFunctions/arm_cfft_radix4_f32.c ****       r2 = pSrc[2u * i0] - pSrc[2u * i2];
 1140              		.loc 1 1143 0 discriminator 3
 1141 03dc BB6E     		ldr	r3, [r7, #104]
 1142 03de DB00     		lsl	r3, r3, #3
 1143 03e0 FA68     		ldr	r2, [r7, #12]
 1144 03e2 D318     		add	r3, r2, r3
 1145 03e4 1968     		ldr	r1, [r3]
 1146 03e6 3B6B     		ldr	r3, [r7, #48]
 1147 03e8 DB00     		lsl	r3, r3, #3
 1148 03ea FA68     		ldr	r2, [r7, #12]
 1149 03ec D318     		add	r3, r2, r3
 1150 03ee 1B68     		ldr	r3, [r3]
 1151 03f0 081C     		add	r0, r1, #0
 1152 03f2 191C     		add	r1, r3, #0
 1153 03f4 FFF7FEFF 		bl	__aeabi_fsub
 1154 03f8 031C     		add	r3, r0, #0
 1155 03fa 7B62     		str	r3, [r7, #36]
1144:Source\TransformFunctions/arm_cfft_radix4_f32.c **** 
1145:Source\TransformFunctions/arm_cfft_radix4_f32.c ****       /* ya + yc */
1146:Source\TransformFunctions/arm_cfft_radix4_f32.c ****       s1 = pSrc[(2u * i0) + 1u] + pSrc[(2u * i2) + 1u];
 1156              		.loc 1 1146 0 discriminator 3
 1157 03fc BB6E     		ldr	r3, [r7, #104]
 1158 03fe DB00     		lsl	r3, r3, #3
 1159 0400 0433     		add	r3, r3, #4
 1160 0402 FA68     		ldr	r2, [r7, #12]
 1161 0404 D318     		add	r3, r2, r3
 1162 0406 1968     		ldr	r1, [r3]
 1163 0408 3B6B     		ldr	r3, [r7, #48]
 1164 040a DB00     		lsl	r3, r3, #3
 1165 040c 0433     		add	r3, r3, #4
 1166 040e FA68     		ldr	r2, [r7, #12]
 1167 0410 D318     		add	r3, r2, r3
 1168 0412 1B68     		ldr	r3, [r3]
 1169 0414 081C     		add	r0, r1, #0
 1170 0416 191C     		add	r1, r3, #0
 1171 0418 FFF7FEFF 		bl	__aeabi_fadd
 1172 041c 031C     		add	r3, r0, #0
 1173 041e 3B62     		str	r3, [r7, #32]
1147:Source\TransformFunctions/arm_cfft_radix4_f32.c **** 
1148:Source\TransformFunctions/arm_cfft_radix4_f32.c ****       /* ya - yc */
1149:Source\TransformFunctions/arm_cfft_radix4_f32.c ****       s2 = pSrc[(2u * i0) + 1u] - pSrc[(2u * i2) + 1u];
 1174              		.loc 1 1149 0 discriminator 3
 1175 0420 BB6E     		ldr	r3, [r7, #104]
 1176 0422 DB00     		lsl	r3, r3, #3
 1177 0424 0433     		add	r3, r3, #4
 1178 0426 FA68     		ldr	r2, [r7, #12]
 1179 0428 D318     		add	r3, r2, r3
 1180 042a 1968     		ldr	r1, [r3]
 1181 042c 3B6B     		ldr	r3, [r7, #48]
 1182 042e DB00     		lsl	r3, r3, #3
 1183 0430 0433     		add	r3, r3, #4
 1184 0432 FA68     		ldr	r2, [r7, #12]
ARM GAS  C:\Users\fneves\AppData\Local\Temp\ccyQHZqi.s 			page 42


 1185 0434 D318     		add	r3, r2, r3
 1186 0436 1B68     		ldr	r3, [r3]
 1187 0438 081C     		add	r0, r1, #0
 1188 043a 191C     		add	r1, r3, #0
 1189 043c FFF7FEFF 		bl	__aeabi_fsub
 1190 0440 031C     		add	r3, r0, #0
 1191 0442 FB61     		str	r3, [r7, #28]
1150:Source\TransformFunctions/arm_cfft_radix4_f32.c **** 
1151:Source\TransformFunctions/arm_cfft_radix4_f32.c ****       /* xc + xd */
1152:Source\TransformFunctions/arm_cfft_radix4_f32.c ****       t1 = pSrc[2u * i1] + pSrc[2u * i3];
 1192              		.loc 1 1152 0 discriminator 3
 1193 0444 7B6B     		ldr	r3, [r7, #52]
 1194 0446 DB00     		lsl	r3, r3, #3
 1195 0448 FA68     		ldr	r2, [r7, #12]
 1196 044a D318     		add	r3, r2, r3
 1197 044c 1968     		ldr	r1, [r3]
 1198 044e FB6A     		ldr	r3, [r7, #44]
 1199 0450 DB00     		lsl	r3, r3, #3
 1200 0452 FA68     		ldr	r2, [r7, #12]
 1201 0454 D318     		add	r3, r2, r3
 1202 0456 1B68     		ldr	r3, [r3]
 1203 0458 081C     		add	r0, r1, #0
 1204 045a 191C     		add	r1, r3, #0
 1205 045c FFF7FEFF 		bl	__aeabi_fadd
 1206 0460 031C     		add	r3, r0, #0
 1207 0462 BB61     		str	r3, [r7, #24]
1153:Source\TransformFunctions/arm_cfft_radix4_f32.c **** 
1154:Source\TransformFunctions/arm_cfft_radix4_f32.c ****       /* xa' = xa + xb + xc + xd */
1155:Source\TransformFunctions/arm_cfft_radix4_f32.c ****       pSrc[2u * i0] = (r1 + t1) * onebyfftLen;
 1208              		.loc 1 1155 0 discriminator 3
 1209 0464 BB6E     		ldr	r3, [r7, #104]
 1210 0466 DB00     		lsl	r3, r3, #3
 1211 0468 FA68     		ldr	r2, [r7, #12]
 1212 046a D418     		add	r4, r2, r3
 1213 046c B86A     		ldr	r0, [r7, #40]
 1214 046e B969     		ldr	r1, [r7, #24]
 1215 0470 FFF7FEFF 		bl	__aeabi_fadd
 1216 0474 031C     		add	r3, r0, #0
 1217 0476 181C     		add	r0, r3, #0
 1218 0478 8023     		mov	r3, #128
 1219 047a FB18     		add	r3, r7, r3
 1220 047c 1968     		ldr	r1, [r3]
 1221 047e FFF7FEFF 		bl	__aeabi_fmul
 1222 0482 031C     		add	r3, r0, #0
 1223 0484 2360     		str	r3, [r4]
1156:Source\TransformFunctions/arm_cfft_radix4_f32.c **** 
1157:Source\TransformFunctions/arm_cfft_radix4_f32.c ****       /* (xa + xb) - (xc + xd) */
1158:Source\TransformFunctions/arm_cfft_radix4_f32.c ****       r1 = r1 - t1;
 1224              		.loc 1 1158 0 discriminator 3
 1225 0486 B86A     		ldr	r0, [r7, #40]
 1226 0488 B969     		ldr	r1, [r7, #24]
 1227 048a FFF7FEFF 		bl	__aeabi_fsub
 1228 048e 031C     		add	r3, r0, #0
 1229 0490 BB62     		str	r3, [r7, #40]
1159:Source\TransformFunctions/arm_cfft_radix4_f32.c **** 
1160:Source\TransformFunctions/arm_cfft_radix4_f32.c ****       /* yb + yd */
1161:Source\TransformFunctions/arm_cfft_radix4_f32.c ****       t2 = pSrc[(2u * i1) + 1u] + pSrc[(2u * i3) + 1u];
ARM GAS  C:\Users\fneves\AppData\Local\Temp\ccyQHZqi.s 			page 43


 1230              		.loc 1 1161 0 discriminator 3
 1231 0492 7B6B     		ldr	r3, [r7, #52]
 1232 0494 DB00     		lsl	r3, r3, #3
 1233 0496 0433     		add	r3, r3, #4
 1234 0498 FA68     		ldr	r2, [r7, #12]
 1235 049a D318     		add	r3, r2, r3
 1236 049c 1968     		ldr	r1, [r3]
 1237 049e FB6A     		ldr	r3, [r7, #44]
 1238 04a0 DB00     		lsl	r3, r3, #3
 1239 04a2 0433     		add	r3, r3, #4
 1240 04a4 FA68     		ldr	r2, [r7, #12]
 1241 04a6 D318     		add	r3, r2, r3
 1242 04a8 1B68     		ldr	r3, [r3]
 1243 04aa 081C     		add	r0, r1, #0
 1244 04ac 191C     		add	r1, r3, #0
 1245 04ae FFF7FEFF 		bl	__aeabi_fadd
 1246 04b2 031C     		add	r3, r0, #0
 1247 04b4 7B61     		str	r3, [r7, #20]
1162:Source\TransformFunctions/arm_cfft_radix4_f32.c **** 
1163:Source\TransformFunctions/arm_cfft_radix4_f32.c ****       /* ya' = ya + yb + yc + yd */
1164:Source\TransformFunctions/arm_cfft_radix4_f32.c ****       pSrc[(2u * i0) + 1u] = (s1 + t2) * onebyfftLen;
 1248              		.loc 1 1164 0 discriminator 3
 1249 04b6 BB6E     		ldr	r3, [r7, #104]
 1250 04b8 DB00     		lsl	r3, r3, #3
 1251 04ba 0433     		add	r3, r3, #4
 1252 04bc FA68     		ldr	r2, [r7, #12]
 1253 04be D418     		add	r4, r2, r3
 1254 04c0 386A     		ldr	r0, [r7, #32]
 1255 04c2 7969     		ldr	r1, [r7, #20]
 1256 04c4 FFF7FEFF 		bl	__aeabi_fadd
 1257 04c8 031C     		add	r3, r0, #0
 1258 04ca 181C     		add	r0, r3, #0
 1259 04cc 8023     		mov	r3, #128
 1260 04ce FB18     		add	r3, r7, r3
 1261 04d0 1968     		ldr	r1, [r3]
 1262 04d2 FFF7FEFF 		bl	__aeabi_fmul
 1263 04d6 031C     		add	r3, r0, #0
 1264 04d8 2360     		str	r3, [r4]
1165:Source\TransformFunctions/arm_cfft_radix4_f32.c **** 
1166:Source\TransformFunctions/arm_cfft_radix4_f32.c ****       /* (ya + yc) - (yb + yd) */
1167:Source\TransformFunctions/arm_cfft_radix4_f32.c ****       s1 = s1 - t2;
 1265              		.loc 1 1167 0 discriminator 3
 1266 04da 386A     		ldr	r0, [r7, #32]
 1267 04dc 7969     		ldr	r1, [r7, #20]
 1268 04de FFF7FEFF 		bl	__aeabi_fsub
 1269 04e2 031C     		add	r3, r0, #0
 1270 04e4 3B62     		str	r3, [r7, #32]
1168:Source\TransformFunctions/arm_cfft_radix4_f32.c **** 
1169:Source\TransformFunctions/arm_cfft_radix4_f32.c ****       /* (yb-yd) */
1170:Source\TransformFunctions/arm_cfft_radix4_f32.c ****       t1 = pSrc[(2u * i1) + 1u] - pSrc[(2u * i3) + 1u];
 1271              		.loc 1 1170 0 discriminator 3
 1272 04e6 7B6B     		ldr	r3, [r7, #52]
 1273 04e8 DB00     		lsl	r3, r3, #3
 1274 04ea 0433     		add	r3, r3, #4
 1275 04ec FA68     		ldr	r2, [r7, #12]
 1276 04ee D318     		add	r3, r2, r3
 1277 04f0 1968     		ldr	r1, [r3]
ARM GAS  C:\Users\fneves\AppData\Local\Temp\ccyQHZqi.s 			page 44


 1278 04f2 FB6A     		ldr	r3, [r7, #44]
 1279 04f4 DB00     		lsl	r3, r3, #3
 1280 04f6 0433     		add	r3, r3, #4
 1281 04f8 FA68     		ldr	r2, [r7, #12]
 1282 04fa D318     		add	r3, r2, r3
 1283 04fc 1B68     		ldr	r3, [r3]
 1284 04fe 081C     		add	r0, r1, #0
 1285 0500 191C     		add	r1, r3, #0
 1286 0502 FFF7FEFF 		bl	__aeabi_fsub
 1287 0506 031C     		add	r3, r0, #0
 1288 0508 BB61     		str	r3, [r7, #24]
1171:Source\TransformFunctions/arm_cfft_radix4_f32.c **** 
1172:Source\TransformFunctions/arm_cfft_radix4_f32.c ****       /* (xb-xd) */
1173:Source\TransformFunctions/arm_cfft_radix4_f32.c ****       t2 = pSrc[2u * i1] - pSrc[2u * i3];
 1289              		.loc 1 1173 0 discriminator 3
 1290 050a 7B6B     		ldr	r3, [r7, #52]
 1291 050c DB00     		lsl	r3, r3, #3
 1292 050e FA68     		ldr	r2, [r7, #12]
 1293 0510 D318     		add	r3, r2, r3
 1294 0512 1968     		ldr	r1, [r3]
 1295 0514 FB6A     		ldr	r3, [r7, #44]
 1296 0516 DB00     		lsl	r3, r3, #3
 1297 0518 FA68     		ldr	r2, [r7, #12]
 1298 051a D318     		add	r3, r2, r3
 1299 051c 1B68     		ldr	r3, [r3]
 1300 051e 081C     		add	r0, r1, #0
 1301 0520 191C     		add	r1, r3, #0
 1302 0522 FFF7FEFF 		bl	__aeabi_fsub
 1303 0526 031C     		add	r3, r0, #0
 1304 0528 7B61     		str	r3, [r7, #20]
1174:Source\TransformFunctions/arm_cfft_radix4_f32.c **** 
1175:Source\TransformFunctions/arm_cfft_radix4_f32.c ****       /* xc' = (xa-xb+xc-xd)co2 - (ya-yb+yc-yd)(si2) */
1176:Source\TransformFunctions/arm_cfft_radix4_f32.c ****       pSrc[2u * i1] = r1 * onebyfftLen;
 1305              		.loc 1 1176 0 discriminator 3
 1306 052a 7B6B     		ldr	r3, [r7, #52]
 1307 052c DB00     		lsl	r3, r3, #3
 1308 052e FA68     		ldr	r2, [r7, #12]
 1309 0530 D418     		add	r4, r2, r3
 1310 0532 B86A     		ldr	r0, [r7, #40]
 1311 0534 8023     		mov	r3, #128
 1312 0536 FB18     		add	r3, r7, r3
 1313 0538 1968     		ldr	r1, [r3]
 1314 053a FFF7FEFF 		bl	__aeabi_fmul
 1315 053e 031C     		add	r3, r0, #0
 1316 0540 2360     		str	r3, [r4]
1177:Source\TransformFunctions/arm_cfft_radix4_f32.c **** 
1178:Source\TransformFunctions/arm_cfft_radix4_f32.c ****       /* yc' = (ya-yb+yc-yd)co2 + (xa-xb+xc-xd)(si2) */
1179:Source\TransformFunctions/arm_cfft_radix4_f32.c ****       pSrc[(2u * i1) + 1u] = s1 * onebyfftLen;
 1317              		.loc 1 1179 0 discriminator 3
 1318 0542 7B6B     		ldr	r3, [r7, #52]
 1319 0544 DB00     		lsl	r3, r3, #3
 1320 0546 0433     		add	r3, r3, #4
 1321 0548 FA68     		ldr	r2, [r7, #12]
 1322 054a D418     		add	r4, r2, r3
 1323 054c 386A     		ldr	r0, [r7, #32]
 1324 054e 8023     		mov	r3, #128
 1325 0550 FB18     		add	r3, r7, r3
ARM GAS  C:\Users\fneves\AppData\Local\Temp\ccyQHZqi.s 			page 45


 1326 0552 1968     		ldr	r1, [r3]
 1327 0554 FFF7FEFF 		bl	__aeabi_fmul
 1328 0558 031C     		add	r3, r0, #0
 1329 055a 2360     		str	r3, [r4]
1180:Source\TransformFunctions/arm_cfft_radix4_f32.c **** 
1181:Source\TransformFunctions/arm_cfft_radix4_f32.c ****       /* (xa - xc) - (yb-yd) */
1182:Source\TransformFunctions/arm_cfft_radix4_f32.c ****       r1 = r2 - t1;
 1330              		.loc 1 1182 0 discriminator 3
 1331 055c 786A     		ldr	r0, [r7, #36]
 1332 055e B969     		ldr	r1, [r7, #24]
 1333 0560 FFF7FEFF 		bl	__aeabi_fsub
 1334 0564 031C     		add	r3, r0, #0
 1335 0566 BB62     		str	r3, [r7, #40]
1183:Source\TransformFunctions/arm_cfft_radix4_f32.c **** 
1184:Source\TransformFunctions/arm_cfft_radix4_f32.c ****       /* (xa - xc) + (yb-yd) */
1185:Source\TransformFunctions/arm_cfft_radix4_f32.c ****       r2 = r2 + t1;
 1336              		.loc 1 1185 0 discriminator 3
 1337 0568 786A     		ldr	r0, [r7, #36]
 1338 056a B969     		ldr	r1, [r7, #24]
 1339 056c FFF7FEFF 		bl	__aeabi_fadd
 1340 0570 031C     		add	r3, r0, #0
 1341 0572 7B62     		str	r3, [r7, #36]
1186:Source\TransformFunctions/arm_cfft_radix4_f32.c **** 
1187:Source\TransformFunctions/arm_cfft_radix4_f32.c ****       /* (ya - yc) + (xb-xd) */
1188:Source\TransformFunctions/arm_cfft_radix4_f32.c ****       s1 = s2 + t2;
 1342              		.loc 1 1188 0 discriminator 3
 1343 0574 F869     		ldr	r0, [r7, #28]
 1344 0576 7969     		ldr	r1, [r7, #20]
 1345 0578 FFF7FEFF 		bl	__aeabi_fadd
 1346 057c 031C     		add	r3, r0, #0
 1347 057e 3B62     		str	r3, [r7, #32]
1189:Source\TransformFunctions/arm_cfft_radix4_f32.c **** 
1190:Source\TransformFunctions/arm_cfft_radix4_f32.c ****       /* (ya - yc) - (xb-xd) */
1191:Source\TransformFunctions/arm_cfft_radix4_f32.c ****       s2 = s2 - t2;
 1348              		.loc 1 1191 0 discriminator 3
 1349 0580 F869     		ldr	r0, [r7, #28]
 1350 0582 7969     		ldr	r1, [r7, #20]
 1351 0584 FFF7FEFF 		bl	__aeabi_fsub
 1352 0588 031C     		add	r3, r0, #0
 1353 058a FB61     		str	r3, [r7, #28]
1192:Source\TransformFunctions/arm_cfft_radix4_f32.c **** 
1193:Source\TransformFunctions/arm_cfft_radix4_f32.c ****       /* xb' = (xa+yb-xc-yd)co1 - (ya-xb-yc+xd)(si1) */
1194:Source\TransformFunctions/arm_cfft_radix4_f32.c ****       pSrc[2u * i2] = r1 * onebyfftLen;
 1354              		.loc 1 1194 0 discriminator 3
 1355 058c 3B6B     		ldr	r3, [r7, #48]
 1356 058e DB00     		lsl	r3, r3, #3
 1357 0590 FA68     		ldr	r2, [r7, #12]
 1358 0592 D418     		add	r4, r2, r3
 1359 0594 B86A     		ldr	r0, [r7, #40]
 1360 0596 8023     		mov	r3, #128
 1361 0598 FB18     		add	r3, r7, r3
 1362 059a 1968     		ldr	r1, [r3]
 1363 059c FFF7FEFF 		bl	__aeabi_fmul
 1364 05a0 031C     		add	r3, r0, #0
 1365 05a2 2360     		str	r3, [r4]
1195:Source\TransformFunctions/arm_cfft_radix4_f32.c **** 
1196:Source\TransformFunctions/arm_cfft_radix4_f32.c ****       /* yb' = (ya-xb-yc+xd)co1 + (xa+yb-xc-yd)(si1) */
ARM GAS  C:\Users\fneves\AppData\Local\Temp\ccyQHZqi.s 			page 46


1197:Source\TransformFunctions/arm_cfft_radix4_f32.c ****       pSrc[(2u * i2) + 1u] = s1 * onebyfftLen;
 1366              		.loc 1 1197 0 discriminator 3
 1367 05a4 3B6B     		ldr	r3, [r7, #48]
 1368 05a6 DB00     		lsl	r3, r3, #3
 1369 05a8 0433     		add	r3, r3, #4
 1370 05aa FA68     		ldr	r2, [r7, #12]
 1371 05ac D418     		add	r4, r2, r3
 1372 05ae 386A     		ldr	r0, [r7, #32]
 1373 05b0 8023     		mov	r3, #128
 1374 05b2 FB18     		add	r3, r7, r3
 1375 05b4 1968     		ldr	r1, [r3]
 1376 05b6 FFF7FEFF 		bl	__aeabi_fmul
 1377 05ba 031C     		add	r3, r0, #0
 1378 05bc 2360     		str	r3, [r4]
1198:Source\TransformFunctions/arm_cfft_radix4_f32.c **** 
1199:Source\TransformFunctions/arm_cfft_radix4_f32.c ****       /* xd' = (xa-yb-xc+yd)co3 - (ya+xb-yc-xd)(si3) */
1200:Source\TransformFunctions/arm_cfft_radix4_f32.c ****       pSrc[2u * i3] = r2 * onebyfftLen;
 1379              		.loc 1 1200 0 discriminator 3
 1380 05be FB6A     		ldr	r3, [r7, #44]
 1381 05c0 DB00     		lsl	r3, r3, #3
 1382 05c2 FA68     		ldr	r2, [r7, #12]
 1383 05c4 D418     		add	r4, r2, r3
 1384 05c6 786A     		ldr	r0, [r7, #36]
 1385 05c8 8023     		mov	r3, #128
 1386 05ca FB18     		add	r3, r7, r3
 1387 05cc 1968     		ldr	r1, [r3]
 1388 05ce FFF7FEFF 		bl	__aeabi_fmul
 1389 05d2 031C     		add	r3, r0, #0
 1390 05d4 2360     		str	r3, [r4]
1201:Source\TransformFunctions/arm_cfft_radix4_f32.c **** 
1202:Source\TransformFunctions/arm_cfft_radix4_f32.c ****       /* yd' = (ya+xb-yc-xd)co3 + (xa-yb-xc+yd)(si3) */
1203:Source\TransformFunctions/arm_cfft_radix4_f32.c ****       pSrc[(2u * i3) + 1u] = s2 * onebyfftLen;
 1391              		.loc 1 1203 0 discriminator 3
 1392 05d6 FB6A     		ldr	r3, [r7, #44]
 1393 05d8 DB00     		lsl	r3, r3, #3
 1394 05da 0433     		add	r3, r3, #4
 1395 05dc FA68     		ldr	r2, [r7, #12]
 1396 05de D418     		add	r4, r2, r3
 1397 05e0 F869     		ldr	r0, [r7, #28]
 1398 05e2 8023     		mov	r3, #128
 1399 05e4 FB18     		add	r3, r7, r3
 1400 05e6 1968     		ldr	r1, [r3]
 1401 05e8 FFF7FEFF 		bl	__aeabi_fmul
 1402 05ec 031C     		add	r3, r0, #0
 1403 05ee 2360     		str	r3, [r4]
1130:Source\TransformFunctions/arm_cfft_radix4_f32.c ****    {
 1404              		.loc 1 1130 0 discriminator 3
 1405 05f0 BA6E     		ldr	r2, [r7, #104]
 1406 05f2 BB6D     		ldr	r3, [r7, #88]
 1407 05f4 D318     		add	r3, r2, r3
 1408 05f6 BB66     		str	r3, [r7, #104]
 1409              	.L15:
1130:Source\TransformFunctions/arm_cfft_radix4_f32.c ****    {
 1410              		.loc 1 1130 0 is_stmt 0 discriminator 1
 1411 05f8 0A23     		mov	r3, #10
 1412 05fa FB18     		add	r3, r7, r3
 1413 05fc 1A88     		ldrh	r2, [r3]
ARM GAS  C:\Users\fneves\AppData\Local\Temp\ccyQHZqi.s 			page 47


 1414 05fe BB6D     		ldr	r3, [r7, #88]
 1415 0600 D21A     		sub	r2, r2, r3
 1416 0602 BB6E     		ldr	r3, [r7, #104]
 1417 0604 9A42     		cmp	r2, r3
 1418 0606 00D3     		bcc	.LCB1256
 1419 0608 CCE6     		b	.L16	@long jump
 1420              	.LCB1256:
1204:Source\TransformFunctions/arm_cfft_radix4_f32.c ****    }
1205:Source\TransformFunctions/arm_cfft_radix4_f32.c **** 
1206:Source\TransformFunctions/arm_cfft_radix4_f32.c **** #endif /* #if defined (ARM_MATH_DSP) */
1207:Source\TransformFunctions/arm_cfft_radix4_f32.c **** }
 1421              		.loc 1 1207 0 is_stmt 1
 1422 060a BD46     		mov	sp, r7
 1423 060c 1CB0     		add	sp, sp, #112
 1424              		@ sp needed
 1425 060e B0BD     		pop	{r4, r5, r7, pc}
 1426              		.cfi_endproc
 1427              	.LFE84:
 1428              		.size	arm_radix4_butterfly_inverse_f32, .-arm_radix4_butterfly_inverse_f32
 1429              		.text
 1430              	.Letext0:
 1431              		.file 2 "c:\\program files (x86)\\cypress\\psoc creator\\4.0\\psoc creator\\import\\gnu\\arm\\4.9.
 1432              		.file 3 "c:\\program files (x86)\\cypress\\psoc creator\\4.0\\psoc creator\\import\\gnu\\arm\\4.9.
 1433              		.file 4 ".\\Include/arm_math.h"
 1434              		.section	.debug_info,"",%progbits
 1435              	.Ldebug_info0:
 1436 0000 E9040000 		.4byte	0x4e9
 1437 0004 0400     		.2byte	0x4
 1438 0006 00000000 		.4byte	.Ldebug_abbrev0
 1439 000a 04       		.byte	0x4
 1440 000b 01       		.uleb128 0x1
 1441 000c 97010000 		.4byte	.LASF34
 1442 0010 01       		.byte	0x1
 1443 0011 3A010000 		.4byte	.LASF35
 1444 0015 27000000 		.4byte	.LASF36
 1445 0019 00000000 		.4byte	.Ldebug_ranges0+0
 1446 001d 00000000 		.4byte	0
 1447 0021 00000000 		.4byte	.Ldebug_line0
 1448 0025 02       		.uleb128 0x2
 1449 0026 01       		.byte	0x1
 1450 0027 06       		.byte	0x6
 1451 0028 B5020000 		.4byte	.LASF0
 1452 002c 03       		.uleb128 0x3
 1453 002d 00000000 		.4byte	.LASF3
 1454 0031 02       		.byte	0x2
 1455 0032 1D       		.byte	0x1d
 1456 0033 37000000 		.4byte	0x37
 1457 0037 02       		.uleb128 0x2
 1458 0038 01       		.byte	0x1
 1459 0039 08       		.byte	0x8
 1460 003a BA000000 		.4byte	.LASF1
 1461 003e 02       		.uleb128 0x2
 1462 003f 02       		.byte	0x2
 1463 0040 05       		.byte	0x5
 1464 0041 84020000 		.4byte	.LASF2
 1465 0045 03       		.uleb128 0x3
 1466 0046 09010000 		.4byte	.LASF4
ARM GAS  C:\Users\fneves\AppData\Local\Temp\ccyQHZqi.s 			page 48


 1467 004a 02       		.byte	0x2
 1468 004b 2B       		.byte	0x2b
 1469 004c 50000000 		.4byte	0x50
 1470 0050 02       		.uleb128 0x2
 1471 0051 02       		.byte	0x2
 1472 0052 07       		.byte	0x7
 1473 0053 E6000000 		.4byte	.LASF5
 1474 0057 02       		.uleb128 0x2
 1475 0058 04       		.byte	0x4
 1476 0059 05       		.byte	0x5
 1477 005a A0020000 		.4byte	.LASF6
 1478 005e 03       		.uleb128 0x3
 1479 005f 2F010000 		.4byte	.LASF7
 1480 0063 02       		.byte	0x2
 1481 0064 41       		.byte	0x41
 1482 0065 69000000 		.4byte	0x69
 1483 0069 02       		.uleb128 0x2
 1484 006a 04       		.byte	0x4
 1485 006b 07       		.byte	0x7
 1486 006c D4000000 		.4byte	.LASF8
 1487 0070 02       		.uleb128 0x2
 1488 0071 08       		.byte	0x8
 1489 0072 05       		.byte	0x5
 1490 0073 41020000 		.4byte	.LASF9
 1491 0077 02       		.uleb128 0x2
 1492 0078 08       		.byte	0x8
 1493 0079 07       		.byte	0x7
 1494 007a 80010000 		.4byte	.LASF10
 1495 007e 04       		.uleb128 0x4
 1496 007f 04       		.byte	0x4
 1497 0080 05       		.byte	0x5
 1498 0081 696E7400 		.ascii	"int\000"
 1499 0085 02       		.uleb128 0x2
 1500 0086 04       		.byte	0x4
 1501 0087 07       		.byte	0x7
 1502 0088 73010000 		.4byte	.LASF11
 1503 008c 03       		.uleb128 0x3
 1504 008d 6D000000 		.4byte	.LASF12
 1505 0091 03       		.byte	0x3
 1506 0092 15       		.byte	0x15
 1507 0093 2C000000 		.4byte	0x2c
 1508 0097 03       		.uleb128 0x3
 1509 0098 8E020000 		.4byte	.LASF13
 1510 009c 03       		.byte	0x3
 1511 009d 21       		.byte	0x21
 1512 009e 45000000 		.4byte	0x45
 1513 00a2 03       		.uleb128 0x3
 1514 00a3 97020000 		.4byte	.LASF14
 1515 00a7 03       		.byte	0x3
 1516 00a8 2D       		.byte	0x2d
 1517 00a9 5E000000 		.4byte	0x5e
 1518 00ad 02       		.uleb128 0x2
 1519 00ae 04       		.byte	0x4
 1520 00af 07       		.byte	0x7
 1521 00b0 38020000 		.4byte	.LASF15
 1522 00b4 02       		.uleb128 0x2
 1523 00b5 01       		.byte	0x1
ARM GAS  C:\Users\fneves\AppData\Local\Temp\ccyQHZqi.s 			page 49


 1524 00b6 08       		.byte	0x8
 1525 00b7 4F020000 		.4byte	.LASF16
 1526 00bb 02       		.uleb128 0x2
 1527 00bc 08       		.byte	0x8
 1528 00bd 04       		.byte	0x4
 1529 00be 14010000 		.4byte	.LASF17
 1530 00c2 02       		.uleb128 0x2
 1531 00c3 04       		.byte	0x4
 1532 00c4 04       		.byte	0x4
 1533 00c5 B4000000 		.4byte	.LASF18
 1534 00c9 02       		.uleb128 0x2
 1535 00ca 08       		.byte	0x8
 1536 00cb 04       		.byte	0x4
 1537 00cc A9020000 		.4byte	.LASF19
 1538 00d0 05       		.uleb128 0x5
 1539 00d1 6D020000 		.4byte	.LASF20
 1540 00d5 04       		.byte	0x4
 1541 00d6 A501     		.2byte	0x1a5
 1542 00d8 C2000000 		.4byte	0xc2
 1543 00dc 06       		.uleb128 0x6
 1544 00dd 04       		.byte	0x4
 1545 00de D0000000 		.4byte	0xd0
 1546 00e2 06       		.uleb128 0x6
 1547 00e3 04       		.byte	0x4
 1548 00e4 97000000 		.4byte	0x97
 1549 00e8 07       		.uleb128 0x7
 1550 00e9 14       		.byte	0x14
 1551 00ea 04       		.byte	0x4
 1552 00eb 6108     		.2byte	0x861
 1553 00ed 5A010000 		.4byte	0x15a
 1554 00f1 08       		.uleb128 0x8
 1555 00f2 F9000000 		.4byte	.LASF21
 1556 00f6 04       		.byte	0x4
 1557 00f7 6308     		.2byte	0x863
 1558 00f9 97000000 		.4byte	0x97
 1559 00fd 00       		.byte	0
 1560 00fe 08       		.uleb128 0x8
 1561 00ff 6A010000 		.4byte	.LASF22
 1562 0103 04       		.byte	0x4
 1563 0104 6408     		.2byte	0x864
 1564 0106 8C000000 		.4byte	0x8c
 1565 010a 02       		.byte	0x2
 1566 010b 08       		.uleb128 0x8
 1567 010c 29020000 		.4byte	.LASF23
 1568 0110 04       		.byte	0x4
 1569 0111 6508     		.2byte	0x865
 1570 0113 8C000000 		.4byte	0x8c
 1571 0117 03       		.byte	0x3
 1572 0118 08       		.uleb128 0x8
 1573 0119 00010000 		.4byte	.LASF24
 1574 011d 04       		.byte	0x4
 1575 011e 6608     		.2byte	0x866
 1576 0120 DC000000 		.4byte	0xdc
 1577 0124 04       		.byte	0x4
 1578 0125 08       		.uleb128 0x8
 1579 0126 A7000000 		.4byte	.LASF25
 1580 012a 04       		.byte	0x4
ARM GAS  C:\Users\fneves\AppData\Local\Temp\ccyQHZqi.s 			page 50


 1581 012b 6708     		.2byte	0x867
 1582 012d E2000000 		.4byte	0xe2
 1583 0131 08       		.byte	0x8
 1584 0132 08       		.uleb128 0x8
 1585 0133 96000000 		.4byte	.LASF26
 1586 0137 04       		.byte	0x4
 1587 0138 6808     		.2byte	0x868
 1588 013a 97000000 		.4byte	0x97
 1589 013e 0C       		.byte	0xc
 1590 013f 08       		.uleb128 0x8
 1591 0140 77020000 		.4byte	.LASF27
 1592 0144 04       		.byte	0x4
 1593 0145 6908     		.2byte	0x869
 1594 0147 97000000 		.4byte	0x97
 1595 014b 0E       		.byte	0xe
 1596 014c 08       		.uleb128 0x8
 1597 014d C8000000 		.4byte	.LASF28
 1598 0151 04       		.byte	0x4
 1599 0152 6A08     		.2byte	0x86a
 1600 0154 D0000000 		.4byte	0xd0
 1601 0158 10       		.byte	0x10
 1602 0159 00       		.byte	0
 1603 015a 05       		.uleb128 0x5
 1604 015b 0A000000 		.4byte	.LASF29
 1605 015f 04       		.byte	0x4
 1606 0160 6B08     		.2byte	0x86b
 1607 0162 E8000000 		.4byte	0xe8
 1608 0166 09       		.uleb128 0x9
 1609 0167 1B010000 		.4byte	.LASF31
 1610 016b 01       		.byte	0x1
 1611 016c 46       		.byte	0x46
 1612 016d 00000000 		.4byte	.LFB82
 1613 0171 60000000 		.4byte	.LFE82-.LFB82
 1614 0175 01       		.uleb128 0x1
 1615 0176 9C       		.byte	0x9c
 1616 0177 96010000 		.4byte	0x196
 1617 017b 0A       		.uleb128 0xa
 1618 017c 5300     		.ascii	"S\000"
 1619 017e 01       		.byte	0x1
 1620 017f 47       		.byte	0x47
 1621 0180 96010000 		.4byte	0x196
 1622 0184 02       		.uleb128 0x2
 1623 0185 91       		.byte	0x91
 1624 0186 6C       		.sleb128 -20
 1625 0187 0B       		.uleb128 0xb
 1626 0188 C1020000 		.4byte	.LASF30
 1627 018c 01       		.byte	0x1
 1628 018d 48       		.byte	0x48
 1629 018e DC000000 		.4byte	0xdc
 1630 0192 02       		.uleb128 0x2
 1631 0193 91       		.byte	0x91
 1632 0194 68       		.sleb128 -24
 1633 0195 00       		.byte	0
 1634 0196 06       		.uleb128 0x6
 1635 0197 04       		.byte	0x4
 1636 0198 9C010000 		.4byte	0x19c
 1637 019c 0C       		.uleb128 0xc
ARM GAS  C:\Users\fneves\AppData\Local\Temp\ccyQHZqi.s 			page 51


 1638 019d 5A010000 		.4byte	0x15a
 1639 01a1 09       		.uleb128 0x9
 1640 01a2 54020000 		.4byte	.LASF32
 1641 01a6 01       		.byte	0x1
 1642 01a7 6E       		.byte	0x6e
 1643 01a8 00000000 		.4byte	.LFB83
 1644 01ac 9A030000 		.4byte	.LFE83-.LFB83
 1645 01b0 01       		.uleb128 0x1
 1646 01b1 9C       		.byte	0x9c
 1647 01b2 36030000 		.4byte	0x336
 1648 01b6 0B       		.uleb128 0xb
 1649 01b7 C1020000 		.4byte	.LASF30
 1650 01bb 01       		.byte	0x1
 1651 01bc 6F       		.byte	0x6f
 1652 01bd DC000000 		.4byte	0xdc
 1653 01c1 03       		.uleb128 0x3
 1654 01c2 91       		.byte	0x91
 1655 01c3 8C7F     		.sleb128 -116
 1656 01c5 0B       		.uleb128 0xb
 1657 01c6 F9000000 		.4byte	.LASF21
 1658 01ca 01       		.byte	0x1
 1659 01cb 70       		.byte	0x70
 1660 01cc 97000000 		.4byte	0x97
 1661 01d0 03       		.uleb128 0x3
 1662 01d1 91       		.byte	0x91
 1663 01d2 8A7F     		.sleb128 -118
 1664 01d4 0B       		.uleb128 0xb
 1665 01d5 C6020000 		.4byte	.LASF33
 1666 01d9 01       		.byte	0x1
 1667 01da 71       		.byte	0x71
 1668 01db DC000000 		.4byte	0xdc
 1669 01df 03       		.uleb128 0x3
 1670 01e0 91       		.byte	0x91
 1671 01e1 847F     		.sleb128 -124
 1672 01e3 0B       		.uleb128 0xb
 1673 01e4 96000000 		.4byte	.LASF26
 1674 01e8 01       		.byte	0x1
 1675 01e9 72       		.byte	0x72
 1676 01ea 97000000 		.4byte	0x97
 1677 01ee 03       		.uleb128 0x3
 1678 01ef 91       		.byte	0x91
 1679 01f0 887F     		.sleb128 -120
 1680 01f2 0D       		.uleb128 0xd
 1681 01f3 636F3100 		.ascii	"co1\000"
 1682 01f7 01       		.byte	0x1
 1683 01f8 75       		.byte	0x75
 1684 01f9 D0000000 		.4byte	0xd0
 1685 01fd 02       		.uleb128 0x2
 1686 01fe 91       		.byte	0x91
 1687 01ff 4C       		.sleb128 -52
 1688 0200 0D       		.uleb128 0xd
 1689 0201 636F3200 		.ascii	"co2\000"
 1690 0205 01       		.byte	0x1
 1691 0206 75       		.byte	0x75
 1692 0207 D0000000 		.4byte	0xd0
 1693 020b 02       		.uleb128 0x2
 1694 020c 91       		.byte	0x91
ARM GAS  C:\Users\fneves\AppData\Local\Temp\ccyQHZqi.s 			page 52


 1695 020d 44       		.sleb128 -60
 1696 020e 0D       		.uleb128 0xd
 1697 020f 636F3300 		.ascii	"co3\000"
 1698 0213 01       		.byte	0x1
 1699 0214 75       		.byte	0x75
 1700 0215 D0000000 		.4byte	0xd0
 1701 0219 03       		.uleb128 0x3
 1702 021a 91       		.byte	0x91
 1703 021b BC7F     		.sleb128 -68
 1704 021d 0D       		.uleb128 0xd
 1705 021e 73693100 		.ascii	"si1\000"
 1706 0222 01       		.byte	0x1
 1707 0223 75       		.byte	0x75
 1708 0224 D0000000 		.4byte	0xd0
 1709 0228 02       		.uleb128 0x2
 1710 0229 91       		.byte	0x91
 1711 022a 48       		.sleb128 -56
 1712 022b 0D       		.uleb128 0xd
 1713 022c 73693200 		.ascii	"si2\000"
 1714 0230 01       		.byte	0x1
 1715 0231 75       		.byte	0x75
 1716 0232 D0000000 		.4byte	0xd0
 1717 0236 02       		.uleb128 0x2
 1718 0237 91       		.byte	0x91
 1719 0238 40       		.sleb128 -64
 1720 0239 0D       		.uleb128 0xd
 1721 023a 73693300 		.ascii	"si3\000"
 1722 023e 01       		.byte	0x1
 1723 023f 75       		.byte	0x75
 1724 0240 D0000000 		.4byte	0xd0
 1725 0244 03       		.uleb128 0x3
 1726 0245 91       		.byte	0x91
 1727 0246 B87F     		.sleb128 -72
 1728 0248 0D       		.uleb128 0xd
 1729 0249 69613100 		.ascii	"ia1\000"
 1730 024d 01       		.byte	0x1
 1731 024e 76       		.byte	0x76
 1732 024f A2000000 		.4byte	0xa2
 1733 0253 02       		.uleb128 0x2
 1734 0254 91       		.byte	0x91
 1735 0255 6C       		.sleb128 -20
 1736 0256 0D       		.uleb128 0xd
 1737 0257 69613200 		.ascii	"ia2\000"
 1738 025b 01       		.byte	0x1
 1739 025c 76       		.byte	0x76
 1740 025d A2000000 		.4byte	0xa2
 1741 0261 02       		.uleb128 0x2
 1742 0262 91       		.byte	0x91
 1743 0263 54       		.sleb128 -44
 1744 0264 0D       		.uleb128 0xd
 1745 0265 69613300 		.ascii	"ia3\000"
 1746 0269 01       		.byte	0x1
 1747 026a 76       		.byte	0x76
 1748 026b A2000000 		.4byte	0xa2
 1749 026f 02       		.uleb128 0x2
 1750 0270 91       		.byte	0x91
 1751 0271 50       		.sleb128 -48
ARM GAS  C:\Users\fneves\AppData\Local\Temp\ccyQHZqi.s 			page 53


 1752 0272 0D       		.uleb128 0xd
 1753 0273 693000   		.ascii	"i0\000"
 1754 0276 01       		.byte	0x1
 1755 0277 77       		.byte	0x77
 1756 0278 A2000000 		.4byte	0xa2
 1757 027c 02       		.uleb128 0x2
 1758 027d 91       		.byte	0x91
 1759 027e 68       		.sleb128 -24
 1760 027f 0D       		.uleb128 0xd
 1761 0280 693100   		.ascii	"i1\000"
 1762 0283 01       		.byte	0x1
 1763 0284 77       		.byte	0x77
 1764 0285 A2000000 		.4byte	0xa2
 1765 0289 03       		.uleb128 0x3
 1766 028a 91       		.byte	0x91
 1767 028b B47F     		.sleb128 -76
 1768 028d 0D       		.uleb128 0xd
 1769 028e 693200   		.ascii	"i2\000"
 1770 0291 01       		.byte	0x1
 1771 0292 77       		.byte	0x77
 1772 0293 A2000000 		.4byte	0xa2
 1773 0297 03       		.uleb128 0x3
 1774 0298 91       		.byte	0x91
 1775 0299 B07F     		.sleb128 -80
 1776 029b 0D       		.uleb128 0xd
 1777 029c 693300   		.ascii	"i3\000"
 1778 029f 01       		.byte	0x1
 1779 02a0 77       		.byte	0x77
 1780 02a1 A2000000 		.4byte	0xa2
 1781 02a5 03       		.uleb128 0x3
 1782 02a6 91       		.byte	0x91
 1783 02a7 AC7F     		.sleb128 -84
 1784 02a9 0D       		.uleb128 0xd
 1785 02aa 6E3100   		.ascii	"n1\000"
 1786 02ad 01       		.byte	0x1
 1787 02ae 78       		.byte	0x78
 1788 02af A2000000 		.4byte	0xa2
 1789 02b3 02       		.uleb128 0x2
 1790 02b4 91       		.byte	0x91
 1791 02b5 58       		.sleb128 -40
 1792 02b6 0D       		.uleb128 0xd
 1793 02b7 6E3200   		.ascii	"n2\000"
 1794 02ba 01       		.byte	0x1
 1795 02bb 78       		.byte	0x78
 1796 02bc A2000000 		.4byte	0xa2
 1797 02c0 02       		.uleb128 0x2
 1798 02c1 91       		.byte	0x91
 1799 02c2 64       		.sleb128 -28
 1800 02c3 0D       		.uleb128 0xd
 1801 02c4 6A00     		.ascii	"j\000"
 1802 02c6 01       		.byte	0x1
 1803 02c7 78       		.byte	0x78
 1804 02c8 A2000000 		.4byte	0xa2
 1805 02cc 02       		.uleb128 0x2
 1806 02cd 91       		.byte	0x91
 1807 02ce 60       		.sleb128 -32
 1808 02cf 0D       		.uleb128 0xd
ARM GAS  C:\Users\fneves\AppData\Local\Temp\ccyQHZqi.s 			page 54


 1809 02d0 6B00     		.ascii	"k\000"
 1810 02d2 01       		.byte	0x1
 1811 02d3 78       		.byte	0x78
 1812 02d4 A2000000 		.4byte	0xa2
 1813 02d8 02       		.uleb128 0x2
 1814 02d9 91       		.byte	0x91
 1815 02da 5C       		.sleb128 -36
 1816 02db 0E       		.uleb128 0xe
 1817 02dc 743100   		.ascii	"t1\000"
 1818 02df 01       		.byte	0x1
 1819 02e0 E701     		.2byte	0x1e7
 1820 02e2 D0000000 		.4byte	0xd0
 1821 02e6 03       		.uleb128 0x3
 1822 02e7 91       		.byte	0x91
 1823 02e8 987F     		.sleb128 -104
 1824 02ea 0E       		.uleb128 0xe
 1825 02eb 743200   		.ascii	"t2\000"
 1826 02ee 01       		.byte	0x1
 1827 02ef E701     		.2byte	0x1e7
 1828 02f1 D0000000 		.4byte	0xd0
 1829 02f5 03       		.uleb128 0x3
 1830 02f6 91       		.byte	0x91
 1831 02f7 947F     		.sleb128 -108
 1832 02f9 0E       		.uleb128 0xe
 1833 02fa 723100   		.ascii	"r1\000"
 1834 02fd 01       		.byte	0x1
 1835 02fe E701     		.2byte	0x1e7
 1836 0300 D0000000 		.4byte	0xd0
 1837 0304 03       		.uleb128 0x3
 1838 0305 91       		.byte	0x91
 1839 0306 A87F     		.sleb128 -88
 1840 0308 0E       		.uleb128 0xe
 1841 0309 723200   		.ascii	"r2\000"
 1842 030c 01       		.byte	0x1
 1843 030d E701     		.2byte	0x1e7
 1844 030f D0000000 		.4byte	0xd0
 1845 0313 03       		.uleb128 0x3
 1846 0314 91       		.byte	0x91
 1847 0315 A47F     		.sleb128 -92
 1848 0317 0E       		.uleb128 0xe
 1849 0318 733100   		.ascii	"s1\000"
 1850 031b 01       		.byte	0x1
 1851 031c E701     		.2byte	0x1e7
 1852 031e D0000000 		.4byte	0xd0
 1853 0322 03       		.uleb128 0x3
 1854 0323 91       		.byte	0x91
 1855 0324 A07F     		.sleb128 -96
 1856 0326 0E       		.uleb128 0xe
 1857 0327 733200   		.ascii	"s2\000"
 1858 032a 01       		.byte	0x1
 1859 032b E701     		.2byte	0x1e7
 1860 032d D0000000 		.4byte	0xd0
 1861 0331 03       		.uleb128 0x3
 1862 0332 91       		.byte	0x91
 1863 0333 9C7F     		.sleb128 -100
 1864 0335 00       		.byte	0
 1865 0336 0F       		.uleb128 0xf
ARM GAS  C:\Users\fneves\AppData\Local\Temp\ccyQHZqi.s 			page 55


 1866 0337 75000000 		.4byte	.LASF37
 1867 033b 01       		.byte	0x1
 1868 033c 6602     		.2byte	0x266
 1869 033e 00000000 		.4byte	.LFB84
 1870 0342 10060000 		.4byte	.LFE84-.LFB84
 1871 0346 01       		.uleb128 0x1
 1872 0347 9C       		.byte	0x9c
 1873 0348 10       		.uleb128 0x10
 1874 0349 C1020000 		.4byte	.LASF30
 1875 034d 01       		.byte	0x1
 1876 034e 6702     		.2byte	0x267
 1877 0350 DC000000 		.4byte	0xdc
 1878 0354 03       		.uleb128 0x3
 1879 0355 91       		.byte	0x91
 1880 0356 8C7F     		.sleb128 -116
 1881 0358 10       		.uleb128 0x10
 1882 0359 F9000000 		.4byte	.LASF21
 1883 035d 01       		.byte	0x1
 1884 035e 6802     		.2byte	0x268
 1885 0360 97000000 		.4byte	0x97
 1886 0364 03       		.uleb128 0x3
 1887 0365 91       		.byte	0x91
 1888 0366 8A7F     		.sleb128 -118
 1889 0368 10       		.uleb128 0x10
 1890 0369 C6020000 		.4byte	.LASF33
 1891 036d 01       		.byte	0x1
 1892 036e 6902     		.2byte	0x269
 1893 0370 DC000000 		.4byte	0xdc
 1894 0374 03       		.uleb128 0x3
 1895 0375 91       		.byte	0x91
 1896 0376 847F     		.sleb128 -124
 1897 0378 10       		.uleb128 0x10
 1898 0379 96000000 		.4byte	.LASF26
 1899 037d 01       		.byte	0x1
 1900 037e 6A02     		.2byte	0x26a
 1901 0380 97000000 		.4byte	0x97
 1902 0384 03       		.uleb128 0x3
 1903 0385 91       		.byte	0x91
 1904 0386 887F     		.sleb128 -120
 1905 0388 10       		.uleb128 0x10
 1906 0389 C8000000 		.4byte	.LASF28
 1907 038d 01       		.byte	0x1
 1908 038e 6B02     		.2byte	0x26b
 1909 0390 D0000000 		.4byte	0xd0
 1910 0394 02       		.uleb128 0x2
 1911 0395 91       		.byte	0x91
 1912 0396 00       		.sleb128 0
 1913 0397 0E       		.uleb128 0xe
 1914 0398 636F3100 		.ascii	"co1\000"
 1915 039c 01       		.byte	0x1
 1916 039d 6D02     		.2byte	0x26d
 1917 039f D0000000 		.4byte	0xd0
 1918 03a3 02       		.uleb128 0x2
 1919 03a4 91       		.byte	0x91
 1920 03a5 4C       		.sleb128 -52
 1921 03a6 0E       		.uleb128 0xe
 1922 03a7 636F3200 		.ascii	"co2\000"
ARM GAS  C:\Users\fneves\AppData\Local\Temp\ccyQHZqi.s 			page 56


 1923 03ab 01       		.byte	0x1
 1924 03ac 6D02     		.2byte	0x26d
 1925 03ae D0000000 		.4byte	0xd0
 1926 03b2 02       		.uleb128 0x2
 1927 03b3 91       		.byte	0x91
 1928 03b4 44       		.sleb128 -60
 1929 03b5 0E       		.uleb128 0xe
 1930 03b6 636F3300 		.ascii	"co3\000"
 1931 03ba 01       		.byte	0x1
 1932 03bb 6D02     		.2byte	0x26d
 1933 03bd D0000000 		.4byte	0xd0
 1934 03c1 03       		.uleb128 0x3
 1935 03c2 91       		.byte	0x91
 1936 03c3 BC7F     		.sleb128 -68
 1937 03c5 0E       		.uleb128 0xe
 1938 03c6 73693100 		.ascii	"si1\000"
 1939 03ca 01       		.byte	0x1
 1940 03cb 6D02     		.2byte	0x26d
 1941 03cd D0000000 		.4byte	0xd0
 1942 03d1 02       		.uleb128 0x2
 1943 03d2 91       		.byte	0x91
 1944 03d3 48       		.sleb128 -56
 1945 03d4 0E       		.uleb128 0xe
 1946 03d5 73693200 		.ascii	"si2\000"
 1947 03d9 01       		.byte	0x1
 1948 03da 6D02     		.2byte	0x26d
 1949 03dc D0000000 		.4byte	0xd0
 1950 03e0 02       		.uleb128 0x2
 1951 03e1 91       		.byte	0x91
 1952 03e2 40       		.sleb128 -64
 1953 03e3 0E       		.uleb128 0xe
 1954 03e4 73693300 		.ascii	"si3\000"
 1955 03e8 01       		.byte	0x1
 1956 03e9 6D02     		.2byte	0x26d
 1957 03eb D0000000 		.4byte	0xd0
 1958 03ef 03       		.uleb128 0x3
 1959 03f0 91       		.byte	0x91
 1960 03f1 B87F     		.sleb128 -72
 1961 03f3 0E       		.uleb128 0xe
 1962 03f4 69613100 		.ascii	"ia1\000"
 1963 03f8 01       		.byte	0x1
 1964 03f9 6E02     		.2byte	0x26e
 1965 03fb A2000000 		.4byte	0xa2
 1966 03ff 02       		.uleb128 0x2
 1967 0400 91       		.byte	0x91
 1968 0401 6C       		.sleb128 -20
 1969 0402 0E       		.uleb128 0xe
 1970 0403 69613200 		.ascii	"ia2\000"
 1971 0407 01       		.byte	0x1
 1972 0408 6E02     		.2byte	0x26e
 1973 040a A2000000 		.4byte	0xa2
 1974 040e 02       		.uleb128 0x2
 1975 040f 91       		.byte	0x91
 1976 0410 54       		.sleb128 -44
 1977 0411 0E       		.uleb128 0xe
 1978 0412 69613300 		.ascii	"ia3\000"
 1979 0416 01       		.byte	0x1
ARM GAS  C:\Users\fneves\AppData\Local\Temp\ccyQHZqi.s 			page 57


 1980 0417 6E02     		.2byte	0x26e
 1981 0419 A2000000 		.4byte	0xa2
 1982 041d 02       		.uleb128 0x2
 1983 041e 91       		.byte	0x91
 1984 041f 50       		.sleb128 -48
 1985 0420 0E       		.uleb128 0xe
 1986 0421 693000   		.ascii	"i0\000"
 1987 0424 01       		.byte	0x1
 1988 0425 6F02     		.2byte	0x26f
 1989 0427 A2000000 		.4byte	0xa2
 1990 042b 02       		.uleb128 0x2
 1991 042c 91       		.byte	0x91
 1992 042d 68       		.sleb128 -24
 1993 042e 0E       		.uleb128 0xe
 1994 042f 693100   		.ascii	"i1\000"
 1995 0432 01       		.byte	0x1
 1996 0433 6F02     		.2byte	0x26f
 1997 0435 A2000000 		.4byte	0xa2
 1998 0439 03       		.uleb128 0x3
 1999 043a 91       		.byte	0x91
 2000 043b B47F     		.sleb128 -76
 2001 043d 0E       		.uleb128 0xe
 2002 043e 693200   		.ascii	"i2\000"
 2003 0441 01       		.byte	0x1
 2004 0442 6F02     		.2byte	0x26f
 2005 0444 A2000000 		.4byte	0xa2
 2006 0448 03       		.uleb128 0x3
 2007 0449 91       		.byte	0x91
 2008 044a B07F     		.sleb128 -80
 2009 044c 0E       		.uleb128 0xe
 2010 044d 693300   		.ascii	"i3\000"
 2011 0450 01       		.byte	0x1
 2012 0451 6F02     		.2byte	0x26f
 2013 0453 A2000000 		.4byte	0xa2
 2014 0457 03       		.uleb128 0x3
 2015 0458 91       		.byte	0x91
 2016 0459 AC7F     		.sleb128 -84
 2017 045b 0E       		.uleb128 0xe
 2018 045c 6E3100   		.ascii	"n1\000"
 2019 045f 01       		.byte	0x1
 2020 0460 7002     		.2byte	0x270
 2021 0462 A2000000 		.4byte	0xa2
 2022 0466 02       		.uleb128 0x2
 2023 0467 91       		.byte	0x91
 2024 0468 58       		.sleb128 -40
 2025 0469 0E       		.uleb128 0xe
 2026 046a 6E3200   		.ascii	"n2\000"
 2027 046d 01       		.byte	0x1
 2028 046e 7002     		.2byte	0x270
 2029 0470 A2000000 		.4byte	0xa2
 2030 0474 02       		.uleb128 0x2
 2031 0475 91       		.byte	0x91
 2032 0476 64       		.sleb128 -28
 2033 0477 0E       		.uleb128 0xe
 2034 0478 6A00     		.ascii	"j\000"
 2035 047a 01       		.byte	0x1
 2036 047b 7002     		.2byte	0x270
ARM GAS  C:\Users\fneves\AppData\Local\Temp\ccyQHZqi.s 			page 58


 2037 047d A2000000 		.4byte	0xa2
 2038 0481 02       		.uleb128 0x2
 2039 0482 91       		.byte	0x91
 2040 0483 60       		.sleb128 -32
 2041 0484 0E       		.uleb128 0xe
 2042 0485 6B00     		.ascii	"k\000"
 2043 0487 01       		.byte	0x1
 2044 0488 7002     		.2byte	0x270
 2045 048a A2000000 		.4byte	0xa2
 2046 048e 02       		.uleb128 0x2
 2047 048f 91       		.byte	0x91
 2048 0490 5C       		.sleb128 -36
 2049 0491 0E       		.uleb128 0xe
 2050 0492 743100   		.ascii	"t1\000"
 2051 0495 01       		.byte	0x1
 2052 0496 F303     		.2byte	0x3f3
 2053 0498 D0000000 		.4byte	0xd0
 2054 049c 03       		.uleb128 0x3
 2055 049d 91       		.byte	0x91
 2056 049e 987F     		.sleb128 -104
 2057 04a0 0E       		.uleb128 0xe
 2058 04a1 743200   		.ascii	"t2\000"
 2059 04a4 01       		.byte	0x1
 2060 04a5 F303     		.2byte	0x3f3
 2061 04a7 D0000000 		.4byte	0xd0
 2062 04ab 03       		.uleb128 0x3
 2063 04ac 91       		.byte	0x91
 2064 04ad 947F     		.sleb128 -108
 2065 04af 0E       		.uleb128 0xe
 2066 04b0 723100   		.ascii	"r1\000"
 2067 04b3 01       		.byte	0x1
 2068 04b4 F303     		.2byte	0x3f3
 2069 04b6 D0000000 		.4byte	0xd0
 2070 04ba 03       		.uleb128 0x3
 2071 04bb 91       		.byte	0x91
 2072 04bc A87F     		.sleb128 -88
 2073 04be 0E       		.uleb128 0xe
 2074 04bf 723200   		.ascii	"r2\000"
 2075 04c2 01       		.byte	0x1
 2076 04c3 F303     		.2byte	0x3f3
 2077 04c5 D0000000 		.4byte	0xd0
 2078 04c9 03       		.uleb128 0x3
 2079 04ca 91       		.byte	0x91
 2080 04cb A47F     		.sleb128 -92
 2081 04cd 0E       		.uleb128 0xe
 2082 04ce 733100   		.ascii	"s1\000"
 2083 04d1 01       		.byte	0x1
 2084 04d2 F303     		.2byte	0x3f3
 2085 04d4 D0000000 		.4byte	0xd0
 2086 04d8 03       		.uleb128 0x3
 2087 04d9 91       		.byte	0x91
 2088 04da A07F     		.sleb128 -96
 2089 04dc 0E       		.uleb128 0xe
 2090 04dd 733200   		.ascii	"s2\000"
 2091 04e0 01       		.byte	0x1
 2092 04e1 F303     		.2byte	0x3f3
 2093 04e3 D0000000 		.4byte	0xd0
ARM GAS  C:\Users\fneves\AppData\Local\Temp\ccyQHZqi.s 			page 59


 2094 04e7 03       		.uleb128 0x3
 2095 04e8 91       		.byte	0x91
 2096 04e9 9C7F     		.sleb128 -100
 2097 04eb 00       		.byte	0
 2098 04ec 00       		.byte	0
 2099              		.section	.debug_abbrev,"",%progbits
 2100              	.Ldebug_abbrev0:
 2101 0000 01       		.uleb128 0x1
 2102 0001 11       		.uleb128 0x11
 2103 0002 01       		.byte	0x1
 2104 0003 25       		.uleb128 0x25
 2105 0004 0E       		.uleb128 0xe
 2106 0005 13       		.uleb128 0x13
 2107 0006 0B       		.uleb128 0xb
 2108 0007 03       		.uleb128 0x3
 2109 0008 0E       		.uleb128 0xe
 2110 0009 1B       		.uleb128 0x1b
 2111 000a 0E       		.uleb128 0xe
 2112 000b 55       		.uleb128 0x55
 2113 000c 17       		.uleb128 0x17
 2114 000d 11       		.uleb128 0x11
 2115 000e 01       		.uleb128 0x1
 2116 000f 10       		.uleb128 0x10
 2117 0010 17       		.uleb128 0x17
 2118 0011 00       		.byte	0
 2119 0012 00       		.byte	0
 2120 0013 02       		.uleb128 0x2
 2121 0014 24       		.uleb128 0x24
 2122 0015 00       		.byte	0
 2123 0016 0B       		.uleb128 0xb
 2124 0017 0B       		.uleb128 0xb
 2125 0018 3E       		.uleb128 0x3e
 2126 0019 0B       		.uleb128 0xb
 2127 001a 03       		.uleb128 0x3
 2128 001b 0E       		.uleb128 0xe
 2129 001c 00       		.byte	0
 2130 001d 00       		.byte	0
 2131 001e 03       		.uleb128 0x3
 2132 001f 16       		.uleb128 0x16
 2133 0020 00       		.byte	0
 2134 0021 03       		.uleb128 0x3
 2135 0022 0E       		.uleb128 0xe
 2136 0023 3A       		.uleb128 0x3a
 2137 0024 0B       		.uleb128 0xb
 2138 0025 3B       		.uleb128 0x3b
 2139 0026 0B       		.uleb128 0xb
 2140 0027 49       		.uleb128 0x49
 2141 0028 13       		.uleb128 0x13
 2142 0029 00       		.byte	0
 2143 002a 00       		.byte	0
 2144 002b 04       		.uleb128 0x4
 2145 002c 24       		.uleb128 0x24
 2146 002d 00       		.byte	0
 2147 002e 0B       		.uleb128 0xb
 2148 002f 0B       		.uleb128 0xb
 2149 0030 3E       		.uleb128 0x3e
 2150 0031 0B       		.uleb128 0xb
ARM GAS  C:\Users\fneves\AppData\Local\Temp\ccyQHZqi.s 			page 60


 2151 0032 03       		.uleb128 0x3
 2152 0033 08       		.uleb128 0x8
 2153 0034 00       		.byte	0
 2154 0035 00       		.byte	0
 2155 0036 05       		.uleb128 0x5
 2156 0037 16       		.uleb128 0x16
 2157 0038 00       		.byte	0
 2158 0039 03       		.uleb128 0x3
 2159 003a 0E       		.uleb128 0xe
 2160 003b 3A       		.uleb128 0x3a
 2161 003c 0B       		.uleb128 0xb
 2162 003d 3B       		.uleb128 0x3b
 2163 003e 05       		.uleb128 0x5
 2164 003f 49       		.uleb128 0x49
 2165 0040 13       		.uleb128 0x13
 2166 0041 00       		.byte	0
 2167 0042 00       		.byte	0
 2168 0043 06       		.uleb128 0x6
 2169 0044 0F       		.uleb128 0xf
 2170 0045 00       		.byte	0
 2171 0046 0B       		.uleb128 0xb
 2172 0047 0B       		.uleb128 0xb
 2173 0048 49       		.uleb128 0x49
 2174 0049 13       		.uleb128 0x13
 2175 004a 00       		.byte	0
 2176 004b 00       		.byte	0
 2177 004c 07       		.uleb128 0x7
 2178 004d 13       		.uleb128 0x13
 2179 004e 01       		.byte	0x1
 2180 004f 0B       		.uleb128 0xb
 2181 0050 0B       		.uleb128 0xb
 2182 0051 3A       		.uleb128 0x3a
 2183 0052 0B       		.uleb128 0xb
 2184 0053 3B       		.uleb128 0x3b
 2185 0054 05       		.uleb128 0x5
 2186 0055 01       		.uleb128 0x1
 2187 0056 13       		.uleb128 0x13
 2188 0057 00       		.byte	0
 2189 0058 00       		.byte	0
 2190 0059 08       		.uleb128 0x8
 2191 005a 0D       		.uleb128 0xd
 2192 005b 00       		.byte	0
 2193 005c 03       		.uleb128 0x3
 2194 005d 0E       		.uleb128 0xe
 2195 005e 3A       		.uleb128 0x3a
 2196 005f 0B       		.uleb128 0xb
 2197 0060 3B       		.uleb128 0x3b
 2198 0061 05       		.uleb128 0x5
 2199 0062 49       		.uleb128 0x49
 2200 0063 13       		.uleb128 0x13
 2201 0064 38       		.uleb128 0x38
 2202 0065 0B       		.uleb128 0xb
 2203 0066 00       		.byte	0
 2204 0067 00       		.byte	0
 2205 0068 09       		.uleb128 0x9
 2206 0069 2E       		.uleb128 0x2e
 2207 006a 01       		.byte	0x1
ARM GAS  C:\Users\fneves\AppData\Local\Temp\ccyQHZqi.s 			page 61


 2208 006b 3F       		.uleb128 0x3f
 2209 006c 19       		.uleb128 0x19
 2210 006d 03       		.uleb128 0x3
 2211 006e 0E       		.uleb128 0xe
 2212 006f 3A       		.uleb128 0x3a
 2213 0070 0B       		.uleb128 0xb
 2214 0071 3B       		.uleb128 0x3b
 2215 0072 0B       		.uleb128 0xb
 2216 0073 27       		.uleb128 0x27
 2217 0074 19       		.uleb128 0x19
 2218 0075 11       		.uleb128 0x11
 2219 0076 01       		.uleb128 0x1
 2220 0077 12       		.uleb128 0x12
 2221 0078 06       		.uleb128 0x6
 2222 0079 40       		.uleb128 0x40
 2223 007a 18       		.uleb128 0x18
 2224 007b 9642     		.uleb128 0x2116
 2225 007d 19       		.uleb128 0x19
 2226 007e 01       		.uleb128 0x1
 2227 007f 13       		.uleb128 0x13
 2228 0080 00       		.byte	0
 2229 0081 00       		.byte	0
 2230 0082 0A       		.uleb128 0xa
 2231 0083 05       		.uleb128 0x5
 2232 0084 00       		.byte	0
 2233 0085 03       		.uleb128 0x3
 2234 0086 08       		.uleb128 0x8
 2235 0087 3A       		.uleb128 0x3a
 2236 0088 0B       		.uleb128 0xb
 2237 0089 3B       		.uleb128 0x3b
 2238 008a 0B       		.uleb128 0xb
 2239 008b 49       		.uleb128 0x49
 2240 008c 13       		.uleb128 0x13
 2241 008d 02       		.uleb128 0x2
 2242 008e 18       		.uleb128 0x18
 2243 008f 00       		.byte	0
 2244 0090 00       		.byte	0
 2245 0091 0B       		.uleb128 0xb
 2246 0092 05       		.uleb128 0x5
 2247 0093 00       		.byte	0
 2248 0094 03       		.uleb128 0x3
 2249 0095 0E       		.uleb128 0xe
 2250 0096 3A       		.uleb128 0x3a
 2251 0097 0B       		.uleb128 0xb
 2252 0098 3B       		.uleb128 0x3b
 2253 0099 0B       		.uleb128 0xb
 2254 009a 49       		.uleb128 0x49
 2255 009b 13       		.uleb128 0x13
 2256 009c 02       		.uleb128 0x2
 2257 009d 18       		.uleb128 0x18
 2258 009e 00       		.byte	0
 2259 009f 00       		.byte	0
 2260 00a0 0C       		.uleb128 0xc
 2261 00a1 26       		.uleb128 0x26
 2262 00a2 00       		.byte	0
 2263 00a3 49       		.uleb128 0x49
 2264 00a4 13       		.uleb128 0x13
ARM GAS  C:\Users\fneves\AppData\Local\Temp\ccyQHZqi.s 			page 62


 2265 00a5 00       		.byte	0
 2266 00a6 00       		.byte	0
 2267 00a7 0D       		.uleb128 0xd
 2268 00a8 34       		.uleb128 0x34
 2269 00a9 00       		.byte	0
 2270 00aa 03       		.uleb128 0x3
 2271 00ab 08       		.uleb128 0x8
 2272 00ac 3A       		.uleb128 0x3a
 2273 00ad 0B       		.uleb128 0xb
 2274 00ae 3B       		.uleb128 0x3b
 2275 00af 0B       		.uleb128 0xb
 2276 00b0 49       		.uleb128 0x49
 2277 00b1 13       		.uleb128 0x13
 2278 00b2 02       		.uleb128 0x2
 2279 00b3 18       		.uleb128 0x18
 2280 00b4 00       		.byte	0
 2281 00b5 00       		.byte	0
 2282 00b6 0E       		.uleb128 0xe
 2283 00b7 34       		.uleb128 0x34
 2284 00b8 00       		.byte	0
 2285 00b9 03       		.uleb128 0x3
 2286 00ba 08       		.uleb128 0x8
 2287 00bb 3A       		.uleb128 0x3a
 2288 00bc 0B       		.uleb128 0xb
 2289 00bd 3B       		.uleb128 0x3b
 2290 00be 05       		.uleb128 0x5
 2291 00bf 49       		.uleb128 0x49
 2292 00c0 13       		.uleb128 0x13
 2293 00c1 02       		.uleb128 0x2
 2294 00c2 18       		.uleb128 0x18
 2295 00c3 00       		.byte	0
 2296 00c4 00       		.byte	0
 2297 00c5 0F       		.uleb128 0xf
 2298 00c6 2E       		.uleb128 0x2e
 2299 00c7 01       		.byte	0x1
 2300 00c8 3F       		.uleb128 0x3f
 2301 00c9 19       		.uleb128 0x19
 2302 00ca 03       		.uleb128 0x3
 2303 00cb 0E       		.uleb128 0xe
 2304 00cc 3A       		.uleb128 0x3a
 2305 00cd 0B       		.uleb128 0xb
 2306 00ce 3B       		.uleb128 0x3b
 2307 00cf 05       		.uleb128 0x5
 2308 00d0 27       		.uleb128 0x27
 2309 00d1 19       		.uleb128 0x19
 2310 00d2 11       		.uleb128 0x11
 2311 00d3 01       		.uleb128 0x1
 2312 00d4 12       		.uleb128 0x12
 2313 00d5 06       		.uleb128 0x6
 2314 00d6 40       		.uleb128 0x40
 2315 00d7 18       		.uleb128 0x18
 2316 00d8 9642     		.uleb128 0x2116
 2317 00da 19       		.uleb128 0x19
 2318 00db 00       		.byte	0
 2319 00dc 00       		.byte	0
 2320 00dd 10       		.uleb128 0x10
 2321 00de 05       		.uleb128 0x5
ARM GAS  C:\Users\fneves\AppData\Local\Temp\ccyQHZqi.s 			page 63


 2322 00df 00       		.byte	0
 2323 00e0 03       		.uleb128 0x3
 2324 00e1 0E       		.uleb128 0xe
 2325 00e2 3A       		.uleb128 0x3a
 2326 00e3 0B       		.uleb128 0xb
 2327 00e4 3B       		.uleb128 0x3b
 2328 00e5 05       		.uleb128 0x5
 2329 00e6 49       		.uleb128 0x49
 2330 00e7 13       		.uleb128 0x13
 2331 00e8 02       		.uleb128 0x2
 2332 00e9 18       		.uleb128 0x18
 2333 00ea 00       		.byte	0
 2334 00eb 00       		.byte	0
 2335 00ec 00       		.byte	0
 2336              		.section	.debug_aranges,"",%progbits
 2337 0000 2C000000 		.4byte	0x2c
 2338 0004 0200     		.2byte	0x2
 2339 0006 00000000 		.4byte	.Ldebug_info0
 2340 000a 04       		.byte	0x4
 2341 000b 00       		.byte	0
 2342 000c 0000     		.2byte	0
 2343 000e 0000     		.2byte	0
 2344 0010 00000000 		.4byte	.LFB82
 2345 0014 60000000 		.4byte	.LFE82-.LFB82
 2346 0018 00000000 		.4byte	.LFB83
 2347 001c 9A030000 		.4byte	.LFE83-.LFB83
 2348 0020 00000000 		.4byte	.LFB84
 2349 0024 10060000 		.4byte	.LFE84-.LFB84
 2350 0028 00000000 		.4byte	0
 2351 002c 00000000 		.4byte	0
 2352              		.section	.debug_ranges,"",%progbits
 2353              	.Ldebug_ranges0:
 2354 0000 00000000 		.4byte	.LFB82
 2355 0004 60000000 		.4byte	.LFE82
 2356 0008 00000000 		.4byte	.LFB83
 2357 000c 9A030000 		.4byte	.LFE83
 2358 0010 00000000 		.4byte	.LFB84
 2359 0014 10060000 		.4byte	.LFE84
 2360 0018 00000000 		.4byte	0
 2361 001c 00000000 		.4byte	0
 2362              		.section	.debug_line,"",%progbits
 2363              	.Ldebug_line0:
 2364 0000 A8030000 		.section	.debug_str,"MS",%progbits,1
 2364      02005601 
 2364      00000201 
 2364      FB0E0D00 
 2364      01010101 
 2365              	.LASF3:
 2366 0000 5F5F7569 		.ascii	"__uint8_t\000"
 2366      6E74385F 
 2366      7400
 2367              	.LASF29:
 2368 000a 61726D5F 		.ascii	"arm_cfft_radix4_instance_f32\000"
 2368      63666674 
 2368      5F726164 
 2368      6978345F 
 2368      696E7374 
ARM GAS  C:\Users\fneves\AppData\Local\Temp\ccyQHZqi.s 			page 64


 2369              	.LASF36:
 2370 0027 433A5C55 		.ascii	"C:\\Users\\fneves\\Documents\\PSoC Creator\\wp_1\\e"
 2370      73657273 
 2370      5C666E65 
 2370      7665735C 
 2370      446F6375 
 2371 0054 6E67696E 		.ascii	"ngine_speed_sensor.cydsn\000"
 2371      655F7370 
 2371      6565645F 
 2371      73656E73 
 2371      6F722E63 
 2372              	.LASF12:
 2373 006d 75696E74 		.ascii	"uint8_t\000"
 2373      385F7400 
 2374              	.LASF37:
 2375 0075 61726D5F 		.ascii	"arm_radix4_butterfly_inverse_f32\000"
 2375      72616469 
 2375      78345F62 
 2375      75747465 
 2375      72666C79 
 2376              	.LASF26:
 2377 0096 74776964 		.ascii	"twidCoefModifier\000"
 2377      436F6566 
 2377      4D6F6469 
 2377      66696572 
 2377      00
 2378              	.LASF25:
 2379 00a7 70426974 		.ascii	"pBitRevTable\000"
 2379      52657654 
 2379      61626C65 
 2379      00
 2380              	.LASF18:
 2381 00b4 666C6F61 		.ascii	"float\000"
 2381      7400
 2382              	.LASF1:
 2383 00ba 756E7369 		.ascii	"unsigned char\000"
 2383      676E6564 
 2383      20636861 
 2383      7200
 2384              	.LASF28:
 2385 00c8 6F6E6562 		.ascii	"onebyfftLen\000"
 2385      79666674 
 2385      4C656E00 
 2386              	.LASF8:
 2387 00d4 6C6F6E67 		.ascii	"long unsigned int\000"
 2387      20756E73 
 2387      69676E65 
 2387      6420696E 
 2387      7400
 2388              	.LASF5:
 2389 00e6 73686F72 		.ascii	"short unsigned int\000"
 2389      7420756E 
 2389      7369676E 
 2389      65642069 
 2389      6E7400
 2390              	.LASF21:
 2391 00f9 6666744C 		.ascii	"fftLen\000"
ARM GAS  C:\Users\fneves\AppData\Local\Temp\ccyQHZqi.s 			page 65


 2391      656E00
 2392              	.LASF24:
 2393 0100 70547769 		.ascii	"pTwiddle\000"
 2393      64646C65 
 2393      00
 2394              	.LASF4:
 2395 0109 5F5F7569 		.ascii	"__uint16_t\000"
 2395      6E743136 
 2395      5F7400
 2396              	.LASF17:
 2397 0114 646F7562 		.ascii	"double\000"
 2397      6C6500
 2398              	.LASF31:
 2399 011b 61726D5F 		.ascii	"arm_cfft_radix4_f32\000"
 2399      63666674 
 2399      5F726164 
 2399      6978345F 
 2399      66333200 
 2400              	.LASF7:
 2401 012f 5F5F7569 		.ascii	"__uint32_t\000"
 2401      6E743332 
 2401      5F7400
 2402              	.LASF35:
 2403 013a 536F7572 		.ascii	"Source\\TransformFunctions\\arm_cfft_radix4_f32.c\000"
 2403      63655C54 
 2403      72616E73 
 2403      666F726D 
 2403      46756E63 
 2404              	.LASF22:
 2405 016a 69666674 		.ascii	"ifftFlag\000"
 2405      466C6167 
 2405      00
 2406              	.LASF11:
 2407 0173 756E7369 		.ascii	"unsigned int\000"
 2407      676E6564 
 2407      20696E74 
 2407      00
 2408              	.LASF10:
 2409 0180 6C6F6E67 		.ascii	"long long unsigned int\000"
 2409      206C6F6E 
 2409      6720756E 
 2409      7369676E 
 2409      65642069 
 2410              	.LASF34:
 2411 0197 474E5520 		.ascii	"GNU C 4.9.3 20150303 (release) [ARM/embedded-4_9-br"
 2411      4320342E 
 2411      392E3320 
 2411      32303135 
 2411      30333033 
 2412 01ca 616E6368 		.ascii	"anch revision 221220] -mcpu=cortex-m0plus -mthumb -"
 2412      20726576 
 2412      6973696F 
 2412      6E203232 
 2412      31323230 
 2413 01fd 67202D4F 		.ascii	"g -O0 -ffunction-sections -ffat-lto-objects\000"
 2413      30202D66 
 2413      66756E63 
ARM GAS  C:\Users\fneves\AppData\Local\Temp\ccyQHZqi.s 			page 66


 2413      74696F6E 
 2413      2D736563 
 2414              	.LASF23:
 2415 0229 62697452 		.ascii	"bitReverseFlag\000"
 2415      65766572 
 2415      7365466C 
 2415      616700
 2416              	.LASF15:
 2417 0238 73697A65 		.ascii	"sizetype\000"
 2417      74797065 
 2417      00
 2418              	.LASF9:
 2419 0241 6C6F6E67 		.ascii	"long long int\000"
 2419      206C6F6E 
 2419      6720696E 
 2419      7400
 2420              	.LASF16:
 2421 024f 63686172 		.ascii	"char\000"
 2421      00
 2422              	.LASF32:
 2423 0254 61726D5F 		.ascii	"arm_radix4_butterfly_f32\000"
 2423      72616469 
 2423      78345F62 
 2423      75747465 
 2423      72666C79 
 2424              	.LASF20:
 2425 026d 666C6F61 		.ascii	"float32_t\000"
 2425      7433325F 
 2425      7400
 2426              	.LASF27:
 2427 0277 62697452 		.ascii	"bitRevFactor\000"
 2427      65764661 
 2427      63746F72 
 2427      00
 2428              	.LASF2:
 2429 0284 73686F72 		.ascii	"short int\000"
 2429      7420696E 
 2429      7400
 2430              	.LASF13:
 2431 028e 75696E74 		.ascii	"uint16_t\000"
 2431      31365F74 
 2431      00
 2432              	.LASF14:
 2433 0297 75696E74 		.ascii	"uint32_t\000"
 2433      33325F74 
 2433      00
 2434              	.LASF6:
 2435 02a0 6C6F6E67 		.ascii	"long int\000"
 2435      20696E74 
 2435      00
 2436              	.LASF19:
 2437 02a9 6C6F6E67 		.ascii	"long double\000"
 2437      20646F75 
 2437      626C6500 
 2438              	.LASF0:
 2439 02b5 7369676E 		.ascii	"signed char\000"
 2439      65642063 
ARM GAS  C:\Users\fneves\AppData\Local\Temp\ccyQHZqi.s 			page 67


 2439      68617200 
 2440              	.LASF30:
 2441 02c1 70537263 		.ascii	"pSrc\000"
 2441      00
 2442              	.LASF33:
 2443 02c6 70436F65 		.ascii	"pCoef\000"
 2443      6600
 2444              		.ident	"GCC: (GNU Tools for ARM Embedded Processors) 4.9.3 20150303 (release) [ARM/embedded-4_9-br
