ARM GAS  C:\Users\fneves\AppData\Local\Temp\ccXYHum2.s 			page 1


   1              		.cpu cortex-m0plus
   2              		.fpu softvfp
   3              		.eabi_attribute 20, 1
   4              		.eabi_attribute 21, 1
   5              		.eabi_attribute 23, 3
   6              		.eabi_attribute 24, 1
   7              		.eabi_attribute 25, 1
   8              		.eabi_attribute 26, 1
   9              		.eabi_attribute 30, 6
  10              		.eabi_attribute 34, 0
  11              		.eabi_attribute 18, 4
  12              		.code	16
  13              		.file	"arm_dct4_f32.c"
  14              		.text
  15              	.Ltext0:
  16              		.cfi_sections	.debug_frame
  17              		.global	__aeabi_fmul
  18              		.global	__aeabi_fsub
  19              		.section	.text.arm_dct4_f32,"ax",%progbits
  20              		.align	2
  21              		.global	arm_dct4_f32
  22              		.code	16
  23              		.thumb_func
  24              		.type	arm_dct4_f32, %function
  25              	arm_dct4_f32:
  26              	.LFB82:
  27              		.file 1 "Source\\TransformFunctions\\arm_dct4_f32.c"
   1:Source\TransformFunctions/arm_dct4_f32.c **** /* ----------------------------------------------------------------------
   2:Source\TransformFunctions/arm_dct4_f32.c ****  * Project:      CMSIS DSP Library
   3:Source\TransformFunctions/arm_dct4_f32.c ****  * Title:        arm_dct4_f32.c
   4:Source\TransformFunctions/arm_dct4_f32.c ****  * Description:  Processing function of DCT4 & IDCT4 F32
   5:Source\TransformFunctions/arm_dct4_f32.c ****  *
   6:Source\TransformFunctions/arm_dct4_f32.c ****  * $Date:        27. January 2017
   7:Source\TransformFunctions/arm_dct4_f32.c ****  * $Revision:    V.1.5.1
   8:Source\TransformFunctions/arm_dct4_f32.c ****  *
   9:Source\TransformFunctions/arm_dct4_f32.c ****  * Target Processor: Cortex-M cores
  10:Source\TransformFunctions/arm_dct4_f32.c ****  * -------------------------------------------------------------------- */
  11:Source\TransformFunctions/arm_dct4_f32.c **** /*
  12:Source\TransformFunctions/arm_dct4_f32.c ****  * Copyright (C) 2010-2017 ARM Limited or its affiliates. All rights reserved.
  13:Source\TransformFunctions/arm_dct4_f32.c ****  *
  14:Source\TransformFunctions/arm_dct4_f32.c ****  * SPDX-License-Identifier: Apache-2.0
  15:Source\TransformFunctions/arm_dct4_f32.c ****  *
  16:Source\TransformFunctions/arm_dct4_f32.c ****  * Licensed under the Apache License, Version 2.0 (the License); you may
  17:Source\TransformFunctions/arm_dct4_f32.c ****  * not use this file except in compliance with the License.
  18:Source\TransformFunctions/arm_dct4_f32.c ****  * You may obtain a copy of the License at
  19:Source\TransformFunctions/arm_dct4_f32.c ****  *
  20:Source\TransformFunctions/arm_dct4_f32.c ****  * www.apache.org/licenses/LICENSE-2.0
  21:Source\TransformFunctions/arm_dct4_f32.c ****  *
  22:Source\TransformFunctions/arm_dct4_f32.c ****  * Unless required by applicable law or agreed to in writing, software
  23:Source\TransformFunctions/arm_dct4_f32.c ****  * distributed under the License is distributed on an AS IS BASIS, WITHOUT
  24:Source\TransformFunctions/arm_dct4_f32.c ****  * WARRANTIES OR CONDITIONS OF ANY KIND, either express or implied.
  25:Source\TransformFunctions/arm_dct4_f32.c ****  * See the License for the specific language governing permissions and
  26:Source\TransformFunctions/arm_dct4_f32.c ****  * limitations under the License.
  27:Source\TransformFunctions/arm_dct4_f32.c ****  */
  28:Source\TransformFunctions/arm_dct4_f32.c **** 
  29:Source\TransformFunctions/arm_dct4_f32.c **** #include "arm_math.h"
  30:Source\TransformFunctions/arm_dct4_f32.c **** 
ARM GAS  C:\Users\fneves\AppData\Local\Temp\ccXYHum2.s 			page 2


  31:Source\TransformFunctions/arm_dct4_f32.c **** /**
  32:Source\TransformFunctions/arm_dct4_f32.c ****  * @ingroup groupTransforms
  33:Source\TransformFunctions/arm_dct4_f32.c ****  */
  34:Source\TransformFunctions/arm_dct4_f32.c **** 
  35:Source\TransformFunctions/arm_dct4_f32.c **** /**
  36:Source\TransformFunctions/arm_dct4_f32.c ****  * @defgroup DCT4_IDCT4 DCT Type IV Functions
  37:Source\TransformFunctions/arm_dct4_f32.c ****  * Representation of signals by minimum number of values is important for storage and transmission.
  38:Source\TransformFunctions/arm_dct4_f32.c ****  * The possibility of large discontinuity between the beginning and end of a period of a signal
  39:Source\TransformFunctions/arm_dct4_f32.c ****  * in DFT can be avoided by extending the signal so that it is even-symmetric.
  40:Source\TransformFunctions/arm_dct4_f32.c ****  * Discrete Cosine Transform (DCT) is constructed such that its energy is heavily concentrated in t
  41:Source\TransformFunctions/arm_dct4_f32.c ****  * spectrum and is very widely used in signal and image coding applications.
  42:Source\TransformFunctions/arm_dct4_f32.c ****  * The family of DCTs (DCT type- 1,2,3,4) is the outcome of different combinations of homogeneous b
  43:Source\TransformFunctions/arm_dct4_f32.c ****  * DCT has an excellent energy-packing capability, hence has many applications and in data compress
  44:Source\TransformFunctions/arm_dct4_f32.c ****  *
  45:Source\TransformFunctions/arm_dct4_f32.c ****  * DCT is essentially the Discrete Fourier Transform(DFT) of an even-extended real signal.
  46:Source\TransformFunctions/arm_dct4_f32.c ****  * Reordering of the input data makes the computation of DCT just a problem of
  47:Source\TransformFunctions/arm_dct4_f32.c ****  * computing the DFT of a real signal with a few additional operations.
  48:Source\TransformFunctions/arm_dct4_f32.c ****  * This approach provides regular, simple, and very efficient DCT algorithms for practical hardware
  49:Source\TransformFunctions/arm_dct4_f32.c ****  *
  50:Source\TransformFunctions/arm_dct4_f32.c ****  * DCT type-II can be implemented using Fast fourier transform (FFT) internally, as the transform i
  51:Source\TransformFunctions/arm_dct4_f32.c ****  * DCT4 is implemented using DCT2 as their implementations are similar except with some added pre-p
  52:Source\TransformFunctions/arm_dct4_f32.c ****  * DCT2 implementation can be described in the following steps:
  53:Source\TransformFunctions/arm_dct4_f32.c ****  * - Re-ordering input
  54:Source\TransformFunctions/arm_dct4_f32.c ****  * - Calculating Real FFT
  55:Source\TransformFunctions/arm_dct4_f32.c ****  * - Multiplication of weights and Real FFT output and getting real part from the product.
  56:Source\TransformFunctions/arm_dct4_f32.c ****  *
  57:Source\TransformFunctions/arm_dct4_f32.c ****  * This process is explained by the block diagram below:
  58:Source\TransformFunctions/arm_dct4_f32.c ****  * \image html DCT4.gif "Discrete Cosine Transform - type-IV"
  59:Source\TransformFunctions/arm_dct4_f32.c ****  *
  60:Source\TransformFunctions/arm_dct4_f32.c ****  * \par Algorithm:
  61:Source\TransformFunctions/arm_dct4_f32.c ****  * The N-point type-IV DCT is defined as a real, linear transformation by the formula:
  62:Source\TransformFunctions/arm_dct4_f32.c ****  * \image html DCT4Equation.gif
  63:Source\TransformFunctions/arm_dct4_f32.c ****  * where <code>k = 0,1,2,.....N-1</code>
  64:Source\TransformFunctions/arm_dct4_f32.c ****  *\par
  65:Source\TransformFunctions/arm_dct4_f32.c ****  * Its inverse is defined as follows:
  66:Source\TransformFunctions/arm_dct4_f32.c ****  * \image html IDCT4Equation.gif
  67:Source\TransformFunctions/arm_dct4_f32.c ****  * where <code>n = 0,1,2,.....N-1</code>
  68:Source\TransformFunctions/arm_dct4_f32.c ****  *\par
  69:Source\TransformFunctions/arm_dct4_f32.c ****  * The DCT4 matrices become involutory (i.e. they are self-inverse) by multiplying with an overall 
  70:Source\TransformFunctions/arm_dct4_f32.c ****  * The symmetry of the transform matrix indicates that the fast algorithms for the forward
  71:Source\TransformFunctions/arm_dct4_f32.c ****  * and inverse transform computation are identical.
  72:Source\TransformFunctions/arm_dct4_f32.c ****  * Note that the implementation of Inverse DCT4 and DCT4 is same, hence same process function can b
  73:Source\TransformFunctions/arm_dct4_f32.c ****  *
  74:Source\TransformFunctions/arm_dct4_f32.c ****  * \par Lengths supported by the transform:
  75:Source\TransformFunctions/arm_dct4_f32.c ****  *  As DCT4 internally uses Real FFT, it supports all the lengths supported by arm_rfft_f32().
  76:Source\TransformFunctions/arm_dct4_f32.c ****  * The library provides separate functions for Q15, Q31, and floating-point data types.
  77:Source\TransformFunctions/arm_dct4_f32.c ****  * \par Instance Structure
  78:Source\TransformFunctions/arm_dct4_f32.c ****  * The instances for Real FFT and FFT, cosine values table and twiddle factor table are stored in a
  79:Source\TransformFunctions/arm_dct4_f32.c ****  * A separate instance structure must be defined for each transform.
  80:Source\TransformFunctions/arm_dct4_f32.c ****  * There are separate instance structure declarations for each of the 3 supported data types.
  81:Source\TransformFunctions/arm_dct4_f32.c ****  *
  82:Source\TransformFunctions/arm_dct4_f32.c ****  * \par Initialization Functions
  83:Source\TransformFunctions/arm_dct4_f32.c ****  * There is also an associated initialization function for each data type.
  84:Source\TransformFunctions/arm_dct4_f32.c ****  * The initialization function performs the following operations:
  85:Source\TransformFunctions/arm_dct4_f32.c ****  * - Sets the values of the internal structure fields.
  86:Source\TransformFunctions/arm_dct4_f32.c ****  * - Initializes Real FFT as its process function is used internally in DCT4, by calling arm_rfft_i
  87:Source\TransformFunctions/arm_dct4_f32.c ****  * \par
ARM GAS  C:\Users\fneves\AppData\Local\Temp\ccXYHum2.s 			page 3


  88:Source\TransformFunctions/arm_dct4_f32.c ****  * Use of the initialization function is optional.
  89:Source\TransformFunctions/arm_dct4_f32.c ****  * However, if the initialization function is used, then the instance structure cannot be placed in
  90:Source\TransformFunctions/arm_dct4_f32.c ****  * To place an instance structure into a const data section, the instance structure must be manuall
  91:Source\TransformFunctions/arm_dct4_f32.c ****  * Manually initialize the instance structure as follows:
  92:Source\TransformFunctions/arm_dct4_f32.c ****  * <pre>
  93:Source\TransformFunctions/arm_dct4_f32.c ****  *arm_dct4_instance_f32 S = {N, Nby2, normalize, pTwiddle, pCosFactor, pRfft, pCfft};
  94:Source\TransformFunctions/arm_dct4_f32.c ****  *arm_dct4_instance_q31 S = {N, Nby2, normalize, pTwiddle, pCosFactor, pRfft, pCfft};
  95:Source\TransformFunctions/arm_dct4_f32.c ****  *arm_dct4_instance_q15 S = {N, Nby2, normalize, pTwiddle, pCosFactor, pRfft, pCfft};
  96:Source\TransformFunctions/arm_dct4_f32.c ****  * </pre>
  97:Source\TransformFunctions/arm_dct4_f32.c ****  * where \c N is the length of the DCT4; \c Nby2 is half of the length of the DCT4;
  98:Source\TransformFunctions/arm_dct4_f32.c ****  * \c normalize is normalizing factor used and is equal to <code>sqrt(2/N)</code>;
  99:Source\TransformFunctions/arm_dct4_f32.c ****  * \c pTwiddle points to the twiddle factor table;
 100:Source\TransformFunctions/arm_dct4_f32.c ****  * \c pCosFactor points to the cosFactor table;
 101:Source\TransformFunctions/arm_dct4_f32.c ****  * \c pRfft points to the real FFT instance;
 102:Source\TransformFunctions/arm_dct4_f32.c ****  * \c pCfft points to the complex FFT instance;
 103:Source\TransformFunctions/arm_dct4_f32.c ****  * The CFFT and RFFT structures also needs to be initialized, refer to arm_cfft_radix4_f32()
 104:Source\TransformFunctions/arm_dct4_f32.c ****  * and arm_rfft_f32() respectively for details regarding static initialization.
 105:Source\TransformFunctions/arm_dct4_f32.c ****  *
 106:Source\TransformFunctions/arm_dct4_f32.c ****  * \par Fixed-Point Behavior
 107:Source\TransformFunctions/arm_dct4_f32.c ****  * Care must be taken when using the fixed-point versions of the DCT4 transform functions.
 108:Source\TransformFunctions/arm_dct4_f32.c ****  * In particular, the overflow and saturation behavior of the accumulator used in each function mus
 109:Source\TransformFunctions/arm_dct4_f32.c ****  * Refer to the function specific documentation below for usage guidelines.
 110:Source\TransformFunctions/arm_dct4_f32.c ****  */
 111:Source\TransformFunctions/arm_dct4_f32.c **** 
 112:Source\TransformFunctions/arm_dct4_f32.c ****  /**
 113:Source\TransformFunctions/arm_dct4_f32.c ****  * @addtogroup DCT4_IDCT4
 114:Source\TransformFunctions/arm_dct4_f32.c ****  * @{
 115:Source\TransformFunctions/arm_dct4_f32.c ****  */
 116:Source\TransformFunctions/arm_dct4_f32.c **** 
 117:Source\TransformFunctions/arm_dct4_f32.c **** /**
 118:Source\TransformFunctions/arm_dct4_f32.c ****  * @brief Processing function for the floating-point DCT4/IDCT4.
 119:Source\TransformFunctions/arm_dct4_f32.c ****  * @param[in]       *S             points to an instance of the floating-point DCT4/IDCT4 structure
 120:Source\TransformFunctions/arm_dct4_f32.c ****  * @param[in]       *pState        points to state buffer.
 121:Source\TransformFunctions/arm_dct4_f32.c ****  * @param[in,out]   *pInlineBuffer points to the in-place input and output buffer.
 122:Source\TransformFunctions/arm_dct4_f32.c ****  * @return none.
 123:Source\TransformFunctions/arm_dct4_f32.c ****  */
 124:Source\TransformFunctions/arm_dct4_f32.c **** 
 125:Source\TransformFunctions/arm_dct4_f32.c **** void arm_dct4_f32(
 126:Source\TransformFunctions/arm_dct4_f32.c ****   const arm_dct4_instance_f32 * S,
 127:Source\TransformFunctions/arm_dct4_f32.c ****   float32_t * pState,
 128:Source\TransformFunctions/arm_dct4_f32.c ****   float32_t * pInlineBuffer)
 129:Source\TransformFunctions/arm_dct4_f32.c **** {
  28              		.loc 1 129 0
  29              		.cfi_startproc
  30 0000 90B5     		push	{r4, r7, lr}
  31              		.cfi_def_cfa_offset 12
  32              		.cfi_offset 4, -12
  33              		.cfi_offset 7, -8
  34              		.cfi_offset 14, -4
  35 0002 8DB0     		sub	sp, sp, #52
  36              		.cfi_def_cfa_offset 64
  37 0004 00AF     		add	r7, sp, #0
  38              		.cfi_def_cfa_register 7
  39 0006 F860     		str	r0, [r7, #12]
  40 0008 B960     		str	r1, [r7, #8]
  41 000a 7A60     		str	r2, [r7, #4]
 130:Source\TransformFunctions/arm_dct4_f32.c ****   uint32_t i;                                    /* Loop counter */
ARM GAS  C:\Users\fneves\AppData\Local\Temp\ccXYHum2.s 			page 4


 131:Source\TransformFunctions/arm_dct4_f32.c ****   float32_t *weights = S->pTwiddle;              /* Pointer to the Weights table */
  42              		.loc 1 131 0
  43 000c FB68     		ldr	r3, [r7, #12]
  44 000e 9B68     		ldr	r3, [r3, #8]
  45 0010 BB61     		str	r3, [r7, #24]
 132:Source\TransformFunctions/arm_dct4_f32.c ****   float32_t *cosFact = S->pCosFactor;            /* Pointer to the cos factors table */
  46              		.loc 1 132 0
  47 0012 FB68     		ldr	r3, [r7, #12]
  48 0014 DB68     		ldr	r3, [r3, #12]
  49 0016 7B61     		str	r3, [r7, #20]
 133:Source\TransformFunctions/arm_dct4_f32.c ****   float32_t *pS1, *pS2, *pbuff;                  /* Temporary pointers for input buffer and pState 
 134:Source\TransformFunctions/arm_dct4_f32.c ****   float32_t in;                                  /* Temporary variable */
 135:Source\TransformFunctions/arm_dct4_f32.c **** 
 136:Source\TransformFunctions/arm_dct4_f32.c **** 
 137:Source\TransformFunctions/arm_dct4_f32.c ****   /* DCT4 computation involves DCT2 (which is calculated using RFFT)
 138:Source\TransformFunctions/arm_dct4_f32.c ****    * along with some pre-processing and post-processing.
 139:Source\TransformFunctions/arm_dct4_f32.c ****    * Computational procedure is explained as follows:
 140:Source\TransformFunctions/arm_dct4_f32.c ****    * (a) Pre-processing involves multiplying input with cos factor,
 141:Source\TransformFunctions/arm_dct4_f32.c ****    *     r(n) = 2 * u(n) * cos(pi*(2*n+1)/(4*n))
 142:Source\TransformFunctions/arm_dct4_f32.c ****    *              where,
 143:Source\TransformFunctions/arm_dct4_f32.c ****    *                 r(n) -- output of preprocessing
 144:Source\TransformFunctions/arm_dct4_f32.c ****    *                 u(n) -- input to preprocessing(actual Source buffer)
 145:Source\TransformFunctions/arm_dct4_f32.c ****    * (b) Calculation of DCT2 using FFT is divided into three steps:
 146:Source\TransformFunctions/arm_dct4_f32.c ****    *                  Step1: Re-ordering of even and odd elements of input.
 147:Source\TransformFunctions/arm_dct4_f32.c ****    *                  Step2: Calculating FFT of the re-ordered input.
 148:Source\TransformFunctions/arm_dct4_f32.c ****    *                  Step3: Taking the real part of the product of FFT output and weights.
 149:Source\TransformFunctions/arm_dct4_f32.c ****    * (c) Post-processing - DCT4 can be obtained from DCT2 output using the following equation:
 150:Source\TransformFunctions/arm_dct4_f32.c ****    *                   Y4(k) = Y2(k) - Y4(k-1) and Y4(-1) = Y4(0)
 151:Source\TransformFunctions/arm_dct4_f32.c ****    *                        where,
 152:Source\TransformFunctions/arm_dct4_f32.c ****    *                           Y4 -- DCT4 output,   Y2 -- DCT2 output
 153:Source\TransformFunctions/arm_dct4_f32.c ****    * (d) Multiplying the output with the normalizing factor sqrt(2/N).
 154:Source\TransformFunctions/arm_dct4_f32.c ****    */
 155:Source\TransformFunctions/arm_dct4_f32.c **** 
 156:Source\TransformFunctions/arm_dct4_f32.c ****         /*-------- Pre-processing ------------*/
 157:Source\TransformFunctions/arm_dct4_f32.c ****   /* Multiplying input with cos factor i.e. r(n) = 2 * x(n) * cos(pi*(2*n+1)/(4*n)) */
 158:Source\TransformFunctions/arm_dct4_f32.c ****   arm_scale_f32(pInlineBuffer, 2.0f, pInlineBuffer, S->N);
  50              		.loc 1 158 0
  51 0018 FB68     		ldr	r3, [r7, #12]
  52 001a 1B88     		ldrh	r3, [r3]
  53 001c 1C1C     		mov	r4, r3
  54 001e 7A68     		ldr	r2, [r7, #4]
  55 0020 8021     		mov	r1, #128
  56 0022 C905     		lsl	r1, r1, #23
  57 0024 7B68     		ldr	r3, [r7, #4]
  58 0026 101C     		mov	r0, r2
  59 0028 1A1C     		mov	r2, r3
  60 002a 231C     		mov	r3, r4
  61 002c FFF7FEFF 		bl	arm_scale_f32
 159:Source\TransformFunctions/arm_dct4_f32.c ****   arm_mult_f32(pInlineBuffer, cosFact, pInlineBuffer, S->N);
  62              		.loc 1 159 0
  63 0030 FB68     		ldr	r3, [r7, #12]
  64 0032 1B88     		ldrh	r3, [r3]
  65 0034 1C1C     		mov	r4, r3
  66 0036 7968     		ldr	r1, [r7, #4]
  67 0038 7A69     		ldr	r2, [r7, #20]
  68 003a 7B68     		ldr	r3, [r7, #4]
  69 003c 081C     		mov	r0, r1
ARM GAS  C:\Users\fneves\AppData\Local\Temp\ccXYHum2.s 			page 5


  70 003e 111C     		mov	r1, r2
  71 0040 1A1C     		mov	r2, r3
  72 0042 231C     		mov	r3, r4
  73 0044 FFF7FEFF 		bl	arm_mult_f32
 160:Source\TransformFunctions/arm_dct4_f32.c **** 
 161:Source\TransformFunctions/arm_dct4_f32.c ****   /* ----------------------------------------------------------------
 162:Source\TransformFunctions/arm_dct4_f32.c ****    * Step1: Re-ordering of even and odd elements as,
 163:Source\TransformFunctions/arm_dct4_f32.c ****    *             pState[i] =  pInlineBuffer[2*i] and
 164:Source\TransformFunctions/arm_dct4_f32.c ****    *             pState[N-i-1] = pInlineBuffer[2*i+1] where i = 0 to N/2
 165:Source\TransformFunctions/arm_dct4_f32.c ****    ---------------------------------------------------------------------*/
 166:Source\TransformFunctions/arm_dct4_f32.c **** 
 167:Source\TransformFunctions/arm_dct4_f32.c ****   /* pS1 initialized to pState */
 168:Source\TransformFunctions/arm_dct4_f32.c ****   pS1 = pState;
  74              		.loc 1 168 0
  75 0048 BB68     		ldr	r3, [r7, #8]
  76 004a BB62     		str	r3, [r7, #40]
 169:Source\TransformFunctions/arm_dct4_f32.c **** 
 170:Source\TransformFunctions/arm_dct4_f32.c ****   /* pS2 initialized to pState+N-1, so that it points to the end of the state buffer */
 171:Source\TransformFunctions/arm_dct4_f32.c ****   pS2 = pState + (S->N - 1u);
  77              		.loc 1 171 0
  78 004c FB68     		ldr	r3, [r7, #12]
  79 004e 1B88     		ldrh	r3, [r3]
  80 0050 4D4A     		ldr	r2, .L6
  81 0052 9446     		mov	ip, r2
  82 0054 6344     		add	r3, r3, ip
  83 0056 9B00     		lsl	r3, r3, #2
  84 0058 BA68     		ldr	r2, [r7, #8]
  85 005a D318     		add	r3, r2, r3
  86 005c 7B62     		str	r3, [r7, #36]
 172:Source\TransformFunctions/arm_dct4_f32.c **** 
 173:Source\TransformFunctions/arm_dct4_f32.c ****   /* pbuff initialized to input buffer */
 174:Source\TransformFunctions/arm_dct4_f32.c ****   pbuff = pInlineBuffer;
  87              		.loc 1 174 0
  88 005e 7B68     		ldr	r3, [r7, #4]
  89 0060 3B62     		str	r3, [r7, #32]
 175:Source\TransformFunctions/arm_dct4_f32.c **** 
 176:Source\TransformFunctions/arm_dct4_f32.c **** #if defined (ARM_MATH_DSP)
 177:Source\TransformFunctions/arm_dct4_f32.c **** 
 178:Source\TransformFunctions/arm_dct4_f32.c ****   /* Run the below code for Cortex-M4 and Cortex-M3 */
 179:Source\TransformFunctions/arm_dct4_f32.c **** 
 180:Source\TransformFunctions/arm_dct4_f32.c ****   /* Initializing the loop counter to N/2 >> 2 for loop unrolling by 4 */
 181:Source\TransformFunctions/arm_dct4_f32.c ****   i = (uint32_t) S->Nby2 >> 2u;
 182:Source\TransformFunctions/arm_dct4_f32.c **** 
 183:Source\TransformFunctions/arm_dct4_f32.c ****   /* First part of the processing with loop unrolling.  Compute 4 outputs at a time.
 184:Source\TransformFunctions/arm_dct4_f32.c ****    ** a second loop below computes the remaining 1 to 3 samples. */
 185:Source\TransformFunctions/arm_dct4_f32.c ****   do
 186:Source\TransformFunctions/arm_dct4_f32.c ****   {
 187:Source\TransformFunctions/arm_dct4_f32.c ****     /* Re-ordering of even and odd elements */
 188:Source\TransformFunctions/arm_dct4_f32.c ****     /* pState[i] =  pInlineBuffer[2*i] */
 189:Source\TransformFunctions/arm_dct4_f32.c ****     *pS1++ = *pbuff++;
 190:Source\TransformFunctions/arm_dct4_f32.c ****     /* pState[N-i-1] = pInlineBuffer[2*i+1] */
 191:Source\TransformFunctions/arm_dct4_f32.c ****     *pS2-- = *pbuff++;
 192:Source\TransformFunctions/arm_dct4_f32.c **** 
 193:Source\TransformFunctions/arm_dct4_f32.c ****     *pS1++ = *pbuff++;
 194:Source\TransformFunctions/arm_dct4_f32.c ****     *pS2-- = *pbuff++;
 195:Source\TransformFunctions/arm_dct4_f32.c **** 
 196:Source\TransformFunctions/arm_dct4_f32.c ****     *pS1++ = *pbuff++;
ARM GAS  C:\Users\fneves\AppData\Local\Temp\ccXYHum2.s 			page 6


 197:Source\TransformFunctions/arm_dct4_f32.c ****     *pS2-- = *pbuff++;
 198:Source\TransformFunctions/arm_dct4_f32.c **** 
 199:Source\TransformFunctions/arm_dct4_f32.c ****     *pS1++ = *pbuff++;
 200:Source\TransformFunctions/arm_dct4_f32.c ****     *pS2-- = *pbuff++;
 201:Source\TransformFunctions/arm_dct4_f32.c **** 
 202:Source\TransformFunctions/arm_dct4_f32.c ****     /* Decrement the loop counter */
 203:Source\TransformFunctions/arm_dct4_f32.c ****     i--;
 204:Source\TransformFunctions/arm_dct4_f32.c ****   } while (i > 0u);
 205:Source\TransformFunctions/arm_dct4_f32.c **** 
 206:Source\TransformFunctions/arm_dct4_f32.c ****   /* pbuff initialized to input buffer */
 207:Source\TransformFunctions/arm_dct4_f32.c ****   pbuff = pInlineBuffer;
 208:Source\TransformFunctions/arm_dct4_f32.c **** 
 209:Source\TransformFunctions/arm_dct4_f32.c ****   /* pS1 initialized to pState */
 210:Source\TransformFunctions/arm_dct4_f32.c ****   pS1 = pState;
 211:Source\TransformFunctions/arm_dct4_f32.c **** 
 212:Source\TransformFunctions/arm_dct4_f32.c ****   /* Initializing the loop counter to N/4 instead of N for loop unrolling */
 213:Source\TransformFunctions/arm_dct4_f32.c ****   i = (uint32_t) S->N >> 2u;
 214:Source\TransformFunctions/arm_dct4_f32.c **** 
 215:Source\TransformFunctions/arm_dct4_f32.c ****   /* Processing with loop unrolling 4 times as N is always multiple of 4.
 216:Source\TransformFunctions/arm_dct4_f32.c ****    * Compute 4 outputs at a time */
 217:Source\TransformFunctions/arm_dct4_f32.c ****   do
 218:Source\TransformFunctions/arm_dct4_f32.c ****   {
 219:Source\TransformFunctions/arm_dct4_f32.c ****     /* Writing the re-ordered output back to inplace input buffer */
 220:Source\TransformFunctions/arm_dct4_f32.c ****     *pbuff++ = *pS1++;
 221:Source\TransformFunctions/arm_dct4_f32.c ****     *pbuff++ = *pS1++;
 222:Source\TransformFunctions/arm_dct4_f32.c ****     *pbuff++ = *pS1++;
 223:Source\TransformFunctions/arm_dct4_f32.c ****     *pbuff++ = *pS1++;
 224:Source\TransformFunctions/arm_dct4_f32.c **** 
 225:Source\TransformFunctions/arm_dct4_f32.c ****     /* Decrement the loop counter */
 226:Source\TransformFunctions/arm_dct4_f32.c ****     i--;
 227:Source\TransformFunctions/arm_dct4_f32.c ****   } while (i > 0u);
 228:Source\TransformFunctions/arm_dct4_f32.c **** 
 229:Source\TransformFunctions/arm_dct4_f32.c **** 
 230:Source\TransformFunctions/arm_dct4_f32.c ****   /* ---------------------------------------------------------
 231:Source\TransformFunctions/arm_dct4_f32.c ****    *     Step2: Calculate RFFT for N-point input
 232:Source\TransformFunctions/arm_dct4_f32.c ****    * ---------------------------------------------------------- */
 233:Source\TransformFunctions/arm_dct4_f32.c ****   /* pInlineBuffer is real input of length N , pState is the complex output of length 2N */
 234:Source\TransformFunctions/arm_dct4_f32.c ****   arm_rfft_f32(S->pRfft, pInlineBuffer, pState);
 235:Source\TransformFunctions/arm_dct4_f32.c **** 
 236:Source\TransformFunctions/arm_dct4_f32.c ****         /*----------------------------------------------------------------------
 237:Source\TransformFunctions/arm_dct4_f32.c **** 	 *  Step3: Multiply the FFT output with the weights.
 238:Source\TransformFunctions/arm_dct4_f32.c **** 	 *----------------------------------------------------------------------*/
 239:Source\TransformFunctions/arm_dct4_f32.c ****   arm_cmplx_mult_cmplx_f32(pState, weights, pState, S->N);
 240:Source\TransformFunctions/arm_dct4_f32.c **** 
 241:Source\TransformFunctions/arm_dct4_f32.c ****   /* ----------- Post-processing ---------- */
 242:Source\TransformFunctions/arm_dct4_f32.c ****   /* DCT-IV can be obtained from DCT-II by the equation,
 243:Source\TransformFunctions/arm_dct4_f32.c ****    *       Y4(k) = Y2(k) - Y4(k-1) and Y4(-1) = Y4(0)
 244:Source\TransformFunctions/arm_dct4_f32.c ****    *       Hence, Y4(0) = Y2(0)/2  */
 245:Source\TransformFunctions/arm_dct4_f32.c ****   /* Getting only real part from the output and Converting to DCT-IV */
 246:Source\TransformFunctions/arm_dct4_f32.c **** 
 247:Source\TransformFunctions/arm_dct4_f32.c ****   /* Initializing the loop counter to N >> 2 for loop unrolling by 4 */
 248:Source\TransformFunctions/arm_dct4_f32.c ****   i = ((uint32_t) S->N - 1u) >> 2u;
 249:Source\TransformFunctions/arm_dct4_f32.c **** 
 250:Source\TransformFunctions/arm_dct4_f32.c ****   /* pbuff initialized to input buffer. */
 251:Source\TransformFunctions/arm_dct4_f32.c ****   pbuff = pInlineBuffer;
 252:Source\TransformFunctions/arm_dct4_f32.c **** 
 253:Source\TransformFunctions/arm_dct4_f32.c ****   /* pS1 initialized to pState */
ARM GAS  C:\Users\fneves\AppData\Local\Temp\ccXYHum2.s 			page 7


 254:Source\TransformFunctions/arm_dct4_f32.c ****   pS1 = pState;
 255:Source\TransformFunctions/arm_dct4_f32.c **** 
 256:Source\TransformFunctions/arm_dct4_f32.c ****   /* Calculating Y4(0) from Y2(0) using Y4(0) = Y2(0)/2 */
 257:Source\TransformFunctions/arm_dct4_f32.c ****   in = *pS1++ * (float32_t) 0.5;
 258:Source\TransformFunctions/arm_dct4_f32.c ****   /* input buffer acts as inplace, so output values are stored in the input itself. */
 259:Source\TransformFunctions/arm_dct4_f32.c ****   *pbuff++ = in;
 260:Source\TransformFunctions/arm_dct4_f32.c **** 
 261:Source\TransformFunctions/arm_dct4_f32.c ****   /* pState pointer is incremented twice as the real values are located alternatively in the array 
 262:Source\TransformFunctions/arm_dct4_f32.c ****   pS1++;
 263:Source\TransformFunctions/arm_dct4_f32.c **** 
 264:Source\TransformFunctions/arm_dct4_f32.c ****   /* First part of the processing with loop unrolling.  Compute 4 outputs at a time.
 265:Source\TransformFunctions/arm_dct4_f32.c ****    ** a second loop below computes the remaining 1 to 3 samples. */
 266:Source\TransformFunctions/arm_dct4_f32.c ****   do
 267:Source\TransformFunctions/arm_dct4_f32.c ****   {
 268:Source\TransformFunctions/arm_dct4_f32.c ****     /* Calculating Y4(1) to Y4(N-1) from Y2 using equation Y4(k) = Y2(k) - Y4(k-1) */
 269:Source\TransformFunctions/arm_dct4_f32.c ****     /* pState pointer (pS1) is incremented twice as the real values are located alternatively in th
 270:Source\TransformFunctions/arm_dct4_f32.c ****     in = *pS1++ - in;
 271:Source\TransformFunctions/arm_dct4_f32.c ****     *pbuff++ = in;
 272:Source\TransformFunctions/arm_dct4_f32.c ****     /* points to the next real value */
 273:Source\TransformFunctions/arm_dct4_f32.c ****     pS1++;
 274:Source\TransformFunctions/arm_dct4_f32.c **** 
 275:Source\TransformFunctions/arm_dct4_f32.c ****     in = *pS1++ - in;
 276:Source\TransformFunctions/arm_dct4_f32.c ****     *pbuff++ = in;
 277:Source\TransformFunctions/arm_dct4_f32.c ****     pS1++;
 278:Source\TransformFunctions/arm_dct4_f32.c **** 
 279:Source\TransformFunctions/arm_dct4_f32.c ****     in = *pS1++ - in;
 280:Source\TransformFunctions/arm_dct4_f32.c ****     *pbuff++ = in;
 281:Source\TransformFunctions/arm_dct4_f32.c ****     pS1++;
 282:Source\TransformFunctions/arm_dct4_f32.c **** 
 283:Source\TransformFunctions/arm_dct4_f32.c ****     in = *pS1++ - in;
 284:Source\TransformFunctions/arm_dct4_f32.c ****     *pbuff++ = in;
 285:Source\TransformFunctions/arm_dct4_f32.c ****     pS1++;
 286:Source\TransformFunctions/arm_dct4_f32.c **** 
 287:Source\TransformFunctions/arm_dct4_f32.c ****     /* Decrement the loop counter */
 288:Source\TransformFunctions/arm_dct4_f32.c ****     i--;
 289:Source\TransformFunctions/arm_dct4_f32.c ****   } while (i > 0u);
 290:Source\TransformFunctions/arm_dct4_f32.c **** 
 291:Source\TransformFunctions/arm_dct4_f32.c ****   /* If the blockSize is not a multiple of 4, compute any remaining output samples here.
 292:Source\TransformFunctions/arm_dct4_f32.c ****    ** No loop unrolling is used. */
 293:Source\TransformFunctions/arm_dct4_f32.c ****   i = ((uint32_t) S->N - 1u) % 0x4u;
 294:Source\TransformFunctions/arm_dct4_f32.c **** 
 295:Source\TransformFunctions/arm_dct4_f32.c ****   while (i > 0u)
 296:Source\TransformFunctions/arm_dct4_f32.c ****   {
 297:Source\TransformFunctions/arm_dct4_f32.c ****     /* Calculating Y4(1) to Y4(N-1) from Y2 using equation Y4(k) = Y2(k) - Y4(k-1) */
 298:Source\TransformFunctions/arm_dct4_f32.c ****     /* pState pointer (pS1) is incremented twice as the real values are located alternatively in th
 299:Source\TransformFunctions/arm_dct4_f32.c ****     in = *pS1++ - in;
 300:Source\TransformFunctions/arm_dct4_f32.c ****     *pbuff++ = in;
 301:Source\TransformFunctions/arm_dct4_f32.c ****     /* points to the next real value */
 302:Source\TransformFunctions/arm_dct4_f32.c ****     pS1++;
 303:Source\TransformFunctions/arm_dct4_f32.c **** 
 304:Source\TransformFunctions/arm_dct4_f32.c ****     /* Decrement the loop counter */
 305:Source\TransformFunctions/arm_dct4_f32.c ****     i--;
 306:Source\TransformFunctions/arm_dct4_f32.c ****   }
 307:Source\TransformFunctions/arm_dct4_f32.c **** 
 308:Source\TransformFunctions/arm_dct4_f32.c **** 
 309:Source\TransformFunctions/arm_dct4_f32.c ****         /*------------ Normalizing the output by multiplying with the normalizing factor ----------
 310:Source\TransformFunctions/arm_dct4_f32.c **** 
ARM GAS  C:\Users\fneves\AppData\Local\Temp\ccXYHum2.s 			page 8


 311:Source\TransformFunctions/arm_dct4_f32.c ****   /* Initializing the loop counter to N/4 instead of N for loop unrolling */
 312:Source\TransformFunctions/arm_dct4_f32.c ****   i = (uint32_t) S->N >> 2u;
 313:Source\TransformFunctions/arm_dct4_f32.c **** 
 314:Source\TransformFunctions/arm_dct4_f32.c ****   /* pbuff initialized to the pInlineBuffer(now contains the output values) */
 315:Source\TransformFunctions/arm_dct4_f32.c ****   pbuff = pInlineBuffer;
 316:Source\TransformFunctions/arm_dct4_f32.c **** 
 317:Source\TransformFunctions/arm_dct4_f32.c ****   /* Processing with loop unrolling 4 times as N is always multiple of 4.  Compute 4 outputs at a t
 318:Source\TransformFunctions/arm_dct4_f32.c ****   do
 319:Source\TransformFunctions/arm_dct4_f32.c ****   {
 320:Source\TransformFunctions/arm_dct4_f32.c ****     /* Multiplying pInlineBuffer with the normalizing factor sqrt(2/N) */
 321:Source\TransformFunctions/arm_dct4_f32.c ****     in = *pbuff;
 322:Source\TransformFunctions/arm_dct4_f32.c ****     *pbuff++ = in * S->normalize;
 323:Source\TransformFunctions/arm_dct4_f32.c **** 
 324:Source\TransformFunctions/arm_dct4_f32.c ****     in = *pbuff;
 325:Source\TransformFunctions/arm_dct4_f32.c ****     *pbuff++ = in * S->normalize;
 326:Source\TransformFunctions/arm_dct4_f32.c **** 
 327:Source\TransformFunctions/arm_dct4_f32.c ****     in = *pbuff;
 328:Source\TransformFunctions/arm_dct4_f32.c ****     *pbuff++ = in * S->normalize;
 329:Source\TransformFunctions/arm_dct4_f32.c **** 
 330:Source\TransformFunctions/arm_dct4_f32.c ****     in = *pbuff;
 331:Source\TransformFunctions/arm_dct4_f32.c ****     *pbuff++ = in * S->normalize;
 332:Source\TransformFunctions/arm_dct4_f32.c **** 
 333:Source\TransformFunctions/arm_dct4_f32.c ****     /* Decrement the loop counter */
 334:Source\TransformFunctions/arm_dct4_f32.c ****     i--;
 335:Source\TransformFunctions/arm_dct4_f32.c ****   } while (i > 0u);
 336:Source\TransformFunctions/arm_dct4_f32.c **** 
 337:Source\TransformFunctions/arm_dct4_f32.c **** 
 338:Source\TransformFunctions/arm_dct4_f32.c **** #else
 339:Source\TransformFunctions/arm_dct4_f32.c **** 
 340:Source\TransformFunctions/arm_dct4_f32.c ****   /* Run the below code for Cortex-M0 */
 341:Source\TransformFunctions/arm_dct4_f32.c **** 
 342:Source\TransformFunctions/arm_dct4_f32.c ****   /* Initializing the loop counter to N/2 */
 343:Source\TransformFunctions/arm_dct4_f32.c ****   i = (uint32_t) S->Nby2;
  90              		.loc 1 343 0
  91 0062 FB68     		ldr	r3, [r7, #12]
  92 0064 5B88     		ldrh	r3, [r3, #2]
  93 0066 FB62     		str	r3, [r7, #44]
  94              	.L2:
 344:Source\TransformFunctions/arm_dct4_f32.c **** 
 345:Source\TransformFunctions/arm_dct4_f32.c ****   do
 346:Source\TransformFunctions/arm_dct4_f32.c ****   {
 347:Source\TransformFunctions/arm_dct4_f32.c ****     /* Re-ordering of even and odd elements */
 348:Source\TransformFunctions/arm_dct4_f32.c ****     /* pState[i] =  pInlineBuffer[2*i] */
 349:Source\TransformFunctions/arm_dct4_f32.c ****     *pS1++ = *pbuff++;
  95              		.loc 1 349 0 discriminator 1
  96 0068 BB6A     		ldr	r3, [r7, #40]
  97 006a 1A1D     		add	r2, r3, #4
  98 006c BA62     		str	r2, [r7, #40]
  99 006e 3A6A     		ldr	r2, [r7, #32]
 100 0070 111D     		add	r1, r2, #4
 101 0072 3962     		str	r1, [r7, #32]
 102 0074 1268     		ldr	r2, [r2]
 103 0076 1A60     		str	r2, [r3]
 350:Source\TransformFunctions/arm_dct4_f32.c ****     /* pState[N-i-1] = pInlineBuffer[2*i+1] */
 351:Source\TransformFunctions/arm_dct4_f32.c ****     *pS2-- = *pbuff++;
 104              		.loc 1 351 0 discriminator 1
 105 0078 7B6A     		ldr	r3, [r7, #36]
ARM GAS  C:\Users\fneves\AppData\Local\Temp\ccXYHum2.s 			page 9


 106 007a 1A1F     		sub	r2, r3, #4
 107 007c 7A62     		str	r2, [r7, #36]
 108 007e 3A6A     		ldr	r2, [r7, #32]
 109 0080 111D     		add	r1, r2, #4
 110 0082 3962     		str	r1, [r7, #32]
 111 0084 1268     		ldr	r2, [r2]
 112 0086 1A60     		str	r2, [r3]
 352:Source\TransformFunctions/arm_dct4_f32.c **** 
 353:Source\TransformFunctions/arm_dct4_f32.c ****     /* Decrement the loop counter */
 354:Source\TransformFunctions/arm_dct4_f32.c ****     i--;
 113              		.loc 1 354 0 discriminator 1
 114 0088 FB6A     		ldr	r3, [r7, #44]
 115 008a 013B     		sub	r3, r3, #1
 116 008c FB62     		str	r3, [r7, #44]
 355:Source\TransformFunctions/arm_dct4_f32.c ****   } while (i > 0u);
 117              		.loc 1 355 0 discriminator 1
 118 008e FB6A     		ldr	r3, [r7, #44]
 119 0090 002B     		cmp	r3, #0
 120 0092 E9D1     		bne	.L2
 356:Source\TransformFunctions/arm_dct4_f32.c **** 
 357:Source\TransformFunctions/arm_dct4_f32.c ****   /* pbuff initialized to input buffer */
 358:Source\TransformFunctions/arm_dct4_f32.c ****   pbuff = pInlineBuffer;
 121              		.loc 1 358 0
 122 0094 7B68     		ldr	r3, [r7, #4]
 123 0096 3B62     		str	r3, [r7, #32]
 359:Source\TransformFunctions/arm_dct4_f32.c **** 
 360:Source\TransformFunctions/arm_dct4_f32.c ****   /* pS1 initialized to pState */
 361:Source\TransformFunctions/arm_dct4_f32.c ****   pS1 = pState;
 124              		.loc 1 361 0
 125 0098 BB68     		ldr	r3, [r7, #8]
 126 009a BB62     		str	r3, [r7, #40]
 362:Source\TransformFunctions/arm_dct4_f32.c **** 
 363:Source\TransformFunctions/arm_dct4_f32.c ****   /* Initializing the loop counter */
 364:Source\TransformFunctions/arm_dct4_f32.c ****   i = (uint32_t) S->N;
 127              		.loc 1 364 0
 128 009c FB68     		ldr	r3, [r7, #12]
 129 009e 1B88     		ldrh	r3, [r3]
 130 00a0 FB62     		str	r3, [r7, #44]
 131              	.L3:
 365:Source\TransformFunctions/arm_dct4_f32.c **** 
 366:Source\TransformFunctions/arm_dct4_f32.c ****   do
 367:Source\TransformFunctions/arm_dct4_f32.c ****   {
 368:Source\TransformFunctions/arm_dct4_f32.c ****     /* Writing the re-ordered output back to inplace input buffer */
 369:Source\TransformFunctions/arm_dct4_f32.c ****     *pbuff++ = *pS1++;
 132              		.loc 1 369 0 discriminator 1
 133 00a2 3B6A     		ldr	r3, [r7, #32]
 134 00a4 1A1D     		add	r2, r3, #4
 135 00a6 3A62     		str	r2, [r7, #32]
 136 00a8 BA6A     		ldr	r2, [r7, #40]
 137 00aa 111D     		add	r1, r2, #4
 138 00ac B962     		str	r1, [r7, #40]
 139 00ae 1268     		ldr	r2, [r2]
 140 00b0 1A60     		str	r2, [r3]
 370:Source\TransformFunctions/arm_dct4_f32.c **** 
 371:Source\TransformFunctions/arm_dct4_f32.c ****     /* Decrement the loop counter */
 372:Source\TransformFunctions/arm_dct4_f32.c ****     i--;
 141              		.loc 1 372 0 discriminator 1
ARM GAS  C:\Users\fneves\AppData\Local\Temp\ccXYHum2.s 			page 10


 142 00b2 FB6A     		ldr	r3, [r7, #44]
 143 00b4 013B     		sub	r3, r3, #1
 144 00b6 FB62     		str	r3, [r7, #44]
 373:Source\TransformFunctions/arm_dct4_f32.c ****   } while (i > 0u);
 145              		.loc 1 373 0 discriminator 1
 146 00b8 FB6A     		ldr	r3, [r7, #44]
 147 00ba 002B     		cmp	r3, #0
 148 00bc F1D1     		bne	.L3
 374:Source\TransformFunctions/arm_dct4_f32.c **** 
 375:Source\TransformFunctions/arm_dct4_f32.c **** 
 376:Source\TransformFunctions/arm_dct4_f32.c ****   /* ---------------------------------------------------------
 377:Source\TransformFunctions/arm_dct4_f32.c ****    *     Step2: Calculate RFFT for N-point input
 378:Source\TransformFunctions/arm_dct4_f32.c ****    * ---------------------------------------------------------- */
 379:Source\TransformFunctions/arm_dct4_f32.c ****   /* pInlineBuffer is real input of length N , pState is the complex output of length 2N */
 380:Source\TransformFunctions/arm_dct4_f32.c ****   arm_rfft_f32(S->pRfft, pInlineBuffer, pState);
 149              		.loc 1 380 0
 150 00be FB68     		ldr	r3, [r7, #12]
 151 00c0 1969     		ldr	r1, [r3, #16]
 152 00c2 7A68     		ldr	r2, [r7, #4]
 153 00c4 BB68     		ldr	r3, [r7, #8]
 154 00c6 081C     		mov	r0, r1
 155 00c8 111C     		mov	r1, r2
 156 00ca 1A1C     		mov	r2, r3
 157 00cc FFF7FEFF 		bl	arm_rfft_f32
 381:Source\TransformFunctions/arm_dct4_f32.c **** 
 382:Source\TransformFunctions/arm_dct4_f32.c ****         /*----------------------------------------------------------------------
 383:Source\TransformFunctions/arm_dct4_f32.c **** 	 *  Step3: Multiply the FFT output with the weights.
 384:Source\TransformFunctions/arm_dct4_f32.c **** 	 *----------------------------------------------------------------------*/
 385:Source\TransformFunctions/arm_dct4_f32.c ****   arm_cmplx_mult_cmplx_f32(pState, weights, pState, S->N);
 158              		.loc 1 385 0
 159 00d0 FB68     		ldr	r3, [r7, #12]
 160 00d2 1B88     		ldrh	r3, [r3]
 161 00d4 1C1C     		mov	r4, r3
 162 00d6 B968     		ldr	r1, [r7, #8]
 163 00d8 BA69     		ldr	r2, [r7, #24]
 164 00da BB68     		ldr	r3, [r7, #8]
 165 00dc 081C     		mov	r0, r1
 166 00de 111C     		mov	r1, r2
 167 00e0 1A1C     		mov	r2, r3
 168 00e2 231C     		mov	r3, r4
 169 00e4 FFF7FEFF 		bl	arm_cmplx_mult_cmplx_f32
 386:Source\TransformFunctions/arm_dct4_f32.c **** 
 387:Source\TransformFunctions/arm_dct4_f32.c ****   /* ----------- Post-processing ---------- */
 388:Source\TransformFunctions/arm_dct4_f32.c ****   /* DCT-IV can be obtained from DCT-II by the equation,
 389:Source\TransformFunctions/arm_dct4_f32.c ****    *       Y4(k) = Y2(k) - Y4(k-1) and Y4(-1) = Y4(0)
 390:Source\TransformFunctions/arm_dct4_f32.c ****    *       Hence, Y4(0) = Y2(0)/2  */
 391:Source\TransformFunctions/arm_dct4_f32.c ****   /* Getting only real part from the output and Converting to DCT-IV */
 392:Source\TransformFunctions/arm_dct4_f32.c **** 
 393:Source\TransformFunctions/arm_dct4_f32.c ****   /* pbuff initialized to input buffer. */
 394:Source\TransformFunctions/arm_dct4_f32.c ****   pbuff = pInlineBuffer;
 170              		.loc 1 394 0
 171 00e8 7B68     		ldr	r3, [r7, #4]
 172 00ea 3B62     		str	r3, [r7, #32]
 395:Source\TransformFunctions/arm_dct4_f32.c **** 
 396:Source\TransformFunctions/arm_dct4_f32.c ****   /* pS1 initialized to pState */
 397:Source\TransformFunctions/arm_dct4_f32.c ****   pS1 = pState;
 173              		.loc 1 397 0
ARM GAS  C:\Users\fneves\AppData\Local\Temp\ccXYHum2.s 			page 11


 174 00ec BB68     		ldr	r3, [r7, #8]
 175 00ee BB62     		str	r3, [r7, #40]
 398:Source\TransformFunctions/arm_dct4_f32.c **** 
 399:Source\TransformFunctions/arm_dct4_f32.c ****   /* Calculating Y4(0) from Y2(0) using Y4(0) = Y2(0)/2 */
 400:Source\TransformFunctions/arm_dct4_f32.c ****   in = *pS1++ * (float32_t) 0.5;
 176              		.loc 1 400 0
 177 00f0 BB6A     		ldr	r3, [r7, #40]
 178 00f2 1A1D     		add	r2, r3, #4
 179 00f4 BA62     		str	r2, [r7, #40]
 180 00f6 1B68     		ldr	r3, [r3]
 181 00f8 181C     		add	r0, r3, #0
 182 00fa FC21     		mov	r1, #252
 183 00fc 8905     		lsl	r1, r1, #22
 184 00fe FFF7FEFF 		bl	__aeabi_fmul
 185 0102 031C     		add	r3, r0, #0
 186 0104 FB61     		str	r3, [r7, #28]
 401:Source\TransformFunctions/arm_dct4_f32.c ****   /* input buffer acts as inplace, so output values are stored in the input itself. */
 402:Source\TransformFunctions/arm_dct4_f32.c ****   *pbuff++ = in;
 187              		.loc 1 402 0
 188 0106 3B6A     		ldr	r3, [r7, #32]
 189 0108 1A1D     		add	r2, r3, #4
 190 010a 3A62     		str	r2, [r7, #32]
 191 010c FA69     		ldr	r2, [r7, #28]
 192 010e 1A60     		str	r2, [r3]
 403:Source\TransformFunctions/arm_dct4_f32.c **** 
 404:Source\TransformFunctions/arm_dct4_f32.c ****   /* pState pointer is incremented twice as the real values are located alternatively in the array 
 405:Source\TransformFunctions/arm_dct4_f32.c ****   pS1++;
 193              		.loc 1 405 0
 194 0110 BB6A     		ldr	r3, [r7, #40]
 195 0112 0433     		add	r3, r3, #4
 196 0114 BB62     		str	r3, [r7, #40]
 406:Source\TransformFunctions/arm_dct4_f32.c **** 
 407:Source\TransformFunctions/arm_dct4_f32.c ****   /* Initializing the loop counter */
 408:Source\TransformFunctions/arm_dct4_f32.c ****   i = ((uint32_t) S->N - 1u);
 197              		.loc 1 408 0
 198 0116 FB68     		ldr	r3, [r7, #12]
 199 0118 1B88     		ldrh	r3, [r3]
 200 011a 013B     		sub	r3, r3, #1
 201 011c FB62     		str	r3, [r7, #44]
 202              	.L4:
 409:Source\TransformFunctions/arm_dct4_f32.c **** 
 410:Source\TransformFunctions/arm_dct4_f32.c ****   do
 411:Source\TransformFunctions/arm_dct4_f32.c ****   {
 412:Source\TransformFunctions/arm_dct4_f32.c ****     /* Calculating Y4(1) to Y4(N-1) from Y2 using equation Y4(k) = Y2(k) - Y4(k-1) */
 413:Source\TransformFunctions/arm_dct4_f32.c ****     /* pState pointer (pS1) is incremented twice as the real values are located alternatively in th
 414:Source\TransformFunctions/arm_dct4_f32.c ****     in = *pS1++ - in;
 203              		.loc 1 414 0 discriminator 1
 204 011e BB6A     		ldr	r3, [r7, #40]
 205 0120 1A1D     		add	r2, r3, #4
 206 0122 BA62     		str	r2, [r7, #40]
 207 0124 1B68     		ldr	r3, [r3]
 208 0126 181C     		add	r0, r3, #0
 209 0128 F969     		ldr	r1, [r7, #28]
 210 012a FFF7FEFF 		bl	__aeabi_fsub
 211 012e 031C     		add	r3, r0, #0
 212 0130 FB61     		str	r3, [r7, #28]
 415:Source\TransformFunctions/arm_dct4_f32.c ****     *pbuff++ = in;
ARM GAS  C:\Users\fneves\AppData\Local\Temp\ccXYHum2.s 			page 12


 213              		.loc 1 415 0 discriminator 1
 214 0132 3B6A     		ldr	r3, [r7, #32]
 215 0134 1A1D     		add	r2, r3, #4
 216 0136 3A62     		str	r2, [r7, #32]
 217 0138 FA69     		ldr	r2, [r7, #28]
 218 013a 1A60     		str	r2, [r3]
 416:Source\TransformFunctions/arm_dct4_f32.c ****     /* points to the next real value */
 417:Source\TransformFunctions/arm_dct4_f32.c ****     pS1++;
 219              		.loc 1 417 0 discriminator 1
 220 013c BB6A     		ldr	r3, [r7, #40]
 221 013e 0433     		add	r3, r3, #4
 222 0140 BB62     		str	r3, [r7, #40]
 418:Source\TransformFunctions/arm_dct4_f32.c **** 
 419:Source\TransformFunctions/arm_dct4_f32.c **** 
 420:Source\TransformFunctions/arm_dct4_f32.c ****     /* Decrement the loop counter */
 421:Source\TransformFunctions/arm_dct4_f32.c ****     i--;
 223              		.loc 1 421 0 discriminator 1
 224 0142 FB6A     		ldr	r3, [r7, #44]
 225 0144 013B     		sub	r3, r3, #1
 226 0146 FB62     		str	r3, [r7, #44]
 422:Source\TransformFunctions/arm_dct4_f32.c ****   } while (i > 0u);
 227              		.loc 1 422 0 discriminator 1
 228 0148 FB6A     		ldr	r3, [r7, #44]
 229 014a 002B     		cmp	r3, #0
 230 014c E7D1     		bne	.L4
 423:Source\TransformFunctions/arm_dct4_f32.c **** 
 424:Source\TransformFunctions/arm_dct4_f32.c **** 
 425:Source\TransformFunctions/arm_dct4_f32.c ****         /*------------ Normalizing the output by multiplying with the normalizing factor ----------
 426:Source\TransformFunctions/arm_dct4_f32.c **** 
 427:Source\TransformFunctions/arm_dct4_f32.c ****   /* Initializing the loop counter */
 428:Source\TransformFunctions/arm_dct4_f32.c ****   i = (uint32_t) S->N;
 231              		.loc 1 428 0
 232 014e FB68     		ldr	r3, [r7, #12]
 233 0150 1B88     		ldrh	r3, [r3]
 234 0152 FB62     		str	r3, [r7, #44]
 429:Source\TransformFunctions/arm_dct4_f32.c **** 
 430:Source\TransformFunctions/arm_dct4_f32.c ****   /* pbuff initialized to the pInlineBuffer(now contains the output values) */
 431:Source\TransformFunctions/arm_dct4_f32.c ****   pbuff = pInlineBuffer;
 235              		.loc 1 431 0
 236 0154 7B68     		ldr	r3, [r7, #4]
 237 0156 3B62     		str	r3, [r7, #32]
 238              	.L5:
 432:Source\TransformFunctions/arm_dct4_f32.c **** 
 433:Source\TransformFunctions/arm_dct4_f32.c ****   do
 434:Source\TransformFunctions/arm_dct4_f32.c ****   {
 435:Source\TransformFunctions/arm_dct4_f32.c ****     /* Multiplying pInlineBuffer with the normalizing factor sqrt(2/N) */
 436:Source\TransformFunctions/arm_dct4_f32.c ****     in = *pbuff;
 239              		.loc 1 436 0 discriminator 1
 240 0158 3B6A     		ldr	r3, [r7, #32]
 241 015a 1B68     		ldr	r3, [r3]
 242 015c FB61     		str	r3, [r7, #28]
 437:Source\TransformFunctions/arm_dct4_f32.c ****     *pbuff++ = in * S->normalize;
 243              		.loc 1 437 0 discriminator 1
 244 015e 3C6A     		ldr	r4, [r7, #32]
 245 0160 231D     		add	r3, r4, #4
 246 0162 3B62     		str	r3, [r7, #32]
 247 0164 FB68     		ldr	r3, [r7, #12]
ARM GAS  C:\Users\fneves\AppData\Local\Temp\ccXYHum2.s 			page 13


 248 0166 5B68     		ldr	r3, [r3, #4]
 249 0168 181C     		add	r0, r3, #0
 250 016a F969     		ldr	r1, [r7, #28]
 251 016c FFF7FEFF 		bl	__aeabi_fmul
 252 0170 031C     		add	r3, r0, #0
 253 0172 2360     		str	r3, [r4]
 438:Source\TransformFunctions/arm_dct4_f32.c **** 
 439:Source\TransformFunctions/arm_dct4_f32.c ****     /* Decrement the loop counter */
 440:Source\TransformFunctions/arm_dct4_f32.c ****     i--;
 254              		.loc 1 440 0 discriminator 1
 255 0174 FB6A     		ldr	r3, [r7, #44]
 256 0176 013B     		sub	r3, r3, #1
 257 0178 FB62     		str	r3, [r7, #44]
 441:Source\TransformFunctions/arm_dct4_f32.c ****   } while (i > 0u);
 258              		.loc 1 441 0 discriminator 1
 259 017a FB6A     		ldr	r3, [r7, #44]
 260 017c 002B     		cmp	r3, #0
 261 017e EBD1     		bne	.L5
 442:Source\TransformFunctions/arm_dct4_f32.c **** 
 443:Source\TransformFunctions/arm_dct4_f32.c **** #endif /* #if defined (ARM_MATH_DSP) */
 444:Source\TransformFunctions/arm_dct4_f32.c **** 
 445:Source\TransformFunctions/arm_dct4_f32.c **** }
 262              		.loc 1 445 0
 263 0180 BD46     		mov	sp, r7
 264 0182 0DB0     		add	sp, sp, #52
 265              		@ sp needed
 266 0184 90BD     		pop	{r4, r7, pc}
 267              	.L7:
 268 0186 C046     		.align	2
 269              	.L6:
 270 0188 FFFFFF3F 		.word	1073741823
 271              		.cfi_endproc
 272              	.LFE82:
 273              		.size	arm_dct4_f32, .-arm_dct4_f32
 274              		.text
 275              	.Letext0:
 276              		.file 2 "c:\\program files (x86)\\cypress\\psoc creator\\4.0\\psoc creator\\import\\gnu\\arm\\4.9.
 277              		.file 3 "c:\\program files (x86)\\cypress\\psoc creator\\4.0\\psoc creator\\import\\gnu\\arm\\4.9.
 278              		.file 4 ".\\Include/arm_math.h"