ARM GAS  C:\Users\fneves\AppData\Local\Temp\ccumdHtt.s 			page 1


   1              		.cpu cortex-m0plus
   2              		.fpu softvfp
   3              		.eabi_attribute 20, 1
   4              		.eabi_attribute 21, 1
   5              		.eabi_attribute 23, 3
   6              		.eabi_attribute 24, 1
   7              		.eabi_attribute 25, 1
   8              		.eabi_attribute 26, 1
   9              		.eabi_attribute 30, 6
  10              		.eabi_attribute 34, 0
  11              		.eabi_attribute 18, 4
  12              		.code	16
  13              		.file	"arm_cfft_radix4_init_f32.c"
  14              		.text
  15              	.Ltext0:
  16              		.cfi_sections	.debug_frame
  17              		.section	.text.arm_cfft_radix4_init_f32,"ax",%progbits
  18              		.align	2
  19              		.global	arm_cfft_radix4_init_f32
  20              		.code	16
  21              		.thumb_func
  22              		.type	arm_cfft_radix4_init_f32, %function
  23              	arm_cfft_radix4_init_f32:
  24              	.LFB82:
  25              		.file 1 "Source\\TransformFunctions\\arm_cfft_radix4_init_f32.c"
   1:Source\TransformFunctions/arm_cfft_radix4_init_f32.c **** /* ----------------------------------------------------------------------
   2:Source\TransformFunctions/arm_cfft_radix4_init_f32.c ****  * Project:      CMSIS DSP Library
   3:Source\TransformFunctions/arm_cfft_radix4_init_f32.c ****  * Title:        arm_cfft_radix4_init_f32.c
   4:Source\TransformFunctions/arm_cfft_radix4_init_f32.c ****  * Description:  Radix-4 Decimation in Frequency Floating-point CFFT & CIFFT Initialization functio
   5:Source\TransformFunctions/arm_cfft_radix4_init_f32.c ****  *
   6:Source\TransformFunctions/arm_cfft_radix4_init_f32.c ****  * $Date:        27. January 2017
   7:Source\TransformFunctions/arm_cfft_radix4_init_f32.c ****  * $Revision:    V.1.5.1
   8:Source\TransformFunctions/arm_cfft_radix4_init_f32.c ****  *
   9:Source\TransformFunctions/arm_cfft_radix4_init_f32.c ****  * Target Processor: Cortex-M cores
  10:Source\TransformFunctions/arm_cfft_radix4_init_f32.c ****  * -------------------------------------------------------------------- */
  11:Source\TransformFunctions/arm_cfft_radix4_init_f32.c **** /*
  12:Source\TransformFunctions/arm_cfft_radix4_init_f32.c ****  * Copyright (C) 2010-2017 ARM Limited or its affiliates. All rights reserved.
  13:Source\TransformFunctions/arm_cfft_radix4_init_f32.c ****  *
  14:Source\TransformFunctions/arm_cfft_radix4_init_f32.c ****  * SPDX-License-Identifier: Apache-2.0
  15:Source\TransformFunctions/arm_cfft_radix4_init_f32.c ****  *
  16:Source\TransformFunctions/arm_cfft_radix4_init_f32.c ****  * Licensed under the Apache License, Version 2.0 (the License); you may
  17:Source\TransformFunctions/arm_cfft_radix4_init_f32.c ****  * not use this file except in compliance with the License.
  18:Source\TransformFunctions/arm_cfft_radix4_init_f32.c ****  * You may obtain a copy of the License at
  19:Source\TransformFunctions/arm_cfft_radix4_init_f32.c ****  *
  20:Source\TransformFunctions/arm_cfft_radix4_init_f32.c ****  * www.apache.org/licenses/LICENSE-2.0
  21:Source\TransformFunctions/arm_cfft_radix4_init_f32.c ****  *
  22:Source\TransformFunctions/arm_cfft_radix4_init_f32.c ****  * Unless required by applicable law or agreed to in writing, software
  23:Source\TransformFunctions/arm_cfft_radix4_init_f32.c ****  * distributed under the License is distributed on an AS IS BASIS, WITHOUT
  24:Source\TransformFunctions/arm_cfft_radix4_init_f32.c ****  * WARRANTIES OR CONDITIONS OF ANY KIND, either express or implied.
  25:Source\TransformFunctions/arm_cfft_radix4_init_f32.c ****  * See the License for the specific language governing permissions and
  26:Source\TransformFunctions/arm_cfft_radix4_init_f32.c ****  * limitations under the License.
  27:Source\TransformFunctions/arm_cfft_radix4_init_f32.c ****  */
  28:Source\TransformFunctions/arm_cfft_radix4_init_f32.c **** 
  29:Source\TransformFunctions/arm_cfft_radix4_init_f32.c **** #include "arm_math.h"
  30:Source\TransformFunctions/arm_cfft_radix4_init_f32.c **** #include "arm_common_tables.h"
  31:Source\TransformFunctions/arm_cfft_radix4_init_f32.c **** 
  32:Source\TransformFunctions/arm_cfft_radix4_init_f32.c **** /**
ARM GAS  C:\Users\fneves\AppData\Local\Temp\ccumdHtt.s 			page 2


  33:Source\TransformFunctions/arm_cfft_radix4_init_f32.c ****  * @ingroup groupTransforms
  34:Source\TransformFunctions/arm_cfft_radix4_init_f32.c ****  */
  35:Source\TransformFunctions/arm_cfft_radix4_init_f32.c **** 
  36:Source\TransformFunctions/arm_cfft_radix4_init_f32.c **** /**
  37:Source\TransformFunctions/arm_cfft_radix4_init_f32.c ****  * @addtogroup ComplexFFT
  38:Source\TransformFunctions/arm_cfft_radix4_init_f32.c ****  * @{
  39:Source\TransformFunctions/arm_cfft_radix4_init_f32.c ****  */
  40:Source\TransformFunctions/arm_cfft_radix4_init_f32.c **** 
  41:Source\TransformFunctions/arm_cfft_radix4_init_f32.c **** /**
  42:Source\TransformFunctions/arm_cfft_radix4_init_f32.c **** * @brief  Initialization function for the floating-point CFFT/CIFFT.
  43:Source\TransformFunctions/arm_cfft_radix4_init_f32.c **** * @deprecated Do not use this function.  It has been superceded by \ref arm_cfft_f32 and will be re
  44:Source\TransformFunctions/arm_cfft_radix4_init_f32.c **** * in the future.
  45:Source\TransformFunctions/arm_cfft_radix4_init_f32.c **** * @param[in,out] *S             points to an instance of the floating-point CFFT/CIFFT structure.
  46:Source\TransformFunctions/arm_cfft_radix4_init_f32.c **** * @param[in]     fftLen         length of the FFT.
  47:Source\TransformFunctions/arm_cfft_radix4_init_f32.c **** * @param[in]     ifftFlag       flag that selects forward (ifftFlag=0) or inverse (ifftFlag=1) tran
  48:Source\TransformFunctions/arm_cfft_radix4_init_f32.c **** * @param[in]     bitReverseFlag flag that enables (bitReverseFlag=1) or disables (bitReverseFlag=0)
  49:Source\TransformFunctions/arm_cfft_radix4_init_f32.c **** * @return        The function returns ARM_MATH_SUCCESS if initialization is successful or ARM_MATH_
  50:Source\TransformFunctions/arm_cfft_radix4_init_f32.c **** *
  51:Source\TransformFunctions/arm_cfft_radix4_init_f32.c **** * \par Description:
  52:Source\TransformFunctions/arm_cfft_radix4_init_f32.c **** * \par
  53:Source\TransformFunctions/arm_cfft_radix4_init_f32.c **** * The parameter <code>ifftFlag</code> controls whether a forward or inverse transform is computed.
  54:Source\TransformFunctions/arm_cfft_radix4_init_f32.c **** * Set(=1) ifftFlag for calculation of CIFFT otherwise  CFFT is calculated
  55:Source\TransformFunctions/arm_cfft_radix4_init_f32.c **** * \par
  56:Source\TransformFunctions/arm_cfft_radix4_init_f32.c **** * The parameter <code>bitReverseFlag</code> controls whether output is in normal order or bit rever
  57:Source\TransformFunctions/arm_cfft_radix4_init_f32.c **** * Set(=1) bitReverseFlag for output to be in normal order otherwise output is in bit reversed order
  58:Source\TransformFunctions/arm_cfft_radix4_init_f32.c **** * \par
  59:Source\TransformFunctions/arm_cfft_radix4_init_f32.c **** * The parameter <code>fftLen</code>	Specifies length of CFFT/CIFFT process. Supported FFT Lengths a
  60:Source\TransformFunctions/arm_cfft_radix4_init_f32.c **** * \par
  61:Source\TransformFunctions/arm_cfft_radix4_init_f32.c **** * This Function also initializes Twiddle factor table pointer and Bit reversal table pointer.
  62:Source\TransformFunctions/arm_cfft_radix4_init_f32.c **** */
  63:Source\TransformFunctions/arm_cfft_radix4_init_f32.c **** 
  64:Source\TransformFunctions/arm_cfft_radix4_init_f32.c **** arm_status arm_cfft_radix4_init_f32(
  65:Source\TransformFunctions/arm_cfft_radix4_init_f32.c ****   arm_cfft_radix4_instance_f32 * S,
  66:Source\TransformFunctions/arm_cfft_radix4_init_f32.c ****   uint16_t fftLen,
  67:Source\TransformFunctions/arm_cfft_radix4_init_f32.c ****   uint8_t ifftFlag,
  68:Source\TransformFunctions/arm_cfft_radix4_init_f32.c ****   uint8_t bitReverseFlag)
  69:Source\TransformFunctions/arm_cfft_radix4_init_f32.c **** {
  26              		.loc 1 69 0
  27              		.cfi_startproc
  28 0000 90B5     		push	{r4, r7, lr}
  29              		.cfi_def_cfa_offset 12
  30              		.cfi_offset 4, -12
  31              		.cfi_offset 7, -8
  32              		.cfi_offset 14, -4
  33 0002 85B0     		sub	sp, sp, #20
  34              		.cfi_def_cfa_offset 32
  35 0004 00AF     		add	r7, sp, #0
  36              		.cfi_def_cfa_register 7
  37 0006 7860     		str	r0, [r7, #4]
  38 0008 0C1C     		mov	r4, r1
  39 000a 101C     		mov	r0, r2
  40 000c 191C     		mov	r1, r3
  41 000e BB1C     		add	r3, r7, #2
  42 0010 221C     		add	r2, r4, #0
  43 0012 1A80     		strh	r2, [r3]
  44 0014 7B1C     		add	r3, r7, #1
  45 0016 021C     		add	r2, r0, #0
ARM GAS  C:\Users\fneves\AppData\Local\Temp\ccumdHtt.s 			page 3


  46 0018 1A70     		strb	r2, [r3]
  47 001a 3B1C     		mov	r3, r7
  48 001c 0A1C     		add	r2, r1, #0
  49 001e 1A70     		strb	r2, [r3]
  70:Source\TransformFunctions/arm_cfft_radix4_init_f32.c ****   /*  Initialise the default arm status */
  71:Source\TransformFunctions/arm_cfft_radix4_init_f32.c ****   arm_status status = ARM_MATH_SUCCESS;
  50              		.loc 1 71 0
  51 0020 0F23     		mov	r3, #15
  52 0022 FB18     		add	r3, r7, r3
  53 0024 0022     		mov	r2, #0
  54 0026 1A70     		strb	r2, [r3]
  72:Source\TransformFunctions/arm_cfft_radix4_init_f32.c **** 
  73:Source\TransformFunctions/arm_cfft_radix4_init_f32.c ****   /*  Initialise the FFT length */
  74:Source\TransformFunctions/arm_cfft_radix4_init_f32.c ****   S->fftLen = fftLen;
  55              		.loc 1 74 0
  56 0028 7B68     		ldr	r3, [r7, #4]
  57 002a BA1C     		add	r2, r7, #2
  58 002c 1288     		ldrh	r2, [r2]
  59 002e 1A80     		strh	r2, [r3]
  75:Source\TransformFunctions/arm_cfft_radix4_init_f32.c **** 
  76:Source\TransformFunctions/arm_cfft_radix4_init_f32.c ****   /*  Initialise the Twiddle coefficient pointer */
  77:Source\TransformFunctions/arm_cfft_radix4_init_f32.c ****   S->pTwiddle = (float32_t *) twiddleCoef;
  60              		.loc 1 77 0
  61 0030 7B68     		ldr	r3, [r7, #4]
  62 0032 3B4A     		ldr	r2, .L11
  63 0034 5A60     		str	r2, [r3, #4]
  78:Source\TransformFunctions/arm_cfft_radix4_init_f32.c **** 
  79:Source\TransformFunctions/arm_cfft_radix4_init_f32.c ****   /*  Initialise the Flag for selection of CFFT or CIFFT */
  80:Source\TransformFunctions/arm_cfft_radix4_init_f32.c ****   S->ifftFlag = ifftFlag;
  64              		.loc 1 80 0
  65 0036 7B68     		ldr	r3, [r7, #4]
  66 0038 7A1C     		add	r2, r7, #1
  67 003a 1278     		ldrb	r2, [r2]
  68 003c 9A70     		strb	r2, [r3, #2]
  81:Source\TransformFunctions/arm_cfft_radix4_init_f32.c **** 
  82:Source\TransformFunctions/arm_cfft_radix4_init_f32.c ****   /*  Initialise the Flag for calculation Bit reversal or not */
  83:Source\TransformFunctions/arm_cfft_radix4_init_f32.c ****   S->bitReverseFlag = bitReverseFlag;
  69              		.loc 1 83 0
  70 003e 7B68     		ldr	r3, [r7, #4]
  71 0040 3A1C     		mov	r2, r7
  72 0042 1278     		ldrb	r2, [r2]
  73 0044 DA70     		strb	r2, [r3, #3]
  84:Source\TransformFunctions/arm_cfft_radix4_init_f32.c **** 
  85:Source\TransformFunctions/arm_cfft_radix4_init_f32.c ****   /*  Initializations of structure parameters depending on the FFT length */
  86:Source\TransformFunctions/arm_cfft_radix4_init_f32.c ****   switch (S->fftLen)
  74              		.loc 1 86 0
  75 0046 7B68     		ldr	r3, [r7, #4]
  76 0048 1B88     		ldrh	r3, [r3]
  77 004a 8022     		mov	r2, #128
  78 004c 5200     		lsl	r2, r2, #1
  79 004e 9342     		cmp	r3, r2
  80 0050 2CD0     		beq	.L3
  81 0052 8022     		mov	r2, #128
  82 0054 5200     		lsl	r2, r2, #1
  83 0056 9342     		cmp	r3, r2
  84 0058 04DC     		bgt	.L4
  85 005a 102B     		cmp	r3, #16
ARM GAS  C:\Users\fneves\AppData\Local\Temp\ccumdHtt.s 			page 4


  86 005c 42D0     		beq	.L5
  87 005e 402B     		cmp	r3, #64
  88 0060 32D0     		beq	.L6
  89 0062 4FE0     		b	.L2
  90              	.L4:
  91 0064 8022     		mov	r2, #128
  92 0066 D200     		lsl	r2, r2, #3
  93 0068 9342     		cmp	r3, r2
  94 006a 11D0     		beq	.L7
  95 006c 8022     		mov	r2, #128
  96 006e 5201     		lsl	r2, r2, #5
  97 0070 9342     		cmp	r3, r2
  98 0072 47D1     		bne	.L2
  87:Source\TransformFunctions/arm_cfft_radix4_init_f32.c ****   {
  88:Source\TransformFunctions/arm_cfft_radix4_init_f32.c **** 
  89:Source\TransformFunctions/arm_cfft_radix4_init_f32.c ****   case 4096u:
  90:Source\TransformFunctions/arm_cfft_radix4_init_f32.c ****     /*  Initializations of structure parameters for 4096 point FFT */
  91:Source\TransformFunctions/arm_cfft_radix4_init_f32.c **** 
  92:Source\TransformFunctions/arm_cfft_radix4_init_f32.c ****     /*  Initialise the twiddle coef modifier value */
  93:Source\TransformFunctions/arm_cfft_radix4_init_f32.c ****     S->twidCoefModifier = 1u;
  99              		.loc 1 93 0
 100 0074 7B68     		ldr	r3, [r7, #4]
 101 0076 0122     		mov	r2, #1
 102 0078 9A81     		strh	r2, [r3, #12]
  94:Source\TransformFunctions/arm_cfft_radix4_init_f32.c ****     /*  Initialise the bit reversal table modifier */
  95:Source\TransformFunctions/arm_cfft_radix4_init_f32.c ****     S->bitRevFactor = 1u;
 103              		.loc 1 95 0
 104 007a 7B68     		ldr	r3, [r7, #4]
 105 007c 0122     		mov	r2, #1
 106 007e DA81     		strh	r2, [r3, #14]
  96:Source\TransformFunctions/arm_cfft_radix4_init_f32.c ****     /*  Initialise the bit reversal table pointer */
  97:Source\TransformFunctions/arm_cfft_radix4_init_f32.c ****     S->pBitRevTable = (uint16_t *) armBitRevTable;
 107              		.loc 1 97 0
 108 0080 7B68     		ldr	r3, [r7, #4]
 109 0082 284A     		ldr	r2, .L11+4
 110 0084 9A60     		str	r2, [r3, #8]
  98:Source\TransformFunctions/arm_cfft_radix4_init_f32.c ****     /*  Initialise the 1/fftLen Value */
  99:Source\TransformFunctions/arm_cfft_radix4_init_f32.c ****     S->onebyfftLen = 0.000244140625;
 111              		.loc 1 99 0
 112 0086 7B68     		ldr	r3, [r7, #4]
 113 0088 E622     		mov	r2, #230
 114 008a 9205     		lsl	r2, r2, #22
 115 008c 1A61     		str	r2, [r3, #16]
 100:Source\TransformFunctions/arm_cfft_radix4_init_f32.c ****     break;
 116              		.loc 1 100 0
 117 008e 3EE0     		b	.L9
 118              	.L7:
 101:Source\TransformFunctions/arm_cfft_radix4_init_f32.c **** 
 102:Source\TransformFunctions/arm_cfft_radix4_init_f32.c ****   case 1024u:
 103:Source\TransformFunctions/arm_cfft_radix4_init_f32.c ****     /*  Initializations of structure parameters for 1024 point FFT */
 104:Source\TransformFunctions/arm_cfft_radix4_init_f32.c **** 
 105:Source\TransformFunctions/arm_cfft_radix4_init_f32.c ****     /*  Initialise the twiddle coef modifier value */
 106:Source\TransformFunctions/arm_cfft_radix4_init_f32.c ****     S->twidCoefModifier = 4u;
 119              		.loc 1 106 0
 120 0090 7B68     		ldr	r3, [r7, #4]
 121 0092 0422     		mov	r2, #4
 122 0094 9A81     		strh	r2, [r3, #12]
ARM GAS  C:\Users\fneves\AppData\Local\Temp\ccumdHtt.s 			page 5


 107:Source\TransformFunctions/arm_cfft_radix4_init_f32.c ****     /*  Initialise the bit reversal table modifier */
 108:Source\TransformFunctions/arm_cfft_radix4_init_f32.c ****     S->bitRevFactor = 4u;
 123              		.loc 1 108 0
 124 0096 7B68     		ldr	r3, [r7, #4]
 125 0098 0422     		mov	r2, #4
 126 009a DA81     		strh	r2, [r3, #14]
 109:Source\TransformFunctions/arm_cfft_radix4_init_f32.c ****     /*  Initialise the bit reversal table pointer */
 110:Source\TransformFunctions/arm_cfft_radix4_init_f32.c ****     S->pBitRevTable = (uint16_t *) & armBitRevTable[3];
 127              		.loc 1 110 0
 128 009c 7B68     		ldr	r3, [r7, #4]
 129 009e 224A     		ldr	r2, .L11+8
 130 00a0 9A60     		str	r2, [r3, #8]
 111:Source\TransformFunctions/arm_cfft_radix4_init_f32.c ****     /*  Initialise the 1/fftLen Value */
 112:Source\TransformFunctions/arm_cfft_radix4_init_f32.c ****     S->onebyfftLen = 0.0009765625f;
 131              		.loc 1 112 0
 132 00a2 7B68     		ldr	r3, [r7, #4]
 133 00a4 EA22     		mov	r2, #234
 134 00a6 9205     		lsl	r2, r2, #22
 135 00a8 1A61     		str	r2, [r3, #16]
 113:Source\TransformFunctions/arm_cfft_radix4_init_f32.c ****     break;
 136              		.loc 1 113 0
 137 00aa 30E0     		b	.L9
 138              	.L3:
 114:Source\TransformFunctions/arm_cfft_radix4_init_f32.c **** 
 115:Source\TransformFunctions/arm_cfft_radix4_init_f32.c **** 
 116:Source\TransformFunctions/arm_cfft_radix4_init_f32.c ****   case 256u:
 117:Source\TransformFunctions/arm_cfft_radix4_init_f32.c ****     /*  Initializations of structure parameters for 256 point FFT */
 118:Source\TransformFunctions/arm_cfft_radix4_init_f32.c ****     S->twidCoefModifier = 16u;
 139              		.loc 1 118 0
 140 00ac 7B68     		ldr	r3, [r7, #4]
 141 00ae 1022     		mov	r2, #16
 142 00b0 9A81     		strh	r2, [r3, #12]
 119:Source\TransformFunctions/arm_cfft_radix4_init_f32.c ****     S->bitRevFactor = 16u;
 143              		.loc 1 119 0
 144 00b2 7B68     		ldr	r3, [r7, #4]
 145 00b4 1022     		mov	r2, #16
 146 00b6 DA81     		strh	r2, [r3, #14]
 120:Source\TransformFunctions/arm_cfft_radix4_init_f32.c ****     S->pBitRevTable = (uint16_t *) & armBitRevTable[15];
 147              		.loc 1 120 0
 148 00b8 7B68     		ldr	r3, [r7, #4]
 149 00ba 1C4A     		ldr	r2, .L11+12
 150 00bc 9A60     		str	r2, [r3, #8]
 121:Source\TransformFunctions/arm_cfft_radix4_init_f32.c ****     S->onebyfftLen = 0.00390625f;
 151              		.loc 1 121 0
 152 00be 7B68     		ldr	r3, [r7, #4]
 153 00c0 EE22     		mov	r2, #238
 154 00c2 9205     		lsl	r2, r2, #22
 155 00c4 1A61     		str	r2, [r3, #16]
 122:Source\TransformFunctions/arm_cfft_radix4_init_f32.c ****     break;
 156              		.loc 1 122 0
 157 00c6 22E0     		b	.L9
 158              	.L6:
 123:Source\TransformFunctions/arm_cfft_radix4_init_f32.c **** 
 124:Source\TransformFunctions/arm_cfft_radix4_init_f32.c ****   case 64u:
 125:Source\TransformFunctions/arm_cfft_radix4_init_f32.c ****     /*  Initializations of structure parameters for 64 point FFT */
 126:Source\TransformFunctions/arm_cfft_radix4_init_f32.c ****     S->twidCoefModifier = 64u;
 159              		.loc 1 126 0
ARM GAS  C:\Users\fneves\AppData\Local\Temp\ccumdHtt.s 			page 6


 160 00c8 7B68     		ldr	r3, [r7, #4]
 161 00ca 4022     		mov	r2, #64
 162 00cc 9A81     		strh	r2, [r3, #12]
 127:Source\TransformFunctions/arm_cfft_radix4_init_f32.c ****     S->bitRevFactor = 64u;
 163              		.loc 1 127 0
 164 00ce 7B68     		ldr	r3, [r7, #4]
 165 00d0 4022     		mov	r2, #64
 166 00d2 DA81     		strh	r2, [r3, #14]
 128:Source\TransformFunctions/arm_cfft_radix4_init_f32.c ****     S->pBitRevTable = (uint16_t *) & armBitRevTable[63];
 167              		.loc 1 128 0
 168 00d4 7B68     		ldr	r3, [r7, #4]
 169 00d6 164A     		ldr	r2, .L11+16
 170 00d8 9A60     		str	r2, [r3, #8]
 129:Source\TransformFunctions/arm_cfft_radix4_init_f32.c ****     S->onebyfftLen = 0.015625f;
 171              		.loc 1 129 0
 172 00da 7B68     		ldr	r3, [r7, #4]
 173 00dc F222     		mov	r2, #242
 174 00de 9205     		lsl	r2, r2, #22
 175 00e0 1A61     		str	r2, [r3, #16]
 130:Source\TransformFunctions/arm_cfft_radix4_init_f32.c ****     break;
 176              		.loc 1 130 0
 177 00e2 14E0     		b	.L9
 178              	.L5:
 131:Source\TransformFunctions/arm_cfft_radix4_init_f32.c **** 
 132:Source\TransformFunctions/arm_cfft_radix4_init_f32.c ****   case 16u:
 133:Source\TransformFunctions/arm_cfft_radix4_init_f32.c ****     /*  Initializations of structure parameters for 16 point FFT */
 134:Source\TransformFunctions/arm_cfft_radix4_init_f32.c ****     S->twidCoefModifier = 256u;
 179              		.loc 1 134 0
 180 00e4 7B68     		ldr	r3, [r7, #4]
 181 00e6 8022     		mov	r2, #128
 182 00e8 5200     		lsl	r2, r2, #1
 183 00ea 9A81     		strh	r2, [r3, #12]
 135:Source\TransformFunctions/arm_cfft_radix4_init_f32.c ****     S->bitRevFactor = 256u;
 184              		.loc 1 135 0
 185 00ec 7B68     		ldr	r3, [r7, #4]
 186 00ee 8022     		mov	r2, #128
 187 00f0 5200     		lsl	r2, r2, #1
 188 00f2 DA81     		strh	r2, [r3, #14]
 136:Source\TransformFunctions/arm_cfft_radix4_init_f32.c ****     S->pBitRevTable = (uint16_t *) & armBitRevTable[255];
 189              		.loc 1 136 0
 190 00f4 7B68     		ldr	r3, [r7, #4]
 191 00f6 0F4A     		ldr	r2, .L11+20
 192 00f8 9A60     		str	r2, [r3, #8]
 137:Source\TransformFunctions/arm_cfft_radix4_init_f32.c ****     S->onebyfftLen = 0.0625f;
 193              		.loc 1 137 0
 194 00fa 7B68     		ldr	r3, [r7, #4]
 195 00fc F622     		mov	r2, #246
 196 00fe 9205     		lsl	r2, r2, #22
 197 0100 1A61     		str	r2, [r3, #16]
 138:Source\TransformFunctions/arm_cfft_radix4_init_f32.c ****     break;
 198              		.loc 1 138 0
 199 0102 04E0     		b	.L9
 200              	.L2:
 139:Source\TransformFunctions/arm_cfft_radix4_init_f32.c **** 
 140:Source\TransformFunctions/arm_cfft_radix4_init_f32.c **** 
 141:Source\TransformFunctions/arm_cfft_radix4_init_f32.c ****   default:
 142:Source\TransformFunctions/arm_cfft_radix4_init_f32.c ****     /*  Reporting argument error if fftSize is not valid value */
ARM GAS  C:\Users\fneves\AppData\Local\Temp\ccumdHtt.s 			page 7


 143:Source\TransformFunctions/arm_cfft_radix4_init_f32.c ****     status = ARM_MATH_ARGUMENT_ERROR;
 201              		.loc 1 143 0
 202 0104 0F23     		mov	r3, #15
 203 0106 FB18     		add	r3, r7, r3
 204 0108 FF22     		mov	r2, #255
 205 010a 1A70     		strb	r2, [r3]
 144:Source\TransformFunctions/arm_cfft_radix4_init_f32.c ****     break;
 206              		.loc 1 144 0
 207 010c C046     		mov	r8, r8
 208              	.L9:
 145:Source\TransformFunctions/arm_cfft_radix4_init_f32.c ****   }
 146:Source\TransformFunctions/arm_cfft_radix4_init_f32.c **** 
 147:Source\TransformFunctions/arm_cfft_radix4_init_f32.c ****   return (status);
 209              		.loc 1 147 0
 210 010e 0F23     		mov	r3, #15
 211 0110 FB18     		add	r3, r7, r3
 212 0112 1B78     		ldrb	r3, [r3]
 213 0114 5BB2     		sxtb	r3, r3
 148:Source\TransformFunctions/arm_cfft_radix4_init_f32.c **** }
 214              		.loc 1 148 0
 215 0116 181C     		mov	r0, r3
 216 0118 BD46     		mov	sp, r7
 217 011a 05B0     		add	sp, sp, #20
 218              		@ sp needed
 219 011c 90BD     		pop	{r4, r7, pc}
 220              	.L12:
 221 011e C046     		.align	2
 222              	.L11:
 223 0120 00000000 		.word	twiddleCoef_4096
 224 0124 00000000 		.word	armBitRevTable
 225 0128 06000000 		.word	armBitRevTable+6
 226 012c 1E000000 		.word	armBitRevTable+30
 227 0130 7E000000 		.word	armBitRevTable+126
 228 0134 FE010000 		.word	armBitRevTable+510
 229              		.cfi_endproc
 230              	.LFE82:
 231              		.size	arm_cfft_radix4_init_f32, .-arm_cfft_radix4_init_f32
 232              		.text
 233              	.Letext0:
 234              		.file 2 "c:\\program files (x86)\\cypress\\psoc creator\\4.0\\psoc creator\\import\\gnu\\arm\\4.9.
 235              		.file 3 "c:\\program files (x86)\\cypress\\psoc creator\\4.0\\psoc creator\\import\\gnu\\arm\\4.9.
 236              		.file 4 ".\\Include/arm_math.h"
 237              		.file 5 ".\\Include/arm_common_tables.h"