ARM GAS  C:\Users\fneves\AppData\Local\Temp\ccQU5YBi.s 			page 1


   1              		.cpu cortex-m0plus
   2              		.fpu softvfp
   3              		.eabi_attribute 20, 1
   4              		.eabi_attribute 21, 1
   5              		.eabi_attribute 23, 3
   6              		.eabi_attribute 24, 1
   7              		.eabi_attribute 25, 1
   8              		.eabi_attribute 26, 1
   9              		.eabi_attribute 30, 6
  10              		.eabi_attribute 34, 0
  11              		.eabi_attribute 18, 4
  12              		.code	16
  13              		.file	"arm_std_q31.c"
  14              		.text
  15              	.Ltext0:
  16              		.cfi_sections	.debug_frame
  17              		.global	__aeabi_lmul
  18              		.global	__aeabi_ldivmod
  19              		.section	.text.arm_std_q31,"ax",%progbits
  20              		.align	2
  21              		.global	arm_std_q31
  22              		.code	16
  23              		.thumb_func
  24              		.type	arm_std_q31, %function
  25              	arm_std_q31:
  26              	.LFB82:
  27              		.file 1 "Source\\StatisticsFunctions\\arm_std_q31.c"
   1:Source\StatisticsFunctions/arm_std_q31.c **** /* ----------------------------------------------------------------------
   2:Source\StatisticsFunctions/arm_std_q31.c ****  * Project:      CMSIS DSP Library
   3:Source\StatisticsFunctions/arm_std_q31.c ****  * Title:        arm_std_q31.c
   4:Source\StatisticsFunctions/arm_std_q31.c ****  * Description:  Standard deviation of an array of Q31 type.
   5:Source\StatisticsFunctions/arm_std_q31.c ****  *
   6:Source\StatisticsFunctions/arm_std_q31.c ****  * $Date:        27. January 2017
   7:Source\StatisticsFunctions/arm_std_q31.c ****  * $Revision:    V.1.5.1
   8:Source\StatisticsFunctions/arm_std_q31.c ****  *
   9:Source\StatisticsFunctions/arm_std_q31.c ****  * Target Processor: Cortex-M cores
  10:Source\StatisticsFunctions/arm_std_q31.c ****  * -------------------------------------------------------------------- */
  11:Source\StatisticsFunctions/arm_std_q31.c **** /*
  12:Source\StatisticsFunctions/arm_std_q31.c ****  * Copyright (C) 2010-2017 ARM Limited or its affiliates. All rights reserved.
  13:Source\StatisticsFunctions/arm_std_q31.c ****  *
  14:Source\StatisticsFunctions/arm_std_q31.c ****  * SPDX-License-Identifier: Apache-2.0
  15:Source\StatisticsFunctions/arm_std_q31.c ****  *
  16:Source\StatisticsFunctions/arm_std_q31.c ****  * Licensed under the Apache License, Version 2.0 (the License); you may
  17:Source\StatisticsFunctions/arm_std_q31.c ****  * not use this file except in compliance with the License.
  18:Source\StatisticsFunctions/arm_std_q31.c ****  * You may obtain a copy of the License at
  19:Source\StatisticsFunctions/arm_std_q31.c ****  *
  20:Source\StatisticsFunctions/arm_std_q31.c ****  * www.apache.org/licenses/LICENSE-2.0
  21:Source\StatisticsFunctions/arm_std_q31.c ****  *
  22:Source\StatisticsFunctions/arm_std_q31.c ****  * Unless required by applicable law or agreed to in writing, software
  23:Source\StatisticsFunctions/arm_std_q31.c ****  * distributed under the License is distributed on an AS IS BASIS, WITHOUT
  24:Source\StatisticsFunctions/arm_std_q31.c ****  * WARRANTIES OR CONDITIONS OF ANY KIND, either express or implied.
  25:Source\StatisticsFunctions/arm_std_q31.c ****  * See the License for the specific language governing permissions and
  26:Source\StatisticsFunctions/arm_std_q31.c ****  * limitations under the License.
  27:Source\StatisticsFunctions/arm_std_q31.c ****  */
  28:Source\StatisticsFunctions/arm_std_q31.c **** 
  29:Source\StatisticsFunctions/arm_std_q31.c **** #include "arm_math.h"
  30:Source\StatisticsFunctions/arm_std_q31.c **** 
ARM GAS  C:\Users\fneves\AppData\Local\Temp\ccQU5YBi.s 			page 2


  31:Source\StatisticsFunctions/arm_std_q31.c **** /**
  32:Source\StatisticsFunctions/arm_std_q31.c ****  * @ingroup groupStats
  33:Source\StatisticsFunctions/arm_std_q31.c ****  */
  34:Source\StatisticsFunctions/arm_std_q31.c **** 
  35:Source\StatisticsFunctions/arm_std_q31.c **** /**
  36:Source\StatisticsFunctions/arm_std_q31.c ****  * @addtogroup STD
  37:Source\StatisticsFunctions/arm_std_q31.c ****  * @{
  38:Source\StatisticsFunctions/arm_std_q31.c ****  */
  39:Source\StatisticsFunctions/arm_std_q31.c **** 
  40:Source\StatisticsFunctions/arm_std_q31.c **** /**
  41:Source\StatisticsFunctions/arm_std_q31.c ****  * @brief Standard deviation of the elements of a Q31 vector.
  42:Source\StatisticsFunctions/arm_std_q31.c ****  * @param[in]       *pSrc points to the input vector
  43:Source\StatisticsFunctions/arm_std_q31.c ****  * @param[in]       blockSize length of the input vector
  44:Source\StatisticsFunctions/arm_std_q31.c ****  * @param[out]      *pResult standard deviation value returned here
  45:Source\StatisticsFunctions/arm_std_q31.c ****  * @return none.
  46:Source\StatisticsFunctions/arm_std_q31.c ****  * @details
  47:Source\StatisticsFunctions/arm_std_q31.c ****  * <b>Scaling and Overflow Behavior:</b>
  48:Source\StatisticsFunctions/arm_std_q31.c ****  *
  49:Source\StatisticsFunctions/arm_std_q31.c ****  *\par
  50:Source\StatisticsFunctions/arm_std_q31.c ****  * The function is implemented using an internal 64-bit accumulator.
  51:Source\StatisticsFunctions/arm_std_q31.c ****  * The input is represented in 1.31 format, which is then downshifted by 8 bits
  52:Source\StatisticsFunctions/arm_std_q31.c ****  * which yields 1.23, and intermediate multiplication yields a 2.46 format.
  53:Source\StatisticsFunctions/arm_std_q31.c ****  * The accumulator maintains full precision of the intermediate multiplication results,
  54:Source\StatisticsFunctions/arm_std_q31.c ****  * but provides only a 16 guard bits.
  55:Source\StatisticsFunctions/arm_std_q31.c ****  * There is no saturation on intermediate additions.
  56:Source\StatisticsFunctions/arm_std_q31.c ****  * If the accumulator overflows it wraps around and distorts the result.
  57:Source\StatisticsFunctions/arm_std_q31.c ****  * In order to avoid overflows completely the input signal must be scaled down by
  58:Source\StatisticsFunctions/arm_std_q31.c ****  * log2(blockSize)-8 bits, as a total of blockSize additions are performed internally.
  59:Source\StatisticsFunctions/arm_std_q31.c ****  * After division, internal variables should be Q18.46
  60:Source\StatisticsFunctions/arm_std_q31.c ****  * Finally, the 18.46 accumulator is right shifted by 15 bits to yield a 1.31 format value.
  61:Source\StatisticsFunctions/arm_std_q31.c ****  *
  62:Source\StatisticsFunctions/arm_std_q31.c ****  */
  63:Source\StatisticsFunctions/arm_std_q31.c **** 
  64:Source\StatisticsFunctions/arm_std_q31.c **** void arm_std_q31(
  65:Source\StatisticsFunctions/arm_std_q31.c ****   q31_t * pSrc,
  66:Source\StatisticsFunctions/arm_std_q31.c ****   uint32_t blockSize,
  67:Source\StatisticsFunctions/arm_std_q31.c ****   q31_t * pResult)
  68:Source\StatisticsFunctions/arm_std_q31.c **** {
  28              		.loc 1 68 0
  29              		.cfi_startproc
  30 0000 F0B5     		push	{r4, r5, r6, r7, lr}
  31              		.cfi_def_cfa_offset 20
  32              		.cfi_offset 4, -20
  33              		.cfi_offset 5, -16
  34              		.cfi_offset 6, -12
  35              		.cfi_offset 7, -8
  36              		.cfi_offset 14, -4
  37 0002 9BB0     		sub	sp, sp, #108
  38              		.cfi_def_cfa_offset 128
  39 0004 00AF     		add	r7, sp, #0
  40              		.cfi_def_cfa_register 7
  41 0006 7863     		str	r0, [r7, #52]
  42 0008 3963     		str	r1, [r7, #48]
  43 000a FA62     		str	r2, [r7, #44]
  69:Source\StatisticsFunctions/arm_std_q31.c ****   q63_t sum = 0;                                 /* Accumulator */
  44              		.loc 1 69 0
  45 000c 0023     		mov	r3, #0
ARM GAS  C:\Users\fneves\AppData\Local\Temp\ccQU5YBi.s 			page 3


  46 000e 0024     		mov	r4, #0
  47 0010 3B66     		str	r3, [r7, #96]
  48 0012 7C66     		str	r4, [r7, #100]
  70:Source\StatisticsFunctions/arm_std_q31.c ****   q63_t meanOfSquares, squareOfMean;             /* square of mean and mean of square */
  71:Source\StatisticsFunctions/arm_std_q31.c ****   q31_t in;                                      /* input value */
  72:Source\StatisticsFunctions/arm_std_q31.c ****   uint32_t blkCnt;                               /* loop counter */
  73:Source\StatisticsFunctions/arm_std_q31.c ****   q63_t sumOfSquares = 0;                        /* Accumulator */
  49              		.loc 1 73 0
  50 0014 0023     		mov	r3, #0
  51 0016 0024     		mov	r4, #0
  52 0018 3B65     		str	r3, [r7, #80]
  53 001a 7C65     		str	r4, [r7, #84]
  74:Source\StatisticsFunctions/arm_std_q31.c **** 
  75:Source\StatisticsFunctions/arm_std_q31.c ****   if (blockSize == 1u)
  54              		.loc 1 75 0
  55 001c 3B6B     		ldr	r3, [r7, #48]
  56 001e 012B     		cmp	r3, #1
  57 0020 03D1     		bne	.L2
  76:Source\StatisticsFunctions/arm_std_q31.c ****   {
  77:Source\StatisticsFunctions/arm_std_q31.c ****     *pResult = 0;
  58              		.loc 1 77 0
  59 0022 FB6A     		ldr	r3, [r7, #44]
  60 0024 0022     		mov	r2, #0
  61 0026 1A60     		str	r2, [r3]
  78:Source\StatisticsFunctions/arm_std_q31.c ****     return;
  62              		.loc 1 78 0
  63 0028 6CE0     		b	.L1
  64              	.L2:
  79:Source\StatisticsFunctions/arm_std_q31.c ****   }
  80:Source\StatisticsFunctions/arm_std_q31.c **** 
  81:Source\StatisticsFunctions/arm_std_q31.c **** #if defined (ARM_MATH_DSP)
  82:Source\StatisticsFunctions/arm_std_q31.c ****   /* Run the below code for Cortex-M4 and Cortex-M3 */
  83:Source\StatisticsFunctions/arm_std_q31.c **** 
  84:Source\StatisticsFunctions/arm_std_q31.c ****   /*loop Unrolling */
  85:Source\StatisticsFunctions/arm_std_q31.c ****   blkCnt = blockSize >> 2u;
  86:Source\StatisticsFunctions/arm_std_q31.c **** 
  87:Source\StatisticsFunctions/arm_std_q31.c ****   /* First part of the processing with loop unrolling.  Compute 4 outputs at a time.
  88:Source\StatisticsFunctions/arm_std_q31.c ****    ** a second loop below computes the remaining 1 to 3 samples. */
  89:Source\StatisticsFunctions/arm_std_q31.c ****   while (blkCnt > 0u)
  90:Source\StatisticsFunctions/arm_std_q31.c ****   {
  91:Source\StatisticsFunctions/arm_std_q31.c ****     /* C = (A[0] * A[0] + A[1] * A[1] + ... + A[blockSize-1] * A[blockSize-1])  */
  92:Source\StatisticsFunctions/arm_std_q31.c ****     /* Compute Sum of squares of the input samples
  93:Source\StatisticsFunctions/arm_std_q31.c ****      * and then store the result in a temporary variable, sum. */
  94:Source\StatisticsFunctions/arm_std_q31.c ****     in = *pSrc++ >> 8u;
  95:Source\StatisticsFunctions/arm_std_q31.c ****     sum += in;
  96:Source\StatisticsFunctions/arm_std_q31.c ****     sumOfSquares += ((q63_t) (in) * (in));
  97:Source\StatisticsFunctions/arm_std_q31.c ****     in = *pSrc++ >> 8u;
  98:Source\StatisticsFunctions/arm_std_q31.c ****     sum += in;
  99:Source\StatisticsFunctions/arm_std_q31.c ****     sumOfSquares += ((q63_t) (in) * (in));
 100:Source\StatisticsFunctions/arm_std_q31.c ****     in = *pSrc++ >> 8u;
 101:Source\StatisticsFunctions/arm_std_q31.c ****     sum += in;
 102:Source\StatisticsFunctions/arm_std_q31.c ****     sumOfSquares += ((q63_t) (in) * (in));
 103:Source\StatisticsFunctions/arm_std_q31.c ****     in = *pSrc++ >> 8u;
 104:Source\StatisticsFunctions/arm_std_q31.c ****     sum += in;
 105:Source\StatisticsFunctions/arm_std_q31.c ****     sumOfSquares += ((q63_t) (in) * (in));
 106:Source\StatisticsFunctions/arm_std_q31.c **** 
 107:Source\StatisticsFunctions/arm_std_q31.c ****     /* Decrement the loop counter */
ARM GAS  C:\Users\fneves\AppData\Local\Temp\ccQU5YBi.s 			page 4


 108:Source\StatisticsFunctions/arm_std_q31.c ****     blkCnt--;
 109:Source\StatisticsFunctions/arm_std_q31.c ****   }
 110:Source\StatisticsFunctions/arm_std_q31.c **** 
 111:Source\StatisticsFunctions/arm_std_q31.c ****   /* If the blockSize is not a multiple of 4, compute any remaining output samples here.
 112:Source\StatisticsFunctions/arm_std_q31.c ****    ** No loop unrolling is used. */
 113:Source\StatisticsFunctions/arm_std_q31.c ****   blkCnt = blockSize % 0x4u;
 114:Source\StatisticsFunctions/arm_std_q31.c **** 
 115:Source\StatisticsFunctions/arm_std_q31.c ****   while (blkCnt > 0u)
 116:Source\StatisticsFunctions/arm_std_q31.c ****   {
 117:Source\StatisticsFunctions/arm_std_q31.c ****     /* C = (A[0] * A[0] + A[1] * A[1] + ... + A[blockSize-1] * A[blockSize-1]) */
 118:Source\StatisticsFunctions/arm_std_q31.c ****     /* Compute Sum of squares of the input samples
 119:Source\StatisticsFunctions/arm_std_q31.c ****      * and then store the result in a temporary variable, sum. */
 120:Source\StatisticsFunctions/arm_std_q31.c ****     in = *pSrc++ >> 8u;
 121:Source\StatisticsFunctions/arm_std_q31.c ****     sum += in;
 122:Source\StatisticsFunctions/arm_std_q31.c ****     sumOfSquares += ((q63_t) (in) * (in));
 123:Source\StatisticsFunctions/arm_std_q31.c **** 
 124:Source\StatisticsFunctions/arm_std_q31.c ****     /* Decrement the loop counter */
 125:Source\StatisticsFunctions/arm_std_q31.c ****     blkCnt--;
 126:Source\StatisticsFunctions/arm_std_q31.c ****   }
 127:Source\StatisticsFunctions/arm_std_q31.c **** 
 128:Source\StatisticsFunctions/arm_std_q31.c ****   /* Compute Mean of squares of the input samples
 129:Source\StatisticsFunctions/arm_std_q31.c ****    * and then store the result in a temporary variable, meanOfSquares. */
 130:Source\StatisticsFunctions/arm_std_q31.c ****   meanOfSquares = sumOfSquares / (q63_t)(blockSize - 1u);
 131:Source\StatisticsFunctions/arm_std_q31.c **** 
 132:Source\StatisticsFunctions/arm_std_q31.c **** #else
 133:Source\StatisticsFunctions/arm_std_q31.c ****   /* Run the below code for Cortex-M0 */
 134:Source\StatisticsFunctions/arm_std_q31.c **** 
 135:Source\StatisticsFunctions/arm_std_q31.c ****   /* Loop over blockSize number of values */
 136:Source\StatisticsFunctions/arm_std_q31.c ****   blkCnt = blockSize;
  65              		.loc 1 136 0
  66 002a 3B6B     		ldr	r3, [r7, #48]
  67 002c FB65     		str	r3, [r7, #92]
 137:Source\StatisticsFunctions/arm_std_q31.c **** 
 138:Source\StatisticsFunctions/arm_std_q31.c ****   while (blkCnt > 0u)
  68              		.loc 1 138 0
  69 002e 2CE0     		b	.L4
  70              	.L5:
 139:Source\StatisticsFunctions/arm_std_q31.c ****   {
 140:Source\StatisticsFunctions/arm_std_q31.c ****     /* C = (A[0] * A[0] + A[1] * A[1] + ... + A[blockSize-1] * A[blockSize-1]) */
 141:Source\StatisticsFunctions/arm_std_q31.c ****     /* Compute Sum of squares of the input samples
 142:Source\StatisticsFunctions/arm_std_q31.c ****      * and then store the result in a temporary variable, sumOfSquares. */
 143:Source\StatisticsFunctions/arm_std_q31.c ****     in = *pSrc++ >> 8u;
  71              		.loc 1 143 0
  72 0030 7A6B     		ldr	r2, [r7, #52]
  73 0032 131D     		add	r3, r2, #4
  74 0034 7B63     		str	r3, [r7, #52]
  75 0036 1368     		ldr	r3, [r2]
  76 0038 1B12     		asr	r3, r3, #8
  77 003a FB64     		str	r3, [r7, #76]
 144:Source\StatisticsFunctions/arm_std_q31.c ****     sumOfSquares += ((q63_t) (in) * (in));
  78              		.loc 1 144 0
  79 003c FB6C     		ldr	r3, [r7, #76]
  80 003e 3B62     		str	r3, [r7, #32]
  81 0040 DB17     		asr	r3, r3, #31
  82 0042 7B62     		str	r3, [r7, #36]
  83 0044 FB6C     		ldr	r3, [r7, #76]
  84 0046 BB61     		str	r3, [r7, #24]
ARM GAS  C:\Users\fneves\AppData\Local\Temp\ccQU5YBi.s 			page 5


  85 0048 DB17     		asr	r3, r3, #31
  86 004a FB61     		str	r3, [r7, #28]
  87 004c 386A     		ldr	r0, [r7, #32]
  88 004e 796A     		ldr	r1, [r7, #36]
  89 0050 BA69     		ldr	r2, [r7, #24]
  90 0052 FB69     		ldr	r3, [r7, #28]
  91 0054 FFF7FEFF 		bl	__aeabi_lmul
  92 0058 031C     		mov	r3, r0
  93 005a 0C1C     		mov	r4, r1
  94 005c 191C     		mov	r1, r3
  95 005e 221C     		mov	r2, r4
  96 0060 3B6D     		ldr	r3, [r7, #80]
  97 0062 7C6D     		ldr	r4, [r7, #84]
  98 0064 5B18     		add	r3, r3, r1
  99 0066 5441     		adc	r4, r4, r2
 100 0068 3B65     		str	r3, [r7, #80]
 101 006a 7C65     		str	r4, [r7, #84]
 145:Source\StatisticsFunctions/arm_std_q31.c **** 
 146:Source\StatisticsFunctions/arm_std_q31.c ****     /* C = (A[0] + A[1] + A[2] + ... + A[blockSize-1]) */
 147:Source\StatisticsFunctions/arm_std_q31.c ****     /* Compute sum of all input values and then store the result in a temporary variable, sum. */
 148:Source\StatisticsFunctions/arm_std_q31.c ****     sum += in;
 102              		.loc 1 148 0
 103 006c FB6C     		ldr	r3, [r7, #76]
 104 006e 3B61     		str	r3, [r7, #16]
 105 0070 DB17     		asr	r3, r3, #31
 106 0072 7B61     		str	r3, [r7, #20]
 107 0074 3B6E     		ldr	r3, [r7, #96]
 108 0076 7C6E     		ldr	r4, [r7, #100]
 109 0078 3969     		ldr	r1, [r7, #16]
 110 007a 7A69     		ldr	r2, [r7, #20]
 111 007c 5B18     		add	r3, r3, r1
 112 007e 5441     		adc	r4, r4, r2
 113 0080 3B66     		str	r3, [r7, #96]
 114 0082 7C66     		str	r4, [r7, #100]
 149:Source\StatisticsFunctions/arm_std_q31.c **** 
 150:Source\StatisticsFunctions/arm_std_q31.c ****     /* Decrement the loop counter */
 151:Source\StatisticsFunctions/arm_std_q31.c ****     blkCnt--;
 115              		.loc 1 151 0
 116 0084 FB6D     		ldr	r3, [r7, #92]
 117 0086 013B     		sub	r3, r3, #1
 118 0088 FB65     		str	r3, [r7, #92]
 119              	.L4:
 138:Source\StatisticsFunctions/arm_std_q31.c ****   {
 120              		.loc 1 138 0
 121 008a FB6D     		ldr	r3, [r7, #92]
 122 008c 002B     		cmp	r3, #0
 123 008e CFD1     		bne	.L5
 152:Source\StatisticsFunctions/arm_std_q31.c ****   }
 153:Source\StatisticsFunctions/arm_std_q31.c **** 
 154:Source\StatisticsFunctions/arm_std_q31.c ****   /* Compute Mean of squares of the input samples
 155:Source\StatisticsFunctions/arm_std_q31.c ****    * and then store the result in a temporary variable, meanOfSquares. */
 156:Source\StatisticsFunctions/arm_std_q31.c ****   meanOfSquares = sumOfSquares / (q63_t)(blockSize - 1u);
 124              		.loc 1 156 0
 125 0090 3B6B     		ldr	r3, [r7, #48]
 126 0092 013B     		sub	r3, r3, #1
 127 0094 BB60     		str	r3, [r7, #8]
 128 0096 0023     		mov	r3, #0
ARM GAS  C:\Users\fneves\AppData\Local\Temp\ccQU5YBi.s 			page 6


 129 0098 FB60     		str	r3, [r7, #12]
 130 009a 386D     		ldr	r0, [r7, #80]
 131 009c 796D     		ldr	r1, [r7, #84]
 132 009e BA68     		ldr	r2, [r7, #8]
 133 00a0 FB68     		ldr	r3, [r7, #12]
 134 00a2 FFF7FEFF 		bl	__aeabi_ldivmod
 135 00a6 031C     		mov	r3, r0
 136 00a8 0C1C     		mov	r4, r1
 137 00aa 3B64     		str	r3, [r7, #64]
 138 00ac 7C64     		str	r4, [r7, #68]
 157:Source\StatisticsFunctions/arm_std_q31.c **** 
 158:Source\StatisticsFunctions/arm_std_q31.c **** #endif /* #if defined (ARM_MATH_DSP) */
 159:Source\StatisticsFunctions/arm_std_q31.c **** 
 160:Source\StatisticsFunctions/arm_std_q31.c ****   /* Compute square of mean */
 161:Source\StatisticsFunctions/arm_std_q31.c ****   squareOfMean = sum * sum / (q63_t)(blockSize * (blockSize - 1u));
 139              		.loc 1 161 0
 140 00ae 386E     		ldr	r0, [r7, #96]
 141 00b0 796E     		ldr	r1, [r7, #100]
 142 00b2 3A6E     		ldr	r2, [r7, #96]
 143 00b4 7B6E     		ldr	r3, [r7, #100]
 144 00b6 FFF7FEFF 		bl	__aeabi_lmul
 145 00ba 031C     		mov	r3, r0
 146 00bc 0C1C     		mov	r4, r1
 147 00be 181C     		mov	r0, r3
 148 00c0 211C     		mov	r1, r4
 149 00c2 3B6B     		ldr	r3, [r7, #48]
 150 00c4 013B     		sub	r3, r3, #1
 151 00c6 3A6B     		ldr	r2, [r7, #48]
 152 00c8 5343     		mul	r3, r2
 153 00ca 3B60     		str	r3, [r7]
 154 00cc 0023     		mov	r3, #0
 155 00ce 7B60     		str	r3, [r7, #4]
 156 00d0 3A68     		ldr	r2, [r7]
 157 00d2 7B68     		ldr	r3, [r7, #4]
 158 00d4 FFF7FEFF 		bl	__aeabi_ldivmod
 159 00d8 031C     		mov	r3, r0
 160 00da 0C1C     		mov	r4, r1
 161 00dc BB63     		str	r3, [r7, #56]
 162 00de FC63     		str	r4, [r7, #60]
 162:Source\StatisticsFunctions/arm_std_q31.c **** 
 163:Source\StatisticsFunctions/arm_std_q31.c ****   /* Compute standard deviation and then store the result to the destination */
 164:Source\StatisticsFunctions/arm_std_q31.c ****   arm_sqrt_q31((meanOfSquares - squareOfMean) >> 15u, pResult);
 163              		.loc 1 164 0
 164 00e0 396C     		ldr	r1, [r7, #64]
 165 00e2 7A6C     		ldr	r2, [r7, #68]
 166 00e4 BB6B     		ldr	r3, [r7, #56]
 167 00e6 FC6B     		ldr	r4, [r7, #60]
 168 00e8 C91A     		sub	r1, r1, r3
 169 00ea A241     		sbc	r2, r2, r4
 170 00ec 0B1C     		mov	r3, r1
 171 00ee 141C     		mov	r4, r2
 172 00f0 6204     		lsl	r2, r4, #17
 173 00f2 DD0B     		lsr	r5, r3, #15
 174 00f4 1543     		orr	r5, r2
 175 00f6 E613     		asr	r6, r4, #15
 176 00f8 2A1C     		mov	r2, r5
 177 00fa FB6A     		ldr	r3, [r7, #44]
ARM GAS  C:\Users\fneves\AppData\Local\Temp\ccQU5YBi.s 			page 7


 178 00fc 101C     		mov	r0, r2
 179 00fe 191C     		mov	r1, r3
 180 0100 FFF7FEFF 		bl	arm_sqrt_q31
 181              	.L1:
 165:Source\StatisticsFunctions/arm_std_q31.c **** }
 182              		.loc 1 165 0
 183 0104 BD46     		mov	sp, r7
 184 0106 1BB0     		add	sp, sp, #108
 185              		@ sp needed
 186 0108 F0BD     		pop	{r4, r5, r6, r7, pc}
 187              		.cfi_endproc
 188              	.LFE82:
 189              		.size	arm_std_q31, .-arm_std_q31
 190 010a C046     		.text
 191              	.Letext0:
 192              		.file 2 "c:\\program files (x86)\\cypress\\psoc creator\\4.0\\psoc creator\\import\\gnu\\arm\\4.9.
 193              		.file 3 "c:\\program files (x86)\\cypress\\psoc creator\\4.0\\psoc creator\\import\\gnu\\arm\\4.9.
 194              		.file 4 ".\\Include/arm_math.h"