ARM GAS  C:\Users\fneves\AppData\Local\Temp\ccVZ9lrA.s 			page 1


   1              		.cpu cortex-m0plus
   2              		.fpu softvfp
   3              		.eabi_attribute 20, 1
   4              		.eabi_attribute 21, 1
   5              		.eabi_attribute 23, 3
   6              		.eabi_attribute 24, 1
   7              		.eabi_attribute 25, 1
   8              		.eabi_attribute 26, 1
   9              		.eabi_attribute 30, 6
  10              		.eabi_attribute 34, 0
  11              		.eabi_attribute 18, 4
  12              		.code	16
  13              		.file	"arm_cmplx_mult_cmplx_q15.c"
  14              		.text
  15              	.Ltext0:
  16              		.cfi_sections	.debug_frame
  17              		.section	.text.arm_cmplx_mult_cmplx_q15,"ax",%progbits
  18              		.align	2
  19              		.global	arm_cmplx_mult_cmplx_q15
  20              		.code	16
  21              		.thumb_func
  22              		.type	arm_cmplx_mult_cmplx_q15, %function
  23              	arm_cmplx_mult_cmplx_q15:
  24              	.LFB82:
  25              		.file 1 "Source\\ComplexMathFunctions\\arm_cmplx_mult_cmplx_q15.c"
   1:Source\ComplexMathFunctions/arm_cmplx_mult_cmplx_q15.c **** /* ----------------------------------------------------------------------
   2:Source\ComplexMathFunctions/arm_cmplx_mult_cmplx_q15.c ****  * Project:      CMSIS DSP Library
   3:Source\ComplexMathFunctions/arm_cmplx_mult_cmplx_q15.c ****  * Title:        arm_cmplx_mult_cmplx_q15.c
   4:Source\ComplexMathFunctions/arm_cmplx_mult_cmplx_q15.c ****  * Description:  Q15 complex-by-complex multiplication
   5:Source\ComplexMathFunctions/arm_cmplx_mult_cmplx_q15.c ****  *
   6:Source\ComplexMathFunctions/arm_cmplx_mult_cmplx_q15.c ****  * $Date:        27. January 2017
   7:Source\ComplexMathFunctions/arm_cmplx_mult_cmplx_q15.c ****  * $Revision:    V.1.5.1
   8:Source\ComplexMathFunctions/arm_cmplx_mult_cmplx_q15.c ****  *
   9:Source\ComplexMathFunctions/arm_cmplx_mult_cmplx_q15.c ****  * Target Processor: Cortex-M cores
  10:Source\ComplexMathFunctions/arm_cmplx_mult_cmplx_q15.c ****  * -------------------------------------------------------------------- */
  11:Source\ComplexMathFunctions/arm_cmplx_mult_cmplx_q15.c **** /*
  12:Source\ComplexMathFunctions/arm_cmplx_mult_cmplx_q15.c ****  * Copyright (C) 2010-2017 ARM Limited or its affiliates. All rights reserved.
  13:Source\ComplexMathFunctions/arm_cmplx_mult_cmplx_q15.c ****  *
  14:Source\ComplexMathFunctions/arm_cmplx_mult_cmplx_q15.c ****  * SPDX-License-Identifier: Apache-2.0
  15:Source\ComplexMathFunctions/arm_cmplx_mult_cmplx_q15.c ****  *
  16:Source\ComplexMathFunctions/arm_cmplx_mult_cmplx_q15.c ****  * Licensed under the Apache License, Version 2.0 (the License); you may
  17:Source\ComplexMathFunctions/arm_cmplx_mult_cmplx_q15.c ****  * not use this file except in compliance with the License.
  18:Source\ComplexMathFunctions/arm_cmplx_mult_cmplx_q15.c ****  * You may obtain a copy of the License at
  19:Source\ComplexMathFunctions/arm_cmplx_mult_cmplx_q15.c ****  *
  20:Source\ComplexMathFunctions/arm_cmplx_mult_cmplx_q15.c ****  * www.apache.org/licenses/LICENSE-2.0
  21:Source\ComplexMathFunctions/arm_cmplx_mult_cmplx_q15.c ****  *
  22:Source\ComplexMathFunctions/arm_cmplx_mult_cmplx_q15.c ****  * Unless required by applicable law or agreed to in writing, software
  23:Source\ComplexMathFunctions/arm_cmplx_mult_cmplx_q15.c ****  * distributed under the License is distributed on an AS IS BASIS, WITHOUT
  24:Source\ComplexMathFunctions/arm_cmplx_mult_cmplx_q15.c ****  * WARRANTIES OR CONDITIONS OF ANY KIND, either express or implied.
  25:Source\ComplexMathFunctions/arm_cmplx_mult_cmplx_q15.c ****  * See the License for the specific language governing permissions and
  26:Source\ComplexMathFunctions/arm_cmplx_mult_cmplx_q15.c ****  * limitations under the License.
  27:Source\ComplexMathFunctions/arm_cmplx_mult_cmplx_q15.c ****  */
  28:Source\ComplexMathFunctions/arm_cmplx_mult_cmplx_q15.c **** 
  29:Source\ComplexMathFunctions/arm_cmplx_mult_cmplx_q15.c **** #include "arm_math.h"
  30:Source\ComplexMathFunctions/arm_cmplx_mult_cmplx_q15.c **** 
  31:Source\ComplexMathFunctions/arm_cmplx_mult_cmplx_q15.c **** /**
  32:Source\ComplexMathFunctions/arm_cmplx_mult_cmplx_q15.c ****  * @ingroup groupCmplxMath
ARM GAS  C:\Users\fneves\AppData\Local\Temp\ccVZ9lrA.s 			page 2


  33:Source\ComplexMathFunctions/arm_cmplx_mult_cmplx_q15.c ****  */
  34:Source\ComplexMathFunctions/arm_cmplx_mult_cmplx_q15.c **** 
  35:Source\ComplexMathFunctions/arm_cmplx_mult_cmplx_q15.c **** /**
  36:Source\ComplexMathFunctions/arm_cmplx_mult_cmplx_q15.c ****  * @addtogroup CmplxByCmplxMult
  37:Source\ComplexMathFunctions/arm_cmplx_mult_cmplx_q15.c ****  * @{
  38:Source\ComplexMathFunctions/arm_cmplx_mult_cmplx_q15.c ****  */
  39:Source\ComplexMathFunctions/arm_cmplx_mult_cmplx_q15.c **** 
  40:Source\ComplexMathFunctions/arm_cmplx_mult_cmplx_q15.c **** /**
  41:Source\ComplexMathFunctions/arm_cmplx_mult_cmplx_q15.c ****  * @brief  Q15 complex-by-complex multiplication
  42:Source\ComplexMathFunctions/arm_cmplx_mult_cmplx_q15.c ****  * @param[in]  *pSrcA points to the first input vector
  43:Source\ComplexMathFunctions/arm_cmplx_mult_cmplx_q15.c ****  * @param[in]  *pSrcB points to the second input vector
  44:Source\ComplexMathFunctions/arm_cmplx_mult_cmplx_q15.c ****  * @param[out]  *pDst  points to the output vector
  45:Source\ComplexMathFunctions/arm_cmplx_mult_cmplx_q15.c ****  * @param[in]  numSamples number of complex samples in each vector
  46:Source\ComplexMathFunctions/arm_cmplx_mult_cmplx_q15.c ****  * @return none.
  47:Source\ComplexMathFunctions/arm_cmplx_mult_cmplx_q15.c ****  *
  48:Source\ComplexMathFunctions/arm_cmplx_mult_cmplx_q15.c ****  * <b>Scaling and Overflow Behavior:</b>
  49:Source\ComplexMathFunctions/arm_cmplx_mult_cmplx_q15.c ****  * \par
  50:Source\ComplexMathFunctions/arm_cmplx_mult_cmplx_q15.c ****  * The function implements 1.15 by 1.15 multiplications and finally output is converted into 3.13 f
  51:Source\ComplexMathFunctions/arm_cmplx_mult_cmplx_q15.c ****  */
  52:Source\ComplexMathFunctions/arm_cmplx_mult_cmplx_q15.c **** 
  53:Source\ComplexMathFunctions/arm_cmplx_mult_cmplx_q15.c **** void arm_cmplx_mult_cmplx_q15(
  54:Source\ComplexMathFunctions/arm_cmplx_mult_cmplx_q15.c ****   q15_t * pSrcA,
  55:Source\ComplexMathFunctions/arm_cmplx_mult_cmplx_q15.c ****   q15_t * pSrcB,
  56:Source\ComplexMathFunctions/arm_cmplx_mult_cmplx_q15.c ****   q15_t * pDst,
  57:Source\ComplexMathFunctions/arm_cmplx_mult_cmplx_q15.c ****   uint32_t numSamples)
  58:Source\ComplexMathFunctions/arm_cmplx_mult_cmplx_q15.c **** {
  26              		.loc 1 58 0
  27              		.cfi_startproc
  28 0000 90B5     		push	{r4, r7, lr}
  29              		.cfi_def_cfa_offset 12
  30              		.cfi_offset 4, -12
  31              		.cfi_offset 7, -8
  32              		.cfi_offset 14, -4
  33 0002 87B0     		sub	sp, sp, #28
  34              		.cfi_def_cfa_offset 40
  35 0004 00AF     		add	r7, sp, #0
  36              		.cfi_def_cfa_register 7
  37 0006 F860     		str	r0, [r7, #12]
  38 0008 B960     		str	r1, [r7, #8]
  39 000a 7A60     		str	r2, [r7, #4]
  40 000c 3B60     		str	r3, [r7]
  59:Source\ComplexMathFunctions/arm_cmplx_mult_cmplx_q15.c ****   q15_t a, b, c, d;                              /* Temporary variables to store real and imaginary
  60:Source\ComplexMathFunctions/arm_cmplx_mult_cmplx_q15.c **** 
  61:Source\ComplexMathFunctions/arm_cmplx_mult_cmplx_q15.c **** #if defined (ARM_MATH_DSP)
  62:Source\ComplexMathFunctions/arm_cmplx_mult_cmplx_q15.c **** 
  63:Source\ComplexMathFunctions/arm_cmplx_mult_cmplx_q15.c ****   /* Run the below code for Cortex-M4 and Cortex-M3 */
  64:Source\ComplexMathFunctions/arm_cmplx_mult_cmplx_q15.c ****   uint32_t blkCnt;                               /* loop counters */
  65:Source\ComplexMathFunctions/arm_cmplx_mult_cmplx_q15.c **** 
  66:Source\ComplexMathFunctions/arm_cmplx_mult_cmplx_q15.c ****   /* loop Unrolling */
  67:Source\ComplexMathFunctions/arm_cmplx_mult_cmplx_q15.c ****   blkCnt = numSamples >> 2u;
  68:Source\ComplexMathFunctions/arm_cmplx_mult_cmplx_q15.c **** 
  69:Source\ComplexMathFunctions/arm_cmplx_mult_cmplx_q15.c ****   /* First part of the processing with loop unrolling.  Compute 4 outputs at a time.
  70:Source\ComplexMathFunctions/arm_cmplx_mult_cmplx_q15.c ****    ** a second loop below computes the remaining 1 to 3 samples. */
  71:Source\ComplexMathFunctions/arm_cmplx_mult_cmplx_q15.c ****   while (blkCnt > 0u)
  72:Source\ComplexMathFunctions/arm_cmplx_mult_cmplx_q15.c ****   {
  73:Source\ComplexMathFunctions/arm_cmplx_mult_cmplx_q15.c ****     /* C[2 * i] = A[2 * i] * B[2 * i] - A[2 * i + 1] * B[2 * i + 1].  */
  74:Source\ComplexMathFunctions/arm_cmplx_mult_cmplx_q15.c ****     /* C[2 * i + 1] = A[2 * i] * B[2 * i + 1] + A[2 * i + 1] * B[2 * i].  */
ARM GAS  C:\Users\fneves\AppData\Local\Temp\ccVZ9lrA.s 			page 3


  75:Source\ComplexMathFunctions/arm_cmplx_mult_cmplx_q15.c ****     a = *pSrcA++;
  76:Source\ComplexMathFunctions/arm_cmplx_mult_cmplx_q15.c ****     b = *pSrcA++;
  77:Source\ComplexMathFunctions/arm_cmplx_mult_cmplx_q15.c ****     c = *pSrcB++;
  78:Source\ComplexMathFunctions/arm_cmplx_mult_cmplx_q15.c ****     d = *pSrcB++;
  79:Source\ComplexMathFunctions/arm_cmplx_mult_cmplx_q15.c **** 
  80:Source\ComplexMathFunctions/arm_cmplx_mult_cmplx_q15.c ****     /* store the result in 3.13 format in the destination buffer. */
  81:Source\ComplexMathFunctions/arm_cmplx_mult_cmplx_q15.c ****     *pDst++ =
  82:Source\ComplexMathFunctions/arm_cmplx_mult_cmplx_q15.c ****       (q15_t) (q31_t) (((q31_t) a * c) >> 17) - (((q31_t) b * d) >> 17);
  83:Source\ComplexMathFunctions/arm_cmplx_mult_cmplx_q15.c ****     /* store the result in 3.13 format in the destination buffer. */
  84:Source\ComplexMathFunctions/arm_cmplx_mult_cmplx_q15.c ****     *pDst++ =
  85:Source\ComplexMathFunctions/arm_cmplx_mult_cmplx_q15.c ****       (q15_t) (q31_t) (((q31_t) a * d) >> 17) + (((q31_t) b * c) >> 17);
  86:Source\ComplexMathFunctions/arm_cmplx_mult_cmplx_q15.c **** 
  87:Source\ComplexMathFunctions/arm_cmplx_mult_cmplx_q15.c ****     a = *pSrcA++;
  88:Source\ComplexMathFunctions/arm_cmplx_mult_cmplx_q15.c ****     b = *pSrcA++;
  89:Source\ComplexMathFunctions/arm_cmplx_mult_cmplx_q15.c ****     c = *pSrcB++;
  90:Source\ComplexMathFunctions/arm_cmplx_mult_cmplx_q15.c ****     d = *pSrcB++;
  91:Source\ComplexMathFunctions/arm_cmplx_mult_cmplx_q15.c **** 
  92:Source\ComplexMathFunctions/arm_cmplx_mult_cmplx_q15.c ****     /* store the result in 3.13 format in the destination buffer. */
  93:Source\ComplexMathFunctions/arm_cmplx_mult_cmplx_q15.c ****     *pDst++ =
  94:Source\ComplexMathFunctions/arm_cmplx_mult_cmplx_q15.c ****       (q15_t) (q31_t) (((q31_t) a * c) >> 17) - (((q31_t) b * d) >> 17);
  95:Source\ComplexMathFunctions/arm_cmplx_mult_cmplx_q15.c ****     /* store the result in 3.13 format in the destination buffer. */
  96:Source\ComplexMathFunctions/arm_cmplx_mult_cmplx_q15.c ****     *pDst++ =
  97:Source\ComplexMathFunctions/arm_cmplx_mult_cmplx_q15.c ****       (q15_t) (q31_t) (((q31_t) a * d) >> 17) + (((q31_t) b * c) >> 17);
  98:Source\ComplexMathFunctions/arm_cmplx_mult_cmplx_q15.c **** 
  99:Source\ComplexMathFunctions/arm_cmplx_mult_cmplx_q15.c ****     a = *pSrcA++;
 100:Source\ComplexMathFunctions/arm_cmplx_mult_cmplx_q15.c ****     b = *pSrcA++;
 101:Source\ComplexMathFunctions/arm_cmplx_mult_cmplx_q15.c ****     c = *pSrcB++;
 102:Source\ComplexMathFunctions/arm_cmplx_mult_cmplx_q15.c ****     d = *pSrcB++;
 103:Source\ComplexMathFunctions/arm_cmplx_mult_cmplx_q15.c **** 
 104:Source\ComplexMathFunctions/arm_cmplx_mult_cmplx_q15.c ****     /* store the result in 3.13 format in the destination buffer. */
 105:Source\ComplexMathFunctions/arm_cmplx_mult_cmplx_q15.c ****     *pDst++ =
 106:Source\ComplexMathFunctions/arm_cmplx_mult_cmplx_q15.c ****       (q15_t) (q31_t) (((q31_t) a * c) >> 17) - (((q31_t) b * d) >> 17);
 107:Source\ComplexMathFunctions/arm_cmplx_mult_cmplx_q15.c ****     /* store the result in 3.13 format in the destination buffer. */
 108:Source\ComplexMathFunctions/arm_cmplx_mult_cmplx_q15.c ****     *pDst++ =
 109:Source\ComplexMathFunctions/arm_cmplx_mult_cmplx_q15.c ****       (q15_t) (q31_t) (((q31_t) a * d) >> 17) + (((q31_t) b * c) >> 17);
 110:Source\ComplexMathFunctions/arm_cmplx_mult_cmplx_q15.c **** 
 111:Source\ComplexMathFunctions/arm_cmplx_mult_cmplx_q15.c ****     a = *pSrcA++;
 112:Source\ComplexMathFunctions/arm_cmplx_mult_cmplx_q15.c ****     b = *pSrcA++;
 113:Source\ComplexMathFunctions/arm_cmplx_mult_cmplx_q15.c ****     c = *pSrcB++;
 114:Source\ComplexMathFunctions/arm_cmplx_mult_cmplx_q15.c ****     d = *pSrcB++;
 115:Source\ComplexMathFunctions/arm_cmplx_mult_cmplx_q15.c **** 
 116:Source\ComplexMathFunctions/arm_cmplx_mult_cmplx_q15.c ****     /* store the result in 3.13 format in the destination buffer. */
 117:Source\ComplexMathFunctions/arm_cmplx_mult_cmplx_q15.c ****     *pDst++ =
 118:Source\ComplexMathFunctions/arm_cmplx_mult_cmplx_q15.c ****       (q15_t) (q31_t) (((q31_t) a * c) >> 17) - (((q31_t) b * d) >> 17);
 119:Source\ComplexMathFunctions/arm_cmplx_mult_cmplx_q15.c ****     /* store the result in 3.13 format in the destination buffer. */
 120:Source\ComplexMathFunctions/arm_cmplx_mult_cmplx_q15.c ****     *pDst++ =
 121:Source\ComplexMathFunctions/arm_cmplx_mult_cmplx_q15.c ****       (q15_t) (q31_t) (((q31_t) a * d) >> 17) + (((q31_t) b * c) >> 17);
 122:Source\ComplexMathFunctions/arm_cmplx_mult_cmplx_q15.c **** 
 123:Source\ComplexMathFunctions/arm_cmplx_mult_cmplx_q15.c ****     /* Decrement the blockSize loop counter */
 124:Source\ComplexMathFunctions/arm_cmplx_mult_cmplx_q15.c ****     blkCnt--;
 125:Source\ComplexMathFunctions/arm_cmplx_mult_cmplx_q15.c ****   }
 126:Source\ComplexMathFunctions/arm_cmplx_mult_cmplx_q15.c **** 
 127:Source\ComplexMathFunctions/arm_cmplx_mult_cmplx_q15.c ****   /* If the blockSize is not a multiple of 4, compute any remaining output samples here.
 128:Source\ComplexMathFunctions/arm_cmplx_mult_cmplx_q15.c ****    ** No loop unrolling is used. */
 129:Source\ComplexMathFunctions/arm_cmplx_mult_cmplx_q15.c ****   blkCnt = numSamples % 0x4u;
 130:Source\ComplexMathFunctions/arm_cmplx_mult_cmplx_q15.c **** 
 131:Source\ComplexMathFunctions/arm_cmplx_mult_cmplx_q15.c ****   while (blkCnt > 0u)
ARM GAS  C:\Users\fneves\AppData\Local\Temp\ccVZ9lrA.s 			page 4


 132:Source\ComplexMathFunctions/arm_cmplx_mult_cmplx_q15.c ****   {
 133:Source\ComplexMathFunctions/arm_cmplx_mult_cmplx_q15.c ****     /* C[2 * i] = A[2 * i] * B[2 * i] - A[2 * i + 1] * B[2 * i + 1].  */
 134:Source\ComplexMathFunctions/arm_cmplx_mult_cmplx_q15.c ****     /* C[2 * i + 1] = A[2 * i] * B[2 * i + 1] + A[2 * i + 1] * B[2 * i].  */
 135:Source\ComplexMathFunctions/arm_cmplx_mult_cmplx_q15.c ****     a = *pSrcA++;
 136:Source\ComplexMathFunctions/arm_cmplx_mult_cmplx_q15.c ****     b = *pSrcA++;
 137:Source\ComplexMathFunctions/arm_cmplx_mult_cmplx_q15.c ****     c = *pSrcB++;
 138:Source\ComplexMathFunctions/arm_cmplx_mult_cmplx_q15.c ****     d = *pSrcB++;
 139:Source\ComplexMathFunctions/arm_cmplx_mult_cmplx_q15.c **** 
 140:Source\ComplexMathFunctions/arm_cmplx_mult_cmplx_q15.c ****     /* store the result in 3.13 format in the destination buffer. */
 141:Source\ComplexMathFunctions/arm_cmplx_mult_cmplx_q15.c ****     *pDst++ =
 142:Source\ComplexMathFunctions/arm_cmplx_mult_cmplx_q15.c ****       (q15_t) (q31_t) (((q31_t) a * c) >> 17) - (((q31_t) b * d) >> 17);
 143:Source\ComplexMathFunctions/arm_cmplx_mult_cmplx_q15.c ****     /* store the result in 3.13 format in the destination buffer. */
 144:Source\ComplexMathFunctions/arm_cmplx_mult_cmplx_q15.c ****     *pDst++ =
 145:Source\ComplexMathFunctions/arm_cmplx_mult_cmplx_q15.c ****       (q15_t) (q31_t) (((q31_t) a * d) >> 17) + (((q31_t) b * c) >> 17);
 146:Source\ComplexMathFunctions/arm_cmplx_mult_cmplx_q15.c **** 
 147:Source\ComplexMathFunctions/arm_cmplx_mult_cmplx_q15.c ****     /* Decrement the blockSize loop counter */
 148:Source\ComplexMathFunctions/arm_cmplx_mult_cmplx_q15.c ****     blkCnt--;
 149:Source\ComplexMathFunctions/arm_cmplx_mult_cmplx_q15.c ****   }
 150:Source\ComplexMathFunctions/arm_cmplx_mult_cmplx_q15.c **** 
 151:Source\ComplexMathFunctions/arm_cmplx_mult_cmplx_q15.c **** #else
 152:Source\ComplexMathFunctions/arm_cmplx_mult_cmplx_q15.c **** 
 153:Source\ComplexMathFunctions/arm_cmplx_mult_cmplx_q15.c ****   /* Run the below code for Cortex-M0 */
 154:Source\ComplexMathFunctions/arm_cmplx_mult_cmplx_q15.c **** 
 155:Source\ComplexMathFunctions/arm_cmplx_mult_cmplx_q15.c ****   while (numSamples > 0u)
  41              		.loc 1 155 0
  42 000e 58E0     		b	.L2
  43              	.L3:
 156:Source\ComplexMathFunctions/arm_cmplx_mult_cmplx_q15.c ****   {
 157:Source\ComplexMathFunctions/arm_cmplx_mult_cmplx_q15.c ****     /* C[2 * i] = A[2 * i] * B[2 * i] - A[2 * i + 1] * B[2 * i + 1].  */
 158:Source\ComplexMathFunctions/arm_cmplx_mult_cmplx_q15.c ****     /* C[2 * i + 1] = A[2 * i] * B[2 * i + 1] + A[2 * i + 1] * B[2 * i].  */
 159:Source\ComplexMathFunctions/arm_cmplx_mult_cmplx_q15.c ****     a = *pSrcA++;
  44              		.loc 1 159 0
  45 0010 FB68     		ldr	r3, [r7, #12]
  46 0012 9A1C     		add	r2, r3, #2
  47 0014 FA60     		str	r2, [r7, #12]
  48 0016 1622     		mov	r2, #22
  49 0018 BA18     		add	r2, r7, r2
  50 001a 1B88     		ldrh	r3, [r3]
  51 001c 1380     		strh	r3, [r2]
 160:Source\ComplexMathFunctions/arm_cmplx_mult_cmplx_q15.c ****     b = *pSrcA++;
  52              		.loc 1 160 0
  53 001e FB68     		ldr	r3, [r7, #12]
  54 0020 9A1C     		add	r2, r3, #2
  55 0022 FA60     		str	r2, [r7, #12]
  56 0024 1422     		mov	r2, #20
  57 0026 BA18     		add	r2, r7, r2
  58 0028 1B88     		ldrh	r3, [r3]
  59 002a 1380     		strh	r3, [r2]
 161:Source\ComplexMathFunctions/arm_cmplx_mult_cmplx_q15.c ****     c = *pSrcB++;
  60              		.loc 1 161 0
  61 002c BB68     		ldr	r3, [r7, #8]
  62 002e 9A1C     		add	r2, r3, #2
  63 0030 BA60     		str	r2, [r7, #8]
  64 0032 1222     		mov	r2, #18
  65 0034 BA18     		add	r2, r7, r2
  66 0036 1B88     		ldrh	r3, [r3]
  67 0038 1380     		strh	r3, [r2]
ARM GAS  C:\Users\fneves\AppData\Local\Temp\ccVZ9lrA.s 			page 5


 162:Source\ComplexMathFunctions/arm_cmplx_mult_cmplx_q15.c ****     d = *pSrcB++;
  68              		.loc 1 162 0
  69 003a BB68     		ldr	r3, [r7, #8]
  70 003c 9A1C     		add	r2, r3, #2
  71 003e BA60     		str	r2, [r7, #8]
  72 0040 1022     		mov	r2, #16
  73 0042 BA18     		add	r2, r7, r2
  74 0044 1B88     		ldrh	r3, [r3]
  75 0046 1380     		strh	r3, [r2]
 163:Source\ComplexMathFunctions/arm_cmplx_mult_cmplx_q15.c **** 
 164:Source\ComplexMathFunctions/arm_cmplx_mult_cmplx_q15.c ****     /* store the result in 3.13 format in the destination buffer. */
 165:Source\ComplexMathFunctions/arm_cmplx_mult_cmplx_q15.c ****     *pDst++ =
  76              		.loc 1 165 0
  77 0048 7B68     		ldr	r3, [r7, #4]
  78 004a 9A1C     		add	r2, r3, #2
  79 004c 7A60     		str	r2, [r7, #4]
 166:Source\ComplexMathFunctions/arm_cmplx_mult_cmplx_q15.c ****       (q15_t) (q31_t) (((q31_t) a * c) >> 17) - (((q31_t) b * d) >> 17);
  80              		.loc 1 166 0
  81 004e 1622     		mov	r2, #22
  82 0050 BA18     		add	r2, r7, r2
  83 0052 0021     		mov	r1, #0
  84 0054 525E     		ldrsh	r2, [r2, r1]
  85 0056 1221     		mov	r1, #18
  86 0058 7918     		add	r1, r7, r1
  87 005a 0020     		mov	r0, #0
  88 005c 095E     		ldrsh	r1, [r1, r0]
  89 005e 4A43     		mul	r2, r1
  90 0060 5214     		asr	r2, r2, #17
 165:Source\ComplexMathFunctions/arm_cmplx_mult_cmplx_q15.c ****       (q15_t) (q31_t) (((q31_t) a * c) >> 17) - (((q31_t) b * d) >> 17);
  91              		.loc 1 165 0
  92 0062 91B2     		uxth	r1, r2
  93              		.loc 1 166 0
  94 0064 1422     		mov	r2, #20
  95 0066 BA18     		add	r2, r7, r2
  96 0068 0020     		mov	r0, #0
  97 006a 125E     		ldrsh	r2, [r2, r0]
  98 006c 1020     		mov	r0, #16
  99 006e 3818     		add	r0, r7, r0
 100 0070 0024     		mov	r4, #0
 101 0072 005F     		ldrsh	r0, [r0, r4]
 102 0074 4243     		mul	r2, r0
 103 0076 5214     		asr	r2, r2, #17
 165:Source\ComplexMathFunctions/arm_cmplx_mult_cmplx_q15.c ****       (q15_t) (q31_t) (((q31_t) a * c) >> 17) - (((q31_t) b * d) >> 17);
 104              		.loc 1 165 0
 105 0078 92B2     		uxth	r2, r2
 106 007a 8A1A     		sub	r2, r1, r2
 107 007c 92B2     		uxth	r2, r2
 108 007e 92B2     		uxth	r2, r2
 109 0080 1A80     		strh	r2, [r3]
 167:Source\ComplexMathFunctions/arm_cmplx_mult_cmplx_q15.c ****     /* store the result in 3.13 format in the destination buffer. */
 168:Source\ComplexMathFunctions/arm_cmplx_mult_cmplx_q15.c ****     *pDst++ =
 110              		.loc 1 168 0
 111 0082 7B68     		ldr	r3, [r7, #4]
 112 0084 9A1C     		add	r2, r3, #2
 113 0086 7A60     		str	r2, [r7, #4]
 169:Source\ComplexMathFunctions/arm_cmplx_mult_cmplx_q15.c ****       (q15_t) (q31_t) (((q31_t) a * d) >> 17) + (((q31_t) b * c) >> 17);
 114              		.loc 1 169 0
ARM GAS  C:\Users\fneves\AppData\Local\Temp\ccVZ9lrA.s 			page 6


 115 0088 1622     		mov	r2, #22
 116 008a BA18     		add	r2, r7, r2
 117 008c 0021     		mov	r1, #0
 118 008e 525E     		ldrsh	r2, [r2, r1]
 119 0090 1021     		mov	r1, #16
 120 0092 7918     		add	r1, r7, r1
 121 0094 0020     		mov	r0, #0
 122 0096 095E     		ldrsh	r1, [r1, r0]
 123 0098 4A43     		mul	r2, r1
 124 009a 5214     		asr	r2, r2, #17
 168:Source\ComplexMathFunctions/arm_cmplx_mult_cmplx_q15.c ****       (q15_t) (q31_t) (((q31_t) a * d) >> 17) + (((q31_t) b * c) >> 17);
 125              		.loc 1 168 0
 126 009c 91B2     		uxth	r1, r2
 127              		.loc 1 169 0
 128 009e 1422     		mov	r2, #20
 129 00a0 BA18     		add	r2, r7, r2
 130 00a2 0020     		mov	r0, #0
 131 00a4 125E     		ldrsh	r2, [r2, r0]
 132 00a6 1220     		mov	r0, #18
 133 00a8 3818     		add	r0, r7, r0
 134 00aa 0024     		mov	r4, #0
 135 00ac 005F     		ldrsh	r0, [r0, r4]
 136 00ae 4243     		mul	r2, r0
 137 00b0 5214     		asr	r2, r2, #17
 168:Source\ComplexMathFunctions/arm_cmplx_mult_cmplx_q15.c ****       (q15_t) (q31_t) (((q31_t) a * d) >> 17) + (((q31_t) b * c) >> 17);
 138              		.loc 1 168 0
 139 00b2 92B2     		uxth	r2, r2
 140 00b4 8A18     		add	r2, r1, r2
 141 00b6 92B2     		uxth	r2, r2
 142 00b8 92B2     		uxth	r2, r2
 143 00ba 1A80     		strh	r2, [r3]
 170:Source\ComplexMathFunctions/arm_cmplx_mult_cmplx_q15.c **** 
 171:Source\ComplexMathFunctions/arm_cmplx_mult_cmplx_q15.c ****     /* Decrement the blockSize loop counter */
 172:Source\ComplexMathFunctions/arm_cmplx_mult_cmplx_q15.c ****     numSamples--;
 144              		.loc 1 172 0
 145 00bc 3B68     		ldr	r3, [r7]
 146 00be 013B     		sub	r3, r3, #1
 147 00c0 3B60     		str	r3, [r7]
 148              	.L2:
 155:Source\ComplexMathFunctions/arm_cmplx_mult_cmplx_q15.c ****   {
 149              		.loc 1 155 0
 150 00c2 3B68     		ldr	r3, [r7]
 151 00c4 002B     		cmp	r3, #0
 152 00c6 A3D1     		bne	.L3
 173:Source\ComplexMathFunctions/arm_cmplx_mult_cmplx_q15.c ****   }
 174:Source\ComplexMathFunctions/arm_cmplx_mult_cmplx_q15.c **** 
 175:Source\ComplexMathFunctions/arm_cmplx_mult_cmplx_q15.c **** #endif /* #if defined (ARM_MATH_DSP) */
 176:Source\ComplexMathFunctions/arm_cmplx_mult_cmplx_q15.c **** 
 177:Source\ComplexMathFunctions/arm_cmplx_mult_cmplx_q15.c **** }
 153              		.loc 1 177 0
 154 00c8 BD46     		mov	sp, r7
 155 00ca 07B0     		add	sp, sp, #28
 156              		@ sp needed
 157 00cc 90BD     		pop	{r4, r7, pc}
 158              		.cfi_endproc
 159              	.LFE82:
 160              		.size	arm_cmplx_mult_cmplx_q15, .-arm_cmplx_mult_cmplx_q15
ARM GAS  C:\Users\fneves\AppData\Local\Temp\ccVZ9lrA.s 			page 7


 161 00ce C046     		.text
 162              	.Letext0:
 163              		.file 2 "c:\\program files (x86)\\cypress\\psoc creator\\4.0\\psoc creator\\import\\gnu\\arm\\4.9.
 164              		.file 3 "c:\\program files (x86)\\cypress\\psoc creator\\4.0\\psoc creator\\import\\gnu\\arm\\4.9.
 165              		.file 4 ".\\Include/arm_math.h"