ARM GAS  C:\Users\fneves\AppData\Local\Temp\ccFC0Rzs.s 			page 1


   1              		.cpu cortex-m0plus
   2              		.fpu softvfp
   3              		.eabi_attribute 20, 1
   4              		.eabi_attribute 21, 1
   5              		.eabi_attribute 23, 3
   6              		.eabi_attribute 24, 1
   7              		.eabi_attribute 25, 1
   8              		.eabi_attribute 26, 1
   9              		.eabi_attribute 30, 6
  10              		.eabi_attribute 34, 0
  11              		.eabi_attribute 18, 4
  12              		.code	16
  13              		.file	"arm_cfft_radix2_init_f32.c"
  14              		.text
  15              	.Ltext0:
  16              		.cfi_sections	.debug_frame
  17              		.section	.text.arm_cfft_radix2_init_f32,"ax",%progbits
  18              		.align	2
  19              		.global	arm_cfft_radix2_init_f32
  20              		.code	16
  21              		.thumb_func
  22              		.type	arm_cfft_radix2_init_f32, %function
  23              	arm_cfft_radix2_init_f32:
  24              	.LFB82:
  25              		.file 1 "Source\\TransformFunctions\\arm_cfft_radix2_init_f32.c"
   1:Source\TransformFunctions/arm_cfft_radix2_init_f32.c **** /* ----------------------------------------------------------------------
   2:Source\TransformFunctions/arm_cfft_radix2_init_f32.c ****  * Project:      CMSIS DSP Library
   3:Source\TransformFunctions/arm_cfft_radix2_init_f32.c ****  * Title:        arm_cfft_radix2_init_f32.c
   4:Source\TransformFunctions/arm_cfft_radix2_init_f32.c ****  * Description:  Radix-2 Decimation in Frequency Floating-point CFFT & CIFFT Initialization functio
   5:Source\TransformFunctions/arm_cfft_radix2_init_f32.c ****  *
   6:Source\TransformFunctions/arm_cfft_radix2_init_f32.c ****  * $Date:        27. January 2017
   7:Source\TransformFunctions/arm_cfft_radix2_init_f32.c ****  * $Revision:    V.1.5.1
   8:Source\TransformFunctions/arm_cfft_radix2_init_f32.c ****  *
   9:Source\TransformFunctions/arm_cfft_radix2_init_f32.c ****  * Target Processor: Cortex-M cores
  10:Source\TransformFunctions/arm_cfft_radix2_init_f32.c ****  * -------------------------------------------------------------------- */
  11:Source\TransformFunctions/arm_cfft_radix2_init_f32.c **** /*
  12:Source\TransformFunctions/arm_cfft_radix2_init_f32.c ****  * Copyright (C) 2010-2017 ARM Limited or its affiliates. All rights reserved.
  13:Source\TransformFunctions/arm_cfft_radix2_init_f32.c ****  *
  14:Source\TransformFunctions/arm_cfft_radix2_init_f32.c ****  * SPDX-License-Identifier: Apache-2.0
  15:Source\TransformFunctions/arm_cfft_radix2_init_f32.c ****  *
  16:Source\TransformFunctions/arm_cfft_radix2_init_f32.c ****  * Licensed under the Apache License, Version 2.0 (the License); you may
  17:Source\TransformFunctions/arm_cfft_radix2_init_f32.c ****  * not use this file except in compliance with the License.
  18:Source\TransformFunctions/arm_cfft_radix2_init_f32.c ****  * You may obtain a copy of the License at
  19:Source\TransformFunctions/arm_cfft_radix2_init_f32.c ****  *
  20:Source\TransformFunctions/arm_cfft_radix2_init_f32.c ****  * www.apache.org/licenses/LICENSE-2.0
  21:Source\TransformFunctions/arm_cfft_radix2_init_f32.c ****  *
  22:Source\TransformFunctions/arm_cfft_radix2_init_f32.c ****  * Unless required by applicable law or agreed to in writing, software
  23:Source\TransformFunctions/arm_cfft_radix2_init_f32.c ****  * distributed under the License is distributed on an AS IS BASIS, WITHOUT
  24:Source\TransformFunctions/arm_cfft_radix2_init_f32.c ****  * WARRANTIES OR CONDITIONS OF ANY KIND, either express or implied.
  25:Source\TransformFunctions/arm_cfft_radix2_init_f32.c ****  * See the License for the specific language governing permissions and
  26:Source\TransformFunctions/arm_cfft_radix2_init_f32.c ****  * limitations under the License.
  27:Source\TransformFunctions/arm_cfft_radix2_init_f32.c ****  */
  28:Source\TransformFunctions/arm_cfft_radix2_init_f32.c **** 
  29:Source\TransformFunctions/arm_cfft_radix2_init_f32.c **** #include "arm_math.h"
  30:Source\TransformFunctions/arm_cfft_radix2_init_f32.c **** #include "arm_common_tables.h"
  31:Source\TransformFunctions/arm_cfft_radix2_init_f32.c **** 
  32:Source\TransformFunctions/arm_cfft_radix2_init_f32.c **** /**
ARM GAS  C:\Users\fneves\AppData\Local\Temp\ccFC0Rzs.s 			page 2


  33:Source\TransformFunctions/arm_cfft_radix2_init_f32.c ****  * @ingroup groupTransforms
  34:Source\TransformFunctions/arm_cfft_radix2_init_f32.c ****  */
  35:Source\TransformFunctions/arm_cfft_radix2_init_f32.c **** 
  36:Source\TransformFunctions/arm_cfft_radix2_init_f32.c **** /**
  37:Source\TransformFunctions/arm_cfft_radix2_init_f32.c ****  * @addtogroup ComplexFFT
  38:Source\TransformFunctions/arm_cfft_radix2_init_f32.c ****  * @{
  39:Source\TransformFunctions/arm_cfft_radix2_init_f32.c ****  */
  40:Source\TransformFunctions/arm_cfft_radix2_init_f32.c **** 
  41:Source\TransformFunctions/arm_cfft_radix2_init_f32.c **** /**
  42:Source\TransformFunctions/arm_cfft_radix2_init_f32.c **** * @brief  Initialization function for the floating-point CFFT/CIFFT.
  43:Source\TransformFunctions/arm_cfft_radix2_init_f32.c **** * @deprecated Do not use this function.  It has been superseded by \ref arm_cfft_f32 and will be re
  44:Source\TransformFunctions/arm_cfft_radix2_init_f32.c **** * in the future.
  45:Source\TransformFunctions/arm_cfft_radix2_init_f32.c **** * @param[in,out] *S             points to an instance of the floating-point CFFT/CIFFT structure.
  46:Source\TransformFunctions/arm_cfft_radix2_init_f32.c **** * @param[in]     fftLen         length of the FFT.
  47:Source\TransformFunctions/arm_cfft_radix2_init_f32.c **** * @param[in]     ifftFlag       flag that selects forward (ifftFlag=0) or inverse (ifftFlag=1) tran
  48:Source\TransformFunctions/arm_cfft_radix2_init_f32.c **** * @param[in]     bitReverseFlag flag that enables (bitReverseFlag=1) or disables (bitReverseFlag=0)
  49:Source\TransformFunctions/arm_cfft_radix2_init_f32.c **** * @return        The function returns ARM_MATH_SUCCESS if initialization is successful or ARM_MATH_
  50:Source\TransformFunctions/arm_cfft_radix2_init_f32.c **** *
  51:Source\TransformFunctions/arm_cfft_radix2_init_f32.c **** * \par Description:
  52:Source\TransformFunctions/arm_cfft_radix2_init_f32.c **** * \par
  53:Source\TransformFunctions/arm_cfft_radix2_init_f32.c **** * The parameter <code>ifftFlag</code> controls whether a forward or inverse transform is computed.
  54:Source\TransformFunctions/arm_cfft_radix2_init_f32.c **** * Set(=1) ifftFlag for calculation of CIFFT otherwise  CFFT is calculated
  55:Source\TransformFunctions/arm_cfft_radix2_init_f32.c **** * \par
  56:Source\TransformFunctions/arm_cfft_radix2_init_f32.c **** * The parameter <code>bitReverseFlag</code> controls whether output is in normal order or bit rever
  57:Source\TransformFunctions/arm_cfft_radix2_init_f32.c **** * Set(=1) bitReverseFlag for output to be in normal order otherwise output is in bit reversed order
  58:Source\TransformFunctions/arm_cfft_radix2_init_f32.c **** * \par
  59:Source\TransformFunctions/arm_cfft_radix2_init_f32.c **** * The parameter <code>fftLen</code>	Specifies length of CFFT/CIFFT process. Supported FFT Lengths a
  60:Source\TransformFunctions/arm_cfft_radix2_init_f32.c **** * \par
  61:Source\TransformFunctions/arm_cfft_radix2_init_f32.c **** * This Function also initializes Twiddle factor table pointer and Bit reversal table pointer.
  62:Source\TransformFunctions/arm_cfft_radix2_init_f32.c **** */
  63:Source\TransformFunctions/arm_cfft_radix2_init_f32.c **** arm_status arm_cfft_radix2_init_f32(
  64:Source\TransformFunctions/arm_cfft_radix2_init_f32.c ****   arm_cfft_radix2_instance_f32 * S,
  65:Source\TransformFunctions/arm_cfft_radix2_init_f32.c ****   uint16_t fftLen,
  66:Source\TransformFunctions/arm_cfft_radix2_init_f32.c ****   uint8_t ifftFlag,
  67:Source\TransformFunctions/arm_cfft_radix2_init_f32.c ****   uint8_t bitReverseFlag)
  68:Source\TransformFunctions/arm_cfft_radix2_init_f32.c **** {
  26              		.loc 1 68 0
  27              		.cfi_startproc
  28 0000 90B5     		push	{r4, r7, lr}
  29              		.cfi_def_cfa_offset 12
  30              		.cfi_offset 4, -12
  31              		.cfi_offset 7, -8
  32              		.cfi_offset 14, -4
  33 0002 85B0     		sub	sp, sp, #20
  34              		.cfi_def_cfa_offset 32
  35 0004 00AF     		add	r7, sp, #0
  36              		.cfi_def_cfa_register 7
  37 0006 7860     		str	r0, [r7, #4]
  38 0008 0C1C     		mov	r4, r1
  39 000a 101C     		mov	r0, r2
  40 000c 191C     		mov	r1, r3
  41 000e BB1C     		add	r3, r7, #2
  42 0010 221C     		add	r2, r4, #0
  43 0012 1A80     		strh	r2, [r3]
  44 0014 7B1C     		add	r3, r7, #1
  45 0016 021C     		add	r2, r0, #0
  46 0018 1A70     		strb	r2, [r3]
ARM GAS  C:\Users\fneves\AppData\Local\Temp\ccFC0Rzs.s 			page 3


  47 001a 3B1C     		mov	r3, r7
  48 001c 0A1C     		add	r2, r1, #0
  49 001e 1A70     		strb	r2, [r3]
  69:Source\TransformFunctions/arm_cfft_radix2_init_f32.c ****   /*  Initialise the default arm status */
  70:Source\TransformFunctions/arm_cfft_radix2_init_f32.c ****   arm_status status = ARM_MATH_SUCCESS;
  50              		.loc 1 70 0
  51 0020 0F23     		mov	r3, #15
  52 0022 FB18     		add	r3, r7, r3
  53 0024 0022     		mov	r2, #0
  54 0026 1A70     		strb	r2, [r3]
  71:Source\TransformFunctions/arm_cfft_radix2_init_f32.c **** 
  72:Source\TransformFunctions/arm_cfft_radix2_init_f32.c ****   /*  Initialise the FFT length */
  73:Source\TransformFunctions/arm_cfft_radix2_init_f32.c ****   S->fftLen = fftLen;
  55              		.loc 1 73 0
  56 0028 7B68     		ldr	r3, [r7, #4]
  57 002a BA1C     		add	r2, r7, #2
  58 002c 1288     		ldrh	r2, [r2]
  59 002e 1A80     		strh	r2, [r3]
  74:Source\TransformFunctions/arm_cfft_radix2_init_f32.c **** 
  75:Source\TransformFunctions/arm_cfft_radix2_init_f32.c ****   /*  Initialise the Twiddle coefficient pointer */
  76:Source\TransformFunctions/arm_cfft_radix2_init_f32.c ****   S->pTwiddle = (float32_t *) twiddleCoef;
  60              		.loc 1 76 0
  61 0030 7B68     		ldr	r3, [r7, #4]
  62 0032 624A     		ldr	r2, .L17
  63 0034 5A60     		str	r2, [r3, #4]
  77:Source\TransformFunctions/arm_cfft_radix2_init_f32.c **** 
  78:Source\TransformFunctions/arm_cfft_radix2_init_f32.c ****   /*  Initialise the Flag for selection of CFFT or CIFFT */
  79:Source\TransformFunctions/arm_cfft_radix2_init_f32.c ****   S->ifftFlag = ifftFlag;
  64              		.loc 1 79 0
  65 0036 7B68     		ldr	r3, [r7, #4]
  66 0038 7A1C     		add	r2, r7, #1
  67 003a 1278     		ldrb	r2, [r2]
  68 003c 9A70     		strb	r2, [r3, #2]
  80:Source\TransformFunctions/arm_cfft_radix2_init_f32.c **** 
  81:Source\TransformFunctions/arm_cfft_radix2_init_f32.c ****   /*  Initialise the Flag for calculation Bit reversal or not */
  82:Source\TransformFunctions/arm_cfft_radix2_init_f32.c ****   S->bitReverseFlag = bitReverseFlag;
  69              		.loc 1 82 0
  70 003e 7B68     		ldr	r3, [r7, #4]
  71 0040 3A1C     		mov	r2, r7
  72 0042 1278     		ldrb	r2, [r2]
  73 0044 DA70     		strb	r2, [r3, #3]
  83:Source\TransformFunctions/arm_cfft_radix2_init_f32.c **** 
  84:Source\TransformFunctions/arm_cfft_radix2_init_f32.c ****   /*  Initializations of structure parameters depending on the FFT length */
  85:Source\TransformFunctions/arm_cfft_radix2_init_f32.c ****   switch (S->fftLen)
  74              		.loc 1 85 0
  75 0046 7B68     		ldr	r3, [r7, #4]
  76 0048 1B88     		ldrh	r3, [r3]
  77 004a 8022     		mov	r2, #128
  78 004c 5200     		lsl	r2, r2, #1
  79 004e 9342     		cmp	r3, r2
  80 0050 5ED0     		beq	.L3
  81 0052 8022     		mov	r2, #128
  82 0054 5200     		lsl	r2, r2, #1
  83 0056 9342     		cmp	r3, r2
  84 0058 0CDC     		bgt	.L4
  85 005a 202B     		cmp	r3, #32
  86 005c 00D1     		bne	.LCB56
ARM GAS  C:\Users\fneves\AppData\Local\Temp\ccFC0Rzs.s 			page 4


  87 005e 81E0     		b	.L5	@long jump
  88              	.LCB56:
  89 0060 03DC     		bgt	.L6
  90 0062 102B     		cmp	r3, #16
  91 0064 00D1     		bne	.LCB60
  92 0066 8BE0     		b	.L7	@long jump
  93              	.LCB60:
  94 0068 9AE0     		b	.L2
  95              	.L6:
  96 006a 402B     		cmp	r3, #64
  97 006c 6CD0     		beq	.L8
  98 006e 802B     		cmp	r3, #128
  99 0070 5CD0     		beq	.L9
 100 0072 95E0     		b	.L2
 101              	.L4:
 102 0074 8022     		mov	r2, #128
 103 0076 D200     		lsl	r2, r2, #3
 104 0078 9342     		cmp	r3, r2
 105 007a 2DD0     		beq	.L10
 106 007c 8022     		mov	r2, #128
 107 007e D200     		lsl	r2, r2, #3
 108 0080 9342     		cmp	r3, r2
 109 0082 04DC     		bgt	.L11
 110 0084 8022     		mov	r2, #128
 111 0086 9200     		lsl	r2, r2, #2
 112 0088 9342     		cmp	r3, r2
 113 008a 33D0     		beq	.L12
 114 008c 88E0     		b	.L2
 115              	.L11:
 116 008e 8022     		mov	r2, #128
 117 0090 1201     		lsl	r2, r2, #4
 118 0092 9342     		cmp	r3, r2
 119 0094 12D0     		beq	.L13
 120 0096 8022     		mov	r2, #128
 121 0098 5201     		lsl	r2, r2, #5
 122 009a 9342     		cmp	r3, r2
 123 009c 00D0     		beq	.LCB96
 124 009e 7FE0     		b	.L2	@long jump
 125              	.LCB96:
  86:Source\TransformFunctions/arm_cfft_radix2_init_f32.c ****   {
  87:Source\TransformFunctions/arm_cfft_radix2_init_f32.c **** 
  88:Source\TransformFunctions/arm_cfft_radix2_init_f32.c ****   case 4096u:
  89:Source\TransformFunctions/arm_cfft_radix2_init_f32.c ****     /*  Initializations of structure parameters for 4096 point FFT */
  90:Source\TransformFunctions/arm_cfft_radix2_init_f32.c **** 
  91:Source\TransformFunctions/arm_cfft_radix2_init_f32.c ****     /*  Initialise the twiddle coef modifier value */
  92:Source\TransformFunctions/arm_cfft_radix2_init_f32.c ****     S->twidCoefModifier = 1u;
 126              		.loc 1 92 0
 127 00a0 7B68     		ldr	r3, [r7, #4]
 128 00a2 0122     		mov	r2, #1
 129 00a4 9A81     		strh	r2, [r3, #12]
  93:Source\TransformFunctions/arm_cfft_radix2_init_f32.c ****     /*  Initialise the bit reversal table modifier */
  94:Source\TransformFunctions/arm_cfft_radix2_init_f32.c ****     S->bitRevFactor = 1u;
 130              		.loc 1 94 0
 131 00a6 7B68     		ldr	r3, [r7, #4]
 132 00a8 0122     		mov	r2, #1
 133 00aa DA81     		strh	r2, [r3, #14]
  95:Source\TransformFunctions/arm_cfft_radix2_init_f32.c ****     /*  Initialise the bit reversal table pointer */
ARM GAS  C:\Users\fneves\AppData\Local\Temp\ccFC0Rzs.s 			page 5


  96:Source\TransformFunctions/arm_cfft_radix2_init_f32.c ****     S->pBitRevTable = (uint16_t *) armBitRevTable;
 134              		.loc 1 96 0
 135 00ac 7B68     		ldr	r3, [r7, #4]
 136 00ae 444A     		ldr	r2, .L17+4
 137 00b0 9A60     		str	r2, [r3, #8]
  97:Source\TransformFunctions/arm_cfft_radix2_init_f32.c ****     /*  Initialise the 1/fftLen Value */
  98:Source\TransformFunctions/arm_cfft_radix2_init_f32.c ****     S->onebyfftLen = 0.000244140625;
 138              		.loc 1 98 0
 139 00b2 7B68     		ldr	r3, [r7, #4]
 140 00b4 E622     		mov	r2, #230
 141 00b6 9205     		lsl	r2, r2, #22
 142 00b8 1A61     		str	r2, [r3, #16]
  99:Source\TransformFunctions/arm_cfft_radix2_init_f32.c ****     break;
 143              		.loc 1 99 0
 144 00ba 76E0     		b	.L15
 145              	.L13:
 100:Source\TransformFunctions/arm_cfft_radix2_init_f32.c **** 
 101:Source\TransformFunctions/arm_cfft_radix2_init_f32.c ****   case 2048u:
 102:Source\TransformFunctions/arm_cfft_radix2_init_f32.c ****     /*  Initializations of structure parameters for 2048 point FFT */
 103:Source\TransformFunctions/arm_cfft_radix2_init_f32.c **** 
 104:Source\TransformFunctions/arm_cfft_radix2_init_f32.c ****     /*  Initialise the twiddle coef modifier value */
 105:Source\TransformFunctions/arm_cfft_radix2_init_f32.c ****     S->twidCoefModifier = 2u;
 146              		.loc 1 105 0
 147 00bc 7B68     		ldr	r3, [r7, #4]
 148 00be 0222     		mov	r2, #2
 149 00c0 9A81     		strh	r2, [r3, #12]
 106:Source\TransformFunctions/arm_cfft_radix2_init_f32.c ****     /*  Initialise the bit reversal table modifier */
 107:Source\TransformFunctions/arm_cfft_radix2_init_f32.c ****     S->bitRevFactor = 2u;
 150              		.loc 1 107 0
 151 00c2 7B68     		ldr	r3, [r7, #4]
 152 00c4 0222     		mov	r2, #2
 153 00c6 DA81     		strh	r2, [r3, #14]
 108:Source\TransformFunctions/arm_cfft_radix2_init_f32.c ****     /*  Initialise the bit reversal table pointer */
 109:Source\TransformFunctions/arm_cfft_radix2_init_f32.c ****     S->pBitRevTable = (uint16_t *) & armBitRevTable[1];
 154              		.loc 1 109 0
 155 00c8 7B68     		ldr	r3, [r7, #4]
 156 00ca 3E4A     		ldr	r2, .L17+8
 157 00cc 9A60     		str	r2, [r3, #8]
 110:Source\TransformFunctions/arm_cfft_radix2_init_f32.c ****     /*  Initialise the 1/fftLen Value */
 111:Source\TransformFunctions/arm_cfft_radix2_init_f32.c ****     S->onebyfftLen = 0.00048828125;
 158              		.loc 1 111 0
 159 00ce 7B68     		ldr	r3, [r7, #4]
 160 00d0 E822     		mov	r2, #232
 161 00d2 9205     		lsl	r2, r2, #22
 162 00d4 1A61     		str	r2, [r3, #16]
 112:Source\TransformFunctions/arm_cfft_radix2_init_f32.c ****     break;
 163              		.loc 1 112 0
 164 00d6 68E0     		b	.L15
 165              	.L10:
 113:Source\TransformFunctions/arm_cfft_radix2_init_f32.c **** 
 114:Source\TransformFunctions/arm_cfft_radix2_init_f32.c ****   case 1024u:
 115:Source\TransformFunctions/arm_cfft_radix2_init_f32.c ****     /*  Initializations of structure parameters for 1024 point FFT */
 116:Source\TransformFunctions/arm_cfft_radix2_init_f32.c **** 
 117:Source\TransformFunctions/arm_cfft_radix2_init_f32.c ****     /*  Initialise the twiddle coef modifier value */
 118:Source\TransformFunctions/arm_cfft_radix2_init_f32.c ****     S->twidCoefModifier = 4u;
 166              		.loc 1 118 0
 167 00d8 7B68     		ldr	r3, [r7, #4]
ARM GAS  C:\Users\fneves\AppData\Local\Temp\ccFC0Rzs.s 			page 6


 168 00da 0422     		mov	r2, #4
 169 00dc 9A81     		strh	r2, [r3, #12]
 119:Source\TransformFunctions/arm_cfft_radix2_init_f32.c ****     /*  Initialise the bit reversal table modifier */
 120:Source\TransformFunctions/arm_cfft_radix2_init_f32.c ****     S->bitRevFactor = 4u;
 170              		.loc 1 120 0
 171 00de 7B68     		ldr	r3, [r7, #4]
 172 00e0 0422     		mov	r2, #4
 173 00e2 DA81     		strh	r2, [r3, #14]
 121:Source\TransformFunctions/arm_cfft_radix2_init_f32.c ****     /*  Initialise the bit reversal table pointer */
 122:Source\TransformFunctions/arm_cfft_radix2_init_f32.c ****     S->pBitRevTable = (uint16_t *) & armBitRevTable[3];
 174              		.loc 1 122 0
 175 00e4 7B68     		ldr	r3, [r7, #4]
 176 00e6 384A     		ldr	r2, .L17+12
 177 00e8 9A60     		str	r2, [r3, #8]
 123:Source\TransformFunctions/arm_cfft_radix2_init_f32.c ****     /*  Initialise the 1/fftLen Value */
 124:Source\TransformFunctions/arm_cfft_radix2_init_f32.c ****     S->onebyfftLen = 0.0009765625f;
 178              		.loc 1 124 0
 179 00ea 7B68     		ldr	r3, [r7, #4]
 180 00ec EA22     		mov	r2, #234
 181 00ee 9205     		lsl	r2, r2, #22
 182 00f0 1A61     		str	r2, [r3, #16]
 125:Source\TransformFunctions/arm_cfft_radix2_init_f32.c ****     break;
 183              		.loc 1 125 0
 184 00f2 5AE0     		b	.L15
 185              	.L12:
 126:Source\TransformFunctions/arm_cfft_radix2_init_f32.c **** 
 127:Source\TransformFunctions/arm_cfft_radix2_init_f32.c ****   case 512u:
 128:Source\TransformFunctions/arm_cfft_radix2_init_f32.c ****     /*  Initializations of structure parameters for 512 point FFT */
 129:Source\TransformFunctions/arm_cfft_radix2_init_f32.c **** 
 130:Source\TransformFunctions/arm_cfft_radix2_init_f32.c ****     /*  Initialise the twiddle coef modifier value */
 131:Source\TransformFunctions/arm_cfft_radix2_init_f32.c ****     S->twidCoefModifier = 8u;
 186              		.loc 1 131 0
 187 00f4 7B68     		ldr	r3, [r7, #4]
 188 00f6 0822     		mov	r2, #8
 189 00f8 9A81     		strh	r2, [r3, #12]
 132:Source\TransformFunctions/arm_cfft_radix2_init_f32.c ****     /*  Initialise the bit reversal table modifier */
 133:Source\TransformFunctions/arm_cfft_radix2_init_f32.c ****     S->bitRevFactor = 8u;
 190              		.loc 1 133 0
 191 00fa 7B68     		ldr	r3, [r7, #4]
 192 00fc 0822     		mov	r2, #8
 193 00fe DA81     		strh	r2, [r3, #14]
 134:Source\TransformFunctions/arm_cfft_radix2_init_f32.c ****     /*  Initialise the bit reversal table pointer */
 135:Source\TransformFunctions/arm_cfft_radix2_init_f32.c ****     S->pBitRevTable = (uint16_t *) & armBitRevTable[7];
 194              		.loc 1 135 0
 195 0100 7B68     		ldr	r3, [r7, #4]
 196 0102 324A     		ldr	r2, .L17+16
 197 0104 9A60     		str	r2, [r3, #8]
 136:Source\TransformFunctions/arm_cfft_radix2_init_f32.c ****     /*  Initialise the 1/fftLen Value */
 137:Source\TransformFunctions/arm_cfft_radix2_init_f32.c ****     S->onebyfftLen = 0.001953125;
 198              		.loc 1 137 0
 199 0106 7B68     		ldr	r3, [r7, #4]
 200 0108 EC22     		mov	r2, #236
 201 010a 9205     		lsl	r2, r2, #22
 202 010c 1A61     		str	r2, [r3, #16]
 138:Source\TransformFunctions/arm_cfft_radix2_init_f32.c ****     break;
 203              		.loc 1 138 0
 204 010e 4CE0     		b	.L15
ARM GAS  C:\Users\fneves\AppData\Local\Temp\ccFC0Rzs.s 			page 7


 205              	.L3:
 139:Source\TransformFunctions/arm_cfft_radix2_init_f32.c **** 
 140:Source\TransformFunctions/arm_cfft_radix2_init_f32.c ****   case 256u:
 141:Source\TransformFunctions/arm_cfft_radix2_init_f32.c ****     /*  Initializations of structure parameters for 256 point FFT */
 142:Source\TransformFunctions/arm_cfft_radix2_init_f32.c ****     S->twidCoefModifier = 16u;
 206              		.loc 1 142 0
 207 0110 7B68     		ldr	r3, [r7, #4]
 208 0112 1022     		mov	r2, #16
 209 0114 9A81     		strh	r2, [r3, #12]
 143:Source\TransformFunctions/arm_cfft_radix2_init_f32.c ****     S->bitRevFactor = 16u;
 210              		.loc 1 143 0
 211 0116 7B68     		ldr	r3, [r7, #4]
 212 0118 1022     		mov	r2, #16
 213 011a DA81     		strh	r2, [r3, #14]
 144:Source\TransformFunctions/arm_cfft_radix2_init_f32.c ****     S->pBitRevTable = (uint16_t *) & armBitRevTable[15];
 214              		.loc 1 144 0
 215 011c 7B68     		ldr	r3, [r7, #4]
 216 011e 2C4A     		ldr	r2, .L17+20
 217 0120 9A60     		str	r2, [r3, #8]
 145:Source\TransformFunctions/arm_cfft_radix2_init_f32.c ****     S->onebyfftLen = 0.00390625f;
 218              		.loc 1 145 0
 219 0122 7B68     		ldr	r3, [r7, #4]
 220 0124 EE22     		mov	r2, #238
 221 0126 9205     		lsl	r2, r2, #22
 222 0128 1A61     		str	r2, [r3, #16]
 146:Source\TransformFunctions/arm_cfft_radix2_init_f32.c ****     break;
 223              		.loc 1 146 0
 224 012a 3EE0     		b	.L15
 225              	.L9:
 147:Source\TransformFunctions/arm_cfft_radix2_init_f32.c **** 
 148:Source\TransformFunctions/arm_cfft_radix2_init_f32.c ****   case 128u:
 149:Source\TransformFunctions/arm_cfft_radix2_init_f32.c ****     /*  Initializations of structure parameters for 128 point FFT */
 150:Source\TransformFunctions/arm_cfft_radix2_init_f32.c ****     S->twidCoefModifier = 32u;
 226              		.loc 1 150 0
 227 012c 7B68     		ldr	r3, [r7, #4]
 228 012e 2022     		mov	r2, #32
 229 0130 9A81     		strh	r2, [r3, #12]
 151:Source\TransformFunctions/arm_cfft_radix2_init_f32.c ****     S->bitRevFactor = 32u;
 230              		.loc 1 151 0
 231 0132 7B68     		ldr	r3, [r7, #4]
 232 0134 2022     		mov	r2, #32
 233 0136 DA81     		strh	r2, [r3, #14]
 152:Source\TransformFunctions/arm_cfft_radix2_init_f32.c ****     S->pBitRevTable = (uint16_t *) & armBitRevTable[31];
 234              		.loc 1 152 0
 235 0138 7B68     		ldr	r3, [r7, #4]
 236 013a 264A     		ldr	r2, .L17+24
 237 013c 9A60     		str	r2, [r3, #8]
 153:Source\TransformFunctions/arm_cfft_radix2_init_f32.c ****     S->onebyfftLen = 0.0078125;
 238              		.loc 1 153 0
 239 013e 7B68     		ldr	r3, [r7, #4]
 240 0140 F022     		mov	r2, #240
 241 0142 9205     		lsl	r2, r2, #22
 242 0144 1A61     		str	r2, [r3, #16]
 154:Source\TransformFunctions/arm_cfft_radix2_init_f32.c ****     break;
 243              		.loc 1 154 0
 244 0146 30E0     		b	.L15
 245              	.L8:
ARM GAS  C:\Users\fneves\AppData\Local\Temp\ccFC0Rzs.s 			page 8


 155:Source\TransformFunctions/arm_cfft_radix2_init_f32.c **** 
 156:Source\TransformFunctions/arm_cfft_radix2_init_f32.c ****   case 64u:
 157:Source\TransformFunctions/arm_cfft_radix2_init_f32.c ****     /*  Initializations of structure parameters for 64 point FFT */
 158:Source\TransformFunctions/arm_cfft_radix2_init_f32.c ****     S->twidCoefModifier = 64u;
 246              		.loc 1 158 0
 247 0148 7B68     		ldr	r3, [r7, #4]
 248 014a 4022     		mov	r2, #64
 249 014c 9A81     		strh	r2, [r3, #12]
 159:Source\TransformFunctions/arm_cfft_radix2_init_f32.c ****     S->bitRevFactor = 64u;
 250              		.loc 1 159 0
 251 014e 7B68     		ldr	r3, [r7, #4]
 252 0150 4022     		mov	r2, #64
 253 0152 DA81     		strh	r2, [r3, #14]
 160:Source\TransformFunctions/arm_cfft_radix2_init_f32.c ****     S->pBitRevTable = (uint16_t *) & armBitRevTable[63];
 254              		.loc 1 160 0
 255 0154 7B68     		ldr	r3, [r7, #4]
 256 0156 204A     		ldr	r2, .L17+28
 257 0158 9A60     		str	r2, [r3, #8]
 161:Source\TransformFunctions/arm_cfft_radix2_init_f32.c ****     S->onebyfftLen = 0.015625f;
 258              		.loc 1 161 0
 259 015a 7B68     		ldr	r3, [r7, #4]
 260 015c F222     		mov	r2, #242
 261 015e 9205     		lsl	r2, r2, #22
 262 0160 1A61     		str	r2, [r3, #16]
 162:Source\TransformFunctions/arm_cfft_radix2_init_f32.c ****     break;
 263              		.loc 1 162 0
 264 0162 22E0     		b	.L15
 265              	.L5:
 163:Source\TransformFunctions/arm_cfft_radix2_init_f32.c **** 
 164:Source\TransformFunctions/arm_cfft_radix2_init_f32.c ****   case 32u:
 165:Source\TransformFunctions/arm_cfft_radix2_init_f32.c ****     /*  Initializations of structure parameters for 64 point FFT */
 166:Source\TransformFunctions/arm_cfft_radix2_init_f32.c ****     S->twidCoefModifier = 128u;
 266              		.loc 1 166 0
 267 0164 7B68     		ldr	r3, [r7, #4]
 268 0166 8022     		mov	r2, #128
 269 0168 9A81     		strh	r2, [r3, #12]
 167:Source\TransformFunctions/arm_cfft_radix2_init_f32.c ****     S->bitRevFactor = 128u;
 270              		.loc 1 167 0
 271 016a 7B68     		ldr	r3, [r7, #4]
 272 016c 8022     		mov	r2, #128
 273 016e DA81     		strh	r2, [r3, #14]
 168:Source\TransformFunctions/arm_cfft_radix2_init_f32.c ****     S->pBitRevTable = (uint16_t *) & armBitRevTable[127];
 274              		.loc 1 168 0
 275 0170 7B68     		ldr	r3, [r7, #4]
 276 0172 1A4A     		ldr	r2, .L17+32
 277 0174 9A60     		str	r2, [r3, #8]
 169:Source\TransformFunctions/arm_cfft_radix2_init_f32.c ****     S->onebyfftLen = 0.03125;
 278              		.loc 1 169 0
 279 0176 7B68     		ldr	r3, [r7, #4]
 280 0178 F422     		mov	r2, #244
 281 017a 9205     		lsl	r2, r2, #22
 282 017c 1A61     		str	r2, [r3, #16]
 170:Source\TransformFunctions/arm_cfft_radix2_init_f32.c ****     break;
 283              		.loc 1 170 0
 284 017e 14E0     		b	.L15
 285              	.L7:
 171:Source\TransformFunctions/arm_cfft_radix2_init_f32.c **** 
ARM GAS  C:\Users\fneves\AppData\Local\Temp\ccFC0Rzs.s 			page 9


 172:Source\TransformFunctions/arm_cfft_radix2_init_f32.c ****   case 16u:
 173:Source\TransformFunctions/arm_cfft_radix2_init_f32.c ****     /*  Initializations of structure parameters for 16 point FFT */
 174:Source\TransformFunctions/arm_cfft_radix2_init_f32.c ****     S->twidCoefModifier = 256u;
 286              		.loc 1 174 0
 287 0180 7B68     		ldr	r3, [r7, #4]
 288 0182 8022     		mov	r2, #128
 289 0184 5200     		lsl	r2, r2, #1
 290 0186 9A81     		strh	r2, [r3, #12]
 175:Source\TransformFunctions/arm_cfft_radix2_init_f32.c ****     S->bitRevFactor = 256u;
 291              		.loc 1 175 0
 292 0188 7B68     		ldr	r3, [r7, #4]
 293 018a 8022     		mov	r2, #128
 294 018c 5200     		lsl	r2, r2, #1
 295 018e DA81     		strh	r2, [r3, #14]
 176:Source\TransformFunctions/arm_cfft_radix2_init_f32.c ****     S->pBitRevTable = (uint16_t *) & armBitRevTable[255];
 296              		.loc 1 176 0
 297 0190 7B68     		ldr	r3, [r7, #4]
 298 0192 134A     		ldr	r2, .L17+36
 299 0194 9A60     		str	r2, [r3, #8]
 177:Source\TransformFunctions/arm_cfft_radix2_init_f32.c ****     S->onebyfftLen = 0.0625f;
 300              		.loc 1 177 0
 301 0196 7B68     		ldr	r3, [r7, #4]
 302 0198 F622     		mov	r2, #246
 303 019a 9205     		lsl	r2, r2, #22
 304 019c 1A61     		str	r2, [r3, #16]
 178:Source\TransformFunctions/arm_cfft_radix2_init_f32.c ****     break;
 305              		.loc 1 178 0
 306 019e 04E0     		b	.L15
 307              	.L2:
 179:Source\TransformFunctions/arm_cfft_radix2_init_f32.c **** 
 180:Source\TransformFunctions/arm_cfft_radix2_init_f32.c **** 
 181:Source\TransformFunctions/arm_cfft_radix2_init_f32.c ****   default:
 182:Source\TransformFunctions/arm_cfft_radix2_init_f32.c ****     /*  Reporting argument error if fftSize is not valid value */
 183:Source\TransformFunctions/arm_cfft_radix2_init_f32.c ****     status = ARM_MATH_ARGUMENT_ERROR;
 308              		.loc 1 183 0
 309 01a0 0F23     		mov	r3, #15
 310 01a2 FB18     		add	r3, r7, r3
 311 01a4 FF22     		mov	r2, #255
 312 01a6 1A70     		strb	r2, [r3]
 184:Source\TransformFunctions/arm_cfft_radix2_init_f32.c ****     break;
 313              		.loc 1 184 0
 314 01a8 C046     		mov	r8, r8
 315              	.L15:
 185:Source\TransformFunctions/arm_cfft_radix2_init_f32.c ****   }
 186:Source\TransformFunctions/arm_cfft_radix2_init_f32.c **** 
 187:Source\TransformFunctions/arm_cfft_radix2_init_f32.c ****   return (status);
 316              		.loc 1 187 0
 317 01aa 0F23     		mov	r3, #15
 318 01ac FB18     		add	r3, r7, r3
 319 01ae 1B78     		ldrb	r3, [r3]
 320 01b0 5BB2     		sxtb	r3, r3
 188:Source\TransformFunctions/arm_cfft_radix2_init_f32.c **** }
 321              		.loc 1 188 0
 322 01b2 181C     		mov	r0, r3
 323 01b4 BD46     		mov	sp, r7
 324 01b6 05B0     		add	sp, sp, #20
 325              		@ sp needed
ARM GAS  C:\Users\fneves\AppData\Local\Temp\ccFC0Rzs.s 			page 10


 326 01b8 90BD     		pop	{r4, r7, pc}
 327              	.L18:
 328 01ba C046     		.align	2
 329              	.L17:
 330 01bc 00000000 		.word	twiddleCoef_4096
 331 01c0 00000000 		.word	armBitRevTable
 332 01c4 02000000 		.word	armBitRevTable+2
 333 01c8 06000000 		.word	armBitRevTable+6
 334 01cc 0E000000 		.word	armBitRevTable+14
 335 01d0 1E000000 		.word	armBitRevTable+30
 336 01d4 3E000000 		.word	armBitRevTable+62
 337 01d8 7E000000 		.word	armBitRevTable+126
 338 01dc FE000000 		.word	armBitRevTable+254
 339 01e0 FE010000 		.word	armBitRevTable+510
 340              		.cfi_endproc
 341              	.LFE82:
 342              		.size	arm_cfft_radix2_init_f32, .-arm_cfft_radix2_init_f32
 343              		.text
 344              	.Letext0:
 345              		.file 2 "c:\\program files (x86)\\cypress\\psoc creator\\4.0\\psoc creator\\import\\gnu\\arm\\4.9.
 346              		.file 3 "c:\\program files (x86)\\cypress\\psoc creator\\4.0\\psoc creator\\import\\gnu\\arm\\4.9.
 347              		.file 4 ".\\Include/arm_math.h"
 348              		.file 5 ".\\Include/arm_common_tables.h"