ARM GAS  C:\Users\fneves\AppData\Local\Temp\ccWBWjgd.s 			page 1


   1              		.cpu cortex-m0plus
   2              		.fpu softvfp
   3              		.eabi_attribute 20, 1
   4              		.eabi_attribute 21, 1
   5              		.eabi_attribute 23, 3
   6              		.eabi_attribute 24, 1
   7              		.eabi_attribute 25, 1
   8              		.eabi_attribute 26, 1
   9              		.eabi_attribute 30, 6
  10              		.eabi_attribute 34, 0
  11              		.eabi_attribute 18, 4
  12              		.code	16
  13              		.file	"arm_rfft_q15.c"
  14              		.text
  15              	.Ltext0:
  16              		.cfi_sections	.debug_frame
  17              		.section	.text.arm_rfft_q15,"ax",%progbits
  18              		.align	2
  19              		.global	arm_rfft_q15
  20              		.code	16
  21              		.thumb_func
  22              		.type	arm_rfft_q15, %function
  23              	arm_rfft_q15:
  24              	.LFB82:
  25              		.file 1 "Source\\TransformFunctions\\arm_rfft_q15.c"
   1:Source\TransformFunctions/arm_rfft_q15.c **** /* ----------------------------------------------------------------------
   2:Source\TransformFunctions/arm_rfft_q15.c ****  * Project:      CMSIS DSP Library
   3:Source\TransformFunctions/arm_rfft_q15.c ****  * Title:        arm_rfft_q15.c
   4:Source\TransformFunctions/arm_rfft_q15.c ****  * Description:  RFFT & RIFFT Q15 process function
   5:Source\TransformFunctions/arm_rfft_q15.c ****  *
   6:Source\TransformFunctions/arm_rfft_q15.c ****  * $Date:        27. January 2017
   7:Source\TransformFunctions/arm_rfft_q15.c ****  * $Revision:    V.1.5.1
   8:Source\TransformFunctions/arm_rfft_q15.c ****  *
   9:Source\TransformFunctions/arm_rfft_q15.c ****  * Target Processor: Cortex-M cores
  10:Source\TransformFunctions/arm_rfft_q15.c ****  * -------------------------------------------------------------------- */
  11:Source\TransformFunctions/arm_rfft_q15.c **** /*
  12:Source\TransformFunctions/arm_rfft_q15.c ****  * Copyright (C) 2010-2017 ARM Limited or its affiliates. All rights reserved.
  13:Source\TransformFunctions/arm_rfft_q15.c ****  *
  14:Source\TransformFunctions/arm_rfft_q15.c ****  * SPDX-License-Identifier: Apache-2.0
  15:Source\TransformFunctions/arm_rfft_q15.c ****  *
  16:Source\TransformFunctions/arm_rfft_q15.c ****  * Licensed under the Apache License, Version 2.0 (the License); you may
  17:Source\TransformFunctions/arm_rfft_q15.c ****  * not use this file except in compliance with the License.
  18:Source\TransformFunctions/arm_rfft_q15.c ****  * You may obtain a copy of the License at
  19:Source\TransformFunctions/arm_rfft_q15.c ****  *
  20:Source\TransformFunctions/arm_rfft_q15.c ****  * www.apache.org/licenses/LICENSE-2.0
  21:Source\TransformFunctions/arm_rfft_q15.c ****  *
  22:Source\TransformFunctions/arm_rfft_q15.c ****  * Unless required by applicable law or agreed to in writing, software
  23:Source\TransformFunctions/arm_rfft_q15.c ****  * distributed under the License is distributed on an AS IS BASIS, WITHOUT
  24:Source\TransformFunctions/arm_rfft_q15.c ****  * WARRANTIES OR CONDITIONS OF ANY KIND, either express or implied.
  25:Source\TransformFunctions/arm_rfft_q15.c ****  * See the License for the specific language governing permissions and
  26:Source\TransformFunctions/arm_rfft_q15.c ****  * limitations under the License.
  27:Source\TransformFunctions/arm_rfft_q15.c ****  */
  28:Source\TransformFunctions/arm_rfft_q15.c **** 
  29:Source\TransformFunctions/arm_rfft_q15.c **** #include "arm_math.h"
  30:Source\TransformFunctions/arm_rfft_q15.c **** 
  31:Source\TransformFunctions/arm_rfft_q15.c **** /* ----------------------------------------------------------------------
  32:Source\TransformFunctions/arm_rfft_q15.c ****  * Internal functions prototypes
ARM GAS  C:\Users\fneves\AppData\Local\Temp\ccWBWjgd.s 			page 2


  33:Source\TransformFunctions/arm_rfft_q15.c ****  * -------------------------------------------------------------------- */
  34:Source\TransformFunctions/arm_rfft_q15.c **** 
  35:Source\TransformFunctions/arm_rfft_q15.c **** void arm_split_rfft_q15(
  36:Source\TransformFunctions/arm_rfft_q15.c ****     q15_t * pSrc,
  37:Source\TransformFunctions/arm_rfft_q15.c ****     uint32_t fftLen,
  38:Source\TransformFunctions/arm_rfft_q15.c ****     q15_t * pATable,
  39:Source\TransformFunctions/arm_rfft_q15.c ****     q15_t * pBTable,
  40:Source\TransformFunctions/arm_rfft_q15.c ****     q15_t * pDst,
  41:Source\TransformFunctions/arm_rfft_q15.c ****     uint32_t modifier);
  42:Source\TransformFunctions/arm_rfft_q15.c **** 
  43:Source\TransformFunctions/arm_rfft_q15.c **** void arm_split_rifft_q15(
  44:Source\TransformFunctions/arm_rfft_q15.c ****     q15_t * pSrc,
  45:Source\TransformFunctions/arm_rfft_q15.c ****     uint32_t fftLen,
  46:Source\TransformFunctions/arm_rfft_q15.c ****     q15_t * pATable,
  47:Source\TransformFunctions/arm_rfft_q15.c ****     q15_t * pBTable,
  48:Source\TransformFunctions/arm_rfft_q15.c ****     q15_t * pDst,
  49:Source\TransformFunctions/arm_rfft_q15.c ****     uint32_t modifier);
  50:Source\TransformFunctions/arm_rfft_q15.c **** 
  51:Source\TransformFunctions/arm_rfft_q15.c **** /**
  52:Source\TransformFunctions/arm_rfft_q15.c **** * @addtogroup RealFFT
  53:Source\TransformFunctions/arm_rfft_q15.c **** * @{
  54:Source\TransformFunctions/arm_rfft_q15.c **** */
  55:Source\TransformFunctions/arm_rfft_q15.c **** 
  56:Source\TransformFunctions/arm_rfft_q15.c **** /**
  57:Source\TransformFunctions/arm_rfft_q15.c **** * @brief Processing function for the Q15 RFFT/RIFFT.
  58:Source\TransformFunctions/arm_rfft_q15.c **** * @param[in]  *S    points to an instance of the Q15 RFFT/RIFFT structure.
  59:Source\TransformFunctions/arm_rfft_q15.c **** * @param[in]  *pSrc points to the input buffer.
  60:Source\TransformFunctions/arm_rfft_q15.c **** * @param[out] *pDst points to the output buffer.
  61:Source\TransformFunctions/arm_rfft_q15.c **** * @return none.
  62:Source\TransformFunctions/arm_rfft_q15.c **** *
  63:Source\TransformFunctions/arm_rfft_q15.c **** * \par Input an output formats:
  64:Source\TransformFunctions/arm_rfft_q15.c **** * \par
  65:Source\TransformFunctions/arm_rfft_q15.c **** * Internally input is downscaled by 2 for every stage to avoid saturations inside CFFT/CIFFT proces
  66:Source\TransformFunctions/arm_rfft_q15.c **** * Hence the output format is different for different RFFT sizes.
  67:Source\TransformFunctions/arm_rfft_q15.c **** * The input and output formats for different RFFT sizes and number of bits to upscale are mentioned
  68:Source\TransformFunctions/arm_rfft_q15.c **** * \par
  69:Source\TransformFunctions/arm_rfft_q15.c **** * \image html RFFTQ15.gif "Input and Output Formats for Q15 RFFT"
  70:Source\TransformFunctions/arm_rfft_q15.c **** * \par
  71:Source\TransformFunctions/arm_rfft_q15.c **** * \image html RIFFTQ15.gif "Input and Output Formats for Q15 RIFFT"
  72:Source\TransformFunctions/arm_rfft_q15.c **** */
  73:Source\TransformFunctions/arm_rfft_q15.c **** 
  74:Source\TransformFunctions/arm_rfft_q15.c **** void arm_rfft_q15(
  75:Source\TransformFunctions/arm_rfft_q15.c ****     const arm_rfft_instance_q15 * S,
  76:Source\TransformFunctions/arm_rfft_q15.c ****     q15_t * pSrc,
  77:Source\TransformFunctions/arm_rfft_q15.c ****     q15_t * pDst)
  78:Source\TransformFunctions/arm_rfft_q15.c **** {
  26              		.loc 1 78 0
  27              		.cfi_startproc
  28 0000 B0B5     		push	{r4, r5, r7, lr}
  29              		.cfi_def_cfa_offset 16
  30              		.cfi_offset 4, -16
  31              		.cfi_offset 5, -12
  32              		.cfi_offset 7, -8
  33              		.cfi_offset 14, -4
  34 0002 8AB0     		sub	sp, sp, #40
  35              		.cfi_def_cfa_offset 56
  36 0004 02AF     		add	r7, sp, #8
ARM GAS  C:\Users\fneves\AppData\Local\Temp\ccWBWjgd.s 			page 3


  37              		.cfi_def_cfa 7, 48
  38 0006 F860     		str	r0, [r7, #12]
  39 0008 B960     		str	r1, [r7, #8]
  40 000a 7A60     		str	r2, [r7, #4]
  79:Source\TransformFunctions/arm_rfft_q15.c ****     const arm_cfft_instance_q15 *S_CFFT = S->pCfft;
  41              		.loc 1 79 0
  42 000c FB68     		ldr	r3, [r7, #12]
  43 000e 5B69     		ldr	r3, [r3, #20]
  44 0010 BB61     		str	r3, [r7, #24]
  80:Source\TransformFunctions/arm_rfft_q15.c ****     uint32_t i;
  81:Source\TransformFunctions/arm_rfft_q15.c ****     uint32_t L2 = S->fftLenReal >> 1;
  45              		.loc 1 81 0
  46 0012 FB68     		ldr	r3, [r7, #12]
  47 0014 1B68     		ldr	r3, [r3]
  48 0016 5B08     		lsr	r3, r3, #1
  49 0018 7B61     		str	r3, [r7, #20]
  82:Source\TransformFunctions/arm_rfft_q15.c **** 
  83:Source\TransformFunctions/arm_rfft_q15.c ****     /* Calculation of RIFFT of input */
  84:Source\TransformFunctions/arm_rfft_q15.c ****     if (S->ifftFlagR == 1u)
  50              		.loc 1 84 0
  51 001a FB68     		ldr	r3, [r7, #12]
  52 001c 1B79     		ldrb	r3, [r3, #4]
  53 001e 012B     		cmp	r3, #1
  54 0020 2FD1     		bne	.L2
  85:Source\TransformFunctions/arm_rfft_q15.c ****     {
  86:Source\TransformFunctions/arm_rfft_q15.c ****         /*  Real IFFT core process */
  87:Source\TransformFunctions/arm_rfft_q15.c ****         arm_split_rifft_q15(pSrc, L2, S->pTwiddleAReal,
  55              		.loc 1 87 0
  56 0022 FB68     		ldr	r3, [r7, #12]
  57 0024 DD68     		ldr	r5, [r3, #12]
  58 0026 FB68     		ldr	r3, [r7, #12]
  59 0028 1C69     		ldr	r4, [r3, #16]
  60 002a FB68     		ldr	r3, [r7, #12]
  61 002c 9B68     		ldr	r3, [r3, #8]
  62 002e B868     		ldr	r0, [r7, #8]
  63 0030 7969     		ldr	r1, [r7, #20]
  64 0032 7A68     		ldr	r2, [r7, #4]
  65 0034 0092     		str	r2, [sp]
  66 0036 0193     		str	r3, [sp, #4]
  67 0038 2A1C     		mov	r2, r5
  68 003a 231C     		mov	r3, r4
  69 003c FFF7FEFF 		bl	arm_split_rifft_q15
  88:Source\TransformFunctions/arm_rfft_q15.c ****                             S->pTwiddleBReal, pDst, S->twidCoefRModifier);
  89:Source\TransformFunctions/arm_rfft_q15.c **** 
  90:Source\TransformFunctions/arm_rfft_q15.c ****         /* Complex IFFT process */
  91:Source\TransformFunctions/arm_rfft_q15.c ****         arm_cfft_q15(S_CFFT, pDst, S->ifftFlagR, S->bitReverseFlagR);
  70              		.loc 1 91 0
  71 0040 FB68     		ldr	r3, [r7, #12]
  72 0042 1A79     		ldrb	r2, [r3, #4]
  73 0044 FB68     		ldr	r3, [r7, #12]
  74 0046 5B79     		ldrb	r3, [r3, #5]
  75 0048 B869     		ldr	r0, [r7, #24]
  76 004a 7968     		ldr	r1, [r7, #4]
  77 004c FFF7FEFF 		bl	arm_cfft_q15
  92:Source\TransformFunctions/arm_rfft_q15.c **** 
  93:Source\TransformFunctions/arm_rfft_q15.c ****         for(i=0;i<S->fftLenReal;i++)
  78              		.loc 1 93 0
ARM GAS  C:\Users\fneves\AppData\Local\Temp\ccWBWjgd.s 			page 4


  79 0050 0023     		mov	r3, #0
  80 0052 FB61     		str	r3, [r7, #28]
  81 0054 0FE0     		b	.L3
  82              	.L4:
  94:Source\TransformFunctions/arm_rfft_q15.c ****         {
  95:Source\TransformFunctions/arm_rfft_q15.c ****             pDst[i] = pDst[i] << 1;
  83              		.loc 1 95 0 discriminator 3
  84 0056 FB69     		ldr	r3, [r7, #28]
  85 0058 5B00     		lsl	r3, r3, #1
  86 005a 7A68     		ldr	r2, [r7, #4]
  87 005c D318     		add	r3, r2, r3
  88 005e FA69     		ldr	r2, [r7, #28]
  89 0060 5200     		lsl	r2, r2, #1
  90 0062 7968     		ldr	r1, [r7, #4]
  91 0064 8A18     		add	r2, r1, r2
  92 0066 1288     		ldrh	r2, [r2]
  93 0068 12B2     		sxth	r2, r2
  94 006a 5200     		lsl	r2, r2, #1
  95 006c 92B2     		uxth	r2, r2
  96 006e 1A80     		strh	r2, [r3]
  93:Source\TransformFunctions/arm_rfft_q15.c ****         {
  97              		.loc 1 93 0 discriminator 3
  98 0070 FB69     		ldr	r3, [r7, #28]
  99 0072 0133     		add	r3, r3, #1
 100 0074 FB61     		str	r3, [r7, #28]
 101              	.L3:
  93:Source\TransformFunctions/arm_rfft_q15.c ****         {
 102              		.loc 1 93 0 is_stmt 0 discriminator 1
 103 0076 FB68     		ldr	r3, [r7, #12]
 104 0078 1A68     		ldr	r2, [r3]
 105 007a FB69     		ldr	r3, [r7, #28]
 106 007c 9A42     		cmp	r2, r3
 107 007e EAD8     		bhi	.L4
 108 0080 16E0     		b	.L1
 109              	.L2:
  96:Source\TransformFunctions/arm_rfft_q15.c ****         }
  97:Source\TransformFunctions/arm_rfft_q15.c ****     }
  98:Source\TransformFunctions/arm_rfft_q15.c ****     else
  99:Source\TransformFunctions/arm_rfft_q15.c ****     {
 100:Source\TransformFunctions/arm_rfft_q15.c ****         /* Calculation of RFFT of input */
 101:Source\TransformFunctions/arm_rfft_q15.c **** 
 102:Source\TransformFunctions/arm_rfft_q15.c ****         /* Complex FFT process */
 103:Source\TransformFunctions/arm_rfft_q15.c ****         arm_cfft_q15(S_CFFT, pSrc, S->ifftFlagR, S->bitReverseFlagR);
 110              		.loc 1 103 0 is_stmt 1
 111 0082 FB68     		ldr	r3, [r7, #12]
 112 0084 1A79     		ldrb	r2, [r3, #4]
 113 0086 FB68     		ldr	r3, [r7, #12]
 114 0088 5B79     		ldrb	r3, [r3, #5]
 115 008a B869     		ldr	r0, [r7, #24]
 116 008c B968     		ldr	r1, [r7, #8]
 117 008e FFF7FEFF 		bl	arm_cfft_q15
 104:Source\TransformFunctions/arm_rfft_q15.c **** 
 105:Source\TransformFunctions/arm_rfft_q15.c ****         /*  Real FFT core process */
 106:Source\TransformFunctions/arm_rfft_q15.c ****         arm_split_rfft_q15(pSrc, L2, S->pTwiddleAReal,
 118              		.loc 1 106 0
 119 0092 FB68     		ldr	r3, [r7, #12]
 120 0094 DD68     		ldr	r5, [r3, #12]
ARM GAS  C:\Users\fneves\AppData\Local\Temp\ccWBWjgd.s 			page 5


 121 0096 FB68     		ldr	r3, [r7, #12]
 122 0098 1C69     		ldr	r4, [r3, #16]
 123 009a FB68     		ldr	r3, [r7, #12]
 124 009c 9B68     		ldr	r3, [r3, #8]
 125 009e B868     		ldr	r0, [r7, #8]
 126 00a0 7969     		ldr	r1, [r7, #20]
 127 00a2 7A68     		ldr	r2, [r7, #4]
 128 00a4 0092     		str	r2, [sp]
 129 00a6 0193     		str	r3, [sp, #4]
 130 00a8 2A1C     		mov	r2, r5
 131 00aa 231C     		mov	r3, r4
 132 00ac FFF7FEFF 		bl	arm_split_rfft_q15
 133              	.L1:
 107:Source\TransformFunctions/arm_rfft_q15.c ****                             S->pTwiddleBReal, pDst, S->twidCoefRModifier);
 108:Source\TransformFunctions/arm_rfft_q15.c ****     }
 109:Source\TransformFunctions/arm_rfft_q15.c **** }
 134              		.loc 1 109 0
 135 00b0 BD46     		mov	sp, r7
 136 00b2 08B0     		add	sp, sp, #32
 137              		@ sp needed
 138 00b4 B0BD     		pop	{r4, r5, r7, pc}
 139              		.cfi_endproc
 140              	.LFE82:
 141              		.size	arm_rfft_q15, .-arm_rfft_q15
 142 00b6 C046     		.section	.text.arm_split_rfft_q15,"ax",%progbits
 143              		.align	2
 144              		.global	arm_split_rfft_q15
 145              		.code	16
 146              		.thumb_func
 147              		.type	arm_split_rfft_q15, %function
 148              	arm_split_rfft_q15:
 149              	.LFB83:
 110:Source\TransformFunctions/arm_rfft_q15.c **** 
 111:Source\TransformFunctions/arm_rfft_q15.c **** /**
 112:Source\TransformFunctions/arm_rfft_q15.c **** * @} end of RealFFT group
 113:Source\TransformFunctions/arm_rfft_q15.c **** */
 114:Source\TransformFunctions/arm_rfft_q15.c **** 
 115:Source\TransformFunctions/arm_rfft_q15.c **** /**
 116:Source\TransformFunctions/arm_rfft_q15.c **** * @brief  Core Real FFT process
 117:Source\TransformFunctions/arm_rfft_q15.c **** * @param  *pSrc 				points to the input buffer.
 118:Source\TransformFunctions/arm_rfft_q15.c **** * @param  fftLen  				length of FFT.
 119:Source\TransformFunctions/arm_rfft_q15.c **** * @param  *pATable 			points to the A twiddle Coef buffer.
 120:Source\TransformFunctions/arm_rfft_q15.c **** * @param  *pBTable 			points to the B twiddle Coef buffer.
 121:Source\TransformFunctions/arm_rfft_q15.c **** * @param  *pDst 				points to the output buffer.
 122:Source\TransformFunctions/arm_rfft_q15.c **** * @param  modifier 	        twiddle coefficient modifier that supports different size FFTs with the
 123:Source\TransformFunctions/arm_rfft_q15.c **** * @return none.
 124:Source\TransformFunctions/arm_rfft_q15.c **** * The function implements a Real FFT
 125:Source\TransformFunctions/arm_rfft_q15.c **** */
 126:Source\TransformFunctions/arm_rfft_q15.c **** 
 127:Source\TransformFunctions/arm_rfft_q15.c **** void arm_split_rfft_q15(
 128:Source\TransformFunctions/arm_rfft_q15.c ****     q15_t * pSrc,
 129:Source\TransformFunctions/arm_rfft_q15.c ****     uint32_t fftLen,
 130:Source\TransformFunctions/arm_rfft_q15.c ****     q15_t * pATable,
 131:Source\TransformFunctions/arm_rfft_q15.c ****     q15_t * pBTable,
 132:Source\TransformFunctions/arm_rfft_q15.c ****     q15_t * pDst,
 133:Source\TransformFunctions/arm_rfft_q15.c ****     uint32_t modifier)
 134:Source\TransformFunctions/arm_rfft_q15.c **** {
ARM GAS  C:\Users\fneves\AppData\Local\Temp\ccWBWjgd.s 			page 6


 150              		.loc 1 134 0
 151              		.cfi_startproc
 152 0000 80B5     		push	{r7, lr}
 153              		.cfi_def_cfa_offset 8
 154              		.cfi_offset 7, -8
 155              		.cfi_offset 14, -4
 156 0002 8CB0     		sub	sp, sp, #48
 157              		.cfi_def_cfa_offset 56
 158 0004 00AF     		add	r7, sp, #0
 159              		.cfi_def_cfa_register 7
 160 0006 F860     		str	r0, [r7, #12]
 161 0008 B960     		str	r1, [r7, #8]
 162 000a 7A60     		str	r2, [r7, #4]
 163 000c 3B60     		str	r3, [r7]
 135:Source\TransformFunctions/arm_rfft_q15.c ****     uint32_t i;                                    /* Loop Counter */
 136:Source\TransformFunctions/arm_rfft_q15.c ****     q31_t outR, outI;                              /* Temporary variables for output */
 137:Source\TransformFunctions/arm_rfft_q15.c ****     q15_t *pCoefA, *pCoefB;                        /* Temporary pointers for twiddle factors */
 138:Source\TransformFunctions/arm_rfft_q15.c ****     q15_t *pSrc1, *pSrc2;
 139:Source\TransformFunctions/arm_rfft_q15.c **** #if defined (ARM_MATH_DSP)
 140:Source\TransformFunctions/arm_rfft_q15.c ****     q15_t *pD1, *pD2;
 141:Source\TransformFunctions/arm_rfft_q15.c **** #endif
 142:Source\TransformFunctions/arm_rfft_q15.c **** 
 143:Source\TransformFunctions/arm_rfft_q15.c ****     //  pSrc[2u * fftLen] = pSrc[0];
 144:Source\TransformFunctions/arm_rfft_q15.c ****     //  pSrc[(2u * fftLen) + 1u] = pSrc[1];
 145:Source\TransformFunctions/arm_rfft_q15.c **** 
 146:Source\TransformFunctions/arm_rfft_q15.c ****     pCoefA = &pATable[modifier * 2u];
 164              		.loc 1 146 0
 165 000e FB6B     		ldr	r3, [r7, #60]
 166 0010 9B00     		lsl	r3, r3, #2
 167 0012 7A68     		ldr	r2, [r7, #4]
 168 0014 D318     		add	r3, r2, r3
 169 0016 BB62     		str	r3, [r7, #40]
 147:Source\TransformFunctions/arm_rfft_q15.c ****     pCoefB = &pBTable[modifier * 2u];
 170              		.loc 1 147 0
 171 0018 FB6B     		ldr	r3, [r7, #60]
 172 001a 9B00     		lsl	r3, r3, #2
 173 001c 3A68     		ldr	r2, [r7]
 174 001e D318     		add	r3, r2, r3
 175 0020 7B62     		str	r3, [r7, #36]
 148:Source\TransformFunctions/arm_rfft_q15.c **** 
 149:Source\TransformFunctions/arm_rfft_q15.c ****     pSrc1 = &pSrc[2];
 176              		.loc 1 149 0
 177 0022 FB68     		ldr	r3, [r7, #12]
 178 0024 0433     		add	r3, r3, #4
 179 0026 3B62     		str	r3, [r7, #32]
 150:Source\TransformFunctions/arm_rfft_q15.c ****     pSrc2 = &pSrc[(2u * fftLen) - 2u];
 180              		.loc 1 150 0
 181 0028 BB68     		ldr	r3, [r7, #8]
 182 002a 644A     		ldr	r2, .L9
 183 002c 9446     		mov	ip, r2
 184 002e 6344     		add	r3, r3, ip
 185 0030 9B00     		lsl	r3, r3, #2
 186 0032 FA68     		ldr	r2, [r7, #12]
 187 0034 D318     		add	r3, r2, r3
 188 0036 FB61     		str	r3, [r7, #28]
 151:Source\TransformFunctions/arm_rfft_q15.c **** 
 152:Source\TransformFunctions/arm_rfft_q15.c **** #if defined (ARM_MATH_DSP)
ARM GAS  C:\Users\fneves\AppData\Local\Temp\ccWBWjgd.s 			page 7


 153:Source\TransformFunctions/arm_rfft_q15.c **** 
 154:Source\TransformFunctions/arm_rfft_q15.c ****     /* Run the below code for Cortex-M4 and Cortex-M3 */
 155:Source\TransformFunctions/arm_rfft_q15.c ****     i = 1u;
 156:Source\TransformFunctions/arm_rfft_q15.c ****     pD1 = pDst + 2;
 157:Source\TransformFunctions/arm_rfft_q15.c ****     pD2 = pDst + (4u * fftLen) - 2;
 158:Source\TransformFunctions/arm_rfft_q15.c **** 
 159:Source\TransformFunctions/arm_rfft_q15.c ****     for(i = fftLen - 1; i > 0; i--)
 160:Source\TransformFunctions/arm_rfft_q15.c ****     {
 161:Source\TransformFunctions/arm_rfft_q15.c ****         /*
 162:Source\TransformFunctions/arm_rfft_q15.c ****         outR = (pSrc[2 * i] * pATable[2 * i] - pSrc[2 * i + 1] * pATable[2 * i + 1]
 163:Source\TransformFunctions/arm_rfft_q15.c ****         + pSrc[2 * n - 2 * i] * pBTable[2 * i] +
 164:Source\TransformFunctions/arm_rfft_q15.c ****         pSrc[2 * n - 2 * i + 1] * pBTable[2 * i + 1]);
 165:Source\TransformFunctions/arm_rfft_q15.c ****         */
 166:Source\TransformFunctions/arm_rfft_q15.c **** 
 167:Source\TransformFunctions/arm_rfft_q15.c ****         /* outI = (pIn[2 * i + 1] * pATable[2 * i] + pIn[2 * i] * pATable[2 * i + 1] +
 168:Source\TransformFunctions/arm_rfft_q15.c ****         pIn[2 * n - 2 * i] * pBTable[2 * i + 1] -
 169:Source\TransformFunctions/arm_rfft_q15.c ****         pIn[2 * n - 2 * i + 1] * pBTable[2 * i]); */
 170:Source\TransformFunctions/arm_rfft_q15.c **** 
 171:Source\TransformFunctions/arm_rfft_q15.c **** 
 172:Source\TransformFunctions/arm_rfft_q15.c **** #ifndef ARM_MATH_BIG_ENDIAN
 173:Source\TransformFunctions/arm_rfft_q15.c **** 
 174:Source\TransformFunctions/arm_rfft_q15.c ****         /* pSrc[2 * i] * pATable[2 * i] - pSrc[2 * i + 1] * pATable[2 * i + 1] */
 175:Source\TransformFunctions/arm_rfft_q15.c ****         outR = __SMUSD(*__SIMD32(pSrc1), *__SIMD32(pCoefA));
 176:Source\TransformFunctions/arm_rfft_q15.c **** 
 177:Source\TransformFunctions/arm_rfft_q15.c **** #else
 178:Source\TransformFunctions/arm_rfft_q15.c **** 
 179:Source\TransformFunctions/arm_rfft_q15.c ****         /* -(pSrc[2 * i + 1] * pATable[2 * i + 1] - pSrc[2 * i] * pATable[2 * i]) */
 180:Source\TransformFunctions/arm_rfft_q15.c ****         outR = -(__SMUSD(*__SIMD32(pSrc1), *__SIMD32(pCoefA)));
 181:Source\TransformFunctions/arm_rfft_q15.c **** 
 182:Source\TransformFunctions/arm_rfft_q15.c **** #endif /*      #ifndef ARM_MATH_BIG_ENDIAN     */
 183:Source\TransformFunctions/arm_rfft_q15.c **** 
 184:Source\TransformFunctions/arm_rfft_q15.c ****         /* pSrc[2 * n - 2 * i] * pBTable[2 * i] +
 185:Source\TransformFunctions/arm_rfft_q15.c ****         pSrc[2 * n - 2 * i + 1] * pBTable[2 * i + 1]) */
 186:Source\TransformFunctions/arm_rfft_q15.c ****         outR = __SMLAD(*__SIMD32(pSrc2), *__SIMD32(pCoefB), outR) >> 16u;
 187:Source\TransformFunctions/arm_rfft_q15.c **** 
 188:Source\TransformFunctions/arm_rfft_q15.c ****         /* pIn[2 * n - 2 * i] * pBTable[2 * i + 1] -
 189:Source\TransformFunctions/arm_rfft_q15.c ****         pIn[2 * n - 2 * i + 1] * pBTable[2 * i] */
 190:Source\TransformFunctions/arm_rfft_q15.c **** 
 191:Source\TransformFunctions/arm_rfft_q15.c **** #ifndef ARM_MATH_BIG_ENDIAN
 192:Source\TransformFunctions/arm_rfft_q15.c **** 
 193:Source\TransformFunctions/arm_rfft_q15.c ****         outI = __SMUSDX(*__SIMD32(pSrc2)--, *__SIMD32(pCoefB));
 194:Source\TransformFunctions/arm_rfft_q15.c **** 
 195:Source\TransformFunctions/arm_rfft_q15.c **** #else
 196:Source\TransformFunctions/arm_rfft_q15.c **** 
 197:Source\TransformFunctions/arm_rfft_q15.c ****         outI = __SMUSDX(*__SIMD32(pCoefB), *__SIMD32(pSrc2)--);
 198:Source\TransformFunctions/arm_rfft_q15.c **** 
 199:Source\TransformFunctions/arm_rfft_q15.c **** #endif /*      #ifndef ARM_MATH_BIG_ENDIAN     */
 200:Source\TransformFunctions/arm_rfft_q15.c **** 
 201:Source\TransformFunctions/arm_rfft_q15.c ****         /* (pIn[2 * i + 1] * pATable[2 * i] + pIn[2 * i] * pATable[2 * i + 1] */
 202:Source\TransformFunctions/arm_rfft_q15.c ****         outI = __SMLADX(*__SIMD32(pSrc1)++, *__SIMD32(pCoefA), outI);
 203:Source\TransformFunctions/arm_rfft_q15.c **** 
 204:Source\TransformFunctions/arm_rfft_q15.c ****         /* write output */
 205:Source\TransformFunctions/arm_rfft_q15.c ****         *pD1++ = (q15_t) outR;
 206:Source\TransformFunctions/arm_rfft_q15.c ****         *pD1++ = outI >> 16u;
 207:Source\TransformFunctions/arm_rfft_q15.c **** 
 208:Source\TransformFunctions/arm_rfft_q15.c ****         /* write complex conjugate output */
 209:Source\TransformFunctions/arm_rfft_q15.c ****         pD2[0] = (q15_t) outR;
ARM GAS  C:\Users\fneves\AppData\Local\Temp\ccWBWjgd.s 			page 8


 210:Source\TransformFunctions/arm_rfft_q15.c ****         pD2[1] = -(outI >> 16u);
 211:Source\TransformFunctions/arm_rfft_q15.c ****         pD2 -= 2;
 212:Source\TransformFunctions/arm_rfft_q15.c **** 
 213:Source\TransformFunctions/arm_rfft_q15.c ****         /* update coefficient pointer */
 214:Source\TransformFunctions/arm_rfft_q15.c ****         pCoefB = pCoefB + (2u * modifier);
 215:Source\TransformFunctions/arm_rfft_q15.c ****         pCoefA = pCoefA + (2u * modifier);
 216:Source\TransformFunctions/arm_rfft_q15.c ****     }
 217:Source\TransformFunctions/arm_rfft_q15.c **** 
 218:Source\TransformFunctions/arm_rfft_q15.c ****     pDst[2u * fftLen] = (pSrc[0] - pSrc[1]) >> 1;
 219:Source\TransformFunctions/arm_rfft_q15.c ****     pDst[(2u * fftLen) + 1u] = 0;
 220:Source\TransformFunctions/arm_rfft_q15.c **** 
 221:Source\TransformFunctions/arm_rfft_q15.c ****     pDst[0] = (pSrc[0] + pSrc[1]) >> 1;
 222:Source\TransformFunctions/arm_rfft_q15.c ****     pDst[1] = 0;
 223:Source\TransformFunctions/arm_rfft_q15.c **** 
 224:Source\TransformFunctions/arm_rfft_q15.c **** #else
 225:Source\TransformFunctions/arm_rfft_q15.c **** 
 226:Source\TransformFunctions/arm_rfft_q15.c ****     /* Run the below code for Cortex-M0 */
 227:Source\TransformFunctions/arm_rfft_q15.c ****     i = 1u;
 189              		.loc 1 227 0
 190 0038 0123     		mov	r3, #1
 191 003a FB62     		str	r3, [r7, #44]
 228:Source\TransformFunctions/arm_rfft_q15.c **** 
 229:Source\TransformFunctions/arm_rfft_q15.c ****     while (i < fftLen)
 192              		.loc 1 229 0
 193 003c 90E0     		b	.L7
 194              	.L8:
 230:Source\TransformFunctions/arm_rfft_q15.c ****     {
 231:Source\TransformFunctions/arm_rfft_q15.c ****         /*
 232:Source\TransformFunctions/arm_rfft_q15.c ****         outR = (pSrc[2 * i] * pATable[2 * i] - pSrc[2 * i + 1] * pATable[2 * i + 1]
 233:Source\TransformFunctions/arm_rfft_q15.c ****         + pSrc[2 * n - 2 * i] * pBTable[2 * i] +
 234:Source\TransformFunctions/arm_rfft_q15.c ****         pSrc[2 * n - 2 * i + 1] * pBTable[2 * i + 1]);
 235:Source\TransformFunctions/arm_rfft_q15.c ****         */
 236:Source\TransformFunctions/arm_rfft_q15.c **** 
 237:Source\TransformFunctions/arm_rfft_q15.c ****         outR = *pSrc1 * *pCoefA;
 195              		.loc 1 237 0
 196 003e 3B6A     		ldr	r3, [r7, #32]
 197 0040 1B88     		ldrh	r3, [r3]
 198 0042 1BB2     		sxth	r3, r3
 199 0044 BA6A     		ldr	r2, [r7, #40]
 200 0046 1288     		ldrh	r2, [r2]
 201 0048 12B2     		sxth	r2, r2
 202 004a 5343     		mul	r3, r2
 203 004c BB61     		str	r3, [r7, #24]
 238:Source\TransformFunctions/arm_rfft_q15.c ****         outR = outR - (*(pSrc1 + 1) * *(pCoefA + 1));
 204              		.loc 1 238 0
 205 004e 3B6A     		ldr	r3, [r7, #32]
 206 0050 0233     		add	r3, r3, #2
 207 0052 1B88     		ldrh	r3, [r3]
 208 0054 1BB2     		sxth	r3, r3
 209 0056 BA6A     		ldr	r2, [r7, #40]
 210 0058 0232     		add	r2, r2, #2
 211 005a 1288     		ldrh	r2, [r2]
 212 005c 12B2     		sxth	r2, r2
 213 005e 5343     		mul	r3, r2
 214 0060 BA69     		ldr	r2, [r7, #24]
 215 0062 D31A     		sub	r3, r2, r3
 216 0064 BB61     		str	r3, [r7, #24]
ARM GAS  C:\Users\fneves\AppData\Local\Temp\ccWBWjgd.s 			page 9


 239:Source\TransformFunctions/arm_rfft_q15.c ****         outR = outR + (*pSrc2 * *pCoefB);
 217              		.loc 1 239 0
 218 0066 FB69     		ldr	r3, [r7, #28]
 219 0068 1B88     		ldrh	r3, [r3]
 220 006a 1BB2     		sxth	r3, r3
 221 006c 7A6A     		ldr	r2, [r7, #36]
 222 006e 1288     		ldrh	r2, [r2]
 223 0070 12B2     		sxth	r2, r2
 224 0072 5343     		mul	r3, r2
 225 0074 BA69     		ldr	r2, [r7, #24]
 226 0076 D318     		add	r3, r2, r3
 227 0078 BB61     		str	r3, [r7, #24]
 240:Source\TransformFunctions/arm_rfft_q15.c ****         outR = (outR + (*(pSrc2 + 1) * *(pCoefB + 1))) >> 16;
 228              		.loc 1 240 0
 229 007a FB69     		ldr	r3, [r7, #28]
 230 007c 0233     		add	r3, r3, #2
 231 007e 1B88     		ldrh	r3, [r3]
 232 0080 1BB2     		sxth	r3, r3
 233 0082 7A6A     		ldr	r2, [r7, #36]
 234 0084 0232     		add	r2, r2, #2
 235 0086 1288     		ldrh	r2, [r2]
 236 0088 12B2     		sxth	r2, r2
 237 008a 5A43     		mul	r2, r3
 238 008c BB69     		ldr	r3, [r7, #24]
 239 008e D318     		add	r3, r2, r3
 240 0090 1B14     		asr	r3, r3, #16
 241 0092 BB61     		str	r3, [r7, #24]
 241:Source\TransformFunctions/arm_rfft_q15.c **** 
 242:Source\TransformFunctions/arm_rfft_q15.c **** 
 243:Source\TransformFunctions/arm_rfft_q15.c ****         /* outI = (pIn[2 * i + 1] * pATable[2 * i] + pIn[2 * i] * pATable[2 * i + 1] +
 244:Source\TransformFunctions/arm_rfft_q15.c ****         pIn[2 * n - 2 * i] * pBTable[2 * i + 1] -
 245:Source\TransformFunctions/arm_rfft_q15.c ****         pIn[2 * n - 2 * i + 1] * pBTable[2 * i]);
 246:Source\TransformFunctions/arm_rfft_q15.c ****         */
 247:Source\TransformFunctions/arm_rfft_q15.c **** 
 248:Source\TransformFunctions/arm_rfft_q15.c ****         outI = *pSrc2 * *(pCoefB + 1);
 242              		.loc 1 248 0
 243 0094 FB69     		ldr	r3, [r7, #28]
 244 0096 1B88     		ldrh	r3, [r3]
 245 0098 1BB2     		sxth	r3, r3
 246 009a 7A6A     		ldr	r2, [r7, #36]
 247 009c 0232     		add	r2, r2, #2
 248 009e 1288     		ldrh	r2, [r2]
 249 00a0 12B2     		sxth	r2, r2
 250 00a2 5343     		mul	r3, r2
 251 00a4 7B61     		str	r3, [r7, #20]
 249:Source\TransformFunctions/arm_rfft_q15.c ****         outI = outI - (*(pSrc2 + 1) * *pCoefB);
 252              		.loc 1 249 0
 253 00a6 FB69     		ldr	r3, [r7, #28]
 254 00a8 0233     		add	r3, r3, #2
 255 00aa 1B88     		ldrh	r3, [r3]
 256 00ac 1BB2     		sxth	r3, r3
 257 00ae 7A6A     		ldr	r2, [r7, #36]
 258 00b0 1288     		ldrh	r2, [r2]
 259 00b2 12B2     		sxth	r2, r2
 260 00b4 5343     		mul	r3, r2
 261 00b6 7A69     		ldr	r2, [r7, #20]
 262 00b8 D31A     		sub	r3, r2, r3
ARM GAS  C:\Users\fneves\AppData\Local\Temp\ccWBWjgd.s 			page 10


 263 00ba 7B61     		str	r3, [r7, #20]
 250:Source\TransformFunctions/arm_rfft_q15.c ****         outI = outI + (*(pSrc1 + 1) * *pCoefA);
 264              		.loc 1 250 0
 265 00bc 3B6A     		ldr	r3, [r7, #32]
 266 00be 0233     		add	r3, r3, #2
 267 00c0 1B88     		ldrh	r3, [r3]
 268 00c2 1BB2     		sxth	r3, r3
 269 00c4 BA6A     		ldr	r2, [r7, #40]
 270 00c6 1288     		ldrh	r2, [r2]
 271 00c8 12B2     		sxth	r2, r2
 272 00ca 5343     		mul	r3, r2
 273 00cc 7A69     		ldr	r2, [r7, #20]
 274 00ce D318     		add	r3, r2, r3
 275 00d0 7B61     		str	r3, [r7, #20]
 251:Source\TransformFunctions/arm_rfft_q15.c ****         outI = outI + (*pSrc1 * *(pCoefA + 1));
 276              		.loc 1 251 0
 277 00d2 3B6A     		ldr	r3, [r7, #32]
 278 00d4 1B88     		ldrh	r3, [r3]
 279 00d6 1BB2     		sxth	r3, r3
 280 00d8 BA6A     		ldr	r2, [r7, #40]
 281 00da 0232     		add	r2, r2, #2
 282 00dc 1288     		ldrh	r2, [r2]
 283 00de 12B2     		sxth	r2, r2
 284 00e0 5343     		mul	r3, r2
 285 00e2 7A69     		ldr	r2, [r7, #20]
 286 00e4 D318     		add	r3, r2, r3
 287 00e6 7B61     		str	r3, [r7, #20]
 252:Source\TransformFunctions/arm_rfft_q15.c **** 
 253:Source\TransformFunctions/arm_rfft_q15.c ****         /* update input pointers */
 254:Source\TransformFunctions/arm_rfft_q15.c ****         pSrc1 += 2u;
 288              		.loc 1 254 0
 289 00e8 3B6A     		ldr	r3, [r7, #32]
 290 00ea 0433     		add	r3, r3, #4
 291 00ec 3B62     		str	r3, [r7, #32]
 255:Source\TransformFunctions/arm_rfft_q15.c ****         pSrc2 -= 2u;
 292              		.loc 1 255 0
 293 00ee FB69     		ldr	r3, [r7, #28]
 294 00f0 043B     		sub	r3, r3, #4
 295 00f2 FB61     		str	r3, [r7, #28]
 256:Source\TransformFunctions/arm_rfft_q15.c **** 
 257:Source\TransformFunctions/arm_rfft_q15.c ****         /* write output */
 258:Source\TransformFunctions/arm_rfft_q15.c ****         pDst[2u * i] = (q15_t) outR;
 296              		.loc 1 258 0
 297 00f4 FB6A     		ldr	r3, [r7, #44]
 298 00f6 9B00     		lsl	r3, r3, #2
 299 00f8 BA6B     		ldr	r2, [r7, #56]
 300 00fa D318     		add	r3, r2, r3
 301 00fc BA69     		ldr	r2, [r7, #24]
 302 00fe 92B2     		uxth	r2, r2
 303 0100 1A80     		strh	r2, [r3]
 259:Source\TransformFunctions/arm_rfft_q15.c ****         pDst[(2u * i) + 1u] = outI >> 16u;
 304              		.loc 1 259 0
 305 0102 FB6A     		ldr	r3, [r7, #44]
 306 0104 9B00     		lsl	r3, r3, #2
 307 0106 0233     		add	r3, r3, #2
 308 0108 BA6B     		ldr	r2, [r7, #56]
 309 010a D318     		add	r3, r2, r3
ARM GAS  C:\Users\fneves\AppData\Local\Temp\ccWBWjgd.s 			page 11


 310 010c 7A69     		ldr	r2, [r7, #20]
 311 010e 1214     		asr	r2, r2, #16
 312 0110 92B2     		uxth	r2, r2
 313 0112 1A80     		strh	r2, [r3]
 260:Source\TransformFunctions/arm_rfft_q15.c **** 
 261:Source\TransformFunctions/arm_rfft_q15.c ****         /* write complex conjugate output */
 262:Source\TransformFunctions/arm_rfft_q15.c ****         pDst[(4u * fftLen) - (2u * i)] = (q15_t) outR;
 314              		.loc 1 262 0
 315 0114 BB68     		ldr	r3, [r7, #8]
 316 0116 5A00     		lsl	r2, r3, #1
 317 0118 FB6A     		ldr	r3, [r7, #44]
 318 011a D31A     		sub	r3, r2, r3
 319 011c 9B00     		lsl	r3, r3, #2
 320 011e BA6B     		ldr	r2, [r7, #56]
 321 0120 D318     		add	r3, r2, r3
 322 0122 BA69     		ldr	r2, [r7, #24]
 323 0124 92B2     		uxth	r2, r2
 324 0126 1A80     		strh	r2, [r3]
 263:Source\TransformFunctions/arm_rfft_q15.c ****         pDst[((4u * fftLen) - (2u * i)) + 1u] = -(outI >> 16u);
 325              		.loc 1 263 0
 326 0128 BB68     		ldr	r3, [r7, #8]
 327 012a 5A00     		lsl	r2, r3, #1
 328 012c FB6A     		ldr	r3, [r7, #44]
 329 012e D31A     		sub	r3, r2, r3
 330 0130 9B00     		lsl	r3, r3, #2
 331 0132 0233     		add	r3, r3, #2
 332 0134 BA6B     		ldr	r2, [r7, #56]
 333 0136 D318     		add	r3, r2, r3
 334 0138 7A69     		ldr	r2, [r7, #20]
 335 013a 1214     		asr	r2, r2, #16
 336 013c 92B2     		uxth	r2, r2
 337 013e 5242     		neg	r2, r2
 338 0140 92B2     		uxth	r2, r2
 339 0142 92B2     		uxth	r2, r2
 340 0144 1A80     		strh	r2, [r3]
 264:Source\TransformFunctions/arm_rfft_q15.c **** 
 265:Source\TransformFunctions/arm_rfft_q15.c ****         /* update coefficient pointer */
 266:Source\TransformFunctions/arm_rfft_q15.c ****         pCoefB = pCoefB + (2u * modifier);
 341              		.loc 1 266 0
 342 0146 FB6B     		ldr	r3, [r7, #60]
 343 0148 9B00     		lsl	r3, r3, #2
 344 014a 7A6A     		ldr	r2, [r7, #36]
 345 014c D318     		add	r3, r2, r3
 346 014e 7B62     		str	r3, [r7, #36]
 267:Source\TransformFunctions/arm_rfft_q15.c ****         pCoefA = pCoefA + (2u * modifier);
 347              		.loc 1 267 0
 348 0150 FB6B     		ldr	r3, [r7, #60]
 349 0152 9B00     		lsl	r3, r3, #2
 350 0154 BA6A     		ldr	r2, [r7, #40]
 351 0156 D318     		add	r3, r2, r3
 352 0158 BB62     		str	r3, [r7, #40]
 268:Source\TransformFunctions/arm_rfft_q15.c **** 
 269:Source\TransformFunctions/arm_rfft_q15.c ****         i++;
 353              		.loc 1 269 0
 354 015a FB6A     		ldr	r3, [r7, #44]
 355 015c 0133     		add	r3, r3, #1
 356 015e FB62     		str	r3, [r7, #44]
ARM GAS  C:\Users\fneves\AppData\Local\Temp\ccWBWjgd.s 			page 12


 357              	.L7:
 229:Source\TransformFunctions/arm_rfft_q15.c ****     {
 358              		.loc 1 229 0
 359 0160 FA6A     		ldr	r2, [r7, #44]
 360 0162 BB68     		ldr	r3, [r7, #8]
 361 0164 9A42     		cmp	r2, r3
 362 0166 00D2     		bcs	.LCB309
 363 0168 69E7     		b	.L8	@long jump
 364              	.LCB309:
 270:Source\TransformFunctions/arm_rfft_q15.c ****     }
 271:Source\TransformFunctions/arm_rfft_q15.c **** 
 272:Source\TransformFunctions/arm_rfft_q15.c ****     pDst[2u * fftLen] = (pSrc[0] - pSrc[1]) >> 1;
 365              		.loc 1 272 0
 366 016a BB68     		ldr	r3, [r7, #8]
 367 016c 9B00     		lsl	r3, r3, #2
 368 016e BA6B     		ldr	r2, [r7, #56]
 369 0170 D318     		add	r3, r2, r3
 370 0172 FA68     		ldr	r2, [r7, #12]
 371 0174 1288     		ldrh	r2, [r2]
 372 0176 11B2     		sxth	r1, r2
 373 0178 FA68     		ldr	r2, [r7, #12]
 374 017a 0232     		add	r2, r2, #2
 375 017c 1288     		ldrh	r2, [r2]
 376 017e 12B2     		sxth	r2, r2
 377 0180 8A1A     		sub	r2, r1, r2
 378 0182 5210     		asr	r2, r2, #1
 379 0184 92B2     		uxth	r2, r2
 380 0186 1A80     		strh	r2, [r3]
 273:Source\TransformFunctions/arm_rfft_q15.c ****     pDst[(2u * fftLen) + 1u] = 0;
 381              		.loc 1 273 0
 382 0188 BB68     		ldr	r3, [r7, #8]
 383 018a 9B00     		lsl	r3, r3, #2
 384 018c 0233     		add	r3, r3, #2
 385 018e BA6B     		ldr	r2, [r7, #56]
 386 0190 D318     		add	r3, r2, r3
 387 0192 0022     		mov	r2, #0
 388 0194 1A80     		strh	r2, [r3]
 274:Source\TransformFunctions/arm_rfft_q15.c **** 
 275:Source\TransformFunctions/arm_rfft_q15.c ****     pDst[0] = (pSrc[0] + pSrc[1]) >> 1;
 389              		.loc 1 275 0
 390 0196 FB68     		ldr	r3, [r7, #12]
 391 0198 1B88     		ldrh	r3, [r3]
 392 019a 1AB2     		sxth	r2, r3
 393 019c FB68     		ldr	r3, [r7, #12]
 394 019e 0233     		add	r3, r3, #2
 395 01a0 1B88     		ldrh	r3, [r3]
 396 01a2 1BB2     		sxth	r3, r3
 397 01a4 D318     		add	r3, r2, r3
 398 01a6 5B10     		asr	r3, r3, #1
 399 01a8 9AB2     		uxth	r2, r3
 400 01aa BB6B     		ldr	r3, [r7, #56]
 401 01ac 1A80     		strh	r2, [r3]
 276:Source\TransformFunctions/arm_rfft_q15.c ****     pDst[1] = 0;
 402              		.loc 1 276 0
 403 01ae BB6B     		ldr	r3, [r7, #56]
 404 01b0 0233     		add	r3, r3, #2
 405 01b2 0022     		mov	r2, #0
ARM GAS  C:\Users\fneves\AppData\Local\Temp\ccWBWjgd.s 			page 13


 406 01b4 1A80     		strh	r2, [r3]
 277:Source\TransformFunctions/arm_rfft_q15.c **** 
 278:Source\TransformFunctions/arm_rfft_q15.c **** #endif /* #if defined (ARM_MATH_DSP) */
 279:Source\TransformFunctions/arm_rfft_q15.c **** }
 407              		.loc 1 279 0
 408 01b6 BD46     		mov	sp, r7
 409 01b8 0CB0     		add	sp, sp, #48
 410              		@ sp needed
 411 01ba 80BD     		pop	{r7, pc}
 412              	.L10:
 413              		.align	2
 414              	.L9:
 415 01bc FFFFFF3F 		.word	1073741823
 416              		.cfi_endproc
 417              	.LFE83:
 418              		.size	arm_split_rfft_q15, .-arm_split_rfft_q15
 419              		.section	.text.arm_split_rifft_q15,"ax",%progbits
 420              		.align	2
 421              		.global	arm_split_rifft_q15
 422              		.code	16
 423              		.thumb_func
 424              		.type	arm_split_rifft_q15, %function
 425              	arm_split_rifft_q15:
 426              	.LFB84:
 280:Source\TransformFunctions/arm_rfft_q15.c **** 
 281:Source\TransformFunctions/arm_rfft_q15.c **** 
 282:Source\TransformFunctions/arm_rfft_q15.c **** /**
 283:Source\TransformFunctions/arm_rfft_q15.c **** * @brief  Core Real IFFT process
 284:Source\TransformFunctions/arm_rfft_q15.c **** * @param[in]   *pSrc 				points to the input buffer.
 285:Source\TransformFunctions/arm_rfft_q15.c **** * @param[in]   fftLen  		    length of FFT.
 286:Source\TransformFunctions/arm_rfft_q15.c **** * @param[in]   *pATable 			points to the twiddle Coef A buffer.
 287:Source\TransformFunctions/arm_rfft_q15.c **** * @param[in]   *pBTable 			points to the twiddle Coef B buffer.
 288:Source\TransformFunctions/arm_rfft_q15.c **** * @param[out]  *pDst 				points to the output buffer.
 289:Source\TransformFunctions/arm_rfft_q15.c **** * @param[in]   modifier 	        twiddle coefficient modifier that supports different size FFTs wit
 290:Source\TransformFunctions/arm_rfft_q15.c **** * @return none.
 291:Source\TransformFunctions/arm_rfft_q15.c **** * The function implements a Real IFFT
 292:Source\TransformFunctions/arm_rfft_q15.c **** */
 293:Source\TransformFunctions/arm_rfft_q15.c **** void arm_split_rifft_q15(
 294:Source\TransformFunctions/arm_rfft_q15.c ****     q15_t * pSrc,
 295:Source\TransformFunctions/arm_rfft_q15.c ****     uint32_t fftLen,
 296:Source\TransformFunctions/arm_rfft_q15.c ****     q15_t * pATable,
 297:Source\TransformFunctions/arm_rfft_q15.c ****     q15_t * pBTable,
 298:Source\TransformFunctions/arm_rfft_q15.c ****     q15_t * pDst,
 299:Source\TransformFunctions/arm_rfft_q15.c ****     uint32_t modifier)
 300:Source\TransformFunctions/arm_rfft_q15.c **** {
 427              		.loc 1 300 0
 428              		.cfi_startproc
 429 0000 80B5     		push	{r7, lr}
 430              		.cfi_def_cfa_offset 8
 431              		.cfi_offset 7, -8
 432              		.cfi_offset 14, -4
 433 0002 8CB0     		sub	sp, sp, #48
 434              		.cfi_def_cfa_offset 56
 435 0004 00AF     		add	r7, sp, #0
 436              		.cfi_def_cfa_register 7
 437 0006 F860     		str	r0, [r7, #12]
 438 0008 B960     		str	r1, [r7, #8]
ARM GAS  C:\Users\fneves\AppData\Local\Temp\ccWBWjgd.s 			page 14


 439 000a 7A60     		str	r2, [r7, #4]
 440 000c 3B60     		str	r3, [r7]
 301:Source\TransformFunctions/arm_rfft_q15.c ****     uint32_t i;                                    /* Loop Counter */
 302:Source\TransformFunctions/arm_rfft_q15.c ****     q31_t outR, outI;                              /* Temporary variables for output */
 303:Source\TransformFunctions/arm_rfft_q15.c ****     q15_t *pCoefA, *pCoefB;                        /* Temporary pointers for twiddle factors */
 304:Source\TransformFunctions/arm_rfft_q15.c ****     q15_t *pSrc1, *pSrc2;
 305:Source\TransformFunctions/arm_rfft_q15.c ****     q15_t *pDst1 = &pDst[0];
 441              		.loc 1 305 0
 442 000e BB6B     		ldr	r3, [r7, #56]
 443 0010 BB61     		str	r3, [r7, #24]
 306:Source\TransformFunctions/arm_rfft_q15.c **** 
 307:Source\TransformFunctions/arm_rfft_q15.c ****     pCoefA = &pATable[0];
 444              		.loc 1 307 0
 445 0012 7B68     		ldr	r3, [r7, #4]
 446 0014 BB62     		str	r3, [r7, #40]
 308:Source\TransformFunctions/arm_rfft_q15.c ****     pCoefB = &pBTable[0];
 447              		.loc 1 308 0
 448 0016 3B68     		ldr	r3, [r7]
 449 0018 7B62     		str	r3, [r7, #36]
 309:Source\TransformFunctions/arm_rfft_q15.c **** 
 310:Source\TransformFunctions/arm_rfft_q15.c ****     pSrc1 = &pSrc[0];
 450              		.loc 1 310 0
 451 001a FB68     		ldr	r3, [r7, #12]
 452 001c 3B62     		str	r3, [r7, #32]
 311:Source\TransformFunctions/arm_rfft_q15.c ****     pSrc2 = &pSrc[2u * fftLen];
 453              		.loc 1 311 0
 454 001e BB68     		ldr	r3, [r7, #8]
 455 0020 9B00     		lsl	r3, r3, #2
 456 0022 FA68     		ldr	r2, [r7, #12]
 457 0024 D318     		add	r3, r2, r3
 458 0026 FB61     		str	r3, [r7, #28]
 312:Source\TransformFunctions/arm_rfft_q15.c **** 
 313:Source\TransformFunctions/arm_rfft_q15.c **** #if defined (ARM_MATH_DSP)
 314:Source\TransformFunctions/arm_rfft_q15.c **** 
 315:Source\TransformFunctions/arm_rfft_q15.c ****     /* Run the below code for Cortex-M4 and Cortex-M3 */
 316:Source\TransformFunctions/arm_rfft_q15.c ****     i = fftLen;
 317:Source\TransformFunctions/arm_rfft_q15.c **** 
 318:Source\TransformFunctions/arm_rfft_q15.c ****     while (i > 0u)
 319:Source\TransformFunctions/arm_rfft_q15.c ****     {
 320:Source\TransformFunctions/arm_rfft_q15.c ****         /*
 321:Source\TransformFunctions/arm_rfft_q15.c ****         outR = (pIn[2 * i] * pATable[2 * i] + pIn[2 * i + 1] * pATable[2 * i + 1] +
 322:Source\TransformFunctions/arm_rfft_q15.c ****         pIn[2 * n - 2 * i] * pBTable[2 * i] -
 323:Source\TransformFunctions/arm_rfft_q15.c ****         pIn[2 * n - 2 * i + 1] * pBTable[2 * i + 1]);
 324:Source\TransformFunctions/arm_rfft_q15.c **** 
 325:Source\TransformFunctions/arm_rfft_q15.c ****         outI = (pIn[2 * i + 1] * pATable[2 * i] - pIn[2 * i] * pATable[2 * i + 1] -
 326:Source\TransformFunctions/arm_rfft_q15.c ****         pIn[2 * n - 2 * i] * pBTable[2 * i + 1] -
 327:Source\TransformFunctions/arm_rfft_q15.c ****         pIn[2 * n - 2 * i + 1] * pBTable[2 * i]);
 328:Source\TransformFunctions/arm_rfft_q15.c ****         */
 329:Source\TransformFunctions/arm_rfft_q15.c **** 
 330:Source\TransformFunctions/arm_rfft_q15.c **** 
 331:Source\TransformFunctions/arm_rfft_q15.c **** #ifndef ARM_MATH_BIG_ENDIAN
 332:Source\TransformFunctions/arm_rfft_q15.c **** 
 333:Source\TransformFunctions/arm_rfft_q15.c ****         /* pIn[2 * n - 2 * i] * pBTable[2 * i] -
 334:Source\TransformFunctions/arm_rfft_q15.c ****         pIn[2 * n - 2 * i + 1] * pBTable[2 * i + 1]) */
 335:Source\TransformFunctions/arm_rfft_q15.c ****         outR = __SMUSD(*__SIMD32(pSrc2), *__SIMD32(pCoefB));
 336:Source\TransformFunctions/arm_rfft_q15.c **** 
 337:Source\TransformFunctions/arm_rfft_q15.c **** #else
ARM GAS  C:\Users\fneves\AppData\Local\Temp\ccWBWjgd.s 			page 15


 338:Source\TransformFunctions/arm_rfft_q15.c **** 
 339:Source\TransformFunctions/arm_rfft_q15.c ****         /* -(-pIn[2 * n - 2 * i] * pBTable[2 * i] +
 340:Source\TransformFunctions/arm_rfft_q15.c ****         pIn[2 * n - 2 * i + 1] * pBTable[2 * i + 1])) */
 341:Source\TransformFunctions/arm_rfft_q15.c ****         outR = -(__SMUSD(*__SIMD32(pSrc2), *__SIMD32(pCoefB)));
 342:Source\TransformFunctions/arm_rfft_q15.c **** 
 343:Source\TransformFunctions/arm_rfft_q15.c **** #endif /*      #ifndef ARM_MATH_BIG_ENDIAN     */
 344:Source\TransformFunctions/arm_rfft_q15.c **** 
 345:Source\TransformFunctions/arm_rfft_q15.c ****         /* pIn[2 * i] * pATable[2 * i] + pIn[2 * i + 1] * pATable[2 * i + 1] +
 346:Source\TransformFunctions/arm_rfft_q15.c ****         pIn[2 * n - 2 * i] * pBTable[2 * i] */
 347:Source\TransformFunctions/arm_rfft_q15.c ****         outR = __SMLAD(*__SIMD32(pSrc1), *__SIMD32(pCoefA), outR) >> 16u;
 348:Source\TransformFunctions/arm_rfft_q15.c **** 
 349:Source\TransformFunctions/arm_rfft_q15.c ****         /*
 350:Source\TransformFunctions/arm_rfft_q15.c ****         -pIn[2 * n - 2 * i] * pBTable[2 * i + 1] +
 351:Source\TransformFunctions/arm_rfft_q15.c ****         pIn[2 * n - 2 * i + 1] * pBTable[2 * i] */
 352:Source\TransformFunctions/arm_rfft_q15.c ****         outI = __SMUADX(*__SIMD32(pSrc2)--, *__SIMD32(pCoefB));
 353:Source\TransformFunctions/arm_rfft_q15.c **** 
 354:Source\TransformFunctions/arm_rfft_q15.c ****         /* pIn[2 * i + 1] * pATable[2 * i] - pIn[2 * i] * pATable[2 * i + 1] */
 355:Source\TransformFunctions/arm_rfft_q15.c **** 
 356:Source\TransformFunctions/arm_rfft_q15.c **** #ifndef ARM_MATH_BIG_ENDIAN
 357:Source\TransformFunctions/arm_rfft_q15.c **** 
 358:Source\TransformFunctions/arm_rfft_q15.c ****         outI = __SMLSDX(*__SIMD32(pCoefA), *__SIMD32(pSrc1)++, -outI);
 359:Source\TransformFunctions/arm_rfft_q15.c **** 
 360:Source\TransformFunctions/arm_rfft_q15.c **** #else
 361:Source\TransformFunctions/arm_rfft_q15.c **** 
 362:Source\TransformFunctions/arm_rfft_q15.c ****         outI = __SMLSDX(*__SIMD32(pSrc1)++, *__SIMD32(pCoefA), -outI);
 363:Source\TransformFunctions/arm_rfft_q15.c **** 
 364:Source\TransformFunctions/arm_rfft_q15.c **** #endif /*      #ifndef ARM_MATH_BIG_ENDIAN     */
 365:Source\TransformFunctions/arm_rfft_q15.c ****         /* write output */
 366:Source\TransformFunctions/arm_rfft_q15.c **** 
 367:Source\TransformFunctions/arm_rfft_q15.c **** #ifndef ARM_MATH_BIG_ENDIAN
 368:Source\TransformFunctions/arm_rfft_q15.c **** 
 369:Source\TransformFunctions/arm_rfft_q15.c ****         *__SIMD32(pDst1)++ = __PKHBT(outR, (outI >> 16u), 16);
 370:Source\TransformFunctions/arm_rfft_q15.c **** 
 371:Source\TransformFunctions/arm_rfft_q15.c **** #else
 372:Source\TransformFunctions/arm_rfft_q15.c **** 
 373:Source\TransformFunctions/arm_rfft_q15.c ****         *__SIMD32(pDst1)++ = __PKHBT((outI >> 16u), outR, 16);
 374:Source\TransformFunctions/arm_rfft_q15.c **** 
 375:Source\TransformFunctions/arm_rfft_q15.c **** #endif /*      #ifndef ARM_MATH_BIG_ENDIAN     */
 376:Source\TransformFunctions/arm_rfft_q15.c **** 
 377:Source\TransformFunctions/arm_rfft_q15.c ****         /* update coefficient pointer */
 378:Source\TransformFunctions/arm_rfft_q15.c ****         pCoefB = pCoefB + (2u * modifier);
 379:Source\TransformFunctions/arm_rfft_q15.c ****         pCoefA = pCoefA + (2u * modifier);
 380:Source\TransformFunctions/arm_rfft_q15.c **** 
 381:Source\TransformFunctions/arm_rfft_q15.c ****         i--;
 382:Source\TransformFunctions/arm_rfft_q15.c ****     }
 383:Source\TransformFunctions/arm_rfft_q15.c **** #else
 384:Source\TransformFunctions/arm_rfft_q15.c ****     /* Run the below code for Cortex-M0 */
 385:Source\TransformFunctions/arm_rfft_q15.c ****     i = fftLen;
 459              		.loc 1 385 0
 460 0028 BB68     		ldr	r3, [r7, #8]
 461 002a FB62     		str	r3, [r7, #44]
 386:Source\TransformFunctions/arm_rfft_q15.c **** 
 387:Source\TransformFunctions/arm_rfft_q15.c ****     while (i > 0u)
 462              		.loc 1 387 0
 463 002c 74E0     		b	.L12
 464              	.L13:
 388:Source\TransformFunctions/arm_rfft_q15.c ****     {
ARM GAS  C:\Users\fneves\AppData\Local\Temp\ccWBWjgd.s 			page 16


 389:Source\TransformFunctions/arm_rfft_q15.c ****         /*
 390:Source\TransformFunctions/arm_rfft_q15.c ****         outR = (pIn[2 * i] * pATable[2 * i] + pIn[2 * i + 1] * pATable[2 * i + 1] +
 391:Source\TransformFunctions/arm_rfft_q15.c ****         pIn[2 * n - 2 * i] * pBTable[2 * i] -
 392:Source\TransformFunctions/arm_rfft_q15.c ****         pIn[2 * n - 2 * i + 1] * pBTable[2 * i + 1]);
 393:Source\TransformFunctions/arm_rfft_q15.c ****         */
 394:Source\TransformFunctions/arm_rfft_q15.c **** 
 395:Source\TransformFunctions/arm_rfft_q15.c ****         outR = *pSrc2 * *pCoefB;
 465              		.loc 1 395 0
 466 002e FB69     		ldr	r3, [r7, #28]
 467 0030 1B88     		ldrh	r3, [r3]
 468 0032 1BB2     		sxth	r3, r3
 469 0034 7A6A     		ldr	r2, [r7, #36]
 470 0036 1288     		ldrh	r2, [r2]
 471 0038 12B2     		sxth	r2, r2
 472 003a 5343     		mul	r3, r2
 473 003c 7B61     		str	r3, [r7, #20]
 396:Source\TransformFunctions/arm_rfft_q15.c ****         outR = outR - (*(pSrc2 + 1) * *(pCoefB + 1));
 474              		.loc 1 396 0
 475 003e FB69     		ldr	r3, [r7, #28]
 476 0040 0233     		add	r3, r3, #2
 477 0042 1B88     		ldrh	r3, [r3]
 478 0044 1BB2     		sxth	r3, r3
 479 0046 7A6A     		ldr	r2, [r7, #36]
 480 0048 0232     		add	r2, r2, #2
 481 004a 1288     		ldrh	r2, [r2]
 482 004c 12B2     		sxth	r2, r2
 483 004e 5343     		mul	r3, r2
 484 0050 7A69     		ldr	r2, [r7, #20]
 485 0052 D31A     		sub	r3, r2, r3
 486 0054 7B61     		str	r3, [r7, #20]
 397:Source\TransformFunctions/arm_rfft_q15.c ****         outR = outR + (*pSrc1 * *pCoefA);
 487              		.loc 1 397 0
 488 0056 3B6A     		ldr	r3, [r7, #32]
 489 0058 1B88     		ldrh	r3, [r3]
 490 005a 1BB2     		sxth	r3, r3
 491 005c BA6A     		ldr	r2, [r7, #40]
 492 005e 1288     		ldrh	r2, [r2]
 493 0060 12B2     		sxth	r2, r2
 494 0062 5343     		mul	r3, r2
 495 0064 7A69     		ldr	r2, [r7, #20]
 496 0066 D318     		add	r3, r2, r3
 497 0068 7B61     		str	r3, [r7, #20]
 398:Source\TransformFunctions/arm_rfft_q15.c ****         outR = (outR + (*(pSrc1 + 1) * *(pCoefA + 1))) >> 16;
 498              		.loc 1 398 0
 499 006a 3B6A     		ldr	r3, [r7, #32]
 500 006c 0233     		add	r3, r3, #2
 501 006e 1B88     		ldrh	r3, [r3]
 502 0070 1BB2     		sxth	r3, r3
 503 0072 BA6A     		ldr	r2, [r7, #40]
 504 0074 0232     		add	r2, r2, #2
 505 0076 1288     		ldrh	r2, [r2]
 506 0078 12B2     		sxth	r2, r2
 507 007a 5A43     		mul	r2, r3
 508 007c 7B69     		ldr	r3, [r7, #20]
 509 007e D318     		add	r3, r2, r3
 510 0080 1B14     		asr	r3, r3, #16
 511 0082 7B61     		str	r3, [r7, #20]
ARM GAS  C:\Users\fneves\AppData\Local\Temp\ccWBWjgd.s 			page 17


 399:Source\TransformFunctions/arm_rfft_q15.c **** 
 400:Source\TransformFunctions/arm_rfft_q15.c ****         /*
 401:Source\TransformFunctions/arm_rfft_q15.c ****         outI = (pIn[2 * i + 1] * pATable[2 * i] - pIn[2 * i] * pATable[2 * i + 1] -
 402:Source\TransformFunctions/arm_rfft_q15.c ****         pIn[2 * n - 2 * i] * pBTable[2 * i + 1] -
 403:Source\TransformFunctions/arm_rfft_q15.c ****         pIn[2 * n - 2 * i + 1] * pBTable[2 * i]);
 404:Source\TransformFunctions/arm_rfft_q15.c ****         */
 405:Source\TransformFunctions/arm_rfft_q15.c **** 
 406:Source\TransformFunctions/arm_rfft_q15.c ****         outI = *(pSrc1 + 1) * *pCoefA;
 512              		.loc 1 406 0
 513 0084 3B6A     		ldr	r3, [r7, #32]
 514 0086 0233     		add	r3, r3, #2
 515 0088 1B88     		ldrh	r3, [r3]
 516 008a 1BB2     		sxth	r3, r3
 517 008c BA6A     		ldr	r2, [r7, #40]
 518 008e 1288     		ldrh	r2, [r2]
 519 0090 12B2     		sxth	r2, r2
 520 0092 5343     		mul	r3, r2
 521 0094 3B61     		str	r3, [r7, #16]
 407:Source\TransformFunctions/arm_rfft_q15.c ****         outI = outI - (*pSrc1 * *(pCoefA + 1));
 522              		.loc 1 407 0
 523 0096 3B6A     		ldr	r3, [r7, #32]
 524 0098 1B88     		ldrh	r3, [r3]
 525 009a 1BB2     		sxth	r3, r3
 526 009c BA6A     		ldr	r2, [r7, #40]
 527 009e 0232     		add	r2, r2, #2
 528 00a0 1288     		ldrh	r2, [r2]
 529 00a2 12B2     		sxth	r2, r2
 530 00a4 5343     		mul	r3, r2
 531 00a6 3A69     		ldr	r2, [r7, #16]
 532 00a8 D31A     		sub	r3, r2, r3
 533 00aa 3B61     		str	r3, [r7, #16]
 408:Source\TransformFunctions/arm_rfft_q15.c ****         outI = outI - (*pSrc2 * *(pCoefB + 1));
 534              		.loc 1 408 0
 535 00ac FB69     		ldr	r3, [r7, #28]
 536 00ae 1B88     		ldrh	r3, [r3]
 537 00b0 1BB2     		sxth	r3, r3
 538 00b2 7A6A     		ldr	r2, [r7, #36]
 539 00b4 0232     		add	r2, r2, #2
 540 00b6 1288     		ldrh	r2, [r2]
 541 00b8 12B2     		sxth	r2, r2
 542 00ba 5343     		mul	r3, r2
 543 00bc 3A69     		ldr	r2, [r7, #16]
 544 00be D31A     		sub	r3, r2, r3
 545 00c0 3B61     		str	r3, [r7, #16]
 409:Source\TransformFunctions/arm_rfft_q15.c ****         outI = outI - (*(pSrc2 + 1) * *(pCoefB));
 546              		.loc 1 409 0
 547 00c2 FB69     		ldr	r3, [r7, #28]
 548 00c4 0233     		add	r3, r3, #2
 549 00c6 1B88     		ldrh	r3, [r3]
 550 00c8 1BB2     		sxth	r3, r3
 551 00ca 7A6A     		ldr	r2, [r7, #36]
 552 00cc 1288     		ldrh	r2, [r2]
 553 00ce 12B2     		sxth	r2, r2
 554 00d0 5343     		mul	r3, r2
 555 00d2 3A69     		ldr	r2, [r7, #16]
 556 00d4 D31A     		sub	r3, r2, r3
 557 00d6 3B61     		str	r3, [r7, #16]
ARM GAS  C:\Users\fneves\AppData\Local\Temp\ccWBWjgd.s 			page 18


 410:Source\TransformFunctions/arm_rfft_q15.c **** 
 411:Source\TransformFunctions/arm_rfft_q15.c ****         /* update input pointers */
 412:Source\TransformFunctions/arm_rfft_q15.c ****         pSrc1 += 2u;
 558              		.loc 1 412 0
 559 00d8 3B6A     		ldr	r3, [r7, #32]
 560 00da 0433     		add	r3, r3, #4
 561 00dc 3B62     		str	r3, [r7, #32]
 413:Source\TransformFunctions/arm_rfft_q15.c ****         pSrc2 -= 2u;
 562              		.loc 1 413 0
 563 00de FB69     		ldr	r3, [r7, #28]
 564 00e0 043B     		sub	r3, r3, #4
 565 00e2 FB61     		str	r3, [r7, #28]
 414:Source\TransformFunctions/arm_rfft_q15.c **** 
 415:Source\TransformFunctions/arm_rfft_q15.c ****         /* write output */
 416:Source\TransformFunctions/arm_rfft_q15.c ****         *pDst1++ = (q15_t) outR;
 566              		.loc 1 416 0
 567 00e4 BB69     		ldr	r3, [r7, #24]
 568 00e6 9A1C     		add	r2, r3, #2
 569 00e8 BA61     		str	r2, [r7, #24]
 570 00ea 7A69     		ldr	r2, [r7, #20]
 571 00ec 92B2     		uxth	r2, r2
 572 00ee 1A80     		strh	r2, [r3]
 417:Source\TransformFunctions/arm_rfft_q15.c ****         *pDst1++ = (q15_t) (outI >> 16);
 573              		.loc 1 417 0
 574 00f0 BB69     		ldr	r3, [r7, #24]
 575 00f2 9A1C     		add	r2, r3, #2
 576 00f4 BA61     		str	r2, [r7, #24]
 577 00f6 3A69     		ldr	r2, [r7, #16]
 578 00f8 1214     		asr	r2, r2, #16
 579 00fa 92B2     		uxth	r2, r2
 580 00fc 1A80     		strh	r2, [r3]
 418:Source\TransformFunctions/arm_rfft_q15.c **** 
 419:Source\TransformFunctions/arm_rfft_q15.c ****         /* update coefficient pointer */
 420:Source\TransformFunctions/arm_rfft_q15.c ****         pCoefB = pCoefB + (2u * modifier);
 581              		.loc 1 420 0
 582 00fe FB6B     		ldr	r3, [r7, #60]
 583 0100 9B00     		lsl	r3, r3, #2
 584 0102 7A6A     		ldr	r2, [r7, #36]
 585 0104 D318     		add	r3, r2, r3
 586 0106 7B62     		str	r3, [r7, #36]
 421:Source\TransformFunctions/arm_rfft_q15.c ****         pCoefA = pCoefA + (2u * modifier);
 587              		.loc 1 421 0
 588 0108 FB6B     		ldr	r3, [r7, #60]
 589 010a 9B00     		lsl	r3, r3, #2
 590 010c BA6A     		ldr	r2, [r7, #40]
 591 010e D318     		add	r3, r2, r3
 592 0110 BB62     		str	r3, [r7, #40]
 422:Source\TransformFunctions/arm_rfft_q15.c **** 
 423:Source\TransformFunctions/arm_rfft_q15.c ****         i--;
 593              		.loc 1 423 0
 594 0112 FB6A     		ldr	r3, [r7, #44]
 595 0114 013B     		sub	r3, r3, #1
 596 0116 FB62     		str	r3, [r7, #44]
 597              	.L12:
 387:Source\TransformFunctions/arm_rfft_q15.c ****     {
 598              		.loc 1 387 0
 599 0118 FB6A     		ldr	r3, [r7, #44]
ARM GAS  C:\Users\fneves\AppData\Local\Temp\ccWBWjgd.s 			page 19


 600 011a 002B     		cmp	r3, #0
 601 011c 00D0     		beq	.LCB520
 602 011e 86E7     		b	.L13	@long jump
 603              	.LCB520:
 424:Source\TransformFunctions/arm_rfft_q15.c ****     }
 425:Source\TransformFunctions/arm_rfft_q15.c **** #endif /* #if defined (ARM_MATH_DSP) */
 426:Source\TransformFunctions/arm_rfft_q15.c **** }
 604              		.loc 1 426 0
 605 0120 BD46     		mov	sp, r7
 606 0122 0CB0     		add	sp, sp, #48
 607              		@ sp needed
 608 0124 80BD     		pop	{r7, pc}
 609              		.cfi_endproc
 610              	.LFE84:
 611              		.size	arm_split_rifft_q15, .-arm_split_rifft_q15
 612 0126 C046     		.text
 613              	.Letext0:
 614              		.file 2 "c:\\program files (x86)\\cypress\\psoc creator\\4.0\\psoc creator\\import\\gnu\\arm\\4.9.
 615              		.file 3 "c:\\program files (x86)\\cypress\\psoc creator\\4.0\\psoc creator\\import\\gnu\\arm\\4.9.
 616              		.file 4 ".\\Include/arm_math.h"