ARM GAS  C:\Users\fneves\AppData\Local\Temp\ccUETTSu.s 			page 1


   1              		.cpu cortex-m0plus
   2              		.fpu softvfp
   3              		.eabi_attribute 20, 1
   4              		.eabi_attribute 21, 1
   5              		.eabi_attribute 23, 3
   6              		.eabi_attribute 24, 1
   7              		.eabi_attribute 25, 1
   8              		.eabi_attribute 26, 1
   9              		.eabi_attribute 30, 6
  10              		.eabi_attribute 34, 0
  11              		.eabi_attribute 18, 4
  12              		.code	16
  13              		.file	"arm_biquad_cascade_df1_32x64_init_q31.c"
  14              		.text
  15              	.Ltext0:
  16              		.cfi_sections	.debug_frame
  17              		.section	.text.arm_biquad_cas_df1_32x64_init_q31,"ax",%progbits
  18              		.align	2
  19              		.global	arm_biquad_cas_df1_32x64_init_q31
  20              		.code	16
  21              		.thumb_func
  22              		.type	arm_biquad_cas_df1_32x64_init_q31, %function
  23              	arm_biquad_cas_df1_32x64_init_q31:
  24              	.LFB82:
  25              		.file 1 "Source\\FilteringFunctions\\arm_biquad_cascade_df1_32x64_init_q31.c"
   1:Source\FilteringFunctions/arm_biquad_cascade_df1_32x64_init_q31.c **** /* ----------------------------------------------------------------------
   2:Source\FilteringFunctions/arm_biquad_cascade_df1_32x64_init_q31.c ****  * Project:      CMSIS DSP Library
   3:Source\FilteringFunctions/arm_biquad_cascade_df1_32x64_init_q31.c ****  * Title:        arm_biquad_cascade_df1_32x64_init_q31.c
   4:Source\FilteringFunctions/arm_biquad_cascade_df1_32x64_init_q31.c ****  * Description:  High precision Q31 Biquad cascade filter initialization function
   5:Source\FilteringFunctions/arm_biquad_cascade_df1_32x64_init_q31.c ****  *
   6:Source\FilteringFunctions/arm_biquad_cascade_df1_32x64_init_q31.c ****  * $Date:        27. January 2017
   7:Source\FilteringFunctions/arm_biquad_cascade_df1_32x64_init_q31.c ****  * $Revision:    V.1.5.1
   8:Source\FilteringFunctions/arm_biquad_cascade_df1_32x64_init_q31.c ****  *
   9:Source\FilteringFunctions/arm_biquad_cascade_df1_32x64_init_q31.c ****  * Target Processor: Cortex-M cores
  10:Source\FilteringFunctions/arm_biquad_cascade_df1_32x64_init_q31.c ****  * -------------------------------------------------------------------- */
  11:Source\FilteringFunctions/arm_biquad_cascade_df1_32x64_init_q31.c **** /*
  12:Source\FilteringFunctions/arm_biquad_cascade_df1_32x64_init_q31.c ****  * Copyright (C) 2010-2017 ARM Limited or its affiliates. All rights reserved.
  13:Source\FilteringFunctions/arm_biquad_cascade_df1_32x64_init_q31.c ****  *
  14:Source\FilteringFunctions/arm_biquad_cascade_df1_32x64_init_q31.c ****  * SPDX-License-Identifier: Apache-2.0
  15:Source\FilteringFunctions/arm_biquad_cascade_df1_32x64_init_q31.c ****  *
  16:Source\FilteringFunctions/arm_biquad_cascade_df1_32x64_init_q31.c ****  * Licensed under the Apache License, Version 2.0 (the License); you may
  17:Source\FilteringFunctions/arm_biquad_cascade_df1_32x64_init_q31.c ****  * not use this file except in compliance with the License.
  18:Source\FilteringFunctions/arm_biquad_cascade_df1_32x64_init_q31.c ****  * You may obtain a copy of the License at
  19:Source\FilteringFunctions/arm_biquad_cascade_df1_32x64_init_q31.c ****  *
  20:Source\FilteringFunctions/arm_biquad_cascade_df1_32x64_init_q31.c ****  * www.apache.org/licenses/LICENSE-2.0
  21:Source\FilteringFunctions/arm_biquad_cascade_df1_32x64_init_q31.c ****  *
  22:Source\FilteringFunctions/arm_biquad_cascade_df1_32x64_init_q31.c ****  * Unless required by applicable law or agreed to in writing, software
  23:Source\FilteringFunctions/arm_biquad_cascade_df1_32x64_init_q31.c ****  * distributed under the License is distributed on an AS IS BASIS, WITHOUT
  24:Source\FilteringFunctions/arm_biquad_cascade_df1_32x64_init_q31.c ****  * WARRANTIES OR CONDITIONS OF ANY KIND, either express or implied.
  25:Source\FilteringFunctions/arm_biquad_cascade_df1_32x64_init_q31.c ****  * See the License for the specific language governing permissions and
  26:Source\FilteringFunctions/arm_biquad_cascade_df1_32x64_init_q31.c ****  * limitations under the License.
  27:Source\FilteringFunctions/arm_biquad_cascade_df1_32x64_init_q31.c ****  */
  28:Source\FilteringFunctions/arm_biquad_cascade_df1_32x64_init_q31.c **** 
  29:Source\FilteringFunctions/arm_biquad_cascade_df1_32x64_init_q31.c **** #include "arm_math.h"
  30:Source\FilteringFunctions/arm_biquad_cascade_df1_32x64_init_q31.c **** 
  31:Source\FilteringFunctions/arm_biquad_cascade_df1_32x64_init_q31.c **** /**
  32:Source\FilteringFunctions/arm_biquad_cascade_df1_32x64_init_q31.c ****  * @ingroup groupFilters
ARM GAS  C:\Users\fneves\AppData\Local\Temp\ccUETTSu.s 			page 2


  33:Source\FilteringFunctions/arm_biquad_cascade_df1_32x64_init_q31.c ****  */
  34:Source\FilteringFunctions/arm_biquad_cascade_df1_32x64_init_q31.c **** 
  35:Source\FilteringFunctions/arm_biquad_cascade_df1_32x64_init_q31.c **** /**
  36:Source\FilteringFunctions/arm_biquad_cascade_df1_32x64_init_q31.c ****  * @addtogroup BiquadCascadeDF1_32x64
  37:Source\FilteringFunctions/arm_biquad_cascade_df1_32x64_init_q31.c ****  * @{
  38:Source\FilteringFunctions/arm_biquad_cascade_df1_32x64_init_q31.c ****  */
  39:Source\FilteringFunctions/arm_biquad_cascade_df1_32x64_init_q31.c **** 
  40:Source\FilteringFunctions/arm_biquad_cascade_df1_32x64_init_q31.c **** /**
  41:Source\FilteringFunctions/arm_biquad_cascade_df1_32x64_init_q31.c ****  * @details
  42:Source\FilteringFunctions/arm_biquad_cascade_df1_32x64_init_q31.c ****  *
  43:Source\FilteringFunctions/arm_biquad_cascade_df1_32x64_init_q31.c ****  * @param[in,out] *S           	points to an instance of the high precision Q31 Biquad cascade filt
  44:Source\FilteringFunctions/arm_biquad_cascade_df1_32x64_init_q31.c ****  * @param[in]     numStages     number of 2nd order stages in the filter.
  45:Source\FilteringFunctions/arm_biquad_cascade_df1_32x64_init_q31.c ****  * @param[in]     *pCoeffs      points to the filter coefficients.
  46:Source\FilteringFunctions/arm_biquad_cascade_df1_32x64_init_q31.c ****  * @param[in]     *pState       points to the state buffer.
  47:Source\FilteringFunctions/arm_biquad_cascade_df1_32x64_init_q31.c ****  * @param[in]     postShift     Shift to be applied after the accumulator.  Varies according to the
  48:Source\FilteringFunctions/arm_biquad_cascade_df1_32x64_init_q31.c ****  * @return        none
  49:Source\FilteringFunctions/arm_biquad_cascade_df1_32x64_init_q31.c ****  *
  50:Source\FilteringFunctions/arm_biquad_cascade_df1_32x64_init_q31.c ****  * <b>Coefficient and State Ordering:</b>
  51:Source\FilteringFunctions/arm_biquad_cascade_df1_32x64_init_q31.c ****  *
  52:Source\FilteringFunctions/arm_biquad_cascade_df1_32x64_init_q31.c ****  * \par
  53:Source\FilteringFunctions/arm_biquad_cascade_df1_32x64_init_q31.c ****  * The coefficients are stored in the array <code>pCoeffs</code> in the following order:
  54:Source\FilteringFunctions/arm_biquad_cascade_df1_32x64_init_q31.c ****  * <pre>
  55:Source\FilteringFunctions/arm_biquad_cascade_df1_32x64_init_q31.c ****  *     {b10, b11, b12, a11, a12, b20, b21, b22, a21, a22, ...}
  56:Source\FilteringFunctions/arm_biquad_cascade_df1_32x64_init_q31.c ****  * </pre>
  57:Source\FilteringFunctions/arm_biquad_cascade_df1_32x64_init_q31.c ****  * where <code>b1x</code> and <code>a1x</code> are the coefficients for the first stage,
  58:Source\FilteringFunctions/arm_biquad_cascade_df1_32x64_init_q31.c ****  * <code>b2x</code> and <code>a2x</code> are the coefficients for the second stage,
  59:Source\FilteringFunctions/arm_biquad_cascade_df1_32x64_init_q31.c ****  * and so on.  The <code>pCoeffs</code> array contains a total of <code>5*numStages</code> values.
  60:Source\FilteringFunctions/arm_biquad_cascade_df1_32x64_init_q31.c ****  *
  61:Source\FilteringFunctions/arm_biquad_cascade_df1_32x64_init_q31.c ****  * \par
  62:Source\FilteringFunctions/arm_biquad_cascade_df1_32x64_init_q31.c ****  * The <code>pState</code> points to state variables array and size of each state variable is 1.63 
  63:Source\FilteringFunctions/arm_biquad_cascade_df1_32x64_init_q31.c ****  * Each Biquad stage has 4 state variables <code>x[n-1], x[n-2], y[n-1],</code> and <code>y[n-2]</c
  64:Source\FilteringFunctions/arm_biquad_cascade_df1_32x64_init_q31.c ****  * The state variables are arranged in the state array as:
  65:Source\FilteringFunctions/arm_biquad_cascade_df1_32x64_init_q31.c ****  * <pre>
  66:Source\FilteringFunctions/arm_biquad_cascade_df1_32x64_init_q31.c ****  *     {x[n-1], x[n-2], y[n-1], y[n-2]}
  67:Source\FilteringFunctions/arm_biquad_cascade_df1_32x64_init_q31.c ****  * </pre>
  68:Source\FilteringFunctions/arm_biquad_cascade_df1_32x64_init_q31.c ****  * The 4 state variables for stage 1 are first, then the 4 state variables for stage 2, and so on.
  69:Source\FilteringFunctions/arm_biquad_cascade_df1_32x64_init_q31.c ****  * The state array has a total length of <code>4*numStages</code> values.
  70:Source\FilteringFunctions/arm_biquad_cascade_df1_32x64_init_q31.c ****  * The state variables are updated after each block of data is processed; the coefficients are unto
  71:Source\FilteringFunctions/arm_biquad_cascade_df1_32x64_init_q31.c ****  */
  72:Source\FilteringFunctions/arm_biquad_cascade_df1_32x64_init_q31.c **** 
  73:Source\FilteringFunctions/arm_biquad_cascade_df1_32x64_init_q31.c **** void arm_biquad_cas_df1_32x64_init_q31(
  74:Source\FilteringFunctions/arm_biquad_cascade_df1_32x64_init_q31.c ****   arm_biquad_cas_df1_32x64_ins_q31 * S,
  75:Source\FilteringFunctions/arm_biquad_cascade_df1_32x64_init_q31.c ****   uint8_t numStages,
  76:Source\FilteringFunctions/arm_biquad_cascade_df1_32x64_init_q31.c ****   q31_t * pCoeffs,
  77:Source\FilteringFunctions/arm_biquad_cascade_df1_32x64_init_q31.c ****   q63_t * pState,
  78:Source\FilteringFunctions/arm_biquad_cascade_df1_32x64_init_q31.c ****   uint8_t postShift)
  79:Source\FilteringFunctions/arm_biquad_cascade_df1_32x64_init_q31.c **** {
  26              		.loc 1 79 0
  27              		.cfi_startproc
  28 0000 80B5     		push	{r7, lr}
  29              		.cfi_def_cfa_offset 8
  30              		.cfi_offset 7, -8
  31              		.cfi_offset 14, -4
  32 0002 84B0     		sub	sp, sp, #16
  33              		.cfi_def_cfa_offset 24
  34 0004 00AF     		add	r7, sp, #0
  35              		.cfi_def_cfa_register 7
ARM GAS  C:\Users\fneves\AppData\Local\Temp\ccUETTSu.s 			page 3


  36 0006 F860     		str	r0, [r7, #12]
  37 0008 7A60     		str	r2, [r7, #4]
  38 000a 3B60     		str	r3, [r7]
  39 000c 0B23     		mov	r3, #11
  40 000e FB18     		add	r3, r7, r3
  41 0010 0A1C     		add	r2, r1, #0
  42 0012 1A70     		strb	r2, [r3]
  80:Source\FilteringFunctions/arm_biquad_cascade_df1_32x64_init_q31.c ****   /* Assign filter stages */
  81:Source\FilteringFunctions/arm_biquad_cascade_df1_32x64_init_q31.c ****   S->numStages = numStages;
  43              		.loc 1 81 0
  44 0014 FB68     		ldr	r3, [r7, #12]
  45 0016 0B22     		mov	r2, #11
  46 0018 BA18     		add	r2, r7, r2
  47 001a 1278     		ldrb	r2, [r2]
  48 001c 1A70     		strb	r2, [r3]
  82:Source\FilteringFunctions/arm_biquad_cascade_df1_32x64_init_q31.c **** 
  83:Source\FilteringFunctions/arm_biquad_cascade_df1_32x64_init_q31.c ****   /* Assign postShift to be applied to the output */
  84:Source\FilteringFunctions/arm_biquad_cascade_df1_32x64_init_q31.c ****   S->postShift = postShift;
  49              		.loc 1 84 0
  50 001e FB68     		ldr	r3, [r7, #12]
  51 0020 1822     		mov	r2, #24
  52 0022 BA18     		add	r2, r7, r2
  53 0024 1278     		ldrb	r2, [r2]
  54 0026 1A73     		strb	r2, [r3, #12]
  85:Source\FilteringFunctions/arm_biquad_cascade_df1_32x64_init_q31.c **** 
  86:Source\FilteringFunctions/arm_biquad_cascade_df1_32x64_init_q31.c ****   /* Assign coefficient pointer */
  87:Source\FilteringFunctions/arm_biquad_cascade_df1_32x64_init_q31.c ****   S->pCoeffs = pCoeffs;
  55              		.loc 1 87 0
  56 0028 FB68     		ldr	r3, [r7, #12]
  57 002a 7A68     		ldr	r2, [r7, #4]
  58 002c 9A60     		str	r2, [r3, #8]
  88:Source\FilteringFunctions/arm_biquad_cascade_df1_32x64_init_q31.c **** 
  89:Source\FilteringFunctions/arm_biquad_cascade_df1_32x64_init_q31.c ****   /* Clear state buffer and size is always 4 * numStages */
  90:Source\FilteringFunctions/arm_biquad_cascade_df1_32x64_init_q31.c ****   memset(pState, 0, (4u * (uint32_t) numStages) * sizeof(q63_t));
  59              		.loc 1 90 0
  60 002e 0B23     		mov	r3, #11
  61 0030 FB18     		add	r3, r7, r3
  62 0032 1B78     		ldrb	r3, [r3]
  63 0034 5B01     		lsl	r3, r3, #5
  64 0036 3A68     		ldr	r2, [r7]
  65 0038 101C     		mov	r0, r2
  66 003a 0021     		mov	r1, #0
  67 003c 1A1C     		mov	r2, r3
  68 003e FFF7FEFF 		bl	memset
  91:Source\FilteringFunctions/arm_biquad_cascade_df1_32x64_init_q31.c **** 
  92:Source\FilteringFunctions/arm_biquad_cascade_df1_32x64_init_q31.c ****   /* Assign state pointer */
  93:Source\FilteringFunctions/arm_biquad_cascade_df1_32x64_init_q31.c ****   S->pState = pState;
  69              		.loc 1 93 0
  70 0042 FB68     		ldr	r3, [r7, #12]
  71 0044 3A68     		ldr	r2, [r7]
  72 0046 5A60     		str	r2, [r3, #4]
  94:Source\FilteringFunctions/arm_biquad_cascade_df1_32x64_init_q31.c **** }
  73              		.loc 1 94 0
  74 0048 BD46     		mov	sp, r7
  75 004a 04B0     		add	sp, sp, #16
  76              		@ sp needed
  77 004c 80BD     		pop	{r7, pc}
ARM GAS  C:\Users\fneves\AppData\Local\Temp\ccUETTSu.s 			page 4


  78              		.cfi_endproc
  79              	.LFE82:
  80              		.size	arm_biquad_cas_df1_32x64_init_q31, .-arm_biquad_cas_df1_32x64_init_q31
  81 004e C046     		.text
  82              	.Letext0:
  83              		.file 2 "c:\\program files (x86)\\cypress\\psoc creator\\4.0\\psoc creator\\import\\gnu\\arm\\4.9.
  84              		.file 3 "c:\\program files (x86)\\cypress\\psoc creator\\4.0\\psoc creator\\import\\gnu\\arm\\4.9.
  85              		.file 4 ".\\Include/arm_math.h"