ARM GAS  C:\Users\fneves\AppData\Local\Temp\ccy6Cdbg.s 			page 1


   1              		.cpu cortex-m0plus
   2              		.fpu softvfp
   3              		.eabi_attribute 20, 1
   4              		.eabi_attribute 21, 1
   5              		.eabi_attribute 23, 3
   6              		.eabi_attribute 24, 1
   7              		.eabi_attribute 25, 1
   8              		.eabi_attribute 26, 1
   9              		.eabi_attribute 30, 6
  10              		.eabi_attribute 34, 0
  11              		.eabi_attribute 18, 4
  12              		.code	16
  13              		.file	"arm_mat_inverse_f64.c"
  14              		.text
  15              	.Ltext0:
  16              		.cfi_sections	.debug_frame
  17              		.global	__aeabi_dcmpeq
  18              		.global	__aeabi_ddiv
  19              		.global	__aeabi_dmul
  20              		.global	__aeabi_dsub
  21              		.section	.text.arm_mat_inverse_f64,"ax",%progbits
  22              		.align	2
  23              		.global	arm_mat_inverse_f64
  24              		.code	16
  25              		.thumb_func
  26              		.type	arm_mat_inverse_f64, %function
  27              	arm_mat_inverse_f64:
  28              	.LFB82:
  29              		.file 1 "Source\\MatrixFunctions\\arm_mat_inverse_f64.c"
   1:Source\MatrixFunctions/arm_mat_inverse_f64.c **** /* ----------------------------------------------------------------------
   2:Source\MatrixFunctions/arm_mat_inverse_f64.c ****  * Project:      CMSIS DSP Library
   3:Source\MatrixFunctions/arm_mat_inverse_f64.c ****  * Title:        arm_mat_inverse_f64.c
   4:Source\MatrixFunctions/arm_mat_inverse_f64.c ****  * Description:  Floating-point matrix inverse
   5:Source\MatrixFunctions/arm_mat_inverse_f64.c ****  *
   6:Source\MatrixFunctions/arm_mat_inverse_f64.c ****  * $Date:        27. January 2017
   7:Source\MatrixFunctions/arm_mat_inverse_f64.c ****  * $Revision:    V.1.5.1
   8:Source\MatrixFunctions/arm_mat_inverse_f64.c ****  *
   9:Source\MatrixFunctions/arm_mat_inverse_f64.c ****  * Target Processor: Cortex-M cores
  10:Source\MatrixFunctions/arm_mat_inverse_f64.c ****  * -------------------------------------------------------------------- */
  11:Source\MatrixFunctions/arm_mat_inverse_f64.c **** /*
  12:Source\MatrixFunctions/arm_mat_inverse_f64.c ****  * Copyright (C) 2010-2017 ARM Limited or its affiliates. All rights reserved.
  13:Source\MatrixFunctions/arm_mat_inverse_f64.c ****  *
  14:Source\MatrixFunctions/arm_mat_inverse_f64.c ****  * SPDX-License-Identifier: Apache-2.0
  15:Source\MatrixFunctions/arm_mat_inverse_f64.c ****  *
  16:Source\MatrixFunctions/arm_mat_inverse_f64.c ****  * Licensed under the Apache License, Version 2.0 (the License); you may
  17:Source\MatrixFunctions/arm_mat_inverse_f64.c ****  * not use this file except in compliance with the License.
  18:Source\MatrixFunctions/arm_mat_inverse_f64.c ****  * You may obtain a copy of the License at
  19:Source\MatrixFunctions/arm_mat_inverse_f64.c ****  *
  20:Source\MatrixFunctions/arm_mat_inverse_f64.c ****  * www.apache.org/licenses/LICENSE-2.0
  21:Source\MatrixFunctions/arm_mat_inverse_f64.c ****  *
  22:Source\MatrixFunctions/arm_mat_inverse_f64.c ****  * Unless required by applicable law or agreed to in writing, software
  23:Source\MatrixFunctions/arm_mat_inverse_f64.c ****  * distributed under the License is distributed on an AS IS BASIS, WITHOUT
  24:Source\MatrixFunctions/arm_mat_inverse_f64.c ****  * WARRANTIES OR CONDITIONS OF ANY KIND, either express or implied.
  25:Source\MatrixFunctions/arm_mat_inverse_f64.c ****  * See the License for the specific language governing permissions and
  26:Source\MatrixFunctions/arm_mat_inverse_f64.c ****  * limitations under the License.
  27:Source\MatrixFunctions/arm_mat_inverse_f64.c ****  */
  28:Source\MatrixFunctions/arm_mat_inverse_f64.c **** 
ARM GAS  C:\Users\fneves\AppData\Local\Temp\ccy6Cdbg.s 			page 2


  29:Source\MatrixFunctions/arm_mat_inverse_f64.c **** #include "arm_math.h"
  30:Source\MatrixFunctions/arm_mat_inverse_f64.c **** 
  31:Source\MatrixFunctions/arm_mat_inverse_f64.c **** /**
  32:Source\MatrixFunctions/arm_mat_inverse_f64.c ****  * @ingroup groupMatrix
  33:Source\MatrixFunctions/arm_mat_inverse_f64.c ****  */
  34:Source\MatrixFunctions/arm_mat_inverse_f64.c **** 
  35:Source\MatrixFunctions/arm_mat_inverse_f64.c **** /**
  36:Source\MatrixFunctions/arm_mat_inverse_f64.c ****  * @defgroup MatrixInv Matrix Inverse
  37:Source\MatrixFunctions/arm_mat_inverse_f64.c ****  *
  38:Source\MatrixFunctions/arm_mat_inverse_f64.c ****  * Computes the inverse of a matrix.
  39:Source\MatrixFunctions/arm_mat_inverse_f64.c ****  *
  40:Source\MatrixFunctions/arm_mat_inverse_f64.c ****  * The inverse is defined only if the input matrix is square and non-singular (the determinant
  41:Source\MatrixFunctions/arm_mat_inverse_f64.c ****  * is non-zero). The function checks that the input and output matrices are square and of the
  42:Source\MatrixFunctions/arm_mat_inverse_f64.c ****  * same size.
  43:Source\MatrixFunctions/arm_mat_inverse_f64.c ****  *
  44:Source\MatrixFunctions/arm_mat_inverse_f64.c ****  * Matrix inversion is numerically sensitive and the CMSIS DSP library only supports matrix
  45:Source\MatrixFunctions/arm_mat_inverse_f64.c ****  * inversion of floating-point matrices.
  46:Source\MatrixFunctions/arm_mat_inverse_f64.c ****  *
  47:Source\MatrixFunctions/arm_mat_inverse_f64.c ****  * \par Algorithm
  48:Source\MatrixFunctions/arm_mat_inverse_f64.c ****  * The Gauss-Jordan method is used to find the inverse.
  49:Source\MatrixFunctions/arm_mat_inverse_f64.c ****  * The algorithm performs a sequence of elementary row-operations until it
  50:Source\MatrixFunctions/arm_mat_inverse_f64.c ****  * reduces the input matrix to an identity matrix. Applying the same sequence
  51:Source\MatrixFunctions/arm_mat_inverse_f64.c ****  * of elementary row-operations to an identity matrix yields the inverse matrix.
  52:Source\MatrixFunctions/arm_mat_inverse_f64.c ****  * If the input matrix is singular, then the algorithm terminates and returns error status
  53:Source\MatrixFunctions/arm_mat_inverse_f64.c ****  * <code>ARM_MATH_SINGULAR</code>.
  54:Source\MatrixFunctions/arm_mat_inverse_f64.c ****  * \image html MatrixInverse.gif "Matrix Inverse of a 3 x 3 matrix using Gauss-Jordan Method"
  55:Source\MatrixFunctions/arm_mat_inverse_f64.c ****  */
  56:Source\MatrixFunctions/arm_mat_inverse_f64.c **** 
  57:Source\MatrixFunctions/arm_mat_inverse_f64.c **** /**
  58:Source\MatrixFunctions/arm_mat_inverse_f64.c ****  * @addtogroup MatrixInv
  59:Source\MatrixFunctions/arm_mat_inverse_f64.c ****  * @{
  60:Source\MatrixFunctions/arm_mat_inverse_f64.c ****  */
  61:Source\MatrixFunctions/arm_mat_inverse_f64.c **** 
  62:Source\MatrixFunctions/arm_mat_inverse_f64.c **** /**
  63:Source\MatrixFunctions/arm_mat_inverse_f64.c ****  * @brief Floating-point matrix inverse.
  64:Source\MatrixFunctions/arm_mat_inverse_f64.c ****  * @param[in]       *pSrc points to input matrix structure
  65:Source\MatrixFunctions/arm_mat_inverse_f64.c ****  * @param[out]      *pDst points to output matrix structure
  66:Source\MatrixFunctions/arm_mat_inverse_f64.c ****  * @return     		The function returns
  67:Source\MatrixFunctions/arm_mat_inverse_f64.c ****  * <code>ARM_MATH_SIZE_MISMATCH</code> if the input matrix is not square or if the size
  68:Source\MatrixFunctions/arm_mat_inverse_f64.c ****  * of the output matrix does not match the size of the input matrix.
  69:Source\MatrixFunctions/arm_mat_inverse_f64.c ****  * If the input matrix is found to be singular (non-invertible), then the function returns
  70:Source\MatrixFunctions/arm_mat_inverse_f64.c ****  * <code>ARM_MATH_SINGULAR</code>.  Otherwise, the function returns <code>ARM_MATH_SUCCESS</code>.
  71:Source\MatrixFunctions/arm_mat_inverse_f64.c ****  */
  72:Source\MatrixFunctions/arm_mat_inverse_f64.c **** 
  73:Source\MatrixFunctions/arm_mat_inverse_f64.c **** arm_status arm_mat_inverse_f64(
  74:Source\MatrixFunctions/arm_mat_inverse_f64.c ****   const arm_matrix_instance_f64 * pSrc,
  75:Source\MatrixFunctions/arm_mat_inverse_f64.c ****   arm_matrix_instance_f64 * pDst)
  76:Source\MatrixFunctions/arm_mat_inverse_f64.c **** {
  30              		.loc 1 76 0
  31              		.cfi_startproc
  32 0000 B0B5     		push	{r4, r5, r7, lr}
  33              		.cfi_def_cfa_offset 16
  34              		.cfi_offset 4, -16
  35              		.cfi_offset 5, -12
  36              		.cfi_offset 7, -8
  37              		.cfi_offset 14, -4
  38 0002 9CB0     		sub	sp, sp, #112
ARM GAS  C:\Users\fneves\AppData\Local\Temp\ccy6Cdbg.s 			page 3


  39              		.cfi_def_cfa_offset 128
  40 0004 00AF     		add	r7, sp, #0
  41              		.cfi_def_cfa_register 7
  42 0006 7860     		str	r0, [r7, #4]
  43 0008 3960     		str	r1, [r7]
  77:Source\MatrixFunctions/arm_mat_inverse_f64.c ****   float64_t *pIn = pSrc->pData;                  /* input data matrix pointer */
  44              		.loc 1 77 0
  45 000a 7B68     		ldr	r3, [r7, #4]
  46 000c 5B68     		ldr	r3, [r3, #4]
  47 000e FB66     		str	r3, [r7, #108]
  78:Source\MatrixFunctions/arm_mat_inverse_f64.c ****   float64_t *pOut = pDst->pData;                 /* output data matrix pointer */
  48              		.loc 1 78 0
  49 0010 3B68     		ldr	r3, [r7]
  50 0012 5B68     		ldr	r3, [r3, #4]
  51 0014 7B62     		str	r3, [r7, #36]
  79:Source\MatrixFunctions/arm_mat_inverse_f64.c ****   float64_t *pInT1, *pInT2;                      /* Temporary input data matrix pointer */
  80:Source\MatrixFunctions/arm_mat_inverse_f64.c ****   float64_t *pOutT1, *pOutT2;                    /* Temporary output data matrix pointer */
  81:Source\MatrixFunctions/arm_mat_inverse_f64.c ****   float64_t *pPivotRowIn, *pPRT_in, *pPivotRowDst, *pPRT_pDst;  /* Temporary input and output data 
  82:Source\MatrixFunctions/arm_mat_inverse_f64.c ****   uint32_t numRows = pSrc->numRows;              /* Number of rows in the matrix  */
  52              		.loc 1 82 0
  53 0016 7B68     		ldr	r3, [r7, #4]
  54 0018 1B88     		ldrh	r3, [r3]
  55 001a 3B62     		str	r3, [r7, #32]
  83:Source\MatrixFunctions/arm_mat_inverse_f64.c ****   uint32_t numCols = pSrc->numCols;              /* Number of Cols in the matrix  */
  56              		.loc 1 83 0
  57 001c 7B68     		ldr	r3, [r7, #4]
  58 001e 5B88     		ldrh	r3, [r3, #2]
  59 0020 FB61     		str	r3, [r7, #28]
  84:Source\MatrixFunctions/arm_mat_inverse_f64.c **** 
  85:Source\MatrixFunctions/arm_mat_inverse_f64.c **** #if defined (ARM_MATH_DSP)
  86:Source\MatrixFunctions/arm_mat_inverse_f64.c ****   float64_t maxC;                                /* maximum value in the column */
  87:Source\MatrixFunctions/arm_mat_inverse_f64.c **** 
  88:Source\MatrixFunctions/arm_mat_inverse_f64.c ****   /* Run the below code for Cortex-M4 and Cortex-M3 */
  89:Source\MatrixFunctions/arm_mat_inverse_f64.c **** 
  90:Source\MatrixFunctions/arm_mat_inverse_f64.c ****   float64_t Xchg, in = 0.0f, in1;                /* Temporary input values  */
  91:Source\MatrixFunctions/arm_mat_inverse_f64.c ****   uint32_t i, rowCnt, flag = 0u, j, loopCnt, k, l;      /* loop counters */
  92:Source\MatrixFunctions/arm_mat_inverse_f64.c ****   arm_status status;                             /* status of matrix inverse */
  93:Source\MatrixFunctions/arm_mat_inverse_f64.c **** 
  94:Source\MatrixFunctions/arm_mat_inverse_f64.c **** #ifdef ARM_MATH_MATRIX_CHECK
  95:Source\MatrixFunctions/arm_mat_inverse_f64.c **** 
  96:Source\MatrixFunctions/arm_mat_inverse_f64.c **** 
  97:Source\MatrixFunctions/arm_mat_inverse_f64.c ****   /* Check for matrix mismatch condition */
  98:Source\MatrixFunctions/arm_mat_inverse_f64.c ****   if ((pSrc->numRows != pSrc->numCols) || (pDst->numRows != pDst->numCols)
  99:Source\MatrixFunctions/arm_mat_inverse_f64.c ****      || (pSrc->numRows != pDst->numRows))
 100:Source\MatrixFunctions/arm_mat_inverse_f64.c ****   {
 101:Source\MatrixFunctions/arm_mat_inverse_f64.c ****     /* Set status as ARM_MATH_SIZE_MISMATCH */
 102:Source\MatrixFunctions/arm_mat_inverse_f64.c ****     status = ARM_MATH_SIZE_MISMATCH;
 103:Source\MatrixFunctions/arm_mat_inverse_f64.c ****   }
 104:Source\MatrixFunctions/arm_mat_inverse_f64.c ****   else
 105:Source\MatrixFunctions/arm_mat_inverse_f64.c **** #endif /*    #ifdef ARM_MATH_MATRIX_CHECK    */
 106:Source\MatrixFunctions/arm_mat_inverse_f64.c **** 
 107:Source\MatrixFunctions/arm_mat_inverse_f64.c ****   {
 108:Source\MatrixFunctions/arm_mat_inverse_f64.c **** 
 109:Source\MatrixFunctions/arm_mat_inverse_f64.c ****     /*---------------------------------------------------------------------------------------------
 110:Source\MatrixFunctions/arm_mat_inverse_f64.c **** 	 * Matrix Inverse can be solved using elementary row operations.
 111:Source\MatrixFunctions/arm_mat_inverse_f64.c **** 	 *
 112:Source\MatrixFunctions/arm_mat_inverse_f64.c **** 	 *	Gauss-Jordan Method:
ARM GAS  C:\Users\fneves\AppData\Local\Temp\ccy6Cdbg.s 			page 4


 113:Source\MatrixFunctions/arm_mat_inverse_f64.c **** 	 *
 114:Source\MatrixFunctions/arm_mat_inverse_f64.c **** 	 *	   1. First combine the identity matrix and the input matrix separated by a bar to form an
 115:Source\MatrixFunctions/arm_mat_inverse_f64.c **** 	 *        augmented matrix as follows:
 116:Source\MatrixFunctions/arm_mat_inverse_f64.c **** 	 *				        _ 	      	       _         _	       _
 117:Source\MatrixFunctions/arm_mat_inverse_f64.c **** 	 *					   |  a11  a12 | 1   0  |       |  X11 X12  |
 118:Source\MatrixFunctions/arm_mat_inverse_f64.c **** 	 *					   |           |        |   =   |           |
 119:Source\MatrixFunctions/arm_mat_inverse_f64.c **** 	 *					   |_ a21  a22 | 0   1 _|       |_ X21 X21 _|
 120:Source\MatrixFunctions/arm_mat_inverse_f64.c **** 	 *
 121:Source\MatrixFunctions/arm_mat_inverse_f64.c **** 	 *		2. In our implementation, pDst Matrix is used as identity matrix.
 122:Source\MatrixFunctions/arm_mat_inverse_f64.c **** 	 *
 123:Source\MatrixFunctions/arm_mat_inverse_f64.c **** 	 *		3. Begin with the first row. Let i = 1.
 124:Source\MatrixFunctions/arm_mat_inverse_f64.c **** 	 *
 125:Source\MatrixFunctions/arm_mat_inverse_f64.c **** 	 *	    4. Check to see if the pivot for column i is the greatest of the column.
 126:Source\MatrixFunctions/arm_mat_inverse_f64.c **** 	 *		   The pivot is the element of the main diagonal that is on the current row.
 127:Source\MatrixFunctions/arm_mat_inverse_f64.c **** 	 *		   For instance, if working with row i, then the pivot element is aii.
 128:Source\MatrixFunctions/arm_mat_inverse_f64.c **** 	 *		   If the pivot is not the most significant of the columns, exchange that row with a row
 129:Source\MatrixFunctions/arm_mat_inverse_f64.c **** 	 *		   below it that does contain the most significant value in column i. If the most
 130:Source\MatrixFunctions/arm_mat_inverse_f64.c **** 	 *         significant value of the column is zero, then an inverse to that matrix does not exist.
 131:Source\MatrixFunctions/arm_mat_inverse_f64.c **** 	 *		   The most significant value of the column is the absolute maximum.
 132:Source\MatrixFunctions/arm_mat_inverse_f64.c **** 	 *
 133:Source\MatrixFunctions/arm_mat_inverse_f64.c **** 	 *	    5. Divide every element of row i by the pivot.
 134:Source\MatrixFunctions/arm_mat_inverse_f64.c **** 	 *
 135:Source\MatrixFunctions/arm_mat_inverse_f64.c **** 	 *	    6. For every row below and  row i, replace that row with the sum of that row and
 136:Source\MatrixFunctions/arm_mat_inverse_f64.c **** 	 *		   a multiple of row i so that each new element in column i below row i is zero.
 137:Source\MatrixFunctions/arm_mat_inverse_f64.c **** 	 *
 138:Source\MatrixFunctions/arm_mat_inverse_f64.c **** 	 *	    7. Move to the next row and column and repeat steps 2 through 5 until you have zeros
 139:Source\MatrixFunctions/arm_mat_inverse_f64.c **** 	 *		   for every element below and above the main diagonal.
 140:Source\MatrixFunctions/arm_mat_inverse_f64.c **** 	 *
 141:Source\MatrixFunctions/arm_mat_inverse_f64.c **** 	 *		8. Now an identical matrix is formed to the left of the bar(input matrix, pSrc).
 142:Source\MatrixFunctions/arm_mat_inverse_f64.c **** 	 *		   Therefore, the matrix to the right of the bar is our solution(pDst matrix, pDst).
 143:Source\MatrixFunctions/arm_mat_inverse_f64.c **** 	 *------------------------------------------------------------------------------------------------
 144:Source\MatrixFunctions/arm_mat_inverse_f64.c **** 
 145:Source\MatrixFunctions/arm_mat_inverse_f64.c ****     /* Working pointer for destination matrix */
 146:Source\MatrixFunctions/arm_mat_inverse_f64.c ****     pOutT1 = pOut;
 147:Source\MatrixFunctions/arm_mat_inverse_f64.c **** 
 148:Source\MatrixFunctions/arm_mat_inverse_f64.c ****     /* Loop over the number of rows */
 149:Source\MatrixFunctions/arm_mat_inverse_f64.c ****     rowCnt = numRows;
 150:Source\MatrixFunctions/arm_mat_inverse_f64.c **** 
 151:Source\MatrixFunctions/arm_mat_inverse_f64.c ****     /* Making the destination matrix as identity matrix */
 152:Source\MatrixFunctions/arm_mat_inverse_f64.c ****     while (rowCnt > 0u)
 153:Source\MatrixFunctions/arm_mat_inverse_f64.c ****     {
 154:Source\MatrixFunctions/arm_mat_inverse_f64.c ****       /* Writing all zeroes in lower triangle of the destination matrix */
 155:Source\MatrixFunctions/arm_mat_inverse_f64.c ****       j = numRows - rowCnt;
 156:Source\MatrixFunctions/arm_mat_inverse_f64.c ****       while (j > 0u)
 157:Source\MatrixFunctions/arm_mat_inverse_f64.c ****       {
 158:Source\MatrixFunctions/arm_mat_inverse_f64.c ****         *pOutT1++ = 0.0f;
 159:Source\MatrixFunctions/arm_mat_inverse_f64.c ****         j--;
 160:Source\MatrixFunctions/arm_mat_inverse_f64.c ****       }
 161:Source\MatrixFunctions/arm_mat_inverse_f64.c **** 
 162:Source\MatrixFunctions/arm_mat_inverse_f64.c ****       /* Writing all ones in the diagonal of the destination matrix */
 163:Source\MatrixFunctions/arm_mat_inverse_f64.c ****       *pOutT1++ = 1.0f;
 164:Source\MatrixFunctions/arm_mat_inverse_f64.c **** 
 165:Source\MatrixFunctions/arm_mat_inverse_f64.c ****       /* Writing all zeroes in upper triangle of the destination matrix */
 166:Source\MatrixFunctions/arm_mat_inverse_f64.c ****       j = rowCnt - 1u;
 167:Source\MatrixFunctions/arm_mat_inverse_f64.c ****       while (j > 0u)
 168:Source\MatrixFunctions/arm_mat_inverse_f64.c ****       {
 169:Source\MatrixFunctions/arm_mat_inverse_f64.c ****         *pOutT1++ = 0.0f;
ARM GAS  C:\Users\fneves\AppData\Local\Temp\ccy6Cdbg.s 			page 5


 170:Source\MatrixFunctions/arm_mat_inverse_f64.c ****         j--;
 171:Source\MatrixFunctions/arm_mat_inverse_f64.c ****       }
 172:Source\MatrixFunctions/arm_mat_inverse_f64.c **** 
 173:Source\MatrixFunctions/arm_mat_inverse_f64.c ****       /* Decrement the loop counter */
 174:Source\MatrixFunctions/arm_mat_inverse_f64.c ****       rowCnt--;
 175:Source\MatrixFunctions/arm_mat_inverse_f64.c ****     }
 176:Source\MatrixFunctions/arm_mat_inverse_f64.c **** 
 177:Source\MatrixFunctions/arm_mat_inverse_f64.c ****     /* Loop over the number of columns of the input matrix.
 178:Source\MatrixFunctions/arm_mat_inverse_f64.c ****        All the elements in each column are processed by the row operations */
 179:Source\MatrixFunctions/arm_mat_inverse_f64.c ****     loopCnt = numCols;
 180:Source\MatrixFunctions/arm_mat_inverse_f64.c **** 
 181:Source\MatrixFunctions/arm_mat_inverse_f64.c ****     /* Index modifier to navigate through the columns */
 182:Source\MatrixFunctions/arm_mat_inverse_f64.c ****     l = 0u;
 183:Source\MatrixFunctions/arm_mat_inverse_f64.c **** 
 184:Source\MatrixFunctions/arm_mat_inverse_f64.c ****     while (loopCnt > 0u)
 185:Source\MatrixFunctions/arm_mat_inverse_f64.c ****     {
 186:Source\MatrixFunctions/arm_mat_inverse_f64.c ****       /* Check if the pivot element is zero..
 187:Source\MatrixFunctions/arm_mat_inverse_f64.c ****        * If it is zero then interchange the row with non zero row below.
 188:Source\MatrixFunctions/arm_mat_inverse_f64.c ****        * If there is no non zero element to replace in the rows below,
 189:Source\MatrixFunctions/arm_mat_inverse_f64.c ****        * then the matrix is Singular. */
 190:Source\MatrixFunctions/arm_mat_inverse_f64.c **** 
 191:Source\MatrixFunctions/arm_mat_inverse_f64.c ****       /* Working pointer for the input matrix that points
 192:Source\MatrixFunctions/arm_mat_inverse_f64.c ****        * to the pivot element of the particular row  */
 193:Source\MatrixFunctions/arm_mat_inverse_f64.c ****       pInT1 = pIn + (l * numCols);
 194:Source\MatrixFunctions/arm_mat_inverse_f64.c **** 
 195:Source\MatrixFunctions/arm_mat_inverse_f64.c ****       /* Working pointer for the destination matrix that points
 196:Source\MatrixFunctions/arm_mat_inverse_f64.c ****        * to the pivot element of the particular row  */
 197:Source\MatrixFunctions/arm_mat_inverse_f64.c ****       pOutT1 = pOut + (l * numCols);
 198:Source\MatrixFunctions/arm_mat_inverse_f64.c **** 
 199:Source\MatrixFunctions/arm_mat_inverse_f64.c ****       /* Temporary variable to hold the pivot value */
 200:Source\MatrixFunctions/arm_mat_inverse_f64.c ****       in = *pInT1;
 201:Source\MatrixFunctions/arm_mat_inverse_f64.c **** 
 202:Source\MatrixFunctions/arm_mat_inverse_f64.c ****       /* Grab the most significant value from column l */
 203:Source\MatrixFunctions/arm_mat_inverse_f64.c ****       maxC = 0;
 204:Source\MatrixFunctions/arm_mat_inverse_f64.c ****       for (i = l; i < numRows; i++)
 205:Source\MatrixFunctions/arm_mat_inverse_f64.c ****       {
 206:Source\MatrixFunctions/arm_mat_inverse_f64.c ****         maxC = *pInT1 > 0 ? (*pInT1 > maxC ? *pInT1 : maxC) : (-*pInT1 > maxC ? -*pInT1 : maxC);
 207:Source\MatrixFunctions/arm_mat_inverse_f64.c ****         pInT1 += numCols;
 208:Source\MatrixFunctions/arm_mat_inverse_f64.c ****       }
 209:Source\MatrixFunctions/arm_mat_inverse_f64.c **** 
 210:Source\MatrixFunctions/arm_mat_inverse_f64.c ****       /* Update the status if the matrix is singular */
 211:Source\MatrixFunctions/arm_mat_inverse_f64.c ****       if (maxC == 0.0f)
 212:Source\MatrixFunctions/arm_mat_inverse_f64.c ****       {
 213:Source\MatrixFunctions/arm_mat_inverse_f64.c ****         return ARM_MATH_SINGULAR;
 214:Source\MatrixFunctions/arm_mat_inverse_f64.c ****       }
 215:Source\MatrixFunctions/arm_mat_inverse_f64.c **** 
 216:Source\MatrixFunctions/arm_mat_inverse_f64.c ****       /* Restore pInT1  */
 217:Source\MatrixFunctions/arm_mat_inverse_f64.c ****       pInT1 = pIn;
 218:Source\MatrixFunctions/arm_mat_inverse_f64.c **** 
 219:Source\MatrixFunctions/arm_mat_inverse_f64.c ****       /* Destination pointer modifier */
 220:Source\MatrixFunctions/arm_mat_inverse_f64.c ****       k = 1u;
 221:Source\MatrixFunctions/arm_mat_inverse_f64.c **** 
 222:Source\MatrixFunctions/arm_mat_inverse_f64.c ****       /* Check if the pivot element is the most significant of the column */
 223:Source\MatrixFunctions/arm_mat_inverse_f64.c ****       if ( (in > 0.0f ? in : -in) != maxC)
 224:Source\MatrixFunctions/arm_mat_inverse_f64.c ****       {
 225:Source\MatrixFunctions/arm_mat_inverse_f64.c ****         /* Loop over the number rows present below */
 226:Source\MatrixFunctions/arm_mat_inverse_f64.c ****         i = numRows - (l + 1u);
ARM GAS  C:\Users\fneves\AppData\Local\Temp\ccy6Cdbg.s 			page 6


 227:Source\MatrixFunctions/arm_mat_inverse_f64.c **** 
 228:Source\MatrixFunctions/arm_mat_inverse_f64.c ****         while (i > 0u)
 229:Source\MatrixFunctions/arm_mat_inverse_f64.c ****         {
 230:Source\MatrixFunctions/arm_mat_inverse_f64.c ****           /* Update the input and destination pointers */
 231:Source\MatrixFunctions/arm_mat_inverse_f64.c ****           pInT2 = pInT1 + (numCols * l);
 232:Source\MatrixFunctions/arm_mat_inverse_f64.c ****           pOutT2 = pOutT1 + (numCols * k);
 233:Source\MatrixFunctions/arm_mat_inverse_f64.c **** 
 234:Source\MatrixFunctions/arm_mat_inverse_f64.c ****           /* Look for the most significant element to
 235:Source\MatrixFunctions/arm_mat_inverse_f64.c ****            * replace in the rows below */
 236:Source\MatrixFunctions/arm_mat_inverse_f64.c ****           if ((*pInT2 > 0.0f ? *pInT2: -*pInT2) == maxC)
 237:Source\MatrixFunctions/arm_mat_inverse_f64.c ****           {
 238:Source\MatrixFunctions/arm_mat_inverse_f64.c ****             /* Loop over number of columns
 239:Source\MatrixFunctions/arm_mat_inverse_f64.c ****              * to the right of the pilot element */
 240:Source\MatrixFunctions/arm_mat_inverse_f64.c ****             j = numCols - l;
 241:Source\MatrixFunctions/arm_mat_inverse_f64.c **** 
 242:Source\MatrixFunctions/arm_mat_inverse_f64.c ****             while (j > 0u)
 243:Source\MatrixFunctions/arm_mat_inverse_f64.c ****             {
 244:Source\MatrixFunctions/arm_mat_inverse_f64.c ****               /* Exchange the row elements of the input matrix */
 245:Source\MatrixFunctions/arm_mat_inverse_f64.c ****               Xchg = *pInT2;
 246:Source\MatrixFunctions/arm_mat_inverse_f64.c ****               *pInT2++ = *pInT1;
 247:Source\MatrixFunctions/arm_mat_inverse_f64.c ****               *pInT1++ = Xchg;
 248:Source\MatrixFunctions/arm_mat_inverse_f64.c **** 
 249:Source\MatrixFunctions/arm_mat_inverse_f64.c ****               /* Decrement the loop counter */
 250:Source\MatrixFunctions/arm_mat_inverse_f64.c ****               j--;
 251:Source\MatrixFunctions/arm_mat_inverse_f64.c ****             }
 252:Source\MatrixFunctions/arm_mat_inverse_f64.c **** 
 253:Source\MatrixFunctions/arm_mat_inverse_f64.c ****             /* Loop over number of columns of the destination matrix */
 254:Source\MatrixFunctions/arm_mat_inverse_f64.c ****             j = numCols;
 255:Source\MatrixFunctions/arm_mat_inverse_f64.c **** 
 256:Source\MatrixFunctions/arm_mat_inverse_f64.c ****             while (j > 0u)
 257:Source\MatrixFunctions/arm_mat_inverse_f64.c ****             {
 258:Source\MatrixFunctions/arm_mat_inverse_f64.c ****               /* Exchange the row elements of the destination matrix */
 259:Source\MatrixFunctions/arm_mat_inverse_f64.c ****               Xchg = *pOutT2;
 260:Source\MatrixFunctions/arm_mat_inverse_f64.c ****               *pOutT2++ = *pOutT1;
 261:Source\MatrixFunctions/arm_mat_inverse_f64.c ****               *pOutT1++ = Xchg;
 262:Source\MatrixFunctions/arm_mat_inverse_f64.c **** 
 263:Source\MatrixFunctions/arm_mat_inverse_f64.c ****               /* Decrement the loop counter */
 264:Source\MatrixFunctions/arm_mat_inverse_f64.c ****               j--;
 265:Source\MatrixFunctions/arm_mat_inverse_f64.c ****             }
 266:Source\MatrixFunctions/arm_mat_inverse_f64.c **** 
 267:Source\MatrixFunctions/arm_mat_inverse_f64.c ****             /* Flag to indicate whether exchange is done or not */
 268:Source\MatrixFunctions/arm_mat_inverse_f64.c ****             flag = 1u;
 269:Source\MatrixFunctions/arm_mat_inverse_f64.c **** 
 270:Source\MatrixFunctions/arm_mat_inverse_f64.c ****             /* Break after exchange is done */
 271:Source\MatrixFunctions/arm_mat_inverse_f64.c ****             break;
 272:Source\MatrixFunctions/arm_mat_inverse_f64.c ****           }
 273:Source\MatrixFunctions/arm_mat_inverse_f64.c **** 
 274:Source\MatrixFunctions/arm_mat_inverse_f64.c ****           /* Update the destination pointer modifier */
 275:Source\MatrixFunctions/arm_mat_inverse_f64.c ****           k++;
 276:Source\MatrixFunctions/arm_mat_inverse_f64.c **** 
 277:Source\MatrixFunctions/arm_mat_inverse_f64.c ****           /* Decrement the loop counter */
 278:Source\MatrixFunctions/arm_mat_inverse_f64.c ****           i--;
 279:Source\MatrixFunctions/arm_mat_inverse_f64.c ****         }
 280:Source\MatrixFunctions/arm_mat_inverse_f64.c ****       }
 281:Source\MatrixFunctions/arm_mat_inverse_f64.c **** 
 282:Source\MatrixFunctions/arm_mat_inverse_f64.c ****       /* Update the status if the matrix is singular */
 283:Source\MatrixFunctions/arm_mat_inverse_f64.c ****       if ((flag != 1u) && (in == 0.0f))
ARM GAS  C:\Users\fneves\AppData\Local\Temp\ccy6Cdbg.s 			page 7


 284:Source\MatrixFunctions/arm_mat_inverse_f64.c ****       {
 285:Source\MatrixFunctions/arm_mat_inverse_f64.c ****         return ARM_MATH_SINGULAR;
 286:Source\MatrixFunctions/arm_mat_inverse_f64.c ****       }
 287:Source\MatrixFunctions/arm_mat_inverse_f64.c **** 
 288:Source\MatrixFunctions/arm_mat_inverse_f64.c ****       /* Points to the pivot row of input and destination matrices */
 289:Source\MatrixFunctions/arm_mat_inverse_f64.c ****       pPivotRowIn = pIn + (l * numCols);
 290:Source\MatrixFunctions/arm_mat_inverse_f64.c ****       pPivotRowDst = pOut + (l * numCols);
 291:Source\MatrixFunctions/arm_mat_inverse_f64.c **** 
 292:Source\MatrixFunctions/arm_mat_inverse_f64.c ****       /* Temporary pointers to the pivot row pointers */
 293:Source\MatrixFunctions/arm_mat_inverse_f64.c ****       pInT1 = pPivotRowIn;
 294:Source\MatrixFunctions/arm_mat_inverse_f64.c ****       pInT2 = pPivotRowDst;
 295:Source\MatrixFunctions/arm_mat_inverse_f64.c **** 
 296:Source\MatrixFunctions/arm_mat_inverse_f64.c ****       /* Pivot element of the row */
 297:Source\MatrixFunctions/arm_mat_inverse_f64.c ****       in = *pPivotRowIn;
 298:Source\MatrixFunctions/arm_mat_inverse_f64.c **** 
 299:Source\MatrixFunctions/arm_mat_inverse_f64.c ****       /* Loop over number of columns
 300:Source\MatrixFunctions/arm_mat_inverse_f64.c ****        * to the right of the pilot element */
 301:Source\MatrixFunctions/arm_mat_inverse_f64.c ****       j = (numCols - l);
 302:Source\MatrixFunctions/arm_mat_inverse_f64.c **** 
 303:Source\MatrixFunctions/arm_mat_inverse_f64.c ****       while (j > 0u)
 304:Source\MatrixFunctions/arm_mat_inverse_f64.c ****       {
 305:Source\MatrixFunctions/arm_mat_inverse_f64.c ****         /* Divide each element of the row of the input matrix
 306:Source\MatrixFunctions/arm_mat_inverse_f64.c ****          * by the pivot element */
 307:Source\MatrixFunctions/arm_mat_inverse_f64.c ****         in1 = *pInT1;
 308:Source\MatrixFunctions/arm_mat_inverse_f64.c ****         *pInT1++ = in1 / in;
 309:Source\MatrixFunctions/arm_mat_inverse_f64.c **** 
 310:Source\MatrixFunctions/arm_mat_inverse_f64.c ****         /* Decrement the loop counter */
 311:Source\MatrixFunctions/arm_mat_inverse_f64.c ****         j--;
 312:Source\MatrixFunctions/arm_mat_inverse_f64.c ****       }
 313:Source\MatrixFunctions/arm_mat_inverse_f64.c **** 
 314:Source\MatrixFunctions/arm_mat_inverse_f64.c ****       /* Loop over number of columns of the destination matrix */
 315:Source\MatrixFunctions/arm_mat_inverse_f64.c ****       j = numCols;
 316:Source\MatrixFunctions/arm_mat_inverse_f64.c **** 
 317:Source\MatrixFunctions/arm_mat_inverse_f64.c ****       while (j > 0u)
 318:Source\MatrixFunctions/arm_mat_inverse_f64.c ****       {
 319:Source\MatrixFunctions/arm_mat_inverse_f64.c ****         /* Divide each element of the row of the destination matrix
 320:Source\MatrixFunctions/arm_mat_inverse_f64.c ****          * by the pivot element */
 321:Source\MatrixFunctions/arm_mat_inverse_f64.c ****         in1 = *pInT2;
 322:Source\MatrixFunctions/arm_mat_inverse_f64.c ****         *pInT2++ = in1 / in;
 323:Source\MatrixFunctions/arm_mat_inverse_f64.c **** 
 324:Source\MatrixFunctions/arm_mat_inverse_f64.c ****         /* Decrement the loop counter */
 325:Source\MatrixFunctions/arm_mat_inverse_f64.c ****         j--;
 326:Source\MatrixFunctions/arm_mat_inverse_f64.c ****       }
 327:Source\MatrixFunctions/arm_mat_inverse_f64.c **** 
 328:Source\MatrixFunctions/arm_mat_inverse_f64.c ****       /* Replace the rows with the sum of that row and a multiple of row i
 329:Source\MatrixFunctions/arm_mat_inverse_f64.c ****        * so that each new element in column i above row i is zero.*/
 330:Source\MatrixFunctions/arm_mat_inverse_f64.c **** 
 331:Source\MatrixFunctions/arm_mat_inverse_f64.c ****       /* Temporary pointers for input and destination matrices */
 332:Source\MatrixFunctions/arm_mat_inverse_f64.c ****       pInT1 = pIn;
 333:Source\MatrixFunctions/arm_mat_inverse_f64.c ****       pInT2 = pOut;
 334:Source\MatrixFunctions/arm_mat_inverse_f64.c **** 
 335:Source\MatrixFunctions/arm_mat_inverse_f64.c ****       /* index used to check for pivot element */
 336:Source\MatrixFunctions/arm_mat_inverse_f64.c ****       i = 0u;
 337:Source\MatrixFunctions/arm_mat_inverse_f64.c **** 
 338:Source\MatrixFunctions/arm_mat_inverse_f64.c ****       /* Loop over number of rows */
 339:Source\MatrixFunctions/arm_mat_inverse_f64.c ****       /*  to be replaced by the sum of that row and a multiple of row i */
 340:Source\MatrixFunctions/arm_mat_inverse_f64.c ****       k = numRows;
ARM GAS  C:\Users\fneves\AppData\Local\Temp\ccy6Cdbg.s 			page 8


 341:Source\MatrixFunctions/arm_mat_inverse_f64.c **** 
 342:Source\MatrixFunctions/arm_mat_inverse_f64.c ****       while (k > 0u)
 343:Source\MatrixFunctions/arm_mat_inverse_f64.c ****       {
 344:Source\MatrixFunctions/arm_mat_inverse_f64.c ****         /* Check for the pivot element */
 345:Source\MatrixFunctions/arm_mat_inverse_f64.c ****         if (i == l)
 346:Source\MatrixFunctions/arm_mat_inverse_f64.c ****         {
 347:Source\MatrixFunctions/arm_mat_inverse_f64.c ****           /* If the processing element is the pivot element,
 348:Source\MatrixFunctions/arm_mat_inverse_f64.c ****              only the columns to the right are to be processed */
 349:Source\MatrixFunctions/arm_mat_inverse_f64.c ****           pInT1 += numCols - l;
 350:Source\MatrixFunctions/arm_mat_inverse_f64.c **** 
 351:Source\MatrixFunctions/arm_mat_inverse_f64.c ****           pInT2 += numCols;
 352:Source\MatrixFunctions/arm_mat_inverse_f64.c ****         }
 353:Source\MatrixFunctions/arm_mat_inverse_f64.c ****         else
 354:Source\MatrixFunctions/arm_mat_inverse_f64.c ****         {
 355:Source\MatrixFunctions/arm_mat_inverse_f64.c ****           /* Element of the reference row */
 356:Source\MatrixFunctions/arm_mat_inverse_f64.c ****           in = *pInT1;
 357:Source\MatrixFunctions/arm_mat_inverse_f64.c **** 
 358:Source\MatrixFunctions/arm_mat_inverse_f64.c ****           /* Working pointers for input and destination pivot rows */
 359:Source\MatrixFunctions/arm_mat_inverse_f64.c ****           pPRT_in = pPivotRowIn;
 360:Source\MatrixFunctions/arm_mat_inverse_f64.c ****           pPRT_pDst = pPivotRowDst;
 361:Source\MatrixFunctions/arm_mat_inverse_f64.c **** 
 362:Source\MatrixFunctions/arm_mat_inverse_f64.c ****           /* Loop over the number of columns to the right of the pivot element,
 363:Source\MatrixFunctions/arm_mat_inverse_f64.c ****              to replace the elements in the input matrix */
 364:Source\MatrixFunctions/arm_mat_inverse_f64.c ****           j = (numCols - l);
 365:Source\MatrixFunctions/arm_mat_inverse_f64.c **** 
 366:Source\MatrixFunctions/arm_mat_inverse_f64.c ****           while (j > 0u)
 367:Source\MatrixFunctions/arm_mat_inverse_f64.c ****           {
 368:Source\MatrixFunctions/arm_mat_inverse_f64.c ****             /* Replace the element by the sum of that row
 369:Source\MatrixFunctions/arm_mat_inverse_f64.c ****                and a multiple of the reference row  */
 370:Source\MatrixFunctions/arm_mat_inverse_f64.c ****             in1 = *pInT1;
 371:Source\MatrixFunctions/arm_mat_inverse_f64.c ****             *pInT1++ = in1 - (in * *pPRT_in++);
 372:Source\MatrixFunctions/arm_mat_inverse_f64.c **** 
 373:Source\MatrixFunctions/arm_mat_inverse_f64.c ****             /* Decrement the loop counter */
 374:Source\MatrixFunctions/arm_mat_inverse_f64.c ****             j--;
 375:Source\MatrixFunctions/arm_mat_inverse_f64.c ****           }
 376:Source\MatrixFunctions/arm_mat_inverse_f64.c **** 
 377:Source\MatrixFunctions/arm_mat_inverse_f64.c ****           /* Loop over the number of columns to
 378:Source\MatrixFunctions/arm_mat_inverse_f64.c ****              replace the elements in the destination matrix */
 379:Source\MatrixFunctions/arm_mat_inverse_f64.c ****           j = numCols;
 380:Source\MatrixFunctions/arm_mat_inverse_f64.c **** 
 381:Source\MatrixFunctions/arm_mat_inverse_f64.c ****           while (j > 0u)
 382:Source\MatrixFunctions/arm_mat_inverse_f64.c ****           {
 383:Source\MatrixFunctions/arm_mat_inverse_f64.c ****             /* Replace the element by the sum of that row
 384:Source\MatrixFunctions/arm_mat_inverse_f64.c ****                and a multiple of the reference row  */
 385:Source\MatrixFunctions/arm_mat_inverse_f64.c ****             in1 = *pInT2;
 386:Source\MatrixFunctions/arm_mat_inverse_f64.c ****             *pInT2++ = in1 - (in * *pPRT_pDst++);
 387:Source\MatrixFunctions/arm_mat_inverse_f64.c **** 
 388:Source\MatrixFunctions/arm_mat_inverse_f64.c ****             /* Decrement the loop counter */
 389:Source\MatrixFunctions/arm_mat_inverse_f64.c ****             j--;
 390:Source\MatrixFunctions/arm_mat_inverse_f64.c ****           }
 391:Source\MatrixFunctions/arm_mat_inverse_f64.c **** 
 392:Source\MatrixFunctions/arm_mat_inverse_f64.c ****         }
 393:Source\MatrixFunctions/arm_mat_inverse_f64.c **** 
 394:Source\MatrixFunctions/arm_mat_inverse_f64.c ****         /* Increment the temporary input pointer */
 395:Source\MatrixFunctions/arm_mat_inverse_f64.c ****         pInT1 = pInT1 + l;
 396:Source\MatrixFunctions/arm_mat_inverse_f64.c **** 
 397:Source\MatrixFunctions/arm_mat_inverse_f64.c ****         /* Decrement the loop counter */
ARM GAS  C:\Users\fneves\AppData\Local\Temp\ccy6Cdbg.s 			page 9


 398:Source\MatrixFunctions/arm_mat_inverse_f64.c ****         k--;
 399:Source\MatrixFunctions/arm_mat_inverse_f64.c **** 
 400:Source\MatrixFunctions/arm_mat_inverse_f64.c ****         /* Increment the pivot index */
 401:Source\MatrixFunctions/arm_mat_inverse_f64.c ****         i++;
 402:Source\MatrixFunctions/arm_mat_inverse_f64.c ****       }
 403:Source\MatrixFunctions/arm_mat_inverse_f64.c **** 
 404:Source\MatrixFunctions/arm_mat_inverse_f64.c ****       /* Increment the input pointer */
 405:Source\MatrixFunctions/arm_mat_inverse_f64.c ****       pIn++;
 406:Source\MatrixFunctions/arm_mat_inverse_f64.c **** 
 407:Source\MatrixFunctions/arm_mat_inverse_f64.c ****       /* Decrement the loop counter */
 408:Source\MatrixFunctions/arm_mat_inverse_f64.c ****       loopCnt--;
 409:Source\MatrixFunctions/arm_mat_inverse_f64.c **** 
 410:Source\MatrixFunctions/arm_mat_inverse_f64.c ****       /* Increment the index modifier */
 411:Source\MatrixFunctions/arm_mat_inverse_f64.c ****       l++;
 412:Source\MatrixFunctions/arm_mat_inverse_f64.c ****     }
 413:Source\MatrixFunctions/arm_mat_inverse_f64.c **** 
 414:Source\MatrixFunctions/arm_mat_inverse_f64.c **** 
 415:Source\MatrixFunctions/arm_mat_inverse_f64.c **** #else
 416:Source\MatrixFunctions/arm_mat_inverse_f64.c **** 
 417:Source\MatrixFunctions/arm_mat_inverse_f64.c ****   /* Run the below code for Cortex-M0 */
 418:Source\MatrixFunctions/arm_mat_inverse_f64.c **** 
 419:Source\MatrixFunctions/arm_mat_inverse_f64.c ****   float64_t Xchg, in = 0.0f;                     /* Temporary input values  */
  60              		.loc 1 419 0
  61 0022 0023     		mov	r3, #0
  62 0024 0024     		mov	r4, #0
  63 0026 BB64     		str	r3, [r7, #72]
  64 0028 FC64     		str	r4, [r7, #76]
 420:Source\MatrixFunctions/arm_mat_inverse_f64.c ****   uint32_t i, rowCnt, flag = 0u, j, loopCnt, k, l;      /* loop counters */
  65              		.loc 1 420 0
  66 002a 0023     		mov	r3, #0
  67 002c FB63     		str	r3, [r7, #60]
 421:Source\MatrixFunctions/arm_mat_inverse_f64.c ****   arm_status status;                             /* status of matrix inverse */
 422:Source\MatrixFunctions/arm_mat_inverse_f64.c **** 
 423:Source\MatrixFunctions/arm_mat_inverse_f64.c **** #ifdef ARM_MATH_MATRIX_CHECK
 424:Source\MatrixFunctions/arm_mat_inverse_f64.c **** 
 425:Source\MatrixFunctions/arm_mat_inverse_f64.c ****   /* Check for matrix mismatch condition */
 426:Source\MatrixFunctions/arm_mat_inverse_f64.c ****   if ((pSrc->numRows != pSrc->numCols) || (pDst->numRows != pDst->numCols)
 427:Source\MatrixFunctions/arm_mat_inverse_f64.c ****      || (pSrc->numRows != pDst->numRows))
 428:Source\MatrixFunctions/arm_mat_inverse_f64.c ****   {
 429:Source\MatrixFunctions/arm_mat_inverse_f64.c ****     /* Set status as ARM_MATH_SIZE_MISMATCH */
 430:Source\MatrixFunctions/arm_mat_inverse_f64.c ****     status = ARM_MATH_SIZE_MISMATCH;
 431:Source\MatrixFunctions/arm_mat_inverse_f64.c ****   }
 432:Source\MatrixFunctions/arm_mat_inverse_f64.c ****   else
 433:Source\MatrixFunctions/arm_mat_inverse_f64.c **** #endif /*      #ifdef ARM_MATH_MATRIX_CHECK    */
 434:Source\MatrixFunctions/arm_mat_inverse_f64.c ****   {
 435:Source\MatrixFunctions/arm_mat_inverse_f64.c **** 
 436:Source\MatrixFunctions/arm_mat_inverse_f64.c ****     /*---------------------------------------------------------------------------------------------
 437:Source\MatrixFunctions/arm_mat_inverse_f64.c **** 	 * Matrix Inverse can be solved using elementary row operations.
 438:Source\MatrixFunctions/arm_mat_inverse_f64.c **** 	 *
 439:Source\MatrixFunctions/arm_mat_inverse_f64.c **** 	 *	Gauss-Jordan Method:
 440:Source\MatrixFunctions/arm_mat_inverse_f64.c **** 	 *
 441:Source\MatrixFunctions/arm_mat_inverse_f64.c **** 	 *	   1. First combine the identity matrix and the input matrix separated by a bar to form an
 442:Source\MatrixFunctions/arm_mat_inverse_f64.c **** 	 *        augmented matrix as follows:
 443:Source\MatrixFunctions/arm_mat_inverse_f64.c **** 	 *				        _  _	      _	    _	   _   _         _	       _
 444:Source\MatrixFunctions/arm_mat_inverse_f64.c **** 	 *					   |  |  a11  a12  | | | 1   0  |   |       |  X11 X12  |
 445:Source\MatrixFunctions/arm_mat_inverse_f64.c **** 	 *					   |  |            | | |        |   |   =   |           |
 446:Source\MatrixFunctions/arm_mat_inverse_f64.c **** 	 *					   |_ |_ a21  a22 _| | |_0   1 _|  _|       |_ X21 X21 _|
ARM GAS  C:\Users\fneves\AppData\Local\Temp\ccy6Cdbg.s 			page 10


 447:Source\MatrixFunctions/arm_mat_inverse_f64.c **** 	 *
 448:Source\MatrixFunctions/arm_mat_inverse_f64.c **** 	 *		2. In our implementation, pDst Matrix is used as identity matrix.
 449:Source\MatrixFunctions/arm_mat_inverse_f64.c **** 	 *
 450:Source\MatrixFunctions/arm_mat_inverse_f64.c **** 	 *		3. Begin with the first row. Let i = 1.
 451:Source\MatrixFunctions/arm_mat_inverse_f64.c **** 	 *
 452:Source\MatrixFunctions/arm_mat_inverse_f64.c **** 	 *	    4. Check to see if the pivot for row i is zero.
 453:Source\MatrixFunctions/arm_mat_inverse_f64.c **** 	 *		   The pivot is the element of the main diagonal that is on the current row.
 454:Source\MatrixFunctions/arm_mat_inverse_f64.c **** 	 *		   For instance, if working with row i, then the pivot element is aii.
 455:Source\MatrixFunctions/arm_mat_inverse_f64.c **** 	 *		   If the pivot is zero, exchange that row with a row below it that does not
 456:Source\MatrixFunctions/arm_mat_inverse_f64.c **** 	 *		   contain a zero in column i. If this is not possible, then an inverse
 457:Source\MatrixFunctions/arm_mat_inverse_f64.c **** 	 *		   to that matrix does not exist.
 458:Source\MatrixFunctions/arm_mat_inverse_f64.c **** 	 *
 459:Source\MatrixFunctions/arm_mat_inverse_f64.c **** 	 *	    5. Divide every element of row i by the pivot.
 460:Source\MatrixFunctions/arm_mat_inverse_f64.c **** 	 *
 461:Source\MatrixFunctions/arm_mat_inverse_f64.c **** 	 *	    6. For every row below and  row i, replace that row with the sum of that row and
 462:Source\MatrixFunctions/arm_mat_inverse_f64.c **** 	 *		   a multiple of row i so that each new element in column i below row i is zero.
 463:Source\MatrixFunctions/arm_mat_inverse_f64.c **** 	 *
 464:Source\MatrixFunctions/arm_mat_inverse_f64.c **** 	 *	    7. Move to the next row and column and repeat steps 2 through 5 until you have zeros
 465:Source\MatrixFunctions/arm_mat_inverse_f64.c **** 	 *		   for every element below and above the main diagonal.
 466:Source\MatrixFunctions/arm_mat_inverse_f64.c **** 	 *
 467:Source\MatrixFunctions/arm_mat_inverse_f64.c **** 	 *		8. Now an identical matrix is formed to the left of the bar(input matrix, src).
 468:Source\MatrixFunctions/arm_mat_inverse_f64.c **** 	 *		   Therefore, the matrix to the right of the bar is our solution(dst matrix, dst).
 469:Source\MatrixFunctions/arm_mat_inverse_f64.c **** 	 *------------------------------------------------------------------------------------------------
 470:Source\MatrixFunctions/arm_mat_inverse_f64.c **** 
 471:Source\MatrixFunctions/arm_mat_inverse_f64.c ****     /* Working pointer for destination matrix */
 472:Source\MatrixFunctions/arm_mat_inverse_f64.c ****     pOutT1 = pOut;
  68              		.loc 1 472 0
  69 002e 7B6A     		ldr	r3, [r7, #36]
  70 0030 3B66     		str	r3, [r7, #96]
 473:Source\MatrixFunctions/arm_mat_inverse_f64.c **** 
 474:Source\MatrixFunctions/arm_mat_inverse_f64.c ****     /* Loop over the number of rows */
 475:Source\MatrixFunctions/arm_mat_inverse_f64.c ****     rowCnt = numRows;
  71              		.loc 1 475 0
  72 0032 3B6A     		ldr	r3, [r7, #32]
  73 0034 3B64     		str	r3, [r7, #64]
 476:Source\MatrixFunctions/arm_mat_inverse_f64.c **** 
 477:Source\MatrixFunctions/arm_mat_inverse_f64.c ****     /* Making the destination matrix as identity matrix */
 478:Source\MatrixFunctions/arm_mat_inverse_f64.c ****     while (rowCnt > 0u)
  74              		.loc 1 478 0
  75 0036 2FE0     		b	.L2
  76              	.L7:
 479:Source\MatrixFunctions/arm_mat_inverse_f64.c ****     {
 480:Source\MatrixFunctions/arm_mat_inverse_f64.c ****       /* Writing all zeroes in lower triangle of the destination matrix */
 481:Source\MatrixFunctions/arm_mat_inverse_f64.c ****       j = numRows - rowCnt;
  77              		.loc 1 481 0
  78 0038 3A6A     		ldr	r2, [r7, #32]
  79 003a 3B6C     		ldr	r3, [r7, #64]
  80 003c D31A     		sub	r3, r2, r3
  81 003e BB63     		str	r3, [r7, #56]
 482:Source\MatrixFunctions/arm_mat_inverse_f64.c ****       while (j > 0u)
  82              		.loc 1 482 0
  83 0040 0AE0     		b	.L3
  84              	.L4:
 483:Source\MatrixFunctions/arm_mat_inverse_f64.c ****       {
 484:Source\MatrixFunctions/arm_mat_inverse_f64.c ****         *pOutT1++ = 0.0f;
  85              		.loc 1 484 0
  86 0042 3A6E     		ldr	r2, [r7, #96]
ARM GAS  C:\Users\fneves\AppData\Local\Temp\ccy6Cdbg.s 			page 11


  87 0044 131C     		mov	r3, r2
  88 0046 0833     		add	r3, r3, #8
  89 0048 3B66     		str	r3, [r7, #96]
  90 004a 0023     		mov	r3, #0
  91 004c 0024     		mov	r4, #0
  92 004e 1360     		str	r3, [r2]
  93 0050 5460     		str	r4, [r2, #4]
 485:Source\MatrixFunctions/arm_mat_inverse_f64.c ****         j--;
  94              		.loc 1 485 0
  95 0052 BB6B     		ldr	r3, [r7, #56]
  96 0054 013B     		sub	r3, r3, #1
  97 0056 BB63     		str	r3, [r7, #56]
  98              	.L3:
 482:Source\MatrixFunctions/arm_mat_inverse_f64.c ****       while (j > 0u)
  99              		.loc 1 482 0
 100 0058 BB6B     		ldr	r3, [r7, #56]
 101 005a 002B     		cmp	r3, #0
 102 005c F1D1     		bne	.L4
 486:Source\MatrixFunctions/arm_mat_inverse_f64.c ****       }
 487:Source\MatrixFunctions/arm_mat_inverse_f64.c **** 
 488:Source\MatrixFunctions/arm_mat_inverse_f64.c ****       /* Writing all ones in the diagonal of the destination matrix */
 489:Source\MatrixFunctions/arm_mat_inverse_f64.c ****       *pOutT1++ = 1.0f;
 103              		.loc 1 489 0
 104 005e 3A6E     		ldr	r2, [r7, #96]
 105 0060 131C     		mov	r3, r2
 106 0062 0833     		add	r3, r3, #8
 107 0064 3B66     		str	r3, [r7, #96]
 108 0066 0023     		mov	r3, #0
 109 0068 D54C     		ldr	r4, .L49
 110 006a 1360     		str	r3, [r2]
 111 006c 5460     		str	r4, [r2, #4]
 490:Source\MatrixFunctions/arm_mat_inverse_f64.c **** 
 491:Source\MatrixFunctions/arm_mat_inverse_f64.c ****       /* Writing all zeroes in upper triangle of the destination matrix */
 492:Source\MatrixFunctions/arm_mat_inverse_f64.c ****       j = rowCnt - 1u;
 112              		.loc 1 492 0
 113 006e 3B6C     		ldr	r3, [r7, #64]
 114 0070 013B     		sub	r3, r3, #1
 115 0072 BB63     		str	r3, [r7, #56]
 493:Source\MatrixFunctions/arm_mat_inverse_f64.c ****       while (j > 0u)
 116              		.loc 1 493 0
 117 0074 0AE0     		b	.L5
 118              	.L6:
 494:Source\MatrixFunctions/arm_mat_inverse_f64.c ****       {
 495:Source\MatrixFunctions/arm_mat_inverse_f64.c ****         *pOutT1++ = 0.0f;
 119              		.loc 1 495 0
 120 0076 3A6E     		ldr	r2, [r7, #96]
 121 0078 131C     		mov	r3, r2
 122 007a 0833     		add	r3, r3, #8
 123 007c 3B66     		str	r3, [r7, #96]
 124 007e 0023     		mov	r3, #0
 125 0080 0024     		mov	r4, #0
 126 0082 1360     		str	r3, [r2]
 127 0084 5460     		str	r4, [r2, #4]
 496:Source\MatrixFunctions/arm_mat_inverse_f64.c ****         j--;
 128              		.loc 1 496 0
 129 0086 BB6B     		ldr	r3, [r7, #56]
 130 0088 013B     		sub	r3, r3, #1
ARM GAS  C:\Users\fneves\AppData\Local\Temp\ccy6Cdbg.s 			page 12


 131 008a BB63     		str	r3, [r7, #56]
 132              	.L5:
 493:Source\MatrixFunctions/arm_mat_inverse_f64.c ****       while (j > 0u)
 133              		.loc 1 493 0
 134 008c BB6B     		ldr	r3, [r7, #56]
 135 008e 002B     		cmp	r3, #0
 136 0090 F1D1     		bne	.L6
 497:Source\MatrixFunctions/arm_mat_inverse_f64.c ****       }
 498:Source\MatrixFunctions/arm_mat_inverse_f64.c **** 
 499:Source\MatrixFunctions/arm_mat_inverse_f64.c ****       /* Decrement the loop counter */
 500:Source\MatrixFunctions/arm_mat_inverse_f64.c ****       rowCnt--;
 137              		.loc 1 500 0
 138 0092 3B6C     		ldr	r3, [r7, #64]
 139 0094 013B     		sub	r3, r3, #1
 140 0096 3B64     		str	r3, [r7, #64]
 141              	.L2:
 478:Source\MatrixFunctions/arm_mat_inverse_f64.c ****     {
 142              		.loc 1 478 0
 143 0098 3B6C     		ldr	r3, [r7, #64]
 144 009a 002B     		cmp	r3, #0
 145 009c CCD1     		bne	.L7
 501:Source\MatrixFunctions/arm_mat_inverse_f64.c ****     }
 502:Source\MatrixFunctions/arm_mat_inverse_f64.c **** 
 503:Source\MatrixFunctions/arm_mat_inverse_f64.c ****     /* Loop over the number of columns of the input matrix.
 504:Source\MatrixFunctions/arm_mat_inverse_f64.c ****        All the elements in each column are processed by the row operations */
 505:Source\MatrixFunctions/arm_mat_inverse_f64.c ****     loopCnt = numCols;
 146              		.loc 1 505 0
 147 009e FB69     		ldr	r3, [r7, #28]
 148 00a0 7B63     		str	r3, [r7, #52]
 506:Source\MatrixFunctions/arm_mat_inverse_f64.c **** 
 507:Source\MatrixFunctions/arm_mat_inverse_f64.c ****     /* Index modifier to navigate through the columns */
 508:Source\MatrixFunctions/arm_mat_inverse_f64.c ****     l = 0u;
 149              		.loc 1 508 0
 150 00a2 0023     		mov	r3, #0
 151 00a4 FB62     		str	r3, [r7, #44]
 509:Source\MatrixFunctions/arm_mat_inverse_f64.c ****     //for(loopCnt = 0u; loopCnt < numCols; loopCnt++)
 510:Source\MatrixFunctions/arm_mat_inverse_f64.c ****     while (loopCnt > 0u)
 152              		.loc 1 510 0
 153 00a6 72E1     		b	.L8
 154              	.L34:
 511:Source\MatrixFunctions/arm_mat_inverse_f64.c ****     {
 512:Source\MatrixFunctions/arm_mat_inverse_f64.c ****       /* Check if the pivot element is zero..
 513:Source\MatrixFunctions/arm_mat_inverse_f64.c ****        * If it is zero then interchange the row with non zero row below.
 514:Source\MatrixFunctions/arm_mat_inverse_f64.c ****        * If there is no non zero element to replace in the rows below,
 515:Source\MatrixFunctions/arm_mat_inverse_f64.c ****        * then the matrix is Singular. */
 516:Source\MatrixFunctions/arm_mat_inverse_f64.c **** 
 517:Source\MatrixFunctions/arm_mat_inverse_f64.c ****       /* Working pointer for the input matrix that points
 518:Source\MatrixFunctions/arm_mat_inverse_f64.c ****        * to the pivot element of the particular row  */
 519:Source\MatrixFunctions/arm_mat_inverse_f64.c ****       pInT1 = pIn + (l * numCols);
 155              		.loc 1 519 0
 156 00a8 FB6A     		ldr	r3, [r7, #44]
 157 00aa FA69     		ldr	r2, [r7, #28]
 158 00ac 5343     		mul	r3, r2
 159 00ae DB00     		lsl	r3, r3, #3
 160 00b0 FA6E     		ldr	r2, [r7, #108]
 161 00b2 D318     		add	r3, r2, r3
 162 00b4 BB66     		str	r3, [r7, #104]
ARM GAS  C:\Users\fneves\AppData\Local\Temp\ccy6Cdbg.s 			page 13


 520:Source\MatrixFunctions/arm_mat_inverse_f64.c **** 
 521:Source\MatrixFunctions/arm_mat_inverse_f64.c ****       /* Working pointer for the destination matrix that points
 522:Source\MatrixFunctions/arm_mat_inverse_f64.c ****        * to the pivot element of the particular row  */
 523:Source\MatrixFunctions/arm_mat_inverse_f64.c ****       pOutT1 = pOut + (l * numCols);
 163              		.loc 1 523 0
 164 00b6 FB6A     		ldr	r3, [r7, #44]
 165 00b8 FA69     		ldr	r2, [r7, #28]
 166 00ba 5343     		mul	r3, r2
 167 00bc DB00     		lsl	r3, r3, #3
 168 00be 7A6A     		ldr	r2, [r7, #36]
 169 00c0 D318     		add	r3, r2, r3
 170 00c2 3B66     		str	r3, [r7, #96]
 524:Source\MatrixFunctions/arm_mat_inverse_f64.c **** 
 525:Source\MatrixFunctions/arm_mat_inverse_f64.c ****       /* Temporary variable to hold the pivot value */
 526:Source\MatrixFunctions/arm_mat_inverse_f64.c ****       in = *pInT1;
 171              		.loc 1 526 0
 172 00c4 BB6E     		ldr	r3, [r7, #104]
 173 00c6 5C68     		ldr	r4, [r3, #4]
 174 00c8 1B68     		ldr	r3, [r3]
 175 00ca BB64     		str	r3, [r7, #72]
 176 00cc FC64     		str	r4, [r7, #76]
 527:Source\MatrixFunctions/arm_mat_inverse_f64.c **** 
 528:Source\MatrixFunctions/arm_mat_inverse_f64.c ****       /* Destination pointer modifier */
 529:Source\MatrixFunctions/arm_mat_inverse_f64.c ****       k = 1u;
 177              		.loc 1 529 0
 178 00ce 0123     		mov	r3, #1
 179 00d0 3B63     		str	r3, [r7, #48]
 530:Source\MatrixFunctions/arm_mat_inverse_f64.c **** 
 531:Source\MatrixFunctions/arm_mat_inverse_f64.c ****       /* Check if the pivot element is zero */
 532:Source\MatrixFunctions/arm_mat_inverse_f64.c ****       if (*pInT1 == 0.0f)
 180              		.loc 1 532 0
 181 00d2 BB6E     		ldr	r3, [r7, #104]
 182 00d4 5C68     		ldr	r4, [r3, #4]
 183 00d6 1B68     		ldr	r3, [r3]
 184 00d8 181C     		mov	r0, r3
 185 00da 211C     		mov	r1, r4
 186 00dc 0022     		mov	r2, #0
 187 00de 0023     		mov	r3, #0
 188 00e0 FFF7FEFF 		bl	__aeabi_dcmpeq
 189 00e4 031E     		sub	r3, r0, #0
 190 00e6 6BD0     		beq	.L9
 533:Source\MatrixFunctions/arm_mat_inverse_f64.c ****       {
 534:Source\MatrixFunctions/arm_mat_inverse_f64.c ****         /* Loop over the number rows present below */
 535:Source\MatrixFunctions/arm_mat_inverse_f64.c ****         for (i = (l + 1u); i < numRows; i++)
 191              		.loc 1 535 0
 192 00e8 FB6A     		ldr	r3, [r7, #44]
 193 00ea 0133     		add	r3, r3, #1
 194 00ec 7B64     		str	r3, [r7, #68]
 195 00ee 63E0     		b	.L11
 196              	.L18:
 536:Source\MatrixFunctions/arm_mat_inverse_f64.c ****         {
 537:Source\MatrixFunctions/arm_mat_inverse_f64.c ****           /* Update the input and destination pointers */
 538:Source\MatrixFunctions/arm_mat_inverse_f64.c ****           pInT2 = pInT1 + (numCols * l);
 197              		.loc 1 538 0
 198 00f0 FB69     		ldr	r3, [r7, #28]
 199 00f2 FA6A     		ldr	r2, [r7, #44]
 200 00f4 5343     		mul	r3, r2
ARM GAS  C:\Users\fneves\AppData\Local\Temp\ccy6Cdbg.s 			page 14


 201 00f6 DB00     		lsl	r3, r3, #3
 202 00f8 BA6E     		ldr	r2, [r7, #104]
 203 00fa D318     		add	r3, r2, r3
 204 00fc 7B66     		str	r3, [r7, #100]
 539:Source\MatrixFunctions/arm_mat_inverse_f64.c ****           pOutT2 = pOutT1 + (numCols * k);
 205              		.loc 1 539 0
 206 00fe FB69     		ldr	r3, [r7, #28]
 207 0100 3A6B     		ldr	r2, [r7, #48]
 208 0102 5343     		mul	r3, r2
 209 0104 DB00     		lsl	r3, r3, #3
 210 0106 3A6E     		ldr	r2, [r7, #96]
 211 0108 D318     		add	r3, r2, r3
 212 010a FB65     		str	r3, [r7, #92]
 540:Source\MatrixFunctions/arm_mat_inverse_f64.c **** 
 541:Source\MatrixFunctions/arm_mat_inverse_f64.c ****           /* Check if there is a non zero pivot element to
 542:Source\MatrixFunctions/arm_mat_inverse_f64.c ****            * replace in the rows below */
 543:Source\MatrixFunctions/arm_mat_inverse_f64.c ****           if (*pInT2 != 0.0f)
 213              		.loc 1 543 0
 214 010c 7B6E     		ldr	r3, [r7, #100]
 215 010e 5C68     		ldr	r4, [r3, #4]
 216 0110 1B68     		ldr	r3, [r3]
 217 0112 181C     		mov	r0, r3
 218 0114 211C     		mov	r1, r4
 219 0116 0022     		mov	r2, #0
 220 0118 0023     		mov	r3, #0
 221 011a FFF7FEFF 		bl	__aeabi_dcmpeq
 222 011e 031E     		sub	r3, r0, #0
 223 0120 44D1     		bne	.L47
 544:Source\MatrixFunctions/arm_mat_inverse_f64.c ****           {
 545:Source\MatrixFunctions/arm_mat_inverse_f64.c ****             /* Loop over number of columns
 546:Source\MatrixFunctions/arm_mat_inverse_f64.c ****              * to the right of the pilot element */
 547:Source\MatrixFunctions/arm_mat_inverse_f64.c ****             for (j = 0u; j < (numCols - l); j++)
 224              		.loc 1 547 0
 225 0122 0023     		mov	r3, #0
 226 0124 BB63     		str	r3, [r7, #56]
 227 0126 18E0     		b	.L14
 228              	.L15:
 548:Source\MatrixFunctions/arm_mat_inverse_f64.c ****             {
 549:Source\MatrixFunctions/arm_mat_inverse_f64.c ****               /* Exchange the row elements of the input matrix */
 550:Source\MatrixFunctions/arm_mat_inverse_f64.c ****               Xchg = *pInT2;
 229              		.loc 1 550 0 discriminator 3
 230 0128 7B6E     		ldr	r3, [r7, #100]
 231 012a 5C68     		ldr	r4, [r3, #4]
 232 012c 1B68     		ldr	r3, [r3]
 233 012e 3B61     		str	r3, [r7, #16]
 234 0130 7C61     		str	r4, [r7, #20]
 551:Source\MatrixFunctions/arm_mat_inverse_f64.c ****               *pInT2++ = *pInT1;
 235              		.loc 1 551 0 discriminator 3
 236 0132 7A6E     		ldr	r2, [r7, #100]
 237 0134 131C     		mov	r3, r2
 238 0136 0833     		add	r3, r3, #8
 239 0138 7B66     		str	r3, [r7, #100]
 240 013a BB6E     		ldr	r3, [r7, #104]
 241 013c 5C68     		ldr	r4, [r3, #4]
 242 013e 1B68     		ldr	r3, [r3]
 243 0140 1360     		str	r3, [r2]
 244 0142 5460     		str	r4, [r2, #4]
ARM GAS  C:\Users\fneves\AppData\Local\Temp\ccy6Cdbg.s 			page 15


 552:Source\MatrixFunctions/arm_mat_inverse_f64.c ****               *pInT1++ = Xchg;
 245              		.loc 1 552 0 discriminator 3
 246 0144 BA6E     		ldr	r2, [r7, #104]
 247 0146 131C     		mov	r3, r2
 248 0148 0833     		add	r3, r3, #8
 249 014a BB66     		str	r3, [r7, #104]
 250 014c 3B69     		ldr	r3, [r7, #16]
 251 014e 7C69     		ldr	r4, [r7, #20]
 252 0150 1360     		str	r3, [r2]
 253 0152 5460     		str	r4, [r2, #4]
 547:Source\MatrixFunctions/arm_mat_inverse_f64.c ****             {
 254              		.loc 1 547 0 discriminator 3
 255 0154 BB6B     		ldr	r3, [r7, #56]
 256 0156 0133     		add	r3, r3, #1
 257 0158 BB63     		str	r3, [r7, #56]
 258              	.L14:
 547:Source\MatrixFunctions/arm_mat_inverse_f64.c ****             {
 259              		.loc 1 547 0 is_stmt 0 discriminator 1
 260 015a FA69     		ldr	r2, [r7, #28]
 261 015c FB6A     		ldr	r3, [r7, #44]
 262 015e D21A     		sub	r2, r2, r3
 263 0160 BB6B     		ldr	r3, [r7, #56]
 264 0162 9A42     		cmp	r2, r3
 265 0164 E0D8     		bhi	.L15
 553:Source\MatrixFunctions/arm_mat_inverse_f64.c ****             }
 554:Source\MatrixFunctions/arm_mat_inverse_f64.c **** 
 555:Source\MatrixFunctions/arm_mat_inverse_f64.c ****             for (j = 0u; j < numCols; j++)
 266              		.loc 1 555 0 is_stmt 1
 267 0166 0023     		mov	r3, #0
 268 0168 BB63     		str	r3, [r7, #56]
 269 016a 18E0     		b	.L16
 270              	.L17:
 556:Source\MatrixFunctions/arm_mat_inverse_f64.c ****             {
 557:Source\MatrixFunctions/arm_mat_inverse_f64.c ****               Xchg = *pOutT2;
 271              		.loc 1 557 0 discriminator 3
 272 016c FB6D     		ldr	r3, [r7, #92]
 273 016e 5C68     		ldr	r4, [r3, #4]
 274 0170 1B68     		ldr	r3, [r3]
 275 0172 3B61     		str	r3, [r7, #16]
 276 0174 7C61     		str	r4, [r7, #20]
 558:Source\MatrixFunctions/arm_mat_inverse_f64.c ****               *pOutT2++ = *pOutT1;
 277              		.loc 1 558 0 discriminator 3
 278 0176 FA6D     		ldr	r2, [r7, #92]
 279 0178 131C     		mov	r3, r2
 280 017a 0833     		add	r3, r3, #8
 281 017c FB65     		str	r3, [r7, #92]
 282 017e 3B6E     		ldr	r3, [r7, #96]
 283 0180 5C68     		ldr	r4, [r3, #4]
 284 0182 1B68     		ldr	r3, [r3]
 285 0184 1360     		str	r3, [r2]
 286 0186 5460     		str	r4, [r2, #4]
 559:Source\MatrixFunctions/arm_mat_inverse_f64.c ****               *pOutT1++ = Xchg;
 287              		.loc 1 559 0 discriminator 3
 288 0188 3A6E     		ldr	r2, [r7, #96]
 289 018a 131C     		mov	r3, r2
 290 018c 0833     		add	r3, r3, #8
 291 018e 3B66     		str	r3, [r7, #96]
ARM GAS  C:\Users\fneves\AppData\Local\Temp\ccy6Cdbg.s 			page 16


 292 0190 3B69     		ldr	r3, [r7, #16]
 293 0192 7C69     		ldr	r4, [r7, #20]
 294 0194 1360     		str	r3, [r2]
 295 0196 5460     		str	r4, [r2, #4]
 555:Source\MatrixFunctions/arm_mat_inverse_f64.c ****             {
 296              		.loc 1 555 0 discriminator 3
 297 0198 BB6B     		ldr	r3, [r7, #56]
 298 019a 0133     		add	r3, r3, #1
 299 019c BB63     		str	r3, [r7, #56]
 300              	.L16:
 555:Source\MatrixFunctions/arm_mat_inverse_f64.c ****             {
 301              		.loc 1 555 0 is_stmt 0 discriminator 1
 302 019e BA6B     		ldr	r2, [r7, #56]
 303 01a0 FB69     		ldr	r3, [r7, #28]
 304 01a2 9A42     		cmp	r2, r3
 305 01a4 E2D3     		bcc	.L17
 560:Source\MatrixFunctions/arm_mat_inverse_f64.c ****             }
 561:Source\MatrixFunctions/arm_mat_inverse_f64.c **** 
 562:Source\MatrixFunctions/arm_mat_inverse_f64.c ****             /* Flag to indicate whether exchange is done or not */
 563:Source\MatrixFunctions/arm_mat_inverse_f64.c ****             flag = 1u;
 306              		.loc 1 563 0 is_stmt 1
 307 01a6 0123     		mov	r3, #1
 308 01a8 FB63     		str	r3, [r7, #60]
 564:Source\MatrixFunctions/arm_mat_inverse_f64.c **** 
 565:Source\MatrixFunctions/arm_mat_inverse_f64.c ****             /* Break after exchange is done */
 566:Source\MatrixFunctions/arm_mat_inverse_f64.c ****             break;
 309              		.loc 1 566 0
 310 01aa 09E0     		b	.L9
 311              	.L47:
 567:Source\MatrixFunctions/arm_mat_inverse_f64.c ****           }
 568:Source\MatrixFunctions/arm_mat_inverse_f64.c **** 
 569:Source\MatrixFunctions/arm_mat_inverse_f64.c ****           /* Update the destination pointer modifier */
 570:Source\MatrixFunctions/arm_mat_inverse_f64.c ****           k++;
 312              		.loc 1 570 0 discriminator 2
 313 01ac 3B6B     		ldr	r3, [r7, #48]
 314 01ae 0133     		add	r3, r3, #1
 315 01b0 3B63     		str	r3, [r7, #48]
 535:Source\MatrixFunctions/arm_mat_inverse_f64.c ****         {
 316              		.loc 1 535 0 discriminator 2
 317 01b2 7B6C     		ldr	r3, [r7, #68]
 318 01b4 0133     		add	r3, r3, #1
 319 01b6 7B64     		str	r3, [r7, #68]
 320              	.L11:
 535:Source\MatrixFunctions/arm_mat_inverse_f64.c ****         {
 321              		.loc 1 535 0 is_stmt 0 discriminator 1
 322 01b8 7A6C     		ldr	r2, [r7, #68]
 323 01ba 3B6A     		ldr	r3, [r7, #32]
 324 01bc 9A42     		cmp	r2, r3
 325 01be 97D3     		bcc	.L18
 326              	.L9:
 571:Source\MatrixFunctions/arm_mat_inverse_f64.c ****         }
 572:Source\MatrixFunctions/arm_mat_inverse_f64.c ****       }
 573:Source\MatrixFunctions/arm_mat_inverse_f64.c **** 
 574:Source\MatrixFunctions/arm_mat_inverse_f64.c ****       /* Update the status if the matrix is singular */
 575:Source\MatrixFunctions/arm_mat_inverse_f64.c ****       if ((flag != 1u) && (in == 0.0f))
 327              		.loc 1 575 0 is_stmt 1
 328 01c0 FB6B     		ldr	r3, [r7, #60]
ARM GAS  C:\Users\fneves\AppData\Local\Temp\ccy6Cdbg.s 			page 17


 329 01c2 012B     		cmp	r3, #1
 330 01c4 09D0     		beq	.L19
 331              		.loc 1 575 0 is_stmt 0 discriminator 1
 332 01c6 B86C     		ldr	r0, [r7, #72]
 333 01c8 F96C     		ldr	r1, [r7, #76]
 334 01ca 0022     		mov	r2, #0
 335 01cc 0023     		mov	r3, #0
 336 01ce FFF7FEFF 		bl	__aeabi_dcmpeq
 337 01d2 031E     		sub	r3, r0, #0
 338 01d4 01D0     		beq	.L19
 576:Source\MatrixFunctions/arm_mat_inverse_f64.c ****       {
 577:Source\MatrixFunctions/arm_mat_inverse_f64.c ****         return ARM_MATH_SINGULAR;
 339              		.loc 1 577 0 is_stmt 1
 340 01d6 FB23     		mov	r3, #251
 341 01d8 19E1     		b	.L21
 342              	.L19:
 578:Source\MatrixFunctions/arm_mat_inverse_f64.c ****       }
 579:Source\MatrixFunctions/arm_mat_inverse_f64.c **** 
 580:Source\MatrixFunctions/arm_mat_inverse_f64.c ****       /* Points to the pivot row of input and destination matrices */
 581:Source\MatrixFunctions/arm_mat_inverse_f64.c ****       pPivotRowIn = pIn + (l * numCols);
 343              		.loc 1 581 0
 344 01da FB6A     		ldr	r3, [r7, #44]
 345 01dc FA69     		ldr	r2, [r7, #28]
 346 01de 5343     		mul	r3, r2
 347 01e0 DB00     		lsl	r3, r3, #3
 348 01e2 FA6E     		ldr	r2, [r7, #108]
 349 01e4 D318     		add	r3, r2, r3
 350 01e6 FB60     		str	r3, [r7, #12]
 582:Source\MatrixFunctions/arm_mat_inverse_f64.c ****       pPivotRowDst = pOut + (l * numCols);
 351              		.loc 1 582 0
 352 01e8 FB6A     		ldr	r3, [r7, #44]
 353 01ea FA69     		ldr	r2, [r7, #28]
 354 01ec 5343     		mul	r3, r2
 355 01ee DB00     		lsl	r3, r3, #3
 356 01f0 7A6A     		ldr	r2, [r7, #36]
 357 01f2 D318     		add	r3, r2, r3
 358 01f4 BB60     		str	r3, [r7, #8]
 583:Source\MatrixFunctions/arm_mat_inverse_f64.c **** 
 584:Source\MatrixFunctions/arm_mat_inverse_f64.c ****       /* Temporary pointers to the pivot row pointers */
 585:Source\MatrixFunctions/arm_mat_inverse_f64.c ****       pInT1 = pPivotRowIn;
 359              		.loc 1 585 0
 360 01f6 FB68     		ldr	r3, [r7, #12]
 361 01f8 BB66     		str	r3, [r7, #104]
 586:Source\MatrixFunctions/arm_mat_inverse_f64.c ****       pOutT1 = pPivotRowDst;
 362              		.loc 1 586 0
 363 01fa BB68     		ldr	r3, [r7, #8]
 364 01fc 3B66     		str	r3, [r7, #96]
 587:Source\MatrixFunctions/arm_mat_inverse_f64.c **** 
 588:Source\MatrixFunctions/arm_mat_inverse_f64.c ****       /* Pivot element of the row */
 589:Source\MatrixFunctions/arm_mat_inverse_f64.c ****       in = *(pIn + (l * numCols));
 365              		.loc 1 589 0
 366 01fe FB6A     		ldr	r3, [r7, #44]
 367 0200 FA69     		ldr	r2, [r7, #28]
 368 0202 5343     		mul	r3, r2
 369 0204 DB00     		lsl	r3, r3, #3
 370 0206 FA6E     		ldr	r2, [r7, #108]
 371 0208 D318     		add	r3, r2, r3
ARM GAS  C:\Users\fneves\AppData\Local\Temp\ccy6Cdbg.s 			page 18


 372 020a 5C68     		ldr	r4, [r3, #4]
 373 020c 1B68     		ldr	r3, [r3]
 374 020e BB64     		str	r3, [r7, #72]
 375 0210 FC64     		str	r4, [r7, #76]
 590:Source\MatrixFunctions/arm_mat_inverse_f64.c **** 
 591:Source\MatrixFunctions/arm_mat_inverse_f64.c ****       /* Loop over number of columns
 592:Source\MatrixFunctions/arm_mat_inverse_f64.c ****        * to the right of the pilot element */
 593:Source\MatrixFunctions/arm_mat_inverse_f64.c ****       for (j = 0u; j < (numCols - l); j++)
 376              		.loc 1 593 0
 377 0212 0023     		mov	r3, #0
 378 0214 BB63     		str	r3, [r7, #56]
 379 0216 13E0     		b	.L22
 380              	.L23:
 594:Source\MatrixFunctions/arm_mat_inverse_f64.c ****       {
 595:Source\MatrixFunctions/arm_mat_inverse_f64.c ****         /* Divide each element of the row of the input matrix
 596:Source\MatrixFunctions/arm_mat_inverse_f64.c ****          * by the pivot element */
 597:Source\MatrixFunctions/arm_mat_inverse_f64.c ****         *pInT1 = *pInT1 / in;
 381              		.loc 1 597 0 discriminator 3
 382 0218 BB6E     		ldr	r3, [r7, #104]
 383 021a 5C68     		ldr	r4, [r3, #4]
 384 021c 1B68     		ldr	r3, [r3]
 385 021e 181C     		mov	r0, r3
 386 0220 211C     		mov	r1, r4
 387 0222 BA6C     		ldr	r2, [r7, #72]
 388 0224 FB6C     		ldr	r3, [r7, #76]
 389 0226 FFF7FEFF 		bl	__aeabi_ddiv
 390 022a 031C     		mov	r3, r0
 391 022c 0C1C     		mov	r4, r1
 392 022e BA6E     		ldr	r2, [r7, #104]
 393 0230 1360     		str	r3, [r2]
 394 0232 5460     		str	r4, [r2, #4]
 598:Source\MatrixFunctions/arm_mat_inverse_f64.c ****         pInT1++;
 395              		.loc 1 598 0 discriminator 3
 396 0234 BB6E     		ldr	r3, [r7, #104]
 397 0236 0833     		add	r3, r3, #8
 398 0238 BB66     		str	r3, [r7, #104]
 593:Source\MatrixFunctions/arm_mat_inverse_f64.c ****       {
 399              		.loc 1 593 0 discriminator 3
 400 023a BB6B     		ldr	r3, [r7, #56]
 401 023c 0133     		add	r3, r3, #1
 402 023e BB63     		str	r3, [r7, #56]
 403              	.L22:
 593:Source\MatrixFunctions/arm_mat_inverse_f64.c ****       {
 404              		.loc 1 593 0 is_stmt 0 discriminator 1
 405 0240 FA69     		ldr	r2, [r7, #28]
 406 0242 FB6A     		ldr	r3, [r7, #44]
 407 0244 D21A     		sub	r2, r2, r3
 408 0246 BB6B     		ldr	r3, [r7, #56]
 409 0248 9A42     		cmp	r2, r3
 410 024a E5D8     		bhi	.L23
 599:Source\MatrixFunctions/arm_mat_inverse_f64.c ****       }
 600:Source\MatrixFunctions/arm_mat_inverse_f64.c ****       for (j = 0u; j < numCols; j++)
 411              		.loc 1 600 0 is_stmt 1
 412 024c 0023     		mov	r3, #0
 413 024e BB63     		str	r3, [r7, #56]
 414 0250 13E0     		b	.L24
 415              	.L25:
ARM GAS  C:\Users\fneves\AppData\Local\Temp\ccy6Cdbg.s 			page 19


 601:Source\MatrixFunctions/arm_mat_inverse_f64.c ****       {
 602:Source\MatrixFunctions/arm_mat_inverse_f64.c ****         /* Divide each element of the row of the destination matrix
 603:Source\MatrixFunctions/arm_mat_inverse_f64.c ****          * by the pivot element */
 604:Source\MatrixFunctions/arm_mat_inverse_f64.c ****         *pOutT1 = *pOutT1 / in;
 416              		.loc 1 604 0 discriminator 3
 417 0252 3B6E     		ldr	r3, [r7, #96]
 418 0254 5C68     		ldr	r4, [r3, #4]
 419 0256 1B68     		ldr	r3, [r3]
 420 0258 181C     		mov	r0, r3
 421 025a 211C     		mov	r1, r4
 422 025c BA6C     		ldr	r2, [r7, #72]
 423 025e FB6C     		ldr	r3, [r7, #76]
 424 0260 FFF7FEFF 		bl	__aeabi_ddiv
 425 0264 031C     		mov	r3, r0
 426 0266 0C1C     		mov	r4, r1
 427 0268 3A6E     		ldr	r2, [r7, #96]
 428 026a 1360     		str	r3, [r2]
 429 026c 5460     		str	r4, [r2, #4]
 605:Source\MatrixFunctions/arm_mat_inverse_f64.c ****         pOutT1++;
 430              		.loc 1 605 0 discriminator 3
 431 026e 3B6E     		ldr	r3, [r7, #96]
 432 0270 0833     		add	r3, r3, #8
 433 0272 3B66     		str	r3, [r7, #96]
 600:Source\MatrixFunctions/arm_mat_inverse_f64.c ****       {
 434              		.loc 1 600 0 discriminator 3
 435 0274 BB6B     		ldr	r3, [r7, #56]
 436 0276 0133     		add	r3, r3, #1
 437 0278 BB63     		str	r3, [r7, #56]
 438              	.L24:
 600:Source\MatrixFunctions/arm_mat_inverse_f64.c ****       {
 439              		.loc 1 600 0 is_stmt 0 discriminator 1
 440 027a BA6B     		ldr	r2, [r7, #56]
 441 027c FB69     		ldr	r3, [r7, #28]
 442 027e 9A42     		cmp	r2, r3
 443 0280 E7D3     		bcc	.L25
 606:Source\MatrixFunctions/arm_mat_inverse_f64.c ****       }
 607:Source\MatrixFunctions/arm_mat_inverse_f64.c **** 
 608:Source\MatrixFunctions/arm_mat_inverse_f64.c ****       /* Replace the rows with the sum of that row and a multiple of row i
 609:Source\MatrixFunctions/arm_mat_inverse_f64.c ****        * so that each new element in column i above row i is zero.*/
 610:Source\MatrixFunctions/arm_mat_inverse_f64.c **** 
 611:Source\MatrixFunctions/arm_mat_inverse_f64.c ****       /* Temporary pointers for input and destination matrices */
 612:Source\MatrixFunctions/arm_mat_inverse_f64.c ****       pInT1 = pIn;
 444              		.loc 1 612 0 is_stmt 1
 445 0282 FB6E     		ldr	r3, [r7, #108]
 446 0284 BB66     		str	r3, [r7, #104]
 613:Source\MatrixFunctions/arm_mat_inverse_f64.c ****       pOutT1 = pOut;
 447              		.loc 1 613 0
 448 0286 7B6A     		ldr	r3, [r7, #36]
 449 0288 3B66     		str	r3, [r7, #96]
 614:Source\MatrixFunctions/arm_mat_inverse_f64.c **** 
 615:Source\MatrixFunctions/arm_mat_inverse_f64.c ****       for (i = 0u; i < numRows; i++)
 450              		.loc 1 615 0
 451 028a 0023     		mov	r3, #0
 452 028c 7B64     		str	r3, [r7, #68]
 453 028e 71E0     		b	.L26
 454              	.L33:
 616:Source\MatrixFunctions/arm_mat_inverse_f64.c ****       {
ARM GAS  C:\Users\fneves\AppData\Local\Temp\ccy6Cdbg.s 			page 20


 617:Source\MatrixFunctions/arm_mat_inverse_f64.c ****         /* Check for the pivot element */
 618:Source\MatrixFunctions/arm_mat_inverse_f64.c ****         if (i == l)
 455              		.loc 1 618 0
 456 0290 7A6C     		ldr	r2, [r7, #68]
 457 0292 FB6A     		ldr	r3, [r7, #44]
 458 0294 9A42     		cmp	r2, r3
 459 0296 0CD1     		bne	.L27
 619:Source\MatrixFunctions/arm_mat_inverse_f64.c ****         {
 620:Source\MatrixFunctions/arm_mat_inverse_f64.c ****           /* If the processing element is the pivot element,
 621:Source\MatrixFunctions/arm_mat_inverse_f64.c ****              only the columns to the right are to be processed */
 622:Source\MatrixFunctions/arm_mat_inverse_f64.c ****           pInT1 += numCols - l;
 460              		.loc 1 622 0
 461 0298 FA69     		ldr	r2, [r7, #28]
 462 029a FB6A     		ldr	r3, [r7, #44]
 463 029c D31A     		sub	r3, r2, r3
 464 029e DB00     		lsl	r3, r3, #3
 465 02a0 BA6E     		ldr	r2, [r7, #104]
 466 02a2 D318     		add	r3, r2, r3
 467 02a4 BB66     		str	r3, [r7, #104]
 623:Source\MatrixFunctions/arm_mat_inverse_f64.c ****           pOutT1 += numCols;
 468              		.loc 1 623 0
 469 02a6 FB69     		ldr	r3, [r7, #28]
 470 02a8 DB00     		lsl	r3, r3, #3
 471 02aa 3A6E     		ldr	r2, [r7, #96]
 472 02ac D318     		add	r3, r2, r3
 473 02ae 3B66     		str	r3, [r7, #96]
 474 02b0 58E0     		b	.L28
 475              	.L27:
 624:Source\MatrixFunctions/arm_mat_inverse_f64.c ****         }
 625:Source\MatrixFunctions/arm_mat_inverse_f64.c ****         else
 626:Source\MatrixFunctions/arm_mat_inverse_f64.c ****         {
 627:Source\MatrixFunctions/arm_mat_inverse_f64.c ****           /* Element of the reference row */
 628:Source\MatrixFunctions/arm_mat_inverse_f64.c ****           in = *pInT1;
 476              		.loc 1 628 0
 477 02b2 BB6E     		ldr	r3, [r7, #104]
 478 02b4 5C68     		ldr	r4, [r3, #4]
 479 02b6 1B68     		ldr	r3, [r3]
 480 02b8 BB64     		str	r3, [r7, #72]
 481 02ba FC64     		str	r4, [r7, #76]
 629:Source\MatrixFunctions/arm_mat_inverse_f64.c **** 
 630:Source\MatrixFunctions/arm_mat_inverse_f64.c ****           /* Working pointers for input and destination pivot rows */
 631:Source\MatrixFunctions/arm_mat_inverse_f64.c ****           pPRT_in = pPivotRowIn;
 482              		.loc 1 631 0
 483 02bc FB68     		ldr	r3, [r7, #12]
 484 02be BB65     		str	r3, [r7, #88]
 632:Source\MatrixFunctions/arm_mat_inverse_f64.c ****           pPRT_pDst = pPivotRowDst;
 485              		.loc 1 632 0
 486 02c0 BB68     		ldr	r3, [r7, #8]
 487 02c2 7B65     		str	r3, [r7, #84]
 633:Source\MatrixFunctions/arm_mat_inverse_f64.c **** 
 634:Source\MatrixFunctions/arm_mat_inverse_f64.c ****           /* Loop over the number of columns to the right of the pivot element,
 635:Source\MatrixFunctions/arm_mat_inverse_f64.c ****              to replace the elements in the input matrix */
 636:Source\MatrixFunctions/arm_mat_inverse_f64.c ****           for (j = 0u; j < (numCols - l); j++)
 488              		.loc 1 636 0
 489 02c4 0023     		mov	r3, #0
 490 02c6 BB63     		str	r3, [r7, #56]
 491 02c8 1FE0     		b	.L29
ARM GAS  C:\Users\fneves\AppData\Local\Temp\ccy6Cdbg.s 			page 21


 492              	.L30:
 637:Source\MatrixFunctions/arm_mat_inverse_f64.c ****           {
 638:Source\MatrixFunctions/arm_mat_inverse_f64.c ****             /* Replace the element by the sum of that row
 639:Source\MatrixFunctions/arm_mat_inverse_f64.c ****                and a multiple of the reference row  */
 640:Source\MatrixFunctions/arm_mat_inverse_f64.c ****             *pInT1 = *pInT1 - (in * *pPRT_in++);
 493              		.loc 1 640 0 discriminator 3
 494 02ca BB6E     		ldr	r3, [r7, #104]
 495 02cc 1C68     		ldr	r4, [r3]
 496 02ce 5D68     		ldr	r5, [r3, #4]
 497 02d0 BB6D     		ldr	r3, [r7, #88]
 498 02d2 1A1C     		mov	r2, r3
 499 02d4 0832     		add	r2, r2, #8
 500 02d6 BA65     		str	r2, [r7, #88]
 501 02d8 1A68     		ldr	r2, [r3]
 502 02da 5B68     		ldr	r3, [r3, #4]
 503 02dc 101C     		mov	r0, r2
 504 02de 191C     		mov	r1, r3
 505 02e0 BA6C     		ldr	r2, [r7, #72]
 506 02e2 FB6C     		ldr	r3, [r7, #76]
 507 02e4 FFF7FEFF 		bl	__aeabi_dmul
 508 02e8 021C     		mov	r2, r0
 509 02ea 0B1C     		mov	r3, r1
 510 02ec 201C     		mov	r0, r4
 511 02ee 291C     		mov	r1, r5
 512 02f0 FFF7FEFF 		bl	__aeabi_dsub
 513 02f4 031C     		mov	r3, r0
 514 02f6 0C1C     		mov	r4, r1
 515 02f8 BA6E     		ldr	r2, [r7, #104]
 516 02fa 1360     		str	r3, [r2]
 517 02fc 5460     		str	r4, [r2, #4]
 641:Source\MatrixFunctions/arm_mat_inverse_f64.c ****             pInT1++;
 518              		.loc 1 641 0 discriminator 3
 519 02fe BB6E     		ldr	r3, [r7, #104]
 520 0300 0833     		add	r3, r3, #8
 521 0302 BB66     		str	r3, [r7, #104]
 636:Source\MatrixFunctions/arm_mat_inverse_f64.c ****           {
 522              		.loc 1 636 0 discriminator 3
 523 0304 BB6B     		ldr	r3, [r7, #56]
 524 0306 0133     		add	r3, r3, #1
 525 0308 BB63     		str	r3, [r7, #56]
 526              	.L29:
 636:Source\MatrixFunctions/arm_mat_inverse_f64.c ****           {
 527              		.loc 1 636 0 is_stmt 0 discriminator 1
 528 030a FA69     		ldr	r2, [r7, #28]
 529 030c FB6A     		ldr	r3, [r7, #44]
 530 030e D21A     		sub	r2, r2, r3
 531 0310 BB6B     		ldr	r3, [r7, #56]
 532 0312 9A42     		cmp	r2, r3
 533 0314 D9D8     		bhi	.L30
 642:Source\MatrixFunctions/arm_mat_inverse_f64.c ****           }
 643:Source\MatrixFunctions/arm_mat_inverse_f64.c ****           /* Loop over the number of columns to
 644:Source\MatrixFunctions/arm_mat_inverse_f64.c ****              replace the elements in the destination matrix */
 645:Source\MatrixFunctions/arm_mat_inverse_f64.c ****           for (j = 0u; j < numCols; j++)
 534              		.loc 1 645 0 is_stmt 1
 535 0316 0023     		mov	r3, #0
 536 0318 BB63     		str	r3, [r7, #56]
 537 031a 1FE0     		b	.L31
ARM GAS  C:\Users\fneves\AppData\Local\Temp\ccy6Cdbg.s 			page 22


 538              	.L32:
 646:Source\MatrixFunctions/arm_mat_inverse_f64.c ****           {
 647:Source\MatrixFunctions/arm_mat_inverse_f64.c ****             /* Replace the element by the sum of that row
 648:Source\MatrixFunctions/arm_mat_inverse_f64.c ****                and a multiple of the reference row  */
 649:Source\MatrixFunctions/arm_mat_inverse_f64.c ****             *pOutT1 = *pOutT1 - (in * *pPRT_pDst++);
 539              		.loc 1 649 0 discriminator 3
 540 031c 3B6E     		ldr	r3, [r7, #96]
 541 031e 1C68     		ldr	r4, [r3]
 542 0320 5D68     		ldr	r5, [r3, #4]
 543 0322 7B6D     		ldr	r3, [r7, #84]
 544 0324 1A1C     		mov	r2, r3
 545 0326 0832     		add	r2, r2, #8
 546 0328 7A65     		str	r2, [r7, #84]
 547 032a 1A68     		ldr	r2, [r3]
 548 032c 5B68     		ldr	r3, [r3, #4]
 549 032e 101C     		mov	r0, r2
 550 0330 191C     		mov	r1, r3
 551 0332 BA6C     		ldr	r2, [r7, #72]
 552 0334 FB6C     		ldr	r3, [r7, #76]
 553 0336 FFF7FEFF 		bl	__aeabi_dmul
 554 033a 021C     		mov	r2, r0
 555 033c 0B1C     		mov	r3, r1
 556 033e 201C     		mov	r0, r4
 557 0340 291C     		mov	r1, r5
 558 0342 FFF7FEFF 		bl	__aeabi_dsub
 559 0346 031C     		mov	r3, r0
 560 0348 0C1C     		mov	r4, r1
 561 034a 3A6E     		ldr	r2, [r7, #96]
 562 034c 1360     		str	r3, [r2]
 563 034e 5460     		str	r4, [r2, #4]
 650:Source\MatrixFunctions/arm_mat_inverse_f64.c ****             pOutT1++;
 564              		.loc 1 650 0 discriminator 3
 565 0350 3B6E     		ldr	r3, [r7, #96]
 566 0352 0833     		add	r3, r3, #8
 567 0354 3B66     		str	r3, [r7, #96]
 645:Source\MatrixFunctions/arm_mat_inverse_f64.c ****           {
 568              		.loc 1 645 0 discriminator 3
 569 0356 BB6B     		ldr	r3, [r7, #56]
 570 0358 0133     		add	r3, r3, #1
 571 035a BB63     		str	r3, [r7, #56]
 572              	.L31:
 645:Source\MatrixFunctions/arm_mat_inverse_f64.c ****           {
 573              		.loc 1 645 0 is_stmt 0 discriminator 1
 574 035c BA6B     		ldr	r2, [r7, #56]
 575 035e FB69     		ldr	r3, [r7, #28]
 576 0360 9A42     		cmp	r2, r3
 577 0362 DBD3     		bcc	.L32
 578              	.L28:
 651:Source\MatrixFunctions/arm_mat_inverse_f64.c ****           }
 652:Source\MatrixFunctions/arm_mat_inverse_f64.c **** 
 653:Source\MatrixFunctions/arm_mat_inverse_f64.c ****         }
 654:Source\MatrixFunctions/arm_mat_inverse_f64.c ****         /* Increment the temporary input pointer */
 655:Source\MatrixFunctions/arm_mat_inverse_f64.c ****         pInT1 = pInT1 + l;
 579              		.loc 1 655 0 is_stmt 1 discriminator 2
 580 0364 FB6A     		ldr	r3, [r7, #44]
 581 0366 DB00     		lsl	r3, r3, #3
 582 0368 BA6E     		ldr	r2, [r7, #104]
ARM GAS  C:\Users\fneves\AppData\Local\Temp\ccy6Cdbg.s 			page 23


 583 036a D318     		add	r3, r2, r3
 584 036c BB66     		str	r3, [r7, #104]
 615:Source\MatrixFunctions/arm_mat_inverse_f64.c ****       {
 585              		.loc 1 615 0 discriminator 2
 586 036e 7B6C     		ldr	r3, [r7, #68]
 587 0370 0133     		add	r3, r3, #1
 588 0372 7B64     		str	r3, [r7, #68]
 589              	.L26:
 615:Source\MatrixFunctions/arm_mat_inverse_f64.c ****       {
 590              		.loc 1 615 0 is_stmt 0 discriminator 1
 591 0374 7A6C     		ldr	r2, [r7, #68]
 592 0376 3B6A     		ldr	r3, [r7, #32]
 593 0378 9A42     		cmp	r2, r3
 594 037a 89D3     		bcc	.L33
 656:Source\MatrixFunctions/arm_mat_inverse_f64.c ****       }
 657:Source\MatrixFunctions/arm_mat_inverse_f64.c ****       /* Increment the input pointer */
 658:Source\MatrixFunctions/arm_mat_inverse_f64.c ****       pIn++;
 595              		.loc 1 658 0 is_stmt 1
 596 037c FB6E     		ldr	r3, [r7, #108]
 597 037e 0833     		add	r3, r3, #8
 598 0380 FB66     		str	r3, [r7, #108]
 659:Source\MatrixFunctions/arm_mat_inverse_f64.c **** 
 660:Source\MatrixFunctions/arm_mat_inverse_f64.c ****       /* Decrement the loop counter */
 661:Source\MatrixFunctions/arm_mat_inverse_f64.c ****       loopCnt--;
 599              		.loc 1 661 0
 600 0382 7B6B     		ldr	r3, [r7, #52]
 601 0384 013B     		sub	r3, r3, #1
 602 0386 7B63     		str	r3, [r7, #52]
 662:Source\MatrixFunctions/arm_mat_inverse_f64.c ****       /* Increment the index modifier */
 663:Source\MatrixFunctions/arm_mat_inverse_f64.c ****       l++;
 603              		.loc 1 663 0
 604 0388 FB6A     		ldr	r3, [r7, #44]
 605 038a 0133     		add	r3, r3, #1
 606 038c FB62     		str	r3, [r7, #44]
 607              	.L8:
 510:Source\MatrixFunctions/arm_mat_inverse_f64.c ****     {
 608              		.loc 1 510 0
 609 038e 7B6B     		ldr	r3, [r7, #52]
 610 0390 002B     		cmp	r3, #0
 611 0392 00D0     		beq	.LCB494
 612 0394 88E6     		b	.L34	@long jump
 613              	.LCB494:
 664:Source\MatrixFunctions/arm_mat_inverse_f64.c ****     }
 665:Source\MatrixFunctions/arm_mat_inverse_f64.c **** 
 666:Source\MatrixFunctions/arm_mat_inverse_f64.c **** 
 667:Source\MatrixFunctions/arm_mat_inverse_f64.c **** #endif /* #if defined (ARM_MATH_DSP) */
 668:Source\MatrixFunctions/arm_mat_inverse_f64.c **** 
 669:Source\MatrixFunctions/arm_mat_inverse_f64.c ****     /* Set status as ARM_MATH_SUCCESS */
 670:Source\MatrixFunctions/arm_mat_inverse_f64.c ****     status = ARM_MATH_SUCCESS;
 614              		.loc 1 670 0
 615 0396 2B23     		mov	r3, #43
 616 0398 FB18     		add	r3, r7, r3
 617 039a 0022     		mov	r2, #0
 618 039c 1A70     		strb	r2, [r3]
 671:Source\MatrixFunctions/arm_mat_inverse_f64.c **** 
 672:Source\MatrixFunctions/arm_mat_inverse_f64.c ****     if ((flag != 1u) && (in == 0.0f))
 619              		.loc 1 672 0
ARM GAS  C:\Users\fneves\AppData\Local\Temp\ccy6Cdbg.s 			page 24


 620 039e FB6B     		ldr	r3, [r7, #60]
 621 03a0 012B     		cmp	r3, #1
 622 03a2 31D0     		beq	.L35
 623              		.loc 1 672 0 is_stmt 0 discriminator 1
 624 03a4 B86C     		ldr	r0, [r7, #72]
 625 03a6 F96C     		ldr	r1, [r7, #76]
 626 03a8 0022     		mov	r2, #0
 627 03aa 0023     		mov	r3, #0
 628 03ac FFF7FEFF 		bl	__aeabi_dcmpeq
 629 03b0 031E     		sub	r3, r0, #0
 630 03b2 29D0     		beq	.L35
 673:Source\MatrixFunctions/arm_mat_inverse_f64.c ****     {
 674:Source\MatrixFunctions/arm_mat_inverse_f64.c ****       pIn = pSrc->pData;
 631              		.loc 1 674 0 is_stmt 1
 632 03b4 7B68     		ldr	r3, [r7, #4]
 633 03b6 5B68     		ldr	r3, [r3, #4]
 634 03b8 FB66     		str	r3, [r7, #108]
 675:Source\MatrixFunctions/arm_mat_inverse_f64.c ****       for (i = 0; i < numRows * numCols; i++)
 635              		.loc 1 675 0
 636 03ba 0023     		mov	r3, #0
 637 03bc 7B64     		str	r3, [r7, #68]
 638 03be 13E0     		b	.L37
 639              	.L50:
 640              		.align	2
 641              	.L49:
 642 03c0 0000F03F 		.word	1072693248
 643              	.L41:
 676:Source\MatrixFunctions/arm_mat_inverse_f64.c ****       {
 677:Source\MatrixFunctions/arm_mat_inverse_f64.c ****         if (pIn[i] != 0.0f)
 644              		.loc 1 677 0
 645 03c4 7B6C     		ldr	r3, [r7, #68]
 646 03c6 DB00     		lsl	r3, r3, #3
 647 03c8 FA6E     		ldr	r2, [r7, #108]
 648 03ca D318     		add	r3, r2, r3
 649 03cc 5C68     		ldr	r4, [r3, #4]
 650 03ce 1B68     		ldr	r3, [r3]
 651 03d0 181C     		mov	r0, r3
 652 03d2 211C     		mov	r1, r4
 653 03d4 0022     		mov	r2, #0
 654 03d6 0023     		mov	r3, #0
 655 03d8 FFF7FEFF 		bl	__aeabi_dcmpeq
 656 03dc 031E     		sub	r3, r0, #0
 657 03de 00D1     		bne	.L48
 678:Source\MatrixFunctions/arm_mat_inverse_f64.c ****             break;
 658              		.loc 1 678 0
 659 03e0 08E0     		b	.L40
 660              	.L48:
 675:Source\MatrixFunctions/arm_mat_inverse_f64.c ****       for (i = 0; i < numRows * numCols; i++)
 661              		.loc 1 675 0 discriminator 2
 662 03e2 7B6C     		ldr	r3, [r7, #68]
 663 03e4 0133     		add	r3, r3, #1
 664 03e6 7B64     		str	r3, [r7, #68]
 665              	.L37:
 675:Source\MatrixFunctions/arm_mat_inverse_f64.c ****       for (i = 0; i < numRows * numCols; i++)
 666              		.loc 1 675 0 is_stmt 0 discriminator 1
 667 03e8 3B6A     		ldr	r3, [r7, #32]
 668 03ea FA69     		ldr	r2, [r7, #28]
ARM GAS  C:\Users\fneves\AppData\Local\Temp\ccy6Cdbg.s 			page 25


 669 03ec 5A43     		mul	r2, r3
 670 03ee 7B6C     		ldr	r3, [r7, #68]
 671 03f0 9A42     		cmp	r2, r3
 672 03f2 E7D8     		bhi	.L41
 673              	.L40:
 679:Source\MatrixFunctions/arm_mat_inverse_f64.c ****       }
 680:Source\MatrixFunctions/arm_mat_inverse_f64.c **** 
 681:Source\MatrixFunctions/arm_mat_inverse_f64.c ****       if (i == numRows * numCols)
 674              		.loc 1 681 0 is_stmt 1
 675 03f4 3B6A     		ldr	r3, [r7, #32]
 676 03f6 FA69     		ldr	r2, [r7, #28]
 677 03f8 5A43     		mul	r2, r3
 678 03fa 7B6C     		ldr	r3, [r7, #68]
 679 03fc 9A42     		cmp	r2, r3
 680 03fe 03D1     		bne	.L35
 682:Source\MatrixFunctions/arm_mat_inverse_f64.c ****         status = ARM_MATH_SINGULAR;
 681              		.loc 1 682 0
 682 0400 2B23     		mov	r3, #43
 683 0402 FB18     		add	r3, r7, r3
 684 0404 FB22     		mov	r2, #251
 685 0406 1A70     		strb	r2, [r3]
 686              	.L35:
 683:Source\MatrixFunctions/arm_mat_inverse_f64.c ****     }
 684:Source\MatrixFunctions/arm_mat_inverse_f64.c ****   }
 685:Source\MatrixFunctions/arm_mat_inverse_f64.c ****   /* Return to application */
 686:Source\MatrixFunctions/arm_mat_inverse_f64.c ****   return (status);
 687              		.loc 1 686 0
 688 0408 2B23     		mov	r3, #43
 689 040a FB18     		add	r3, r7, r3
 690 040c 1B78     		ldrb	r3, [r3]
 691              	.L21:
 692 040e 5BB2     		sxtb	r3, r3
 687:Source\MatrixFunctions/arm_mat_inverse_f64.c **** }
 693              		.loc 1 687 0
 694 0410 181C     		mov	r0, r3
 695 0412 BD46     		mov	sp, r7
 696 0414 1CB0     		add	sp, sp, #112
 697              		@ sp needed
 698 0416 B0BD     		pop	{r4, r5, r7, pc}
 699              		.cfi_endproc
 700              	.LFE82:
 701              		.size	arm_mat_inverse_f64, .-arm_mat_inverse_f64
 702              		.text
 703              	.Letext0:
 704              		.file 2 "c:\\program files (x86)\\cypress\\psoc creator\\4.0\\psoc creator\\import\\gnu\\arm\\4.9.
 705              		.file 3 "c:\\program files (x86)\\cypress\\psoc creator\\4.0\\psoc creator\\import\\gnu\\arm\\4.9.
 706              		.file 4 ".\\Include/arm_math.h"