ARM GAS  C:\Users\fneves\AppData\Local\Temp\cc0ayw4Y.s 			page 1


   1              		.cpu cortex-m0plus
   2              		.fpu softvfp
   3              		.eabi_attribute 20, 1
   4              		.eabi_attribute 21, 1
   5              		.eabi_attribute 23, 3
   6              		.eabi_attribute 24, 1
   7              		.eabi_attribute 25, 1
   8              		.eabi_attribute 26, 1
   9              		.eabi_attribute 30, 6
  10              		.eabi_attribute 34, 0
  11              		.eabi_attribute 18, 4
  12              		.code	16
  13              		.file	"arm_cfft_radix4_q15.c"
  14              		.text
  15              	.Ltext0:
  16              		.cfi_sections	.debug_frame
  17              		.section	.text.arm_cfft_radix4_q15,"ax",%progbits
  18              		.align	2
  19              		.global	arm_cfft_radix4_q15
  20              		.code	16
  21              		.thumb_func
  22              		.type	arm_cfft_radix4_q15, %function
  23              	arm_cfft_radix4_q15:
  24              	.LFB82:
  25              		.file 1 "Source\\TransformFunctions\\arm_cfft_radix4_q15.c"
   1:Source\TransformFunctions/arm_cfft_radix4_q15.c **** /* ----------------------------------------------------------------------
   2:Source\TransformFunctions/arm_cfft_radix4_q15.c ****  * Project:      CMSIS DSP Library
   3:Source\TransformFunctions/arm_cfft_radix4_q15.c ****  * Title:        arm_cfft_radix4_q15.c
   4:Source\TransformFunctions/arm_cfft_radix4_q15.c ****  * Description:  This file has function definition of Radix-4 FFT & IFFT function and
   5:Source\TransformFunctions/arm_cfft_radix4_q15.c ****  *               In-place bit reversal using bit reversal table
   6:Source\TransformFunctions/arm_cfft_radix4_q15.c ****  *
   7:Source\TransformFunctions/arm_cfft_radix4_q15.c ****  * $Date:        27. January 2017
   8:Source\TransformFunctions/arm_cfft_radix4_q15.c ****  * $Revision:    V.1.5.1
   9:Source\TransformFunctions/arm_cfft_radix4_q15.c ****  *
  10:Source\TransformFunctions/arm_cfft_radix4_q15.c ****  * Target Processor: Cortex-M cores
  11:Source\TransformFunctions/arm_cfft_radix4_q15.c ****  * -------------------------------------------------------------------- */
  12:Source\TransformFunctions/arm_cfft_radix4_q15.c **** /*
  13:Source\TransformFunctions/arm_cfft_radix4_q15.c ****  * Copyright (C) 2010-2017 ARM Limited or its affiliates. All rights reserved.
  14:Source\TransformFunctions/arm_cfft_radix4_q15.c ****  *
  15:Source\TransformFunctions/arm_cfft_radix4_q15.c ****  * SPDX-License-Identifier: Apache-2.0
  16:Source\TransformFunctions/arm_cfft_radix4_q15.c ****  *
  17:Source\TransformFunctions/arm_cfft_radix4_q15.c ****  * Licensed under the Apache License, Version 2.0 (the License); you may
  18:Source\TransformFunctions/arm_cfft_radix4_q15.c ****  * not use this file except in compliance with the License.
  19:Source\TransformFunctions/arm_cfft_radix4_q15.c ****  * You may obtain a copy of the License at
  20:Source\TransformFunctions/arm_cfft_radix4_q15.c ****  *
  21:Source\TransformFunctions/arm_cfft_radix4_q15.c ****  * www.apache.org/licenses/LICENSE-2.0
  22:Source\TransformFunctions/arm_cfft_radix4_q15.c ****  *
  23:Source\TransformFunctions/arm_cfft_radix4_q15.c ****  * Unless required by applicable law or agreed to in writing, software
  24:Source\TransformFunctions/arm_cfft_radix4_q15.c ****  * distributed under the License is distributed on an AS IS BASIS, WITHOUT
  25:Source\TransformFunctions/arm_cfft_radix4_q15.c ****  * WARRANTIES OR CONDITIONS OF ANY KIND, either express or implied.
  26:Source\TransformFunctions/arm_cfft_radix4_q15.c ****  * See the License for the specific language governing permissions and
  27:Source\TransformFunctions/arm_cfft_radix4_q15.c ****  * limitations under the License.
  28:Source\TransformFunctions/arm_cfft_radix4_q15.c ****  */
  29:Source\TransformFunctions/arm_cfft_radix4_q15.c **** 
  30:Source\TransformFunctions/arm_cfft_radix4_q15.c **** #include "arm_math.h"
  31:Source\TransformFunctions/arm_cfft_radix4_q15.c **** 
  32:Source\TransformFunctions/arm_cfft_radix4_q15.c **** 
ARM GAS  C:\Users\fneves\AppData\Local\Temp\cc0ayw4Y.s 			page 2


  33:Source\TransformFunctions/arm_cfft_radix4_q15.c **** void arm_radix4_butterfly_q15(
  34:Source\TransformFunctions/arm_cfft_radix4_q15.c ****   q15_t * pSrc16,
  35:Source\TransformFunctions/arm_cfft_radix4_q15.c ****   uint32_t fftLen,
  36:Source\TransformFunctions/arm_cfft_radix4_q15.c ****   q15_t * pCoef16,
  37:Source\TransformFunctions/arm_cfft_radix4_q15.c ****   uint32_t twidCoefModifier);
  38:Source\TransformFunctions/arm_cfft_radix4_q15.c **** 
  39:Source\TransformFunctions/arm_cfft_radix4_q15.c **** void arm_radix4_butterfly_inverse_q15(
  40:Source\TransformFunctions/arm_cfft_radix4_q15.c ****   q15_t * pSrc16,
  41:Source\TransformFunctions/arm_cfft_radix4_q15.c ****   uint32_t fftLen,
  42:Source\TransformFunctions/arm_cfft_radix4_q15.c ****   q15_t * pCoef16,
  43:Source\TransformFunctions/arm_cfft_radix4_q15.c ****   uint32_t twidCoefModifier);
  44:Source\TransformFunctions/arm_cfft_radix4_q15.c **** 
  45:Source\TransformFunctions/arm_cfft_radix4_q15.c **** void arm_bitreversal_q15(
  46:Source\TransformFunctions/arm_cfft_radix4_q15.c ****   q15_t * pSrc,
  47:Source\TransformFunctions/arm_cfft_radix4_q15.c ****   uint32_t fftLen,
  48:Source\TransformFunctions/arm_cfft_radix4_q15.c ****   uint16_t bitRevFactor,
  49:Source\TransformFunctions/arm_cfft_radix4_q15.c ****   uint16_t * pBitRevTab);
  50:Source\TransformFunctions/arm_cfft_radix4_q15.c **** 
  51:Source\TransformFunctions/arm_cfft_radix4_q15.c **** /**
  52:Source\TransformFunctions/arm_cfft_radix4_q15.c ****  * @ingroup groupTransforms
  53:Source\TransformFunctions/arm_cfft_radix4_q15.c ****  */
  54:Source\TransformFunctions/arm_cfft_radix4_q15.c **** 
  55:Source\TransformFunctions/arm_cfft_radix4_q15.c **** /**
  56:Source\TransformFunctions/arm_cfft_radix4_q15.c ****  * @addtogroup ComplexFFT
  57:Source\TransformFunctions/arm_cfft_radix4_q15.c ****  * @{
  58:Source\TransformFunctions/arm_cfft_radix4_q15.c ****  */
  59:Source\TransformFunctions/arm_cfft_radix4_q15.c **** 
  60:Source\TransformFunctions/arm_cfft_radix4_q15.c **** 
  61:Source\TransformFunctions/arm_cfft_radix4_q15.c **** /**
  62:Source\TransformFunctions/arm_cfft_radix4_q15.c ****  * @details
  63:Source\TransformFunctions/arm_cfft_radix4_q15.c ****  * @brief Processing function for the Q15 CFFT/CIFFT.
  64:Source\TransformFunctions/arm_cfft_radix4_q15.c ****  * @deprecated Do not use this function.  It has been superseded by \ref arm_cfft_q15 and will be r
  65:Source\TransformFunctions/arm_cfft_radix4_q15.c ****  * @param[in]      *S    points to an instance of the Q15 CFFT/CIFFT structure.
  66:Source\TransformFunctions/arm_cfft_radix4_q15.c ****  * @param[in, out] *pSrc points to the complex data buffer. Processing occurs in-place.
  67:Source\TransformFunctions/arm_cfft_radix4_q15.c ****  * @return none.
  68:Source\TransformFunctions/arm_cfft_radix4_q15.c ****  *
  69:Source\TransformFunctions/arm_cfft_radix4_q15.c ****  * \par Input and output formats:
  70:Source\TransformFunctions/arm_cfft_radix4_q15.c ****  * \par
  71:Source\TransformFunctions/arm_cfft_radix4_q15.c ****  * Internally input is downscaled by 2 for every stage to avoid saturations inside CFFT/CIFFT proce
  72:Source\TransformFunctions/arm_cfft_radix4_q15.c ****  * Hence the output format is different for different FFT sizes.
  73:Source\TransformFunctions/arm_cfft_radix4_q15.c ****  * The input and output formats for different FFT sizes and number of bits to upscale are mentioned
  74:Source\TransformFunctions/arm_cfft_radix4_q15.c ****  * \par
  75:Source\TransformFunctions/arm_cfft_radix4_q15.c ****  * \image html CFFTQ15.gif "Input and Output Formats for Q15 CFFT"
  76:Source\TransformFunctions/arm_cfft_radix4_q15.c ****  * \image html CIFFTQ15.gif "Input and Output Formats for Q15 CIFFT"
  77:Source\TransformFunctions/arm_cfft_radix4_q15.c ****  */
  78:Source\TransformFunctions/arm_cfft_radix4_q15.c **** 
  79:Source\TransformFunctions/arm_cfft_radix4_q15.c **** void arm_cfft_radix4_q15(
  80:Source\TransformFunctions/arm_cfft_radix4_q15.c ****   const arm_cfft_radix4_instance_q15 * S,
  81:Source\TransformFunctions/arm_cfft_radix4_q15.c ****   q15_t * pSrc)
  82:Source\TransformFunctions/arm_cfft_radix4_q15.c **** {
  26              		.loc 1 82 0
  27              		.cfi_startproc
  28 0000 90B5     		push	{r4, r7, lr}
  29              		.cfi_def_cfa_offset 12
  30              		.cfi_offset 4, -12
  31              		.cfi_offset 7, -8
  32              		.cfi_offset 14, -4
ARM GAS  C:\Users\fneves\AppData\Local\Temp\cc0ayw4Y.s 			page 3


  33 0002 83B0     		sub	sp, sp, #12
  34              		.cfi_def_cfa_offset 24
  35 0004 00AF     		add	r7, sp, #0
  36              		.cfi_def_cfa_register 7
  37 0006 7860     		str	r0, [r7, #4]
  38 0008 3960     		str	r1, [r7]
  83:Source\TransformFunctions/arm_cfft_radix4_q15.c ****   if (S->ifftFlag == 1u)
  39              		.loc 1 83 0
  40 000a 7B68     		ldr	r3, [r7, #4]
  41 000c 9B78     		ldrb	r3, [r3, #2]
  42 000e 012B     		cmp	r3, #1
  43 0010 0DD1     		bne	.L2
  84:Source\TransformFunctions/arm_cfft_radix4_q15.c ****   {
  85:Source\TransformFunctions/arm_cfft_radix4_q15.c ****     /*  Complex IFFT radix-4  */
  86:Source\TransformFunctions/arm_cfft_radix4_q15.c ****     arm_radix4_butterfly_inverse_q15(pSrc, S->fftLen, S->pTwiddle, S->twidCoefModifier);
  44              		.loc 1 86 0
  45 0012 7B68     		ldr	r3, [r7, #4]
  46 0014 1B88     		ldrh	r3, [r3]
  47 0016 191C     		mov	r1, r3
  48 0018 7B68     		ldr	r3, [r7, #4]
  49 001a 5A68     		ldr	r2, [r3, #4]
  50 001c 7B68     		ldr	r3, [r7, #4]
  51 001e 9B89     		ldrh	r3, [r3, #12]
  52 0020 1C1C     		mov	r4, r3
  53 0022 3B68     		ldr	r3, [r7]
  54 0024 181C     		mov	r0, r3
  55 0026 231C     		mov	r3, r4
  56 0028 FFF7FEFF 		bl	arm_radix4_butterfly_inverse_q15
  57 002c 0CE0     		b	.L3
  58              	.L2:
  87:Source\TransformFunctions/arm_cfft_radix4_q15.c ****   }
  88:Source\TransformFunctions/arm_cfft_radix4_q15.c ****   else
  89:Source\TransformFunctions/arm_cfft_radix4_q15.c ****   {
  90:Source\TransformFunctions/arm_cfft_radix4_q15.c ****     /*  Complex FFT radix-4  */
  91:Source\TransformFunctions/arm_cfft_radix4_q15.c ****     arm_radix4_butterfly_q15(pSrc, S->fftLen, S->pTwiddle, S->twidCoefModifier);
  59              		.loc 1 91 0
  60 002e 7B68     		ldr	r3, [r7, #4]
  61 0030 1B88     		ldrh	r3, [r3]
  62 0032 191C     		mov	r1, r3
  63 0034 7B68     		ldr	r3, [r7, #4]
  64 0036 5A68     		ldr	r2, [r3, #4]
  65 0038 7B68     		ldr	r3, [r7, #4]
  66 003a 9B89     		ldrh	r3, [r3, #12]
  67 003c 1C1C     		mov	r4, r3
  68 003e 3B68     		ldr	r3, [r7]
  69 0040 181C     		mov	r0, r3
  70 0042 231C     		mov	r3, r4
  71 0044 FFF7FEFF 		bl	arm_radix4_butterfly_q15
  72              	.L3:
  92:Source\TransformFunctions/arm_cfft_radix4_q15.c ****   }
  93:Source\TransformFunctions/arm_cfft_radix4_q15.c **** 
  94:Source\TransformFunctions/arm_cfft_radix4_q15.c ****   if (S->bitReverseFlag == 1u)
  73              		.loc 1 94 0
  74 0048 7B68     		ldr	r3, [r7, #4]
  75 004a DB78     		ldrb	r3, [r3, #3]
  76 004c 012B     		cmp	r3, #1
  77 004e 0BD1     		bne	.L1
ARM GAS  C:\Users\fneves\AppData\Local\Temp\cc0ayw4Y.s 			page 4


  95:Source\TransformFunctions/arm_cfft_radix4_q15.c ****   {
  96:Source\TransformFunctions/arm_cfft_radix4_q15.c ****     /*  Bit Reversal */
  97:Source\TransformFunctions/arm_cfft_radix4_q15.c ****     arm_bitreversal_q15(pSrc, S->fftLen, S->bitRevFactor, S->pBitRevTable);
  78              		.loc 1 97 0
  79 0050 7B68     		ldr	r3, [r7, #4]
  80 0052 1B88     		ldrh	r3, [r3]
  81 0054 1C1C     		mov	r4, r3
  82 0056 7B68     		ldr	r3, [r7, #4]
  83 0058 DA89     		ldrh	r2, [r3, #14]
  84 005a 7B68     		ldr	r3, [r7, #4]
  85 005c 9B68     		ldr	r3, [r3, #8]
  86 005e 3968     		ldr	r1, [r7]
  87 0060 081C     		mov	r0, r1
  88 0062 211C     		mov	r1, r4
  89 0064 FFF7FEFF 		bl	arm_bitreversal_q15
  90              	.L1:
  98:Source\TransformFunctions/arm_cfft_radix4_q15.c ****   }
  99:Source\TransformFunctions/arm_cfft_radix4_q15.c **** 
 100:Source\TransformFunctions/arm_cfft_radix4_q15.c **** }
  91              		.loc 1 100 0
  92 0068 BD46     		mov	sp, r7
  93 006a 03B0     		add	sp, sp, #12
  94              		@ sp needed
  95 006c 90BD     		pop	{r4, r7, pc}
  96              		.cfi_endproc
  97              	.LFE82:
  98              		.size	arm_cfft_radix4_q15, .-arm_cfft_radix4_q15
  99 006e C046     		.section	.text.arm_radix4_butterfly_q15,"ax",%progbits
 100              		.align	2
 101              		.global	arm_radix4_butterfly_q15
 102              		.code	16
 103              		.thumb_func
 104              		.type	arm_radix4_butterfly_q15, %function
 105              	arm_radix4_butterfly_q15:
 106              	.LFB83:
 101:Source\TransformFunctions/arm_cfft_radix4_q15.c **** 
 102:Source\TransformFunctions/arm_cfft_radix4_q15.c **** /**
 103:Source\TransformFunctions/arm_cfft_radix4_q15.c ****  * @} end of ComplexFFT group
 104:Source\TransformFunctions/arm_cfft_radix4_q15.c ****  */
 105:Source\TransformFunctions/arm_cfft_radix4_q15.c **** 
 106:Source\TransformFunctions/arm_cfft_radix4_q15.c **** /*
 107:Source\TransformFunctions/arm_cfft_radix4_q15.c **** * Radix-4 FFT algorithm used is :
 108:Source\TransformFunctions/arm_cfft_radix4_q15.c **** *
 109:Source\TransformFunctions/arm_cfft_radix4_q15.c **** * Input real and imaginary data:
 110:Source\TransformFunctions/arm_cfft_radix4_q15.c **** * x(n) = xa + j * ya
 111:Source\TransformFunctions/arm_cfft_radix4_q15.c **** * x(n+N/4 ) = xb + j * yb
 112:Source\TransformFunctions/arm_cfft_radix4_q15.c **** * x(n+N/2 ) = xc + j * yc
 113:Source\TransformFunctions/arm_cfft_radix4_q15.c **** * x(n+3N 4) = xd + j * yd
 114:Source\TransformFunctions/arm_cfft_radix4_q15.c **** *
 115:Source\TransformFunctions/arm_cfft_radix4_q15.c **** *
 116:Source\TransformFunctions/arm_cfft_radix4_q15.c **** * Output real and imaginary data:
 117:Source\TransformFunctions/arm_cfft_radix4_q15.c **** * x(4r) = xa'+ j * ya'
 118:Source\TransformFunctions/arm_cfft_radix4_q15.c **** * x(4r+1) = xb'+ j * yb'
 119:Source\TransformFunctions/arm_cfft_radix4_q15.c **** * x(4r+2) = xc'+ j * yc'
 120:Source\TransformFunctions/arm_cfft_radix4_q15.c **** * x(4r+3) = xd'+ j * yd'
 121:Source\TransformFunctions/arm_cfft_radix4_q15.c **** *
 122:Source\TransformFunctions/arm_cfft_radix4_q15.c **** *
ARM GAS  C:\Users\fneves\AppData\Local\Temp\cc0ayw4Y.s 			page 5


 123:Source\TransformFunctions/arm_cfft_radix4_q15.c **** * Twiddle factors for radix-4 FFT:
 124:Source\TransformFunctions/arm_cfft_radix4_q15.c **** * Wn = co1 + j * (- si1)
 125:Source\TransformFunctions/arm_cfft_radix4_q15.c **** * W2n = co2 + j * (- si2)
 126:Source\TransformFunctions/arm_cfft_radix4_q15.c **** * W3n = co3 + j * (- si3)
 127:Source\TransformFunctions/arm_cfft_radix4_q15.c **** 
 128:Source\TransformFunctions/arm_cfft_radix4_q15.c **** * The real and imaginary output values for the radix-4 butterfly are
 129:Source\TransformFunctions/arm_cfft_radix4_q15.c **** * xa' = xa + xb + xc + xd
 130:Source\TransformFunctions/arm_cfft_radix4_q15.c **** * ya' = ya + yb + yc + yd
 131:Source\TransformFunctions/arm_cfft_radix4_q15.c **** * xb' = (xa+yb-xc-yd)* co1 + (ya-xb-yc+xd)* (si1)
 132:Source\TransformFunctions/arm_cfft_radix4_q15.c **** * yb' = (ya-xb-yc+xd)* co1 - (xa+yb-xc-yd)* (si1)
 133:Source\TransformFunctions/arm_cfft_radix4_q15.c **** * xc' = (xa-xb+xc-xd)* co2 + (ya-yb+yc-yd)* (si2)
 134:Source\TransformFunctions/arm_cfft_radix4_q15.c **** * yc' = (ya-yb+yc-yd)* co2 - (xa-xb+xc-xd)* (si2)
 135:Source\TransformFunctions/arm_cfft_radix4_q15.c **** * xd' = (xa-yb-xc+yd)* co3 + (ya+xb-yc-xd)* (si3)
 136:Source\TransformFunctions/arm_cfft_radix4_q15.c **** * yd' = (ya+xb-yc-xd)* co3 - (xa-yb-xc+yd)* (si3)
 137:Source\TransformFunctions/arm_cfft_radix4_q15.c **** *
 138:Source\TransformFunctions/arm_cfft_radix4_q15.c **** */
 139:Source\TransformFunctions/arm_cfft_radix4_q15.c **** 
 140:Source\TransformFunctions/arm_cfft_radix4_q15.c **** /**
 141:Source\TransformFunctions/arm_cfft_radix4_q15.c ****  * @brief  Core function for the Q15 CFFT butterfly process.
 142:Source\TransformFunctions/arm_cfft_radix4_q15.c ****  * @param[in, out] *pSrc16          points to the in-place buffer of Q15 data type.
 143:Source\TransformFunctions/arm_cfft_radix4_q15.c ****  * @param[in]      fftLen           length of the FFT.
 144:Source\TransformFunctions/arm_cfft_radix4_q15.c ****  * @param[in]      *pCoef16         points to twiddle coefficient buffer.
 145:Source\TransformFunctions/arm_cfft_radix4_q15.c ****  * @param[in]      twidCoefModifier twiddle coefficient modifier that supports different size FFTs 
 146:Source\TransformFunctions/arm_cfft_radix4_q15.c ****  * @return none.
 147:Source\TransformFunctions/arm_cfft_radix4_q15.c ****  */
 148:Source\TransformFunctions/arm_cfft_radix4_q15.c **** 
 149:Source\TransformFunctions/arm_cfft_radix4_q15.c **** void arm_radix4_butterfly_q15(
 150:Source\TransformFunctions/arm_cfft_radix4_q15.c ****   q15_t * pSrc16,
 151:Source\TransformFunctions/arm_cfft_radix4_q15.c ****   uint32_t fftLen,
 152:Source\TransformFunctions/arm_cfft_radix4_q15.c ****   q15_t * pCoef16,
 153:Source\TransformFunctions/arm_cfft_radix4_q15.c ****   uint32_t twidCoefModifier)
 154:Source\TransformFunctions/arm_cfft_radix4_q15.c **** {
 107              		.loc 1 154 0
 108              		.cfi_startproc
 109 0000 80B5     		push	{r7, lr}
 110              		.cfi_def_cfa_offset 8
 111              		.cfi_offset 7, -8
 112              		.cfi_offset 14, -4
 113 0002 D74F     		ldr	r7, .L225
 114 0004 BD44     		add	sp, sp, r7
 115              		.cfi_def_cfa_offset 696
 116 0006 00AF     		add	r7, sp, #0
 117              		.cfi_def_cfa_register 7
 118 0008 F860     		str	r0, [r7, #12]
 119 000a B960     		str	r1, [r7, #8]
 120 000c 7A60     		str	r2, [r7, #4]
 121 000e 3B60     		str	r3, [r7]
 155:Source\TransformFunctions/arm_cfft_radix4_q15.c **** 
 156:Source\TransformFunctions/arm_cfft_radix4_q15.c **** #if defined (ARM_MATH_DSP)
 157:Source\TransformFunctions/arm_cfft_radix4_q15.c **** 
 158:Source\TransformFunctions/arm_cfft_radix4_q15.c ****   /* Run the below code for Cortex-M4 and Cortex-M3 */
 159:Source\TransformFunctions/arm_cfft_radix4_q15.c **** 
 160:Source\TransformFunctions/arm_cfft_radix4_q15.c ****   q31_t R, S, T, U;
 161:Source\TransformFunctions/arm_cfft_radix4_q15.c ****   q31_t C1, C2, C3, out1, out2;
 162:Source\TransformFunctions/arm_cfft_radix4_q15.c ****   uint32_t n1, n2, ic, i0, j, k;
 163:Source\TransformFunctions/arm_cfft_radix4_q15.c **** 
 164:Source\TransformFunctions/arm_cfft_radix4_q15.c ****   q15_t *ptr1;
ARM GAS  C:\Users\fneves\AppData\Local\Temp\cc0ayw4Y.s 			page 6


 165:Source\TransformFunctions/arm_cfft_radix4_q15.c ****   q15_t *pSi0;
 166:Source\TransformFunctions/arm_cfft_radix4_q15.c ****   q15_t *pSi1;
 167:Source\TransformFunctions/arm_cfft_radix4_q15.c ****   q15_t *pSi2;
 168:Source\TransformFunctions/arm_cfft_radix4_q15.c ****   q15_t *pSi3;
 169:Source\TransformFunctions/arm_cfft_radix4_q15.c **** 
 170:Source\TransformFunctions/arm_cfft_radix4_q15.c ****   q31_t xaya, xbyb, xcyc, xdyd;
 171:Source\TransformFunctions/arm_cfft_radix4_q15.c **** 
 172:Source\TransformFunctions/arm_cfft_radix4_q15.c ****   /* Total process is divided into three stages */
 173:Source\TransformFunctions/arm_cfft_radix4_q15.c **** 
 174:Source\TransformFunctions/arm_cfft_radix4_q15.c ****   /* process first stage, middle stages, & last stage */
 175:Source\TransformFunctions/arm_cfft_radix4_q15.c **** 
 176:Source\TransformFunctions/arm_cfft_radix4_q15.c ****   /*  Initializations for the first stage */
 177:Source\TransformFunctions/arm_cfft_radix4_q15.c ****   n2 = fftLen;
 178:Source\TransformFunctions/arm_cfft_radix4_q15.c ****   n1 = n2;
 179:Source\TransformFunctions/arm_cfft_radix4_q15.c **** 
 180:Source\TransformFunctions/arm_cfft_radix4_q15.c ****   /* n2 = fftLen/4 */
 181:Source\TransformFunctions/arm_cfft_radix4_q15.c ****   n2 >>= 2u;
 182:Source\TransformFunctions/arm_cfft_radix4_q15.c **** 
 183:Source\TransformFunctions/arm_cfft_radix4_q15.c ****   /* Index for twiddle coefficient */
 184:Source\TransformFunctions/arm_cfft_radix4_q15.c ****   ic = 0u;
 185:Source\TransformFunctions/arm_cfft_radix4_q15.c **** 
 186:Source\TransformFunctions/arm_cfft_radix4_q15.c ****   /* Index for input read and output write */
 187:Source\TransformFunctions/arm_cfft_radix4_q15.c ****   j = n2;
 188:Source\TransformFunctions/arm_cfft_radix4_q15.c **** 
 189:Source\TransformFunctions/arm_cfft_radix4_q15.c ****   pSi0 = pSrc16;
 190:Source\TransformFunctions/arm_cfft_radix4_q15.c ****   pSi1 = pSi0 + 2 * n2;
 191:Source\TransformFunctions/arm_cfft_radix4_q15.c ****   pSi2 = pSi1 + 2 * n2;
 192:Source\TransformFunctions/arm_cfft_radix4_q15.c ****   pSi3 = pSi2 + 2 * n2;
 193:Source\TransformFunctions/arm_cfft_radix4_q15.c **** 
 194:Source\TransformFunctions/arm_cfft_radix4_q15.c ****   /* Input is in 1.15(q15) format */
 195:Source\TransformFunctions/arm_cfft_radix4_q15.c **** 
 196:Source\TransformFunctions/arm_cfft_radix4_q15.c ****   /*  start of first stage process */
 197:Source\TransformFunctions/arm_cfft_radix4_q15.c ****   do
 198:Source\TransformFunctions/arm_cfft_radix4_q15.c ****   {
 199:Source\TransformFunctions/arm_cfft_radix4_q15.c ****     /*  Butterfly implementation */
 200:Source\TransformFunctions/arm_cfft_radix4_q15.c **** 
 201:Source\TransformFunctions/arm_cfft_radix4_q15.c ****     /*  Reading i0, i0+fftLen/2 inputs */
 202:Source\TransformFunctions/arm_cfft_radix4_q15.c ****     /* Read ya (real), xa(imag) input */
 203:Source\TransformFunctions/arm_cfft_radix4_q15.c ****     T = _SIMD32_OFFSET(pSi0);
 204:Source\TransformFunctions/arm_cfft_radix4_q15.c ****     T = __SHADD16(T, 0); // this is just a SIMD arithmetic shift right by 1
 205:Source\TransformFunctions/arm_cfft_radix4_q15.c ****     T = __SHADD16(T, 0); // it turns out doing this twice is 2 cycles, the alternative takes 3 cycl
 206:Source\TransformFunctions/arm_cfft_radix4_q15.c ****     //in = ((int16_t) (T & 0xFFFF)) >> 2;       // alternative code that takes 3 cycles
 207:Source\TransformFunctions/arm_cfft_radix4_q15.c ****     //T = ((T >> 2) & 0xFFFF0000) | (in & 0xFFFF);
 208:Source\TransformFunctions/arm_cfft_radix4_q15.c **** 
 209:Source\TransformFunctions/arm_cfft_radix4_q15.c ****     /* Read yc (real), xc(imag) input */
 210:Source\TransformFunctions/arm_cfft_radix4_q15.c ****     S = _SIMD32_OFFSET(pSi2);
 211:Source\TransformFunctions/arm_cfft_radix4_q15.c ****     S = __SHADD16(S, 0);
 212:Source\TransformFunctions/arm_cfft_radix4_q15.c ****     S = __SHADD16(S, 0);
 213:Source\TransformFunctions/arm_cfft_radix4_q15.c **** 
 214:Source\TransformFunctions/arm_cfft_radix4_q15.c ****     /* R = packed((ya + yc), (xa + xc) ) */
 215:Source\TransformFunctions/arm_cfft_radix4_q15.c ****     R = __QADD16(T, S);
 216:Source\TransformFunctions/arm_cfft_radix4_q15.c **** 
 217:Source\TransformFunctions/arm_cfft_radix4_q15.c ****     /* S = packed((ya - yc), (xa - xc) ) */
 218:Source\TransformFunctions/arm_cfft_radix4_q15.c ****     S = __QSUB16(T, S);
 219:Source\TransformFunctions/arm_cfft_radix4_q15.c **** 
 220:Source\TransformFunctions/arm_cfft_radix4_q15.c ****     /*  Reading i0+fftLen/4 , i0+3fftLen/4 inputs */
 221:Source\TransformFunctions/arm_cfft_radix4_q15.c ****     /* Read yb (real), xb(imag) input */
ARM GAS  C:\Users\fneves\AppData\Local\Temp\cc0ayw4Y.s 			page 7


 222:Source\TransformFunctions/arm_cfft_radix4_q15.c ****     T = _SIMD32_OFFSET(pSi1);
 223:Source\TransformFunctions/arm_cfft_radix4_q15.c ****     T = __SHADD16(T, 0);
 224:Source\TransformFunctions/arm_cfft_radix4_q15.c ****     T = __SHADD16(T, 0);
 225:Source\TransformFunctions/arm_cfft_radix4_q15.c **** 
 226:Source\TransformFunctions/arm_cfft_radix4_q15.c ****     /* Read yd (real), xd(imag) input */
 227:Source\TransformFunctions/arm_cfft_radix4_q15.c ****     U = _SIMD32_OFFSET(pSi3);
 228:Source\TransformFunctions/arm_cfft_radix4_q15.c ****     U = __SHADD16(U, 0);
 229:Source\TransformFunctions/arm_cfft_radix4_q15.c ****     U = __SHADD16(U, 0);
 230:Source\TransformFunctions/arm_cfft_radix4_q15.c **** 
 231:Source\TransformFunctions/arm_cfft_radix4_q15.c ****     /* T = packed((yb + yd), (xb + xd) ) */
 232:Source\TransformFunctions/arm_cfft_radix4_q15.c ****     T = __QADD16(T, U);
 233:Source\TransformFunctions/arm_cfft_radix4_q15.c **** 
 234:Source\TransformFunctions/arm_cfft_radix4_q15.c ****     /*  writing the butterfly processed i0 sample */
 235:Source\TransformFunctions/arm_cfft_radix4_q15.c ****     /* xa' = xa + xb + xc + xd */
 236:Source\TransformFunctions/arm_cfft_radix4_q15.c ****     /* ya' = ya + yb + yc + yd */
 237:Source\TransformFunctions/arm_cfft_radix4_q15.c ****     _SIMD32_OFFSET(pSi0) = __SHADD16(R, T);
 238:Source\TransformFunctions/arm_cfft_radix4_q15.c ****     pSi0 += 2;
 239:Source\TransformFunctions/arm_cfft_radix4_q15.c **** 
 240:Source\TransformFunctions/arm_cfft_radix4_q15.c ****     /* R = packed((ya + yc) - (yb + yd), (xa + xc)- (xb + xd)) */
 241:Source\TransformFunctions/arm_cfft_radix4_q15.c ****     R = __QSUB16(R, T);
 242:Source\TransformFunctions/arm_cfft_radix4_q15.c **** 
 243:Source\TransformFunctions/arm_cfft_radix4_q15.c ****     /* co2 & si2 are read from SIMD Coefficient pointer */
 244:Source\TransformFunctions/arm_cfft_radix4_q15.c ****     C2 = _SIMD32_OFFSET(pCoef16 + (4u * ic));
 245:Source\TransformFunctions/arm_cfft_radix4_q15.c **** 
 246:Source\TransformFunctions/arm_cfft_radix4_q15.c **** #ifndef ARM_MATH_BIG_ENDIAN
 247:Source\TransformFunctions/arm_cfft_radix4_q15.c **** 
 248:Source\TransformFunctions/arm_cfft_radix4_q15.c ****     /* xc' = (xa-xb+xc-xd)* co2 + (ya-yb+yc-yd)* (si2) */
 249:Source\TransformFunctions/arm_cfft_radix4_q15.c ****     out1 = __SMUAD(C2, R) >> 16u;
 250:Source\TransformFunctions/arm_cfft_radix4_q15.c ****     /* yc' = (ya-yb+yc-yd)* co2 - (xa-xb+xc-xd)* (si2) */
 251:Source\TransformFunctions/arm_cfft_radix4_q15.c ****     out2 = __SMUSDX(C2, R);
 252:Source\TransformFunctions/arm_cfft_radix4_q15.c **** 
 253:Source\TransformFunctions/arm_cfft_radix4_q15.c **** #else
 254:Source\TransformFunctions/arm_cfft_radix4_q15.c **** 
 255:Source\TransformFunctions/arm_cfft_radix4_q15.c ****     /* xc' = (ya-yb+yc-yd)* co2 - (xa-xb+xc-xd)* (si2) */
 256:Source\TransformFunctions/arm_cfft_radix4_q15.c ****     out1 = __SMUSDX(R, C2) >> 16u;
 257:Source\TransformFunctions/arm_cfft_radix4_q15.c ****     /* yc' = (xa-xb+xc-xd)* co2 + (ya-yb+yc-yd)* (si2) */
 258:Source\TransformFunctions/arm_cfft_radix4_q15.c ****     out2 = __SMUAD(C2, R);
 259:Source\TransformFunctions/arm_cfft_radix4_q15.c **** 
 260:Source\TransformFunctions/arm_cfft_radix4_q15.c **** #endif /*      #ifndef ARM_MATH_BIG_ENDIAN     */
 261:Source\TransformFunctions/arm_cfft_radix4_q15.c **** 
 262:Source\TransformFunctions/arm_cfft_radix4_q15.c ****     /*  Reading i0+fftLen/4 */
 263:Source\TransformFunctions/arm_cfft_radix4_q15.c ****     /* T = packed(yb, xb) */
 264:Source\TransformFunctions/arm_cfft_radix4_q15.c ****     T = _SIMD32_OFFSET(pSi1);
 265:Source\TransformFunctions/arm_cfft_radix4_q15.c ****     T = __SHADD16(T, 0);
 266:Source\TransformFunctions/arm_cfft_radix4_q15.c ****     T = __SHADD16(T, 0);
 267:Source\TransformFunctions/arm_cfft_radix4_q15.c **** 
 268:Source\TransformFunctions/arm_cfft_radix4_q15.c ****     /* writing the butterfly processed i0 + fftLen/4 sample */
 269:Source\TransformFunctions/arm_cfft_radix4_q15.c ****     /* writing output(xc', yc') in little endian format */
 270:Source\TransformFunctions/arm_cfft_radix4_q15.c ****     _SIMD32_OFFSET(pSi1) =
 271:Source\TransformFunctions/arm_cfft_radix4_q15.c ****       (q31_t) ((out2) & 0xFFFF0000) | (out1 & 0x0000FFFF);
 272:Source\TransformFunctions/arm_cfft_radix4_q15.c ****     pSi1 += 2;
 273:Source\TransformFunctions/arm_cfft_radix4_q15.c **** 
 274:Source\TransformFunctions/arm_cfft_radix4_q15.c ****     /*  Butterfly calculations */
 275:Source\TransformFunctions/arm_cfft_radix4_q15.c ****     /* U = packed(yd, xd) */
 276:Source\TransformFunctions/arm_cfft_radix4_q15.c ****     U = _SIMD32_OFFSET(pSi3);
 277:Source\TransformFunctions/arm_cfft_radix4_q15.c ****     U = __SHADD16(U, 0);
 278:Source\TransformFunctions/arm_cfft_radix4_q15.c ****     U = __SHADD16(U, 0);
ARM GAS  C:\Users\fneves\AppData\Local\Temp\cc0ayw4Y.s 			page 8


 279:Source\TransformFunctions/arm_cfft_radix4_q15.c **** 
 280:Source\TransformFunctions/arm_cfft_radix4_q15.c ****     /* T = packed(yb-yd, xb-xd) */
 281:Source\TransformFunctions/arm_cfft_radix4_q15.c ****     T = __QSUB16(T, U);
 282:Source\TransformFunctions/arm_cfft_radix4_q15.c **** 
 283:Source\TransformFunctions/arm_cfft_radix4_q15.c **** #ifndef ARM_MATH_BIG_ENDIAN
 284:Source\TransformFunctions/arm_cfft_radix4_q15.c **** 
 285:Source\TransformFunctions/arm_cfft_radix4_q15.c ****     /* R = packed((ya-yc) + (xb- xd) , (xa-xc) - (yb-yd)) */
 286:Source\TransformFunctions/arm_cfft_radix4_q15.c ****     R = __QASX(S, T);
 287:Source\TransformFunctions/arm_cfft_radix4_q15.c ****     /* S = packed((ya-yc) - (xb- xd),  (xa-xc) + (yb-yd)) */
 288:Source\TransformFunctions/arm_cfft_radix4_q15.c ****     S = __QSAX(S, T);
 289:Source\TransformFunctions/arm_cfft_radix4_q15.c **** 
 290:Source\TransformFunctions/arm_cfft_radix4_q15.c **** #else
 291:Source\TransformFunctions/arm_cfft_radix4_q15.c **** 
 292:Source\TransformFunctions/arm_cfft_radix4_q15.c ****     /* R = packed((ya-yc) + (xb- xd) , (xa-xc) - (yb-yd)) */
 293:Source\TransformFunctions/arm_cfft_radix4_q15.c ****     R = __QSAX(S, T);
 294:Source\TransformFunctions/arm_cfft_radix4_q15.c ****     /* S = packed((ya-yc) - (xb- xd),  (xa-xc) + (yb-yd)) */
 295:Source\TransformFunctions/arm_cfft_radix4_q15.c ****     S = __QASX(S, T);
 296:Source\TransformFunctions/arm_cfft_radix4_q15.c **** 
 297:Source\TransformFunctions/arm_cfft_radix4_q15.c **** #endif /*      #ifndef ARM_MATH_BIG_ENDIAN     */
 298:Source\TransformFunctions/arm_cfft_radix4_q15.c **** 
 299:Source\TransformFunctions/arm_cfft_radix4_q15.c ****     /* co1 & si1 are read from SIMD Coefficient pointer */
 300:Source\TransformFunctions/arm_cfft_radix4_q15.c ****     C1 = _SIMD32_OFFSET(pCoef16 + (2u * ic));
 301:Source\TransformFunctions/arm_cfft_radix4_q15.c ****     /*  Butterfly process for the i0+fftLen/2 sample */
 302:Source\TransformFunctions/arm_cfft_radix4_q15.c **** 
 303:Source\TransformFunctions/arm_cfft_radix4_q15.c **** #ifndef ARM_MATH_BIG_ENDIAN
 304:Source\TransformFunctions/arm_cfft_radix4_q15.c **** 
 305:Source\TransformFunctions/arm_cfft_radix4_q15.c ****     /* xb' = (xa+yb-xc-yd)* co1 + (ya-xb-yc+xd)* (si1) */
 306:Source\TransformFunctions/arm_cfft_radix4_q15.c ****     out1 = __SMUAD(C1, S) >> 16u;
 307:Source\TransformFunctions/arm_cfft_radix4_q15.c ****     /* yb' = (ya-xb-yc+xd)* co1 - (xa+yb-xc-yd)* (si1) */
 308:Source\TransformFunctions/arm_cfft_radix4_q15.c ****     out2 = __SMUSDX(C1, S);
 309:Source\TransformFunctions/arm_cfft_radix4_q15.c **** 
 310:Source\TransformFunctions/arm_cfft_radix4_q15.c **** #else
 311:Source\TransformFunctions/arm_cfft_radix4_q15.c **** 
 312:Source\TransformFunctions/arm_cfft_radix4_q15.c ****     /* xb' = (ya-xb-yc+xd)* co1 - (xa+yb-xc-yd)* (si1) */
 313:Source\TransformFunctions/arm_cfft_radix4_q15.c ****     out1 = __SMUSDX(S, C1) >> 16u;
 314:Source\TransformFunctions/arm_cfft_radix4_q15.c ****     /* yb' = (xa+yb-xc-yd)* co1 + (ya-xb-yc+xd)* (si1) */
 315:Source\TransformFunctions/arm_cfft_radix4_q15.c ****     out2 = __SMUAD(C1, S);
 316:Source\TransformFunctions/arm_cfft_radix4_q15.c **** 
 317:Source\TransformFunctions/arm_cfft_radix4_q15.c **** #endif /*      #ifndef ARM_MATH_BIG_ENDIAN     */
 318:Source\TransformFunctions/arm_cfft_radix4_q15.c **** 
 319:Source\TransformFunctions/arm_cfft_radix4_q15.c ****     /* writing output(xb', yb') in little endian format */
 320:Source\TransformFunctions/arm_cfft_radix4_q15.c ****     _SIMD32_OFFSET(pSi2) =
 321:Source\TransformFunctions/arm_cfft_radix4_q15.c ****       ((out2) & 0xFFFF0000) | ((out1) & 0x0000FFFF);
 322:Source\TransformFunctions/arm_cfft_radix4_q15.c ****     pSi2 += 2;
 323:Source\TransformFunctions/arm_cfft_radix4_q15.c **** 
 324:Source\TransformFunctions/arm_cfft_radix4_q15.c **** 
 325:Source\TransformFunctions/arm_cfft_radix4_q15.c ****     /* co3 & si3 are read from SIMD Coefficient pointer */
 326:Source\TransformFunctions/arm_cfft_radix4_q15.c ****     C3 = _SIMD32_OFFSET(pCoef16 + (6u * ic));
 327:Source\TransformFunctions/arm_cfft_radix4_q15.c ****     /*  Butterfly process for the i0+3fftLen/4 sample */
 328:Source\TransformFunctions/arm_cfft_radix4_q15.c **** 
 329:Source\TransformFunctions/arm_cfft_radix4_q15.c **** #ifndef ARM_MATH_BIG_ENDIAN
 330:Source\TransformFunctions/arm_cfft_radix4_q15.c **** 
 331:Source\TransformFunctions/arm_cfft_radix4_q15.c ****     /* xd' = (xa-yb-xc+yd)* co3 + (ya+xb-yc-xd)* (si3) */
 332:Source\TransformFunctions/arm_cfft_radix4_q15.c ****     out1 = __SMUAD(C3, R) >> 16u;
 333:Source\TransformFunctions/arm_cfft_radix4_q15.c ****     /* yd' = (ya+xb-yc-xd)* co3 - (xa-yb-xc+yd)* (si3) */
 334:Source\TransformFunctions/arm_cfft_radix4_q15.c ****     out2 = __SMUSDX(C3, R);
 335:Source\TransformFunctions/arm_cfft_radix4_q15.c **** 
ARM GAS  C:\Users\fneves\AppData\Local\Temp\cc0ayw4Y.s 			page 9


 336:Source\TransformFunctions/arm_cfft_radix4_q15.c **** #else
 337:Source\TransformFunctions/arm_cfft_radix4_q15.c **** 
 338:Source\TransformFunctions/arm_cfft_radix4_q15.c ****     /* xd' = (ya+xb-yc-xd)* co3 - (xa-yb-xc+yd)* (si3) */
 339:Source\TransformFunctions/arm_cfft_radix4_q15.c ****     out1 = __SMUSDX(R, C3) >> 16u;
 340:Source\TransformFunctions/arm_cfft_radix4_q15.c ****     /* yd' = (xa-yb-xc+yd)* co3 + (ya+xb-yc-xd)* (si3) */
 341:Source\TransformFunctions/arm_cfft_radix4_q15.c ****     out2 = __SMUAD(C3, R);
 342:Source\TransformFunctions/arm_cfft_radix4_q15.c **** 
 343:Source\TransformFunctions/arm_cfft_radix4_q15.c **** #endif /*      #ifndef ARM_MATH_BIG_ENDIAN     */
 344:Source\TransformFunctions/arm_cfft_radix4_q15.c **** 
 345:Source\TransformFunctions/arm_cfft_radix4_q15.c ****     /* writing output(xd', yd') in little endian format */
 346:Source\TransformFunctions/arm_cfft_radix4_q15.c ****     _SIMD32_OFFSET(pSi3) =
 347:Source\TransformFunctions/arm_cfft_radix4_q15.c ****       ((out2) & 0xFFFF0000) | (out1 & 0x0000FFFF);
 348:Source\TransformFunctions/arm_cfft_radix4_q15.c ****     pSi3 += 2;
 349:Source\TransformFunctions/arm_cfft_radix4_q15.c **** 
 350:Source\TransformFunctions/arm_cfft_radix4_q15.c ****     /*  Twiddle coefficients index modifier */
 351:Source\TransformFunctions/arm_cfft_radix4_q15.c ****     ic = ic + twidCoefModifier;
 352:Source\TransformFunctions/arm_cfft_radix4_q15.c **** 
 353:Source\TransformFunctions/arm_cfft_radix4_q15.c ****   } while (--j);
 354:Source\TransformFunctions/arm_cfft_radix4_q15.c ****   /* data is in 4.11(q11) format */
 355:Source\TransformFunctions/arm_cfft_radix4_q15.c **** 
 356:Source\TransformFunctions/arm_cfft_radix4_q15.c ****   /* end of first stage process */
 357:Source\TransformFunctions/arm_cfft_radix4_q15.c **** 
 358:Source\TransformFunctions/arm_cfft_radix4_q15.c **** 
 359:Source\TransformFunctions/arm_cfft_radix4_q15.c ****   /* start of middle stage process */
 360:Source\TransformFunctions/arm_cfft_radix4_q15.c **** 
 361:Source\TransformFunctions/arm_cfft_radix4_q15.c ****   /*  Twiddle coefficients index modifier */
 362:Source\TransformFunctions/arm_cfft_radix4_q15.c ****   twidCoefModifier <<= 2u;
 363:Source\TransformFunctions/arm_cfft_radix4_q15.c **** 
 364:Source\TransformFunctions/arm_cfft_radix4_q15.c ****   /*  Calculation of Middle stage */
 365:Source\TransformFunctions/arm_cfft_radix4_q15.c ****   for (k = fftLen / 4u; k > 4u; k >>= 2u)
 366:Source\TransformFunctions/arm_cfft_radix4_q15.c ****   {
 367:Source\TransformFunctions/arm_cfft_radix4_q15.c ****     /*  Initializations for the middle stage */
 368:Source\TransformFunctions/arm_cfft_radix4_q15.c ****     n1 = n2;
 369:Source\TransformFunctions/arm_cfft_radix4_q15.c ****     n2 >>= 2u;
 370:Source\TransformFunctions/arm_cfft_radix4_q15.c ****     ic = 0u;
 371:Source\TransformFunctions/arm_cfft_radix4_q15.c **** 
 372:Source\TransformFunctions/arm_cfft_radix4_q15.c ****     for (j = 0u; j <= (n2 - 1u); j++)
 373:Source\TransformFunctions/arm_cfft_radix4_q15.c ****     {
 374:Source\TransformFunctions/arm_cfft_radix4_q15.c ****       /*  index calculation for the coefficients */
 375:Source\TransformFunctions/arm_cfft_radix4_q15.c ****       C1 = _SIMD32_OFFSET(pCoef16 + (2u * ic));
 376:Source\TransformFunctions/arm_cfft_radix4_q15.c ****       C2 = _SIMD32_OFFSET(pCoef16 + (4u * ic));
 377:Source\TransformFunctions/arm_cfft_radix4_q15.c ****       C3 = _SIMD32_OFFSET(pCoef16 + (6u * ic));
 378:Source\TransformFunctions/arm_cfft_radix4_q15.c **** 
 379:Source\TransformFunctions/arm_cfft_radix4_q15.c ****       /*  Twiddle coefficients index modifier */
 380:Source\TransformFunctions/arm_cfft_radix4_q15.c ****       ic = ic + twidCoefModifier;
 381:Source\TransformFunctions/arm_cfft_radix4_q15.c **** 
 382:Source\TransformFunctions/arm_cfft_radix4_q15.c ****       pSi0 = pSrc16 + 2 * j;
 383:Source\TransformFunctions/arm_cfft_radix4_q15.c ****       pSi1 = pSi0 + 2 * n2;
 384:Source\TransformFunctions/arm_cfft_radix4_q15.c ****       pSi2 = pSi1 + 2 * n2;
 385:Source\TransformFunctions/arm_cfft_radix4_q15.c ****       pSi3 = pSi2 + 2 * n2;
 386:Source\TransformFunctions/arm_cfft_radix4_q15.c **** 
 387:Source\TransformFunctions/arm_cfft_radix4_q15.c ****       /*  Butterfly implementation */
 388:Source\TransformFunctions/arm_cfft_radix4_q15.c ****       for (i0 = j; i0 < fftLen; i0 += n1)
 389:Source\TransformFunctions/arm_cfft_radix4_q15.c ****       {
 390:Source\TransformFunctions/arm_cfft_radix4_q15.c ****         /*  Reading i0, i0+fftLen/2 inputs */
 391:Source\TransformFunctions/arm_cfft_radix4_q15.c ****         /* Read ya (real), xa(imag) input */
 392:Source\TransformFunctions/arm_cfft_radix4_q15.c ****         T = _SIMD32_OFFSET(pSi0);
ARM GAS  C:\Users\fneves\AppData\Local\Temp\cc0ayw4Y.s 			page 10


 393:Source\TransformFunctions/arm_cfft_radix4_q15.c **** 
 394:Source\TransformFunctions/arm_cfft_radix4_q15.c ****         /* Read yc (real), xc(imag) input */
 395:Source\TransformFunctions/arm_cfft_radix4_q15.c ****         S = _SIMD32_OFFSET(pSi2);
 396:Source\TransformFunctions/arm_cfft_radix4_q15.c **** 
 397:Source\TransformFunctions/arm_cfft_radix4_q15.c ****         /* R = packed( (ya + yc), (xa + xc)) */
 398:Source\TransformFunctions/arm_cfft_radix4_q15.c ****         R = __QADD16(T, S);
 399:Source\TransformFunctions/arm_cfft_radix4_q15.c **** 
 400:Source\TransformFunctions/arm_cfft_radix4_q15.c ****         /* S = packed((ya - yc), (xa - xc)) */
 401:Source\TransformFunctions/arm_cfft_radix4_q15.c ****         S = __QSUB16(T, S);
 402:Source\TransformFunctions/arm_cfft_radix4_q15.c **** 
 403:Source\TransformFunctions/arm_cfft_radix4_q15.c ****         /*  Reading i0+fftLen/4 , i0+3fftLen/4 inputs */
 404:Source\TransformFunctions/arm_cfft_radix4_q15.c ****         /* Read yb (real), xb(imag) input */
 405:Source\TransformFunctions/arm_cfft_radix4_q15.c ****         T = _SIMD32_OFFSET(pSi1);
 406:Source\TransformFunctions/arm_cfft_radix4_q15.c **** 
 407:Source\TransformFunctions/arm_cfft_radix4_q15.c ****         /* Read yd (real), xd(imag) input */
 408:Source\TransformFunctions/arm_cfft_radix4_q15.c ****         U = _SIMD32_OFFSET(pSi3);
 409:Source\TransformFunctions/arm_cfft_radix4_q15.c **** 
 410:Source\TransformFunctions/arm_cfft_radix4_q15.c ****         /* T = packed( (yb + yd), (xb + xd)) */
 411:Source\TransformFunctions/arm_cfft_radix4_q15.c ****         T = __QADD16(T, U);
 412:Source\TransformFunctions/arm_cfft_radix4_q15.c **** 
 413:Source\TransformFunctions/arm_cfft_radix4_q15.c ****         /*  writing the butterfly processed i0 sample */
 414:Source\TransformFunctions/arm_cfft_radix4_q15.c **** 
 415:Source\TransformFunctions/arm_cfft_radix4_q15.c ****         /* xa' = xa + xb + xc + xd */
 416:Source\TransformFunctions/arm_cfft_radix4_q15.c ****         /* ya' = ya + yb + yc + yd */
 417:Source\TransformFunctions/arm_cfft_radix4_q15.c ****         out1 = __SHADD16(R, T);
 418:Source\TransformFunctions/arm_cfft_radix4_q15.c ****         out1 = __SHADD16(out1, 0);
 419:Source\TransformFunctions/arm_cfft_radix4_q15.c ****         _SIMD32_OFFSET(pSi0) = out1;
 420:Source\TransformFunctions/arm_cfft_radix4_q15.c ****         pSi0 += 2 * n1;
 421:Source\TransformFunctions/arm_cfft_radix4_q15.c **** 
 422:Source\TransformFunctions/arm_cfft_radix4_q15.c ****         /* R = packed( (ya + yc) - (yb + yd), (xa + xc) - (xb + xd)) */
 423:Source\TransformFunctions/arm_cfft_radix4_q15.c ****         R = __SHSUB16(R, T);
 424:Source\TransformFunctions/arm_cfft_radix4_q15.c **** 
 425:Source\TransformFunctions/arm_cfft_radix4_q15.c **** #ifndef ARM_MATH_BIG_ENDIAN
 426:Source\TransformFunctions/arm_cfft_radix4_q15.c **** 
 427:Source\TransformFunctions/arm_cfft_radix4_q15.c ****         /* (ya-yb+yc-yd)* (si2) + (xa-xb+xc-xd)* co2 */
 428:Source\TransformFunctions/arm_cfft_radix4_q15.c ****         out1 = __SMUAD(C2, R) >> 16u;
 429:Source\TransformFunctions/arm_cfft_radix4_q15.c **** 
 430:Source\TransformFunctions/arm_cfft_radix4_q15.c ****         /* (ya-yb+yc-yd)* co2 - (xa-xb+xc-xd)* (si2) */
 431:Source\TransformFunctions/arm_cfft_radix4_q15.c ****         out2 = __SMUSDX(C2, R);
 432:Source\TransformFunctions/arm_cfft_radix4_q15.c **** 
 433:Source\TransformFunctions/arm_cfft_radix4_q15.c **** #else
 434:Source\TransformFunctions/arm_cfft_radix4_q15.c **** 
 435:Source\TransformFunctions/arm_cfft_radix4_q15.c ****         /* (ya-yb+yc-yd)* co2 - (xa-xb+xc-xd)* (si2) */
 436:Source\TransformFunctions/arm_cfft_radix4_q15.c ****         out1 = __SMUSDX(R, C2) >> 16u;
 437:Source\TransformFunctions/arm_cfft_radix4_q15.c **** 
 438:Source\TransformFunctions/arm_cfft_radix4_q15.c ****         /* (ya-yb+yc-yd)* (si2) + (xa-xb+xc-xd)* co2 */
 439:Source\TransformFunctions/arm_cfft_radix4_q15.c ****         out2 = __SMUAD(C2, R);
 440:Source\TransformFunctions/arm_cfft_radix4_q15.c **** 
 441:Source\TransformFunctions/arm_cfft_radix4_q15.c **** #endif /*      #ifndef ARM_MATH_BIG_ENDIAN     */
 442:Source\TransformFunctions/arm_cfft_radix4_q15.c **** 
 443:Source\TransformFunctions/arm_cfft_radix4_q15.c ****         /*  Reading i0+3fftLen/4 */
 444:Source\TransformFunctions/arm_cfft_radix4_q15.c ****         /* Read yb (real), xb(imag) input */
 445:Source\TransformFunctions/arm_cfft_radix4_q15.c ****         T = _SIMD32_OFFSET(pSi1);
 446:Source\TransformFunctions/arm_cfft_radix4_q15.c **** 
 447:Source\TransformFunctions/arm_cfft_radix4_q15.c ****         /*  writing the butterfly processed i0 + fftLen/4 sample */
 448:Source\TransformFunctions/arm_cfft_radix4_q15.c ****         /* xc' = (xa-xb+xc-xd)* co2 + (ya-yb+yc-yd)* (si2) */
 449:Source\TransformFunctions/arm_cfft_radix4_q15.c ****         /* yc' = (ya-yb+yc-yd)* co2 - (xa-xb+xc-xd)* (si2) */
ARM GAS  C:\Users\fneves\AppData\Local\Temp\cc0ayw4Y.s 			page 11


 450:Source\TransformFunctions/arm_cfft_radix4_q15.c ****         _SIMD32_OFFSET(pSi1) =
 451:Source\TransformFunctions/arm_cfft_radix4_q15.c ****           ((out2) & 0xFFFF0000) | (out1 & 0x0000FFFF);
 452:Source\TransformFunctions/arm_cfft_radix4_q15.c ****         pSi1 += 2 * n1;
 453:Source\TransformFunctions/arm_cfft_radix4_q15.c **** 
 454:Source\TransformFunctions/arm_cfft_radix4_q15.c ****         /*  Butterfly calculations */
 455:Source\TransformFunctions/arm_cfft_radix4_q15.c **** 
 456:Source\TransformFunctions/arm_cfft_radix4_q15.c ****         /* Read yd (real), xd(imag) input */
 457:Source\TransformFunctions/arm_cfft_radix4_q15.c ****         U = _SIMD32_OFFSET(pSi3);
 458:Source\TransformFunctions/arm_cfft_radix4_q15.c **** 
 459:Source\TransformFunctions/arm_cfft_radix4_q15.c ****         /* T = packed(yb-yd, xb-xd) */
 460:Source\TransformFunctions/arm_cfft_radix4_q15.c ****         T = __QSUB16(T, U);
 461:Source\TransformFunctions/arm_cfft_radix4_q15.c **** 
 462:Source\TransformFunctions/arm_cfft_radix4_q15.c **** #ifndef ARM_MATH_BIG_ENDIAN
 463:Source\TransformFunctions/arm_cfft_radix4_q15.c **** 
 464:Source\TransformFunctions/arm_cfft_radix4_q15.c ****         /* R = packed((ya-yc) + (xb- xd) , (xa-xc) - (yb-yd)) */
 465:Source\TransformFunctions/arm_cfft_radix4_q15.c ****         R = __SHASX(S, T);
 466:Source\TransformFunctions/arm_cfft_radix4_q15.c **** 
 467:Source\TransformFunctions/arm_cfft_radix4_q15.c ****         /* S = packed((ya-yc) - (xb- xd),  (xa-xc) + (yb-yd)) */
 468:Source\TransformFunctions/arm_cfft_radix4_q15.c ****         S = __SHSAX(S, T);
 469:Source\TransformFunctions/arm_cfft_radix4_q15.c **** 
 470:Source\TransformFunctions/arm_cfft_radix4_q15.c **** 
 471:Source\TransformFunctions/arm_cfft_radix4_q15.c ****         /*  Butterfly process for the i0+fftLen/2 sample */
 472:Source\TransformFunctions/arm_cfft_radix4_q15.c ****         out1 = __SMUAD(C1, S) >> 16u;
 473:Source\TransformFunctions/arm_cfft_radix4_q15.c ****         out2 = __SMUSDX(C1, S);
 474:Source\TransformFunctions/arm_cfft_radix4_q15.c **** 
 475:Source\TransformFunctions/arm_cfft_radix4_q15.c **** #else
 476:Source\TransformFunctions/arm_cfft_radix4_q15.c **** 
 477:Source\TransformFunctions/arm_cfft_radix4_q15.c ****         /* R = packed((ya-yc) + (xb- xd) , (xa-xc) - (yb-yd)) */
 478:Source\TransformFunctions/arm_cfft_radix4_q15.c ****         R = __SHSAX(S, T);
 479:Source\TransformFunctions/arm_cfft_radix4_q15.c **** 
 480:Source\TransformFunctions/arm_cfft_radix4_q15.c ****         /* S = packed((ya-yc) - (xb- xd),  (xa-xc) + (yb-yd)) */
 481:Source\TransformFunctions/arm_cfft_radix4_q15.c ****         S = __SHASX(S, T);
 482:Source\TransformFunctions/arm_cfft_radix4_q15.c **** 
 483:Source\TransformFunctions/arm_cfft_radix4_q15.c **** 
 484:Source\TransformFunctions/arm_cfft_radix4_q15.c ****         /*  Butterfly process for the i0+fftLen/2 sample */
 485:Source\TransformFunctions/arm_cfft_radix4_q15.c ****         out1 = __SMUSDX(S, C1) >> 16u;
 486:Source\TransformFunctions/arm_cfft_radix4_q15.c ****         out2 = __SMUAD(C1, S);
 487:Source\TransformFunctions/arm_cfft_radix4_q15.c **** 
 488:Source\TransformFunctions/arm_cfft_radix4_q15.c **** #endif /*      #ifndef ARM_MATH_BIG_ENDIAN     */
 489:Source\TransformFunctions/arm_cfft_radix4_q15.c **** 
 490:Source\TransformFunctions/arm_cfft_radix4_q15.c ****         /* xb' = (xa+yb-xc-yd)* co1 + (ya-xb-yc+xd)* (si1) */
 491:Source\TransformFunctions/arm_cfft_radix4_q15.c ****         /* yb' = (ya-xb-yc+xd)* co1 - (xa+yb-xc-yd)* (si1) */
 492:Source\TransformFunctions/arm_cfft_radix4_q15.c ****         _SIMD32_OFFSET(pSi2) =
 493:Source\TransformFunctions/arm_cfft_radix4_q15.c ****           ((out2) & 0xFFFF0000) | (out1 & 0x0000FFFF);
 494:Source\TransformFunctions/arm_cfft_radix4_q15.c ****         pSi2 += 2 * n1;
 495:Source\TransformFunctions/arm_cfft_radix4_q15.c **** 
 496:Source\TransformFunctions/arm_cfft_radix4_q15.c ****         /*  Butterfly process for the i0+3fftLen/4 sample */
 497:Source\TransformFunctions/arm_cfft_radix4_q15.c **** 
 498:Source\TransformFunctions/arm_cfft_radix4_q15.c **** #ifndef ARM_MATH_BIG_ENDIAN
 499:Source\TransformFunctions/arm_cfft_radix4_q15.c **** 
 500:Source\TransformFunctions/arm_cfft_radix4_q15.c ****         out1 = __SMUAD(C3, R) >> 16u;
 501:Source\TransformFunctions/arm_cfft_radix4_q15.c ****         out2 = __SMUSDX(C3, R);
 502:Source\TransformFunctions/arm_cfft_radix4_q15.c **** 
 503:Source\TransformFunctions/arm_cfft_radix4_q15.c **** #else
 504:Source\TransformFunctions/arm_cfft_radix4_q15.c **** 
 505:Source\TransformFunctions/arm_cfft_radix4_q15.c ****         out1 = __SMUSDX(R, C3) >> 16u;
 506:Source\TransformFunctions/arm_cfft_radix4_q15.c ****         out2 = __SMUAD(C3, R);
ARM GAS  C:\Users\fneves\AppData\Local\Temp\cc0ayw4Y.s 			page 12


 507:Source\TransformFunctions/arm_cfft_radix4_q15.c **** 
 508:Source\TransformFunctions/arm_cfft_radix4_q15.c **** #endif /*      #ifndef ARM_MATH_BIG_ENDIAN     */
 509:Source\TransformFunctions/arm_cfft_radix4_q15.c **** 
 510:Source\TransformFunctions/arm_cfft_radix4_q15.c ****         /* xd' = (xa-yb-xc+yd)* co3 + (ya+xb-yc-xd)* (si3) */
 511:Source\TransformFunctions/arm_cfft_radix4_q15.c ****         /* yd' = (ya+xb-yc-xd)* co3 - (xa-yb-xc+yd)* (si3) */
 512:Source\TransformFunctions/arm_cfft_radix4_q15.c ****         _SIMD32_OFFSET(pSi3) =
 513:Source\TransformFunctions/arm_cfft_radix4_q15.c ****           ((out2) & 0xFFFF0000) | (out1 & 0x0000FFFF);
 514:Source\TransformFunctions/arm_cfft_radix4_q15.c ****         pSi3 += 2 * n1;
 515:Source\TransformFunctions/arm_cfft_radix4_q15.c ****       }
 516:Source\TransformFunctions/arm_cfft_radix4_q15.c ****     }
 517:Source\TransformFunctions/arm_cfft_radix4_q15.c ****     /*  Twiddle coefficients index modifier */
 518:Source\TransformFunctions/arm_cfft_radix4_q15.c ****     twidCoefModifier <<= 2u;
 519:Source\TransformFunctions/arm_cfft_radix4_q15.c ****   }
 520:Source\TransformFunctions/arm_cfft_radix4_q15.c ****   /* end of middle stage process */
 521:Source\TransformFunctions/arm_cfft_radix4_q15.c **** 
 522:Source\TransformFunctions/arm_cfft_radix4_q15.c **** 
 523:Source\TransformFunctions/arm_cfft_radix4_q15.c ****   /* data is in 10.6(q6) format for the 1024 point */
 524:Source\TransformFunctions/arm_cfft_radix4_q15.c ****   /* data is in 8.8(q8) format for the 256 point */
 525:Source\TransformFunctions/arm_cfft_radix4_q15.c ****   /* data is in 6.10(q10) format for the 64 point */
 526:Source\TransformFunctions/arm_cfft_radix4_q15.c ****   /* data is in 4.12(q12) format for the 16 point */
 527:Source\TransformFunctions/arm_cfft_radix4_q15.c **** 
 528:Source\TransformFunctions/arm_cfft_radix4_q15.c ****   /*  Initializations for the last stage */
 529:Source\TransformFunctions/arm_cfft_radix4_q15.c ****   j = fftLen >> 2;
 530:Source\TransformFunctions/arm_cfft_radix4_q15.c **** 
 531:Source\TransformFunctions/arm_cfft_radix4_q15.c ****   ptr1 = &pSrc16[0];
 532:Source\TransformFunctions/arm_cfft_radix4_q15.c **** 
 533:Source\TransformFunctions/arm_cfft_radix4_q15.c ****   /* start of last stage process */
 534:Source\TransformFunctions/arm_cfft_radix4_q15.c **** 
 535:Source\TransformFunctions/arm_cfft_radix4_q15.c ****   /*  Butterfly implementation */
 536:Source\TransformFunctions/arm_cfft_radix4_q15.c ****   do
 537:Source\TransformFunctions/arm_cfft_radix4_q15.c ****   {
 538:Source\TransformFunctions/arm_cfft_radix4_q15.c ****     /* Read xa (real), ya(imag) input */
 539:Source\TransformFunctions/arm_cfft_radix4_q15.c ****     xaya = *__SIMD32(ptr1)++;
 540:Source\TransformFunctions/arm_cfft_radix4_q15.c **** 
 541:Source\TransformFunctions/arm_cfft_radix4_q15.c ****     /* Read xb (real), yb(imag) input */
 542:Source\TransformFunctions/arm_cfft_radix4_q15.c ****     xbyb = *__SIMD32(ptr1)++;
 543:Source\TransformFunctions/arm_cfft_radix4_q15.c **** 
 544:Source\TransformFunctions/arm_cfft_radix4_q15.c ****     /* Read xc (real), yc(imag) input */
 545:Source\TransformFunctions/arm_cfft_radix4_q15.c ****     xcyc = *__SIMD32(ptr1)++;
 546:Source\TransformFunctions/arm_cfft_radix4_q15.c **** 
 547:Source\TransformFunctions/arm_cfft_radix4_q15.c ****     /* Read xd (real), yd(imag) input */
 548:Source\TransformFunctions/arm_cfft_radix4_q15.c ****     xdyd = *__SIMD32(ptr1)++;
 549:Source\TransformFunctions/arm_cfft_radix4_q15.c **** 
 550:Source\TransformFunctions/arm_cfft_radix4_q15.c ****     /* R = packed((ya + yc), (xa + xc)) */
 551:Source\TransformFunctions/arm_cfft_radix4_q15.c ****     R = __QADD16(xaya, xcyc);
 552:Source\TransformFunctions/arm_cfft_radix4_q15.c **** 
 553:Source\TransformFunctions/arm_cfft_radix4_q15.c ****     /* T = packed((yb + yd), (xb + xd)) */
 554:Source\TransformFunctions/arm_cfft_radix4_q15.c ****     T = __QADD16(xbyb, xdyd);
 555:Source\TransformFunctions/arm_cfft_radix4_q15.c **** 
 556:Source\TransformFunctions/arm_cfft_radix4_q15.c ****     /* pointer updation for writing */
 557:Source\TransformFunctions/arm_cfft_radix4_q15.c ****     ptr1 = ptr1 - 8u;
 558:Source\TransformFunctions/arm_cfft_radix4_q15.c **** 
 559:Source\TransformFunctions/arm_cfft_radix4_q15.c **** 
 560:Source\TransformFunctions/arm_cfft_radix4_q15.c ****     /* xa' = xa + xb + xc + xd */
 561:Source\TransformFunctions/arm_cfft_radix4_q15.c ****     /* ya' = ya + yb + yc + yd */
 562:Source\TransformFunctions/arm_cfft_radix4_q15.c ****     *__SIMD32(ptr1)++ = __SHADD16(R, T);
 563:Source\TransformFunctions/arm_cfft_radix4_q15.c **** 
ARM GAS  C:\Users\fneves\AppData\Local\Temp\cc0ayw4Y.s 			page 13


 564:Source\TransformFunctions/arm_cfft_radix4_q15.c ****     /* T = packed((yb + yd), (xb + xd)) */
 565:Source\TransformFunctions/arm_cfft_radix4_q15.c ****     T = __QADD16(xbyb, xdyd);
 566:Source\TransformFunctions/arm_cfft_radix4_q15.c **** 
 567:Source\TransformFunctions/arm_cfft_radix4_q15.c ****     /* xc' = (xa-xb+xc-xd) */
 568:Source\TransformFunctions/arm_cfft_radix4_q15.c ****     /* yc' = (ya-yb+yc-yd) */
 569:Source\TransformFunctions/arm_cfft_radix4_q15.c ****     *__SIMD32(ptr1)++ = __SHSUB16(R, T);
 570:Source\TransformFunctions/arm_cfft_radix4_q15.c **** 
 571:Source\TransformFunctions/arm_cfft_radix4_q15.c ****     /* S = packed((ya - yc), (xa - xc)) */
 572:Source\TransformFunctions/arm_cfft_radix4_q15.c ****     S = __QSUB16(xaya, xcyc);
 573:Source\TransformFunctions/arm_cfft_radix4_q15.c **** 
 574:Source\TransformFunctions/arm_cfft_radix4_q15.c ****     /* Read yd (real), xd(imag) input */
 575:Source\TransformFunctions/arm_cfft_radix4_q15.c ****     /* T = packed( (yb - yd), (xb - xd))  */
 576:Source\TransformFunctions/arm_cfft_radix4_q15.c ****     U = __QSUB16(xbyb, xdyd);
 577:Source\TransformFunctions/arm_cfft_radix4_q15.c **** 
 578:Source\TransformFunctions/arm_cfft_radix4_q15.c **** #ifndef ARM_MATH_BIG_ENDIAN
 579:Source\TransformFunctions/arm_cfft_radix4_q15.c **** 
 580:Source\TransformFunctions/arm_cfft_radix4_q15.c ****     /* xb' = (xa+yb-xc-yd) */
 581:Source\TransformFunctions/arm_cfft_radix4_q15.c ****     /* yb' = (ya-xb-yc+xd) */
 582:Source\TransformFunctions/arm_cfft_radix4_q15.c ****     *__SIMD32(ptr1)++ = __SHSAX(S, U);
 583:Source\TransformFunctions/arm_cfft_radix4_q15.c **** 
 584:Source\TransformFunctions/arm_cfft_radix4_q15.c **** 
 585:Source\TransformFunctions/arm_cfft_radix4_q15.c ****     /* xd' = (xa-yb-xc+yd) */
 586:Source\TransformFunctions/arm_cfft_radix4_q15.c ****     /* yd' = (ya+xb-yc-xd) */
 587:Source\TransformFunctions/arm_cfft_radix4_q15.c ****     *__SIMD32(ptr1)++ = __SHASX(S, U);
 588:Source\TransformFunctions/arm_cfft_radix4_q15.c **** 
 589:Source\TransformFunctions/arm_cfft_radix4_q15.c **** #else
 590:Source\TransformFunctions/arm_cfft_radix4_q15.c **** 
 591:Source\TransformFunctions/arm_cfft_radix4_q15.c ****     /* xb' = (xa+yb-xc-yd) */
 592:Source\TransformFunctions/arm_cfft_radix4_q15.c ****     /* yb' = (ya-xb-yc+xd) */
 593:Source\TransformFunctions/arm_cfft_radix4_q15.c ****     *__SIMD32(ptr1)++ = __SHASX(S, U);
 594:Source\TransformFunctions/arm_cfft_radix4_q15.c **** 
 595:Source\TransformFunctions/arm_cfft_radix4_q15.c **** 
 596:Source\TransformFunctions/arm_cfft_radix4_q15.c ****     /* xd' = (xa-yb-xc+yd) */
 597:Source\TransformFunctions/arm_cfft_radix4_q15.c ****     /* yd' = (ya+xb-yc-xd) */
 598:Source\TransformFunctions/arm_cfft_radix4_q15.c ****     *__SIMD32(ptr1)++ = __SHSAX(S, U);
 599:Source\TransformFunctions/arm_cfft_radix4_q15.c **** 
 600:Source\TransformFunctions/arm_cfft_radix4_q15.c **** #endif /*      #ifndef ARM_MATH_BIG_ENDIAN     */
 601:Source\TransformFunctions/arm_cfft_radix4_q15.c **** 
 602:Source\TransformFunctions/arm_cfft_radix4_q15.c ****   } while (--j);
 603:Source\TransformFunctions/arm_cfft_radix4_q15.c **** 
 604:Source\TransformFunctions/arm_cfft_radix4_q15.c ****   /* end of last stage process */
 605:Source\TransformFunctions/arm_cfft_radix4_q15.c **** 
 606:Source\TransformFunctions/arm_cfft_radix4_q15.c ****   /* output is in 11.5(q5) format for the 1024 point */
 607:Source\TransformFunctions/arm_cfft_radix4_q15.c ****   /* output is in 9.7(q7) format for the 256 point   */
 608:Source\TransformFunctions/arm_cfft_radix4_q15.c ****   /* output is in 7.9(q9) format for the 64 point  */
 609:Source\TransformFunctions/arm_cfft_radix4_q15.c ****   /* output is in 5.11(q11) format for the 16 point  */
 610:Source\TransformFunctions/arm_cfft_radix4_q15.c **** 
 611:Source\TransformFunctions/arm_cfft_radix4_q15.c **** 
 612:Source\TransformFunctions/arm_cfft_radix4_q15.c **** #else
 613:Source\TransformFunctions/arm_cfft_radix4_q15.c **** 
 614:Source\TransformFunctions/arm_cfft_radix4_q15.c ****   /* Run the below code for Cortex-M0 */
 615:Source\TransformFunctions/arm_cfft_radix4_q15.c **** 
 616:Source\TransformFunctions/arm_cfft_radix4_q15.c ****   q15_t R0, R1, S0, S1, T0, T1, U0, U1;
 617:Source\TransformFunctions/arm_cfft_radix4_q15.c ****   q15_t Co1, Si1, Co2, Si2, Co3, Si3, out1, out2;
 618:Source\TransformFunctions/arm_cfft_radix4_q15.c ****   uint32_t n1, n2, ic, i0, i1, i2, i3, j, k;
 619:Source\TransformFunctions/arm_cfft_radix4_q15.c **** 
 620:Source\TransformFunctions/arm_cfft_radix4_q15.c ****   /* Total process is divided into three stages */
ARM GAS  C:\Users\fneves\AppData\Local\Temp\cc0ayw4Y.s 			page 14


 621:Source\TransformFunctions/arm_cfft_radix4_q15.c **** 
 622:Source\TransformFunctions/arm_cfft_radix4_q15.c ****   /* process first stage, middle stages, & last stage */
 623:Source\TransformFunctions/arm_cfft_radix4_q15.c **** 
 624:Source\TransformFunctions/arm_cfft_radix4_q15.c ****   /*  Initializations for the first stage */
 625:Source\TransformFunctions/arm_cfft_radix4_q15.c ****   n2 = fftLen;
 122              		.loc 1 625 0
 123 0010 BB68     		ldr	r3, [r7, #8]
 124 0012 AB22     		mov	r2, #171
 125 0014 9200     		lsl	r2, r2, #2
 126 0016 BA18     		add	r2, r7, r2
 127 0018 1360     		str	r3, [r2]
 626:Source\TransformFunctions/arm_cfft_radix4_q15.c ****   n1 = n2;
 128              		.loc 1 626 0
 129 001a AB23     		mov	r3, #171
 130 001c 9B00     		lsl	r3, r3, #2
 131 001e FB18     		add	r3, r7, r3
 132 0020 1B68     		ldr	r3, [r3]
 133 0022 A622     		mov	r2, #166
 134 0024 9200     		lsl	r2, r2, #2
 135 0026 BA18     		add	r2, r7, r2
 136 0028 1360     		str	r3, [r2]
 627:Source\TransformFunctions/arm_cfft_radix4_q15.c **** 
 628:Source\TransformFunctions/arm_cfft_radix4_q15.c ****   /* n2 = fftLen/4 */
 629:Source\TransformFunctions/arm_cfft_radix4_q15.c ****   n2 >>= 2u;
 137              		.loc 1 629 0
 138 002a AB23     		mov	r3, #171
 139 002c 9B00     		lsl	r3, r3, #2
 140 002e FB18     		add	r3, r7, r3
 141 0030 1B68     		ldr	r3, [r3]
 142 0032 9B08     		lsr	r3, r3, #2
 143 0034 AB22     		mov	r2, #171
 144 0036 9200     		lsl	r2, r2, #2
 145 0038 BA18     		add	r2, r7, r2
 146 003a 1360     		str	r3, [r2]
 630:Source\TransformFunctions/arm_cfft_radix4_q15.c **** 
 631:Source\TransformFunctions/arm_cfft_radix4_q15.c ****   /* Index for twiddle coefficient */
 632:Source\TransformFunctions/arm_cfft_radix4_q15.c ****   ic = 0u;
 147              		.loc 1 632 0
 148 003c 0023     		mov	r3, #0
 149 003e AA22     		mov	r2, #170
 150 0040 9200     		lsl	r2, r2, #2
 151 0042 BA18     		add	r2, r7, r2
 152 0044 1360     		str	r3, [r2]
 633:Source\TransformFunctions/arm_cfft_radix4_q15.c **** 
 634:Source\TransformFunctions/arm_cfft_radix4_q15.c ****   /* Index for input read and output write */
 635:Source\TransformFunctions/arm_cfft_radix4_q15.c ****   i0 = 0u;
 153              		.loc 1 635 0
 154 0046 0023     		mov	r3, #0
 155 0048 A922     		mov	r2, #169
 156 004a 9200     		lsl	r2, r2, #2
 157 004c BA18     		add	r2, r7, r2
 158 004e 1360     		str	r3, [r2]
 636:Source\TransformFunctions/arm_cfft_radix4_q15.c ****   j = n2;
 159              		.loc 1 636 0
 160 0050 AB23     		mov	r3, #171
 161 0052 9B00     		lsl	r3, r3, #2
 162 0054 FB18     		add	r3, r7, r3
ARM GAS  C:\Users\fneves\AppData\Local\Temp\cc0ayw4Y.s 			page 15


 163 0056 1B68     		ldr	r3, [r3]
 164 0058 A822     		mov	r2, #168
 165 005a 9200     		lsl	r2, r2, #2
 166 005c BA18     		add	r2, r7, r2
 167 005e 1360     		str	r3, [r2]
 168              	.L90:
 637:Source\TransformFunctions/arm_cfft_radix4_q15.c **** 
 638:Source\TransformFunctions/arm_cfft_radix4_q15.c ****   /* Input is in 1.15(q15) format */
 639:Source\TransformFunctions/arm_cfft_radix4_q15.c **** 
 640:Source\TransformFunctions/arm_cfft_radix4_q15.c ****   /*  start of first stage process */
 641:Source\TransformFunctions/arm_cfft_radix4_q15.c ****   do
 642:Source\TransformFunctions/arm_cfft_radix4_q15.c ****   {
 643:Source\TransformFunctions/arm_cfft_radix4_q15.c ****     /*  Butterfly implementation */
 644:Source\TransformFunctions/arm_cfft_radix4_q15.c **** 
 645:Source\TransformFunctions/arm_cfft_radix4_q15.c ****     /*  index calculation for the input as, */
 646:Source\TransformFunctions/arm_cfft_radix4_q15.c ****     /*  pSrc16[i0 + 0], pSrc16[i0 + fftLen/4], pSrc16[i0 + fftLen/2], pSrc16[i0 + 3fftLen/4] */
 647:Source\TransformFunctions/arm_cfft_radix4_q15.c ****     i1 = i0 + n2;
 169              		.loc 1 647 0 discriminator 1
 170 0060 A923     		mov	r3, #169
 171 0062 9B00     		lsl	r3, r3, #2
 172 0064 FB18     		add	r3, r7, r3
 173 0066 1A68     		ldr	r2, [r3]
 174 0068 AB23     		mov	r3, #171
 175 006a 9B00     		lsl	r3, r3, #2
 176 006c FB18     		add	r3, r7, r3
 177 006e 1B68     		ldr	r3, [r3]
 178 0070 D318     		add	r3, r2, r3
 179 0072 A522     		mov	r2, #165
 180 0074 9200     		lsl	r2, r2, #2
 181 0076 BA18     		add	r2, r7, r2
 182 0078 1360     		str	r3, [r2]
 648:Source\TransformFunctions/arm_cfft_radix4_q15.c ****     i2 = i1 + n2;
 183              		.loc 1 648 0 discriminator 1
 184 007a A523     		mov	r3, #165
 185 007c 9B00     		lsl	r3, r3, #2
 186 007e FB18     		add	r3, r7, r3
 187 0080 1A68     		ldr	r2, [r3]
 188 0082 AB23     		mov	r3, #171
 189 0084 9B00     		lsl	r3, r3, #2
 190 0086 FB18     		add	r3, r7, r3
 191 0088 1B68     		ldr	r3, [r3]
 192 008a D318     		add	r3, r2, r3
 193 008c A422     		mov	r2, #164
 194 008e 9200     		lsl	r2, r2, #2
 195 0090 BA18     		add	r2, r7, r2
 196 0092 1360     		str	r3, [r2]
 649:Source\TransformFunctions/arm_cfft_radix4_q15.c ****     i3 = i2 + n2;
 197              		.loc 1 649 0 discriminator 1
 198 0094 A423     		mov	r3, #164
 199 0096 9B00     		lsl	r3, r3, #2
 200 0098 FB18     		add	r3, r7, r3
 201 009a 1A68     		ldr	r2, [r3]
 202 009c AB23     		mov	r3, #171
 203 009e 9B00     		lsl	r3, r3, #2
 204 00a0 FB18     		add	r3, r7, r3
 205 00a2 1B68     		ldr	r3, [r3]
 206 00a4 D318     		add	r3, r2, r3
ARM GAS  C:\Users\fneves\AppData\Local\Temp\cc0ayw4Y.s 			page 16


 207 00a6 A322     		mov	r2, #163
 208 00a8 9200     		lsl	r2, r2, #2
 209 00aa BA18     		add	r2, r7, r2
 210 00ac 1360     		str	r3, [r2]
 650:Source\TransformFunctions/arm_cfft_radix4_q15.c **** 
 651:Source\TransformFunctions/arm_cfft_radix4_q15.c ****     /*  Reading i0, i0+fftLen/2 inputs */
 652:Source\TransformFunctions/arm_cfft_radix4_q15.c **** 
 653:Source\TransformFunctions/arm_cfft_radix4_q15.c ****     /* input is down scale by 4 to avoid overflow */
 654:Source\TransformFunctions/arm_cfft_radix4_q15.c ****     /* Read ya (real), xa(imag) input */
 655:Source\TransformFunctions/arm_cfft_radix4_q15.c ****     T0 = pSrc16[i0 * 2u] >> 2u;
 211              		.loc 1 655 0 discriminator 1
 212 00ae A923     		mov	r3, #169
 213 00b0 9B00     		lsl	r3, r3, #2
 214 00b2 FB18     		add	r3, r7, r3
 215 00b4 1B68     		ldr	r3, [r3]
 216 00b6 9B00     		lsl	r3, r3, #2
 217 00b8 FA68     		ldr	r2, [r7, #12]
 218 00ba D318     		add	r3, r2, r3
 219 00bc 1A88     		ldrh	r2, [r3]
 220 00be A94B     		ldr	r3, .L225+4
 221 00c0 FB18     		add	r3, r7, r3
 222 00c2 12B2     		sxth	r2, r2
 223 00c4 9210     		asr	r2, r2, #2
 224 00c6 1A80     		strh	r2, [r3]
 656:Source\TransformFunctions/arm_cfft_radix4_q15.c ****     T1 = pSrc16[(i0 * 2u) + 1u] >> 2u;
 225              		.loc 1 656 0 discriminator 1
 226 00c8 A923     		mov	r3, #169
 227 00ca 9B00     		lsl	r3, r3, #2
 228 00cc FB18     		add	r3, r7, r3
 229 00ce 1B68     		ldr	r3, [r3]
 230 00d0 9B00     		lsl	r3, r3, #2
 231 00d2 0233     		add	r3, r3, #2
 232 00d4 FA68     		ldr	r2, [r7, #12]
 233 00d6 D318     		add	r3, r2, r3
 234 00d8 1A88     		ldrh	r2, [r3]
 235 00da A223     		mov	r3, #162
 236 00dc 9B00     		lsl	r3, r3, #2
 237 00de FB18     		add	r3, r7, r3
 238 00e0 12B2     		sxth	r2, r2
 239 00e2 9210     		asr	r2, r2, #2
 240 00e4 1A80     		strh	r2, [r3]
 657:Source\TransformFunctions/arm_cfft_radix4_q15.c **** 
 658:Source\TransformFunctions/arm_cfft_radix4_q15.c ****     /* input is down scale by 4 to avoid overflow */
 659:Source\TransformFunctions/arm_cfft_radix4_q15.c ****     /* Read yc (real), xc(imag) input */
 660:Source\TransformFunctions/arm_cfft_radix4_q15.c ****     S0 = pSrc16[i2 * 2u] >> 2u;
 241              		.loc 1 660 0 discriminator 1
 242 00e6 A423     		mov	r3, #164
 243 00e8 9B00     		lsl	r3, r3, #2
 244 00ea FB18     		add	r3, r7, r3
 245 00ec 1B68     		ldr	r3, [r3]
 246 00ee 9B00     		lsl	r3, r3, #2
 247 00f0 FA68     		ldr	r2, [r7, #12]
 248 00f2 D318     		add	r3, r2, r3
 249 00f4 1A88     		ldrh	r2, [r3]
 250 00f6 9C4B     		ldr	r3, .L225+8
 251 00f8 FB18     		add	r3, r7, r3
 252 00fa 12B2     		sxth	r2, r2
ARM GAS  C:\Users\fneves\AppData\Local\Temp\cc0ayw4Y.s 			page 17


 253 00fc 9210     		asr	r2, r2, #2
 254 00fe 1A80     		strh	r2, [r3]
 661:Source\TransformFunctions/arm_cfft_radix4_q15.c ****     S1 = pSrc16[(i2 * 2u) + 1u] >> 2u;
 255              		.loc 1 661 0 discriminator 1
 256 0100 A423     		mov	r3, #164
 257 0102 9B00     		lsl	r3, r3, #2
 258 0104 FB18     		add	r3, r7, r3
 259 0106 1B68     		ldr	r3, [r3]
 260 0108 9B00     		lsl	r3, r3, #2
 261 010a 0233     		add	r3, r3, #2
 262 010c FA68     		ldr	r2, [r7, #12]
 263 010e D318     		add	r3, r2, r3
 264 0110 1A88     		ldrh	r2, [r3]
 265 0112 A123     		mov	r3, #161
 266 0114 9B00     		lsl	r3, r3, #2
 267 0116 FB18     		add	r3, r7, r3
 268 0118 12B2     		sxth	r2, r2
 269 011a 9210     		asr	r2, r2, #2
 270 011c 1A80     		strh	r2, [r3]
 662:Source\TransformFunctions/arm_cfft_radix4_q15.c **** 
 663:Source\TransformFunctions/arm_cfft_radix4_q15.c ****     /* R0 = (ya + yc) */
 664:Source\TransformFunctions/arm_cfft_radix4_q15.c ****     R0 = __SSAT(T0 + S0, 16u);
 271              		.loc 1 664 0 discriminator 1
 272 011e 914B     		ldr	r3, .L225+4
 273 0120 FB18     		add	r3, r7, r3
 274 0122 0022     		mov	r2, #0
 275 0124 9A5E     		ldrsh	r2, [r3, r2]
 276 0126 904B     		ldr	r3, .L225+8
 277 0128 FB18     		add	r3, r7, r3
 278 012a 0021     		mov	r1, #0
 279 012c 5B5E     		ldrsh	r3, [r3, r1]
 280 012e D318     		add	r3, r2, r3
 281 0130 9A22     		mov	r2, #154
 282 0132 9200     		lsl	r2, r2, #2
 283 0134 BA18     		add	r2, r7, r2
 284 0136 1360     		str	r3, [r2]
 285 0138 1023     		mov	r3, #16
 286 013a 9922     		mov	r2, #153
 287 013c 9200     		lsl	r2, r2, #2
 288 013e BA18     		add	r2, r7, r2
 289 0140 1360     		str	r3, [r2]
 290              	.LBB122:
 291              	.LBB123:
 292              		.file 2 ".\\Include/arm_math.h"
   1:.\Include/arm_math.h **** /* ----------------------------------------------------------------------
   2:.\Include/arm_math.h ****  * Project:      CMSIS DSP Library
   3:.\Include/arm_math.h ****  * Title:        arm_math.h
   4:.\Include/arm_math.h ****  * Description:  Public header file for CMSIS DSP Library
   5:.\Include/arm_math.h ****  *
   6:.\Include/arm_math.h ****  * $Date:        27. January 2017
   7:.\Include/arm_math.h ****  * $Revision:    V.1.5.1
   8:.\Include/arm_math.h ****  *
   9:.\Include/arm_math.h ****  * Target Processor: Cortex-M cores
  10:.\Include/arm_math.h ****  * -------------------------------------------------------------------- */
  11:.\Include/arm_math.h **** /*
  12:.\Include/arm_math.h ****  * Copyright (C) 2010-2017 ARM Limited or its affiliates. All rights reserved.
  13:.\Include/arm_math.h ****  *
ARM GAS  C:\Users\fneves\AppData\Local\Temp\cc0ayw4Y.s 			page 18


  14:.\Include/arm_math.h ****  * SPDX-License-Identifier: Apache-2.0
  15:.\Include/arm_math.h ****  *
  16:.\Include/arm_math.h ****  * Licensed under the Apache License, Version 2.0 (the License); you may
  17:.\Include/arm_math.h ****  * not use this file except in compliance with the License.
  18:.\Include/arm_math.h ****  * You may obtain a copy of the License at
  19:.\Include/arm_math.h ****  *
  20:.\Include/arm_math.h ****  * www.apache.org/licenses/LICENSE-2.0
  21:.\Include/arm_math.h ****  *
  22:.\Include/arm_math.h ****  * Unless required by applicable law or agreed to in writing, software
  23:.\Include/arm_math.h ****  * distributed under the License is distributed on an AS IS BASIS, WITHOUT
  24:.\Include/arm_math.h ****  * WARRANTIES OR CONDITIONS OF ANY KIND, either express or implied.
  25:.\Include/arm_math.h ****  * See the License for the specific language governing permissions and
  26:.\Include/arm_math.h ****  * limitations under the License.
  27:.\Include/arm_math.h ****  */
  28:.\Include/arm_math.h **** 
  29:.\Include/arm_math.h **** /**
  30:.\Include/arm_math.h ****    \mainpage CMSIS DSP Software Library
  31:.\Include/arm_math.h ****    *
  32:.\Include/arm_math.h ****    * Introduction
  33:.\Include/arm_math.h ****    * ------------
  34:.\Include/arm_math.h ****    *
  35:.\Include/arm_math.h ****    * This user manual describes the CMSIS DSP software library,
  36:.\Include/arm_math.h ****    * a suite of common signal processing functions for use on Cortex-M processor based devices.
  37:.\Include/arm_math.h ****    *
  38:.\Include/arm_math.h ****    * The library is divided into a number of functions each covering a specific category:
  39:.\Include/arm_math.h ****    * - Basic math functions
  40:.\Include/arm_math.h ****    * - Fast math functions
  41:.\Include/arm_math.h ****    * - Complex math functions
  42:.\Include/arm_math.h ****    * - Filters
  43:.\Include/arm_math.h ****    * - Matrix functions
  44:.\Include/arm_math.h ****    * - Transforms
  45:.\Include/arm_math.h ****    * - Motor control functions
  46:.\Include/arm_math.h ****    * - Statistical functions
  47:.\Include/arm_math.h ****    * - Support functions
  48:.\Include/arm_math.h ****    * - Interpolation functions
  49:.\Include/arm_math.h ****    *
  50:.\Include/arm_math.h ****    * The library has separate functions for operating on 8-bit integers, 16-bit integers,
  51:.\Include/arm_math.h ****    * 32-bit integer and 32-bit floating-point values.
  52:.\Include/arm_math.h ****    *
  53:.\Include/arm_math.h ****    * Using the Library
  54:.\Include/arm_math.h ****    * ------------
  55:.\Include/arm_math.h ****    *
  56:.\Include/arm_math.h ****    * The library installer contains prebuilt versions of the libraries in the <code>Lib</code> fold
  57:.\Include/arm_math.h ****    * - arm_cortexM7lfdp_math.lib (Cortex-M7, Little endian, Double Precision Floating Point Unit)
  58:.\Include/arm_math.h ****    * - arm_cortexM7bfdp_math.lib (Cortex-M7, Big endian, Double Precision Floating Point Unit)
  59:.\Include/arm_math.h ****    * - arm_cortexM7lfsp_math.lib (Cortex-M7, Little endian, Single Precision Floating Point Unit)
  60:.\Include/arm_math.h ****    * - arm_cortexM7bfsp_math.lib (Cortex-M7, Big endian and Single Precision Floating Point Unit on
  61:.\Include/arm_math.h ****    * - arm_cortexM7l_math.lib (Cortex-M7, Little endian)
  62:.\Include/arm_math.h ****    * - arm_cortexM7b_math.lib (Cortex-M7, Big endian)
  63:.\Include/arm_math.h ****    * - arm_cortexM4lf_math.lib (Cortex-M4, Little endian, Floating Point Unit)
  64:.\Include/arm_math.h ****    * - arm_cortexM4bf_math.lib (Cortex-M4, Big endian, Floating Point Unit)
  65:.\Include/arm_math.h ****    * - arm_cortexM4l_math.lib (Cortex-M4, Little endian)
  66:.\Include/arm_math.h ****    * - arm_cortexM4b_math.lib (Cortex-M4, Big endian)
  67:.\Include/arm_math.h ****    * - arm_cortexM3l_math.lib (Cortex-M3, Little endian)
  68:.\Include/arm_math.h ****    * - arm_cortexM3b_math.lib (Cortex-M3, Big endian)
  69:.\Include/arm_math.h ****    * - arm_cortexM0l_math.lib (Cortex-M0 / Cortex-M0+, Little endian)
  70:.\Include/arm_math.h ****    * - arm_cortexM0b_math.lib (Cortex-M0 / Cortex-M0+, Big endian)
ARM GAS  C:\Users\fneves\AppData\Local\Temp\cc0ayw4Y.s 			page 19


  71:.\Include/arm_math.h ****    * - arm_ARMv8MBLl_math.lib (ARMv8M Baseline, Little endian)
  72:.\Include/arm_math.h ****    * - arm_ARMv8MMLl_math.lib (ARMv8M Mainline, Little endian)
  73:.\Include/arm_math.h ****    * - arm_ARMv8MMLlfsp_math.lib (ARMv8M Mainline, Little endian, Single Precision Floating Point U
  74:.\Include/arm_math.h ****    * - arm_ARMv8MMLld_math.lib (ARMv8M Mainline, Little endian, DSP instructions)
  75:.\Include/arm_math.h ****    * - arm_ARMv8MMLldfsp_math.lib (ARMv8M Mainline, Little endian, DSP instructions, Single Precisi
  76:.\Include/arm_math.h ****    *
  77:.\Include/arm_math.h ****    * The library functions are declared in the public file <code>arm_math.h</code> which is placed 
  78:.\Include/arm_math.h ****    * Simply include this file and link the appropriate library in the application and begin calling
  79:.\Include/arm_math.h ****    * public header file <code> arm_math.h</code> for Cortex-M cores with little endian and big endi
  80:.\Include/arm_math.h ****    * Define the appropriate pre processor MACRO ARM_MATH_CM7 or ARM_MATH_CM4 or  ARM_MATH_CM3 or
  81:.\Include/arm_math.h ****    * ARM_MATH_CM0 or ARM_MATH_CM0PLUS depending on the target processor in the application.
  82:.\Include/arm_math.h ****    * For ARMv8M cores define pre processor MACRO ARM_MATH_ARMV8MBL or ARM_MATH_ARMV8MML.
  83:.\Include/arm_math.h ****    * Set Pre processor MACRO __DSP_PRESENT if ARMv8M Mainline core supports DSP instructions.
  84:.\Include/arm_math.h ****    * 
  85:.\Include/arm_math.h ****    *
  86:.\Include/arm_math.h ****    * Examples
  87:.\Include/arm_math.h ****    * --------
  88:.\Include/arm_math.h ****    *
  89:.\Include/arm_math.h ****    * The library ships with a number of examples which demonstrate how to use the library functions
  90:.\Include/arm_math.h ****    *
  91:.\Include/arm_math.h ****    * Toolchain Support
  92:.\Include/arm_math.h ****    * ------------
  93:.\Include/arm_math.h ****    *
  94:.\Include/arm_math.h ****    * The library has been developed and tested with MDK-ARM version 5.14.0.0
  95:.\Include/arm_math.h ****    * The library is being tested in GCC and IAR toolchains and updates on this activity will be mad
  96:.\Include/arm_math.h ****    *
  97:.\Include/arm_math.h ****    * Building the Library
  98:.\Include/arm_math.h ****    * ------------
  99:.\Include/arm_math.h ****    *
 100:.\Include/arm_math.h ****    * The library installer contains a project file to re build libraries on MDK-ARM Tool chain in t
 101:.\Include/arm_math.h ****    * - arm_cortexM_math.uvprojx
 102:.\Include/arm_math.h ****    *
 103:.\Include/arm_math.h ****    *
 104:.\Include/arm_math.h ****    * The libraries can be built by opening the arm_cortexM_math.uvprojx project in MDK-ARM, selecti
 105:.\Include/arm_math.h ****    *
 106:.\Include/arm_math.h ****    * Pre-processor Macros
 107:.\Include/arm_math.h ****    * ------------
 108:.\Include/arm_math.h ****    *
 109:.\Include/arm_math.h ****    * Each library project have differant pre-processor macros.
 110:.\Include/arm_math.h ****    *
 111:.\Include/arm_math.h ****    * - UNALIGNED_SUPPORT_DISABLE:
 112:.\Include/arm_math.h ****    *
 113:.\Include/arm_math.h ****    * Define macro UNALIGNED_SUPPORT_DISABLE, If the silicon does not support unaligned memory acces
 114:.\Include/arm_math.h ****    *
 115:.\Include/arm_math.h ****    * - ARM_MATH_BIG_ENDIAN:
 116:.\Include/arm_math.h ****    *
 117:.\Include/arm_math.h ****    * Define macro ARM_MATH_BIG_ENDIAN to build the library for big endian targets. By default libra
 118:.\Include/arm_math.h ****    *
 119:.\Include/arm_math.h ****    * - ARM_MATH_MATRIX_CHECK:
 120:.\Include/arm_math.h ****    *
 121:.\Include/arm_math.h ****    * Define macro ARM_MATH_MATRIX_CHECK for checking on the input and output sizes of matrices
 122:.\Include/arm_math.h ****    *
 123:.\Include/arm_math.h ****    * - ARM_MATH_ROUNDING:
 124:.\Include/arm_math.h ****    *
 125:.\Include/arm_math.h ****    * Define macro ARM_MATH_ROUNDING for rounding on support functions
 126:.\Include/arm_math.h ****    *
 127:.\Include/arm_math.h ****    * - ARM_MATH_CMx:
ARM GAS  C:\Users\fneves\AppData\Local\Temp\cc0ayw4Y.s 			page 20


 128:.\Include/arm_math.h ****    *
 129:.\Include/arm_math.h ****    * Define macro ARM_MATH_CM4 for building the library on Cortex-M4 target, ARM_MATH_CM3 for build
 130:.\Include/arm_math.h ****    * and ARM_MATH_CM0 for building library on Cortex-M0 target, ARM_MATH_CM0PLUS for building libra
 131:.\Include/arm_math.h ****    * ARM_MATH_CM7 for building the library on cortex-M7.
 132:.\Include/arm_math.h ****    *
 133:.\Include/arm_math.h ****    * - ARM_MATH_ARMV8MxL:
 134:.\Include/arm_math.h ****    *
 135:.\Include/arm_math.h ****    * Define macro ARM_MATH_ARMV8MBL for building the library on ARMv8M Baseline target, ARM_MATH_AR
 136:.\Include/arm_math.h ****    * on ARMv8M Mainline target.
 137:.\Include/arm_math.h ****    *
 138:.\Include/arm_math.h ****    * - __FPU_PRESENT:
 139:.\Include/arm_math.h ****    *
 140:.\Include/arm_math.h ****    * Initialize macro __FPU_PRESENT = 1 when building on FPU supported Targets. Enable this macro f
 141:.\Include/arm_math.h ****    *
 142:.\Include/arm_math.h ****    * - __DSP_PRESENT:
 143:.\Include/arm_math.h ****    *
 144:.\Include/arm_math.h ****    * Initialize macro __DSP_PRESENT = 1 when ARMv8M Mainline core supports DSP instructions.
 145:.\Include/arm_math.h ****    *
 146:.\Include/arm_math.h ****    * <hr>
 147:.\Include/arm_math.h ****    * CMSIS-DSP in ARM::CMSIS Pack
 148:.\Include/arm_math.h ****    * -----------------------------
 149:.\Include/arm_math.h ****    *
 150:.\Include/arm_math.h ****    * The following files relevant to CMSIS-DSP are present in the <b>ARM::CMSIS</b> Pack directorie
 151:.\Include/arm_math.h ****    * |File/Folder                   |Content                                                       
 152:.\Include/arm_math.h ****    * |------------------------------|--------------------------------------------------------------
 153:.\Include/arm_math.h ****    * |\b CMSIS\\Documentation\\DSP  | This documentation                                           
 154:.\Include/arm_math.h ****    * |\b CMSIS\\DSP_Lib             | Software license agreement (license.txt)                     
 155:.\Include/arm_math.h ****    * |\b CMSIS\\DSP_Lib\\Examples   | Example projects demonstrating the usage of the library funct
 156:.\Include/arm_math.h ****    * |\b CMSIS\\DSP_Lib\\Source     | Source files for rebuilding the library                      
 157:.\Include/arm_math.h ****    *
 158:.\Include/arm_math.h ****    * <hr>
 159:.\Include/arm_math.h ****    * Revision History of CMSIS-DSP
 160:.\Include/arm_math.h ****    * ------------
 161:.\Include/arm_math.h ****    * Please refer to \ref ChangeLog_pg.
 162:.\Include/arm_math.h ****    *
 163:.\Include/arm_math.h ****    * Copyright Notice
 164:.\Include/arm_math.h ****    * ------------
 165:.\Include/arm_math.h ****    *
 166:.\Include/arm_math.h ****    * Copyright (C) 2010-2015 ARM Limited. All rights reserved.
 167:.\Include/arm_math.h ****    */
 168:.\Include/arm_math.h **** 
 169:.\Include/arm_math.h **** 
 170:.\Include/arm_math.h **** /**
 171:.\Include/arm_math.h ****  * @defgroup groupMath Basic Math Functions
 172:.\Include/arm_math.h ****  */
 173:.\Include/arm_math.h **** 
 174:.\Include/arm_math.h **** /**
 175:.\Include/arm_math.h ****  * @defgroup groupFastMath Fast Math Functions
 176:.\Include/arm_math.h ****  * This set of functions provides a fast approximation to sine, cosine, and square root.
 177:.\Include/arm_math.h ****  * As compared to most of the other functions in the CMSIS math library, the fast math functions
 178:.\Include/arm_math.h ****  * operate on individual values and not arrays.
 179:.\Include/arm_math.h ****  * There are separate functions for Q15, Q31, and floating-point data.
 180:.\Include/arm_math.h ****  *
 181:.\Include/arm_math.h ****  */
 182:.\Include/arm_math.h **** 
 183:.\Include/arm_math.h **** /**
 184:.\Include/arm_math.h ****  * @defgroup groupCmplxMath Complex Math Functions
ARM GAS  C:\Users\fneves\AppData\Local\Temp\cc0ayw4Y.s 			page 21


 185:.\Include/arm_math.h ****  * This set of functions operates on complex data vectors.
 186:.\Include/arm_math.h ****  * The data in the complex arrays is stored in an interleaved fashion
 187:.\Include/arm_math.h ****  * (real, imag, real, imag, ...).
 188:.\Include/arm_math.h ****  * In the API functions, the number of samples in a complex array refers
 189:.\Include/arm_math.h ****  * to the number of complex values; the array contains twice this number of
 190:.\Include/arm_math.h ****  * real values.
 191:.\Include/arm_math.h ****  */
 192:.\Include/arm_math.h **** 
 193:.\Include/arm_math.h **** /**
 194:.\Include/arm_math.h ****  * @defgroup groupFilters Filtering Functions
 195:.\Include/arm_math.h ****  */
 196:.\Include/arm_math.h **** 
 197:.\Include/arm_math.h **** /**
 198:.\Include/arm_math.h ****  * @defgroup groupMatrix Matrix Functions
 199:.\Include/arm_math.h ****  *
 200:.\Include/arm_math.h ****  * This set of functions provides basic matrix math operations.
 201:.\Include/arm_math.h ****  * The functions operate on matrix data structures.  For example,
 202:.\Include/arm_math.h ****  * the type
 203:.\Include/arm_math.h ****  * definition for the floating-point matrix structure is shown
 204:.\Include/arm_math.h ****  * below:
 205:.\Include/arm_math.h ****  * <pre>
 206:.\Include/arm_math.h ****  *     typedef struct
 207:.\Include/arm_math.h ****  *     {
 208:.\Include/arm_math.h ****  *       uint16_t numRows;     // number of rows of the matrix.
 209:.\Include/arm_math.h ****  *       uint16_t numCols;     // number of columns of the matrix.
 210:.\Include/arm_math.h ****  *       float32_t *pData;     // points to the data of the matrix.
 211:.\Include/arm_math.h ****  *     } arm_matrix_instance_f32;
 212:.\Include/arm_math.h ****  * </pre>
 213:.\Include/arm_math.h ****  * There are similar definitions for Q15 and Q31 data types.
 214:.\Include/arm_math.h ****  *
 215:.\Include/arm_math.h ****  * The structure specifies the size of the matrix and then points to
 216:.\Include/arm_math.h ****  * an array of data.  The array is of size <code>numRows X numCols</code>
 217:.\Include/arm_math.h ****  * and the values are arranged in row order.  That is, the
 218:.\Include/arm_math.h ****  * matrix element (i, j) is stored at:
 219:.\Include/arm_math.h ****  * <pre>
 220:.\Include/arm_math.h ****  *     pData[i*numCols + j]
 221:.\Include/arm_math.h ****  * </pre>
 222:.\Include/arm_math.h ****  *
 223:.\Include/arm_math.h ****  * \par Init Functions
 224:.\Include/arm_math.h ****  * There is an associated initialization function for each type of matrix
 225:.\Include/arm_math.h ****  * data structure.
 226:.\Include/arm_math.h ****  * The initialization function sets the values of the internal structure fields.
 227:.\Include/arm_math.h ****  * Refer to the function <code>arm_mat_init_f32()</code>, <code>arm_mat_init_q31()</code>
 228:.\Include/arm_math.h ****  * and <code>arm_mat_init_q15()</code> for floating-point, Q31 and Q15 types,  respectively.
 229:.\Include/arm_math.h ****  *
 230:.\Include/arm_math.h ****  * \par
 231:.\Include/arm_math.h ****  * Use of the initialization function is optional. However, if initialization function is used
 232:.\Include/arm_math.h ****  * then the instance structure cannot be placed into a const data section.
 233:.\Include/arm_math.h ****  * To place the instance structure in a const data
 234:.\Include/arm_math.h ****  * section, manually initialize the data structure.  For example:
 235:.\Include/arm_math.h ****  * <pre>
 236:.\Include/arm_math.h ****  * <code>arm_matrix_instance_f32 S = {nRows, nColumns, pData};</code>
 237:.\Include/arm_math.h ****  * <code>arm_matrix_instance_q31 S = {nRows, nColumns, pData};</code>
 238:.\Include/arm_math.h ****  * <code>arm_matrix_instance_q15 S = {nRows, nColumns, pData};</code>
 239:.\Include/arm_math.h ****  * </pre>
 240:.\Include/arm_math.h ****  * where <code>nRows</code> specifies the number of rows, <code>nColumns</code>
 241:.\Include/arm_math.h ****  * specifies the number of columns, and <code>pData</code> points to the
ARM GAS  C:\Users\fneves\AppData\Local\Temp\cc0ayw4Y.s 			page 22


 242:.\Include/arm_math.h ****  * data array.
 243:.\Include/arm_math.h ****  *
 244:.\Include/arm_math.h ****  * \par Size Checking
 245:.\Include/arm_math.h ****  * By default all of the matrix functions perform size checking on the input and
 246:.\Include/arm_math.h ****  * output matrices.  For example, the matrix addition function verifies that the
 247:.\Include/arm_math.h ****  * two input matrices and the output matrix all have the same number of rows and
 248:.\Include/arm_math.h ****  * columns.  If the size check fails the functions return:
 249:.\Include/arm_math.h ****  * <pre>
 250:.\Include/arm_math.h ****  *     ARM_MATH_SIZE_MISMATCH
 251:.\Include/arm_math.h ****  * </pre>
 252:.\Include/arm_math.h ****  * Otherwise the functions return
 253:.\Include/arm_math.h ****  * <pre>
 254:.\Include/arm_math.h ****  *     ARM_MATH_SUCCESS
 255:.\Include/arm_math.h ****  * </pre>
 256:.\Include/arm_math.h ****  * There is some overhead associated with this matrix size checking.
 257:.\Include/arm_math.h ****  * The matrix size checking is enabled via the \#define
 258:.\Include/arm_math.h ****  * <pre>
 259:.\Include/arm_math.h ****  *     ARM_MATH_MATRIX_CHECK
 260:.\Include/arm_math.h ****  * </pre>
 261:.\Include/arm_math.h ****  * within the library project settings.  By default this macro is defined
 262:.\Include/arm_math.h ****  * and size checking is enabled.  By changing the project settings and
 263:.\Include/arm_math.h ****  * undefining this macro size checking is eliminated and the functions
 264:.\Include/arm_math.h ****  * run a bit faster.  With size checking disabled the functions always
 265:.\Include/arm_math.h ****  * return <code>ARM_MATH_SUCCESS</code>.
 266:.\Include/arm_math.h ****  */
 267:.\Include/arm_math.h **** 
 268:.\Include/arm_math.h **** /**
 269:.\Include/arm_math.h ****  * @defgroup groupTransforms Transform Functions
 270:.\Include/arm_math.h ****  */
 271:.\Include/arm_math.h **** 
 272:.\Include/arm_math.h **** /**
 273:.\Include/arm_math.h ****  * @defgroup groupController Controller Functions
 274:.\Include/arm_math.h ****  */
 275:.\Include/arm_math.h **** 
 276:.\Include/arm_math.h **** /**
 277:.\Include/arm_math.h ****  * @defgroup groupStats Statistics Functions
 278:.\Include/arm_math.h ****  */
 279:.\Include/arm_math.h **** /**
 280:.\Include/arm_math.h ****  * @defgroup groupSupport Support Functions
 281:.\Include/arm_math.h ****  */
 282:.\Include/arm_math.h **** 
 283:.\Include/arm_math.h **** /**
 284:.\Include/arm_math.h ****  * @defgroup groupInterpolation Interpolation Functions
 285:.\Include/arm_math.h ****  * These functions perform 1- and 2-dimensional interpolation of data.
 286:.\Include/arm_math.h ****  * Linear interpolation is used for 1-dimensional data and
 287:.\Include/arm_math.h ****  * bilinear interpolation is used for 2-dimensional data.
 288:.\Include/arm_math.h ****  */
 289:.\Include/arm_math.h **** 
 290:.\Include/arm_math.h **** /**
 291:.\Include/arm_math.h ****  * @defgroup groupExamples Examples
 292:.\Include/arm_math.h ****  */
 293:.\Include/arm_math.h **** #ifndef _ARM_MATH_H
 294:.\Include/arm_math.h **** #define _ARM_MATH_H
 295:.\Include/arm_math.h **** 
 296:.\Include/arm_math.h **** /* ignore some GCC warnings */
 297:.\Include/arm_math.h **** #if defined ( __GNUC__ )
 298:.\Include/arm_math.h **** #pragma GCC diagnostic push
ARM GAS  C:\Users\fneves\AppData\Local\Temp\cc0ayw4Y.s 			page 23


 299:.\Include/arm_math.h **** #pragma GCC diagnostic ignored "-Wsign-conversion"
 300:.\Include/arm_math.h **** #pragma GCC diagnostic ignored "-Wconversion"
 301:.\Include/arm_math.h **** #pragma GCC diagnostic ignored "-Wunused-parameter"
 302:.\Include/arm_math.h **** #endif
 303:.\Include/arm_math.h **** 
 304:.\Include/arm_math.h **** #define __CMSIS_GENERIC         /* disable NVIC and Systick functions */
 305:.\Include/arm_math.h **** 
 306:.\Include/arm_math.h **** #if defined(ARM_MATH_CM7)
 307:.\Include/arm_math.h ****   #include "core_cm7.h"
 308:.\Include/arm_math.h ****   #define ARM_MATH_DSP
 309:.\Include/arm_math.h **** #elif defined (ARM_MATH_CM4)
 310:.\Include/arm_math.h ****   #include "core_cm4.h"
 311:.\Include/arm_math.h ****   #define ARM_MATH_DSP
 312:.\Include/arm_math.h **** #elif defined (ARM_MATH_CM3)
 313:.\Include/arm_math.h ****   #include "core_cm3.h"
 314:.\Include/arm_math.h **** #elif defined (ARM_MATH_CM0)
 315:.\Include/arm_math.h ****   #include "core_cm0.h"
 316:.\Include/arm_math.h ****   #define ARM_MATH_CM0_FAMILY
 317:.\Include/arm_math.h **** #elif defined (ARM_MATH_CM0PLUS)
 318:.\Include/arm_math.h ****   #include "core_cm0plus.h"
 319:.\Include/arm_math.h ****   #define ARM_MATH_CM0_FAMILY
 320:.\Include/arm_math.h **** #elif defined (ARM_MATH_ARMV8MBL)
 321:.\Include/arm_math.h ****   #include "core_armv8mbl.h"
 322:.\Include/arm_math.h ****   #define ARM_MATH_CM0_FAMILY
 323:.\Include/arm_math.h **** #elif defined (ARM_MATH_ARMV8MML)
 324:.\Include/arm_math.h ****   #include "core_armv8mml.h"
 325:.\Include/arm_math.h ****   #if (defined (__DSP_PRESENT) && (__DSP_PRESENT == 1))
 326:.\Include/arm_math.h ****     #define ARM_MATH_DSP
 327:.\Include/arm_math.h ****   #endif
 328:.\Include/arm_math.h **** #else
 329:.\Include/arm_math.h ****   #error "Define according the used Cortex core ARM_MATH_CM7, ARM_MATH_CM4, ARM_MATH_CM3, ARM_MATH_
 330:.\Include/arm_math.h **** #endif
 331:.\Include/arm_math.h **** 
 332:.\Include/arm_math.h **** #undef  __CMSIS_GENERIC         /* enable NVIC and Systick functions */
 333:.\Include/arm_math.h **** #include "string.h"
 334:.\Include/arm_math.h **** #include "math.h"
 335:.\Include/arm_math.h **** #ifdef   __cplusplus
 336:.\Include/arm_math.h **** extern "C"
 337:.\Include/arm_math.h **** {
 338:.\Include/arm_math.h **** #endif
 339:.\Include/arm_math.h **** 
 340:.\Include/arm_math.h **** 
 341:.\Include/arm_math.h ****   /**
 342:.\Include/arm_math.h ****    * @brief Macros required for reciprocal calculation in Normalized LMS
 343:.\Include/arm_math.h ****    */
 344:.\Include/arm_math.h **** 
 345:.\Include/arm_math.h **** #define DELTA_Q31          (0x100)
 346:.\Include/arm_math.h **** #define DELTA_Q15          0x5
 347:.\Include/arm_math.h **** #define INDEX_MASK         0x0000003F
 348:.\Include/arm_math.h **** #ifndef PI
 349:.\Include/arm_math.h ****   #define PI               3.14159265358979f
 350:.\Include/arm_math.h **** #endif
 351:.\Include/arm_math.h **** 
 352:.\Include/arm_math.h ****   /**
 353:.\Include/arm_math.h ****    * @brief Macros required for SINE and COSINE Fast math approximations
 354:.\Include/arm_math.h ****    */
 355:.\Include/arm_math.h **** 
ARM GAS  C:\Users\fneves\AppData\Local\Temp\cc0ayw4Y.s 			page 24


 356:.\Include/arm_math.h **** #define FAST_MATH_TABLE_SIZE  512
 357:.\Include/arm_math.h **** #define FAST_MATH_Q31_SHIFT   (32 - 10)
 358:.\Include/arm_math.h **** #define FAST_MATH_Q15_SHIFT   (16 - 10)
 359:.\Include/arm_math.h **** #define CONTROLLER_Q31_SHIFT  (32 - 9)
 360:.\Include/arm_math.h **** #define TABLE_SPACING_Q31     0x400000
 361:.\Include/arm_math.h **** #define TABLE_SPACING_Q15     0x80
 362:.\Include/arm_math.h **** 
 363:.\Include/arm_math.h ****   /**
 364:.\Include/arm_math.h ****    * @brief Macros required for SINE and COSINE Controller functions
 365:.\Include/arm_math.h ****    */
 366:.\Include/arm_math.h ****   /* 1.31(q31) Fixed value of 2/360 */
 367:.\Include/arm_math.h ****   /* -1 to +1 is divided into 360 values so total spacing is (2/360) */
 368:.\Include/arm_math.h **** #define INPUT_SPACING         0xB60B61
 369:.\Include/arm_math.h **** 
 370:.\Include/arm_math.h ****   /**
 371:.\Include/arm_math.h ****    * @brief Macro for Unaligned Support
 372:.\Include/arm_math.h ****    */
 373:.\Include/arm_math.h **** #ifndef UNALIGNED_SUPPORT_DISABLE
 374:.\Include/arm_math.h ****     #define ALIGN4
 375:.\Include/arm_math.h **** #else
 376:.\Include/arm_math.h ****   #if defined  (__GNUC__)
 377:.\Include/arm_math.h ****     #define ALIGN4 __attribute__((aligned(4)))
 378:.\Include/arm_math.h ****   #else
 379:.\Include/arm_math.h ****     #define ALIGN4 __align(4)
 380:.\Include/arm_math.h ****   #endif
 381:.\Include/arm_math.h **** #endif   /* #ifndef UNALIGNED_SUPPORT_DISABLE */
 382:.\Include/arm_math.h **** 
 383:.\Include/arm_math.h ****   /**
 384:.\Include/arm_math.h ****    * @brief Error status returned by some functions in the library.
 385:.\Include/arm_math.h ****    */
 386:.\Include/arm_math.h **** 
 387:.\Include/arm_math.h ****   typedef enum
 388:.\Include/arm_math.h ****   {
 389:.\Include/arm_math.h ****     ARM_MATH_SUCCESS = 0,                /**< No error */
 390:.\Include/arm_math.h ****     ARM_MATH_ARGUMENT_ERROR = -1,        /**< One or more arguments are incorrect */
 391:.\Include/arm_math.h ****     ARM_MATH_LENGTH_ERROR = -2,          /**< Length of data buffer is incorrect */
 392:.\Include/arm_math.h ****     ARM_MATH_SIZE_MISMATCH = -3,         /**< Size of matrices is not compatible with the operation
 393:.\Include/arm_math.h ****     ARM_MATH_NANINF = -4,                /**< Not-a-number (NaN) or infinity is generated */
 394:.\Include/arm_math.h ****     ARM_MATH_SINGULAR = -5,              /**< Generated by matrix inversion if the input matrix is 
 395:.\Include/arm_math.h ****     ARM_MATH_TEST_FAILURE = -6           /**< Test Failed  */
 396:.\Include/arm_math.h ****   } arm_status;
 397:.\Include/arm_math.h **** 
 398:.\Include/arm_math.h ****   /**
 399:.\Include/arm_math.h ****    * @brief 8-bit fractional data type in 1.7 format.
 400:.\Include/arm_math.h ****    */
 401:.\Include/arm_math.h ****   typedef int8_t q7_t;
 402:.\Include/arm_math.h **** 
 403:.\Include/arm_math.h ****   /**
 404:.\Include/arm_math.h ****    * @brief 16-bit fractional data type in 1.15 format.
 405:.\Include/arm_math.h ****    */
 406:.\Include/arm_math.h ****   typedef int16_t q15_t;
 407:.\Include/arm_math.h **** 
 408:.\Include/arm_math.h ****   /**
 409:.\Include/arm_math.h ****    * @brief 32-bit fractional data type in 1.31 format.
 410:.\Include/arm_math.h ****    */
 411:.\Include/arm_math.h ****   typedef int32_t q31_t;
 412:.\Include/arm_math.h **** 
ARM GAS  C:\Users\fneves\AppData\Local\Temp\cc0ayw4Y.s 			page 25


 413:.\Include/arm_math.h ****   /**
 414:.\Include/arm_math.h ****    * @brief 64-bit fractional data type in 1.63 format.
 415:.\Include/arm_math.h ****    */
 416:.\Include/arm_math.h ****   typedef int64_t q63_t;
 417:.\Include/arm_math.h **** 
 418:.\Include/arm_math.h ****   /**
 419:.\Include/arm_math.h ****    * @brief 32-bit floating-point type definition.
 420:.\Include/arm_math.h ****    */
 421:.\Include/arm_math.h ****   typedef float float32_t;
 422:.\Include/arm_math.h **** 
 423:.\Include/arm_math.h ****   /**
 424:.\Include/arm_math.h ****    * @brief 64-bit floating-point type definition.
 425:.\Include/arm_math.h ****    */
 426:.\Include/arm_math.h ****   typedef double float64_t;
 427:.\Include/arm_math.h **** 
 428:.\Include/arm_math.h ****   /**
 429:.\Include/arm_math.h ****    * @brief definition to read/write two 16 bit values.
 430:.\Include/arm_math.h ****    */
 431:.\Include/arm_math.h **** #if   defined ( __CC_ARM )
 432:.\Include/arm_math.h ****   #define __SIMD32_TYPE int32_t __packed
 433:.\Include/arm_math.h ****   #define CMSIS_UNUSED __attribute__((unused))
 434:.\Include/arm_math.h ****   #define CMSIS_INLINE __attribute__((always_inline))
 435:.\Include/arm_math.h **** 
 436:.\Include/arm_math.h **** #elif defined ( __ARMCC_VERSION ) && ( __ARMCC_VERSION >= 6010050 )
 437:.\Include/arm_math.h ****   #define __SIMD32_TYPE int32_t
 438:.\Include/arm_math.h ****   #define CMSIS_UNUSED __attribute__((unused))
 439:.\Include/arm_math.h ****   #define CMSIS_INLINE __attribute__((always_inline))
 440:.\Include/arm_math.h **** 
 441:.\Include/arm_math.h **** #elif defined ( __GNUC__ )
 442:.\Include/arm_math.h ****   #define __SIMD32_TYPE int32_t
 443:.\Include/arm_math.h ****   #define CMSIS_UNUSED __attribute__((unused))
 444:.\Include/arm_math.h ****   #define CMSIS_INLINE __attribute__((always_inline))
 445:.\Include/arm_math.h **** 
 446:.\Include/arm_math.h **** #elif defined ( __ICCARM__ )
 447:.\Include/arm_math.h ****   #define __SIMD32_TYPE int32_t __packed
 448:.\Include/arm_math.h ****   #define CMSIS_UNUSED
 449:.\Include/arm_math.h ****   #define CMSIS_INLINE
 450:.\Include/arm_math.h **** 
 451:.\Include/arm_math.h **** #elif defined ( __TI_ARM__ )
 452:.\Include/arm_math.h ****   #define __SIMD32_TYPE int32_t
 453:.\Include/arm_math.h ****   #define CMSIS_UNUSED __attribute__((unused))
 454:.\Include/arm_math.h ****   #define CMSIS_INLINE
 455:.\Include/arm_math.h **** 
 456:.\Include/arm_math.h **** #elif defined ( __CSMC__ )
 457:.\Include/arm_math.h ****   #define __SIMD32_TYPE int32_t
 458:.\Include/arm_math.h ****   #define CMSIS_UNUSED
 459:.\Include/arm_math.h ****   #define CMSIS_INLINE
 460:.\Include/arm_math.h **** 
 461:.\Include/arm_math.h **** #elif defined ( __TASKING__ )
 462:.\Include/arm_math.h ****   #define __SIMD32_TYPE __unaligned int32_t
 463:.\Include/arm_math.h ****   #define CMSIS_UNUSED
 464:.\Include/arm_math.h ****   #define CMSIS_INLINE
 465:.\Include/arm_math.h **** 
 466:.\Include/arm_math.h **** #else
 467:.\Include/arm_math.h ****   #error Unknown compiler
 468:.\Include/arm_math.h **** #endif
 469:.\Include/arm_math.h **** 
ARM GAS  C:\Users\fneves\AppData\Local\Temp\cc0ayw4Y.s 			page 26


 470:.\Include/arm_math.h **** #define __SIMD32(addr)        (*(__SIMD32_TYPE **) & (addr))
 471:.\Include/arm_math.h **** #define __SIMD32_CONST(addr)  ((__SIMD32_TYPE *)(addr))
 472:.\Include/arm_math.h **** #define _SIMD32_OFFSET(addr)  (*(__SIMD32_TYPE *)  (addr))
 473:.\Include/arm_math.h **** #define __SIMD64(addr)        (*(int64_t **) & (addr))
 474:.\Include/arm_math.h **** 
 475:.\Include/arm_math.h **** /* #if defined (ARM_MATH_CM3) || defined (ARM_MATH_CM0_FAMILY) */
 476:.\Include/arm_math.h **** #if !defined (ARM_MATH_DSP)
 477:.\Include/arm_math.h ****   /**
 478:.\Include/arm_math.h ****    * @brief definition to pack two 16 bit values.
 479:.\Include/arm_math.h ****    */
 480:.\Include/arm_math.h **** #define __PKHBT(ARG1, ARG2, ARG3) ( (((int32_t)(ARG1) <<    0) & (int32_t)0x0000FFFF) | \
 481:.\Include/arm_math.h ****                                     (((int32_t)(ARG2) << ARG3) & (int32_t)0xFFFF0000)  )
 482:.\Include/arm_math.h **** #define __PKHTB(ARG1, ARG2, ARG3) ( (((int32_t)(ARG1) <<    0) & (int32_t)0xFFFF0000) | \
 483:.\Include/arm_math.h ****                                     (((int32_t)(ARG2) >> ARG3) & (int32_t)0x0000FFFF)  )
 484:.\Include/arm_math.h **** 
 485:.\Include/arm_math.h **** /* #endif // defined (ARM_MATH_CM3) || defined (ARM_MATH_CM0_FAMILY) */
 486:.\Include/arm_math.h **** #endif /* !defined (ARM_MATH_DSP) */
 487:.\Include/arm_math.h **** 
 488:.\Include/arm_math.h ****    /**
 489:.\Include/arm_math.h ****    * @brief definition to pack four 8 bit values.
 490:.\Include/arm_math.h ****    */
 491:.\Include/arm_math.h **** #ifndef ARM_MATH_BIG_ENDIAN
 492:.\Include/arm_math.h **** 
 493:.\Include/arm_math.h **** #define __PACKq7(v0,v1,v2,v3) ( (((int32_t)(v0) <<  0) & (int32_t)0x000000FF) | \
 494:.\Include/arm_math.h ****                                 (((int32_t)(v1) <<  8) & (int32_t)0x0000FF00) | \
 495:.\Include/arm_math.h ****                                 (((int32_t)(v2) << 16) & (int32_t)0x00FF0000) | \
 496:.\Include/arm_math.h ****                                 (((int32_t)(v3) << 24) & (int32_t)0xFF000000)  )
 497:.\Include/arm_math.h **** #else
 498:.\Include/arm_math.h **** 
 499:.\Include/arm_math.h **** #define __PACKq7(v0,v1,v2,v3) ( (((int32_t)(v3) <<  0) & (int32_t)0x000000FF) | \
 500:.\Include/arm_math.h ****                                 (((int32_t)(v2) <<  8) & (int32_t)0x0000FF00) | \
 501:.\Include/arm_math.h ****                                 (((int32_t)(v1) << 16) & (int32_t)0x00FF0000) | \
 502:.\Include/arm_math.h ****                                 (((int32_t)(v0) << 24) & (int32_t)0xFF000000)  )
 503:.\Include/arm_math.h **** 
 504:.\Include/arm_math.h **** #endif
 505:.\Include/arm_math.h **** 
 506:.\Include/arm_math.h **** 
 507:.\Include/arm_math.h ****   /**
 508:.\Include/arm_math.h ****    * @brief Clips Q63 to Q31 values.
 509:.\Include/arm_math.h ****    */
 510:.\Include/arm_math.h ****   CMSIS_INLINE __STATIC_INLINE q31_t clip_q63_to_q31(
 511:.\Include/arm_math.h ****   q63_t x)
 512:.\Include/arm_math.h ****   {
 513:.\Include/arm_math.h ****     return ((q31_t) (x >> 32) != ((q31_t) x >> 31)) ?
 514:.\Include/arm_math.h ****       ((0x7FFFFFFF ^ ((q31_t) (x >> 63)))) : (q31_t) x;
 515:.\Include/arm_math.h ****   }
 516:.\Include/arm_math.h **** 
 517:.\Include/arm_math.h ****   /**
 518:.\Include/arm_math.h ****    * @brief Clips Q63 to Q15 values.
 519:.\Include/arm_math.h ****    */
 520:.\Include/arm_math.h ****   CMSIS_INLINE __STATIC_INLINE q15_t clip_q63_to_q15(
 521:.\Include/arm_math.h ****   q63_t x)
 522:.\Include/arm_math.h ****   {
 523:.\Include/arm_math.h ****     return ((q31_t) (x >> 32) != ((q31_t) x >> 31)) ?
 524:.\Include/arm_math.h ****       ((0x7FFF ^ ((q15_t) (x >> 63)))) : (q15_t) (x >> 15);
 525:.\Include/arm_math.h ****   }
 526:.\Include/arm_math.h **** 
ARM GAS  C:\Users\fneves\AppData\Local\Temp\cc0ayw4Y.s 			page 27


 527:.\Include/arm_math.h ****   /**
 528:.\Include/arm_math.h ****    * @brief Clips Q31 to Q7 values.
 529:.\Include/arm_math.h ****    */
 530:.\Include/arm_math.h ****   CMSIS_INLINE __STATIC_INLINE q7_t clip_q31_to_q7(
 531:.\Include/arm_math.h ****   q31_t x)
 532:.\Include/arm_math.h ****   {
 533:.\Include/arm_math.h ****     return ((q31_t) (x >> 24) != ((q31_t) x >> 23)) ?
 534:.\Include/arm_math.h ****       ((0x7F ^ ((q7_t) (x >> 31)))) : (q7_t) x;
 535:.\Include/arm_math.h ****   }
 536:.\Include/arm_math.h **** 
 537:.\Include/arm_math.h ****   /**
 538:.\Include/arm_math.h ****    * @brief Clips Q31 to Q15 values.
 539:.\Include/arm_math.h ****    */
 540:.\Include/arm_math.h ****   CMSIS_INLINE __STATIC_INLINE q15_t clip_q31_to_q15(
 541:.\Include/arm_math.h ****   q31_t x)
 542:.\Include/arm_math.h ****   {
 543:.\Include/arm_math.h ****     return ((q31_t) (x >> 16) != ((q31_t) x >> 15)) ?
 544:.\Include/arm_math.h ****       ((0x7FFF ^ ((q15_t) (x >> 31)))) : (q15_t) x;
 545:.\Include/arm_math.h ****   }
 546:.\Include/arm_math.h **** 
 547:.\Include/arm_math.h ****   /**
 548:.\Include/arm_math.h ****    * @brief Multiplies 32 X 64 and returns 32 bit result in 2.30 format.
 549:.\Include/arm_math.h ****    */
 550:.\Include/arm_math.h **** 
 551:.\Include/arm_math.h ****   CMSIS_INLINE __STATIC_INLINE q63_t mult32x64(
 552:.\Include/arm_math.h ****   q63_t x,
 553:.\Include/arm_math.h ****   q31_t y)
 554:.\Include/arm_math.h ****   {
 555:.\Include/arm_math.h ****     return ((((q63_t) (x & 0x00000000FFFFFFFF) * y) >> 32) +
 556:.\Include/arm_math.h ****             (((q63_t) (x >> 32) * y)));
 557:.\Include/arm_math.h ****   }
 558:.\Include/arm_math.h **** 
 559:.\Include/arm_math.h **** /*
 560:.\Include/arm_math.h ****   #if defined (ARM_MATH_CM0_FAMILY) && defined ( __CC_ARM   )
 561:.\Include/arm_math.h ****   #define __CLZ __clz
 562:.\Include/arm_math.h ****   #endif
 563:.\Include/arm_math.h ****  */
 564:.\Include/arm_math.h **** /* note: function can be removed when all toolchain support __CLZ for Cortex-M0 */
 565:.\Include/arm_math.h **** #if defined (ARM_MATH_CM0_FAMILY) && ((defined (__ICCARM__))  )
 566:.\Include/arm_math.h ****   CMSIS_INLINE __STATIC_INLINE uint32_t __CLZ(
 567:.\Include/arm_math.h ****   q31_t data);
 568:.\Include/arm_math.h **** 
 569:.\Include/arm_math.h ****   CMSIS_INLINE __STATIC_INLINE uint32_t __CLZ(
 570:.\Include/arm_math.h ****   q31_t data)
 571:.\Include/arm_math.h ****   {
 572:.\Include/arm_math.h ****     uint32_t count = 0;
 573:.\Include/arm_math.h ****     uint32_t mask = 0x80000000;
 574:.\Include/arm_math.h **** 
 575:.\Include/arm_math.h ****     while ((data & mask) == 0)
 576:.\Include/arm_math.h ****     {
 577:.\Include/arm_math.h ****       count += 1u;
 578:.\Include/arm_math.h ****       mask = mask >> 1u;
 579:.\Include/arm_math.h ****     }
 580:.\Include/arm_math.h **** 
 581:.\Include/arm_math.h ****     return (count);
 582:.\Include/arm_math.h ****   }
 583:.\Include/arm_math.h **** #endif
ARM GAS  C:\Users\fneves\AppData\Local\Temp\cc0ayw4Y.s 			page 28


 584:.\Include/arm_math.h **** 
 585:.\Include/arm_math.h ****   /**
 586:.\Include/arm_math.h ****    * @brief Function to Calculates 1/in (reciprocal) value of Q31 Data type.
 587:.\Include/arm_math.h ****    */
 588:.\Include/arm_math.h **** 
 589:.\Include/arm_math.h ****   CMSIS_INLINE __STATIC_INLINE uint32_t arm_recip_q31(
 590:.\Include/arm_math.h ****   q31_t in,
 591:.\Include/arm_math.h ****   q31_t * dst,
 592:.\Include/arm_math.h ****   q31_t * pRecipTable)
 593:.\Include/arm_math.h ****   {
 594:.\Include/arm_math.h ****     q31_t out;
 595:.\Include/arm_math.h ****     uint32_t tempVal;
 596:.\Include/arm_math.h ****     uint32_t index, i;
 597:.\Include/arm_math.h ****     uint32_t signBits;
 598:.\Include/arm_math.h **** 
 599:.\Include/arm_math.h ****     if (in > 0)
 600:.\Include/arm_math.h ****     {
 601:.\Include/arm_math.h ****       signBits = ((uint32_t) (__CLZ( in) - 1));
 602:.\Include/arm_math.h ****     }
 603:.\Include/arm_math.h ****     else
 604:.\Include/arm_math.h ****     {
 605:.\Include/arm_math.h ****       signBits = ((uint32_t) (__CLZ(-in) - 1));
 606:.\Include/arm_math.h ****     }
 607:.\Include/arm_math.h **** 
 608:.\Include/arm_math.h ****     /* Convert input sample to 1.31 format */
 609:.\Include/arm_math.h ****     in = (in << signBits);
 610:.\Include/arm_math.h **** 
 611:.\Include/arm_math.h ****     /* calculation of index for initial approximated Val */
 612:.\Include/arm_math.h ****     index = (uint32_t)(in >> 24);
 613:.\Include/arm_math.h ****     index = (index & INDEX_MASK);
 614:.\Include/arm_math.h **** 
 615:.\Include/arm_math.h ****     /* 1.31 with exp 1 */
 616:.\Include/arm_math.h ****     out = pRecipTable[index];
 617:.\Include/arm_math.h **** 
 618:.\Include/arm_math.h ****     /* calculation of reciprocal value */
 619:.\Include/arm_math.h ****     /* running approximation for two iterations */
 620:.\Include/arm_math.h ****     for (i = 0u; i < 2u; i++)
 621:.\Include/arm_math.h ****     {
 622:.\Include/arm_math.h ****       tempVal = (uint32_t) (((q63_t) in * out) >> 31);
 623:.\Include/arm_math.h ****       tempVal = 0x7FFFFFFFu - tempVal;
 624:.\Include/arm_math.h ****       /*      1.31 with exp 1 */
 625:.\Include/arm_math.h ****       /* out = (q31_t) (((q63_t) out * tempVal) >> 30); */
 626:.\Include/arm_math.h ****       out = clip_q63_to_q31(((q63_t) out * tempVal) >> 30);
 627:.\Include/arm_math.h ****     }
 628:.\Include/arm_math.h **** 
 629:.\Include/arm_math.h ****     /* write output */
 630:.\Include/arm_math.h ****     *dst = out;
 631:.\Include/arm_math.h **** 
 632:.\Include/arm_math.h ****     /* return num of signbits of out = 1/in value */
 633:.\Include/arm_math.h ****     return (signBits + 1u);
 634:.\Include/arm_math.h ****   }
 635:.\Include/arm_math.h **** 
 636:.\Include/arm_math.h **** 
 637:.\Include/arm_math.h ****   /**
 638:.\Include/arm_math.h ****    * @brief Function to Calculates 1/in (reciprocal) value of Q15 Data type.
 639:.\Include/arm_math.h ****    */
 640:.\Include/arm_math.h ****   CMSIS_INLINE __STATIC_INLINE uint32_t arm_recip_q15(
ARM GAS  C:\Users\fneves\AppData\Local\Temp\cc0ayw4Y.s 			page 29


 641:.\Include/arm_math.h ****   q15_t in,
 642:.\Include/arm_math.h ****   q15_t * dst,
 643:.\Include/arm_math.h ****   q15_t * pRecipTable)
 644:.\Include/arm_math.h ****   {
 645:.\Include/arm_math.h ****     q15_t out = 0;
 646:.\Include/arm_math.h ****     uint32_t tempVal = 0;
 647:.\Include/arm_math.h ****     uint32_t index = 0, i = 0;
 648:.\Include/arm_math.h ****     uint32_t signBits = 0;
 649:.\Include/arm_math.h **** 
 650:.\Include/arm_math.h ****     if (in > 0)
 651:.\Include/arm_math.h ****     {
 652:.\Include/arm_math.h ****       signBits = ((uint32_t)(__CLZ( in) - 17));
 653:.\Include/arm_math.h ****     }
 654:.\Include/arm_math.h ****     else
 655:.\Include/arm_math.h ****     {
 656:.\Include/arm_math.h ****       signBits = ((uint32_t)(__CLZ(-in) - 17));
 657:.\Include/arm_math.h ****     }
 658:.\Include/arm_math.h **** 
 659:.\Include/arm_math.h ****     /* Convert input sample to 1.15 format */
 660:.\Include/arm_math.h ****     in = (in << signBits);
 661:.\Include/arm_math.h **** 
 662:.\Include/arm_math.h ****     /* calculation of index for initial approximated Val */
 663:.\Include/arm_math.h ****     index = (uint32_t)(in >>  8);
 664:.\Include/arm_math.h ****     index = (index & INDEX_MASK);
 665:.\Include/arm_math.h **** 
 666:.\Include/arm_math.h ****     /*      1.15 with exp 1  */
 667:.\Include/arm_math.h ****     out = pRecipTable[index];
 668:.\Include/arm_math.h **** 
 669:.\Include/arm_math.h ****     /* calculation of reciprocal value */
 670:.\Include/arm_math.h ****     /* running approximation for two iterations */
 671:.\Include/arm_math.h ****     for (i = 0u; i < 2u; i++)
 672:.\Include/arm_math.h ****     {
 673:.\Include/arm_math.h ****       tempVal = (uint32_t) (((q31_t) in * out) >> 15);
 674:.\Include/arm_math.h ****       tempVal = 0x7FFFu - tempVal;
 675:.\Include/arm_math.h ****       /*      1.15 with exp 1 */
 676:.\Include/arm_math.h ****       out = (q15_t) (((q31_t) out * tempVal) >> 14);
 677:.\Include/arm_math.h ****       /* out = clip_q31_to_q15(((q31_t) out * tempVal) >> 14); */
 678:.\Include/arm_math.h ****     }
 679:.\Include/arm_math.h **** 
 680:.\Include/arm_math.h ****     /* write output */
 681:.\Include/arm_math.h ****     *dst = out;
 682:.\Include/arm_math.h **** 
 683:.\Include/arm_math.h ****     /* return num of signbits of out = 1/in value */
 684:.\Include/arm_math.h ****     return (signBits + 1);
 685:.\Include/arm_math.h ****   }
 686:.\Include/arm_math.h **** 
 687:.\Include/arm_math.h **** 
 688:.\Include/arm_math.h ****   /*
 689:.\Include/arm_math.h ****    * @brief C custom defined intrinisic function for only M0 processors
 690:.\Include/arm_math.h ****    */
 691:.\Include/arm_math.h **** #if defined(ARM_MATH_CM0_FAMILY)
 692:.\Include/arm_math.h ****   CMSIS_INLINE __STATIC_INLINE q31_t __SSAT(
 693:.\Include/arm_math.h ****   q31_t x,
 694:.\Include/arm_math.h ****   uint32_t y)
 695:.\Include/arm_math.h ****   {
 696:.\Include/arm_math.h ****     int32_t posMax, negMin;
 697:.\Include/arm_math.h ****     uint32_t i;
ARM GAS  C:\Users\fneves\AppData\Local\Temp\cc0ayw4Y.s 			page 30


 698:.\Include/arm_math.h **** 
 699:.\Include/arm_math.h ****     posMax = 1;
 293              		.loc 2 699 0 discriminator 1
 294 0142 0123     		mov	r3, #1
 295 0144 9822     		mov	r2, #152
 296 0146 9200     		lsl	r2, r2, #2
 297 0148 BA18     		add	r2, r7, r2
 298 014a 1360     		str	r3, [r2]
 700:.\Include/arm_math.h ****     for (i = 0; i < (y - 1); i++)
 299              		.loc 2 700 0 discriminator 1
 300 014c 0023     		mov	r3, #0
 301 014e 9722     		mov	r2, #151
 302 0150 9200     		lsl	r2, r2, #2
 303 0152 BA18     		add	r2, r7, r2
 304 0154 1360     		str	r3, [r2]
 305 0156 11E0     		b	.L6
 306              	.L7:
 701:.\Include/arm_math.h ****     {
 702:.\Include/arm_math.h ****       posMax = posMax * 2;
 307              		.loc 2 702 0
 308 0158 9823     		mov	r3, #152
 309 015a 9B00     		lsl	r3, r3, #2
 310 015c FB18     		add	r3, r7, r3
 311 015e 1B68     		ldr	r3, [r3]
 312 0160 5B00     		lsl	r3, r3, #1
 313 0162 9822     		mov	r2, #152
 314 0164 9200     		lsl	r2, r2, #2
 315 0166 BA18     		add	r2, r7, r2
 316 0168 1360     		str	r3, [r2]
 700:.\Include/arm_math.h ****     for (i = 0; i < (y - 1); i++)
 317              		.loc 2 700 0
 318 016a 9723     		mov	r3, #151
 319 016c 9B00     		lsl	r3, r3, #2
 320 016e FB18     		add	r3, r7, r3
 321 0170 1B68     		ldr	r3, [r3]
 322 0172 0133     		add	r3, r3, #1
 323 0174 9722     		mov	r2, #151
 324 0176 9200     		lsl	r2, r2, #2
 325 0178 BA18     		add	r2, r7, r2
 326 017a 1360     		str	r3, [r2]
 327              	.L6:
 328 017c 9923     		mov	r3, #153
 329 017e 9B00     		lsl	r3, r3, #2
 330 0180 FB18     		add	r3, r7, r3
 331 0182 1B68     		ldr	r3, [r3]
 332 0184 013B     		sub	r3, r3, #1
 333 0186 9722     		mov	r2, #151
 334 0188 9200     		lsl	r2, r2, #2
 335 018a BA18     		add	r2, r7, r2
 336 018c 1268     		ldr	r2, [r2]
 337 018e 9A42     		cmp	r2, r3
 338 0190 E2D3     		bcc	.L7
 703:.\Include/arm_math.h ****     }
 704:.\Include/arm_math.h **** 
 705:.\Include/arm_math.h ****     if (x > 0)
 339              		.loc 2 705 0
 340 0192 9A23     		mov	r3, #154
ARM GAS  C:\Users\fneves\AppData\Local\Temp\cc0ayw4Y.s 			page 31


 341 0194 9B00     		lsl	r3, r3, #2
 342 0196 FB18     		add	r3, r7, r3
 343 0198 1B68     		ldr	r3, [r3]
 344 019a 002B     		cmp	r3, #0
 345 019c 1BDD     		ble	.L8
 706:.\Include/arm_math.h ****     {
 707:.\Include/arm_math.h ****       posMax = (posMax - 1);
 346              		.loc 2 707 0
 347 019e 9823     		mov	r3, #152
 348 01a0 9B00     		lsl	r3, r3, #2
 349 01a2 FB18     		add	r3, r7, r3
 350 01a4 1B68     		ldr	r3, [r3]
 351 01a6 013B     		sub	r3, r3, #1
 352 01a8 9822     		mov	r2, #152
 353 01aa 9200     		lsl	r2, r2, #2
 354 01ac BA18     		add	r2, r7, r2
 355 01ae 1360     		str	r3, [r2]
 708:.\Include/arm_math.h **** 
 709:.\Include/arm_math.h ****       if (x > posMax)
 356              		.loc 2 709 0
 357 01b0 9A23     		mov	r3, #154
 358 01b2 9B00     		lsl	r3, r3, #2
 359 01b4 FB18     		add	r3, r7, r3
 360 01b6 1A68     		ldr	r2, [r3]
 361 01b8 9823     		mov	r3, #152
 362 01ba 9B00     		lsl	r3, r3, #2
 363 01bc FB18     		add	r3, r7, r3
 364 01be 1B68     		ldr	r3, [r3]
 365 01c0 9A42     		cmp	r2, r3
 366 01c2 24DD     		ble	.L195
 710:.\Include/arm_math.h ****       {
 711:.\Include/arm_math.h ****         x = posMax;
 367              		.loc 2 711 0
 368 01c4 9823     		mov	r3, #152
 369 01c6 9B00     		lsl	r3, r3, #2
 370 01c8 FB18     		add	r3, r7, r3
 371 01ca 1B68     		ldr	r3, [r3]
 372 01cc 9A22     		mov	r2, #154
 373 01ce 9200     		lsl	r2, r2, #2
 374 01d0 BA18     		add	r2, r7, r2
 375 01d2 1360     		str	r3, [r2]
 376 01d4 1CE0     		b	.L10
 377              	.L8:
 712:.\Include/arm_math.h ****       }
 713:.\Include/arm_math.h ****     }
 714:.\Include/arm_math.h ****     else
 715:.\Include/arm_math.h ****     {
 716:.\Include/arm_math.h ****       negMin = -posMax;
 378              		.loc 2 716 0
 379 01d6 9823     		mov	r3, #152
 380 01d8 9B00     		lsl	r3, r3, #2
 381 01da FB18     		add	r3, r7, r3
 382 01dc 1B68     		ldr	r3, [r3]
 383 01de 5B42     		neg	r3, r3
 384 01e0 9622     		mov	r2, #150
 385 01e2 9200     		lsl	r2, r2, #2
 386 01e4 BA18     		add	r2, r7, r2
ARM GAS  C:\Users\fneves\AppData\Local\Temp\cc0ayw4Y.s 			page 32


 387 01e6 1360     		str	r3, [r2]
 717:.\Include/arm_math.h **** 
 718:.\Include/arm_math.h ****       if (x < negMin)
 388              		.loc 2 718 0
 389 01e8 9A23     		mov	r3, #154
 390 01ea 9B00     		lsl	r3, r3, #2
 391 01ec FB18     		add	r3, r7, r3
 392 01ee 1A68     		ldr	r2, [r3]
 393 01f0 9623     		mov	r3, #150
 394 01f2 9B00     		lsl	r3, r3, #2
 395 01f4 FB18     		add	r3, r7, r3
 396 01f6 1B68     		ldr	r3, [r3]
 397 01f8 9A42     		cmp	r2, r3
 398 01fa 09DA     		bge	.L10
 719:.\Include/arm_math.h ****       {
 720:.\Include/arm_math.h ****         x = negMin;
 399              		.loc 2 720 0
 400 01fc 9623     		mov	r3, #150
 401 01fe 9B00     		lsl	r3, r3, #2
 402 0200 FB18     		add	r3, r7, r3
 403 0202 1B68     		ldr	r3, [r3]
 404 0204 9A22     		mov	r2, #154
 405 0206 9200     		lsl	r2, r2, #2
 406 0208 BA18     		add	r2, r7, r2
 407 020a 1360     		str	r3, [r2]
 408 020c 00E0     		b	.L10
 409              	.L195:
 711:.\Include/arm_math.h ****       }
 410              		.loc 2 711 0
 411 020e C046     		mov	r8, r8
 412              	.L10:
 721:.\Include/arm_math.h ****       }
 722:.\Include/arm_math.h ****     }
 723:.\Include/arm_math.h ****     return (x);
 413              		.loc 2 723 0
 414 0210 9A23     		mov	r3, #154
 415 0212 9B00     		lsl	r3, r3, #2
 416 0214 FB18     		add	r3, r7, r3
 417 0216 1A68     		ldr	r2, [r3]
 418              	.LBE123:
 419              	.LBE122:
 420              		.loc 1 664 0
 421 0218 544B     		ldr	r3, .L225+12
 422 021a FB18     		add	r3, r7, r3
 423 021c 1A80     		strh	r2, [r3]
 665:Source\TransformFunctions/arm_cfft_radix4_q15.c ****     /* R1 = (xa + xc) */
 666:Source\TransformFunctions/arm_cfft_radix4_q15.c ****     R1 = __SSAT(T1 + S1, 16u);
 424              		.loc 1 666 0
 425 021e A223     		mov	r3, #162
 426 0220 9B00     		lsl	r3, r3, #2
 427 0222 FB18     		add	r3, r7, r3
 428 0224 0022     		mov	r2, #0
 429 0226 9A5E     		ldrsh	r2, [r3, r2]
 430 0228 A123     		mov	r3, #161
 431 022a 9B00     		lsl	r3, r3, #2
 432 022c FB18     		add	r3, r7, r3
 433 022e 0021     		mov	r1, #0
ARM GAS  C:\Users\fneves\AppData\Local\Temp\cc0ayw4Y.s 			page 33


 434 0230 5B5E     		ldrsh	r3, [r3, r1]
 435 0232 D318     		add	r3, r2, r3
 436 0234 9522     		mov	r2, #149
 437 0236 9200     		lsl	r2, r2, #2
 438 0238 BA18     		add	r2, r7, r2
 439 023a 1360     		str	r3, [r2]
 440 023c 1023     		mov	r3, #16
 441 023e 9422     		mov	r2, #148
 442 0240 9200     		lsl	r2, r2, #2
 443 0242 BA18     		add	r2, r7, r2
 444 0244 1360     		str	r3, [r2]
 445              	.LBB124:
 446              	.LBB125:
 699:.\Include/arm_math.h ****     for (i = 0; i < (y - 1); i++)
 447              		.loc 2 699 0
 448 0246 0123     		mov	r3, #1
 449 0248 9322     		mov	r2, #147
 450 024a 9200     		lsl	r2, r2, #2
 451 024c BA18     		add	r2, r7, r2
 452 024e 1360     		str	r3, [r2]
 700:.\Include/arm_math.h ****     {
 453              		.loc 2 700 0
 454 0250 0023     		mov	r3, #0
 455 0252 9222     		mov	r2, #146
 456 0254 9200     		lsl	r2, r2, #2
 457 0256 BA18     		add	r2, r7, r2
 458 0258 1360     		str	r3, [r2]
 459 025a 11E0     		b	.L12
 460              	.L13:
 702:.\Include/arm_math.h ****     }
 461              		.loc 2 702 0
 462 025c 9323     		mov	r3, #147
 463 025e 9B00     		lsl	r3, r3, #2
 464 0260 FB18     		add	r3, r7, r3
 465 0262 1B68     		ldr	r3, [r3]
 466 0264 5B00     		lsl	r3, r3, #1
 467 0266 9322     		mov	r2, #147
 468 0268 9200     		lsl	r2, r2, #2
 469 026a BA18     		add	r2, r7, r2
 470 026c 1360     		str	r3, [r2]
 700:.\Include/arm_math.h ****     {
 471              		.loc 2 700 0
 472 026e 9223     		mov	r3, #146
 473 0270 9B00     		lsl	r3, r3, #2
 474 0272 FB18     		add	r3, r7, r3
 475 0274 1B68     		ldr	r3, [r3]
 476 0276 0133     		add	r3, r3, #1
 477 0278 9222     		mov	r2, #146
 478 027a 9200     		lsl	r2, r2, #2
 479 027c BA18     		add	r2, r7, r2
 480 027e 1360     		str	r3, [r2]
 481              	.L12:
 482 0280 9423     		mov	r3, #148
 483 0282 9B00     		lsl	r3, r3, #2
 484 0284 FB18     		add	r3, r7, r3
 485 0286 1B68     		ldr	r3, [r3]
 486 0288 013B     		sub	r3, r3, #1
ARM GAS  C:\Users\fneves\AppData\Local\Temp\cc0ayw4Y.s 			page 34


 487 028a 9222     		mov	r2, #146
 488 028c 9200     		lsl	r2, r2, #2
 489 028e BA18     		add	r2, r7, r2
 490 0290 1268     		ldr	r2, [r2]
 491 0292 9A42     		cmp	r2, r3
 492 0294 E2D3     		bcc	.L13
 705:.\Include/arm_math.h ****     {
 493              		.loc 2 705 0
 494 0296 9523     		mov	r3, #149
 495 0298 9B00     		lsl	r3, r3, #2
 496 029a FB18     		add	r3, r7, r3
 497 029c 1B68     		ldr	r3, [r3]
 498 029e 002B     		cmp	r3, #0
 499 02a0 1BDD     		ble	.L14
 707:.\Include/arm_math.h **** 
 500              		.loc 2 707 0
 501 02a2 9323     		mov	r3, #147
 502 02a4 9B00     		lsl	r3, r3, #2
 503 02a6 FB18     		add	r3, r7, r3
 504 02a8 1B68     		ldr	r3, [r3]
 505 02aa 013B     		sub	r3, r3, #1
 506 02ac 9322     		mov	r2, #147
 507 02ae 9200     		lsl	r2, r2, #2
 508 02b0 BA18     		add	r2, r7, r2
 509 02b2 1360     		str	r3, [r2]
 709:.\Include/arm_math.h ****       {
 510              		.loc 2 709 0
 511 02b4 9523     		mov	r3, #149
 512 02b6 9B00     		lsl	r3, r3, #2
 513 02b8 FB18     		add	r3, r7, r3
 514 02ba 1A68     		ldr	r2, [r3]
 515 02bc 9323     		mov	r3, #147
 516 02be 9B00     		lsl	r3, r3, #2
 517 02c0 FB18     		add	r3, r7, r3
 518 02c2 1B68     		ldr	r3, [r3]
 519 02c4 9A42     		cmp	r2, r3
 520 02c6 24DD     		ble	.L196
 711:.\Include/arm_math.h ****       }
 521              		.loc 2 711 0
 522 02c8 9323     		mov	r3, #147
 523 02ca 9B00     		lsl	r3, r3, #2
 524 02cc FB18     		add	r3, r7, r3
 525 02ce 1B68     		ldr	r3, [r3]
 526 02d0 9522     		mov	r2, #149
 527 02d2 9200     		lsl	r2, r2, #2
 528 02d4 BA18     		add	r2, r7, r2
 529 02d6 1360     		str	r3, [r2]
 530 02d8 1CE0     		b	.L16
 531              	.L14:
 716:.\Include/arm_math.h **** 
 532              		.loc 2 716 0
 533 02da 9323     		mov	r3, #147
 534 02dc 9B00     		lsl	r3, r3, #2
 535 02de FB18     		add	r3, r7, r3
 536 02e0 1B68     		ldr	r3, [r3]
 537 02e2 5B42     		neg	r3, r3
 538 02e4 9122     		mov	r2, #145
ARM GAS  C:\Users\fneves\AppData\Local\Temp\cc0ayw4Y.s 			page 35


 539 02e6 9200     		lsl	r2, r2, #2
 540 02e8 BA18     		add	r2, r7, r2
 541 02ea 1360     		str	r3, [r2]
 718:.\Include/arm_math.h ****       {
 542              		.loc 2 718 0
 543 02ec 9523     		mov	r3, #149
 544 02ee 9B00     		lsl	r3, r3, #2
 545 02f0 FB18     		add	r3, r7, r3
 546 02f2 1A68     		ldr	r2, [r3]
 547 02f4 9123     		mov	r3, #145
 548 02f6 9B00     		lsl	r3, r3, #2
 549 02f8 FB18     		add	r3, r7, r3
 550 02fa 1B68     		ldr	r3, [r3]
 551 02fc 9A42     		cmp	r2, r3
 552 02fe 09DA     		bge	.L16
 720:.\Include/arm_math.h ****       }
 553              		.loc 2 720 0
 554 0300 9123     		mov	r3, #145
 555 0302 9B00     		lsl	r3, r3, #2
 556 0304 FB18     		add	r3, r7, r3
 557 0306 1B68     		ldr	r3, [r3]
 558 0308 9522     		mov	r2, #149
 559 030a 9200     		lsl	r2, r2, #2
 560 030c BA18     		add	r2, r7, r2
 561 030e 1360     		str	r3, [r2]
 562 0310 00E0     		b	.L16
 563              	.L196:
 711:.\Include/arm_math.h ****       }
 564              		.loc 2 711 0
 565 0312 C046     		mov	r8, r8
 566              	.L16:
 567              		.loc 2 723 0
 568 0314 9523     		mov	r3, #149
 569 0316 9B00     		lsl	r3, r3, #2
 570 0318 FB18     		add	r3, r7, r3
 571 031a 1A68     		ldr	r2, [r3]
 572              	.LBE125:
 573              	.LBE124:
 574              		.loc 1 666 0
 575 031c A023     		mov	r3, #160
 576 031e 9B00     		lsl	r3, r3, #2
 577 0320 FB18     		add	r3, r7, r3
 578 0322 1A80     		strh	r2, [r3]
 667:Source\TransformFunctions/arm_cfft_radix4_q15.c **** 
 668:Source\TransformFunctions/arm_cfft_radix4_q15.c ****     /* S0 = (ya - yc) */
 669:Source\TransformFunctions/arm_cfft_radix4_q15.c ****     S0 = __SSAT(T0 - S0, 16);
 579              		.loc 1 669 0
 580 0324 0F4B     		ldr	r3, .L225+4
 581 0326 FB18     		add	r3, r7, r3
 582 0328 0022     		mov	r2, #0
 583 032a 9A5E     		ldrsh	r2, [r3, r2]
 584 032c 0E4B     		ldr	r3, .L225+8
 585 032e FB18     		add	r3, r7, r3
 586 0330 0021     		mov	r1, #0
 587 0332 5B5E     		ldrsh	r3, [r3, r1]
 588 0334 D31A     		sub	r3, r2, r3
 589 0336 9022     		mov	r2, #144
ARM GAS  C:\Users\fneves\AppData\Local\Temp\cc0ayw4Y.s 			page 36


 590 0338 9200     		lsl	r2, r2, #2
 591 033a BA18     		add	r2, r7, r2
 592 033c 1360     		str	r3, [r2]
 593 033e 1023     		mov	r3, #16
 594 0340 8F22     		mov	r2, #143
 595 0342 9200     		lsl	r2, r2, #2
 596 0344 BA18     		add	r2, r7, r2
 597 0346 1360     		str	r3, [r2]
 598              	.LBB126:
 599              	.LBB127:
 699:.\Include/arm_math.h ****     for (i = 0; i < (y - 1); i++)
 600              		.loc 2 699 0
 601 0348 0123     		mov	r3, #1
 602 034a 8E22     		mov	r2, #142
 603 034c 9200     		lsl	r2, r2, #2
 604 034e BA18     		add	r2, r7, r2
 605 0350 1360     		str	r3, [r2]
 700:.\Include/arm_math.h ****     {
 606              		.loc 2 700 0
 607 0352 0023     		mov	r3, #0
 608 0354 8D22     		mov	r2, #141
 609 0356 9200     		lsl	r2, r2, #2
 610 0358 BA18     		add	r2, r7, r2
 611 035a 1360     		str	r3, [r2]
 612 035c 1AE0     		b	.L18
 613              	.L226:
 614 035e C046     		.align	2
 615              	.L225:
 616 0360 50FDFFFF 		.word	-688
 617 0364 8A020000 		.word	650
 618 0368 86020000 		.word	646
 619 036c 82020000 		.word	642
 620              	.L19:
 702:.\Include/arm_math.h ****     }
 621              		.loc 2 702 0
 622 0370 8E23     		mov	r3, #142
 623 0372 9B00     		lsl	r3, r3, #2
 624 0374 FB18     		add	r3, r7, r3
 625 0376 1B68     		ldr	r3, [r3]
 626 0378 5B00     		lsl	r3, r3, #1
 627 037a 8E22     		mov	r2, #142
 628 037c 9200     		lsl	r2, r2, #2
 629 037e BA18     		add	r2, r7, r2
 630 0380 1360     		str	r3, [r2]
 700:.\Include/arm_math.h ****     {
 631              		.loc 2 700 0
 632 0382 8D23     		mov	r3, #141
 633 0384 9B00     		lsl	r3, r3, #2
 634 0386 FB18     		add	r3, r7, r3
 635 0388 1B68     		ldr	r3, [r3]
 636 038a 0133     		add	r3, r3, #1
 637 038c 8D22     		mov	r2, #141
 638 038e 9200     		lsl	r2, r2, #2
 639 0390 BA18     		add	r2, r7, r2
 640 0392 1360     		str	r3, [r2]
 641              	.L18:
 642 0394 8F23     		mov	r3, #143
ARM GAS  C:\Users\fneves\AppData\Local\Temp\cc0ayw4Y.s 			page 37


 643 0396 9B00     		lsl	r3, r3, #2
 644 0398 FB18     		add	r3, r7, r3
 645 039a 1B68     		ldr	r3, [r3]
 646 039c 013B     		sub	r3, r3, #1
 647 039e 8D22     		mov	r2, #141
 648 03a0 9200     		lsl	r2, r2, #2
 649 03a2 BA18     		add	r2, r7, r2
 650 03a4 1268     		ldr	r2, [r2]
 651 03a6 9A42     		cmp	r2, r3
 652 03a8 E2D3     		bcc	.L19
 705:.\Include/arm_math.h ****     {
 653              		.loc 2 705 0
 654 03aa 9023     		mov	r3, #144
 655 03ac 9B00     		lsl	r3, r3, #2
 656 03ae FB18     		add	r3, r7, r3
 657 03b0 1B68     		ldr	r3, [r3]
 658 03b2 002B     		cmp	r3, #0
 659 03b4 1BDD     		ble	.L20
 707:.\Include/arm_math.h **** 
 660              		.loc 2 707 0
 661 03b6 8E23     		mov	r3, #142
 662 03b8 9B00     		lsl	r3, r3, #2
 663 03ba FB18     		add	r3, r7, r3
 664 03bc 1B68     		ldr	r3, [r3]
 665 03be 013B     		sub	r3, r3, #1
 666 03c0 8E22     		mov	r2, #142
 667 03c2 9200     		lsl	r2, r2, #2
 668 03c4 BA18     		add	r2, r7, r2
 669 03c6 1360     		str	r3, [r2]
 709:.\Include/arm_math.h ****       {
 670              		.loc 2 709 0
 671 03c8 9023     		mov	r3, #144
 672 03ca 9B00     		lsl	r3, r3, #2
 673 03cc FB18     		add	r3, r7, r3
 674 03ce 1A68     		ldr	r2, [r3]
 675 03d0 8E23     		mov	r3, #142
 676 03d2 9B00     		lsl	r3, r3, #2
 677 03d4 FB18     		add	r3, r7, r3
 678 03d6 1B68     		ldr	r3, [r3]
 679 03d8 9A42     		cmp	r2, r3
 680 03da 24DD     		ble	.L197
 711:.\Include/arm_math.h ****       }
 681              		.loc 2 711 0
 682 03dc 8E23     		mov	r3, #142
 683 03de 9B00     		lsl	r3, r3, #2
 684 03e0 FB18     		add	r3, r7, r3
 685 03e2 1B68     		ldr	r3, [r3]
 686 03e4 9022     		mov	r2, #144
 687 03e6 9200     		lsl	r2, r2, #2
 688 03e8 BA18     		add	r2, r7, r2
 689 03ea 1360     		str	r3, [r2]
 690 03ec 1CE0     		b	.L22
 691              	.L20:
 716:.\Include/arm_math.h **** 
 692              		.loc 2 716 0
 693 03ee 8E23     		mov	r3, #142
 694 03f0 9B00     		lsl	r3, r3, #2
ARM GAS  C:\Users\fneves\AppData\Local\Temp\cc0ayw4Y.s 			page 38


 695 03f2 FB18     		add	r3, r7, r3
 696 03f4 1B68     		ldr	r3, [r3]
 697 03f6 5B42     		neg	r3, r3
 698 03f8 8C22     		mov	r2, #140
 699 03fa 9200     		lsl	r2, r2, #2
 700 03fc BA18     		add	r2, r7, r2
 701 03fe 1360     		str	r3, [r2]
 718:.\Include/arm_math.h ****       {
 702              		.loc 2 718 0
 703 0400 9023     		mov	r3, #144
 704 0402 9B00     		lsl	r3, r3, #2
 705 0404 FB18     		add	r3, r7, r3
 706 0406 1A68     		ldr	r2, [r3]
 707 0408 8C23     		mov	r3, #140
 708 040a 9B00     		lsl	r3, r3, #2
 709 040c FB18     		add	r3, r7, r3
 710 040e 1B68     		ldr	r3, [r3]
 711 0410 9A42     		cmp	r2, r3
 712 0412 09DA     		bge	.L22
 720:.\Include/arm_math.h ****       }
 713              		.loc 2 720 0
 714 0414 8C23     		mov	r3, #140
 715 0416 9B00     		lsl	r3, r3, #2
 716 0418 FB18     		add	r3, r7, r3
 717 041a 1B68     		ldr	r3, [r3]
 718 041c 9022     		mov	r2, #144
 719 041e 9200     		lsl	r2, r2, #2
 720 0420 BA18     		add	r2, r7, r2
 721 0422 1360     		str	r3, [r2]
 722 0424 00E0     		b	.L22
 723              	.L197:
 711:.\Include/arm_math.h ****       }
 724              		.loc 2 711 0
 725 0426 C046     		mov	r8, r8
 726              	.L22:
 727              		.loc 2 723 0
 728 0428 9023     		mov	r3, #144
 729 042a 9B00     		lsl	r3, r3, #2
 730 042c FB18     		add	r3, r7, r3
 731 042e 1A68     		ldr	r2, [r3]
 732              	.LBE127:
 733              	.LBE126:
 734              		.loc 1 669 0
 735 0430 DB4B     		ldr	r3, .L227
 736 0432 FB18     		add	r3, r7, r3
 737 0434 1A80     		strh	r2, [r3]
 670:Source\TransformFunctions/arm_cfft_radix4_q15.c ****     /* S1 = (xa - xc) */
 671:Source\TransformFunctions/arm_cfft_radix4_q15.c ****     S1 = __SSAT(T1 - S1, 16);
 738              		.loc 1 671 0
 739 0436 A223     		mov	r3, #162
 740 0438 9B00     		lsl	r3, r3, #2
 741 043a FB18     		add	r3, r7, r3
 742 043c 0022     		mov	r2, #0
 743 043e 9A5E     		ldrsh	r2, [r3, r2]
 744 0440 A123     		mov	r3, #161
 745 0442 9B00     		lsl	r3, r3, #2
 746 0444 FB18     		add	r3, r7, r3
ARM GAS  C:\Users\fneves\AppData\Local\Temp\cc0ayw4Y.s 			page 39


 747 0446 0021     		mov	r1, #0
 748 0448 5B5E     		ldrsh	r3, [r3, r1]
 749 044a D31A     		sub	r3, r2, r3
 750 044c 8B22     		mov	r2, #139
 751 044e 9200     		lsl	r2, r2, #2
 752 0450 BA18     		add	r2, r7, r2
 753 0452 1360     		str	r3, [r2]
 754 0454 1023     		mov	r3, #16
 755 0456 8A22     		mov	r2, #138
 756 0458 9200     		lsl	r2, r2, #2
 757 045a BA18     		add	r2, r7, r2
 758 045c 1360     		str	r3, [r2]
 759              	.LBB128:
 760              	.LBB129:
 699:.\Include/arm_math.h ****     for (i = 0; i < (y - 1); i++)
 761              		.loc 2 699 0
 762 045e 0123     		mov	r3, #1
 763 0460 8922     		mov	r2, #137
 764 0462 9200     		lsl	r2, r2, #2
 765 0464 BA18     		add	r2, r7, r2
 766 0466 1360     		str	r3, [r2]
 700:.\Include/arm_math.h ****     {
 767              		.loc 2 700 0
 768 0468 0023     		mov	r3, #0
 769 046a 8822     		mov	r2, #136
 770 046c 9200     		lsl	r2, r2, #2
 771 046e BA18     		add	r2, r7, r2
 772 0470 1360     		str	r3, [r2]
 773 0472 11E0     		b	.L24
 774              	.L25:
 702:.\Include/arm_math.h ****     }
 775              		.loc 2 702 0
 776 0474 8923     		mov	r3, #137
 777 0476 9B00     		lsl	r3, r3, #2
 778 0478 FB18     		add	r3, r7, r3
 779 047a 1B68     		ldr	r3, [r3]
 780 047c 5B00     		lsl	r3, r3, #1
 781 047e 8922     		mov	r2, #137
 782 0480 9200     		lsl	r2, r2, #2
 783 0482 BA18     		add	r2, r7, r2
 784 0484 1360     		str	r3, [r2]
 700:.\Include/arm_math.h ****     {
 785              		.loc 2 700 0
 786 0486 8823     		mov	r3, #136
 787 0488 9B00     		lsl	r3, r3, #2
 788 048a FB18     		add	r3, r7, r3
 789 048c 1B68     		ldr	r3, [r3]
 790 048e 0133     		add	r3, r3, #1
 791 0490 8822     		mov	r2, #136
 792 0492 9200     		lsl	r2, r2, #2
 793 0494 BA18     		add	r2, r7, r2
 794 0496 1360     		str	r3, [r2]
 795              	.L24:
 796 0498 8A23     		mov	r3, #138
 797 049a 9B00     		lsl	r3, r3, #2
 798 049c FB18     		add	r3, r7, r3
 799 049e 1B68     		ldr	r3, [r3]
ARM GAS  C:\Users\fneves\AppData\Local\Temp\cc0ayw4Y.s 			page 40


 800 04a0 013B     		sub	r3, r3, #1
 801 04a2 8822     		mov	r2, #136
 802 04a4 9200     		lsl	r2, r2, #2
 803 04a6 BA18     		add	r2, r7, r2
 804 04a8 1268     		ldr	r2, [r2]
 805 04aa 9A42     		cmp	r2, r3
 806 04ac E2D3     		bcc	.L25
 705:.\Include/arm_math.h ****     {
 807              		.loc 2 705 0
 808 04ae 8B23     		mov	r3, #139
 809 04b0 9B00     		lsl	r3, r3, #2
 810 04b2 FB18     		add	r3, r7, r3
 811 04b4 1B68     		ldr	r3, [r3]
 812 04b6 002B     		cmp	r3, #0
 813 04b8 1BDD     		ble	.L26
 707:.\Include/arm_math.h **** 
 814              		.loc 2 707 0
 815 04ba 8923     		mov	r3, #137
 816 04bc 9B00     		lsl	r3, r3, #2
 817 04be FB18     		add	r3, r7, r3
 818 04c0 1B68     		ldr	r3, [r3]
 819 04c2 013B     		sub	r3, r3, #1
 820 04c4 8922     		mov	r2, #137
 821 04c6 9200     		lsl	r2, r2, #2
 822 04c8 BA18     		add	r2, r7, r2
 823 04ca 1360     		str	r3, [r2]
 709:.\Include/arm_math.h ****       {
 824              		.loc 2 709 0
 825 04cc 8B23     		mov	r3, #139
 826 04ce 9B00     		lsl	r3, r3, #2
 827 04d0 FB18     		add	r3, r7, r3
 828 04d2 1A68     		ldr	r2, [r3]
 829 04d4 8923     		mov	r3, #137
 830 04d6 9B00     		lsl	r3, r3, #2
 831 04d8 FB18     		add	r3, r7, r3
 832 04da 1B68     		ldr	r3, [r3]
 833 04dc 9A42     		cmp	r2, r3
 834 04de 24DD     		ble	.L198
 711:.\Include/arm_math.h ****       }
 835              		.loc 2 711 0
 836 04e0 8923     		mov	r3, #137
 837 04e2 9B00     		lsl	r3, r3, #2
 838 04e4 FB18     		add	r3, r7, r3
 839 04e6 1B68     		ldr	r3, [r3]
 840 04e8 8B22     		mov	r2, #139
 841 04ea 9200     		lsl	r2, r2, #2
 842 04ec BA18     		add	r2, r7, r2
 843 04ee 1360     		str	r3, [r2]
 844 04f0 1CE0     		b	.L28
 845              	.L26:
 716:.\Include/arm_math.h **** 
 846              		.loc 2 716 0
 847 04f2 8923     		mov	r3, #137
 848 04f4 9B00     		lsl	r3, r3, #2
 849 04f6 FB18     		add	r3, r7, r3
 850 04f8 1B68     		ldr	r3, [r3]
 851 04fa 5B42     		neg	r3, r3
ARM GAS  C:\Users\fneves\AppData\Local\Temp\cc0ayw4Y.s 			page 41


 852 04fc 8722     		mov	r2, #135
 853 04fe 9200     		lsl	r2, r2, #2
 854 0500 BA18     		add	r2, r7, r2
 855 0502 1360     		str	r3, [r2]
 718:.\Include/arm_math.h ****       {
 856              		.loc 2 718 0
 857 0504 8B23     		mov	r3, #139
 858 0506 9B00     		lsl	r3, r3, #2
 859 0508 FB18     		add	r3, r7, r3
 860 050a 1A68     		ldr	r2, [r3]
 861 050c 8723     		mov	r3, #135
 862 050e 9B00     		lsl	r3, r3, #2
 863 0510 FB18     		add	r3, r7, r3
 864 0512 1B68     		ldr	r3, [r3]
 865 0514 9A42     		cmp	r2, r3
 866 0516 09DA     		bge	.L28
 720:.\Include/arm_math.h ****       }
 867              		.loc 2 720 0
 868 0518 8723     		mov	r3, #135
 869 051a 9B00     		lsl	r3, r3, #2
 870 051c FB18     		add	r3, r7, r3
 871 051e 1B68     		ldr	r3, [r3]
 872 0520 8B22     		mov	r2, #139
 873 0522 9200     		lsl	r2, r2, #2
 874 0524 BA18     		add	r2, r7, r2
 875 0526 1360     		str	r3, [r2]
 876 0528 00E0     		b	.L28
 877              	.L198:
 711:.\Include/arm_math.h ****       }
 878              		.loc 2 711 0
 879 052a C046     		mov	r8, r8
 880              	.L28:
 881              		.loc 2 723 0
 882 052c 8B23     		mov	r3, #139
 883 052e 9B00     		lsl	r3, r3, #2
 884 0530 FB18     		add	r3, r7, r3
 885 0532 1A68     		ldr	r2, [r3]
 886              	.LBE129:
 887              	.LBE128:
 888              		.loc 1 671 0
 889 0534 A123     		mov	r3, #161
 890 0536 9B00     		lsl	r3, r3, #2
 891 0538 FB18     		add	r3, r7, r3
 892 053a 1A80     		strh	r2, [r3]
 672:Source\TransformFunctions/arm_cfft_radix4_q15.c **** 
 673:Source\TransformFunctions/arm_cfft_radix4_q15.c ****     /*  Reading i0+fftLen/4 , i0+3fftLen/4 inputs */
 674:Source\TransformFunctions/arm_cfft_radix4_q15.c ****     /* input is down scale by 4 to avoid overflow */
 675:Source\TransformFunctions/arm_cfft_radix4_q15.c ****     /* Read yb (real), xb(imag) input */
 676:Source\TransformFunctions/arm_cfft_radix4_q15.c ****     T0 = pSrc16[i1 * 2u] >> 2u;
 893              		.loc 1 676 0
 894 053c A523     		mov	r3, #165
 895 053e 9B00     		lsl	r3, r3, #2
 896 0540 FB18     		add	r3, r7, r3
 897 0542 1B68     		ldr	r3, [r3]
 898 0544 9B00     		lsl	r3, r3, #2
 899 0546 FA68     		ldr	r2, [r7, #12]
 900 0548 D318     		add	r3, r2, r3
ARM GAS  C:\Users\fneves\AppData\Local\Temp\cc0ayw4Y.s 			page 42


 901 054a 1A88     		ldrh	r2, [r3]
 902 054c 954B     		ldr	r3, .L227+4
 903 054e FB18     		add	r3, r7, r3
 904 0550 12B2     		sxth	r2, r2
 905 0552 9210     		asr	r2, r2, #2
 906 0554 1A80     		strh	r2, [r3]
 677:Source\TransformFunctions/arm_cfft_radix4_q15.c ****     T1 = pSrc16[(i1 * 2u) + 1u] >> 2u;
 907              		.loc 1 677 0
 908 0556 A523     		mov	r3, #165
 909 0558 9B00     		lsl	r3, r3, #2
 910 055a FB18     		add	r3, r7, r3
 911 055c 1B68     		ldr	r3, [r3]
 912 055e 9B00     		lsl	r3, r3, #2
 913 0560 0233     		add	r3, r3, #2
 914 0562 FA68     		ldr	r2, [r7, #12]
 915 0564 D318     		add	r3, r2, r3
 916 0566 1A88     		ldrh	r2, [r3]
 917 0568 A223     		mov	r3, #162
 918 056a 9B00     		lsl	r3, r3, #2
 919 056c FB18     		add	r3, r7, r3
 920 056e 12B2     		sxth	r2, r2
 921 0570 9210     		asr	r2, r2, #2
 922 0572 1A80     		strh	r2, [r3]
 678:Source\TransformFunctions/arm_cfft_radix4_q15.c **** 
 679:Source\TransformFunctions/arm_cfft_radix4_q15.c ****     /* input is down scale by 4 to avoid overflow */
 680:Source\TransformFunctions/arm_cfft_radix4_q15.c ****     /* Read yd (real), xd(imag) input */
 681:Source\TransformFunctions/arm_cfft_radix4_q15.c ****     U0 = pSrc16[i3 * 2u] >> 2u;
 923              		.loc 1 681 0
 924 0574 A323     		mov	r3, #163
 925 0576 9B00     		lsl	r3, r3, #2
 926 0578 FB18     		add	r3, r7, r3
 927 057a 1B68     		ldr	r3, [r3]
 928 057c 9B00     		lsl	r3, r3, #2
 929 057e FA68     		ldr	r2, [r7, #12]
 930 0580 D318     		add	r3, r2, r3
 931 0582 1A88     		ldrh	r2, [r3]
 932 0584 884B     		ldr	r3, .L227+8
 933 0586 FB18     		add	r3, r7, r3
 934 0588 12B2     		sxth	r2, r2
 935 058a 9210     		asr	r2, r2, #2
 936 058c 1A80     		strh	r2, [r3]
 682:Source\TransformFunctions/arm_cfft_radix4_q15.c ****     U1 = pSrc16[(i3 * 2u) + 1] >> 2u;
 937              		.loc 1 682 0
 938 058e A323     		mov	r3, #163
 939 0590 9B00     		lsl	r3, r3, #2
 940 0592 FB18     		add	r3, r7, r3
 941 0594 1B68     		ldr	r3, [r3]
 942 0596 9B00     		lsl	r3, r3, #2
 943 0598 0233     		add	r3, r3, #2
 944 059a FA68     		ldr	r2, [r7, #12]
 945 059c D318     		add	r3, r2, r3
 946 059e 1A88     		ldrh	r2, [r3]
 947 05a0 9F23     		mov	r3, #159
 948 05a2 9B00     		lsl	r3, r3, #2
 949 05a4 FB18     		add	r3, r7, r3
 950 05a6 12B2     		sxth	r2, r2
 951 05a8 9210     		asr	r2, r2, #2
ARM GAS  C:\Users\fneves\AppData\Local\Temp\cc0ayw4Y.s 			page 43


 952 05aa 1A80     		strh	r2, [r3]
 683:Source\TransformFunctions/arm_cfft_radix4_q15.c **** 
 684:Source\TransformFunctions/arm_cfft_radix4_q15.c ****     /* T0 = (yb + yd) */
 685:Source\TransformFunctions/arm_cfft_radix4_q15.c ****     T0 = __SSAT(T0 + U0, 16u);
 953              		.loc 1 685 0
 954 05ac 7D4B     		ldr	r3, .L227+4
 955 05ae FB18     		add	r3, r7, r3
 956 05b0 0022     		mov	r2, #0
 957 05b2 9A5E     		ldrsh	r2, [r3, r2]
 958 05b4 7C4B     		ldr	r3, .L227+8
 959 05b6 FB18     		add	r3, r7, r3
 960 05b8 0021     		mov	r1, #0
 961 05ba 5B5E     		ldrsh	r3, [r3, r1]
 962 05bc D318     		add	r3, r2, r3
 963 05be 8622     		mov	r2, #134
 964 05c0 9200     		lsl	r2, r2, #2
 965 05c2 BA18     		add	r2, r7, r2
 966 05c4 1360     		str	r3, [r2]
 967 05c6 1023     		mov	r3, #16
 968 05c8 8522     		mov	r2, #133
 969 05ca 9200     		lsl	r2, r2, #2
 970 05cc BA18     		add	r2, r7, r2
 971 05ce 1360     		str	r3, [r2]
 972              	.LBB130:
 973              	.LBB131:
 699:.\Include/arm_math.h ****     for (i = 0; i < (y - 1); i++)
 974              		.loc 2 699 0
 975 05d0 0123     		mov	r3, #1
 976 05d2 8422     		mov	r2, #132
 977 05d4 9200     		lsl	r2, r2, #2
 978 05d6 BA18     		add	r2, r7, r2
 979 05d8 1360     		str	r3, [r2]
 700:.\Include/arm_math.h ****     {
 980              		.loc 2 700 0
 981 05da 0023     		mov	r3, #0
 982 05dc 8322     		mov	r2, #131
 983 05de 9200     		lsl	r2, r2, #2
 984 05e0 BA18     		add	r2, r7, r2
 985 05e2 1360     		str	r3, [r2]
 986 05e4 11E0     		b	.L30
 987              	.L31:
 702:.\Include/arm_math.h ****     }
 988              		.loc 2 702 0
 989 05e6 8423     		mov	r3, #132
 990 05e8 9B00     		lsl	r3, r3, #2
 991 05ea FB18     		add	r3, r7, r3
 992 05ec 1B68     		ldr	r3, [r3]
 993 05ee 5B00     		lsl	r3, r3, #1
 994 05f0 8422     		mov	r2, #132
 995 05f2 9200     		lsl	r2, r2, #2
 996 05f4 BA18     		add	r2, r7, r2
 997 05f6 1360     		str	r3, [r2]
 700:.\Include/arm_math.h ****     {
 998              		.loc 2 700 0
 999 05f8 8323     		mov	r3, #131
 1000 05fa 9B00     		lsl	r3, r3, #2
 1001 05fc FB18     		add	r3, r7, r3
ARM GAS  C:\Users\fneves\AppData\Local\Temp\cc0ayw4Y.s 			page 44


 1002 05fe 1B68     		ldr	r3, [r3]
 1003 0600 0133     		add	r3, r3, #1
 1004 0602 8322     		mov	r2, #131
 1005 0604 9200     		lsl	r2, r2, #2
 1006 0606 BA18     		add	r2, r7, r2
 1007 0608 1360     		str	r3, [r2]
 1008              	.L30:
 1009 060a 8523     		mov	r3, #133
 1010 060c 9B00     		lsl	r3, r3, #2
 1011 060e FB18     		add	r3, r7, r3
 1012 0610 1B68     		ldr	r3, [r3]
 1013 0612 013B     		sub	r3, r3, #1
 1014 0614 8322     		mov	r2, #131
 1015 0616 9200     		lsl	r2, r2, #2
 1016 0618 BA18     		add	r2, r7, r2
 1017 061a 1268     		ldr	r2, [r2]
 1018 061c 9A42     		cmp	r2, r3
 1019 061e E2D3     		bcc	.L31
 705:.\Include/arm_math.h ****     {
 1020              		.loc 2 705 0
 1021 0620 8623     		mov	r3, #134
 1022 0622 9B00     		lsl	r3, r3, #2
 1023 0624 FB18     		add	r3, r7, r3
 1024 0626 1B68     		ldr	r3, [r3]
 1025 0628 002B     		cmp	r3, #0
 1026 062a 1BDD     		ble	.L32
 707:.\Include/arm_math.h **** 
 1027              		.loc 2 707 0
 1028 062c 8423     		mov	r3, #132
 1029 062e 9B00     		lsl	r3, r3, #2
 1030 0630 FB18     		add	r3, r7, r3
 1031 0632 1B68     		ldr	r3, [r3]
 1032 0634 013B     		sub	r3, r3, #1
 1033 0636 8422     		mov	r2, #132
 1034 0638 9200     		lsl	r2, r2, #2
 1035 063a BA18     		add	r2, r7, r2
 1036 063c 1360     		str	r3, [r2]
 709:.\Include/arm_math.h ****       {
 1037              		.loc 2 709 0
 1038 063e 8623     		mov	r3, #134
 1039 0640 9B00     		lsl	r3, r3, #2
 1040 0642 FB18     		add	r3, r7, r3
 1041 0644 1A68     		ldr	r2, [r3]
 1042 0646 8423     		mov	r3, #132
 1043 0648 9B00     		lsl	r3, r3, #2
 1044 064a FB18     		add	r3, r7, r3
 1045 064c 1B68     		ldr	r3, [r3]
 1046 064e 9A42     		cmp	r2, r3
 1047 0650 24DD     		ble	.L199
 711:.\Include/arm_math.h ****       }
 1048              		.loc 2 711 0
 1049 0652 8423     		mov	r3, #132
 1050 0654 9B00     		lsl	r3, r3, #2
 1051 0656 FB18     		add	r3, r7, r3
 1052 0658 1B68     		ldr	r3, [r3]
 1053 065a 8622     		mov	r2, #134
 1054 065c 9200     		lsl	r2, r2, #2
ARM GAS  C:\Users\fneves\AppData\Local\Temp\cc0ayw4Y.s 			page 45


 1055 065e BA18     		add	r2, r7, r2
 1056 0660 1360     		str	r3, [r2]
 1057 0662 1CE0     		b	.L34
 1058              	.L32:
 716:.\Include/arm_math.h **** 
 1059              		.loc 2 716 0
 1060 0664 8423     		mov	r3, #132
 1061 0666 9B00     		lsl	r3, r3, #2
 1062 0668 FB18     		add	r3, r7, r3
 1063 066a 1B68     		ldr	r3, [r3]
 1064 066c 5B42     		neg	r3, r3
 1065 066e 8222     		mov	r2, #130
 1066 0670 9200     		lsl	r2, r2, #2
 1067 0672 BA18     		add	r2, r7, r2
 1068 0674 1360     		str	r3, [r2]
 718:.\Include/arm_math.h ****       {
 1069              		.loc 2 718 0
 1070 0676 8623     		mov	r3, #134
 1071 0678 9B00     		lsl	r3, r3, #2
 1072 067a FB18     		add	r3, r7, r3
 1073 067c 1A68     		ldr	r2, [r3]
 1074 067e 8223     		mov	r3, #130
 1075 0680 9B00     		lsl	r3, r3, #2
 1076 0682 FB18     		add	r3, r7, r3
 1077 0684 1B68     		ldr	r3, [r3]
 1078 0686 9A42     		cmp	r2, r3
 1079 0688 09DA     		bge	.L34
 720:.\Include/arm_math.h ****       }
 1080              		.loc 2 720 0
 1081 068a 8223     		mov	r3, #130
 1082 068c 9B00     		lsl	r3, r3, #2
 1083 068e FB18     		add	r3, r7, r3
 1084 0690 1B68     		ldr	r3, [r3]
 1085 0692 8622     		mov	r2, #134
 1086 0694 9200     		lsl	r2, r2, #2
 1087 0696 BA18     		add	r2, r7, r2
 1088 0698 1360     		str	r3, [r2]
 1089 069a 00E0     		b	.L34
 1090              	.L199:
 711:.\Include/arm_math.h ****       }
 1091              		.loc 2 711 0
 1092 069c C046     		mov	r8, r8
 1093              	.L34:
 1094              		.loc 2 723 0
 1095 069e 8623     		mov	r3, #134
 1096 06a0 9B00     		lsl	r3, r3, #2
 1097 06a2 FB18     		add	r3, r7, r3
 1098 06a4 1A68     		ldr	r2, [r3]
 1099              	.LBE131:
 1100              	.LBE130:
 1101              		.loc 1 685 0
 1102 06a6 3F4B     		ldr	r3, .L227+4
 1103 06a8 FB18     		add	r3, r7, r3
 1104 06aa 1A80     		strh	r2, [r3]
 686:Source\TransformFunctions/arm_cfft_radix4_q15.c ****     /* T1 = (xb + xd) */
 687:Source\TransformFunctions/arm_cfft_radix4_q15.c ****     T1 = __SSAT(T1 + U1, 16u);
 1105              		.loc 1 687 0
ARM GAS  C:\Users\fneves\AppData\Local\Temp\cc0ayw4Y.s 			page 46


 1106 06ac A223     		mov	r3, #162
 1107 06ae 9B00     		lsl	r3, r3, #2
 1108 06b0 FB18     		add	r3, r7, r3
 1109 06b2 0022     		mov	r2, #0
 1110 06b4 9A5E     		ldrsh	r2, [r3, r2]
 1111 06b6 9F23     		mov	r3, #159
 1112 06b8 9B00     		lsl	r3, r3, #2
 1113 06ba FB18     		add	r3, r7, r3
 1114 06bc 0021     		mov	r1, #0
 1115 06be 5B5E     		ldrsh	r3, [r3, r1]
 1116 06c0 D318     		add	r3, r2, r3
 1117 06c2 8122     		mov	r2, #129
 1118 06c4 9200     		lsl	r2, r2, #2
 1119 06c6 BA18     		add	r2, r7, r2
 1120 06c8 1360     		str	r3, [r2]
 1121 06ca 1023     		mov	r3, #16
 1122 06cc 8022     		mov	r2, #128
 1123 06ce 9200     		lsl	r2, r2, #2
 1124 06d0 BA18     		add	r2, r7, r2
 1125 06d2 1360     		str	r3, [r2]
 1126              	.LBB132:
 1127              	.LBB133:
 699:.\Include/arm_math.h ****     for (i = 0; i < (y - 1); i++)
 1128              		.loc 2 699 0
 1129 06d4 0123     		mov	r3, #1
 1130 06d6 FE22     		mov	r2, #254
 1131 06d8 5200     		lsl	r2, r2, #1
 1132 06da BA18     		add	r2, r7, r2
 1133 06dc 1360     		str	r3, [r2]
 700:.\Include/arm_math.h ****     {
 1134              		.loc 2 700 0
 1135 06de 0023     		mov	r3, #0
 1136 06e0 FC22     		mov	r2, #252
 1137 06e2 5200     		lsl	r2, r2, #1
 1138 06e4 BA18     		add	r2, r7, r2
 1139 06e6 1360     		str	r3, [r2]
 1140 06e8 11E0     		b	.L36
 1141              	.L37:
 702:.\Include/arm_math.h ****     }
 1142              		.loc 2 702 0
 1143 06ea FE23     		mov	r3, #254
 1144 06ec 5B00     		lsl	r3, r3, #1
 1145 06ee FB18     		add	r3, r7, r3
 1146 06f0 1B68     		ldr	r3, [r3]
 1147 06f2 5B00     		lsl	r3, r3, #1
 1148 06f4 FE22     		mov	r2, #254
 1149 06f6 5200     		lsl	r2, r2, #1
 1150 06f8 BA18     		add	r2, r7, r2
 1151 06fa 1360     		str	r3, [r2]
 700:.\Include/arm_math.h ****     {
 1152              		.loc 2 700 0
 1153 06fc FC23     		mov	r3, #252
 1154 06fe 5B00     		lsl	r3, r3, #1
 1155 0700 FB18     		add	r3, r7, r3
 1156 0702 1B68     		ldr	r3, [r3]
 1157 0704 0133     		add	r3, r3, #1
 1158 0706 FC22     		mov	r2, #252
ARM GAS  C:\Users\fneves\AppData\Local\Temp\cc0ayw4Y.s 			page 47


 1159 0708 5200     		lsl	r2, r2, #1
 1160 070a BA18     		add	r2, r7, r2
 1161 070c 1360     		str	r3, [r2]
 1162              	.L36:
 1163 070e 8023     		mov	r3, #128
 1164 0710 9B00     		lsl	r3, r3, #2
 1165 0712 FB18     		add	r3, r7, r3
 1166 0714 1B68     		ldr	r3, [r3]
 1167 0716 013B     		sub	r3, r3, #1
 1168 0718 FC22     		mov	r2, #252
 1169 071a 5200     		lsl	r2, r2, #1
 1170 071c BA18     		add	r2, r7, r2
 1171 071e 1268     		ldr	r2, [r2]
 1172 0720 9A42     		cmp	r2, r3
 1173 0722 E2D3     		bcc	.L37
 705:.\Include/arm_math.h ****     {
 1174              		.loc 2 705 0
 1175 0724 8123     		mov	r3, #129
 1176 0726 9B00     		lsl	r3, r3, #2
 1177 0728 FB18     		add	r3, r7, r3
 1178 072a 1B68     		ldr	r3, [r3]
 1179 072c 002B     		cmp	r3, #0
 1180 072e 1BDD     		ble	.L38
 707:.\Include/arm_math.h **** 
 1181              		.loc 2 707 0
 1182 0730 FE23     		mov	r3, #254
 1183 0732 5B00     		lsl	r3, r3, #1
 1184 0734 FB18     		add	r3, r7, r3
 1185 0736 1B68     		ldr	r3, [r3]
 1186 0738 013B     		sub	r3, r3, #1
 1187 073a FE22     		mov	r2, #254
 1188 073c 5200     		lsl	r2, r2, #1
 1189 073e BA18     		add	r2, r7, r2
 1190 0740 1360     		str	r3, [r2]
 709:.\Include/arm_math.h ****       {
 1191              		.loc 2 709 0
 1192 0742 8123     		mov	r3, #129
 1193 0744 9B00     		lsl	r3, r3, #2
 1194 0746 FB18     		add	r3, r7, r3
 1195 0748 1A68     		ldr	r2, [r3]
 1196 074a FE23     		mov	r3, #254
 1197 074c 5B00     		lsl	r3, r3, #1
 1198 074e FB18     		add	r3, r7, r3
 1199 0750 1B68     		ldr	r3, [r3]
 1200 0752 9A42     		cmp	r2, r3
 1201 0754 2ADD     		ble	.L200
 711:.\Include/arm_math.h ****       }
 1202              		.loc 2 711 0
 1203 0756 FE23     		mov	r3, #254
 1204 0758 5B00     		lsl	r3, r3, #1
 1205 075a FB18     		add	r3, r7, r3
 1206 075c 1B68     		ldr	r3, [r3]
 1207 075e 8122     		mov	r2, #129
 1208 0760 9200     		lsl	r2, r2, #2
 1209 0762 BA18     		add	r2, r7, r2
 1210 0764 1360     		str	r3, [r2]
 1211 0766 22E0     		b	.L40
ARM GAS  C:\Users\fneves\AppData\Local\Temp\cc0ayw4Y.s 			page 48


 1212              	.L38:
 716:.\Include/arm_math.h **** 
 1213              		.loc 2 716 0
 1214 0768 FE23     		mov	r3, #254
 1215 076a 5B00     		lsl	r3, r3, #1
 1216 076c FB18     		add	r3, r7, r3
 1217 076e 1B68     		ldr	r3, [r3]
 1218 0770 5B42     		neg	r3, r3
 1219 0772 FA22     		mov	r2, #250
 1220 0774 5200     		lsl	r2, r2, #1
 1221 0776 BA18     		add	r2, r7, r2
 1222 0778 1360     		str	r3, [r2]
 718:.\Include/arm_math.h ****       {
 1223              		.loc 2 718 0
 1224 077a 8123     		mov	r3, #129
 1225 077c 9B00     		lsl	r3, r3, #2
 1226 077e FB18     		add	r3, r7, r3
 1227 0780 1A68     		ldr	r2, [r3]
 1228 0782 FA23     		mov	r3, #250
 1229 0784 5B00     		lsl	r3, r3, #1
 1230 0786 FB18     		add	r3, r7, r3
 1231 0788 1B68     		ldr	r3, [r3]
 1232 078a 9A42     		cmp	r2, r3
 1233 078c 0FDA     		bge	.L40
 720:.\Include/arm_math.h ****       }
 1234              		.loc 2 720 0
 1235 078e FA23     		mov	r3, #250
 1236 0790 5B00     		lsl	r3, r3, #1
 1237 0792 FB18     		add	r3, r7, r3
 1238 0794 1B68     		ldr	r3, [r3]
 1239 0796 8122     		mov	r2, #129
 1240 0798 9200     		lsl	r2, r2, #2
 1241 079a BA18     		add	r2, r7, r2
 1242 079c 1360     		str	r3, [r2]
 1243 079e 06E0     		b	.L40
 1244              	.L228:
 1245              		.align	2
 1246              	.L227:
 1247 07a0 86020000 		.word	646
 1248 07a4 8A020000 		.word	650
 1249 07a8 7E020000 		.word	638
 1250              	.L200:
 711:.\Include/arm_math.h ****       }
 1251              		.loc 2 711 0
 1252 07ac C046     		mov	r8, r8
 1253              	.L40:
 1254              		.loc 2 723 0
 1255 07ae 8123     		mov	r3, #129
 1256 07b0 9B00     		lsl	r3, r3, #2
 1257 07b2 FB18     		add	r3, r7, r3
 1258 07b4 1A68     		ldr	r2, [r3]
 1259              	.LBE133:
 1260              	.LBE132:
 1261              		.loc 1 687 0
 1262 07b6 A223     		mov	r3, #162
 1263 07b8 9B00     		lsl	r3, r3, #2
 1264 07ba FB18     		add	r3, r7, r3
ARM GAS  C:\Users\fneves\AppData\Local\Temp\cc0ayw4Y.s 			page 49


 1265 07bc 1A80     		strh	r2, [r3]
 688:Source\TransformFunctions/arm_cfft_radix4_q15.c **** 
 689:Source\TransformFunctions/arm_cfft_radix4_q15.c ****     /*  writing the butterfly processed i0 sample */
 690:Source\TransformFunctions/arm_cfft_radix4_q15.c ****     /* ya' = ya + yb + yc + yd */
 691:Source\TransformFunctions/arm_cfft_radix4_q15.c ****     /* xa' = xa + xb + xc + xd */
 692:Source\TransformFunctions/arm_cfft_radix4_q15.c ****     pSrc16[i0 * 2u] = (R0 >> 1u) + (T0 >> 1u);
 1266              		.loc 1 692 0
 1267 07be A923     		mov	r3, #169
 1268 07c0 9B00     		lsl	r3, r3, #2
 1269 07c2 FB18     		add	r3, r7, r3
 1270 07c4 1B68     		ldr	r3, [r3]
 1271 07c6 9B00     		lsl	r3, r3, #2
 1272 07c8 FA68     		ldr	r2, [r7, #12]
 1273 07ca D318     		add	r3, r2, r3
 1274 07cc 934A     		ldr	r2, .L229
 1275 07ce BA18     		add	r2, r7, r2
 1276 07d0 0021     		mov	r1, #0
 1277 07d2 525E     		ldrsh	r2, [r2, r1]
 1278 07d4 5210     		asr	r2, r2, #1
 1279 07d6 92B2     		uxth	r2, r2
 1280 07d8 91B2     		uxth	r1, r2
 1281 07da 914A     		ldr	r2, .L229+4
 1282 07dc BA18     		add	r2, r7, r2
 1283 07de 0020     		mov	r0, #0
 1284 07e0 125E     		ldrsh	r2, [r2, r0]
 1285 07e2 5210     		asr	r2, r2, #1
 1286 07e4 92B2     		uxth	r2, r2
 1287 07e6 92B2     		uxth	r2, r2
 1288 07e8 8A18     		add	r2, r1, r2
 1289 07ea 92B2     		uxth	r2, r2
 1290 07ec 92B2     		uxth	r2, r2
 1291 07ee 1A80     		strh	r2, [r3]
 693:Source\TransformFunctions/arm_cfft_radix4_q15.c ****     pSrc16[(i0 * 2u) + 1u] = (R1 >> 1u) + (T1 >> 1u);
 1292              		.loc 1 693 0
 1293 07f0 A923     		mov	r3, #169
 1294 07f2 9B00     		lsl	r3, r3, #2
 1295 07f4 FB18     		add	r3, r7, r3
 1296 07f6 1B68     		ldr	r3, [r3]
 1297 07f8 9B00     		lsl	r3, r3, #2
 1298 07fa 0233     		add	r3, r3, #2
 1299 07fc FA68     		ldr	r2, [r7, #12]
 1300 07fe D318     		add	r3, r2, r3
 1301 0800 A022     		mov	r2, #160
 1302 0802 9200     		lsl	r2, r2, #2
 1303 0804 BA18     		add	r2, r7, r2
 1304 0806 0021     		mov	r1, #0
 1305 0808 525E     		ldrsh	r2, [r2, r1]
 1306 080a 5210     		asr	r2, r2, #1
 1307 080c 92B2     		uxth	r2, r2
 1308 080e 91B2     		uxth	r1, r2
 1309 0810 A222     		mov	r2, #162
 1310 0812 9200     		lsl	r2, r2, #2
 1311 0814 BA18     		add	r2, r7, r2
 1312 0816 0020     		mov	r0, #0
 1313 0818 125E     		ldrsh	r2, [r2, r0]
 1314 081a 5210     		asr	r2, r2, #1
 1315 081c 92B2     		uxth	r2, r2
ARM GAS  C:\Users\fneves\AppData\Local\Temp\cc0ayw4Y.s 			page 50


 1316 081e 92B2     		uxth	r2, r2
 1317 0820 8A18     		add	r2, r1, r2
 1318 0822 92B2     		uxth	r2, r2
 1319 0824 92B2     		uxth	r2, r2
 1320 0826 1A80     		strh	r2, [r3]
 694:Source\TransformFunctions/arm_cfft_radix4_q15.c **** 
 695:Source\TransformFunctions/arm_cfft_radix4_q15.c ****     /* R0 = (ya + yc) - (yb + yd) */
 696:Source\TransformFunctions/arm_cfft_radix4_q15.c ****     /* R1 = (xa + xc) - (xb + xd) */
 697:Source\TransformFunctions/arm_cfft_radix4_q15.c ****     R0 = __SSAT(R0 - T0, 16u);
 1321              		.loc 1 697 0
 1322 0828 7C4B     		ldr	r3, .L229
 1323 082a FB18     		add	r3, r7, r3
 1324 082c 0022     		mov	r2, #0
 1325 082e 9A5E     		ldrsh	r2, [r3, r2]
 1326 0830 7B4B     		ldr	r3, .L229+4
 1327 0832 FB18     		add	r3, r7, r3
 1328 0834 0021     		mov	r1, #0
 1329 0836 5B5E     		ldrsh	r3, [r3, r1]
 1330 0838 D31A     		sub	r3, r2, r3
 1331 083a F822     		mov	r2, #248
 1332 083c 5200     		lsl	r2, r2, #1
 1333 083e BA18     		add	r2, r7, r2
 1334 0840 1360     		str	r3, [r2]
 1335 0842 1023     		mov	r3, #16
 1336 0844 F622     		mov	r2, #246
 1337 0846 5200     		lsl	r2, r2, #1
 1338 0848 BA18     		add	r2, r7, r2
 1339 084a 1360     		str	r3, [r2]
 1340              	.LBB134:
 1341              	.LBB135:
 699:.\Include/arm_math.h ****     for (i = 0; i < (y - 1); i++)
 1342              		.loc 2 699 0
 1343 084c 0123     		mov	r3, #1
 1344 084e F422     		mov	r2, #244
 1345 0850 5200     		lsl	r2, r2, #1
 1346 0852 BA18     		add	r2, r7, r2
 1347 0854 1360     		str	r3, [r2]
 700:.\Include/arm_math.h ****     {
 1348              		.loc 2 700 0
 1349 0856 0023     		mov	r3, #0
 1350 0858 F222     		mov	r2, #242
 1351 085a 5200     		lsl	r2, r2, #1
 1352 085c BA18     		add	r2, r7, r2
 1353 085e 1360     		str	r3, [r2]
 1354 0860 11E0     		b	.L42
 1355              	.L43:
 702:.\Include/arm_math.h ****     }
 1356              		.loc 2 702 0
 1357 0862 F423     		mov	r3, #244
 1358 0864 5B00     		lsl	r3, r3, #1
 1359 0866 FB18     		add	r3, r7, r3
 1360 0868 1B68     		ldr	r3, [r3]
 1361 086a 5B00     		lsl	r3, r3, #1
 1362 086c F422     		mov	r2, #244
 1363 086e 5200     		lsl	r2, r2, #1
 1364 0870 BA18     		add	r2, r7, r2
 1365 0872 1360     		str	r3, [r2]
ARM GAS  C:\Users\fneves\AppData\Local\Temp\cc0ayw4Y.s 			page 51


 700:.\Include/arm_math.h ****     {
 1366              		.loc 2 700 0
 1367 0874 F223     		mov	r3, #242
 1368 0876 5B00     		lsl	r3, r3, #1
 1369 0878 FB18     		add	r3, r7, r3
 1370 087a 1B68     		ldr	r3, [r3]
 1371 087c 0133     		add	r3, r3, #1
 1372 087e F222     		mov	r2, #242
 1373 0880 5200     		lsl	r2, r2, #1
 1374 0882 BA18     		add	r2, r7, r2
 1375 0884 1360     		str	r3, [r2]
 1376              	.L42:
 1377 0886 F623     		mov	r3, #246
 1378 0888 5B00     		lsl	r3, r3, #1
 1379 088a FB18     		add	r3, r7, r3
 1380 088c 1B68     		ldr	r3, [r3]
 1381 088e 013B     		sub	r3, r3, #1
 1382 0890 F222     		mov	r2, #242
 1383 0892 5200     		lsl	r2, r2, #1
 1384 0894 BA18     		add	r2, r7, r2
 1385 0896 1268     		ldr	r2, [r2]
 1386 0898 9A42     		cmp	r2, r3
 1387 089a E2D3     		bcc	.L43
 705:.\Include/arm_math.h ****     {
 1388              		.loc 2 705 0
 1389 089c F823     		mov	r3, #248
 1390 089e 5B00     		lsl	r3, r3, #1
 1391 08a0 FB18     		add	r3, r7, r3
 1392 08a2 1B68     		ldr	r3, [r3]
 1393 08a4 002B     		cmp	r3, #0
 1394 08a6 1BDD     		ble	.L44
 707:.\Include/arm_math.h **** 
 1395              		.loc 2 707 0
 1396 08a8 F423     		mov	r3, #244
 1397 08aa 5B00     		lsl	r3, r3, #1
 1398 08ac FB18     		add	r3, r7, r3
 1399 08ae 1B68     		ldr	r3, [r3]
 1400 08b0 013B     		sub	r3, r3, #1
 1401 08b2 F422     		mov	r2, #244
 1402 08b4 5200     		lsl	r2, r2, #1
 1403 08b6 BA18     		add	r2, r7, r2
 1404 08b8 1360     		str	r3, [r2]
 709:.\Include/arm_math.h ****       {
 1405              		.loc 2 709 0
 1406 08ba F823     		mov	r3, #248
 1407 08bc 5B00     		lsl	r3, r3, #1
 1408 08be FB18     		add	r3, r7, r3
 1409 08c0 1A68     		ldr	r2, [r3]
 1410 08c2 F423     		mov	r3, #244
 1411 08c4 5B00     		lsl	r3, r3, #1
 1412 08c6 FB18     		add	r3, r7, r3
 1413 08c8 1B68     		ldr	r3, [r3]
 1414 08ca 9A42     		cmp	r2, r3
 1415 08cc 24DD     		ble	.L201
 711:.\Include/arm_math.h ****       }
 1416              		.loc 2 711 0
 1417 08ce F423     		mov	r3, #244
ARM GAS  C:\Users\fneves\AppData\Local\Temp\cc0ayw4Y.s 			page 52


 1418 08d0 5B00     		lsl	r3, r3, #1
 1419 08d2 FB18     		add	r3, r7, r3
 1420 08d4 1B68     		ldr	r3, [r3]
 1421 08d6 F822     		mov	r2, #248
 1422 08d8 5200     		lsl	r2, r2, #1
 1423 08da BA18     		add	r2, r7, r2
 1424 08dc 1360     		str	r3, [r2]
 1425 08de 1CE0     		b	.L46
 1426              	.L44:
 716:.\Include/arm_math.h **** 
 1427              		.loc 2 716 0
 1428 08e0 F423     		mov	r3, #244
 1429 08e2 5B00     		lsl	r3, r3, #1
 1430 08e4 FB18     		add	r3, r7, r3
 1431 08e6 1B68     		ldr	r3, [r3]
 1432 08e8 5B42     		neg	r3, r3
 1433 08ea F022     		mov	r2, #240
 1434 08ec 5200     		lsl	r2, r2, #1
 1435 08ee BA18     		add	r2, r7, r2
 1436 08f0 1360     		str	r3, [r2]
 718:.\Include/arm_math.h ****       {
 1437              		.loc 2 718 0
 1438 08f2 F823     		mov	r3, #248
 1439 08f4 5B00     		lsl	r3, r3, #1
 1440 08f6 FB18     		add	r3, r7, r3
 1441 08f8 1A68     		ldr	r2, [r3]
 1442 08fa F023     		mov	r3, #240
 1443 08fc 5B00     		lsl	r3, r3, #1
 1444 08fe FB18     		add	r3, r7, r3
 1445 0900 1B68     		ldr	r3, [r3]
 1446 0902 9A42     		cmp	r2, r3
 1447 0904 09DA     		bge	.L46
 720:.\Include/arm_math.h ****       }
 1448              		.loc 2 720 0
 1449 0906 F023     		mov	r3, #240
 1450 0908 5B00     		lsl	r3, r3, #1
 1451 090a FB18     		add	r3, r7, r3
 1452 090c 1B68     		ldr	r3, [r3]
 1453 090e F822     		mov	r2, #248
 1454 0910 5200     		lsl	r2, r2, #1
 1455 0912 BA18     		add	r2, r7, r2
 1456 0914 1360     		str	r3, [r2]
 1457 0916 00E0     		b	.L46
 1458              	.L201:
 711:.\Include/arm_math.h ****       }
 1459              		.loc 2 711 0
 1460 0918 C046     		mov	r8, r8
 1461              	.L46:
 1462              		.loc 2 723 0
 1463 091a F823     		mov	r3, #248
 1464 091c 5B00     		lsl	r3, r3, #1
 1465 091e FB18     		add	r3, r7, r3
 1466 0920 1A68     		ldr	r2, [r3]
 1467              	.LBE135:
 1468              	.LBE134:
 1469              		.loc 1 697 0
 1470 0922 3E4B     		ldr	r3, .L229
ARM GAS  C:\Users\fneves\AppData\Local\Temp\cc0ayw4Y.s 			page 53


 1471 0924 FB18     		add	r3, r7, r3
 1472 0926 1A80     		strh	r2, [r3]
 698:Source\TransformFunctions/arm_cfft_radix4_q15.c ****     R1 = __SSAT(R1 - T1, 16u);
 1473              		.loc 1 698 0
 1474 0928 A023     		mov	r3, #160
 1475 092a 9B00     		lsl	r3, r3, #2
 1476 092c FB18     		add	r3, r7, r3
 1477 092e 0022     		mov	r2, #0
 1478 0930 9A5E     		ldrsh	r2, [r3, r2]
 1479 0932 A223     		mov	r3, #162
 1480 0934 9B00     		lsl	r3, r3, #2
 1481 0936 FB18     		add	r3, r7, r3
 1482 0938 0021     		mov	r1, #0
 1483 093a 5B5E     		ldrsh	r3, [r3, r1]
 1484 093c D31A     		sub	r3, r2, r3
 1485 093e EE22     		mov	r2, #238
 1486 0940 5200     		lsl	r2, r2, #1
 1487 0942 BA18     		add	r2, r7, r2
 1488 0944 1360     		str	r3, [r2]
 1489 0946 1023     		mov	r3, #16
 1490 0948 EC22     		mov	r2, #236
 1491 094a 5200     		lsl	r2, r2, #1
 1492 094c BA18     		add	r2, r7, r2
 1493 094e 1360     		str	r3, [r2]
 1494              	.LBB136:
 1495              	.LBB137:
 699:.\Include/arm_math.h ****     for (i = 0; i < (y - 1); i++)
 1496              		.loc 2 699 0
 1497 0950 0123     		mov	r3, #1
 1498 0952 EA22     		mov	r2, #234
 1499 0954 5200     		lsl	r2, r2, #1
 1500 0956 BA18     		add	r2, r7, r2
 1501 0958 1360     		str	r3, [r2]
 700:.\Include/arm_math.h ****     {
 1502              		.loc 2 700 0
 1503 095a 0023     		mov	r3, #0
 1504 095c E822     		mov	r2, #232
 1505 095e 5200     		lsl	r2, r2, #1
 1506 0960 BA18     		add	r2, r7, r2
 1507 0962 1360     		str	r3, [r2]
 1508 0964 11E0     		b	.L48
 1509              	.L49:
 702:.\Include/arm_math.h ****     }
 1510              		.loc 2 702 0
 1511 0966 EA23     		mov	r3, #234
 1512 0968 5B00     		lsl	r3, r3, #1
 1513 096a FB18     		add	r3, r7, r3
 1514 096c 1B68     		ldr	r3, [r3]
 1515 096e 5B00     		lsl	r3, r3, #1
 1516 0970 EA22     		mov	r2, #234
 1517 0972 5200     		lsl	r2, r2, #1
 1518 0974 BA18     		add	r2, r7, r2
 1519 0976 1360     		str	r3, [r2]
 700:.\Include/arm_math.h ****     {
 1520              		.loc 2 700 0
 1521 0978 E823     		mov	r3, #232
 1522 097a 5B00     		lsl	r3, r3, #1
ARM GAS  C:\Users\fneves\AppData\Local\Temp\cc0ayw4Y.s 			page 54


 1523 097c FB18     		add	r3, r7, r3
 1524 097e 1B68     		ldr	r3, [r3]
 1525 0980 0133     		add	r3, r3, #1
 1526 0982 E822     		mov	r2, #232
 1527 0984 5200     		lsl	r2, r2, #1
 1528 0986 BA18     		add	r2, r7, r2
 1529 0988 1360     		str	r3, [r2]
 1530              	.L48:
 1531 098a EC23     		mov	r3, #236
 1532 098c 5B00     		lsl	r3, r3, #1
 1533 098e FB18     		add	r3, r7, r3
 1534 0990 1B68     		ldr	r3, [r3]
 1535 0992 013B     		sub	r3, r3, #1
 1536 0994 E822     		mov	r2, #232
 1537 0996 5200     		lsl	r2, r2, #1
 1538 0998 BA18     		add	r2, r7, r2
 1539 099a 1268     		ldr	r2, [r2]
 1540 099c 9A42     		cmp	r2, r3
 1541 099e E2D3     		bcc	.L49
 705:.\Include/arm_math.h ****     {
 1542              		.loc 2 705 0
 1543 09a0 EE23     		mov	r3, #238
 1544 09a2 5B00     		lsl	r3, r3, #1
 1545 09a4 FB18     		add	r3, r7, r3
 1546 09a6 1B68     		ldr	r3, [r3]
 1547 09a8 002B     		cmp	r3, #0
 1548 09aa 1BDD     		ble	.L50
 707:.\Include/arm_math.h **** 
 1549              		.loc 2 707 0
 1550 09ac EA23     		mov	r3, #234
 1551 09ae 5B00     		lsl	r3, r3, #1
 1552 09b0 FB18     		add	r3, r7, r3
 1553 09b2 1B68     		ldr	r3, [r3]
 1554 09b4 013B     		sub	r3, r3, #1
 1555 09b6 EA22     		mov	r2, #234
 1556 09b8 5200     		lsl	r2, r2, #1
 1557 09ba BA18     		add	r2, r7, r2
 1558 09bc 1360     		str	r3, [r2]
 709:.\Include/arm_math.h ****       {
 1559              		.loc 2 709 0
 1560 09be EE23     		mov	r3, #238
 1561 09c0 5B00     		lsl	r3, r3, #1
 1562 09c2 FB18     		add	r3, r7, r3
 1563 09c4 1A68     		ldr	r2, [r3]
 1564 09c6 EA23     		mov	r3, #234
 1565 09c8 5B00     		lsl	r3, r3, #1
 1566 09ca FB18     		add	r3, r7, r3
 1567 09cc 1B68     		ldr	r3, [r3]
 1568 09ce 9A42     		cmp	r2, r3
 1569 09d0 28DD     		ble	.L202
 711:.\Include/arm_math.h ****       }
 1570              		.loc 2 711 0
 1571 09d2 EA23     		mov	r3, #234
 1572 09d4 5B00     		lsl	r3, r3, #1
 1573 09d6 FB18     		add	r3, r7, r3
 1574 09d8 1B68     		ldr	r3, [r3]
 1575 09da EE22     		mov	r2, #238
ARM GAS  C:\Users\fneves\AppData\Local\Temp\cc0ayw4Y.s 			page 55


 1576 09dc 5200     		lsl	r2, r2, #1
 1577 09de BA18     		add	r2, r7, r2
 1578 09e0 1360     		str	r3, [r2]
 1579 09e2 20E0     		b	.L52
 1580              	.L50:
 716:.\Include/arm_math.h **** 
 1581              		.loc 2 716 0
 1582 09e4 EA23     		mov	r3, #234
 1583 09e6 5B00     		lsl	r3, r3, #1
 1584 09e8 FB18     		add	r3, r7, r3
 1585 09ea 1B68     		ldr	r3, [r3]
 1586 09ec 5B42     		neg	r3, r3
 1587 09ee E622     		mov	r2, #230
 1588 09f0 5200     		lsl	r2, r2, #1
 1589 09f2 BA18     		add	r2, r7, r2
 1590 09f4 1360     		str	r3, [r2]
 718:.\Include/arm_math.h ****       {
 1591              		.loc 2 718 0
 1592 09f6 EE23     		mov	r3, #238
 1593 09f8 5B00     		lsl	r3, r3, #1
 1594 09fa FB18     		add	r3, r7, r3
 1595 09fc 1A68     		ldr	r2, [r3]
 1596 09fe E623     		mov	r3, #230
 1597 0a00 5B00     		lsl	r3, r3, #1
 1598 0a02 FB18     		add	r3, r7, r3
 1599 0a04 1B68     		ldr	r3, [r3]
 1600 0a06 9A42     		cmp	r2, r3
 1601 0a08 0DDA     		bge	.L52
 720:.\Include/arm_math.h ****       }
 1602              		.loc 2 720 0
 1603 0a0a E623     		mov	r3, #230
 1604 0a0c 5B00     		lsl	r3, r3, #1
 1605 0a0e FB18     		add	r3, r7, r3
 1606 0a10 1B68     		ldr	r3, [r3]
 1607 0a12 EE22     		mov	r2, #238
 1608 0a14 5200     		lsl	r2, r2, #1
 1609 0a16 BA18     		add	r2, r7, r2
 1610 0a18 1360     		str	r3, [r2]
 1611 0a1a 04E0     		b	.L52
 1612              	.L230:
 1613              		.align	2
 1614              	.L229:
 1615 0a1c 82020000 		.word	642
 1616 0a20 8A020000 		.word	650
 1617              	.L202:
 711:.\Include/arm_math.h ****       }
 1618              		.loc 2 711 0
 1619 0a24 C046     		mov	r8, r8
 1620              	.L52:
 1621              		.loc 2 723 0
 1622 0a26 EE23     		mov	r3, #238
 1623 0a28 5B00     		lsl	r3, r3, #1
 1624 0a2a FB18     		add	r3, r7, r3
 1625 0a2c 1A68     		ldr	r2, [r3]
 1626              	.LBE137:
 1627              	.LBE136:
 1628              		.loc 1 698 0
ARM GAS  C:\Users\fneves\AppData\Local\Temp\cc0ayw4Y.s 			page 56


 1629 0a2e A023     		mov	r3, #160
 1630 0a30 9B00     		lsl	r3, r3, #2
 1631 0a32 FB18     		add	r3, r7, r3
 1632 0a34 1A80     		strh	r2, [r3]
 699:Source\TransformFunctions/arm_cfft_radix4_q15.c **** 
 700:Source\TransformFunctions/arm_cfft_radix4_q15.c ****     /* co2 & si2 are read from Coefficient pointer */
 701:Source\TransformFunctions/arm_cfft_radix4_q15.c ****     Co2 = pCoef16[2u * ic * 2u];
 1633              		.loc 1 701 0
 1634 0a36 AA23     		mov	r3, #170
 1635 0a38 9B00     		lsl	r3, r3, #2
 1636 0a3a FB18     		add	r3, r7, r3
 1637 0a3c 1B68     		ldr	r3, [r3]
 1638 0a3e DB00     		lsl	r3, r3, #3
 1639 0a40 7A68     		ldr	r2, [r7, #4]
 1640 0a42 D218     		add	r2, r2, r3
 1641 0a44 DA4B     		ldr	r3, .L231
 1642 0a46 FB18     		add	r3, r7, r3
 1643 0a48 1288     		ldrh	r2, [r2]
 1644 0a4a 1A80     		strh	r2, [r3]
 702:Source\TransformFunctions/arm_cfft_radix4_q15.c ****     Si2 = pCoef16[(2u * ic * 2u) + 1];
 1645              		.loc 1 702 0
 1646 0a4c AA23     		mov	r3, #170
 1647 0a4e 9B00     		lsl	r3, r3, #2
 1648 0a50 FB18     		add	r3, r7, r3
 1649 0a52 1B68     		ldr	r3, [r3]
 1650 0a54 DB00     		lsl	r3, r3, #3
 1651 0a56 0233     		add	r3, r3, #2
 1652 0a58 7A68     		ldr	r2, [r7, #4]
 1653 0a5a D218     		add	r2, r2, r3
 1654 0a5c 9E23     		mov	r3, #158
 1655 0a5e 9B00     		lsl	r3, r3, #2
 1656 0a60 FB18     		add	r3, r7, r3
 1657 0a62 1288     		ldrh	r2, [r2]
 1658 0a64 1A80     		strh	r2, [r3]
 703:Source\TransformFunctions/arm_cfft_radix4_q15.c **** 
 704:Source\TransformFunctions/arm_cfft_radix4_q15.c ****     /* xc' = (xa-xb+xc-xd)* co2 + (ya-yb+yc-yd)* (si2) */
 705:Source\TransformFunctions/arm_cfft_radix4_q15.c ****     out1 = (q15_t) ((Co2 * R0 + Si2 * R1) >> 16u);
 1659              		.loc 1 705 0
 1660 0a66 D24B     		ldr	r3, .L231
 1661 0a68 FB18     		add	r3, r7, r3
 1662 0a6a 0022     		mov	r2, #0
 1663 0a6c 9B5E     		ldrsh	r3, [r3, r2]
 1664 0a6e D14A     		ldr	r2, .L231+4
 1665 0a70 BA18     		add	r2, r7, r2
 1666 0a72 0021     		mov	r1, #0
 1667 0a74 525E     		ldrsh	r2, [r2, r1]
 1668 0a76 5A43     		mul	r2, r3
 1669 0a78 9E23     		mov	r3, #158
 1670 0a7a 9B00     		lsl	r3, r3, #2
 1671 0a7c FB18     		add	r3, r7, r3
 1672 0a7e 0021     		mov	r1, #0
 1673 0a80 5B5E     		ldrsh	r3, [r3, r1]
 1674 0a82 A021     		mov	r1, #160
 1675 0a84 8900     		lsl	r1, r1, #2
 1676 0a86 7918     		add	r1, r7, r1
 1677 0a88 0020     		mov	r0, #0
 1678 0a8a 095E     		ldrsh	r1, [r1, r0]
ARM GAS  C:\Users\fneves\AppData\Local\Temp\cc0ayw4Y.s 			page 57


 1679 0a8c 4B43     		mul	r3, r1
 1680 0a8e D318     		add	r3, r2, r3
 1681 0a90 1A14     		asr	r2, r3, #16
 1682 0a92 C94B     		ldr	r3, .L231+8
 1683 0a94 FB18     		add	r3, r7, r3
 1684 0a96 1A80     		strh	r2, [r3]
 706:Source\TransformFunctions/arm_cfft_radix4_q15.c ****     /* yc' = (ya-yb+yc-yd)* co2 - (xa-xb+xc-xd)* (si2) */
 707:Source\TransformFunctions/arm_cfft_radix4_q15.c ****     out2 = (q15_t) ((-Si2 * R0 + Co2 * R1) >> 16u);
 1685              		.loc 1 707 0
 1686 0a98 9E23     		mov	r3, #158
 1687 0a9a 9B00     		lsl	r3, r3, #2
 1688 0a9c FB18     		add	r3, r7, r3
 1689 0a9e 0022     		mov	r2, #0
 1690 0aa0 9B5E     		ldrsh	r3, [r3, r2]
 1691 0aa2 5B42     		neg	r3, r3
 1692 0aa4 C34A     		ldr	r2, .L231+4
 1693 0aa6 BA18     		add	r2, r7, r2
 1694 0aa8 0021     		mov	r1, #0
 1695 0aaa 525E     		ldrsh	r2, [r2, r1]
 1696 0aac 5A43     		mul	r2, r3
 1697 0aae C04B     		ldr	r3, .L231
 1698 0ab0 FB18     		add	r3, r7, r3
 1699 0ab2 0021     		mov	r1, #0
 1700 0ab4 5B5E     		ldrsh	r3, [r3, r1]
 1701 0ab6 A021     		mov	r1, #160
 1702 0ab8 8900     		lsl	r1, r1, #2
 1703 0aba 7918     		add	r1, r7, r1
 1704 0abc 0020     		mov	r0, #0
 1705 0abe 095E     		ldrsh	r1, [r1, r0]
 1706 0ac0 4B43     		mul	r3, r1
 1707 0ac2 D318     		add	r3, r2, r3
 1708 0ac4 1A14     		asr	r2, r3, #16
 1709 0ac6 9D23     		mov	r3, #157
 1710 0ac8 9B00     		lsl	r3, r3, #2
 1711 0aca FB18     		add	r3, r7, r3
 1712 0acc 1A80     		strh	r2, [r3]
 708:Source\TransformFunctions/arm_cfft_radix4_q15.c **** 
 709:Source\TransformFunctions/arm_cfft_radix4_q15.c ****     /*  Reading i0+fftLen/4 */
 710:Source\TransformFunctions/arm_cfft_radix4_q15.c ****     /* input is down scale by 4 to avoid overflow */
 711:Source\TransformFunctions/arm_cfft_radix4_q15.c ****     /* T0 = yb, T1 =  xb */
 712:Source\TransformFunctions/arm_cfft_radix4_q15.c ****     T0 = pSrc16[i1 * 2u] >> 2;
 1713              		.loc 1 712 0
 1714 0ace A523     		mov	r3, #165
 1715 0ad0 9B00     		lsl	r3, r3, #2
 1716 0ad2 FB18     		add	r3, r7, r3
 1717 0ad4 1B68     		ldr	r3, [r3]
 1718 0ad6 9B00     		lsl	r3, r3, #2
 1719 0ad8 FA68     		ldr	r2, [r7, #12]
 1720 0ada D318     		add	r3, r2, r3
 1721 0adc 1A88     		ldrh	r2, [r3]
 1722 0ade B74B     		ldr	r3, .L231+12
 1723 0ae0 FB18     		add	r3, r7, r3
 1724 0ae2 12B2     		sxth	r2, r2
 1725 0ae4 9210     		asr	r2, r2, #2
 1726 0ae6 1A80     		strh	r2, [r3]
 713:Source\TransformFunctions/arm_cfft_radix4_q15.c ****     T1 = pSrc16[(i1 * 2u) + 1] >> 2;
 1727              		.loc 1 713 0
ARM GAS  C:\Users\fneves\AppData\Local\Temp\cc0ayw4Y.s 			page 58


 1728 0ae8 A523     		mov	r3, #165
 1729 0aea 9B00     		lsl	r3, r3, #2
 1730 0aec FB18     		add	r3, r7, r3
 1731 0aee 1B68     		ldr	r3, [r3]
 1732 0af0 9B00     		lsl	r3, r3, #2
 1733 0af2 0233     		add	r3, r3, #2
 1734 0af4 FA68     		ldr	r2, [r7, #12]
 1735 0af6 D318     		add	r3, r2, r3
 1736 0af8 1A88     		ldrh	r2, [r3]
 1737 0afa A223     		mov	r3, #162
 1738 0afc 9B00     		lsl	r3, r3, #2
 1739 0afe FB18     		add	r3, r7, r3
 1740 0b00 12B2     		sxth	r2, r2
 1741 0b02 9210     		asr	r2, r2, #2
 1742 0b04 1A80     		strh	r2, [r3]
 714:Source\TransformFunctions/arm_cfft_radix4_q15.c **** 
 715:Source\TransformFunctions/arm_cfft_radix4_q15.c ****     /* writing the butterfly processed i0 + fftLen/4 sample */
 716:Source\TransformFunctions/arm_cfft_radix4_q15.c ****     /* writing output(xc', yc') in little endian format */
 717:Source\TransformFunctions/arm_cfft_radix4_q15.c ****     pSrc16[i1 * 2u] = out1;
 1743              		.loc 1 717 0
 1744 0b06 A523     		mov	r3, #165
 1745 0b08 9B00     		lsl	r3, r3, #2
 1746 0b0a FB18     		add	r3, r7, r3
 1747 0b0c 1B68     		ldr	r3, [r3]
 1748 0b0e 9B00     		lsl	r3, r3, #2
 1749 0b10 FA68     		ldr	r2, [r7, #12]
 1750 0b12 D318     		add	r3, r2, r3
 1751 0b14 A84A     		ldr	r2, .L231+8
 1752 0b16 BA18     		add	r2, r7, r2
 1753 0b18 1288     		ldrh	r2, [r2]
 1754 0b1a 1A80     		strh	r2, [r3]
 718:Source\TransformFunctions/arm_cfft_radix4_q15.c ****     pSrc16[(i1 * 2u) + 1] = out2;
 1755              		.loc 1 718 0
 1756 0b1c A523     		mov	r3, #165
 1757 0b1e 9B00     		lsl	r3, r3, #2
 1758 0b20 FB18     		add	r3, r7, r3
 1759 0b22 1B68     		ldr	r3, [r3]
 1760 0b24 9B00     		lsl	r3, r3, #2
 1761 0b26 0233     		add	r3, r3, #2
 1762 0b28 FA68     		ldr	r2, [r7, #12]
 1763 0b2a D318     		add	r3, r2, r3
 1764 0b2c 9D22     		mov	r2, #157
 1765 0b2e 9200     		lsl	r2, r2, #2
 1766 0b30 BA18     		add	r2, r7, r2
 1767 0b32 1288     		ldrh	r2, [r2]
 1768 0b34 1A80     		strh	r2, [r3]
 719:Source\TransformFunctions/arm_cfft_radix4_q15.c **** 
 720:Source\TransformFunctions/arm_cfft_radix4_q15.c ****     /*  Butterfly calculations */
 721:Source\TransformFunctions/arm_cfft_radix4_q15.c ****     /* input is down scale by 4 to avoid overflow */
 722:Source\TransformFunctions/arm_cfft_radix4_q15.c ****     /* U0 = yd, U1 = xd */
 723:Source\TransformFunctions/arm_cfft_radix4_q15.c ****     U0 = pSrc16[i3 * 2u] >> 2;
 1769              		.loc 1 723 0
 1770 0b36 A323     		mov	r3, #163
 1771 0b38 9B00     		lsl	r3, r3, #2
 1772 0b3a FB18     		add	r3, r7, r3
 1773 0b3c 1B68     		ldr	r3, [r3]
 1774 0b3e 9B00     		lsl	r3, r3, #2
ARM GAS  C:\Users\fneves\AppData\Local\Temp\cc0ayw4Y.s 			page 59


 1775 0b40 FA68     		ldr	r2, [r7, #12]
 1776 0b42 D318     		add	r3, r2, r3
 1777 0b44 1A88     		ldrh	r2, [r3]
 1778 0b46 9E4B     		ldr	r3, .L231+16
 1779 0b48 FB18     		add	r3, r7, r3
 1780 0b4a 12B2     		sxth	r2, r2
 1781 0b4c 9210     		asr	r2, r2, #2
 1782 0b4e 1A80     		strh	r2, [r3]
 724:Source\TransformFunctions/arm_cfft_radix4_q15.c ****     U1 = pSrc16[(i3 * 2u) + 1] >> 2;
 1783              		.loc 1 724 0
 1784 0b50 A323     		mov	r3, #163
 1785 0b52 9B00     		lsl	r3, r3, #2
 1786 0b54 FB18     		add	r3, r7, r3
 1787 0b56 1B68     		ldr	r3, [r3]
 1788 0b58 9B00     		lsl	r3, r3, #2
 1789 0b5a 0233     		add	r3, r3, #2
 1790 0b5c FA68     		ldr	r2, [r7, #12]
 1791 0b5e D318     		add	r3, r2, r3
 1792 0b60 1A88     		ldrh	r2, [r3]
 1793 0b62 9F23     		mov	r3, #159
 1794 0b64 9B00     		lsl	r3, r3, #2
 1795 0b66 FB18     		add	r3, r7, r3
 1796 0b68 12B2     		sxth	r2, r2
 1797 0b6a 9210     		asr	r2, r2, #2
 1798 0b6c 1A80     		strh	r2, [r3]
 725:Source\TransformFunctions/arm_cfft_radix4_q15.c ****     /* T0 = yb-yd */
 726:Source\TransformFunctions/arm_cfft_radix4_q15.c ****     T0 = __SSAT(T0 - U0, 16);
 1799              		.loc 1 726 0
 1800 0b6e 934B     		ldr	r3, .L231+12
 1801 0b70 FB18     		add	r3, r7, r3
 1802 0b72 0022     		mov	r2, #0
 1803 0b74 9A5E     		ldrsh	r2, [r3, r2]
 1804 0b76 924B     		ldr	r3, .L231+16
 1805 0b78 FB18     		add	r3, r7, r3
 1806 0b7a 0021     		mov	r1, #0
 1807 0b7c 5B5E     		ldrsh	r3, [r3, r1]
 1808 0b7e D31A     		sub	r3, r2, r3
 1809 0b80 E422     		mov	r2, #228
 1810 0b82 5200     		lsl	r2, r2, #1
 1811 0b84 BA18     		add	r2, r7, r2
 1812 0b86 1360     		str	r3, [r2]
 1813 0b88 1023     		mov	r3, #16
 1814 0b8a E222     		mov	r2, #226
 1815 0b8c 5200     		lsl	r2, r2, #1
 1816 0b8e BA18     		add	r2, r7, r2
 1817 0b90 1360     		str	r3, [r2]
 1818              	.LBB138:
 1819              	.LBB139:
 699:.\Include/arm_math.h ****     for (i = 0; i < (y - 1); i++)
 1820              		.loc 2 699 0
 1821 0b92 0123     		mov	r3, #1
 1822 0b94 E022     		mov	r2, #224
 1823 0b96 5200     		lsl	r2, r2, #1
 1824 0b98 BA18     		add	r2, r7, r2
 1825 0b9a 1360     		str	r3, [r2]
 700:.\Include/arm_math.h ****     {
 1826              		.loc 2 700 0
ARM GAS  C:\Users\fneves\AppData\Local\Temp\cc0ayw4Y.s 			page 60


 1827 0b9c 0023     		mov	r3, #0
 1828 0b9e DE22     		mov	r2, #222
 1829 0ba0 5200     		lsl	r2, r2, #1
 1830 0ba2 BA18     		add	r2, r7, r2
 1831 0ba4 1360     		str	r3, [r2]
 1832 0ba6 11E0     		b	.L54
 1833              	.L55:
 702:.\Include/arm_math.h ****     }
 1834              		.loc 2 702 0
 1835 0ba8 E023     		mov	r3, #224
 1836 0baa 5B00     		lsl	r3, r3, #1
 1837 0bac FB18     		add	r3, r7, r3
 1838 0bae 1B68     		ldr	r3, [r3]
 1839 0bb0 5B00     		lsl	r3, r3, #1
 1840 0bb2 E022     		mov	r2, #224
 1841 0bb4 5200     		lsl	r2, r2, #1
 1842 0bb6 BA18     		add	r2, r7, r2
 1843 0bb8 1360     		str	r3, [r2]
 700:.\Include/arm_math.h ****     {
 1844              		.loc 2 700 0
 1845 0bba DE23     		mov	r3, #222
 1846 0bbc 5B00     		lsl	r3, r3, #1
 1847 0bbe FB18     		add	r3, r7, r3
 1848 0bc0 1B68     		ldr	r3, [r3]
 1849 0bc2 0133     		add	r3, r3, #1
 1850 0bc4 DE22     		mov	r2, #222
 1851 0bc6 5200     		lsl	r2, r2, #1
 1852 0bc8 BA18     		add	r2, r7, r2
 1853 0bca 1360     		str	r3, [r2]
 1854              	.L54:
 1855 0bcc E223     		mov	r3, #226
 1856 0bce 5B00     		lsl	r3, r3, #1
 1857 0bd0 FB18     		add	r3, r7, r3
 1858 0bd2 1B68     		ldr	r3, [r3]
 1859 0bd4 013B     		sub	r3, r3, #1
 1860 0bd6 DE22     		mov	r2, #222
 1861 0bd8 5200     		lsl	r2, r2, #1
 1862 0bda BA18     		add	r2, r7, r2
 1863 0bdc 1268     		ldr	r2, [r2]
 1864 0bde 9A42     		cmp	r2, r3
 1865 0be0 E2D3     		bcc	.L55
 705:.\Include/arm_math.h ****     {
 1866              		.loc 2 705 0
 1867 0be2 E423     		mov	r3, #228
 1868 0be4 5B00     		lsl	r3, r3, #1
 1869 0be6 FB18     		add	r3, r7, r3
 1870 0be8 1B68     		ldr	r3, [r3]
 1871 0bea 002B     		cmp	r3, #0
 1872 0bec 1BDD     		ble	.L56
 707:.\Include/arm_math.h **** 
 1873              		.loc 2 707 0
 1874 0bee E023     		mov	r3, #224
 1875 0bf0 5B00     		lsl	r3, r3, #1
 1876 0bf2 FB18     		add	r3, r7, r3
 1877 0bf4 1B68     		ldr	r3, [r3]
 1878 0bf6 013B     		sub	r3, r3, #1
 1879 0bf8 E022     		mov	r2, #224
ARM GAS  C:\Users\fneves\AppData\Local\Temp\cc0ayw4Y.s 			page 61


 1880 0bfa 5200     		lsl	r2, r2, #1
 1881 0bfc BA18     		add	r2, r7, r2
 1882 0bfe 1360     		str	r3, [r2]
 709:.\Include/arm_math.h ****       {
 1883              		.loc 2 709 0
 1884 0c00 E423     		mov	r3, #228
 1885 0c02 5B00     		lsl	r3, r3, #1
 1886 0c04 FB18     		add	r3, r7, r3
 1887 0c06 1A68     		ldr	r2, [r3]
 1888 0c08 E023     		mov	r3, #224
 1889 0c0a 5B00     		lsl	r3, r3, #1
 1890 0c0c FB18     		add	r3, r7, r3
 1891 0c0e 1B68     		ldr	r3, [r3]
 1892 0c10 9A42     		cmp	r2, r3
 1893 0c12 24DD     		ble	.L203
 711:.\Include/arm_math.h ****       }
 1894              		.loc 2 711 0
 1895 0c14 E023     		mov	r3, #224
 1896 0c16 5B00     		lsl	r3, r3, #1
 1897 0c18 FB18     		add	r3, r7, r3
 1898 0c1a 1B68     		ldr	r3, [r3]
 1899 0c1c E422     		mov	r2, #228
 1900 0c1e 5200     		lsl	r2, r2, #1
 1901 0c20 BA18     		add	r2, r7, r2
 1902 0c22 1360     		str	r3, [r2]
 1903 0c24 1CE0     		b	.L58
 1904              	.L56:
 716:.\Include/arm_math.h **** 
 1905              		.loc 2 716 0
 1906 0c26 E023     		mov	r3, #224
 1907 0c28 5B00     		lsl	r3, r3, #1
 1908 0c2a FB18     		add	r3, r7, r3
 1909 0c2c 1B68     		ldr	r3, [r3]
 1910 0c2e 5B42     		neg	r3, r3
 1911 0c30 DC22     		mov	r2, #220
 1912 0c32 5200     		lsl	r2, r2, #1
 1913 0c34 BA18     		add	r2, r7, r2
 1914 0c36 1360     		str	r3, [r2]
 718:.\Include/arm_math.h ****       {
 1915              		.loc 2 718 0
 1916 0c38 E423     		mov	r3, #228
 1917 0c3a 5B00     		lsl	r3, r3, #1
 1918 0c3c FB18     		add	r3, r7, r3
 1919 0c3e 1A68     		ldr	r2, [r3]
 1920 0c40 DC23     		mov	r3, #220
 1921 0c42 5B00     		lsl	r3, r3, #1
 1922 0c44 FB18     		add	r3, r7, r3
 1923 0c46 1B68     		ldr	r3, [r3]
 1924 0c48 9A42     		cmp	r2, r3
 1925 0c4a 09DA     		bge	.L58
 720:.\Include/arm_math.h ****       }
 1926              		.loc 2 720 0
 1927 0c4c DC23     		mov	r3, #220
 1928 0c4e 5B00     		lsl	r3, r3, #1
 1929 0c50 FB18     		add	r3, r7, r3
 1930 0c52 1B68     		ldr	r3, [r3]
 1931 0c54 E422     		mov	r2, #228
ARM GAS  C:\Users\fneves\AppData\Local\Temp\cc0ayw4Y.s 			page 62


 1932 0c56 5200     		lsl	r2, r2, #1
 1933 0c58 BA18     		add	r2, r7, r2
 1934 0c5a 1360     		str	r3, [r2]
 1935 0c5c 00E0     		b	.L58
 1936              	.L203:
 711:.\Include/arm_math.h ****       }
 1937              		.loc 2 711 0
 1938 0c5e C046     		mov	r8, r8
 1939              	.L58:
 1940              		.loc 2 723 0
 1941 0c60 E423     		mov	r3, #228
 1942 0c62 5B00     		lsl	r3, r3, #1
 1943 0c64 FB18     		add	r3, r7, r3
 1944 0c66 1A68     		ldr	r2, [r3]
 1945              	.LBE139:
 1946              	.LBE138:
 1947              		.loc 1 726 0
 1948 0c68 544B     		ldr	r3, .L231+12
 1949 0c6a FB18     		add	r3, r7, r3
 1950 0c6c 1A80     		strh	r2, [r3]
 727:Source\TransformFunctions/arm_cfft_radix4_q15.c ****     /* T1 = xb-xd */
 728:Source\TransformFunctions/arm_cfft_radix4_q15.c ****     T1 = __SSAT(T1 - U1, 16);
 1951              		.loc 1 728 0
 1952 0c6e A223     		mov	r3, #162
 1953 0c70 9B00     		lsl	r3, r3, #2
 1954 0c72 FB18     		add	r3, r7, r3
 1955 0c74 0022     		mov	r2, #0
 1956 0c76 9A5E     		ldrsh	r2, [r3, r2]
 1957 0c78 9F23     		mov	r3, #159
 1958 0c7a 9B00     		lsl	r3, r3, #2
 1959 0c7c FB18     		add	r3, r7, r3
 1960 0c7e 0021     		mov	r1, #0
 1961 0c80 5B5E     		ldrsh	r3, [r3, r1]
 1962 0c82 D31A     		sub	r3, r2, r3
 1963 0c84 DA22     		mov	r2, #218
 1964 0c86 5200     		lsl	r2, r2, #1
 1965 0c88 BA18     		add	r2, r7, r2
 1966 0c8a 1360     		str	r3, [r2]
 1967 0c8c 1023     		mov	r3, #16
 1968 0c8e D822     		mov	r2, #216
 1969 0c90 5200     		lsl	r2, r2, #1
 1970 0c92 BA18     		add	r2, r7, r2
 1971 0c94 1360     		str	r3, [r2]
 1972              	.LBB140:
 1973              	.LBB141:
 699:.\Include/arm_math.h ****     for (i = 0; i < (y - 1); i++)
 1974              		.loc 2 699 0
 1975 0c96 0123     		mov	r3, #1
 1976 0c98 D622     		mov	r2, #214
 1977 0c9a 5200     		lsl	r2, r2, #1
 1978 0c9c BA18     		add	r2, r7, r2
 1979 0c9e 1360     		str	r3, [r2]
 700:.\Include/arm_math.h ****     {
 1980              		.loc 2 700 0
 1981 0ca0 0023     		mov	r3, #0
 1982 0ca2 D422     		mov	r2, #212
 1983 0ca4 5200     		lsl	r2, r2, #1
ARM GAS  C:\Users\fneves\AppData\Local\Temp\cc0ayw4Y.s 			page 63


 1984 0ca6 BA18     		add	r2, r7, r2
 1985 0ca8 1360     		str	r3, [r2]
 1986 0caa 11E0     		b	.L60
 1987              	.L61:
 702:.\Include/arm_math.h ****     }
 1988              		.loc 2 702 0
 1989 0cac D623     		mov	r3, #214
 1990 0cae 5B00     		lsl	r3, r3, #1
 1991 0cb0 FB18     		add	r3, r7, r3
 1992 0cb2 1B68     		ldr	r3, [r3]
 1993 0cb4 5B00     		lsl	r3, r3, #1
 1994 0cb6 D622     		mov	r2, #214
 1995 0cb8 5200     		lsl	r2, r2, #1
 1996 0cba BA18     		add	r2, r7, r2
 1997 0cbc 1360     		str	r3, [r2]
 700:.\Include/arm_math.h ****     {
 1998              		.loc 2 700 0
 1999 0cbe D423     		mov	r3, #212
 2000 0cc0 5B00     		lsl	r3, r3, #1
 2001 0cc2 FB18     		add	r3, r7, r3
 2002 0cc4 1B68     		ldr	r3, [r3]
 2003 0cc6 0133     		add	r3, r3, #1
 2004 0cc8 D422     		mov	r2, #212
 2005 0cca 5200     		lsl	r2, r2, #1
 2006 0ccc BA18     		add	r2, r7, r2
 2007 0cce 1360     		str	r3, [r2]
 2008              	.L60:
 2009 0cd0 D823     		mov	r3, #216
 2010 0cd2 5B00     		lsl	r3, r3, #1
 2011 0cd4 FB18     		add	r3, r7, r3
 2012 0cd6 1B68     		ldr	r3, [r3]
 2013 0cd8 013B     		sub	r3, r3, #1
 2014 0cda D422     		mov	r2, #212
 2015 0cdc 5200     		lsl	r2, r2, #1
 2016 0cde BA18     		add	r2, r7, r2
 2017 0ce0 1268     		ldr	r2, [r2]
 2018 0ce2 9A42     		cmp	r2, r3
 2019 0ce4 E2D3     		bcc	.L61
 705:.\Include/arm_math.h ****     {
 2020              		.loc 2 705 0
 2021 0ce6 DA23     		mov	r3, #218
 2022 0ce8 5B00     		lsl	r3, r3, #1
 2023 0cea FB18     		add	r3, r7, r3
 2024 0cec 1B68     		ldr	r3, [r3]
 2025 0cee 002B     		cmp	r3, #0
 2026 0cf0 1BDD     		ble	.L62
 707:.\Include/arm_math.h **** 
 2027              		.loc 2 707 0
 2028 0cf2 D623     		mov	r3, #214
 2029 0cf4 5B00     		lsl	r3, r3, #1
 2030 0cf6 FB18     		add	r3, r7, r3
 2031 0cf8 1B68     		ldr	r3, [r3]
 2032 0cfa 013B     		sub	r3, r3, #1
 2033 0cfc D622     		mov	r2, #214
 2034 0cfe 5200     		lsl	r2, r2, #1
 2035 0d00 BA18     		add	r2, r7, r2
 2036 0d02 1360     		str	r3, [r2]
ARM GAS  C:\Users\fneves\AppData\Local\Temp\cc0ayw4Y.s 			page 64


 709:.\Include/arm_math.h ****       {
 2037              		.loc 2 709 0
 2038 0d04 DA23     		mov	r3, #218
 2039 0d06 5B00     		lsl	r3, r3, #1
 2040 0d08 FB18     		add	r3, r7, r3
 2041 0d0a 1A68     		ldr	r2, [r3]
 2042 0d0c D623     		mov	r3, #214
 2043 0d0e 5B00     		lsl	r3, r3, #1
 2044 0d10 FB18     		add	r3, r7, r3
 2045 0d12 1B68     		ldr	r3, [r3]
 2046 0d14 9A42     		cmp	r2, r3
 2047 0d16 24DD     		ble	.L204
 711:.\Include/arm_math.h ****       }
 2048              		.loc 2 711 0
 2049 0d18 D623     		mov	r3, #214
 2050 0d1a 5B00     		lsl	r3, r3, #1
 2051 0d1c FB18     		add	r3, r7, r3
 2052 0d1e 1B68     		ldr	r3, [r3]
 2053 0d20 DA22     		mov	r2, #218
 2054 0d22 5200     		lsl	r2, r2, #1
 2055 0d24 BA18     		add	r2, r7, r2
 2056 0d26 1360     		str	r3, [r2]
 2057 0d28 1CE0     		b	.L64
 2058              	.L62:
 716:.\Include/arm_math.h **** 
 2059              		.loc 2 716 0
 2060 0d2a D623     		mov	r3, #214
 2061 0d2c 5B00     		lsl	r3, r3, #1
 2062 0d2e FB18     		add	r3, r7, r3
 2063 0d30 1B68     		ldr	r3, [r3]
 2064 0d32 5B42     		neg	r3, r3
 2065 0d34 D222     		mov	r2, #210
 2066 0d36 5200     		lsl	r2, r2, #1
 2067 0d38 BA18     		add	r2, r7, r2
 2068 0d3a 1360     		str	r3, [r2]
 718:.\Include/arm_math.h ****       {
 2069              		.loc 2 718 0
 2070 0d3c DA23     		mov	r3, #218
 2071 0d3e 5B00     		lsl	r3, r3, #1
 2072 0d40 FB18     		add	r3, r7, r3
 2073 0d42 1A68     		ldr	r2, [r3]
 2074 0d44 D223     		mov	r3, #210
 2075 0d46 5B00     		lsl	r3, r3, #1
 2076 0d48 FB18     		add	r3, r7, r3
 2077 0d4a 1B68     		ldr	r3, [r3]
 2078 0d4c 9A42     		cmp	r2, r3
 2079 0d4e 09DA     		bge	.L64
 720:.\Include/arm_math.h ****       }
 2080              		.loc 2 720 0
 2081 0d50 D223     		mov	r3, #210
 2082 0d52 5B00     		lsl	r3, r3, #1
 2083 0d54 FB18     		add	r3, r7, r3
 2084 0d56 1B68     		ldr	r3, [r3]
 2085 0d58 DA22     		mov	r2, #218
 2086 0d5a 5200     		lsl	r2, r2, #1
 2087 0d5c BA18     		add	r2, r7, r2
 2088 0d5e 1360     		str	r3, [r2]
ARM GAS  C:\Users\fneves\AppData\Local\Temp\cc0ayw4Y.s 			page 65


 2089 0d60 00E0     		b	.L64
 2090              	.L204:
 711:.\Include/arm_math.h ****       }
 2091              		.loc 2 711 0
 2092 0d62 C046     		mov	r8, r8
 2093              	.L64:
 2094              		.loc 2 723 0
 2095 0d64 DA23     		mov	r3, #218
 2096 0d66 5B00     		lsl	r3, r3, #1
 2097 0d68 FB18     		add	r3, r7, r3
 2098 0d6a 1A68     		ldr	r2, [r3]
 2099              	.LBE141:
 2100              	.LBE140:
 2101              		.loc 1 728 0
 2102 0d6c A223     		mov	r3, #162
 2103 0d6e 9B00     		lsl	r3, r3, #2
 2104 0d70 FB18     		add	r3, r7, r3
 2105 0d72 1A80     		strh	r2, [r3]
 729:Source\TransformFunctions/arm_cfft_radix4_q15.c **** 
 730:Source\TransformFunctions/arm_cfft_radix4_q15.c ****     /* R1 = (ya-yc) + (xb- xd),  R0 = (xa-xc) - (yb-yd)) */
 731:Source\TransformFunctions/arm_cfft_radix4_q15.c ****     R0 = (q15_t) __SSAT((q31_t) (S0 - T1), 16);
 2106              		.loc 1 731 0
 2107 0d74 134B     		ldr	r3, .L231+20
 2108 0d76 FB18     		add	r3, r7, r3
 2109 0d78 0022     		mov	r2, #0
 2110 0d7a 9A5E     		ldrsh	r2, [r3, r2]
 2111 0d7c A223     		mov	r3, #162
 2112 0d7e 9B00     		lsl	r3, r3, #2
 2113 0d80 FB18     		add	r3, r7, r3
 2114 0d82 0021     		mov	r1, #0
 2115 0d84 5B5E     		ldrsh	r3, [r3, r1]
 2116 0d86 D31A     		sub	r3, r2, r3
 2117 0d88 D022     		mov	r2, #208
 2118 0d8a 5200     		lsl	r2, r2, #1
 2119 0d8c BA18     		add	r2, r7, r2
 2120 0d8e 1360     		str	r3, [r2]
 2121 0d90 1023     		mov	r3, #16
 2122 0d92 CE22     		mov	r2, #206
 2123 0d94 5200     		lsl	r2, r2, #1
 2124 0d96 BA18     		add	r2, r7, r2
 2125 0d98 1360     		str	r3, [r2]
 2126              	.LBB142:
 2127              	.LBB143:
 699:.\Include/arm_math.h ****     for (i = 0; i < (y - 1); i++)
 2128              		.loc 2 699 0
 2129 0d9a 0123     		mov	r3, #1
 2130 0d9c CC22     		mov	r2, #204
 2131 0d9e 5200     		lsl	r2, r2, #1
 2132 0da0 BA18     		add	r2, r7, r2
 2133 0da2 1360     		str	r3, [r2]
 700:.\Include/arm_math.h ****     {
 2134              		.loc 2 700 0
 2135 0da4 0023     		mov	r3, #0
 2136 0da6 CA22     		mov	r2, #202
 2137 0da8 5200     		lsl	r2, r2, #1
 2138 0daa BA18     		add	r2, r7, r2
 2139 0dac 1360     		str	r3, [r2]
ARM GAS  C:\Users\fneves\AppData\Local\Temp\cc0ayw4Y.s 			page 66


 2140 0dae 1DE0     		b	.L66
 2141              	.L232:
 2142              		.align	2
 2143              	.L231:
 2144 0db0 7A020000 		.word	634
 2145 0db4 82020000 		.word	642
 2146 0db8 76020000 		.word	630
 2147 0dbc 8A020000 		.word	650
 2148 0dc0 7E020000 		.word	638
 2149 0dc4 86020000 		.word	646
 2150              	.L67:
 702:.\Include/arm_math.h ****     }
 2151              		.loc 2 702 0
 2152 0dc8 CC23     		mov	r3, #204
 2153 0dca 5B00     		lsl	r3, r3, #1
 2154 0dcc FB18     		add	r3, r7, r3
 2155 0dce 1B68     		ldr	r3, [r3]
 2156 0dd0 5B00     		lsl	r3, r3, #1
 2157 0dd2 CC22     		mov	r2, #204
 2158 0dd4 5200     		lsl	r2, r2, #1
 2159 0dd6 BA18     		add	r2, r7, r2
 2160 0dd8 1360     		str	r3, [r2]
 700:.\Include/arm_math.h ****     {
 2161              		.loc 2 700 0
 2162 0dda CA23     		mov	r3, #202
 2163 0ddc 5B00     		lsl	r3, r3, #1
 2164 0dde FB18     		add	r3, r7, r3
 2165 0de0 1B68     		ldr	r3, [r3]
 2166 0de2 0133     		add	r3, r3, #1
 2167 0de4 CA22     		mov	r2, #202
 2168 0de6 5200     		lsl	r2, r2, #1
 2169 0de8 BA18     		add	r2, r7, r2
 2170 0dea 1360     		str	r3, [r2]
 2171              	.L66:
 2172 0dec CE23     		mov	r3, #206
 2173 0dee 5B00     		lsl	r3, r3, #1
 2174 0df0 FB18     		add	r3, r7, r3
 2175 0df2 1B68     		ldr	r3, [r3]
 2176 0df4 013B     		sub	r3, r3, #1
 2177 0df6 CA22     		mov	r2, #202
 2178 0df8 5200     		lsl	r2, r2, #1
 2179 0dfa BA18     		add	r2, r7, r2
 2180 0dfc 1268     		ldr	r2, [r2]
 2181 0dfe 9A42     		cmp	r2, r3
 2182 0e00 E2D3     		bcc	.L67
 705:.\Include/arm_math.h ****     {
 2183              		.loc 2 705 0
 2184 0e02 D023     		mov	r3, #208
 2185 0e04 5B00     		lsl	r3, r3, #1
 2186 0e06 FB18     		add	r3, r7, r3
 2187 0e08 1B68     		ldr	r3, [r3]
 2188 0e0a 002B     		cmp	r3, #0
 2189 0e0c 1BDD     		ble	.L68
 707:.\Include/arm_math.h **** 
 2190              		.loc 2 707 0
 2191 0e0e CC23     		mov	r3, #204
 2192 0e10 5B00     		lsl	r3, r3, #1
ARM GAS  C:\Users\fneves\AppData\Local\Temp\cc0ayw4Y.s 			page 67


 2193 0e12 FB18     		add	r3, r7, r3
 2194 0e14 1B68     		ldr	r3, [r3]
 2195 0e16 013B     		sub	r3, r3, #1
 2196 0e18 CC22     		mov	r2, #204
 2197 0e1a 5200     		lsl	r2, r2, #1
 2198 0e1c BA18     		add	r2, r7, r2
 2199 0e1e 1360     		str	r3, [r2]
 709:.\Include/arm_math.h ****       {
 2200              		.loc 2 709 0
 2201 0e20 D023     		mov	r3, #208
 2202 0e22 5B00     		lsl	r3, r3, #1
 2203 0e24 FB18     		add	r3, r7, r3
 2204 0e26 1A68     		ldr	r2, [r3]
 2205 0e28 CC23     		mov	r3, #204
 2206 0e2a 5B00     		lsl	r3, r3, #1
 2207 0e2c FB18     		add	r3, r7, r3
 2208 0e2e 1B68     		ldr	r3, [r3]
 2209 0e30 9A42     		cmp	r2, r3
 2210 0e32 24DD     		ble	.L205
 711:.\Include/arm_math.h ****       }
 2211              		.loc 2 711 0
 2212 0e34 CC23     		mov	r3, #204
 2213 0e36 5B00     		lsl	r3, r3, #1
 2214 0e38 FB18     		add	r3, r7, r3
 2215 0e3a 1B68     		ldr	r3, [r3]
 2216 0e3c D022     		mov	r2, #208
 2217 0e3e 5200     		lsl	r2, r2, #1
 2218 0e40 BA18     		add	r2, r7, r2
 2219 0e42 1360     		str	r3, [r2]
 2220 0e44 1CE0     		b	.L70
 2221              	.L68:
 716:.\Include/arm_math.h **** 
 2222              		.loc 2 716 0
 2223 0e46 CC23     		mov	r3, #204
 2224 0e48 5B00     		lsl	r3, r3, #1
 2225 0e4a FB18     		add	r3, r7, r3
 2226 0e4c 1B68     		ldr	r3, [r3]
 2227 0e4e 5B42     		neg	r3, r3
 2228 0e50 C822     		mov	r2, #200
 2229 0e52 5200     		lsl	r2, r2, #1
 2230 0e54 BA18     		add	r2, r7, r2
 2231 0e56 1360     		str	r3, [r2]
 718:.\Include/arm_math.h ****       {
 2232              		.loc 2 718 0
 2233 0e58 D023     		mov	r3, #208
 2234 0e5a 5B00     		lsl	r3, r3, #1
 2235 0e5c FB18     		add	r3, r7, r3
 2236 0e5e 1A68     		ldr	r2, [r3]
 2237 0e60 C823     		mov	r3, #200
 2238 0e62 5B00     		lsl	r3, r3, #1
 2239 0e64 FB18     		add	r3, r7, r3
 2240 0e66 1B68     		ldr	r3, [r3]
 2241 0e68 9A42     		cmp	r2, r3
 2242 0e6a 09DA     		bge	.L70
 720:.\Include/arm_math.h ****       }
 2243              		.loc 2 720 0
 2244 0e6c C823     		mov	r3, #200
ARM GAS  C:\Users\fneves\AppData\Local\Temp\cc0ayw4Y.s 			page 68


 2245 0e6e 5B00     		lsl	r3, r3, #1
 2246 0e70 FB18     		add	r3, r7, r3
 2247 0e72 1B68     		ldr	r3, [r3]
 2248 0e74 D022     		mov	r2, #208
 2249 0e76 5200     		lsl	r2, r2, #1
 2250 0e78 BA18     		add	r2, r7, r2
 2251 0e7a 1360     		str	r3, [r2]
 2252 0e7c 00E0     		b	.L70
 2253              	.L205:
 711:.\Include/arm_math.h ****       }
 2254              		.loc 2 711 0
 2255 0e7e C046     		mov	r8, r8
 2256              	.L70:
 2257              		.loc 2 723 0
 2258 0e80 D023     		mov	r3, #208
 2259 0e82 5B00     		lsl	r3, r3, #1
 2260 0e84 FB18     		add	r3, r7, r3
 2261 0e86 1A68     		ldr	r2, [r3]
 2262              	.LBE143:
 2263              	.LBE142:
 2264              		.loc 1 731 0
 2265 0e88 BF4B     		ldr	r3, .L233
 2266 0e8a FB18     		add	r3, r7, r3
 2267 0e8c 1A80     		strh	r2, [r3]
 732:Source\TransformFunctions/arm_cfft_radix4_q15.c ****     R1 = (q15_t) __SSAT((q31_t) (S1 + T0), 16);
 2268              		.loc 1 732 0
 2269 0e8e A123     		mov	r3, #161
 2270 0e90 9B00     		lsl	r3, r3, #2
 2271 0e92 FB18     		add	r3, r7, r3
 2272 0e94 0022     		mov	r2, #0
 2273 0e96 9A5E     		ldrsh	r2, [r3, r2]
 2274 0e98 BC4B     		ldr	r3, .L233+4
 2275 0e9a FB18     		add	r3, r7, r3
 2276 0e9c 0021     		mov	r1, #0
 2277 0e9e 5B5E     		ldrsh	r3, [r3, r1]
 2278 0ea0 D318     		add	r3, r2, r3
 2279 0ea2 C622     		mov	r2, #198
 2280 0ea4 5200     		lsl	r2, r2, #1
 2281 0ea6 BA18     		add	r2, r7, r2
 2282 0ea8 1360     		str	r3, [r2]
 2283 0eaa 1023     		mov	r3, #16
 2284 0eac C422     		mov	r2, #196
 2285 0eae 5200     		lsl	r2, r2, #1
 2286 0eb0 BA18     		add	r2, r7, r2
 2287 0eb2 1360     		str	r3, [r2]
 2288              	.LBB144:
 2289              	.LBB145:
 699:.\Include/arm_math.h ****     for (i = 0; i < (y - 1); i++)
 2290              		.loc 2 699 0
 2291 0eb4 0123     		mov	r3, #1
 2292 0eb6 C222     		mov	r2, #194
 2293 0eb8 5200     		lsl	r2, r2, #1
 2294 0eba BA18     		add	r2, r7, r2
 2295 0ebc 1360     		str	r3, [r2]
 700:.\Include/arm_math.h ****     {
 2296              		.loc 2 700 0
 2297 0ebe 0023     		mov	r3, #0
ARM GAS  C:\Users\fneves\AppData\Local\Temp\cc0ayw4Y.s 			page 69


 2298 0ec0 C022     		mov	r2, #192
 2299 0ec2 5200     		lsl	r2, r2, #1
 2300 0ec4 BA18     		add	r2, r7, r2
 2301 0ec6 1360     		str	r3, [r2]
 2302 0ec8 11E0     		b	.L72
 2303              	.L73:
 702:.\Include/arm_math.h ****     }
 2304              		.loc 2 702 0
 2305 0eca C223     		mov	r3, #194
 2306 0ecc 5B00     		lsl	r3, r3, #1
 2307 0ece FB18     		add	r3, r7, r3
 2308 0ed0 1B68     		ldr	r3, [r3]
 2309 0ed2 5B00     		lsl	r3, r3, #1
 2310 0ed4 C222     		mov	r2, #194
 2311 0ed6 5200     		lsl	r2, r2, #1
 2312 0ed8 BA18     		add	r2, r7, r2
 2313 0eda 1360     		str	r3, [r2]
 700:.\Include/arm_math.h ****     {
 2314              		.loc 2 700 0
 2315 0edc C023     		mov	r3, #192
 2316 0ede 5B00     		lsl	r3, r3, #1
 2317 0ee0 FB18     		add	r3, r7, r3
 2318 0ee2 1B68     		ldr	r3, [r3]
 2319 0ee4 0133     		add	r3, r3, #1
 2320 0ee6 C022     		mov	r2, #192
 2321 0ee8 5200     		lsl	r2, r2, #1
 2322 0eea BA18     		add	r2, r7, r2
 2323 0eec 1360     		str	r3, [r2]
 2324              	.L72:
 2325 0eee C423     		mov	r3, #196
 2326 0ef0 5B00     		lsl	r3, r3, #1
 2327 0ef2 FB18     		add	r3, r7, r3
 2328 0ef4 1B68     		ldr	r3, [r3]
 2329 0ef6 013B     		sub	r3, r3, #1
 2330 0ef8 C022     		mov	r2, #192
 2331 0efa 5200     		lsl	r2, r2, #1
 2332 0efc BA18     		add	r2, r7, r2
 2333 0efe 1268     		ldr	r2, [r2]
 2334 0f00 9A42     		cmp	r2, r3
 2335 0f02 E2D3     		bcc	.L73
 705:.\Include/arm_math.h ****     {
 2336              		.loc 2 705 0
 2337 0f04 C623     		mov	r3, #198
 2338 0f06 5B00     		lsl	r3, r3, #1
 2339 0f08 FB18     		add	r3, r7, r3
 2340 0f0a 1B68     		ldr	r3, [r3]
 2341 0f0c 002B     		cmp	r3, #0
 2342 0f0e 1BDD     		ble	.L74
 707:.\Include/arm_math.h **** 
 2343              		.loc 2 707 0
 2344 0f10 C223     		mov	r3, #194
 2345 0f12 5B00     		lsl	r3, r3, #1
 2346 0f14 FB18     		add	r3, r7, r3
 2347 0f16 1B68     		ldr	r3, [r3]
 2348 0f18 013B     		sub	r3, r3, #1
 2349 0f1a C222     		mov	r2, #194
 2350 0f1c 5200     		lsl	r2, r2, #1
ARM GAS  C:\Users\fneves\AppData\Local\Temp\cc0ayw4Y.s 			page 70


 2351 0f1e BA18     		add	r2, r7, r2
 2352 0f20 1360     		str	r3, [r2]
 709:.\Include/arm_math.h ****       {
 2353              		.loc 2 709 0
 2354 0f22 C623     		mov	r3, #198
 2355 0f24 5B00     		lsl	r3, r3, #1
 2356 0f26 FB18     		add	r3, r7, r3
 2357 0f28 1A68     		ldr	r2, [r3]
 2358 0f2a C223     		mov	r3, #194
 2359 0f2c 5B00     		lsl	r3, r3, #1
 2360 0f2e FB18     		add	r3, r7, r3
 2361 0f30 1B68     		ldr	r3, [r3]
 2362 0f32 9A42     		cmp	r2, r3
 2363 0f34 24DD     		ble	.L206
 711:.\Include/arm_math.h ****       }
 2364              		.loc 2 711 0
 2365 0f36 C223     		mov	r3, #194
 2366 0f38 5B00     		lsl	r3, r3, #1
 2367 0f3a FB18     		add	r3, r7, r3
 2368 0f3c 1B68     		ldr	r3, [r3]
 2369 0f3e C622     		mov	r2, #198
 2370 0f40 5200     		lsl	r2, r2, #1
 2371 0f42 BA18     		add	r2, r7, r2
 2372 0f44 1360     		str	r3, [r2]
 2373 0f46 1CE0     		b	.L76
 2374              	.L74:
 716:.\Include/arm_math.h **** 
 2375              		.loc 2 716 0
 2376 0f48 C223     		mov	r3, #194
 2377 0f4a 5B00     		lsl	r3, r3, #1
 2378 0f4c FB18     		add	r3, r7, r3
 2379 0f4e 1B68     		ldr	r3, [r3]
 2380 0f50 5B42     		neg	r3, r3
 2381 0f52 BE22     		mov	r2, #190
 2382 0f54 5200     		lsl	r2, r2, #1
 2383 0f56 BA18     		add	r2, r7, r2
 2384 0f58 1360     		str	r3, [r2]
 718:.\Include/arm_math.h ****       {
 2385              		.loc 2 718 0
 2386 0f5a C623     		mov	r3, #198
 2387 0f5c 5B00     		lsl	r3, r3, #1
 2388 0f5e FB18     		add	r3, r7, r3
 2389 0f60 1A68     		ldr	r2, [r3]
 2390 0f62 BE23     		mov	r3, #190
 2391 0f64 5B00     		lsl	r3, r3, #1
 2392 0f66 FB18     		add	r3, r7, r3
 2393 0f68 1B68     		ldr	r3, [r3]
 2394 0f6a 9A42     		cmp	r2, r3
 2395 0f6c 09DA     		bge	.L76
 720:.\Include/arm_math.h ****       }
 2396              		.loc 2 720 0
 2397 0f6e BE23     		mov	r3, #190
 2398 0f70 5B00     		lsl	r3, r3, #1
 2399 0f72 FB18     		add	r3, r7, r3
 2400 0f74 1B68     		ldr	r3, [r3]
 2401 0f76 C622     		mov	r2, #198
 2402 0f78 5200     		lsl	r2, r2, #1
ARM GAS  C:\Users\fneves\AppData\Local\Temp\cc0ayw4Y.s 			page 71


 2403 0f7a BA18     		add	r2, r7, r2
 2404 0f7c 1360     		str	r3, [r2]
 2405 0f7e 00E0     		b	.L76
 2406              	.L206:
 711:.\Include/arm_math.h ****       }
 2407              		.loc 2 711 0
 2408 0f80 C046     		mov	r8, r8
 2409              	.L76:
 2410              		.loc 2 723 0
 2411 0f82 C623     		mov	r3, #198
 2412 0f84 5B00     		lsl	r3, r3, #1
 2413 0f86 FB18     		add	r3, r7, r3
 2414 0f88 1A68     		ldr	r2, [r3]
 2415              	.LBE145:
 2416              	.LBE144:
 2417              		.loc 1 732 0
 2418 0f8a A023     		mov	r3, #160
 2419 0f8c 9B00     		lsl	r3, r3, #2
 2420 0f8e FB18     		add	r3, r7, r3
 2421 0f90 1A80     		strh	r2, [r3]
 733:Source\TransformFunctions/arm_cfft_radix4_q15.c **** 
 734:Source\TransformFunctions/arm_cfft_radix4_q15.c ****     /* S1 = (ya-yc) - (xb- xd), S0 = (xa-xc) + (yb-yd)) */
 735:Source\TransformFunctions/arm_cfft_radix4_q15.c ****     S0 = (q15_t) __SSAT(((q31_t) S0 + T1), 16u);
 2422              		.loc 1 735 0
 2423 0f92 7F4B     		ldr	r3, .L233+8
 2424 0f94 FB18     		add	r3, r7, r3
 2425 0f96 0022     		mov	r2, #0
 2426 0f98 9A5E     		ldrsh	r2, [r3, r2]
 2427 0f9a A223     		mov	r3, #162
 2428 0f9c 9B00     		lsl	r3, r3, #2
 2429 0f9e FB18     		add	r3, r7, r3
 2430 0fa0 0021     		mov	r1, #0
 2431 0fa2 5B5E     		ldrsh	r3, [r3, r1]
 2432 0fa4 D318     		add	r3, r2, r3
 2433 0fa6 BC22     		mov	r2, #188
 2434 0fa8 5200     		lsl	r2, r2, #1
 2435 0faa BA18     		add	r2, r7, r2
 2436 0fac 1360     		str	r3, [r2]
 2437 0fae 1023     		mov	r3, #16
 2438 0fb0 BA22     		mov	r2, #186
 2439 0fb2 5200     		lsl	r2, r2, #1
 2440 0fb4 BA18     		add	r2, r7, r2
 2441 0fb6 1360     		str	r3, [r2]
 2442              	.LBB146:
 2443              	.LBB147:
 699:.\Include/arm_math.h ****     for (i = 0; i < (y - 1); i++)
 2444              		.loc 2 699 0
 2445 0fb8 0123     		mov	r3, #1
 2446 0fba B822     		mov	r2, #184
 2447 0fbc 5200     		lsl	r2, r2, #1
 2448 0fbe BA18     		add	r2, r7, r2
 2449 0fc0 1360     		str	r3, [r2]
 700:.\Include/arm_math.h ****     {
 2450              		.loc 2 700 0
 2451 0fc2 0023     		mov	r3, #0
 2452 0fc4 B622     		mov	r2, #182
 2453 0fc6 5200     		lsl	r2, r2, #1
ARM GAS  C:\Users\fneves\AppData\Local\Temp\cc0ayw4Y.s 			page 72


 2454 0fc8 BA18     		add	r2, r7, r2
 2455 0fca 1360     		str	r3, [r2]
 2456 0fcc 11E0     		b	.L78
 2457              	.L79:
 702:.\Include/arm_math.h ****     }
 2458              		.loc 2 702 0
 2459 0fce B823     		mov	r3, #184
 2460 0fd0 5B00     		lsl	r3, r3, #1
 2461 0fd2 FB18     		add	r3, r7, r3
 2462 0fd4 1B68     		ldr	r3, [r3]
 2463 0fd6 5B00     		lsl	r3, r3, #1
 2464 0fd8 B822     		mov	r2, #184
 2465 0fda 5200     		lsl	r2, r2, #1
 2466 0fdc BA18     		add	r2, r7, r2
 2467 0fde 1360     		str	r3, [r2]
 700:.\Include/arm_math.h ****     {
 2468              		.loc 2 700 0
 2469 0fe0 B623     		mov	r3, #182
 2470 0fe2 5B00     		lsl	r3, r3, #1
 2471 0fe4 FB18     		add	r3, r7, r3
 2472 0fe6 1B68     		ldr	r3, [r3]
 2473 0fe8 0133     		add	r3, r3, #1
 2474 0fea B622     		mov	r2, #182
 2475 0fec 5200     		lsl	r2, r2, #1
 2476 0fee BA18     		add	r2, r7, r2
 2477 0ff0 1360     		str	r3, [r2]
 2478              	.L78:
 2479 0ff2 BA23     		mov	r3, #186
 2480 0ff4 5B00     		lsl	r3, r3, #1
 2481 0ff6 FB18     		add	r3, r7, r3
 2482 0ff8 1B68     		ldr	r3, [r3]
 2483 0ffa 013B     		sub	r3, r3, #1
 2484 0ffc B622     		mov	r2, #182
 2485 0ffe 5200     		lsl	r2, r2, #1
 2486 1000 BA18     		add	r2, r7, r2
 2487 1002 1268     		ldr	r2, [r2]
 2488 1004 9A42     		cmp	r2, r3
 2489 1006 E2D3     		bcc	.L79
 705:.\Include/arm_math.h ****     {
 2490              		.loc 2 705 0
 2491 1008 BC23     		mov	r3, #188
 2492 100a 5B00     		lsl	r3, r3, #1
 2493 100c FB18     		add	r3, r7, r3
 2494 100e 1B68     		ldr	r3, [r3]
 2495 1010 002B     		cmp	r3, #0
 2496 1012 1BDD     		ble	.L80
 707:.\Include/arm_math.h **** 
 2497              		.loc 2 707 0
 2498 1014 B823     		mov	r3, #184
 2499 1016 5B00     		lsl	r3, r3, #1
 2500 1018 FB18     		add	r3, r7, r3
 2501 101a 1B68     		ldr	r3, [r3]
 2502 101c 013B     		sub	r3, r3, #1
 2503 101e B822     		mov	r2, #184
 2504 1020 5200     		lsl	r2, r2, #1
 2505 1022 BA18     		add	r2, r7, r2
 2506 1024 1360     		str	r3, [r2]
ARM GAS  C:\Users\fneves\AppData\Local\Temp\cc0ayw4Y.s 			page 73


 709:.\Include/arm_math.h ****       {
 2507              		.loc 2 709 0
 2508 1026 BC23     		mov	r3, #188
 2509 1028 5B00     		lsl	r3, r3, #1
 2510 102a FB18     		add	r3, r7, r3
 2511 102c 1A68     		ldr	r2, [r3]
 2512 102e B823     		mov	r3, #184
 2513 1030 5B00     		lsl	r3, r3, #1
 2514 1032 FB18     		add	r3, r7, r3
 2515 1034 1B68     		ldr	r3, [r3]
 2516 1036 9A42     		cmp	r2, r3
 2517 1038 24DD     		ble	.L207
 711:.\Include/arm_math.h ****       }
 2518              		.loc 2 711 0
 2519 103a B823     		mov	r3, #184
 2520 103c 5B00     		lsl	r3, r3, #1
 2521 103e FB18     		add	r3, r7, r3
 2522 1040 1B68     		ldr	r3, [r3]
 2523 1042 BC22     		mov	r2, #188
 2524 1044 5200     		lsl	r2, r2, #1
 2525 1046 BA18     		add	r2, r7, r2
 2526 1048 1360     		str	r3, [r2]
 2527 104a 1CE0     		b	.L82
 2528              	.L80:
 716:.\Include/arm_math.h **** 
 2529              		.loc 2 716 0
 2530 104c B823     		mov	r3, #184
 2531 104e 5B00     		lsl	r3, r3, #1
 2532 1050 FB18     		add	r3, r7, r3
 2533 1052 1B68     		ldr	r3, [r3]
 2534 1054 5B42     		neg	r3, r3
 2535 1056 B422     		mov	r2, #180
 2536 1058 5200     		lsl	r2, r2, #1
 2537 105a BA18     		add	r2, r7, r2
 2538 105c 1360     		str	r3, [r2]
 718:.\Include/arm_math.h ****       {
 2539              		.loc 2 718 0
 2540 105e BC23     		mov	r3, #188
 2541 1060 5B00     		lsl	r3, r3, #1
 2542 1062 FB18     		add	r3, r7, r3
 2543 1064 1A68     		ldr	r2, [r3]
 2544 1066 B423     		mov	r3, #180
 2545 1068 5B00     		lsl	r3, r3, #1
 2546 106a FB18     		add	r3, r7, r3
 2547 106c 1B68     		ldr	r3, [r3]
 2548 106e 9A42     		cmp	r2, r3
 2549 1070 09DA     		bge	.L82
 720:.\Include/arm_math.h ****       }
 2550              		.loc 2 720 0
 2551 1072 B423     		mov	r3, #180
 2552 1074 5B00     		lsl	r3, r3, #1
 2553 1076 FB18     		add	r3, r7, r3
 2554 1078 1B68     		ldr	r3, [r3]
 2555 107a BC22     		mov	r2, #188
 2556 107c 5200     		lsl	r2, r2, #1
 2557 107e BA18     		add	r2, r7, r2
 2558 1080 1360     		str	r3, [r2]
ARM GAS  C:\Users\fneves\AppData\Local\Temp\cc0ayw4Y.s 			page 74


 2559 1082 00E0     		b	.L82
 2560              	.L207:
 711:.\Include/arm_math.h ****       }
 2561              		.loc 2 711 0
 2562 1084 C046     		mov	r8, r8
 2563              	.L82:
 2564              		.loc 2 723 0
 2565 1086 BC23     		mov	r3, #188
 2566 1088 5B00     		lsl	r3, r3, #1
 2567 108a FB18     		add	r3, r7, r3
 2568 108c 1A68     		ldr	r2, [r3]
 2569              	.LBE147:
 2570              	.LBE146:
 2571              		.loc 1 735 0
 2572 108e 404B     		ldr	r3, .L233+8
 2573 1090 FB18     		add	r3, r7, r3
 2574 1092 1A80     		strh	r2, [r3]
 736:Source\TransformFunctions/arm_cfft_radix4_q15.c ****     S1 = (q15_t) __SSAT(((q31_t) S1 - T0), 16u);
 2575              		.loc 1 736 0
 2576 1094 A123     		mov	r3, #161
 2577 1096 9B00     		lsl	r3, r3, #2
 2578 1098 FB18     		add	r3, r7, r3
 2579 109a 0022     		mov	r2, #0
 2580 109c 9A5E     		ldrsh	r2, [r3, r2]
 2581 109e 3B4B     		ldr	r3, .L233+4
 2582 10a0 FB18     		add	r3, r7, r3
 2583 10a2 0021     		mov	r1, #0
 2584 10a4 5B5E     		ldrsh	r3, [r3, r1]
 2585 10a6 D31A     		sub	r3, r2, r3
 2586 10a8 B222     		mov	r2, #178
 2587 10aa 5200     		lsl	r2, r2, #1
 2588 10ac BA18     		add	r2, r7, r2
 2589 10ae 1360     		str	r3, [r2]
 2590 10b0 1023     		mov	r3, #16
 2591 10b2 B022     		mov	r2, #176
 2592 10b4 5200     		lsl	r2, r2, #1
 2593 10b6 BA18     		add	r2, r7, r2
 2594 10b8 1360     		str	r3, [r2]
 2595              	.LBB148:
 2596              	.LBB149:
 699:.\Include/arm_math.h ****     for (i = 0; i < (y - 1); i++)
 2597              		.loc 2 699 0
 2598 10ba 0123     		mov	r3, #1
 2599 10bc AE22     		mov	r2, #174
 2600 10be 5200     		lsl	r2, r2, #1
 2601 10c0 BA18     		add	r2, r7, r2
 2602 10c2 1360     		str	r3, [r2]
 700:.\Include/arm_math.h ****     {
 2603              		.loc 2 700 0
 2604 10c4 0023     		mov	r3, #0
 2605 10c6 AC22     		mov	r2, #172
 2606 10c8 5200     		lsl	r2, r2, #1
 2607 10ca BA18     		add	r2, r7, r2
 2608 10cc 1360     		str	r3, [r2]
 2609 10ce 11E0     		b	.L84
 2610              	.L85:
 702:.\Include/arm_math.h ****     }
ARM GAS  C:\Users\fneves\AppData\Local\Temp\cc0ayw4Y.s 			page 75


 2611              		.loc 2 702 0
 2612 10d0 AE23     		mov	r3, #174
 2613 10d2 5B00     		lsl	r3, r3, #1
 2614 10d4 FB18     		add	r3, r7, r3
 2615 10d6 1B68     		ldr	r3, [r3]
 2616 10d8 5B00     		lsl	r3, r3, #1
 2617 10da AE22     		mov	r2, #174
 2618 10dc 5200     		lsl	r2, r2, #1
 2619 10de BA18     		add	r2, r7, r2
 2620 10e0 1360     		str	r3, [r2]
 700:.\Include/arm_math.h ****     {
 2621              		.loc 2 700 0
 2622 10e2 AC23     		mov	r3, #172
 2623 10e4 5B00     		lsl	r3, r3, #1
 2624 10e6 FB18     		add	r3, r7, r3
 2625 10e8 1B68     		ldr	r3, [r3]
 2626 10ea 0133     		add	r3, r3, #1
 2627 10ec AC22     		mov	r2, #172
 2628 10ee 5200     		lsl	r2, r2, #1
 2629 10f0 BA18     		add	r2, r7, r2
 2630 10f2 1360     		str	r3, [r2]
 2631              	.L84:
 2632 10f4 B023     		mov	r3, #176
 2633 10f6 5B00     		lsl	r3, r3, #1
 2634 10f8 FB18     		add	r3, r7, r3
 2635 10fa 1B68     		ldr	r3, [r3]
 2636 10fc 013B     		sub	r3, r3, #1
 2637 10fe AC22     		mov	r2, #172
 2638 1100 5200     		lsl	r2, r2, #1
 2639 1102 BA18     		add	r2, r7, r2
 2640 1104 1268     		ldr	r2, [r2]
 2641 1106 9A42     		cmp	r2, r3
 2642 1108 E2D3     		bcc	.L85
 705:.\Include/arm_math.h ****     {
 2643              		.loc 2 705 0
 2644 110a B223     		mov	r3, #178
 2645 110c 5B00     		lsl	r3, r3, #1
 2646 110e FB18     		add	r3, r7, r3
 2647 1110 1B68     		ldr	r3, [r3]
 2648 1112 002B     		cmp	r3, #0
 2649 1114 1BDD     		ble	.L86
 707:.\Include/arm_math.h **** 
 2650              		.loc 2 707 0
 2651 1116 AE23     		mov	r3, #174
 2652 1118 5B00     		lsl	r3, r3, #1
 2653 111a FB18     		add	r3, r7, r3
 2654 111c 1B68     		ldr	r3, [r3]
 2655 111e 013B     		sub	r3, r3, #1
 2656 1120 AE22     		mov	r2, #174
 2657 1122 5200     		lsl	r2, r2, #1
 2658 1124 BA18     		add	r2, r7, r2
 2659 1126 1360     		str	r3, [r2]
 709:.\Include/arm_math.h ****       {
 2660              		.loc 2 709 0
 2661 1128 B223     		mov	r3, #178
 2662 112a 5B00     		lsl	r3, r3, #1
 2663 112c FB18     		add	r3, r7, r3
ARM GAS  C:\Users\fneves\AppData\Local\Temp\cc0ayw4Y.s 			page 76


 2664 112e 1A68     		ldr	r2, [r3]
 2665 1130 AE23     		mov	r3, #174
 2666 1132 5B00     		lsl	r3, r3, #1
 2667 1134 FB18     		add	r3, r7, r3
 2668 1136 1B68     		ldr	r3, [r3]
 2669 1138 9A42     		cmp	r2, r3
 2670 113a 2BDD     		ble	.L208
 711:.\Include/arm_math.h ****       }
 2671              		.loc 2 711 0
 2672 113c AE23     		mov	r3, #174
 2673 113e 5B00     		lsl	r3, r3, #1
 2674 1140 FB18     		add	r3, r7, r3
 2675 1142 1B68     		ldr	r3, [r3]
 2676 1144 B222     		mov	r2, #178
 2677 1146 5200     		lsl	r2, r2, #1
 2678 1148 BA18     		add	r2, r7, r2
 2679 114a 1360     		str	r3, [r2]
 2680 114c 23E0     		b	.L88
 2681              	.L86:
 716:.\Include/arm_math.h **** 
 2682              		.loc 2 716 0
 2683 114e AE23     		mov	r3, #174
 2684 1150 5B00     		lsl	r3, r3, #1
 2685 1152 FB18     		add	r3, r7, r3
 2686 1154 1B68     		ldr	r3, [r3]
 2687 1156 5B42     		neg	r3, r3
 2688 1158 AA22     		mov	r2, #170
 2689 115a 5200     		lsl	r2, r2, #1
 2690 115c BA18     		add	r2, r7, r2
 2691 115e 1360     		str	r3, [r2]
 718:.\Include/arm_math.h ****       {
 2692              		.loc 2 718 0
 2693 1160 B223     		mov	r3, #178
 2694 1162 5B00     		lsl	r3, r3, #1
 2695 1164 FB18     		add	r3, r7, r3
 2696 1166 1A68     		ldr	r2, [r3]
 2697 1168 AA23     		mov	r3, #170
 2698 116a 5B00     		lsl	r3, r3, #1
 2699 116c FB18     		add	r3, r7, r3
 2700 116e 1B68     		ldr	r3, [r3]
 2701 1170 9A42     		cmp	r2, r3
 2702 1172 10DA     		bge	.L88
 720:.\Include/arm_math.h ****       }
 2703              		.loc 2 720 0
 2704 1174 AA23     		mov	r3, #170
 2705 1176 5B00     		lsl	r3, r3, #1
 2706 1178 FB18     		add	r3, r7, r3
 2707 117a 1B68     		ldr	r3, [r3]
 2708 117c B222     		mov	r2, #178
 2709 117e 5200     		lsl	r2, r2, #1
 2710 1180 BA18     		add	r2, r7, r2
 2711 1182 1360     		str	r3, [r2]
 2712 1184 07E0     		b	.L88
 2713              	.L234:
 2714 1186 C046     		.align	2
 2715              	.L233:
 2716 1188 82020000 		.word	642
ARM GAS  C:\Users\fneves\AppData\Local\Temp\cc0ayw4Y.s 			page 77


 2717 118c 8A020000 		.word	650
 2718 1190 86020000 		.word	646
 2719              	.L208:
 711:.\Include/arm_math.h ****       }
 2720              		.loc 2 711 0
 2721 1194 C046     		mov	r8, r8
 2722              	.L88:
 2723              		.loc 2 723 0
 2724 1196 B223     		mov	r3, #178
 2725 1198 5B00     		lsl	r3, r3, #1
 2726 119a FB18     		add	r3, r7, r3
 2727 119c 1A68     		ldr	r2, [r3]
 2728              	.LBE149:
 2729              	.LBE148:
 2730              		.loc 1 736 0
 2731 119e A123     		mov	r3, #161
 2732 11a0 9B00     		lsl	r3, r3, #2
 2733 11a2 FB18     		add	r3, r7, r3
 2734 11a4 1A80     		strh	r2, [r3]
 737:Source\TransformFunctions/arm_cfft_radix4_q15.c **** 
 738:Source\TransformFunctions/arm_cfft_radix4_q15.c ****     /* co1 & si1 are read from Coefficient pointer */
 739:Source\TransformFunctions/arm_cfft_radix4_q15.c ****     Co1 = pCoef16[ic * 2u];
 2735              		.loc 1 739 0
 2736 11a6 AA23     		mov	r3, #170
 2737 11a8 9B00     		lsl	r3, r3, #2
 2738 11aa FB18     		add	r3, r7, r3
 2739 11ac 1B68     		ldr	r3, [r3]
 2740 11ae 9B00     		lsl	r3, r3, #2
 2741 11b0 7A68     		ldr	r2, [r7, #4]
 2742 11b2 D218     		add	r2, r2, r3
 2743 11b4 BB4B     		ldr	r3, .L235
 2744 11b6 FB18     		add	r3, r7, r3
 2745 11b8 1288     		ldrh	r2, [r2]
 2746 11ba 1A80     		strh	r2, [r3]
 740:Source\TransformFunctions/arm_cfft_radix4_q15.c ****     Si1 = pCoef16[(ic * 2u) + 1];
 2747              		.loc 1 740 0
 2748 11bc AA23     		mov	r3, #170
 2749 11be 9B00     		lsl	r3, r3, #2
 2750 11c0 FB18     		add	r3, r7, r3
 2751 11c2 1B68     		ldr	r3, [r3]
 2752 11c4 9B00     		lsl	r3, r3, #2
 2753 11c6 0233     		add	r3, r3, #2
 2754 11c8 7A68     		ldr	r2, [r7, #4]
 2755 11ca D218     		add	r2, r2, r3
 2756 11cc 9C23     		mov	r3, #156
 2757 11ce 9B00     		lsl	r3, r3, #2
 2758 11d0 FB18     		add	r3, r7, r3
 2759 11d2 1288     		ldrh	r2, [r2]
 2760 11d4 1A80     		strh	r2, [r3]
 741:Source\TransformFunctions/arm_cfft_radix4_q15.c ****     /*  Butterfly process for the i0+fftLen/2 sample */
 742:Source\TransformFunctions/arm_cfft_radix4_q15.c ****     /* xb' = (xa+yb-xc-yd)* co1 + (ya-xb-yc+xd)* (si1) */
 743:Source\TransformFunctions/arm_cfft_radix4_q15.c ****     out1 = (q15_t) ((Si1 * S1 + Co1 * S0) >> 16);
 2761              		.loc 1 743 0
 2762 11d6 9C23     		mov	r3, #156
 2763 11d8 9B00     		lsl	r3, r3, #2
 2764 11da FB18     		add	r3, r7, r3
 2765 11dc 0022     		mov	r2, #0
ARM GAS  C:\Users\fneves\AppData\Local\Temp\cc0ayw4Y.s 			page 78


 2766 11de 9B5E     		ldrsh	r3, [r3, r2]
 2767 11e0 A122     		mov	r2, #161
 2768 11e2 9200     		lsl	r2, r2, #2
 2769 11e4 BA18     		add	r2, r7, r2
 2770 11e6 0021     		mov	r1, #0
 2771 11e8 525E     		ldrsh	r2, [r2, r1]
 2772 11ea 5A43     		mul	r2, r3
 2773 11ec AD4B     		ldr	r3, .L235
 2774 11ee FB18     		add	r3, r7, r3
 2775 11f0 0021     		mov	r1, #0
 2776 11f2 5B5E     		ldrsh	r3, [r3, r1]
 2777 11f4 AC49     		ldr	r1, .L235+4
 2778 11f6 7918     		add	r1, r7, r1
 2779 11f8 0020     		mov	r0, #0
 2780 11fa 095E     		ldrsh	r1, [r1, r0]
 2781 11fc 4B43     		mul	r3, r1
 2782 11fe D318     		add	r3, r2, r3
 2783 1200 1A14     		asr	r2, r3, #16
 2784 1202 AA4B     		ldr	r3, .L235+8
 2785 1204 FB18     		add	r3, r7, r3
 2786 1206 1A80     		strh	r2, [r3]
 744:Source\TransformFunctions/arm_cfft_radix4_q15.c ****     /* yb' = (ya-xb-yc+xd)* co1 - (xa+yb-xc-yd)* (si1) */
 745:Source\TransformFunctions/arm_cfft_radix4_q15.c ****     out2 = (q15_t) ((-Si1 * S0 + Co1 * S1) >> 16);
 2787              		.loc 1 745 0
 2788 1208 9C23     		mov	r3, #156
 2789 120a 9B00     		lsl	r3, r3, #2
 2790 120c FB18     		add	r3, r7, r3
 2791 120e 0022     		mov	r2, #0
 2792 1210 9B5E     		ldrsh	r3, [r3, r2]
 2793 1212 5B42     		neg	r3, r3
 2794 1214 A44A     		ldr	r2, .L235+4
 2795 1216 BA18     		add	r2, r7, r2
 2796 1218 0021     		mov	r1, #0
 2797 121a 525E     		ldrsh	r2, [r2, r1]
 2798 121c 5A43     		mul	r2, r3
 2799 121e A14B     		ldr	r3, .L235
 2800 1220 FB18     		add	r3, r7, r3
 2801 1222 0021     		mov	r1, #0
 2802 1224 5B5E     		ldrsh	r3, [r3, r1]
 2803 1226 A121     		mov	r1, #161
 2804 1228 8900     		lsl	r1, r1, #2
 2805 122a 7918     		add	r1, r7, r1
 2806 122c 0020     		mov	r0, #0
 2807 122e 095E     		ldrsh	r1, [r1, r0]
 2808 1230 4B43     		mul	r3, r1
 2809 1232 D318     		add	r3, r2, r3
 2810 1234 1A14     		asr	r2, r3, #16
 2811 1236 9D23     		mov	r3, #157
 2812 1238 9B00     		lsl	r3, r3, #2
 2813 123a FB18     		add	r3, r7, r3
 2814 123c 1A80     		strh	r2, [r3]
 746:Source\TransformFunctions/arm_cfft_radix4_q15.c **** 
 747:Source\TransformFunctions/arm_cfft_radix4_q15.c ****     /* writing output(xb', yb') in little endian format */
 748:Source\TransformFunctions/arm_cfft_radix4_q15.c ****     pSrc16[i2 * 2u] = out1;
 2815              		.loc 1 748 0
 2816 123e A423     		mov	r3, #164
 2817 1240 9B00     		lsl	r3, r3, #2
ARM GAS  C:\Users\fneves\AppData\Local\Temp\cc0ayw4Y.s 			page 79


 2818 1242 FB18     		add	r3, r7, r3
 2819 1244 1B68     		ldr	r3, [r3]
 2820 1246 9B00     		lsl	r3, r3, #2
 2821 1248 FA68     		ldr	r2, [r7, #12]
 2822 124a D318     		add	r3, r2, r3
 2823 124c 974A     		ldr	r2, .L235+8
 2824 124e BA18     		add	r2, r7, r2
 2825 1250 1288     		ldrh	r2, [r2]
 2826 1252 1A80     		strh	r2, [r3]
 749:Source\TransformFunctions/arm_cfft_radix4_q15.c ****     pSrc16[(i2 * 2u) + 1] = out2;
 2827              		.loc 1 749 0
 2828 1254 A423     		mov	r3, #164
 2829 1256 9B00     		lsl	r3, r3, #2
 2830 1258 FB18     		add	r3, r7, r3
 2831 125a 1B68     		ldr	r3, [r3]
 2832 125c 9B00     		lsl	r3, r3, #2
 2833 125e 0233     		add	r3, r3, #2
 2834 1260 FA68     		ldr	r2, [r7, #12]
 2835 1262 D318     		add	r3, r2, r3
 2836 1264 9D22     		mov	r2, #157
 2837 1266 9200     		lsl	r2, r2, #2
 2838 1268 BA18     		add	r2, r7, r2
 2839 126a 1288     		ldrh	r2, [r2]
 2840 126c 1A80     		strh	r2, [r3]
 750:Source\TransformFunctions/arm_cfft_radix4_q15.c **** 
 751:Source\TransformFunctions/arm_cfft_radix4_q15.c ****     /* Co3 & si3 are read from Coefficient pointer */
 752:Source\TransformFunctions/arm_cfft_radix4_q15.c ****     Co3 = pCoef16[3u * (ic * 2u)];
 2841              		.loc 1 752 0
 2842 126e AA23     		mov	r3, #170
 2843 1270 9B00     		lsl	r3, r3, #2
 2844 1272 FB18     		add	r3, r7, r3
 2845 1274 1A68     		ldr	r2, [r3]
 2846 1276 131C     		mov	r3, r2
 2847 1278 5B00     		lsl	r3, r3, #1
 2848 127a 9B18     		add	r3, r3, r2
 2849 127c 9B00     		lsl	r3, r3, #2
 2850 127e 1A1C     		mov	r2, r3
 2851 1280 7B68     		ldr	r3, [r7, #4]
 2852 1282 9A18     		add	r2, r3, r2
 2853 1284 8A4B     		ldr	r3, .L235+12
 2854 1286 FB18     		add	r3, r7, r3
 2855 1288 1288     		ldrh	r2, [r2]
 2856 128a 1A80     		strh	r2, [r3]
 753:Source\TransformFunctions/arm_cfft_radix4_q15.c ****     Si3 = pCoef16[(3u * (ic * 2u)) + 1];
 2857              		.loc 1 753 0
 2858 128c AA23     		mov	r3, #170
 2859 128e 9B00     		lsl	r3, r3, #2
 2860 1290 FB18     		add	r3, r7, r3
 2861 1292 1A68     		ldr	r2, [r3]
 2862 1294 131C     		mov	r3, r2
 2863 1296 5B00     		lsl	r3, r3, #1
 2864 1298 9B18     		add	r3, r3, r2
 2865 129a 9B00     		lsl	r3, r3, #2
 2866 129c 0233     		add	r3, r3, #2
 2867 129e 7A68     		ldr	r2, [r7, #4]
 2868 12a0 D218     		add	r2, r2, r3
 2869 12a2 9B23     		mov	r3, #155
ARM GAS  C:\Users\fneves\AppData\Local\Temp\cc0ayw4Y.s 			page 80


 2870 12a4 9B00     		lsl	r3, r3, #2
 2871 12a6 FB18     		add	r3, r7, r3
 2872 12a8 1288     		ldrh	r2, [r2]
 2873 12aa 1A80     		strh	r2, [r3]
 754:Source\TransformFunctions/arm_cfft_radix4_q15.c ****     /*  Butterfly process for the i0+3fftLen/4 sample */
 755:Source\TransformFunctions/arm_cfft_radix4_q15.c ****     /* xd' = (xa-yb-xc+yd)* Co3 + (ya+xb-yc-xd)* (si3) */
 756:Source\TransformFunctions/arm_cfft_radix4_q15.c ****     out1 = (q15_t) ((Si3 * R1 + Co3 * R0) >> 16u);
 2874              		.loc 1 756 0
 2875 12ac 9B23     		mov	r3, #155
 2876 12ae 9B00     		lsl	r3, r3, #2
 2877 12b0 FB18     		add	r3, r7, r3
 2878 12b2 0022     		mov	r2, #0
 2879 12b4 9B5E     		ldrsh	r3, [r3, r2]
 2880 12b6 A022     		mov	r2, #160
 2881 12b8 9200     		lsl	r2, r2, #2
 2882 12ba BA18     		add	r2, r7, r2
 2883 12bc 0021     		mov	r1, #0
 2884 12be 525E     		ldrsh	r2, [r2, r1]
 2885 12c0 5A43     		mul	r2, r3
 2886 12c2 7B4B     		ldr	r3, .L235+12
 2887 12c4 FB18     		add	r3, r7, r3
 2888 12c6 0021     		mov	r1, #0
 2889 12c8 5B5E     		ldrsh	r3, [r3, r1]
 2890 12ca 7A49     		ldr	r1, .L235+16
 2891 12cc 7918     		add	r1, r7, r1
 2892 12ce 0020     		mov	r0, #0
 2893 12d0 095E     		ldrsh	r1, [r1, r0]
 2894 12d2 4B43     		mul	r3, r1
 2895 12d4 D318     		add	r3, r2, r3
 2896 12d6 1A14     		asr	r2, r3, #16
 2897 12d8 744B     		ldr	r3, .L235+8
 2898 12da FB18     		add	r3, r7, r3
 2899 12dc 1A80     		strh	r2, [r3]
 757:Source\TransformFunctions/arm_cfft_radix4_q15.c ****     /* yd' = (ya+xb-yc-xd)* Co3 - (xa-yb-xc+yd)* (si3) */
 758:Source\TransformFunctions/arm_cfft_radix4_q15.c ****     out2 = (q15_t) ((-Si3 * R0 + Co3 * R1) >> 16u);
 2900              		.loc 1 758 0
 2901 12de 9B23     		mov	r3, #155
 2902 12e0 9B00     		lsl	r3, r3, #2
 2903 12e2 FB18     		add	r3, r7, r3
 2904 12e4 0022     		mov	r2, #0
 2905 12e6 9B5E     		ldrsh	r3, [r3, r2]
 2906 12e8 5B42     		neg	r3, r3
 2907 12ea 724A     		ldr	r2, .L235+16
 2908 12ec BA18     		add	r2, r7, r2
 2909 12ee 0021     		mov	r1, #0
 2910 12f0 525E     		ldrsh	r2, [r2, r1]
 2911 12f2 5A43     		mul	r2, r3
 2912 12f4 6E4B     		ldr	r3, .L235+12
 2913 12f6 FB18     		add	r3, r7, r3
 2914 12f8 0021     		mov	r1, #0
 2915 12fa 5B5E     		ldrsh	r3, [r3, r1]
 2916 12fc A021     		mov	r1, #160
 2917 12fe 8900     		lsl	r1, r1, #2
 2918 1300 7918     		add	r1, r7, r1
 2919 1302 0020     		mov	r0, #0
 2920 1304 095E     		ldrsh	r1, [r1, r0]
 2921 1306 4B43     		mul	r3, r1
ARM GAS  C:\Users\fneves\AppData\Local\Temp\cc0ayw4Y.s 			page 81


 2922 1308 D318     		add	r3, r2, r3
 2923 130a 1A14     		asr	r2, r3, #16
 2924 130c 9D23     		mov	r3, #157
 2925 130e 9B00     		lsl	r3, r3, #2
 2926 1310 FB18     		add	r3, r7, r3
 2927 1312 1A80     		strh	r2, [r3]
 759:Source\TransformFunctions/arm_cfft_radix4_q15.c ****     /* writing output(xd', yd') in little endian format */
 760:Source\TransformFunctions/arm_cfft_radix4_q15.c ****     pSrc16[i3 * 2u] = out1;
 2928              		.loc 1 760 0
 2929 1314 A323     		mov	r3, #163
 2930 1316 9B00     		lsl	r3, r3, #2
 2931 1318 FB18     		add	r3, r7, r3
 2932 131a 1B68     		ldr	r3, [r3]
 2933 131c 9B00     		lsl	r3, r3, #2
 2934 131e FA68     		ldr	r2, [r7, #12]
 2935 1320 D318     		add	r3, r2, r3
 2936 1322 624A     		ldr	r2, .L235+8
 2937 1324 BA18     		add	r2, r7, r2
 2938 1326 1288     		ldrh	r2, [r2]
 2939 1328 1A80     		strh	r2, [r3]
 761:Source\TransformFunctions/arm_cfft_radix4_q15.c ****     pSrc16[(i3 * 2u) + 1] = out2;
 2940              		.loc 1 761 0
 2941 132a A323     		mov	r3, #163
 2942 132c 9B00     		lsl	r3, r3, #2
 2943 132e FB18     		add	r3, r7, r3
 2944 1330 1B68     		ldr	r3, [r3]
 2945 1332 9B00     		lsl	r3, r3, #2
 2946 1334 0233     		add	r3, r3, #2
 2947 1336 FA68     		ldr	r2, [r7, #12]
 2948 1338 D318     		add	r3, r2, r3
 2949 133a 9D22     		mov	r2, #157
 2950 133c 9200     		lsl	r2, r2, #2
 2951 133e BA18     		add	r2, r7, r2
 2952 1340 1288     		ldrh	r2, [r2]
 2953 1342 1A80     		strh	r2, [r3]
 762:Source\TransformFunctions/arm_cfft_radix4_q15.c **** 
 763:Source\TransformFunctions/arm_cfft_radix4_q15.c ****     /*  Twiddle coefficients index modifier */
 764:Source\TransformFunctions/arm_cfft_radix4_q15.c ****     ic = ic + twidCoefModifier;
 2954              		.loc 1 764 0
 2955 1344 AA23     		mov	r3, #170
 2956 1346 9B00     		lsl	r3, r3, #2
 2957 1348 FB18     		add	r3, r7, r3
 2958 134a 1A68     		ldr	r2, [r3]
 2959 134c 3B68     		ldr	r3, [r7]
 2960 134e D318     		add	r3, r2, r3
 2961 1350 AA22     		mov	r2, #170
 2962 1352 9200     		lsl	r2, r2, #2
 2963 1354 BA18     		add	r2, r7, r2
 2964 1356 1360     		str	r3, [r2]
 765:Source\TransformFunctions/arm_cfft_radix4_q15.c **** 
 766:Source\TransformFunctions/arm_cfft_radix4_q15.c ****     /*  Updating input index */
 767:Source\TransformFunctions/arm_cfft_radix4_q15.c ****     i0 = i0 + 1u;
 2965              		.loc 1 767 0
 2966 1358 A923     		mov	r3, #169
 2967 135a 9B00     		lsl	r3, r3, #2
 2968 135c FB18     		add	r3, r7, r3
 2969 135e 1B68     		ldr	r3, [r3]
ARM GAS  C:\Users\fneves\AppData\Local\Temp\cc0ayw4Y.s 			page 82


 2970 1360 0133     		add	r3, r3, #1
 2971 1362 A922     		mov	r2, #169
 2972 1364 9200     		lsl	r2, r2, #2
 2973 1366 BA18     		add	r2, r7, r2
 2974 1368 1360     		str	r3, [r2]
 768:Source\TransformFunctions/arm_cfft_radix4_q15.c **** 
 769:Source\TransformFunctions/arm_cfft_radix4_q15.c ****   } while (--j);
 2975              		.loc 1 769 0
 2976 136a A823     		mov	r3, #168
 2977 136c 9B00     		lsl	r3, r3, #2
 2978 136e FB18     		add	r3, r7, r3
 2979 1370 1B68     		ldr	r3, [r3]
 2980 1372 013B     		sub	r3, r3, #1
 2981 1374 A822     		mov	r2, #168
 2982 1376 9200     		lsl	r2, r2, #2
 2983 1378 BA18     		add	r2, r7, r2
 2984 137a 1360     		str	r3, [r2]
 2985 137c A823     		mov	r3, #168
 2986 137e 9B00     		lsl	r3, r3, #2
 2987 1380 FB18     		add	r3, r7, r3
 2988 1382 1B68     		ldr	r3, [r3]
 2989 1384 002B     		cmp	r3, #0
 2990 1386 01D0     		beq	.LCB2773
 2991 1388 FEF76AFE 		bl	.L90	@far jump
 2992              	.LCB2773:
 770:Source\TransformFunctions/arm_cfft_radix4_q15.c ****   /* data is in 4.11(q11) format */
 771:Source\TransformFunctions/arm_cfft_radix4_q15.c **** 
 772:Source\TransformFunctions/arm_cfft_radix4_q15.c ****   /* end of first stage process */
 773:Source\TransformFunctions/arm_cfft_radix4_q15.c **** 
 774:Source\TransformFunctions/arm_cfft_radix4_q15.c **** 
 775:Source\TransformFunctions/arm_cfft_radix4_q15.c ****   /* start of middle stage process */
 776:Source\TransformFunctions/arm_cfft_radix4_q15.c **** 
 777:Source\TransformFunctions/arm_cfft_radix4_q15.c ****   /*  Twiddle coefficients index modifier */
 778:Source\TransformFunctions/arm_cfft_radix4_q15.c ****   twidCoefModifier <<= 2u;
 2993              		.loc 1 778 0
 2994 138c 3B68     		ldr	r3, [r7]
 2995 138e 9B00     		lsl	r3, r3, #2
 2996 1390 3B60     		str	r3, [r7]
 779:Source\TransformFunctions/arm_cfft_radix4_q15.c **** 
 780:Source\TransformFunctions/arm_cfft_radix4_q15.c ****   /*  Calculation of Middle stage */
 781:Source\TransformFunctions/arm_cfft_radix4_q15.c ****   for (k = fftLen / 4u; k > 4u; k >>= 2u)
 2997              		.loc 1 781 0
 2998 1392 BB68     		ldr	r3, [r7, #8]
 2999 1394 9B08     		lsr	r3, r3, #2
 3000 1396 A722     		mov	r2, #167
 3001 1398 9200     		lsl	r2, r2, #2
 3002 139a BA18     		add	r2, r7, r2
 3003 139c 1360     		str	r3, [r2]
 3004 139e 00F0DBFE 		bl	.L91	@ far jump
 3005              	.L144:
 782:Source\TransformFunctions/arm_cfft_radix4_q15.c ****   {
 783:Source\TransformFunctions/arm_cfft_radix4_q15.c ****     /*  Initializations for the middle stage */
 784:Source\TransformFunctions/arm_cfft_radix4_q15.c ****     n1 = n2;
 3006              		.loc 1 784 0
 3007 13a2 AB23     		mov	r3, #171
 3008 13a4 9B00     		lsl	r3, r3, #2
 3009 13a6 FB18     		add	r3, r7, r3
ARM GAS  C:\Users\fneves\AppData\Local\Temp\cc0ayw4Y.s 			page 83


 3010 13a8 1B68     		ldr	r3, [r3]
 3011 13aa A622     		mov	r2, #166
 3012 13ac 9200     		lsl	r2, r2, #2
 3013 13ae BA18     		add	r2, r7, r2
 3014 13b0 1360     		str	r3, [r2]
 785:Source\TransformFunctions/arm_cfft_radix4_q15.c ****     n2 >>= 2u;
 3015              		.loc 1 785 0
 3016 13b2 AB23     		mov	r3, #171
 3017 13b4 9B00     		lsl	r3, r3, #2
 3018 13b6 FB18     		add	r3, r7, r3
 3019 13b8 1B68     		ldr	r3, [r3]
 3020 13ba 9B08     		lsr	r3, r3, #2
 3021 13bc AB22     		mov	r2, #171
 3022 13be 9200     		lsl	r2, r2, #2
 3023 13c0 BA18     		add	r2, r7, r2
 3024 13c2 1360     		str	r3, [r2]
 786:Source\TransformFunctions/arm_cfft_radix4_q15.c ****     ic = 0u;
 3025              		.loc 1 786 0
 3026 13c4 0023     		mov	r3, #0
 3027 13c6 AA22     		mov	r2, #170
 3028 13c8 9200     		lsl	r2, r2, #2
 3029 13ca BA18     		add	r2, r7, r2
 3030 13cc 1360     		str	r3, [r2]
 787:Source\TransformFunctions/arm_cfft_radix4_q15.c **** 
 788:Source\TransformFunctions/arm_cfft_radix4_q15.c ****     for (j = 0u; j <= (n2 - 1u); j++)
 3031              		.loc 1 788 0
 3032 13ce 0023     		mov	r3, #0
 3033 13d0 A822     		mov	r2, #168
 3034 13d2 9200     		lsl	r2, r2, #2
 3035 13d4 BA18     		add	r2, r7, r2
 3036 13d6 1360     		str	r3, [r2]
 3037 13d8 00F0A5FE 		bl	.L92	@ far jump
 3038              	.L143:
 789:Source\TransformFunctions/arm_cfft_radix4_q15.c ****     {
 790:Source\TransformFunctions/arm_cfft_radix4_q15.c ****       /*  index calculation for the coefficients */
 791:Source\TransformFunctions/arm_cfft_radix4_q15.c ****       Co1 = pCoef16[ic * 2u];
 3039              		.loc 1 791 0
 3040 13dc AA23     		mov	r3, #170
 3041 13de 9B00     		lsl	r3, r3, #2
 3042 13e0 FB18     		add	r3, r7, r3
 3043 13e2 1B68     		ldr	r3, [r3]
 3044 13e4 9B00     		lsl	r3, r3, #2
 3045 13e6 7A68     		ldr	r2, [r7, #4]
 3046 13e8 D218     		add	r2, r2, r3
 3047 13ea 2E4B     		ldr	r3, .L235
 3048 13ec FB18     		add	r3, r7, r3
 3049 13ee 1288     		ldrh	r2, [r2]
 3050 13f0 1A80     		strh	r2, [r3]
 792:Source\TransformFunctions/arm_cfft_radix4_q15.c ****       Si1 = pCoef16[(ic * 2u) + 1u];
 3051              		.loc 1 792 0
 3052 13f2 AA23     		mov	r3, #170
 3053 13f4 9B00     		lsl	r3, r3, #2
 3054 13f6 FB18     		add	r3, r7, r3
 3055 13f8 1B68     		ldr	r3, [r3]
 3056 13fa 9B00     		lsl	r3, r3, #2
 3057 13fc 0233     		add	r3, r3, #2
 3058 13fe 7A68     		ldr	r2, [r7, #4]
ARM GAS  C:\Users\fneves\AppData\Local\Temp\cc0ayw4Y.s 			page 84


 3059 1400 D218     		add	r2, r2, r3
 3060 1402 9C23     		mov	r3, #156
 3061 1404 9B00     		lsl	r3, r3, #2
 3062 1406 FB18     		add	r3, r7, r3
 3063 1408 1288     		ldrh	r2, [r2]
 3064 140a 1A80     		strh	r2, [r3]
 793:Source\TransformFunctions/arm_cfft_radix4_q15.c ****       Co2 = pCoef16[2u * (ic * 2u)];
 3065              		.loc 1 793 0
 3066 140c AA23     		mov	r3, #170
 3067 140e 9B00     		lsl	r3, r3, #2
 3068 1410 FB18     		add	r3, r7, r3
 3069 1412 1B68     		ldr	r3, [r3]
 3070 1414 DB00     		lsl	r3, r3, #3
 3071 1416 7A68     		ldr	r2, [r7, #4]
 3072 1418 D218     		add	r2, r2, r3
 3073 141a 274B     		ldr	r3, .L235+20
 3074 141c FB18     		add	r3, r7, r3
 3075 141e 1288     		ldrh	r2, [r2]
 3076 1420 1A80     		strh	r2, [r3]
 794:Source\TransformFunctions/arm_cfft_radix4_q15.c ****       Si2 = pCoef16[(2u * (ic * 2u)) + 1u];
 3077              		.loc 1 794 0
 3078 1422 AA23     		mov	r3, #170
 3079 1424 9B00     		lsl	r3, r3, #2
 3080 1426 FB18     		add	r3, r7, r3
 3081 1428 1B68     		ldr	r3, [r3]
 3082 142a DB00     		lsl	r3, r3, #3
 3083 142c 0233     		add	r3, r3, #2
 3084 142e 7A68     		ldr	r2, [r7, #4]
 3085 1430 D218     		add	r2, r2, r3
 3086 1432 9E23     		mov	r3, #158
 3087 1434 9B00     		lsl	r3, r3, #2
 3088 1436 FB18     		add	r3, r7, r3
 3089 1438 1288     		ldrh	r2, [r2]
 3090 143a 1A80     		strh	r2, [r3]
 795:Source\TransformFunctions/arm_cfft_radix4_q15.c ****       Co3 = pCoef16[3u * (ic * 2u)];
 3091              		.loc 1 795 0
 3092 143c AA23     		mov	r3, #170
 3093 143e 9B00     		lsl	r3, r3, #2
 3094 1440 FB18     		add	r3, r7, r3
 3095 1442 1A68     		ldr	r2, [r3]
 3096 1444 131C     		mov	r3, r2
 3097 1446 5B00     		lsl	r3, r3, #1
 3098 1448 9B18     		add	r3, r3, r2
 3099 144a 9B00     		lsl	r3, r3, #2
 3100 144c 1A1C     		mov	r2, r3
 3101 144e 7B68     		ldr	r3, [r7, #4]
 3102 1450 9A18     		add	r2, r3, r2
 3103 1452 174B     		ldr	r3, .L235+12
 3104 1454 FB18     		add	r3, r7, r3
 3105 1456 1288     		ldrh	r2, [r2]
 3106 1458 1A80     		strh	r2, [r3]
 796:Source\TransformFunctions/arm_cfft_radix4_q15.c ****       Si3 = pCoef16[(3u * (ic * 2u)) + 1u];
 3107              		.loc 1 796 0
 3108 145a AA23     		mov	r3, #170
 3109 145c 9B00     		lsl	r3, r3, #2
 3110 145e FB18     		add	r3, r7, r3
 3111 1460 1A68     		ldr	r2, [r3]
ARM GAS  C:\Users\fneves\AppData\Local\Temp\cc0ayw4Y.s 			page 85


 3112 1462 131C     		mov	r3, r2
 3113 1464 5B00     		lsl	r3, r3, #1
 3114 1466 9B18     		add	r3, r3, r2
 3115 1468 9B00     		lsl	r3, r3, #2
 3116 146a 0233     		add	r3, r3, #2
 3117 146c 7A68     		ldr	r2, [r7, #4]
 3118 146e D218     		add	r2, r2, r3
 3119 1470 9B23     		mov	r3, #155
 3120 1472 9B00     		lsl	r3, r3, #2
 3121 1474 FB18     		add	r3, r7, r3
 3122 1476 1288     		ldrh	r2, [r2]
 3123 1478 1A80     		strh	r2, [r3]
 797:Source\TransformFunctions/arm_cfft_radix4_q15.c **** 
 798:Source\TransformFunctions/arm_cfft_radix4_q15.c ****       /*  Twiddle coefficients index modifier */
 799:Source\TransformFunctions/arm_cfft_radix4_q15.c ****       ic = ic + twidCoefModifier;
 3124              		.loc 1 799 0
 3125 147a AA23     		mov	r3, #170
 3126 147c 9B00     		lsl	r3, r3, #2
 3127 147e FB18     		add	r3, r7, r3
 3128 1480 1A68     		ldr	r2, [r3]
 3129 1482 3B68     		ldr	r3, [r7]
 3130 1484 D318     		add	r3, r2, r3
 3131 1486 AA22     		mov	r2, #170
 3132 1488 9200     		lsl	r2, r2, #2
 3133 148a BA18     		add	r2, r7, r2
 3134 148c 1360     		str	r3, [r2]
 800:Source\TransformFunctions/arm_cfft_radix4_q15.c **** 
 801:Source\TransformFunctions/arm_cfft_radix4_q15.c ****       /*  Butterfly implementation */
 802:Source\TransformFunctions/arm_cfft_radix4_q15.c ****       for (i0 = j; i0 < fftLen; i0 += n1)
 3135              		.loc 1 802 0
 3136 148e A823     		mov	r3, #168
 3137 1490 9B00     		lsl	r3, r3, #2
 3138 1492 FB18     		add	r3, r7, r3
 3139 1494 1B68     		ldr	r3, [r3]
 3140 1496 A922     		mov	r2, #169
 3141 1498 9200     		lsl	r2, r2, #2
 3142 149a BA18     		add	r2, r7, r2
 3143 149c 1360     		str	r3, [r2]
 3144 149e 00F030FE 		bl	.L93	@ far jump
 3145              	.L236:
 3146 14a2 C046     		.align	2
 3147              	.L235:
 3148 14a4 72020000 		.word	626
 3149 14a8 86020000 		.word	646
 3150 14ac 76020000 		.word	630
 3151 14b0 6E020000 		.word	622
 3152 14b4 82020000 		.word	642
 3153 14b8 7A020000 		.word	634
 3154              	.L142:
 803:Source\TransformFunctions/arm_cfft_radix4_q15.c ****       {
 804:Source\TransformFunctions/arm_cfft_radix4_q15.c ****         /*  index calculation for the input as, */
 805:Source\TransformFunctions/arm_cfft_radix4_q15.c ****         /*  pSrc16[i0 + 0], pSrc16[i0 + fftLen/4], pSrc16[i0 + fftLen/2], pSrc16[i0 + 3fftLen/4] */
 806:Source\TransformFunctions/arm_cfft_radix4_q15.c ****         i1 = i0 + n2;
 3155              		.loc 1 806 0 discriminator 3
 3156 14bc A923     		mov	r3, #169
 3157 14be 9B00     		lsl	r3, r3, #2
 3158 14c0 FB18     		add	r3, r7, r3
ARM GAS  C:\Users\fneves\AppData\Local\Temp\cc0ayw4Y.s 			page 86


 3159 14c2 1A68     		ldr	r2, [r3]
 3160 14c4 AB23     		mov	r3, #171
 3161 14c6 9B00     		lsl	r3, r3, #2
 3162 14c8 FB18     		add	r3, r7, r3
 3163 14ca 1B68     		ldr	r3, [r3]
 3164 14cc D318     		add	r3, r2, r3
 3165 14ce A522     		mov	r2, #165
 3166 14d0 9200     		lsl	r2, r2, #2
 3167 14d2 BA18     		add	r2, r7, r2
 3168 14d4 1360     		str	r3, [r2]
 807:Source\TransformFunctions/arm_cfft_radix4_q15.c ****         i2 = i1 + n2;
 3169              		.loc 1 807 0 discriminator 3
 3170 14d6 A523     		mov	r3, #165
 3171 14d8 9B00     		lsl	r3, r3, #2
 3172 14da FB18     		add	r3, r7, r3
 3173 14dc 1A68     		ldr	r2, [r3]
 3174 14de AB23     		mov	r3, #171
 3175 14e0 9B00     		lsl	r3, r3, #2
 3176 14e2 FB18     		add	r3, r7, r3
 3177 14e4 1B68     		ldr	r3, [r3]
 3178 14e6 D318     		add	r3, r2, r3
 3179 14e8 A422     		mov	r2, #164
 3180 14ea 9200     		lsl	r2, r2, #2
 3181 14ec BA18     		add	r2, r7, r2
 3182 14ee 1360     		str	r3, [r2]
 808:Source\TransformFunctions/arm_cfft_radix4_q15.c ****         i3 = i2 + n2;
 3183              		.loc 1 808 0 discriminator 3
 3184 14f0 A423     		mov	r3, #164
 3185 14f2 9B00     		lsl	r3, r3, #2
 3186 14f4 FB18     		add	r3, r7, r3
 3187 14f6 1A68     		ldr	r2, [r3]
 3188 14f8 AB23     		mov	r3, #171
 3189 14fa 9B00     		lsl	r3, r3, #2
 3190 14fc FB18     		add	r3, r7, r3
 3191 14fe 1B68     		ldr	r3, [r3]
 3192 1500 D318     		add	r3, r2, r3
 3193 1502 A322     		mov	r2, #163
 3194 1504 9200     		lsl	r2, r2, #2
 3195 1506 BA18     		add	r2, r7, r2
 3196 1508 1360     		str	r3, [r2]
 809:Source\TransformFunctions/arm_cfft_radix4_q15.c **** 
 810:Source\TransformFunctions/arm_cfft_radix4_q15.c ****         /*  Reading i0, i0+fftLen/2 inputs */
 811:Source\TransformFunctions/arm_cfft_radix4_q15.c ****         /* Read ya (real), xa(imag) input */
 812:Source\TransformFunctions/arm_cfft_radix4_q15.c ****         T0 = pSrc16[i0 * 2u];
 3197              		.loc 1 812 0 discriminator 3
 3198 150a A923     		mov	r3, #169
 3199 150c 9B00     		lsl	r3, r3, #2
 3200 150e FB18     		add	r3, r7, r3
 3201 1510 1B68     		ldr	r3, [r3]
 3202 1512 9B00     		lsl	r3, r3, #2
 3203 1514 FA68     		ldr	r2, [r7, #12]
 3204 1516 D218     		add	r2, r2, r3
 3205 1518 E54B     		ldr	r3, .L237
 3206 151a FB18     		add	r3, r7, r3
 3207 151c 1288     		ldrh	r2, [r2]
 3208 151e 1A80     		strh	r2, [r3]
 813:Source\TransformFunctions/arm_cfft_radix4_q15.c ****         T1 = pSrc16[(i0 * 2u) + 1u];
ARM GAS  C:\Users\fneves\AppData\Local\Temp\cc0ayw4Y.s 			page 87


 3209              		.loc 1 813 0 discriminator 3
 3210 1520 A923     		mov	r3, #169
 3211 1522 9B00     		lsl	r3, r3, #2
 3212 1524 FB18     		add	r3, r7, r3
 3213 1526 1B68     		ldr	r3, [r3]
 3214 1528 9B00     		lsl	r3, r3, #2
 3215 152a 0233     		add	r3, r3, #2
 3216 152c FA68     		ldr	r2, [r7, #12]
 3217 152e D218     		add	r2, r2, r3
 3218 1530 A223     		mov	r3, #162
 3219 1532 9B00     		lsl	r3, r3, #2
 3220 1534 FB18     		add	r3, r7, r3
 3221 1536 1288     		ldrh	r2, [r2]
 3222 1538 1A80     		strh	r2, [r3]
 814:Source\TransformFunctions/arm_cfft_radix4_q15.c **** 
 815:Source\TransformFunctions/arm_cfft_radix4_q15.c ****         /* Read yc (real), xc(imag) input */
 816:Source\TransformFunctions/arm_cfft_radix4_q15.c ****         S0 = pSrc16[i2 * 2u];
 3223              		.loc 1 816 0 discriminator 3
 3224 153a A423     		mov	r3, #164
 3225 153c 9B00     		lsl	r3, r3, #2
 3226 153e FB18     		add	r3, r7, r3
 3227 1540 1B68     		ldr	r3, [r3]
 3228 1542 9B00     		lsl	r3, r3, #2
 3229 1544 FA68     		ldr	r2, [r7, #12]
 3230 1546 D218     		add	r2, r2, r3
 3231 1548 DA4B     		ldr	r3, .L237+4
 3232 154a FB18     		add	r3, r7, r3
 3233 154c 1288     		ldrh	r2, [r2]
 3234 154e 1A80     		strh	r2, [r3]
 817:Source\TransformFunctions/arm_cfft_radix4_q15.c ****         S1 = pSrc16[(i2 * 2u) + 1u];
 3235              		.loc 1 817 0 discriminator 3
 3236 1550 A423     		mov	r3, #164
 3237 1552 9B00     		lsl	r3, r3, #2
 3238 1554 FB18     		add	r3, r7, r3
 3239 1556 1B68     		ldr	r3, [r3]
 3240 1558 9B00     		lsl	r3, r3, #2
 3241 155a 0233     		add	r3, r3, #2
 3242 155c FA68     		ldr	r2, [r7, #12]
 3243 155e D218     		add	r2, r2, r3
 3244 1560 A123     		mov	r3, #161
 3245 1562 9B00     		lsl	r3, r3, #2
 3246 1564 FB18     		add	r3, r7, r3
 3247 1566 1288     		ldrh	r2, [r2]
 3248 1568 1A80     		strh	r2, [r3]
 818:Source\TransformFunctions/arm_cfft_radix4_q15.c **** 
 819:Source\TransformFunctions/arm_cfft_radix4_q15.c ****         /* R0 = (ya + yc), R1 = (xa + xc) */
 820:Source\TransformFunctions/arm_cfft_radix4_q15.c ****         R0 = __SSAT(T0 + S0, 16);
 3249              		.loc 1 820 0 discriminator 3
 3250 156a D14B     		ldr	r3, .L237
 3251 156c FB18     		add	r3, r7, r3
 3252 156e 0022     		mov	r2, #0
 3253 1570 9A5E     		ldrsh	r2, [r3, r2]
 3254 1572 D04B     		ldr	r3, .L237+4
 3255 1574 FB18     		add	r3, r7, r3
 3256 1576 0021     		mov	r1, #0
 3257 1578 5B5E     		ldrsh	r3, [r3, r1]
 3258 157a D318     		add	r3, r2, r3
ARM GAS  C:\Users\fneves\AppData\Local\Temp\cc0ayw4Y.s 			page 88


 3259 157c A822     		mov	r2, #168
 3260 157e 5200     		lsl	r2, r2, #1
 3261 1580 BA18     		add	r2, r7, r2
 3262 1582 1360     		str	r3, [r2]
 3263 1584 1023     		mov	r3, #16
 3264 1586 A622     		mov	r2, #166
 3265 1588 5200     		lsl	r2, r2, #1
 3266 158a BA18     		add	r2, r7, r2
 3267 158c 1360     		str	r3, [r2]
 3268              	.LBB150:
 3269              	.LBB151:
 699:.\Include/arm_math.h ****     for (i = 0; i < (y - 1); i++)
 3270              		.loc 2 699 0 discriminator 3
 3271 158e 0123     		mov	r3, #1
 3272 1590 A422     		mov	r2, #164
 3273 1592 5200     		lsl	r2, r2, #1
 3274 1594 BA18     		add	r2, r7, r2
 3275 1596 1360     		str	r3, [r2]
 700:.\Include/arm_math.h ****     {
 3276              		.loc 2 700 0 discriminator 3
 3277 1598 0023     		mov	r3, #0
 3278 159a A222     		mov	r2, #162
 3279 159c 5200     		lsl	r2, r2, #1
 3280 159e BA18     		add	r2, r7, r2
 3281 15a0 1360     		str	r3, [r2]
 3282 15a2 11E0     		b	.L94
 3283              	.L95:
 702:.\Include/arm_math.h ****     }
 3284              		.loc 2 702 0
 3285 15a4 A423     		mov	r3, #164
 3286 15a6 5B00     		lsl	r3, r3, #1
 3287 15a8 FB18     		add	r3, r7, r3
 3288 15aa 1B68     		ldr	r3, [r3]
 3289 15ac 5B00     		lsl	r3, r3, #1
 3290 15ae A422     		mov	r2, #164
 3291 15b0 5200     		lsl	r2, r2, #1
 3292 15b2 BA18     		add	r2, r7, r2
 3293 15b4 1360     		str	r3, [r2]
 700:.\Include/arm_math.h ****     {
 3294              		.loc 2 700 0
 3295 15b6 A223     		mov	r3, #162
 3296 15b8 5B00     		lsl	r3, r3, #1
 3297 15ba FB18     		add	r3, r7, r3
 3298 15bc 1B68     		ldr	r3, [r3]
 3299 15be 0133     		add	r3, r3, #1
 3300 15c0 A222     		mov	r2, #162
 3301 15c2 5200     		lsl	r2, r2, #1
 3302 15c4 BA18     		add	r2, r7, r2
 3303 15c6 1360     		str	r3, [r2]
 3304              	.L94:
 3305 15c8 A623     		mov	r3, #166
 3306 15ca 5B00     		lsl	r3, r3, #1
 3307 15cc FB18     		add	r3, r7, r3
 3308 15ce 1B68     		ldr	r3, [r3]
 3309 15d0 013B     		sub	r3, r3, #1
 3310 15d2 A222     		mov	r2, #162
 3311 15d4 5200     		lsl	r2, r2, #1
ARM GAS  C:\Users\fneves\AppData\Local\Temp\cc0ayw4Y.s 			page 89


 3312 15d6 BA18     		add	r2, r7, r2
 3313 15d8 1268     		ldr	r2, [r2]
 3314 15da 9A42     		cmp	r2, r3
 3315 15dc E2D3     		bcc	.L95
 705:.\Include/arm_math.h ****     {
 3316              		.loc 2 705 0
 3317 15de A823     		mov	r3, #168
 3318 15e0 5B00     		lsl	r3, r3, #1
 3319 15e2 FB18     		add	r3, r7, r3
 3320 15e4 1B68     		ldr	r3, [r3]
 3321 15e6 002B     		cmp	r3, #0
 3322 15e8 1BDD     		ble	.L96
 707:.\Include/arm_math.h **** 
 3323              		.loc 2 707 0
 3324 15ea A423     		mov	r3, #164
 3325 15ec 5B00     		lsl	r3, r3, #1
 3326 15ee FB18     		add	r3, r7, r3
