ARM GAS  C:\Users\fneves\AppData\Local\Temp\ccxeNGJG.s 			page 1


   1              		.cpu cortex-m0plus
   2              		.fpu softvfp
   3              		.eabi_attribute 20, 1
   4              		.eabi_attribute 21, 1
   5              		.eabi_attribute 23, 3
   6              		.eabi_attribute 24, 1
   7              		.eabi_attribute 25, 1
   8              		.eabi_attribute 26, 1
   9              		.eabi_attribute 30, 6
  10              		.eabi_attribute 34, 0
  11              		.eabi_attribute 18, 4
  12              		.code	16
  13              		.file	"arm_pid_reset_f32.c"
  14              		.text
  15              	.Ltext0:
  16              		.cfi_sections	.debug_frame
  17              		.section	.text.arm_pid_reset_f32,"ax",%progbits
  18              		.align	2
  19              		.global	arm_pid_reset_f32
  20              		.code	16
  21              		.thumb_func
  22              		.type	arm_pid_reset_f32, %function
  23              	arm_pid_reset_f32:
  24              	.LFB82:
  25              		.file 1 "Source\\ControllerFunctions\\arm_pid_reset_f32.c"
   1:Source\ControllerFunctions/arm_pid_reset_f32.c **** /* ----------------------------------------------------------------------
   2:Source\ControllerFunctions/arm_pid_reset_f32.c ****  * Project:      CMSIS DSP Library
   3:Source\ControllerFunctions/arm_pid_reset_f32.c ****  * Title:        arm_pid_reset_f32.c
   4:Source\ControllerFunctions/arm_pid_reset_f32.c ****  * Description:  Floating-point PID Control reset function
   5:Source\ControllerFunctions/arm_pid_reset_f32.c ****  *
   6:Source\ControllerFunctions/arm_pid_reset_f32.c ****  * $Date:        27. January 2017
   7:Source\ControllerFunctions/arm_pid_reset_f32.c ****  * $Revision:    V.1.5.1
   8:Source\ControllerFunctions/arm_pid_reset_f32.c ****  *
   9:Source\ControllerFunctions/arm_pid_reset_f32.c ****  * Target Processor: Cortex-M cores
  10:Source\ControllerFunctions/arm_pid_reset_f32.c ****  * -------------------------------------------------------------------- */
  11:Source\ControllerFunctions/arm_pid_reset_f32.c **** /*
  12:Source\ControllerFunctions/arm_pid_reset_f32.c ****  * Copyright (C) 2010-2017 ARM Limited or its affiliates. All rights reserved.
  13:Source\ControllerFunctions/arm_pid_reset_f32.c ****  *
  14:Source\ControllerFunctions/arm_pid_reset_f32.c ****  * SPDX-License-Identifier: Apache-2.0
  15:Source\ControllerFunctions/arm_pid_reset_f32.c ****  *
  16:Source\ControllerFunctions/arm_pid_reset_f32.c ****  * Licensed under the Apache License, Version 2.0 (the License); you may
  17:Source\ControllerFunctions/arm_pid_reset_f32.c ****  * not use this file except in compliance with the License.
  18:Source\ControllerFunctions/arm_pid_reset_f32.c ****  * You may obtain a copy of the License at
  19:Source\ControllerFunctions/arm_pid_reset_f32.c ****  *
  20:Source\ControllerFunctions/arm_pid_reset_f32.c ****  * www.apache.org/licenses/LICENSE-2.0
  21:Source\ControllerFunctions/arm_pid_reset_f32.c ****  *
  22:Source\ControllerFunctions/arm_pid_reset_f32.c ****  * Unless required by applicable law or agreed to in writing, software
  23:Source\ControllerFunctions/arm_pid_reset_f32.c ****  * distributed under the License is distributed on an AS IS BASIS, WITHOUT
  24:Source\ControllerFunctions/arm_pid_reset_f32.c ****  * WARRANTIES OR CONDITIONS OF ANY KIND, either express or implied.
  25:Source\ControllerFunctions/arm_pid_reset_f32.c ****  * See the License for the specific language governing permissions and
  26:Source\ControllerFunctions/arm_pid_reset_f32.c ****  * limitations under the License.
  27:Source\ControllerFunctions/arm_pid_reset_f32.c ****  */
  28:Source\ControllerFunctions/arm_pid_reset_f32.c **** 
  29:Source\ControllerFunctions/arm_pid_reset_f32.c **** #include "arm_math.h"
  30:Source\ControllerFunctions/arm_pid_reset_f32.c **** 
  31:Source\ControllerFunctions/arm_pid_reset_f32.c ****  /**
  32:Source\ControllerFunctions/arm_pid_reset_f32.c ****  * @addtogroup PID
ARM GAS  C:\Users\fneves\AppData\Local\Temp\ccxeNGJG.s 			page 2


  33:Source\ControllerFunctions/arm_pid_reset_f32.c ****  * @{
  34:Source\ControllerFunctions/arm_pid_reset_f32.c ****  */
  35:Source\ControllerFunctions/arm_pid_reset_f32.c **** 
  36:Source\ControllerFunctions/arm_pid_reset_f32.c **** /**
  37:Source\ControllerFunctions/arm_pid_reset_f32.c **** * @brief  Reset function for the floating-point PID Control.
  38:Source\ControllerFunctions/arm_pid_reset_f32.c **** * @param[in] *S	Instance pointer of PID control data structure.
  39:Source\ControllerFunctions/arm_pid_reset_f32.c **** * @return none.
  40:Source\ControllerFunctions/arm_pid_reset_f32.c **** * \par Description:
  41:Source\ControllerFunctions/arm_pid_reset_f32.c **** * The function resets the state buffer to zeros.
  42:Source\ControllerFunctions/arm_pid_reset_f32.c **** */
  43:Source\ControllerFunctions/arm_pid_reset_f32.c **** void arm_pid_reset_f32(
  44:Source\ControllerFunctions/arm_pid_reset_f32.c ****   arm_pid_instance_f32 * S)
  45:Source\ControllerFunctions/arm_pid_reset_f32.c **** {
  26              		.loc 1 45 0
  27              		.cfi_startproc
  28 0000 80B5     		push	{r7, lr}
  29              		.cfi_def_cfa_offset 8
  30              		.cfi_offset 7, -8
  31              		.cfi_offset 14, -4
  32 0002 82B0     		sub	sp, sp, #8
  33              		.cfi_def_cfa_offset 16
  34 0004 00AF     		add	r7, sp, #0
  35              		.cfi_def_cfa_register 7
  36 0006 7860     		str	r0, [r7, #4]
  46:Source\ControllerFunctions/arm_pid_reset_f32.c **** 
  47:Source\ControllerFunctions/arm_pid_reset_f32.c ****   /* Clear the state buffer.  The size will be always 3 samples */
  48:Source\ControllerFunctions/arm_pid_reset_f32.c ****   memset(S->state, 0, 3u * sizeof(float32_t));
  37              		.loc 1 48 0
  38 0008 7B68     		ldr	r3, [r7, #4]
  39 000a 0C33     		add	r3, r3, #12
  40 000c 181C     		mov	r0, r3
  41 000e 0021     		mov	r1, #0
  42 0010 0C22     		mov	r2, #12
  43 0012 FFF7FEFF 		bl	memset
  49:Source\ControllerFunctions/arm_pid_reset_f32.c **** }
  44              		.loc 1 49 0
  45 0016 BD46     		mov	sp, r7
  46 0018 02B0     		add	sp, sp, #8
  47              		@ sp needed
  48 001a 80BD     		pop	{r7, pc}
  49              		.cfi_endproc
  50              	.LFE82:
  51              		.size	arm_pid_reset_f32, .-arm_pid_reset_f32
  52              		.text
  53              	.Letext0:
  54              		.file 2 ".\\Include/arm_math.h"