ARM GAS  C:\Users\fneves\AppData\Local\Temp\ccDNlS3k.s 			page 1


   1              		.cpu cortex-m0plus
   2              		.fpu softvfp
   3              		.eabi_attribute 20, 1
   4              		.eabi_attribute 21, 1
   5              		.eabi_attribute 23, 3
   6              		.eabi_attribute 24, 1
   7              		.eabi_attribute 25, 1
   8              		.eabi_attribute 26, 1
   9              		.eabi_attribute 30, 6
  10              		.eabi_attribute 34, 0
  11              		.eabi_attribute 18, 4
  12              		.code	16
  13              		.file	"Cm0plusStart.c"
  14              		.text
  15              	.Ltext0:
  16              		.cfi_sections	.debug_frame
  17              		.section	.noinit,"aw",%progbits
  18              		.align	2
  19              		.type	cySysNoInitDataValid, %object
  20              		.size	cySysNoInitDataValid, 4
  21              	cySysNoInitDataValid:
  22 0000 00000000 		.space	4
  23              		.section	.text.IntDefaultHandler,"ax",%progbits
  24              		.align	2
  25              		.global	IntDefaultHandler
  26              		.code	16
  27              		.thumb_func
  28              		.type	IntDefaultHandler, %function
  29              	IntDefaultHandler:
  30              	.LFB1:
  31              		.file 1 "Generated_Source\\PSoC4\\Cm0plusStart.c"
   1:Generated_Source\PSoC4/Cm0plusStart.c **** /***************************************************************************//**
   2:Generated_Source\PSoC4/Cm0plusStart.c **** * \file Cm0Start.c
   3:Generated_Source\PSoC4/Cm0plusStart.c **** * \version 5.50
   4:Generated_Source\PSoC4/Cm0plusStart.c **** *
   5:Generated_Source\PSoC4/Cm0plusStart.c **** * \brief Startup code for the ARM CM0.
   6:Generated_Source\PSoC4/Cm0plusStart.c **** *
   7:Generated_Source\PSoC4/Cm0plusStart.c **** ********************************************************************************
   8:Generated_Source\PSoC4/Cm0plusStart.c **** * \copyright
   9:Generated_Source\PSoC4/Cm0plusStart.c **** * Copyright 2010-2016, Cypress Semiconductor Corporation.  All rights reserved.
  10:Generated_Source\PSoC4/Cm0plusStart.c **** * You may use this file only in accordance with the license, terms, conditions,
  11:Generated_Source\PSoC4/Cm0plusStart.c **** * disclaimers, and limitations in the end user license agreement accompanying
  12:Generated_Source\PSoC4/Cm0plusStart.c **** * the software package with which this file was provided.
  13:Generated_Source\PSoC4/Cm0plusStart.c **** *******************************************************************************/
  14:Generated_Source\PSoC4/Cm0plusStart.c **** 
  15:Generated_Source\PSoC4/Cm0plusStart.c **** #include <limits.h>
  16:Generated_Source\PSoC4/Cm0plusStart.c **** #include "cydevice_trm.h"
  17:Generated_Source\PSoC4/Cm0plusStart.c **** #include "cytypes.h"
  18:Generated_Source\PSoC4/Cm0plusStart.c **** #include "cyfitter_cfg.h"
  19:Generated_Source\PSoC4/Cm0plusStart.c **** #include "CyLib.h"
  20:Generated_Source\PSoC4/Cm0plusStart.c **** #include "cyfitter.h"
  21:Generated_Source\PSoC4/Cm0plusStart.c **** 
  22:Generated_Source\PSoC4/Cm0plusStart.c **** 
  23:Generated_Source\PSoC4/Cm0plusStart.c **** #define CY_NUM_VECTORS              (CY_INT_IRQ_BASE + CY_NUM_INTERRUPTS)
  24:Generated_Source\PSoC4/Cm0plusStart.c **** 
  25:Generated_Source\PSoC4/Cm0plusStart.c **** #if (CY_IP_CPUSS_CM0)
  26:Generated_Source\PSoC4/Cm0plusStart.c ****     #define CY_CPUSS_CONFIG_VECT_IN_RAM (( uint32 ) 0x01)
ARM GAS  C:\Users\fneves\AppData\Local\Temp\ccDNlS3k.s 			page 2


  27:Generated_Source\PSoC4/Cm0plusStart.c **** #endif /* (CY_IP_CPUSS_CM0) */
  28:Generated_Source\PSoC4/Cm0plusStart.c **** 
  29:Generated_Source\PSoC4/Cm0plusStart.c **** 
  30:Generated_Source\PSoC4/Cm0plusStart.c **** #if (CY_IP_CPUSS_CM0)
  31:Generated_Source\PSoC4/Cm0plusStart.c ****     /* CPUSS Configuration register */
  32:Generated_Source\PSoC4/Cm0plusStart.c ****     #define CY_CPUSS_CONFIG_REG         (*(reg32 *) CYREG_CPUSS_CONFIG)
  33:Generated_Source\PSoC4/Cm0plusStart.c ****     #define CY_CPUSS_CONFIG_PTR         ( (reg32 *) CYREG_CPUSS_CONFIG)
  34:Generated_Source\PSoC4/Cm0plusStart.c **** #endif /* (CY_IP_CPUSS_CM0) */
  35:Generated_Source\PSoC4/Cm0plusStart.c **** 
  36:Generated_Source\PSoC4/Cm0plusStart.c **** 
  37:Generated_Source\PSoC4/Cm0plusStart.c **** #if defined (__ICCARM__)
  38:Generated_Source\PSoC4/Cm0plusStart.c ****     #define CY_NUM_ROM_VECTORS      (CY_NUM_VECTORS)
  39:Generated_Source\PSoC4/Cm0plusStart.c **** #else
  40:Generated_Source\PSoC4/Cm0plusStart.c ****     #define CY_NUM_ROM_VECTORS      (4u)
  41:Generated_Source\PSoC4/Cm0plusStart.c **** #endif  /* defined (__ICCARM__) */
  42:Generated_Source\PSoC4/Cm0plusStart.c **** 
  43:Generated_Source\PSoC4/Cm0plusStart.c **** /* Vector table address in SRAM */
  44:Generated_Source\PSoC4/Cm0plusStart.c **** #define CY_CPUSS_CONFIG_VECT_ADDR_IN_RAM    (0x20000000u)
  45:Generated_Source\PSoC4/Cm0plusStart.c **** 
  46:Generated_Source\PSoC4/Cm0plusStart.c **** #ifndef CY_SYS_INITIAL_STACK_POINTER
  47:Generated_Source\PSoC4/Cm0plusStart.c **** 
  48:Generated_Source\PSoC4/Cm0plusStart.c ****     #if defined(__ARMCC_VERSION)
  49:Generated_Source\PSoC4/Cm0plusStart.c ****         #define CY_SYS_INITIAL_STACK_POINTER ((cyisraddress)(uint32)&Image$$ARM_LIB_STACK$$ZI$$Limi
  50:Generated_Source\PSoC4/Cm0plusStart.c ****     #elif defined (__GNUC__)
  51:Generated_Source\PSoC4/Cm0plusStart.c ****         #define CY_SYS_INITIAL_STACK_POINTER (&__cy_stack)
  52:Generated_Source\PSoC4/Cm0plusStart.c ****     #elif defined (__ICCARM__)
  53:Generated_Source\PSoC4/Cm0plusStart.c ****         #pragma language=extended
  54:Generated_Source\PSoC4/Cm0plusStart.c ****         #pragma segment="CSTACK"
  55:Generated_Source\PSoC4/Cm0plusStart.c ****         #define CY_SYS_INITIAL_STACK_POINTER  { .__ptr = __sfe( "CSTACK" ) }
  56:Generated_Source\PSoC4/Cm0plusStart.c **** 
  57:Generated_Source\PSoC4/Cm0plusStart.c ****         extern void __iar_program_start( void );
  58:Generated_Source\PSoC4/Cm0plusStart.c ****         extern void __iar_data_init3 (void);
  59:Generated_Source\PSoC4/Cm0plusStart.c ****     #endif  /* (__ARMCC_VERSION) */
  60:Generated_Source\PSoC4/Cm0plusStart.c **** 
  61:Generated_Source\PSoC4/Cm0plusStart.c **** #endif /* CY_SYS_INITIAL_STACK_POINTER */
  62:Generated_Source\PSoC4/Cm0plusStart.c **** 
  63:Generated_Source\PSoC4/Cm0plusStart.c **** 
  64:Generated_Source\PSoC4/Cm0plusStart.c **** #if defined(__GNUC__)
  65:Generated_Source\PSoC4/Cm0plusStart.c ****     #include <errno.h>
  66:Generated_Source\PSoC4/Cm0plusStart.c ****     extern int  errno;
  67:Generated_Source\PSoC4/Cm0plusStart.c ****     extern int  end;
  68:Generated_Source\PSoC4/Cm0plusStart.c **** #endif  /* defined(__GNUC__) */
  69:Generated_Source\PSoC4/Cm0plusStart.c **** 
  70:Generated_Source\PSoC4/Cm0plusStart.c **** /* Extern functions */
  71:Generated_Source\PSoC4/Cm0plusStart.c **** extern void CyBtldr_CheckLaunch(void);
  72:Generated_Source\PSoC4/Cm0plusStart.c **** 
  73:Generated_Source\PSoC4/Cm0plusStart.c **** /* Function prototypes */
  74:Generated_Source\PSoC4/Cm0plusStart.c **** void initialize_psoc(void);
  75:Generated_Source\PSoC4/Cm0plusStart.c **** 
  76:Generated_Source\PSoC4/Cm0plusStart.c **** /* Global variables */
  77:Generated_Source\PSoC4/Cm0plusStart.c **** #if !defined (__ICCARM__)
  78:Generated_Source\PSoC4/Cm0plusStart.c ****     CY_NOINIT static uint32 cySysNoInitDataValid;
  79:Generated_Source\PSoC4/Cm0plusStart.c **** #endif  /* !defined (__ICCARM__) */
  80:Generated_Source\PSoC4/Cm0plusStart.c **** 
  81:Generated_Source\PSoC4/Cm0plusStart.c **** 
  82:Generated_Source\PSoC4/Cm0plusStart.c **** #if (CYDEV_PROJ_TYPE != CYDEV_PROJ_TYPE_STANDARD)
  83:Generated_Source\PSoC4/Cm0plusStart.c **** 
ARM GAS  C:\Users\fneves\AppData\Local\Temp\ccDNlS3k.s 			page 3


  84:Generated_Source\PSoC4/Cm0plusStart.c ****     /*******************************************************************************
  85:Generated_Source\PSoC4/Cm0plusStart.c ****     This variable is used by the Bootloader/Bootloadable components to schedule
  86:Generated_Source\PSoC4/Cm0plusStart.c ****     what application will be started after a software reset.
  87:Generated_Source\PSoC4/Cm0plusStart.c ****     *******************************************************************************/
  88:Generated_Source\PSoC4/Cm0plusStart.c ****     #if (__ARMCC_VERSION)
  89:Generated_Source\PSoC4/Cm0plusStart.c ****         __attribute__ ((section(".bootloaderruntype"), zero_init))
  90:Generated_Source\PSoC4/Cm0plusStart.c ****     #elif defined (__GNUC__)
  91:Generated_Source\PSoC4/Cm0plusStart.c ****         __attribute__ ((section(".bootloaderruntype")))
  92:Generated_Source\PSoC4/Cm0plusStart.c ****     #elif defined (__ICCARM__)
  93:Generated_Source\PSoC4/Cm0plusStart.c ****         #pragma location=".bootloaderruntype"
  94:Generated_Source\PSoC4/Cm0plusStart.c ****     #endif /* (__ARMCC_VERSION) */
  95:Generated_Source\PSoC4/Cm0plusStart.c ****     volatile uint32 cyBtldrRunType;
  96:Generated_Source\PSoC4/Cm0plusStart.c **** 
  97:Generated_Source\PSoC4/Cm0plusStart.c **** #endif  /* (CYDEV_PROJ_TYPE != CYDEV_PROJ_TYPE_STANDARD) */
  98:Generated_Source\PSoC4/Cm0plusStart.c **** 
  99:Generated_Source\PSoC4/Cm0plusStart.c **** 
 100:Generated_Source\PSoC4/Cm0plusStart.c **** /*******************************************************************************
 101:Generated_Source\PSoC4/Cm0plusStart.c **** * Function Name: IntDefaultHandler
 102:Generated_Source\PSoC4/Cm0plusStart.c **** ****************************************************************************//**
 103:Generated_Source\PSoC4/Cm0plusStart.c **** *
 104:Generated_Source\PSoC4/Cm0plusStart.c **** *  This function is called for all interrupts, other than a reset that is called
 105:Generated_Source\PSoC4/Cm0plusStart.c **** *  before the system is setup.
 106:Generated_Source\PSoC4/Cm0plusStart.c **** *
 107:Generated_Source\PSoC4/Cm0plusStart.c **** *******************************************************************************/
 108:Generated_Source\PSoC4/Cm0plusStart.c **** CY_NORETURN
 109:Generated_Source\PSoC4/Cm0plusStart.c **** CY_ISR(IntDefaultHandler)
 110:Generated_Source\PSoC4/Cm0plusStart.c **** {
  32              		.loc 1 110 0
  33              		.cfi_startproc
  34 0000 80B5     		push	{r7, lr}
  35              		.cfi_def_cfa_offset 8
  36              		.cfi_offset 7, -8
  37              		.cfi_offset 14, -4
  38 0002 00AF     		add	r7, sp, #0
  39              		.cfi_def_cfa_register 7
 111:Generated_Source\PSoC4/Cm0plusStart.c ****     /***************************************************************************
 112:Generated_Source\PSoC4/Cm0plusStart.c ****     * We must not get here. If we do, a serious problem occurs, so go into
 113:Generated_Source\PSoC4/Cm0plusStart.c ****     * an infinite loop.
 114:Generated_Source\PSoC4/Cm0plusStart.c ****     ***************************************************************************/
 115:Generated_Source\PSoC4/Cm0plusStart.c **** 
 116:Generated_Source\PSoC4/Cm0plusStart.c ****     #if defined(__GNUC__)
 117:Generated_Source\PSoC4/Cm0plusStart.c ****         if (errno == ENOMEM)
  40              		.loc 1 117 0
  41 0004 FFF7FEFF 		bl	__errno
  42 0008 031C     		mov	r3, r0
  43 000a 1B68     		ldr	r3, [r3]
  44 000c 0C2B     		cmp	r3, #12
  45 000e 00D1     		bne	.L2
  46              	.L3:
 118:Generated_Source\PSoC4/Cm0plusStart.c ****         {
 119:Generated_Source\PSoC4/Cm0plusStart.c ****             #ifdef CY_BOOT_INT_DEFAULT_HANDLER_ENOMEM_EXCEPTION_CALLBACK
 120:Generated_Source\PSoC4/Cm0plusStart.c ****                 CyBoot_IntDefaultHandler_Enomem_Exception_Callback();
 121:Generated_Source\PSoC4/Cm0plusStart.c ****             #endif /* CY_BOOT_INT_DEFAULT_HANDLER_ENOMEM_EXCEPTION_CALLBACK */
 122:Generated_Source\PSoC4/Cm0plusStart.c ****             
 123:Generated_Source\PSoC4/Cm0plusStart.c ****             while(1)
 124:Generated_Source\PSoC4/Cm0plusStart.c ****             {
 125:Generated_Source\PSoC4/Cm0plusStart.c ****                 /* Out Of Heap Space
ARM GAS  C:\Users\fneves\AppData\Local\Temp\ccDNlS3k.s 			page 4


 126:Generated_Source\PSoC4/Cm0plusStart.c ****                  * This can be increased in the System tab of the Design Wide Resources.
 127:Generated_Source\PSoC4/Cm0plusStart.c ****                  */
 128:Generated_Source\PSoC4/Cm0plusStart.c ****             }
  47              		.loc 1 128 0 discriminator 1
  48 0010 FEE7     		b	.L3
  49              	.L2:
 129:Generated_Source\PSoC4/Cm0plusStart.c ****         }
 130:Generated_Source\PSoC4/Cm0plusStart.c ****         else
 131:Generated_Source\PSoC4/Cm0plusStart.c ****     #endif
 132:Generated_Source\PSoC4/Cm0plusStart.c ****         {
 133:Generated_Source\PSoC4/Cm0plusStart.c ****             #ifdef CY_BOOT_INT_DEFAULT_HANDLER_EXCEPTION_ENTRY_CALLBACK
 134:Generated_Source\PSoC4/Cm0plusStart.c ****                 CyBoot_IntDefaultHandler_Exception_EntryCallback();
 135:Generated_Source\PSoC4/Cm0plusStart.c ****             #endif /* CY_BOOT_INT_DEFAULT_HANDLER_EXCEPTION_ENTRY_CALLBACK */
 136:Generated_Source\PSoC4/Cm0plusStart.c **** 
 137:Generated_Source\PSoC4/Cm0plusStart.c ****             while(1)
 138:Generated_Source\PSoC4/Cm0plusStart.c ****             {
 139:Generated_Source\PSoC4/Cm0plusStart.c **** 
 140:Generated_Source\PSoC4/Cm0plusStart.c ****             }
  50              		.loc 1 140 0 discriminator 2
  51 0012 FEE7     		b	.L2
  52              		.cfi_endproc
  53              	.LFE1:
  54              		.size	IntDefaultHandler, .-IntDefaultHandler
  55              		.section	.text._exit,"ax",%progbits
  56              		.align	2
  57              		.weak	_exit
  58              		.code	16
  59              		.thumb_func
  60              		.type	_exit, %function
  61              	_exit:
  62              	.LFB2:
 141:Generated_Source\PSoC4/Cm0plusStart.c ****         }
 142:Generated_Source\PSoC4/Cm0plusStart.c **** }
 143:Generated_Source\PSoC4/Cm0plusStart.c **** 
 144:Generated_Source\PSoC4/Cm0plusStart.c **** #if defined(__ARMCC_VERSION)
 145:Generated_Source\PSoC4/Cm0plusStart.c **** 
 146:Generated_Source\PSoC4/Cm0plusStart.c **** /* Local function for device reset. */
 147:Generated_Source\PSoC4/Cm0plusStart.c **** extern void Reset(void);
 148:Generated_Source\PSoC4/Cm0plusStart.c **** 
 149:Generated_Source\PSoC4/Cm0plusStart.c **** /* Application entry point. */
 150:Generated_Source\PSoC4/Cm0plusStart.c **** extern void $Super$$main(void);
 151:Generated_Source\PSoC4/Cm0plusStart.c **** 
 152:Generated_Source\PSoC4/Cm0plusStart.c **** /* Linker-generated Stack Base addresses, Two Region and One Region */
 153:Generated_Source\PSoC4/Cm0plusStart.c **** extern unsigned long Image$$ARM_LIB_STACK$$ZI$$Limit;
 154:Generated_Source\PSoC4/Cm0plusStart.c **** 
 155:Generated_Source\PSoC4/Cm0plusStart.c **** /* RealView C Library initialization. */
 156:Generated_Source\PSoC4/Cm0plusStart.c **** extern int __main(void);
 157:Generated_Source\PSoC4/Cm0plusStart.c **** 
 158:Generated_Source\PSoC4/Cm0plusStart.c **** 
 159:Generated_Source\PSoC4/Cm0plusStart.c **** /*******************************************************************************
 160:Generated_Source\PSoC4/Cm0plusStart.c **** * Function Name: Reset
 161:Generated_Source\PSoC4/Cm0plusStart.c **** ****************************************************************************//**
 162:Generated_Source\PSoC4/Cm0plusStart.c **** *
 163:Generated_Source\PSoC4/Cm0plusStart.c **** * This function handles the reset interrupt for the MDK toolchains.
 164:Generated_Source\PSoC4/Cm0plusStart.c **** * This is the first bit of code that is executed at startup.
 165:Generated_Source\PSoC4/Cm0plusStart.c **** *
 166:Generated_Source\PSoC4/Cm0plusStart.c **** *******************************************************************************/
ARM GAS  C:\Users\fneves\AppData\Local\Temp\ccDNlS3k.s 			page 5


 167:Generated_Source\PSoC4/Cm0plusStart.c **** void Reset(void)
 168:Generated_Source\PSoC4/Cm0plusStart.c **** {
 169:Generated_Source\PSoC4/Cm0plusStart.c ****     #if (CYDEV_PROJ_TYPE == CYDEV_PROJ_TYPE_LOADABLE || CYDEV_PROJ_TYPE == CYDEV_PROJ_TYPE_LOADABLE
 170:Generated_Source\PSoC4/Cm0plusStart.c ****         /* The bootloadable application image is started at Reset() handler
 171:Generated_Source\PSoC4/Cm0plusStart.c ****         * as a result of a branch instruction execution from the bootloader.
 172:Generated_Source\PSoC4/Cm0plusStart.c ****         * So, the stack pointer needs to be reset to be sure that
 173:Generated_Source\PSoC4/Cm0plusStart.c ****         * there is no garbage in the stack.
 174:Generated_Source\PSoC4/Cm0plusStart.c ****         */
 175:Generated_Source\PSoC4/Cm0plusStart.c ****         register uint32_t msp __asm("msp");
 176:Generated_Source\PSoC4/Cm0plusStart.c ****         msp = (uint32_t)&Image$$ARM_LIB_STACK$$ZI$$Limit;
 177:Generated_Source\PSoC4/Cm0plusStart.c ****     #endif /*(CYDEV_PROJ_TYPE == CYDEV_PROJ_TYPE_LOADABLE || CYDEV_PROJ_TYPE == CYDEV_PROJ_TYPE_LOA
 178:Generated_Source\PSoC4/Cm0plusStart.c **** 
 179:Generated_Source\PSoC4/Cm0plusStart.c ****     #if(CY_IP_SRSSLT)
 180:Generated_Source\PSoC4/Cm0plusStart.c ****         CySysWdtDisable();
 181:Generated_Source\PSoC4/Cm0plusStart.c ****     #endif  /* (CY_IP_SRSSLT) */
 182:Generated_Source\PSoC4/Cm0plusStart.c **** 
 183:Generated_Source\PSoC4/Cm0plusStart.c ****     #if ((CYDEV_BOOTLOADER_ENABLE) && (CYDEV_PROJ_TYPE != CYDEV_PROJ_TYPE_LOADABLEANDBOOTLOADER))
 184:Generated_Source\PSoC4/Cm0plusStart.c ****         CyBtldr_CheckLaunch();
 185:Generated_Source\PSoC4/Cm0plusStart.c ****     #endif /* ((CYDEV_BOOTLOADER_ENABLE) && (CYDEV_PROJ_TYPE != CYDEV_PROJ_TYPE_LOADABLEANDBOOTLOAD
 186:Generated_Source\PSoC4/Cm0plusStart.c **** 
 187:Generated_Source\PSoC4/Cm0plusStart.c ****     __main();
 188:Generated_Source\PSoC4/Cm0plusStart.c **** }
 189:Generated_Source\PSoC4/Cm0plusStart.c **** 
 190:Generated_Source\PSoC4/Cm0plusStart.c **** /*******************************************************************************
 191:Generated_Source\PSoC4/Cm0plusStart.c **** * Function Name: $Sub$$main
 192:Generated_Source\PSoC4/Cm0plusStart.c **** ****************************************************************************//**
 193:Generated_Source\PSoC4/Cm0plusStart.c **** *
 194:Generated_Source\PSoC4/Cm0plusStart.c **** * This function is called immediately before the users main
 195:Generated_Source\PSoC4/Cm0plusStart.c **** *
 196:Generated_Source\PSoC4/Cm0plusStart.c **** *******************************************************************************/
 197:Generated_Source\PSoC4/Cm0plusStart.c **** __attribute__ ((noreturn, __noinline__))
 198:Generated_Source\PSoC4/Cm0plusStart.c **** void $Sub$$main(void)
 199:Generated_Source\PSoC4/Cm0plusStart.c **** {
 200:Generated_Source\PSoC4/Cm0plusStart.c ****     initialize_psoc();
 201:Generated_Source\PSoC4/Cm0plusStart.c **** 
 202:Generated_Source\PSoC4/Cm0plusStart.c ****     /* Call original main */
 203:Generated_Source\PSoC4/Cm0plusStart.c ****     $Super$$main();
 204:Generated_Source\PSoC4/Cm0plusStart.c **** 
 205:Generated_Source\PSoC4/Cm0plusStart.c ****     while (1)
 206:Generated_Source\PSoC4/Cm0plusStart.c ****     {
 207:Generated_Source\PSoC4/Cm0plusStart.c ****         /* If main returns it is undefined what we should do. */
 208:Generated_Source\PSoC4/Cm0plusStart.c ****     }
 209:Generated_Source\PSoC4/Cm0plusStart.c **** }
 210:Generated_Source\PSoC4/Cm0plusStart.c **** 
 211:Generated_Source\PSoC4/Cm0plusStart.c **** #elif defined(__GNUC__)
 212:Generated_Source\PSoC4/Cm0plusStart.c **** 
 213:Generated_Source\PSoC4/Cm0plusStart.c **** /* Stack Base address */
 214:Generated_Source\PSoC4/Cm0plusStart.c **** extern void __cy_stack(void);
 215:Generated_Source\PSoC4/Cm0plusStart.c **** 
 216:Generated_Source\PSoC4/Cm0plusStart.c **** /* Application entry point. */
 217:Generated_Source\PSoC4/Cm0plusStart.c **** extern int main(void);
 218:Generated_Source\PSoC4/Cm0plusStart.c **** 
 219:Generated_Source\PSoC4/Cm0plusStart.c **** /* The static objects constructors initializer */
 220:Generated_Source\PSoC4/Cm0plusStart.c **** extern void __libc_init_array(void);
 221:Generated_Source\PSoC4/Cm0plusStart.c **** 
 222:Generated_Source\PSoC4/Cm0plusStart.c **** typedef unsigned char __cy_byte_align8 __attribute ((aligned (8)));
 223:Generated_Source\PSoC4/Cm0plusStart.c **** 
ARM GAS  C:\Users\fneves\AppData\Local\Temp\ccDNlS3k.s 			page 6


 224:Generated_Source\PSoC4/Cm0plusStart.c **** struct __cy_region
 225:Generated_Source\PSoC4/Cm0plusStart.c **** {
 226:Generated_Source\PSoC4/Cm0plusStart.c ****     __cy_byte_align8 *init; /* Initial contents of this region.  */
 227:Generated_Source\PSoC4/Cm0plusStart.c ****     __cy_byte_align8 *data; /* Start address of region.  */
 228:Generated_Source\PSoC4/Cm0plusStart.c ****     size_t init_size;       /* Size of initial data.  */
 229:Generated_Source\PSoC4/Cm0plusStart.c ****     size_t zero_size;       /* Additional size to be zeroed.  */
 230:Generated_Source\PSoC4/Cm0plusStart.c **** };
 231:Generated_Source\PSoC4/Cm0plusStart.c **** 
 232:Generated_Source\PSoC4/Cm0plusStart.c **** extern const struct __cy_region __cy_regions[];
 233:Generated_Source\PSoC4/Cm0plusStart.c **** extern const char __cy_region_num __attribute__((weak));
 234:Generated_Source\PSoC4/Cm0plusStart.c **** #define __cy_region_num ((size_t)&__cy_region_num)
 235:Generated_Source\PSoC4/Cm0plusStart.c **** 
 236:Generated_Source\PSoC4/Cm0plusStart.c **** 
 237:Generated_Source\PSoC4/Cm0plusStart.c **** /*******************************************************************************
 238:Generated_Source\PSoC4/Cm0plusStart.c **** * System Calls of the Red Hat newlib C Library
 239:Generated_Source\PSoC4/Cm0plusStart.c **** *******************************************************************************/
 240:Generated_Source\PSoC4/Cm0plusStart.c **** 
 241:Generated_Source\PSoC4/Cm0plusStart.c **** 
 242:Generated_Source\PSoC4/Cm0plusStart.c **** /*******************************************************************************
 243:Generated_Source\PSoC4/Cm0plusStart.c **** * Function Name: _exit
 244:Generated_Source\PSoC4/Cm0plusStart.c **** ****************************************************************************//**
 245:Generated_Source\PSoC4/Cm0plusStart.c **** *
 246:Generated_Source\PSoC4/Cm0plusStart.c **** * Exit a program without cleaning up files. If your system doesn't provide
 247:Generated_Source\PSoC4/Cm0plusStart.c **** * this, it is best to avoid linking with subroutines that require it (exit,
 248:Generated_Source\PSoC4/Cm0plusStart.c **** * system).
 249:Generated_Source\PSoC4/Cm0plusStart.c **** *
 250:Generated_Source\PSoC4/Cm0plusStart.c **** * \param status: Status caused program exit.
 251:Generated_Source\PSoC4/Cm0plusStart.c **** *
 252:Generated_Source\PSoC4/Cm0plusStart.c **** *******************************************************************************/
 253:Generated_Source\PSoC4/Cm0plusStart.c **** __attribute__((weak))
 254:Generated_Source\PSoC4/Cm0plusStart.c **** void _exit(int status)
 255:Generated_Source\PSoC4/Cm0plusStart.c **** {
  63              		.loc 1 255 0
  64              		.cfi_startproc
  65 0000 80B5     		push	{r7, lr}
  66              		.cfi_def_cfa_offset 8
  67              		.cfi_offset 7, -8
  68              		.cfi_offset 14, -4
  69 0002 82B0     		sub	sp, sp, #8
  70              		.cfi_def_cfa_offset 16
  71 0004 00AF     		add	r7, sp, #0
  72              		.cfi_def_cfa_register 7
  73 0006 7860     		str	r0, [r7, #4]
 256:Generated_Source\PSoC4/Cm0plusStart.c ****     CyHalt((uint8) status);
  74              		.loc 1 256 0
  75 0008 7B68     		ldr	r3, [r7, #4]
  76 000a DBB2     		uxtb	r3, r3
  77 000c 181C     		mov	r0, r3
  78 000e FFF7FEFF 		bl	CyHalt
  79              	.L5:
 257:Generated_Source\PSoC4/Cm0plusStart.c **** 
 258:Generated_Source\PSoC4/Cm0plusStart.c ****     while(1)
 259:Generated_Source\PSoC4/Cm0plusStart.c ****     {
 260:Generated_Source\PSoC4/Cm0plusStart.c **** 
 261:Generated_Source\PSoC4/Cm0plusStart.c ****     }
  80              		.loc 1 261 0 discriminator 1
  81 0012 FEE7     		b	.L5
ARM GAS  C:\Users\fneves\AppData\Local\Temp\ccDNlS3k.s 			page 7


  82              		.cfi_endproc
  83              	.LFE2:
  84              		.size	_exit, .-_exit
  85              		.section	.text._sbrk,"ax",%progbits
  86              		.align	2
  87              		.weak	_sbrk
  88              		.code	16
  89              		.thumb_func
  90              		.type	_sbrk, %function
  91              	_sbrk:
  92              	.LFB3:
 262:Generated_Source\PSoC4/Cm0plusStart.c **** }
 263:Generated_Source\PSoC4/Cm0plusStart.c **** 
 264:Generated_Source\PSoC4/Cm0plusStart.c **** 
 265:Generated_Source\PSoC4/Cm0plusStart.c **** /*******************************************************************************
 266:Generated_Source\PSoC4/Cm0plusStart.c **** * Function Name: _sbrk
 267:Generated_Source\PSoC4/Cm0plusStart.c **** ****************************************************************************//**
 268:Generated_Source\PSoC4/Cm0plusStart.c **** *
 269:Generated_Source\PSoC4/Cm0plusStart.c **** * Increase program data space. As malloc and related functions depend on this,
 270:Generated_Source\PSoC4/Cm0plusStart.c **** * it is useful to have a working implementation. The following suffices for a
 271:Generated_Source\PSoC4/Cm0plusStart.c **** * standalone system; it exploits the symbol end automatically defined by the
 272:Generated_Source\PSoC4/Cm0plusStart.c **** * GNU linker.
 273:Generated_Source\PSoC4/Cm0plusStart.c **** *
 274:Generated_Source\PSoC4/Cm0plusStart.c **** * \param nbytes: The number of bytes requested (if the parameter value is positive)
 275:Generated_Source\PSoC4/Cm0plusStart.c **** * from the heap or returned back to the heap (if the parameter value is
 276:Generated_Source\PSoC4/Cm0plusStart.c **** * negative).
 277:Generated_Source\PSoC4/Cm0plusStart.c **** *
 278:Generated_Source\PSoC4/Cm0plusStart.c **** *******************************************************************************/
 279:Generated_Source\PSoC4/Cm0plusStart.c **** __attribute__((weak))
 280:Generated_Source\PSoC4/Cm0plusStart.c **** void * _sbrk (int nbytes)
 281:Generated_Source\PSoC4/Cm0plusStart.c **** {
  93              		.loc 1 281 0
  94              		.cfi_startproc
  95 0000 80B5     		push	{r7, lr}
  96              		.cfi_def_cfa_offset 8
  97              		.cfi_offset 7, -8
  98              		.cfi_offset 14, -4
  99 0002 84B0     		sub	sp, sp, #16
 100              		.cfi_def_cfa_offset 24
 101 0004 00AF     		add	r7, sp, #0
 102              		.cfi_def_cfa_register 7
 103 0006 7860     		str	r0, [r7, #4]
 282:Generated_Source\PSoC4/Cm0plusStart.c ****     extern int  end;            /* Symbol defined by linker map. Start of free memory (as symbol). 
 283:Generated_Source\PSoC4/Cm0plusStart.c ****     void *      returnValue;
 284:Generated_Source\PSoC4/Cm0plusStart.c **** 
 285:Generated_Source\PSoC4/Cm0plusStart.c ****     /* The statically held previous end of the heap, with its initialization. */
 286:Generated_Source\PSoC4/Cm0plusStart.c ****     static void *heapPointer = (void *) &end;                 /* Previous end */
 287:Generated_Source\PSoC4/Cm0plusStart.c **** 
 288:Generated_Source\PSoC4/Cm0plusStart.c ****     if (((heapPointer + nbytes) - (void *) &end) <= CYDEV_HEAP_SIZE)
 104              		.loc 1 288 0
 105 0008 0F4B     		ldr	r3, .L10
 106 000a 1A68     		ldr	r2, [r3]
 107 000c 7B68     		ldr	r3, [r7, #4]
 108 000e D318     		add	r3, r2, r3
 109 0010 1A1C     		mov	r2, r3
 110 0012 0E4B     		ldr	r3, .L10+4
 111 0014 D31A     		sub	r3, r2, r3
ARM GAS  C:\Users\fneves\AppData\Local\Temp\ccDNlS3k.s 			page 8


 112 0016 002B     		cmp	r3, #0
 113 0018 09DC     		bgt	.L7
 289:Generated_Source\PSoC4/Cm0plusStart.c ****     {
 290:Generated_Source\PSoC4/Cm0plusStart.c ****         returnValue  = heapPointer;
 114              		.loc 1 290 0
 115 001a 0B4B     		ldr	r3, .L10
 116 001c 1B68     		ldr	r3, [r3]
 117 001e FB60     		str	r3, [r7, #12]
 291:Generated_Source\PSoC4/Cm0plusStart.c ****         heapPointer += nbytes;
 118              		.loc 1 291 0
 119 0020 094B     		ldr	r3, .L10
 120 0022 1A68     		ldr	r2, [r3]
 121 0024 7B68     		ldr	r3, [r7, #4]
 122 0026 D218     		add	r2, r2, r3
 123 0028 074B     		ldr	r3, .L10
 124 002a 1A60     		str	r2, [r3]
 125 002c 07E0     		b	.L8
 126              	.L7:
 292:Generated_Source\PSoC4/Cm0plusStart.c ****     }
 293:Generated_Source\PSoC4/Cm0plusStart.c ****     else
 294:Generated_Source\PSoC4/Cm0plusStart.c ****     {
 295:Generated_Source\PSoC4/Cm0plusStart.c ****         errno = ENOMEM;
 127              		.loc 1 295 0
 128 002e FFF7FEFF 		bl	__errno
 129 0032 031C     		mov	r3, r0
 130 0034 0C22     		mov	r2, #12
 131 0036 1A60     		str	r2, [r3]
 296:Generated_Source\PSoC4/Cm0plusStart.c ****         returnValue = (void *) -1;
 132              		.loc 1 296 0
 133 0038 0123     		mov	r3, #1
 134 003a 5B42     		neg	r3, r3
 135 003c FB60     		str	r3, [r7, #12]
 136              	.L8:
 297:Generated_Source\PSoC4/Cm0plusStart.c ****     }
 298:Generated_Source\PSoC4/Cm0plusStart.c **** 
 299:Generated_Source\PSoC4/Cm0plusStart.c ****     return (returnValue);
 137              		.loc 1 299 0
 138 003e FB68     		ldr	r3, [r7, #12]
 300:Generated_Source\PSoC4/Cm0plusStart.c **** }
 139              		.loc 1 300 0
 140 0040 181C     		mov	r0, r3
 141 0042 BD46     		mov	sp, r7
 142 0044 04B0     		add	sp, sp, #16
 143              		@ sp needed
 144 0046 80BD     		pop	{r7, pc}
 145              	.L11:
 146              		.align	2
 147              	.L10:
 148 0048 00000000 		.word	heapPointer.4798
 149 004c 00000000 		.word	end
 150              		.cfi_endproc
 151              	.LFE3:
 152              		.size	_sbrk, .-_sbrk
 153              		.section	.text.Start_c,"ax",%progbits
 154              		.align	2
 155              		.global	Start_c
 156              		.code	16
ARM GAS  C:\Users\fneves\AppData\Local\Temp\ccDNlS3k.s 			page 9


 157              		.thumb_func
 158              		.type	Start_c, %function
 159              	Start_c:
 160              	.LFB4:
 301:Generated_Source\PSoC4/Cm0plusStart.c **** 
 302:Generated_Source\PSoC4/Cm0plusStart.c **** 
 303:Generated_Source\PSoC4/Cm0plusStart.c **** /*******************************************************************************
 304:Generated_Source\PSoC4/Cm0plusStart.c **** * Function Name: Start_c
 305:Generated_Source\PSoC4/Cm0plusStart.c **** ****************************************************************************//**
 306:Generated_Source\PSoC4/Cm0plusStart.c **** *
 307:Generated_Source\PSoC4/Cm0plusStart.c **** * This function handles initializing the .data and .bss sections in
 308:Generated_Source\PSoC4/Cm0plusStart.c **** * preparation for running the standard c code.  Once initialization is complete
 309:Generated_Source\PSoC4/Cm0plusStart.c **** * it will call main().  This function will never return.
 310:Generated_Source\PSoC4/Cm0plusStart.c **** *
 311:Generated_Source\PSoC4/Cm0plusStart.c **** *******************************************************************************/
 312:Generated_Source\PSoC4/Cm0plusStart.c **** void Start_c(void)  __attribute__ ((noreturn, noinline));
 313:Generated_Source\PSoC4/Cm0plusStart.c **** void Start_c(void)
 314:Generated_Source\PSoC4/Cm0plusStart.c **** {
 161              		.loc 1 314 0
 162              		.cfi_startproc
 163 0000 80B5     		push	{r7, lr}
 164              		.cfi_def_cfa_offset 8
 165              		.cfi_offset 7, -8
 166              		.cfi_offset 14, -4
 167 0002 86B0     		sub	sp, sp, #24
 168              		.cfi_def_cfa_offset 32
 169 0004 00AF     		add	r7, sp, #0
 170              		.cfi_def_cfa_register 7
 315:Generated_Source\PSoC4/Cm0plusStart.c ****     #ifdef CY_BOOT_START_C_CALLBACK
 316:Generated_Source\PSoC4/Cm0plusStart.c ****         CyBoot_Start_c_Callback();
 317:Generated_Source\PSoC4/Cm0plusStart.c ****     #else
 318:Generated_Source\PSoC4/Cm0plusStart.c ****         unsigned regions = __cy_region_num;
 171              		.loc 1 318 0
 172 0006 224B     		ldr	r3, .L20
 173 0008 7B61     		str	r3, [r7, #20]
 319:Generated_Source\PSoC4/Cm0plusStart.c ****         const struct __cy_region *rptr = __cy_regions;
 174              		.loc 1 319 0
 175 000a 224B     		ldr	r3, .L20+4
 176 000c 3B61     		str	r3, [r7, #16]
 320:Generated_Source\PSoC4/Cm0plusStart.c **** 
 321:Generated_Source\PSoC4/Cm0plusStart.c ****         /* Initialize memory */
 322:Generated_Source\PSoC4/Cm0plusStart.c ****         for (regions = __cy_region_num; regions != 0u; regions--)
 177              		.loc 1 322 0
 178 000e 204B     		ldr	r3, .L20
 179 0010 7B61     		str	r3, [r7, #20]
 180 0012 35E0     		b	.L13
 181              	.L18:
 182              	.LBB2:
 323:Generated_Source\PSoC4/Cm0plusStart.c ****         {
 324:Generated_Source\PSoC4/Cm0plusStart.c ****             uint32 *src = (uint32 *)rptr->init;
 183              		.loc 1 324 0
 184 0014 3B69     		ldr	r3, [r7, #16]
 185 0016 1B68     		ldr	r3, [r3]
 186 0018 FB60     		str	r3, [r7, #12]
 325:Generated_Source\PSoC4/Cm0plusStart.c ****             uint32 *dst = (uint32 *)rptr->data;
 187              		.loc 1 325 0
 188 001a 3B69     		ldr	r3, [r7, #16]
ARM GAS  C:\Users\fneves\AppData\Local\Temp\ccDNlS3k.s 			page 10


 189 001c 5B68     		ldr	r3, [r3, #4]
 190 001e BB60     		str	r3, [r7, #8]
 326:Generated_Source\PSoC4/Cm0plusStart.c ****             unsigned limit = rptr->init_size;
 191              		.loc 1 326 0
 192 0020 3B69     		ldr	r3, [r7, #16]
 193 0022 9B68     		ldr	r3, [r3, #8]
 194 0024 3B60     		str	r3, [r7]
 327:Generated_Source\PSoC4/Cm0plusStart.c ****             unsigned count;
 328:Generated_Source\PSoC4/Cm0plusStart.c **** 
 329:Generated_Source\PSoC4/Cm0plusStart.c ****             for (count = 0u; count != limit; count += sizeof (uint32))
 195              		.loc 1 329 0
 196 0026 0023     		mov	r3, #0
 197 0028 7B60     		str	r3, [r7, #4]
 198 002a 0CE0     		b	.L14
 199              	.L15:
 330:Generated_Source\PSoC4/Cm0plusStart.c ****             {
 331:Generated_Source\PSoC4/Cm0plusStart.c ****                 *dst = *src;
 200              		.loc 1 331 0 discriminator 3
 201 002c FB68     		ldr	r3, [r7, #12]
 202 002e 1A68     		ldr	r2, [r3]
 203 0030 BB68     		ldr	r3, [r7, #8]
 204 0032 1A60     		str	r2, [r3]
 332:Generated_Source\PSoC4/Cm0plusStart.c ****                 dst++;
 205              		.loc 1 332 0 discriminator 3
 206 0034 BB68     		ldr	r3, [r7, #8]
 207 0036 0433     		add	r3, r3, #4
 208 0038 BB60     		str	r3, [r7, #8]
 333:Generated_Source\PSoC4/Cm0plusStart.c ****                 src++;
 209              		.loc 1 333 0 discriminator 3
 210 003a FB68     		ldr	r3, [r7, #12]
 211 003c 0433     		add	r3, r3, #4
 212 003e FB60     		str	r3, [r7, #12]
 329:Generated_Source\PSoC4/Cm0plusStart.c ****             {
 213              		.loc 1 329 0 discriminator 3
 214 0040 7B68     		ldr	r3, [r7, #4]
 215 0042 0433     		add	r3, r3, #4
 216 0044 7B60     		str	r3, [r7, #4]
 217              	.L14:
 329:Generated_Source\PSoC4/Cm0plusStart.c ****             {
 218              		.loc 1 329 0 is_stmt 0 discriminator 1
 219 0046 7A68     		ldr	r2, [r7, #4]
 220 0048 3B68     		ldr	r3, [r7]
 221 004a 9A42     		cmp	r2, r3
 222 004c EED1     		bne	.L15
 334:Generated_Source\PSoC4/Cm0plusStart.c ****             }
 335:Generated_Source\PSoC4/Cm0plusStart.c ****             limit = rptr->zero_size;
 223              		.loc 1 335 0 is_stmt 1
 224 004e 3B69     		ldr	r3, [r7, #16]
 225 0050 DB68     		ldr	r3, [r3, #12]
 226 0052 3B60     		str	r3, [r7]
 336:Generated_Source\PSoC4/Cm0plusStart.c ****             for (count = 0u; count != limit; count += sizeof (uint32))
 227              		.loc 1 336 0
 228 0054 0023     		mov	r3, #0
 229 0056 7B60     		str	r3, [r7, #4]
 230 0058 08E0     		b	.L16
 231              	.L17:
 337:Generated_Source\PSoC4/Cm0plusStart.c ****             {
ARM GAS  C:\Users\fneves\AppData\Local\Temp\ccDNlS3k.s 			page 11


 338:Generated_Source\PSoC4/Cm0plusStart.c ****                 *dst = 0u;
 232              		.loc 1 338 0 discriminator 3
 233 005a BB68     		ldr	r3, [r7, #8]
 234 005c 0022     		mov	r2, #0
 235 005e 1A60     		str	r2, [r3]
 339:Generated_Source\PSoC4/Cm0plusStart.c ****                 dst++;
 236              		.loc 1 339 0 discriminator 3
 237 0060 BB68     		ldr	r3, [r7, #8]
 238 0062 0433     		add	r3, r3, #4
 239 0064 BB60     		str	r3, [r7, #8]
 336:Generated_Source\PSoC4/Cm0plusStart.c ****             for (count = 0u; count != limit; count += sizeof (uint32))
 240              		.loc 1 336 0 discriminator 3
 241 0066 7B68     		ldr	r3, [r7, #4]
 242 0068 0433     		add	r3, r3, #4
 243 006a 7B60     		str	r3, [r7, #4]
 244              	.L16:
 336:Generated_Source\PSoC4/Cm0plusStart.c ****             for (count = 0u; count != limit; count += sizeof (uint32))
 245              		.loc 1 336 0 is_stmt 0 discriminator 1
 246 006c 7A68     		ldr	r2, [r7, #4]
 247 006e 3B68     		ldr	r3, [r7]
 248 0070 9A42     		cmp	r2, r3
 249 0072 F2D1     		bne	.L17
 340:Generated_Source\PSoC4/Cm0plusStart.c ****             }
 341:Generated_Source\PSoC4/Cm0plusStart.c **** 
 342:Generated_Source\PSoC4/Cm0plusStart.c ****             rptr++;
 250              		.loc 1 342 0 is_stmt 1 discriminator 2
 251 0074 3B69     		ldr	r3, [r7, #16]
 252 0076 1033     		add	r3, r3, #16
 253 0078 3B61     		str	r3, [r7, #16]
 254              	.LBE2:
 322:Generated_Source\PSoC4/Cm0plusStart.c ****         {
 255              		.loc 1 322 0 discriminator 2
 256 007a 7B69     		ldr	r3, [r7, #20]
 257 007c 013B     		sub	r3, r3, #1
 258 007e 7B61     		str	r3, [r7, #20]
 259              	.L13:
 322:Generated_Source\PSoC4/Cm0plusStart.c ****         {
 260              		.loc 1 322 0 is_stmt 0 discriminator 1
 261 0080 7B69     		ldr	r3, [r7, #20]
 262 0082 002B     		cmp	r3, #0
 263 0084 C6D1     		bne	.L18
 343:Generated_Source\PSoC4/Cm0plusStart.c ****         }
 344:Generated_Source\PSoC4/Cm0plusStart.c **** 
 345:Generated_Source\PSoC4/Cm0plusStart.c ****         /* Invoke static objects constructors */
 346:Generated_Source\PSoC4/Cm0plusStart.c ****         __libc_init_array();
 264              		.loc 1 346 0 is_stmt 1
 265 0086 FFF7FEFF 		bl	__libc_init_array
 347:Generated_Source\PSoC4/Cm0plusStart.c ****         (void) main();
 266              		.loc 1 347 0
 267 008a FFF7FEFF 		bl	main
 268              	.L19:
 348:Generated_Source\PSoC4/Cm0plusStart.c **** 
 349:Generated_Source\PSoC4/Cm0plusStart.c ****         while (1)
 350:Generated_Source\PSoC4/Cm0plusStart.c ****         {
 351:Generated_Source\PSoC4/Cm0plusStart.c ****             /* If main returns, make sure we don't return. */
 352:Generated_Source\PSoC4/Cm0plusStart.c ****         }
 269              		.loc 1 352 0 discriminator 1
ARM GAS  C:\Users\fneves\AppData\Local\Temp\ccDNlS3k.s 			page 12


 270 008e FEE7     		b	.L19
 271              	.L21:
 272              		.align	2
 273              	.L20:
 274 0090 00000000 		.word	__cy_region_num
 275 0094 00000000 		.word	__cy_regions
 276              		.cfi_endproc
 277              	.LFE4:
 278              		.size	Start_c, .-Start_c
 279              		.section	.text.Reset,"ax",%progbits
 280              		.align	2
 281              		.global	Reset
 282              		.code	16
 283              		.thumb_func
 284              		.type	Reset, %function
 285              	Reset:
 286              	.LFB5:
 353:Generated_Source\PSoC4/Cm0plusStart.c **** 
 354:Generated_Source\PSoC4/Cm0plusStart.c ****     #endif /* CY_BOOT_START_C_CALLBACK */
 355:Generated_Source\PSoC4/Cm0plusStart.c **** }
 356:Generated_Source\PSoC4/Cm0plusStart.c **** 
 357:Generated_Source\PSoC4/Cm0plusStart.c **** 
 358:Generated_Source\PSoC4/Cm0plusStart.c **** /*******************************************************************************
 359:Generated_Source\PSoC4/Cm0plusStart.c **** * Function Name: Reset
 360:Generated_Source\PSoC4/Cm0plusStart.c **** ****************************************************************************//**
 361:Generated_Source\PSoC4/Cm0plusStart.c **** *
 362:Generated_Source\PSoC4/Cm0plusStart.c **** * This function handles the reset interrupt for the GCC toolchain.  This is
 363:Generated_Source\PSoC4/Cm0plusStart.c **** * the first bit of code that is executed at startup.
 364:Generated_Source\PSoC4/Cm0plusStart.c **** *
 365:Generated_Source\PSoC4/Cm0plusStart.c **** *******************************************************************************/
 366:Generated_Source\PSoC4/Cm0plusStart.c **** void Reset(void)
 367:Generated_Source\PSoC4/Cm0plusStart.c **** {
 287              		.loc 1 367 0
 288              		.cfi_startproc
 289 0000 80B5     		push	{r7, lr}
 290              		.cfi_def_cfa_offset 8
 291              		.cfi_offset 7, -8
 292              		.cfi_offset 14, -4
 293 0002 00AF     		add	r7, sp, #0
 294              		.cfi_def_cfa_register 7
 368:Generated_Source\PSoC4/Cm0plusStart.c ****     #if (CYDEV_PROJ_TYPE == CYDEV_PROJ_TYPE_LOADABLE || CYDEV_PROJ_TYPE == CYDEV_PROJ_TYPE_LOADABLE
 369:Generated_Source\PSoC4/Cm0plusStart.c **** 
 370:Generated_Source\PSoC4/Cm0plusStart.c ****         /* The bootloadable application image is started at Reset() handler
 371:Generated_Source\PSoC4/Cm0plusStart.c ****         * as a result of a branch instruction execution from the bootloader.
 372:Generated_Source\PSoC4/Cm0plusStart.c ****         * So, the stack pointer needs to be reset to be sure that
 373:Generated_Source\PSoC4/Cm0plusStart.c ****         * there is no garbage in the stack.
 374:Generated_Source\PSoC4/Cm0plusStart.c ****         */
 375:Generated_Source\PSoC4/Cm0plusStart.c ****         __asm volatile ("MSR msp, %0\n" : : "r" ((uint32)&__cy_stack) : "sp");
 376:Generated_Source\PSoC4/Cm0plusStart.c ****     #endif /* CYDEV_PROJ_TYPE_LOADABLE */
 377:Generated_Source\PSoC4/Cm0plusStart.c **** 
 378:Generated_Source\PSoC4/Cm0plusStart.c ****     #if(CY_IP_SRSSLT)
 379:Generated_Source\PSoC4/Cm0plusStart.c ****         CySysWdtDisable();
 295              		.loc 1 379 0
 296 0004 FFF7FEFF 		bl	CySysWdtDisable
 380:Generated_Source\PSoC4/Cm0plusStart.c ****     #endif  /* (CY_IP_SRSSLT) */
 381:Generated_Source\PSoC4/Cm0plusStart.c **** 
 382:Generated_Source\PSoC4/Cm0plusStart.c ****     #if ((CYDEV_BOOTLOADER_ENABLE) && (CYDEV_PROJ_TYPE != CYDEV_PROJ_TYPE_LOADABLEANDBOOTLOADER))
ARM GAS  C:\Users\fneves\AppData\Local\Temp\ccDNlS3k.s 			page 13


 383:Generated_Source\PSoC4/Cm0plusStart.c ****         CyBtldr_CheckLaunch();
 384:Generated_Source\PSoC4/Cm0plusStart.c ****     #endif /* ((CYDEV_BOOTLOADER_ENABLE) && (CYDEV_PROJ_TYPE != CYDEV_PROJ_TYPE_LOADABLEANDBOOTLOAD
 385:Generated_Source\PSoC4/Cm0plusStart.c ****     Start_c();
 297              		.loc 1 385 0
 298 0008 FFF7FEFF 		bl	Start_c
 299              		.cfi_endproc
 300              	.LFE5:
 301              		.size	Reset, .-Reset
 302              		.global	CyRamVectors
 303              		.section	.ramvectors,"aw",%progbits
 304              		.align	2
 305              		.type	CyRamVectors, %object
 306              		.size	CyRamVectors, 164
 307              	CyRamVectors:
 308 0000 00000000 		.space	164
 308      00000000 
 308      00000000 
 308      00000000 
 308      00000000 
 309              		.global	RomVectors
 310              		.section	.romvectors,"a",%progbits
 311              		.align	2
 312              		.type	RomVectors, %object
 313              		.size	RomVectors, 16
 314              	RomVectors:
 315 0000 00000000 		.word	__cy_stack
 316 0004 00000000 		.word	Reset
 317 0008 00000000 		.word	IntDefaultHandler
 318 000c 00000000 		.word	IntDefaultHandler
 319              		.section	.text.initialize_psoc,"ax",%progbits
 320              		.align	2
 321              		.global	initialize_psoc
 322              		.code	16
 323              		.thumb_func
 324              		.type	initialize_psoc, %function
 325              	initialize_psoc:
 326              	.LFB6:
 386:Generated_Source\PSoC4/Cm0plusStart.c **** }
 387:Generated_Source\PSoC4/Cm0plusStart.c **** 
 388:Generated_Source\PSoC4/Cm0plusStart.c **** #elif defined (__ICCARM__)
 389:Generated_Source\PSoC4/Cm0plusStart.c **** 
 390:Generated_Source\PSoC4/Cm0plusStart.c **** 
 391:Generated_Source\PSoC4/Cm0plusStart.c **** /*******************************************************************************
 392:Generated_Source\PSoC4/Cm0plusStart.c **** * Function Name: __low_level_init
 393:Generated_Source\PSoC4/Cm0plusStart.c **** ****************************************************************************//**
 394:Generated_Source\PSoC4/Cm0plusStart.c **** *
 395:Generated_Source\PSoC4/Cm0plusStart.c **** * This function performs early initializations for the IAR Embedded
 396:Generated_Source\PSoC4/Cm0plusStart.c **** * Workbench IDE. It is executed in the context of reset interrupt handler
 397:Generated_Source\PSoC4/Cm0plusStart.c **** * before the data sections are initialized.
 398:Generated_Source\PSoC4/Cm0plusStart.c **** *
 399:Generated_Source\PSoC4/Cm0plusStart.c **** * \return The value that determines whether or not data sections should be
 400:Generated_Source\PSoC4/Cm0plusStart.c **** * initialized by the system startup code:
 401:Generated_Source\PSoC4/Cm0plusStart.c **** *    0 - skip data sections initialization;
 402:Generated_Source\PSoC4/Cm0plusStart.c **** *    1 - initialize data sections;
 403:Generated_Source\PSoC4/Cm0plusStart.c **** *
 404:Generated_Source\PSoC4/Cm0plusStart.c **** *******************************************************************************/
 405:Generated_Source\PSoC4/Cm0plusStart.c **** #pragma inline = never
ARM GAS  C:\Users\fneves\AppData\Local\Temp\ccDNlS3k.s 			page 14


 406:Generated_Source\PSoC4/Cm0plusStart.c **** int __low_level_init(void)
 407:Generated_Source\PSoC4/Cm0plusStart.c **** {
 408:Generated_Source\PSoC4/Cm0plusStart.c ****     #if(CY_IP_SRSSLT)
 409:Generated_Source\PSoC4/Cm0plusStart.c ****         CySysWdtDisable();
 410:Generated_Source\PSoC4/Cm0plusStart.c ****     #endif  /* (CY_IP_SRSSLT) */
 411:Generated_Source\PSoC4/Cm0plusStart.c **** 
 412:Generated_Source\PSoC4/Cm0plusStart.c **** #if ((CYDEV_BOOTLOADER_ENABLE) && (CYDEV_PROJ_TYPE != CYDEV_PROJ_TYPE_LOADABLEANDBOOTLOADER))
 413:Generated_Source\PSoC4/Cm0plusStart.c ****     CyBtldr_CheckLaunch();
 414:Generated_Source\PSoC4/Cm0plusStart.c **** #endif /* ((CYDEV_BOOTLOADER_ENABLE) && (CYDEV_PROJ_TYPE != CYDEV_PROJ_TYPE_LOADABLEANDBOOTLOADER))
 415:Generated_Source\PSoC4/Cm0plusStart.c **** 
 416:Generated_Source\PSoC4/Cm0plusStart.c ****     /* Initialize data sections */
 417:Generated_Source\PSoC4/Cm0plusStart.c ****     __iar_data_init3();
 418:Generated_Source\PSoC4/Cm0plusStart.c **** 
 419:Generated_Source\PSoC4/Cm0plusStart.c ****     initialize_psoc();
 420:Generated_Source\PSoC4/Cm0plusStart.c **** 
 421:Generated_Source\PSoC4/Cm0plusStart.c ****     return 0;
 422:Generated_Source\PSoC4/Cm0plusStart.c **** }
 423:Generated_Source\PSoC4/Cm0plusStart.c **** 
 424:Generated_Source\PSoC4/Cm0plusStart.c **** #endif /* __GNUC__ */
 425:Generated_Source\PSoC4/Cm0plusStart.c **** 
 426:Generated_Source\PSoC4/Cm0plusStart.c **** 
 427:Generated_Source\PSoC4/Cm0plusStart.c **** /*******************************************************************************
 428:Generated_Source\PSoC4/Cm0plusStart.c **** * Ram Interrupt Vector table storage area. Must be placed at 0x20000000.
 429:Generated_Source\PSoC4/Cm0plusStart.c **** *******************************************************************************/
 430:Generated_Source\PSoC4/Cm0plusStart.c **** 
 431:Generated_Source\PSoC4/Cm0plusStart.c **** #if defined (__ICCARM__)
 432:Generated_Source\PSoC4/Cm0plusStart.c ****     #pragma location=".ramvectors"
 433:Generated_Source\PSoC4/Cm0plusStart.c **** #elif defined (__ARMCC_VERSION)
 434:Generated_Source\PSoC4/Cm0plusStart.c ****     #ifndef CY_SYS_RAM_VECTOR_SECTION
 435:Generated_Source\PSoC4/Cm0plusStart.c ****         #define CY_SYS_RAM_VECTOR_SECTION __attribute__((section(".ramvectors"), zero_init))
 436:Generated_Source\PSoC4/Cm0plusStart.c ****     #endif /* CY_SYS_RAM_VECTOR_SECTION */
 437:Generated_Source\PSoC4/Cm0plusStart.c ****     CY_SYS_RAM_VECTOR_SECTION    
 438:Generated_Source\PSoC4/Cm0plusStart.c **** #else
 439:Generated_Source\PSoC4/Cm0plusStart.c ****     #ifndef CY_SYS_RAM_VECTOR_SECTION
 440:Generated_Source\PSoC4/Cm0plusStart.c ****         #define CY_SYS_RAM_VECTOR_SECTION CY_SECTION(".ramvectors")
 441:Generated_Source\PSoC4/Cm0plusStart.c ****     #endif /* CY_SYS_RAM_VECTOR_SECTION */
 442:Generated_Source\PSoC4/Cm0plusStart.c ****     CY_SYS_RAM_VECTOR_SECTION
 443:Generated_Source\PSoC4/Cm0plusStart.c **** #endif  /* defined (__ICCARM__) */
 444:Generated_Source\PSoC4/Cm0plusStart.c **** cyisraddress CyRamVectors[CY_NUM_VECTORS];
 445:Generated_Source\PSoC4/Cm0plusStart.c **** 
 446:Generated_Source\PSoC4/Cm0plusStart.c **** 
 447:Generated_Source\PSoC4/Cm0plusStart.c **** /*******************************************************************************
 448:Generated_Source\PSoC4/Cm0plusStart.c **** * Rom Interrupt Vector table storage area. Must be 256-byte aligned.
 449:Generated_Source\PSoC4/Cm0plusStart.c **** *******************************************************************************/
 450:Generated_Source\PSoC4/Cm0plusStart.c **** 
 451:Generated_Source\PSoC4/Cm0plusStart.c **** #if defined(__ARMCC_VERSION)
 452:Generated_Source\PSoC4/Cm0plusStart.c ****     /* Suppress diagnostic message 1296-D: extended constant initialiser used */
 453:Generated_Source\PSoC4/Cm0plusStart.c ****     #pragma diag_suppress 1296
 454:Generated_Source\PSoC4/Cm0plusStart.c **** #endif  /* defined(__ARMCC_VERSION) */
 455:Generated_Source\PSoC4/Cm0plusStart.c **** 
 456:Generated_Source\PSoC4/Cm0plusStart.c **** #if defined (__ICCARM__)
 457:Generated_Source\PSoC4/Cm0plusStart.c ****     #pragma location=".romvectors"
 458:Generated_Source\PSoC4/Cm0plusStart.c ****     const intvec_elem __vector_table[CY_NUM_ROM_VECTORS] =
 459:Generated_Source\PSoC4/Cm0plusStart.c **** #else
 460:Generated_Source\PSoC4/Cm0plusStart.c ****     #ifndef CY_SYS_ROM_VECTOR_SECTION
 461:Generated_Source\PSoC4/Cm0plusStart.c ****         #define CY_SYS_ROM_VECTOR_SECTION CY_SECTION(".romvectors")
 462:Generated_Source\PSoC4/Cm0plusStart.c ****     #endif /* CY_SYS_ROM_VECTOR_SECTION */
ARM GAS  C:\Users\fneves\AppData\Local\Temp\ccDNlS3k.s 			page 15


 463:Generated_Source\PSoC4/Cm0plusStart.c ****     CY_SYS_ROM_VECTOR_SECTION
 464:Generated_Source\PSoC4/Cm0plusStart.c ****     const cyisraddress RomVectors[CY_NUM_ROM_VECTORS] =
 465:Generated_Source\PSoC4/Cm0plusStart.c **** #endif  /* defined (__ICCARM__) */
 466:Generated_Source\PSoC4/Cm0plusStart.c **** {
 467:Generated_Source\PSoC4/Cm0plusStart.c ****     CY_SYS_INITIAL_STACK_POINTER,   /* The initial stack pointer  0 */
 468:Generated_Source\PSoC4/Cm0plusStart.c ****     #if defined (__ICCARM__) /* The reset handler          1 */
 469:Generated_Source\PSoC4/Cm0plusStart.c ****         __iar_program_start,
 470:Generated_Source\PSoC4/Cm0plusStart.c ****     #else
 471:Generated_Source\PSoC4/Cm0plusStart.c ****         (cyisraddress)&Reset,
 472:Generated_Source\PSoC4/Cm0plusStart.c ****     #endif  /* defined (__ICCARM__) */
 473:Generated_Source\PSoC4/Cm0plusStart.c ****     &IntDefaultHandler,      /* The NMI handler            2 */
 474:Generated_Source\PSoC4/Cm0plusStart.c ****     &IntDefaultHandler,      /* The hard fault handler     3 */
 475:Generated_Source\PSoC4/Cm0plusStart.c **** };
 476:Generated_Source\PSoC4/Cm0plusStart.c **** 
 477:Generated_Source\PSoC4/Cm0plusStart.c **** #if defined(__ARMCC_VERSION)
 478:Generated_Source\PSoC4/Cm0plusStart.c ****     #pragma diag_default 1296
 479:Generated_Source\PSoC4/Cm0plusStart.c **** #endif  /* defined(__ARMCC_VERSION) */
 480:Generated_Source\PSoC4/Cm0plusStart.c **** 
 481:Generated_Source\PSoC4/Cm0plusStart.c **** 
 482:Generated_Source\PSoC4/Cm0plusStart.c **** /*******************************************************************************
 483:Generated_Source\PSoC4/Cm0plusStart.c **** * Function Name: initialize_psoc
 484:Generated_Source\PSoC4/Cm0plusStart.c **** ****************************************************************************//**
 485:Generated_Source\PSoC4/Cm0plusStart.c **** *
 486:Generated_Source\PSoC4/Cm0plusStart.c **** * This function is used to initialize the PSoC chip before calling main.
 487:Generated_Source\PSoC4/Cm0plusStart.c **** *
 488:Generated_Source\PSoC4/Cm0plusStart.c **** *******************************************************************************/
 489:Generated_Source\PSoC4/Cm0plusStart.c **** #if(defined(__GNUC__) && !defined(__ARMCC_VERSION))
 490:Generated_Source\PSoC4/Cm0plusStart.c **** __attribute__ ((constructor(101)))
 491:Generated_Source\PSoC4/Cm0plusStart.c **** #endif  /* (defined(__GNUC__) && !defined(__ARMCC_VERSION)) */
 492:Generated_Source\PSoC4/Cm0plusStart.c **** void initialize_psoc(void)
 493:Generated_Source\PSoC4/Cm0plusStart.c **** {
 327              		.loc 1 493 0
 328              		.cfi_startproc
 329 0000 80B5     		push	{r7, lr}
 330              		.cfi_def_cfa_offset 8
 331              		.cfi_offset 7, -8
 332              		.cfi_offset 14, -4
 333 0002 82B0     		sub	sp, sp, #8
 334              		.cfi_def_cfa_offset 16
 335 0004 00AF     		add	r7, sp, #0
 336              		.cfi_def_cfa_register 7
 494:Generated_Source\PSoC4/Cm0plusStart.c ****     uint32 indexInit;
 495:Generated_Source\PSoC4/Cm0plusStart.c **** 
 496:Generated_Source\PSoC4/Cm0plusStart.c ****     #if(CY_IP_CPUSSV2)
 497:Generated_Source\PSoC4/Cm0plusStart.c ****         #if (CY_IP_CPUSS_CM0)
 498:Generated_Source\PSoC4/Cm0plusStart.c ****             /***********************************************************************
 499:Generated_Source\PSoC4/Cm0plusStart.c ****             * Make sure that Vector Table is located at 0000_0000 in Flash, before
 500:Generated_Source\PSoC4/Cm0plusStart.c ****             * accessing RomVectors or calling functions that may be placed in
 501:Generated_Source\PSoC4/Cm0plusStart.c ****             * .psocinit (cyfitter_cfg and ClockSetup). Note The CY_CPUSS_CONFIG_REG
 502:Generated_Source\PSoC4/Cm0plusStart.c ****             * register is retention for the specified device family.
 503:Generated_Source\PSoC4/Cm0plusStart.c ****             ***********************************************************************/
 504:Generated_Source\PSoC4/Cm0plusStart.c ****             CY_CPUSS_CONFIG_REG &= (uint32) ~CY_CPUSS_CONFIG_VECT_IN_RAM;
 505:Generated_Source\PSoC4/Cm0plusStart.c ****         #endif /* (CY_IP_CPUSS_CM0) */
 506:Generated_Source\PSoC4/Cm0plusStart.c ****     #endif  /* (CY_IP_CPUSSV2) */
 507:Generated_Source\PSoC4/Cm0plusStart.c **** 
 508:Generated_Source\PSoC4/Cm0plusStart.c ****     /* Set Ram interrupt vectors to default functions. */
 509:Generated_Source\PSoC4/Cm0plusStart.c ****     for (indexInit = 0u; indexInit < CY_NUM_VECTORS; indexInit++)
ARM GAS  C:\Users\fneves\AppData\Local\Temp\ccDNlS3k.s 			page 16


 337              		.loc 1 509 0
 338 0006 0023     		mov	r3, #0
 339 0008 7B60     		str	r3, [r7, #4]
 340 000a 0FE0     		b	.L24
 341              	.L27:
 510:Generated_Source\PSoC4/Cm0plusStart.c ****     {
 511:Generated_Source\PSoC4/Cm0plusStart.c ****         CyRamVectors[indexInit] = (indexInit < CY_NUM_ROM_VECTORS) ?
 512:Generated_Source\PSoC4/Cm0plusStart.c ****             #if defined (__ICCARM__)
 513:Generated_Source\PSoC4/Cm0plusStart.c ****                 __vector_table[indexInit].__fun : &IntDefaultHandler;
 514:Generated_Source\PSoC4/Cm0plusStart.c ****             #else
 515:Generated_Source\PSoC4/Cm0plusStart.c ****                 RomVectors[indexInit] : &IntDefaultHandler;
 342              		.loc 1 515 0
 343 000c 7B68     		ldr	r3, [r7, #4]
 344 000e 032B     		cmp	r3, #3
 345 0010 04D8     		bhi	.L25
 346              		.loc 1 515 0 is_stmt 0 discriminator 1
 347 0012 0E4B     		ldr	r3, .L28
 348 0014 7A68     		ldr	r2, [r7, #4]
 349 0016 9200     		lsl	r2, r2, #2
 350 0018 D358     		ldr	r3, [r2, r3]
 351 001a 00E0     		b	.L26
 352              	.L25:
 353              		.loc 1 515 0 discriminator 2
 354 001c 0C4B     		ldr	r3, .L28+4
 355              	.L26:
 511:Generated_Source\PSoC4/Cm0plusStart.c ****             #if defined (__ICCARM__)
 356              		.loc 1 511 0 is_stmt 1 discriminator 2
 357 001e 0D4A     		ldr	r2, .L28+8
 358 0020 7968     		ldr	r1, [r7, #4]
 359 0022 8900     		lsl	r1, r1, #2
 360 0024 8B50     		str	r3, [r1, r2]
 509:Generated_Source\PSoC4/Cm0plusStart.c ****     {
 361              		.loc 1 509 0 discriminator 2
 362 0026 7B68     		ldr	r3, [r7, #4]
 363 0028 0133     		add	r3, r3, #1
 364 002a 7B60     		str	r3, [r7, #4]
 365              	.L24:
 509:Generated_Source\PSoC4/Cm0plusStart.c ****     {
 366              		.loc 1 509 0 is_stmt 0 discriminator 1
 367 002c 7B68     		ldr	r3, [r7, #4]
 368 002e 282B     		cmp	r3, #40
 369 0030 ECD9     		bls	.L27
 516:Generated_Source\PSoC4/Cm0plusStart.c ****             #endif  /* defined (__ICCARM__) */
 517:Generated_Source\PSoC4/Cm0plusStart.c ****     }
 518:Generated_Source\PSoC4/Cm0plusStart.c **** 
 519:Generated_Source\PSoC4/Cm0plusStart.c ****     /* Initialize configuration registers. */
 520:Generated_Source\PSoC4/Cm0plusStart.c ****     cyfitter_cfg();
 370              		.loc 1 520 0 is_stmt 1
 371 0032 FFF7FEFF 		bl	cyfitter_cfg
 521:Generated_Source\PSoC4/Cm0plusStart.c **** 
 522:Generated_Source\PSoC4/Cm0plusStart.c ****     #if !defined (__ICCARM__)
 523:Generated_Source\PSoC4/Cm0plusStart.c ****         /* Actually, no need to clean this variable, just to make compiler happy. */
 524:Generated_Source\PSoC4/Cm0plusStart.c ****         cySysNoInitDataValid = 0u;
 372              		.loc 1 524 0
 373 0036 084B     		ldr	r3, .L28+12
 374 0038 0022     		mov	r2, #0
 375 003a 1A60     		str	r2, [r3]
ARM GAS  C:\Users\fneves\AppData\Local\Temp\ccDNlS3k.s 			page 17


 525:Generated_Source\PSoC4/Cm0plusStart.c ****     #endif  /* !defined (__ICCARM__) */
 526:Generated_Source\PSoC4/Cm0plusStart.c **** 
 527:Generated_Source\PSoC4/Cm0plusStart.c ****     #if (CYDEV_PROJ_TYPE != CYDEV_PROJ_TYPE_STANDARD)
 528:Generated_Source\PSoC4/Cm0plusStart.c **** 
 529:Generated_Source\PSoC4/Cm0plusStart.c ****         /* Need to make sure that this variable will not be optimized out */
 530:Generated_Source\PSoC4/Cm0plusStart.c ****         if (0u == cyBtldrRunType)
 531:Generated_Source\PSoC4/Cm0plusStart.c ****         {
 532:Generated_Source\PSoC4/Cm0plusStart.c ****             cyBtldrRunType = 0u;
 533:Generated_Source\PSoC4/Cm0plusStart.c ****         }
 534:Generated_Source\PSoC4/Cm0plusStart.c **** 
 535:Generated_Source\PSoC4/Cm0plusStart.c ****     #endif  /* (CYDEV_PROJ_TYPE != CYDEV_PROJ_TYPE_STANDARD) */
 536:Generated_Source\PSoC4/Cm0plusStart.c **** 
 537:Generated_Source\PSoC4/Cm0plusStart.c ****     #if (CY_IP_CPUSS_CM0)
 538:Generated_Source\PSoC4/Cm0plusStart.c ****         /* Vector Table is located at 0x2000:0000 in SRAM */
 539:Generated_Source\PSoC4/Cm0plusStart.c ****         CY_CPUSS_CONFIG_REG |= CY_CPUSS_CONFIG_VECT_IN_RAM;
 540:Generated_Source\PSoC4/Cm0plusStart.c **** 	#else
 541:Generated_Source\PSoC4/Cm0plusStart.c **** 		(*(uint32 *)CYREG_CM0P_VTOR) = CY_CPUSS_CONFIG_VECT_ADDR_IN_RAM;
 376              		.loc 1 541 0
 377 003c 074B     		ldr	r3, .L28+16
 378 003e 8022     		mov	r2, #128
 379 0040 9205     		lsl	r2, r2, #22
 380 0042 1A60     		str	r2, [r3]
 542:Generated_Source\PSoC4/Cm0plusStart.c ****     #endif /* (CY_IP_CPUSS_CM0) */
 543:Generated_Source\PSoC4/Cm0plusStart.c **** }
 381              		.loc 1 543 0
 382 0044 BD46     		mov	sp, r7
 383 0046 02B0     		add	sp, sp, #8
 384              		@ sp needed
 385 0048 80BD     		pop	{r7, pc}
 386              	.L29:
 387 004a C046     		.align	2
 388              	.L28:
 389 004c 00000000 		.word	RomVectors
 390 0050 00000000 		.word	IntDefaultHandler
 391 0054 00000000 		.word	CyRamVectors
 392 0058 00000000 		.word	cySysNoInitDataValid
 393 005c 08ED00E0 		.word	-536810232
 394              		.cfi_endproc
 395              	.LFE6:
 396              		.size	initialize_psoc, .-initialize_psoc
 397              		.section	.init_array,"aw",%init_array
 398              		.align	2
 399 0000 00000000 		.word	initialize_psoc(target1)
 400              		.data
 401              		.align	2
 402              		.type	heapPointer.4798, %object
 403              		.size	heapPointer.4798, 4
 404              	heapPointer.4798:
 405 0000 00000000 		.word	end
 406              		.weak	__cy_region_num
 407              		.text
 408              	.Letext0:
 409              		.file 2 "Generated_Source\\PSoC4\\cytypes.h"
 410              		.file 3 "c:\\program files (x86)\\cypress\\psoc creator\\4.0\\psoc creator\\import\\gnu\\arm\\4.9.