ARM GAS  C:\Users\fneves\AppData\Local\Temp\ccoNsDRu.s 			page 1


   1              		.cpu cortex-m0plus
   2              		.fpu softvfp
   3              		.eabi_attribute 20, 1
   4              		.eabi_attribute 21, 1
   5              		.eabi_attribute 23, 3
   6              		.eabi_attribute 24, 1
   7              		.eabi_attribute 25, 1
   8              		.eabi_attribute 26, 1
   9              		.eabi_attribute 30, 6
  10              		.eabi_attribute 34, 0
  11              		.eabi_attribute 18, 4
  12              		.code	16
  13              		.file	"CyDMA.c"
  14              		.text
  15              	.Ltext0:
  16              		.cfi_sections	.debug_frame
  17              		.data
  18              		.align	2
  19              		.type	CyDmaInterruptCallback, %object
  20              		.size	CyDmaInterruptCallback, 32
  21              	CyDmaInterruptCallback:
  22 0000 00000000 		.word	CyDmaDefaultInterruptCallback
  23 0004 00000000 		.word	CyDmaDefaultInterruptCallback
  24 0008 00000000 		.word	CyDmaDefaultInterruptCallback
  25 000c 00000000 		.word	CyDmaDefaultInterruptCallback
  26 0010 00000000 		.word	CyDmaDefaultInterruptCallback
  27 0014 00000000 		.word	CyDmaDefaultInterruptCallback
  28 0018 00000000 		.word	CyDmaDefaultInterruptCallback
  29 001c 00000000 		.word	CyDmaDefaultInterruptCallback
  30              		.align	2
  31              		.type	CyDmaChannelUsedMask, %object
  32              		.size	CyDmaChannelUsedMask, 4
  33              	CyDmaChannelUsedMask:
  34 0020 01000000 		.word	1
  35              		.section	.text.CyDmaEnable,"ax",%progbits
  36              		.align	2
  37              		.global	CyDmaEnable
  38              		.code	16
  39              		.thumb_func
  40              		.type	CyDmaEnable, %function
  41              	CyDmaEnable:
  42              	.LFB1:
  43              		.file 1 "Generated_Source\\PSoC4\\CyDMA.c"
   1:Generated_Source\PSoC4/CyDMA.c **** /*******************************************************************************
   2:Generated_Source\PSoC4/CyDMA.c **** * File Name: CyDMA.c
   3:Generated_Source\PSoC4/CyDMA.c **** * Version 1.10
   4:Generated_Source\PSoC4/CyDMA.c **** *
   5:Generated_Source\PSoC4/CyDMA.c **** * Description:
   6:Generated_Source\PSoC4/CyDMA.c **** *  This file contains all of the global DMA API functions.
   7:Generated_Source\PSoC4/CyDMA.c **** *
   8:Generated_Source\PSoC4/CyDMA.c **** ********************************************************************************
   9:Generated_Source\PSoC4/CyDMA.c **** * Copyright 2015, Cypress Semiconductor Corporation. All rights reserved.
  10:Generated_Source\PSoC4/CyDMA.c **** * You may use this file only in accordance with the license, terms, conditions,
  11:Generated_Source\PSoC4/CyDMA.c **** * disclaimers, and limitations in the end user license agreement accompanying
  12:Generated_Source\PSoC4/CyDMA.c **** * the software package with which this file was provided.
  13:Generated_Source\PSoC4/CyDMA.c **** *******************************************************************************/
  14:Generated_Source\PSoC4/CyDMA.c **** 
ARM GAS  C:\Users\fneves\AppData\Local\Temp\ccoNsDRu.s 			page 2


  15:Generated_Source\PSoC4/CyDMA.c **** #include "CyDMA.h"
  16:Generated_Source\PSoC4/CyDMA.c **** #include "CyLib.h"
  17:Generated_Source\PSoC4/CyDMA.c **** 
  18:Generated_Source\PSoC4/CyDMA.c **** /* Default callback function. It is invoked if the user callback function is
  19:Generated_Source\PSoC4/CyDMA.c **** * undefined.
  20:Generated_Source\PSoC4/CyDMA.c **** */
  21:Generated_Source\PSoC4/CyDMA.c **** static void CyDmaDefaultInterruptCallback(void);
  22:Generated_Source\PSoC4/CyDMA.c **** 
  23:Generated_Source\PSoC4/CyDMA.c **** /* Array of pointers to user defined callback functions to be called
  24:Generated_Source\PSoC4/CyDMA.c **** * from DMA interrupt.
  25:Generated_Source\PSoC4/CyDMA.c **** */
  26:Generated_Source\PSoC4/CyDMA.c **** static cydma_callback_t CyDmaInterruptCallback[CYDMA_CH_NR] = {
  27:Generated_Source\PSoC4/CyDMA.c ****     &CyDmaDefaultInterruptCallback, &CyDmaDefaultInterruptCallback,
  28:Generated_Source\PSoC4/CyDMA.c ****     &CyDmaDefaultInterruptCallback, &CyDmaDefaultInterruptCallback,
  29:Generated_Source\PSoC4/CyDMA.c ****     &CyDmaDefaultInterruptCallback, &CyDmaDefaultInterruptCallback,
  30:Generated_Source\PSoC4/CyDMA.c ****     &CyDmaDefaultInterruptCallback, &CyDmaDefaultInterruptCallback
  31:Generated_Source\PSoC4/CyDMA.c **** };
  32:Generated_Source\PSoC4/CyDMA.c **** 
  33:Generated_Source\PSoC4/CyDMA.c **** /* The live status of all DMA channels usage. Bit i is associated to channel i,
  34:Generated_Source\PSoC4/CyDMA.c **** * with i = 0..CYDMA_CH_NR-1. '0' - channel is free. '1' - channel is in use.
  35:Generated_Source\PSoC4/CyDMA.c **** * All the channels allocated for DMA instances placed on a schematic are in use
  36:Generated_Source\PSoC4/CyDMA.c **** * by default and cannot be freed. 
  37:Generated_Source\PSoC4/CyDMA.c **** * DMA_CHANNELS_USED__MASK is generated during the build time and is a bit field
  38:Generated_Source\PSoC4/CyDMA.c **** * corresponding to the DMA channels placed on a design schematic.
  39:Generated_Source\PSoC4/CyDMA.c **** */
  40:Generated_Source\PSoC4/CyDMA.c **** static uint32 CyDmaChannelUsedMask = DMA_CHANNELS_USED__MASK;
  41:Generated_Source\PSoC4/CyDMA.c **** 
  42:Generated_Source\PSoC4/CyDMA.c **** 
  43:Generated_Source\PSoC4/CyDMA.c **** /*******************************************************************************
  44:Generated_Source\PSoC4/CyDMA.c **** * Function Name: CyDmaEnable
  45:Generated_Source\PSoC4/CyDMA.c **** ********************************************************************************
  46:Generated_Source\PSoC4/CyDMA.c **** *
  47:Generated_Source\PSoC4/CyDMA.c **** * Summary:
  48:Generated_Source\PSoC4/CyDMA.c **** *  Sets the default ISR to be called by the DMA interrupt and enables the DMA
  49:Generated_Source\PSoC4/CyDMA.c **** *  transfer engine.
  50:Generated_Source\PSoC4/CyDMA.c **** *
  51:Generated_Source\PSoC4/CyDMA.c **** * Parameters:
  52:Generated_Source\PSoC4/CyDMA.c **** *  None.
  53:Generated_Source\PSoC4/CyDMA.c **** *                   
  54:Generated_Source\PSoC4/CyDMA.c **** * Return:
  55:Generated_Source\PSoC4/CyDMA.c **** *  None.
  56:Generated_Source\PSoC4/CyDMA.c **** *
  57:Generated_Source\PSoC4/CyDMA.c **** * Side effect:
  58:Generated_Source\PSoC4/CyDMA.c **** *  Does not affect the channel enable status. Overrides the interrupt vector
  59:Generated_Source\PSoC4/CyDMA.c **** *  set prior the first time CyDmaEnable() is called.
  60:Generated_Source\PSoC4/CyDMA.c **** *
  61:Generated_Source\PSoC4/CyDMA.c **** *******************************************************************************/
  62:Generated_Source\PSoC4/CyDMA.c **** void CyDmaEnable(void)
  63:Generated_Source\PSoC4/CyDMA.c **** {
  44              		.loc 1 63 0
  45              		.cfi_startproc
  46 0000 80B5     		push	{r7, lr}
  47              		.cfi_def_cfa_offset 8
  48              		.cfi_offset 7, -8
  49              		.cfi_offset 14, -4
  50 0002 00AF     		add	r7, sp, #0
  51              		.cfi_def_cfa_register 7
ARM GAS  C:\Users\fneves\AppData\Local\Temp\ccoNsDRu.s 			page 3


  64:Generated_Source\PSoC4/CyDMA.c ****     static uint8 initIntrVector = 0u;
  65:Generated_Source\PSoC4/CyDMA.c **** 
  66:Generated_Source\PSoC4/CyDMA.c ****     if(0u == initIntrVector)
  52              		.loc 1 66 0
  53 0004 0A4B     		ldr	r3, .L3
  54 0006 1B78     		ldrb	r3, [r3]
  55 0008 002B     		cmp	r3, #0
  56 000a 0AD1     		bne	.L2
  67:Generated_Source\PSoC4/CyDMA.c ****     {
  68:Generated_Source\PSoC4/CyDMA.c ****         CyDmaSetInterruptVector(&CyDmaInterrupt);
  57              		.loc 1 68 0
  58 000c 094B     		ldr	r3, .L3+4
  59 000e 181C     		mov	r0, r3
  60 0010 FFF7FEFF 		bl	CyDmaSetInterruptVector
  69:Generated_Source\PSoC4/CyDMA.c ****         CyIntSetPriority(CYDMA_INTR_NUMBER, CYDMA_INTR_PRIO);
  61              		.loc 1 69 0
  62 0014 0C20     		mov	r0, #12
  63 0016 0321     		mov	r1, #3
  64 0018 FFF7FEFF 		bl	CyIntSetPriority
  70:Generated_Source\PSoC4/CyDMA.c ****         initIntrVector = 1u;
  65              		.loc 1 70 0
  66 001c 044B     		ldr	r3, .L3
  67 001e 0122     		mov	r2, #1
  68 0020 1A70     		strb	r2, [r3]
  69              	.L2:
  71:Generated_Source\PSoC4/CyDMA.c ****     }
  72:Generated_Source\PSoC4/CyDMA.c ****     CYDMA_CTL_REG = CYDMA_ENABLED;
  70              		.loc 1 72 0
  71 0022 054B     		ldr	r3, .L3+8
  72 0024 8022     		mov	r2, #128
  73 0026 1206     		lsl	r2, r2, #24
  74 0028 1A60     		str	r2, [r3]
  73:Generated_Source\PSoC4/CyDMA.c **** }
  75              		.loc 1 73 0
  76 002a BD46     		mov	sp, r7
  77              		@ sp needed
  78 002c 80BD     		pop	{r7, pc}
  79              	.L4:
  80 002e C046     		.align	2
  81              	.L3:
  82 0030 00000000 		.word	initIntrVector.4912
  83 0034 00000000 		.word	CyDmaInterrupt
  84 0038 00101040 		.word	1074794496
  85              		.cfi_endproc
  86              	.LFE1:
  87              		.size	CyDmaEnable, .-CyDmaEnable
  88              		.section	.text.CyDmaDisable,"ax",%progbits
  89              		.align	2
  90              		.global	CyDmaDisable
  91              		.code	16
  92              		.thumb_func
  93              		.type	CyDmaDisable, %function
  94              	CyDmaDisable:
  95              	.LFB2:
  74:Generated_Source\PSoC4/CyDMA.c **** 
  75:Generated_Source\PSoC4/CyDMA.c **** 
  76:Generated_Source\PSoC4/CyDMA.c **** /*******************************************************************************
ARM GAS  C:\Users\fneves\AppData\Local\Temp\ccoNsDRu.s 			page 4


  77:Generated_Source\PSoC4/CyDMA.c **** * Function Name: CyDmaDisable
  78:Generated_Source\PSoC4/CyDMA.c **** ********************************************************************************
  79:Generated_Source\PSoC4/CyDMA.c **** *
  80:Generated_Source\PSoC4/CyDMA.c **** * Summary:
  81:Generated_Source\PSoC4/CyDMA.c **** *  Disables the DMA transfer engine.
  82:Generated_Source\PSoC4/CyDMA.c **** *
  83:Generated_Source\PSoC4/CyDMA.c **** * Parameters:
  84:Generated_Source\PSoC4/CyDMA.c **** *  None.
  85:Generated_Source\PSoC4/CyDMA.c **** *                   
  86:Generated_Source\PSoC4/CyDMA.c **** * Return:
  87:Generated_Source\PSoC4/CyDMA.c **** *  None.
  88:Generated_Source\PSoC4/CyDMA.c **** *
  89:Generated_Source\PSoC4/CyDMA.c **** * Side effect:
  90:Generated_Source\PSoC4/CyDMA.c **** *  Does not affect the channel enable status.
  91:Generated_Source\PSoC4/CyDMA.c **** *
  92:Generated_Source\PSoC4/CyDMA.c **** *******************************************************************************/
  93:Generated_Source\PSoC4/CyDMA.c **** void CyDmaDisable(void)
  94:Generated_Source\PSoC4/CyDMA.c **** {
  96              		.loc 1 94 0
  97              		.cfi_startproc
  98 0000 80B5     		push	{r7, lr}
  99              		.cfi_def_cfa_offset 8
 100              		.cfi_offset 7, -8
 101              		.cfi_offset 14, -4
 102 0002 00AF     		add	r7, sp, #0
 103              		.cfi_def_cfa_register 7
  95:Generated_Source\PSoC4/CyDMA.c ****     CYDMA_CTL_REG = (uint32)~CYDMA_ENABLED;
 104              		.loc 1 95 0
 105 0004 024B     		ldr	r3, .L6
 106 0006 034A     		ldr	r2, .L6+4
 107 0008 1A60     		str	r2, [r3]
  96:Generated_Source\PSoC4/CyDMA.c **** }
 108              		.loc 1 96 0
 109 000a BD46     		mov	sp, r7
 110              		@ sp needed
 111 000c 80BD     		pop	{r7, pc}
 112              	.L7:
 113 000e C046     		.align	2
 114              	.L6:
 115 0010 00101040 		.word	1074794496
 116 0014 FFFFFF7F 		.word	2147483647
 117              		.cfi_endproc
 118              	.LFE2:
 119              		.size	CyDmaDisable, .-CyDmaDisable
 120              		.section	.text.CyDmaGetStatus,"ax",%progbits
 121              		.align	2
 122              		.global	CyDmaGetStatus
 123              		.code	16
 124              		.thumb_func
 125              		.type	CyDmaGetStatus, %function
 126              	CyDmaGetStatus:
 127              	.LFB3:
  97:Generated_Source\PSoC4/CyDMA.c **** 
  98:Generated_Source\PSoC4/CyDMA.c **** 
  99:Generated_Source\PSoC4/CyDMA.c **** /*******************************************************************************
 100:Generated_Source\PSoC4/CyDMA.c **** * Function Name: CyDmaGetStatus
 101:Generated_Source\PSoC4/CyDMA.c **** ********************************************************************************
ARM GAS  C:\Users\fneves\AppData\Local\Temp\ccoNsDRu.s 			page 5


 102:Generated_Source\PSoC4/CyDMA.c **** *
 103:Generated_Source\PSoC4/CyDMA.c **** * Summary:
 104:Generated_Source\PSoC4/CyDMA.c **** *  Returns the status of the DMA transfer engine.
 105:Generated_Source\PSoC4/CyDMA.c **** *
 106:Generated_Source\PSoC4/CyDMA.c **** * Parameters:
 107:Generated_Source\PSoC4/CyDMA.c **** *  None.
 108:Generated_Source\PSoC4/CyDMA.c **** *                   
 109:Generated_Source\PSoC4/CyDMA.c **** * Return:
 110:Generated_Source\PSoC4/CyDMA.c **** *  The contents of the DMA status register. Refer to the status register bit
 111:Generated_Source\PSoC4/CyDMA.c **** *  definitions in CyDMA_P4.h or the API description in the DMA channel
 112:Generated_Source\PSoC4/CyDMA.c **** *  datasheet.
 113:Generated_Source\PSoC4/CyDMA.c **** *
 114:Generated_Source\PSoC4/CyDMA.c **** * Side effect:
 115:Generated_Source\PSoC4/CyDMA.c **** *  The series of function calls CyDmaGetActiveSrcAddress(),
 116:Generated_Source\PSoC4/CyDMA.c **** *  CyDmaGetActiveDstAddress(), CyDmaGetStatus() are not atomic, the DMA
 117:Generated_Source\PSoC4/CyDMA.c **** *  engine may have advanced after one or more of these function calls. Meaning
 118:Generated_Source\PSoC4/CyDMA.c **** *  the returns from these three functions may not be related to each other.
 119:Generated_Source\PSoC4/CyDMA.c **** *
 120:Generated_Source\PSoC4/CyDMA.c **** *******************************************************************************/
 121:Generated_Source\PSoC4/CyDMA.c **** uint32 CyDmaGetStatus(void)
 122:Generated_Source\PSoC4/CyDMA.c **** {
 128              		.loc 1 122 0
 129              		.cfi_startproc
 130 0000 80B5     		push	{r7, lr}
 131              		.cfi_def_cfa_offset 8
 132              		.cfi_offset 7, -8
 133              		.cfi_offset 14, -4
 134 0002 00AF     		add	r7, sp, #0
 135              		.cfi_def_cfa_register 7
 123:Generated_Source\PSoC4/CyDMA.c ****     return (CYDMA_STATUS_REG);
 136              		.loc 1 123 0
 137 0004 024B     		ldr	r3, .L10
 138 0006 1B68     		ldr	r3, [r3]
 124:Generated_Source\PSoC4/CyDMA.c **** }
 139              		.loc 1 124 0
 140 0008 181C     		mov	r0, r3
 141 000a BD46     		mov	sp, r7
 142              		@ sp needed
 143 000c 80BD     		pop	{r7, pc}
 144              	.L11:
 145 000e C046     		.align	2
 146              	.L10:
 147 0010 10101040 		.word	1074794512
 148              		.cfi_endproc
 149              	.LFE3:
 150              		.size	CyDmaGetStatus, .-CyDmaGetStatus
 151              		.section	.text.CyDmaGetActiveChannels,"ax",%progbits
 152              		.align	2
 153              		.global	CyDmaGetActiveChannels
 154              		.code	16
 155              		.thumb_func
 156              		.type	CyDmaGetActiveChannels, %function
 157              	CyDmaGetActiveChannels:
 158              	.LFB4:
 125:Generated_Source\PSoC4/CyDMA.c **** 
 126:Generated_Source\PSoC4/CyDMA.c **** 
 127:Generated_Source\PSoC4/CyDMA.c **** /*******************************************************************************
ARM GAS  C:\Users\fneves\AppData\Local\Temp\ccoNsDRu.s 			page 6


 128:Generated_Source\PSoC4/CyDMA.c **** * Function Name: CyDmaGetActiveChannels
 129:Generated_Source\PSoC4/CyDMA.c **** ********************************************************************************
 130:Generated_Source\PSoC4/CyDMA.c **** *
 131:Generated_Source\PSoC4/CyDMA.c **** * Summary:
 132:Generated_Source\PSoC4/CyDMA.c **** *  Returns a bit field of all the DMA channels that are either active or
 133:Generated_Source\PSoC4/CyDMA.c **** *  pending.
 134:Generated_Source\PSoC4/CyDMA.c **** *
 135:Generated_Source\PSoC4/CyDMA.c **** * Parameters:
 136:Generated_Source\PSoC4/CyDMA.c **** *  None.
 137:Generated_Source\PSoC4/CyDMA.c **** *                   
 138:Generated_Source\PSoC4/CyDMA.c **** * Return:
 139:Generated_Source\PSoC4/CyDMA.c **** *  Bit field of active and pending channels. 
 140:Generated_Source\PSoC4/CyDMA.c **** *
 141:Generated_Source\PSoC4/CyDMA.c **** *******************************************************************************/
 142:Generated_Source\PSoC4/CyDMA.c **** uint32 CyDmaGetActiveChannels(void)
 143:Generated_Source\PSoC4/CyDMA.c **** {
 159              		.loc 1 143 0
 160              		.cfi_startproc
 161 0000 80B5     		push	{r7, lr}
 162              		.cfi_def_cfa_offset 8
 163              		.cfi_offset 7, -8
 164              		.cfi_offset 14, -4
 165 0002 00AF     		add	r7, sp, #0
 166              		.cfi_def_cfa_register 7
 144:Generated_Source\PSoC4/CyDMA.c ****     return (CYDMA_STATUS_CH_ACT_REG);
 167              		.loc 1 144 0
 168 0004 024B     		ldr	r3, .L14
 169 0006 1B68     		ldr	r3, [r3]
 145:Generated_Source\PSoC4/CyDMA.c **** }
 170              		.loc 1 145 0
 171 0008 181C     		mov	r0, r3
 172 000a BD46     		mov	sp, r7
 173              		@ sp needed
 174 000c 80BD     		pop	{r7, pc}
 175              	.L15:
 176 000e C046     		.align	2
 177              	.L14:
 178 0010 1C101040 		.word	1074794524
 179              		.cfi_endproc
 180              	.LFE4:
 181              		.size	CyDmaGetActiveChannels, .-CyDmaGetActiveChannels
 182              		.section	.text.CyDmaGetActiveSrcAddress,"ax",%progbits
 183              		.align	2
 184              		.global	CyDmaGetActiveSrcAddress
 185              		.code	16
 186              		.thumb_func
 187              		.type	CyDmaGetActiveSrcAddress, %function
 188              	CyDmaGetActiveSrcAddress:
 189              	.LFB5:
 146:Generated_Source\PSoC4/CyDMA.c **** 
 147:Generated_Source\PSoC4/CyDMA.c **** 
 148:Generated_Source\PSoC4/CyDMA.c **** /*******************************************************************************
 149:Generated_Source\PSoC4/CyDMA.c **** * Function Name: CyDmaGetActiveSrcAddress
 150:Generated_Source\PSoC4/CyDMA.c **** ********************************************************************************
 151:Generated_Source\PSoC4/CyDMA.c **** *
 152:Generated_Source\PSoC4/CyDMA.c **** * Summary:
 153:Generated_Source\PSoC4/CyDMA.c **** *  Returns the source address currently being used by the DMA transfer engine.
ARM GAS  C:\Users\fneves\AppData\Local\Temp\ccoNsDRu.s 			page 7


 154:Generated_Source\PSoC4/CyDMA.c **** *  This function can be used to debug the DMA, or observe where it is at in a
 155:Generated_Source\PSoC4/CyDMA.c **** *  transfer. It will not be used in normal DMA operation.
 156:Generated_Source\PSoC4/CyDMA.c **** *
 157:Generated_Source\PSoC4/CyDMA.c **** * Parameters:
 158:Generated_Source\PSoC4/CyDMA.c **** *  None.
 159:Generated_Source\PSoC4/CyDMA.c **** *                   
 160:Generated_Source\PSoC4/CyDMA.c **** * Return:
 161:Generated_Source\PSoC4/CyDMA.c **** *  Source address currently being used by the DMA transfer engine.
 162:Generated_Source\PSoC4/CyDMA.c **** *
 163:Generated_Source\PSoC4/CyDMA.c **** * Side effect:
 164:Generated_Source\PSoC4/CyDMA.c **** *  The series of function calls CyDmaGetActiveSrcAddress(),
 165:Generated_Source\PSoC4/CyDMA.c **** *  CyDmaGetActiveDstAddress(), CyDmaGetStatus() are not atomic, the DMA
 166:Generated_Source\PSoC4/CyDMA.c **** *  engine may have advanced after one or more of these function calls. Meaning
 167:Generated_Source\PSoC4/CyDMA.c **** *  the returns from these three functions may not be related to each other.
 168:Generated_Source\PSoC4/CyDMA.c **** *
 169:Generated_Source\PSoC4/CyDMA.c **** *******************************************************************************/
 170:Generated_Source\PSoC4/CyDMA.c **** void * CyDmaGetActiveSrcAddress(void)
 171:Generated_Source\PSoC4/CyDMA.c **** {
 190              		.loc 1 171 0
 191              		.cfi_startproc
 192 0000 80B5     		push	{r7, lr}
 193              		.cfi_def_cfa_offset 8
 194              		.cfi_offset 7, -8
 195              		.cfi_offset 14, -4
 196 0002 00AF     		add	r7, sp, #0
 197              		.cfi_def_cfa_register 7
 172:Generated_Source\PSoC4/CyDMA.c ****     return ((void *)CYDMA_STATUS_SRC_ADDR_REG);
 198              		.loc 1 172 0
 199 0004 024B     		ldr	r3, .L18
 200 0006 1B68     		ldr	r3, [r3]
 173:Generated_Source\PSoC4/CyDMA.c **** }
 201              		.loc 1 173 0
 202 0008 181C     		mov	r0, r3
 203 000a BD46     		mov	sp, r7
 204              		@ sp needed
 205 000c 80BD     		pop	{r7, pc}
 206              	.L19:
 207 000e C046     		.align	2
 208              	.L18:
 209 0010 14101040 		.word	1074794516
 210              		.cfi_endproc
 211              	.LFE5:
 212              		.size	CyDmaGetActiveSrcAddress, .-CyDmaGetActiveSrcAddress
 213              		.section	.text.CyDmaGetActiveDstAddress,"ax",%progbits
 214              		.align	2
 215              		.global	CyDmaGetActiveDstAddress
 216              		.code	16
 217              		.thumb_func
 218              		.type	CyDmaGetActiveDstAddress, %function
 219              	CyDmaGetActiveDstAddress:
 220              	.LFB6:
 174:Generated_Source\PSoC4/CyDMA.c **** 
 175:Generated_Source\PSoC4/CyDMA.c **** 
 176:Generated_Source\PSoC4/CyDMA.c **** /*******************************************************************************
 177:Generated_Source\PSoC4/CyDMA.c **** * Function Name: CyDmaGetActiveDstAddress
 178:Generated_Source\PSoC4/CyDMA.c **** ********************************************************************************
 179:Generated_Source\PSoC4/CyDMA.c **** *
ARM GAS  C:\Users\fneves\AppData\Local\Temp\ccoNsDRu.s 			page 8


 180:Generated_Source\PSoC4/CyDMA.c **** * Summary:
 181:Generated_Source\PSoC4/CyDMA.c **** *  Returns the destination address currently being used by the DMA transfer
 182:Generated_Source\PSoC4/CyDMA.c **** *  engine. This function can be used to debug the DMA, or observe where it is at
 183:Generated_Source\PSoC4/CyDMA.c **** *  in a transfer. It will not be used in normal DMA operation.
 184:Generated_Source\PSoC4/CyDMA.c **** *
 185:Generated_Source\PSoC4/CyDMA.c **** * Parameters:
 186:Generated_Source\PSoC4/CyDMA.c **** *  None.
 187:Generated_Source\PSoC4/CyDMA.c **** *                   
 188:Generated_Source\PSoC4/CyDMA.c **** * Return:
 189:Generated_Source\PSoC4/CyDMA.c **** *  Destination address currently being used by the DMA transfer engine.
 190:Generated_Source\PSoC4/CyDMA.c **** *
 191:Generated_Source\PSoC4/CyDMA.c **** * Side effect:
 192:Generated_Source\PSoC4/CyDMA.c **** *  The series of function calls CyDmaGetActiveSrcAddress(),
 193:Generated_Source\PSoC4/CyDMA.c **** *  CyDmaGetActiveDstAddress(), CyDmaGetStatus() are not atomic, the DMA
 194:Generated_Source\PSoC4/CyDMA.c **** *  engine may have advanced after one or more of these function calls. Meaning
 195:Generated_Source\PSoC4/CyDMA.c **** *  the returns from these three functions may not be related to each other.
 196:Generated_Source\PSoC4/CyDMA.c **** *
 197:Generated_Source\PSoC4/CyDMA.c **** *******************************************************************************/
 198:Generated_Source\PSoC4/CyDMA.c **** void * CyDmaGetActiveDstAddress(void)
 199:Generated_Source\PSoC4/CyDMA.c **** {
 221              		.loc 1 199 0
 222              		.cfi_startproc
 223 0000 80B5     		push	{r7, lr}
 224              		.cfi_def_cfa_offset 8
 225              		.cfi_offset 7, -8
 226              		.cfi_offset 14, -4
 227 0002 00AF     		add	r7, sp, #0
 228              		.cfi_def_cfa_register 7
 200:Generated_Source\PSoC4/CyDMA.c ****     return ((void *)CYDMA_STATUS_DST_ADDR_REG);
 229              		.loc 1 200 0
 230 0004 024B     		ldr	r3, .L22
 231 0006 1B68     		ldr	r3, [r3]
 201:Generated_Source\PSoC4/CyDMA.c **** }
 232              		.loc 1 201 0
 233 0008 181C     		mov	r0, r3
 234 000a BD46     		mov	sp, r7
 235              		@ sp needed
 236 000c 80BD     		pop	{r7, pc}
 237              	.L23:
 238 000e C046     		.align	2
 239              	.L22:
 240 0010 18101040 		.word	1074794520
 241              		.cfi_endproc
 242              	.LFE6:
 243              		.size	CyDmaGetActiveDstAddress, .-CyDmaGetActiveDstAddress
 244              		.section	.text.CyDmaSetInterruptVector,"ax",%progbits
 245              		.align	2
 246              		.global	CyDmaSetInterruptVector
 247              		.code	16
 248              		.thumb_func
 249              		.type	CyDmaSetInterruptVector, %function
 250              	CyDmaSetInterruptVector:
 251              	.LFB7:
 202:Generated_Source\PSoC4/CyDMA.c **** 
 203:Generated_Source\PSoC4/CyDMA.c **** 
 204:Generated_Source\PSoC4/CyDMA.c **** /*******************************************************************************
 205:Generated_Source\PSoC4/CyDMA.c **** * Function Name: CyDmaSetInterruptVector
ARM GAS  C:\Users\fneves\AppData\Local\Temp\ccoNsDRu.s 			page 9


 206:Generated_Source\PSoC4/CyDMA.c **** ********************************************************************************
 207:Generated_Source\PSoC4/CyDMA.c **** *
 208:Generated_Source\PSoC4/CyDMA.c **** * Summary:
 209:Generated_Source\PSoC4/CyDMA.c **** *  Sets the function that will be called by the DMA interrupt. Note, calling
 210:Generated_Source\PSoC4/CyDMA.c **** *  CyDmaEnable() for the first time overrides any effect this API could have.
 211:Generated_Source\PSoC4/CyDMA.c **** *  Call CyDmaSetInterruptVector() after calling CyDmaEnable() to change
 212:Generated_Source\PSoC4/CyDMA.c **** *  the default ISR.
 213:Generated_Source\PSoC4/CyDMA.c **** *
 214:Generated_Source\PSoC4/CyDMA.c **** * Parameters:
 215:Generated_Source\PSoC4/CyDMA.c **** *  interruptVector: Address of the function that will be called by the DMA
 216:Generated_Source\PSoC4/CyDMA.c **** *                   interrupt.
 217:Generated_Source\PSoC4/CyDMA.c **** * Return:
 218:Generated_Source\PSoC4/CyDMA.c **** *  None.
 219:Generated_Source\PSoC4/CyDMA.c **** *
 220:Generated_Source\PSoC4/CyDMA.c **** * Side effect:
 221:Generated_Source\PSoC4/CyDMA.c **** *  Other components that use DMA may register their callback functions to be
 222:Generated_Source\PSoC4/CyDMA.c **** *  called from the default DMA ISR. Therefore, changing the DMA ISR to a user
 223:Generated_Source\PSoC4/CyDMA.c **** *  defined ISR using this API may prevent these other components from
 224:Generated_Source\PSoC4/CyDMA.c **** *  functioning correctly.
 225:Generated_Source\PSoC4/CyDMA.c **** *
 226:Generated_Source\PSoC4/CyDMA.c **** *******************************************************************************/
 227:Generated_Source\PSoC4/CyDMA.c **** void CyDmaSetInterruptVector(cyisraddress interruptVector)
 228:Generated_Source\PSoC4/CyDMA.c **** {
 252              		.loc 1 228 0
 253              		.cfi_startproc
 254 0000 80B5     		push	{r7, lr}
 255              		.cfi_def_cfa_offset 8
 256              		.cfi_offset 7, -8
 257              		.cfi_offset 14, -4
 258 0002 82B0     		sub	sp, sp, #8
 259              		.cfi_def_cfa_offset 16
 260 0004 00AF     		add	r7, sp, #0
 261              		.cfi_def_cfa_register 7
 262 0006 7860     		str	r0, [r7, #4]
 229:Generated_Source\PSoC4/CyDMA.c ****     (void)CyIntSetVector(CYDMA_INTR_NUMBER, interruptVector);
 263              		.loc 1 229 0
 264 0008 7B68     		ldr	r3, [r7, #4]
 265 000a 0C20     		mov	r0, #12
 266 000c 191C     		mov	r1, r3
 267 000e FFF7FEFF 		bl	CyIntSetVector
 230:Generated_Source\PSoC4/CyDMA.c **** }
 268              		.loc 1 230 0
 269 0012 BD46     		mov	sp, r7
 270 0014 02B0     		add	sp, sp, #8
 271              		@ sp needed
 272 0016 80BD     		pop	{r7, pc}
 273              		.cfi_endproc
 274              	.LFE7:
 275              		.size	CyDmaSetInterruptVector, .-CyDmaSetInterruptVector
 276              		.section	.text.CyDmaGetInterruptSource,"ax",%progbits
 277              		.align	2
 278              		.global	CyDmaGetInterruptSource
 279              		.code	16
 280              		.thumb_func
 281              		.type	CyDmaGetInterruptSource, %function
 282              	CyDmaGetInterruptSource:
 283              	.LFB8:
ARM GAS  C:\Users\fneves\AppData\Local\Temp\ccoNsDRu.s 			page 10


 231:Generated_Source\PSoC4/CyDMA.c **** 
 232:Generated_Source\PSoC4/CyDMA.c **** 
 233:Generated_Source\PSoC4/CyDMA.c **** /*******************************************************************************
 234:Generated_Source\PSoC4/CyDMA.c **** * Function Name: CyDmaGetInterruptSource
 235:Generated_Source\PSoC4/CyDMA.c **** ********************************************************************************
 236:Generated_Source\PSoC4/CyDMA.c **** *
 237:Generated_Source\PSoC4/CyDMA.c **** * Summary:
 238:Generated_Source\PSoC4/CyDMA.c **** *  Returns the bit field of which channels generated an interrupt request.
 239:Generated_Source\PSoC4/CyDMA.c **** *
 240:Generated_Source\PSoC4/CyDMA.c **** * Parameters:
 241:Generated_Source\PSoC4/CyDMA.c **** *  None.
 242:Generated_Source\PSoC4/CyDMA.c **** *                   
 243:Generated_Source\PSoC4/CyDMA.c **** * Return:
 244:Generated_Source\PSoC4/CyDMA.c **** *  Bit filed of which channels generated an interrupt request.
 245:Generated_Source\PSoC4/CyDMA.c **** *
 246:Generated_Source\PSoC4/CyDMA.c **** *******************************************************************************/
 247:Generated_Source\PSoC4/CyDMA.c **** uint32 CyDmaGetInterruptSource(void)
 248:Generated_Source\PSoC4/CyDMA.c **** {
 284              		.loc 1 248 0
 285              		.cfi_startproc
 286 0000 80B5     		push	{r7, lr}
 287              		.cfi_def_cfa_offset 8
 288              		.cfi_offset 7, -8
 289              		.cfi_offset 14, -4
 290 0002 00AF     		add	r7, sp, #0
 291              		.cfi_def_cfa_register 7
 249:Generated_Source\PSoC4/CyDMA.c ****     return (CYDMA_INTR_REG);
 292              		.loc 1 249 0
 293 0004 024B     		ldr	r3, .L27
 294 0006 1B68     		ldr	r3, [r3]
 250:Generated_Source\PSoC4/CyDMA.c **** }
 295              		.loc 1 250 0
 296 0008 181C     		mov	r0, r3
 297 000a BD46     		mov	sp, r7
 298              		@ sp needed
 299 000c 80BD     		pop	{r7, pc}
 300              	.L28:
 301 000e C046     		.align	2
 302              	.L27:
 303 0010 F0171040 		.word	1074796528
 304              		.cfi_endproc
 305              	.LFE8:
 306              		.size	CyDmaGetInterruptSource, .-CyDmaGetInterruptSource
 307              		.section	.text.CyDmaClearInterruptSource,"ax",%progbits
 308              		.align	2
 309              		.global	CyDmaClearInterruptSource
 310              		.code	16
 311              		.thumb_func
 312              		.type	CyDmaClearInterruptSource, %function
 313              	CyDmaClearInterruptSource:
 314              	.LFB9:
 251:Generated_Source\PSoC4/CyDMA.c **** 
 252:Generated_Source\PSoC4/CyDMA.c **** 
 253:Generated_Source\PSoC4/CyDMA.c **** /*******************************************************************************
 254:Generated_Source\PSoC4/CyDMA.c **** * Function Name: CyDmaClearInterruptSource
 255:Generated_Source\PSoC4/CyDMA.c **** ********************************************************************************
 256:Generated_Source\PSoC4/CyDMA.c **** *
ARM GAS  C:\Users\fneves\AppData\Local\Temp\ccoNsDRu.s 			page 11


 257:Generated_Source\PSoC4/CyDMA.c **** * Summary:
 258:Generated_Source\PSoC4/CyDMA.c **** *  Clears the pending interrupts.
 259:Generated_Source\PSoC4/CyDMA.c **** *
 260:Generated_Source\PSoC4/CyDMA.c **** * Parameters:
 261:Generated_Source\PSoC4/CyDMA.c **** *  interruptMask: Bit field of interrupts to clear.
 262:Generated_Source\PSoC4/CyDMA.c **** *                   
 263:Generated_Source\PSoC4/CyDMA.c **** * Return:
 264:Generated_Source\PSoC4/CyDMA.c **** *  None.
 265:Generated_Source\PSoC4/CyDMA.c **** *
 266:Generated_Source\PSoC4/CyDMA.c **** *******************************************************************************/
 267:Generated_Source\PSoC4/CyDMA.c **** void CyDmaClearInterruptSource(uint32 interruptMask)
 268:Generated_Source\PSoC4/CyDMA.c **** {
 315              		.loc 1 268 0
 316              		.cfi_startproc
 317 0000 80B5     		push	{r7, lr}
 318              		.cfi_def_cfa_offset 8
 319              		.cfi_offset 7, -8
 320              		.cfi_offset 14, -4
 321 0002 82B0     		sub	sp, sp, #8
 322              		.cfi_def_cfa_offset 16
 323 0004 00AF     		add	r7, sp, #0
 324              		.cfi_def_cfa_register 7
 325 0006 7860     		str	r0, [r7, #4]
 269:Generated_Source\PSoC4/CyDMA.c ****     CYDMA_INTR_REG = interruptMask;
 326              		.loc 1 269 0
 327 0008 024B     		ldr	r3, .L30
 328 000a 7A68     		ldr	r2, [r7, #4]
 329 000c 1A60     		str	r2, [r3]
 270:Generated_Source\PSoC4/CyDMA.c **** }
 330              		.loc 1 270 0
 331 000e BD46     		mov	sp, r7
 332 0010 02B0     		add	sp, sp, #8
 333              		@ sp needed
 334 0012 80BD     		pop	{r7, pc}
 335              	.L31:
 336              		.align	2
 337              	.L30:
 338 0014 F0171040 		.word	1074796528
 339              		.cfi_endproc
 340              	.LFE9:
 341              		.size	CyDmaClearInterruptSource, .-CyDmaClearInterruptSource
 342              		.section	.text.CyDmaSetInterruptSourceMask,"ax",%progbits
 343              		.align	2
 344              		.global	CyDmaSetInterruptSourceMask
 345              		.code	16
 346              		.thumb_func
 347              		.type	CyDmaSetInterruptSourceMask, %function
 348              	CyDmaSetInterruptSourceMask:
 349              	.LFB10:
 271:Generated_Source\PSoC4/CyDMA.c **** 
 272:Generated_Source\PSoC4/CyDMA.c **** 
 273:Generated_Source\PSoC4/CyDMA.c **** /*******************************************************************************
 274:Generated_Source\PSoC4/CyDMA.c **** * Function Name: CyDmaSetInterruptSourceMask
 275:Generated_Source\PSoC4/CyDMA.c **** ********************************************************************************
 276:Generated_Source\PSoC4/CyDMA.c **** *
 277:Generated_Source\PSoC4/CyDMA.c **** * Summary:
 278:Generated_Source\PSoC4/CyDMA.c **** *  Sets mask for interrupt source.
ARM GAS  C:\Users\fneves\AppData\Local\Temp\ccoNsDRu.s 			page 12


 279:Generated_Source\PSoC4/CyDMA.c **** *
 280:Generated_Source\PSoC4/CyDMA.c **** * Parameters:
 281:Generated_Source\PSoC4/CyDMA.c **** *  interruptmask: Mask corresponding to interrupt bit field.
 282:Generated_Source\PSoC4/CyDMA.c **** *                   
 283:Generated_Source\PSoC4/CyDMA.c **** * Return:
 284:Generated_Source\PSoC4/CyDMA.c **** *  None.
 285:Generated_Source\PSoC4/CyDMA.c **** *
 286:Generated_Source\PSoC4/CyDMA.c **** *******************************************************************************/
 287:Generated_Source\PSoC4/CyDMA.c **** void CyDmaSetInterruptSourceMask(uint32 interruptMask)
 288:Generated_Source\PSoC4/CyDMA.c **** {
 350              		.loc 1 288 0
 351              		.cfi_startproc
 352 0000 80B5     		push	{r7, lr}
 353              		.cfi_def_cfa_offset 8
 354              		.cfi_offset 7, -8
 355              		.cfi_offset 14, -4
 356 0002 82B0     		sub	sp, sp, #8
 357              		.cfi_def_cfa_offset 16
 358 0004 00AF     		add	r7, sp, #0
 359              		.cfi_def_cfa_register 7
 360 0006 7860     		str	r0, [r7, #4]
 289:Generated_Source\PSoC4/CyDMA.c ****     CYDMA_INTR_MASK_REG = interruptMask;
 361              		.loc 1 289 0
 362 0008 024B     		ldr	r3, .L33
 363 000a 7A68     		ldr	r2, [r7, #4]
 364 000c 1A60     		str	r2, [r3]
 290:Generated_Source\PSoC4/CyDMA.c **** }
 365              		.loc 1 290 0
 366 000e BD46     		mov	sp, r7
 367 0010 02B0     		add	sp, sp, #8
 368              		@ sp needed
 369 0012 80BD     		pop	{r7, pc}
 370              	.L34:
 371              		.align	2
 372              	.L33:
 373 0014 F8171040 		.word	1074796536
 374              		.cfi_endproc
 375              	.LFE10:
 376              		.size	CyDmaSetInterruptSourceMask, .-CyDmaSetInterruptSourceMask
 377              		.section	.text.CyDmaGetInterruptSourceMask,"ax",%progbits
 378              		.align	2
 379              		.global	CyDmaGetInterruptSourceMask
 380              		.code	16
 381              		.thumb_func
 382              		.type	CyDmaGetInterruptSourceMask, %function
 383              	CyDmaGetInterruptSourceMask:
 384              	.LFB11:
 291:Generated_Source\PSoC4/CyDMA.c **** 
 292:Generated_Source\PSoC4/CyDMA.c **** 
 293:Generated_Source\PSoC4/CyDMA.c **** /*******************************************************************************
 294:Generated_Source\PSoC4/CyDMA.c **** * Function Name: CyDmaGetInterruptSourceMask
 295:Generated_Source\PSoC4/CyDMA.c **** ********************************************************************************
 296:Generated_Source\PSoC4/CyDMA.c **** *
 297:Generated_Source\PSoC4/CyDMA.c **** * Summary:
 298:Generated_Source\PSoC4/CyDMA.c **** *  Returns mask for interrupt source.
 299:Generated_Source\PSoC4/CyDMA.c **** *
 300:Generated_Source\PSoC4/CyDMA.c **** * Parameters:
ARM GAS  C:\Users\fneves\AppData\Local\Temp\ccoNsDRu.s 			page 13


 301:Generated_Source\PSoC4/CyDMA.c **** *  None.
 302:Generated_Source\PSoC4/CyDMA.c **** *                   
 303:Generated_Source\PSoC4/CyDMA.c **** * Return:
 304:Generated_Source\PSoC4/CyDMA.c **** *  Mask corresponding to interrupt bit field.
 305:Generated_Source\PSoC4/CyDMA.c **** *
 306:Generated_Source\PSoC4/CyDMA.c **** *******************************************************************************/
 307:Generated_Source\PSoC4/CyDMA.c **** uint32 CyDmaGetInterruptSourceMask(void)
 308:Generated_Source\PSoC4/CyDMA.c **** {
 385              		.loc 1 308 0
 386              		.cfi_startproc
 387 0000 80B5     		push	{r7, lr}
 388              		.cfi_def_cfa_offset 8
 389              		.cfi_offset 7, -8
 390              		.cfi_offset 14, -4
 391 0002 00AF     		add	r7, sp, #0
 392              		.cfi_def_cfa_register 7
 309:Generated_Source\PSoC4/CyDMA.c ****     return (CYDMA_INTR_MASK_REG);
 393              		.loc 1 309 0
 394 0004 024B     		ldr	r3, .L37
 395 0006 1B68     		ldr	r3, [r3]
 310:Generated_Source\PSoC4/CyDMA.c **** }
 396              		.loc 1 310 0
 397 0008 181C     		mov	r0, r3
 398 000a BD46     		mov	sp, r7
 399              		@ sp needed
 400 000c 80BD     		pop	{r7, pc}
 401              	.L38:
 402 000e C046     		.align	2
 403              	.L37:
 404 0010 F8171040 		.word	1074796536
 405              		.cfi_endproc
 406              	.LFE11:
 407              		.size	CyDmaGetInterruptSourceMask, .-CyDmaGetInterruptSourceMask
 408              		.section	.text.CyDmaGetInterruptSourceMasked,"ax",%progbits
 409              		.align	2
 410              		.global	CyDmaGetInterruptSourceMasked
 411              		.code	16
 412              		.thumb_func
 413              		.type	CyDmaGetInterruptSourceMasked, %function
 414              	CyDmaGetInterruptSourceMasked:
 415              	.LFB12:
 311:Generated_Source\PSoC4/CyDMA.c **** 
 312:Generated_Source\PSoC4/CyDMA.c **** 
 313:Generated_Source\PSoC4/CyDMA.c **** /*******************************************************************************
 314:Generated_Source\PSoC4/CyDMA.c **** * Function Name: CyDmaGetInterruptSourceMasked
 315:Generated_Source\PSoC4/CyDMA.c **** ********************************************************************************
 316:Generated_Source\PSoC4/CyDMA.c **** *
 317:Generated_Source\PSoC4/CyDMA.c **** * Summary:
 318:Generated_Source\PSoC4/CyDMA.c **** *  Returns the bitwise AND of the interrupt source and the interrupt mask.
 319:Generated_Source\PSoC4/CyDMA.c **** *
 320:Generated_Source\PSoC4/CyDMA.c **** * Parameters:
 321:Generated_Source\PSoC4/CyDMA.c **** *  None.
 322:Generated_Source\PSoC4/CyDMA.c **** *                   
 323:Generated_Source\PSoC4/CyDMA.c **** * Return:
 324:Generated_Source\PSoC4/CyDMA.c **** *  Bitwise AND of the interrupt source and the interrupt mask.
 325:Generated_Source\PSoC4/CyDMA.c **** *
 326:Generated_Source\PSoC4/CyDMA.c **** *******************************************************************************/
ARM GAS  C:\Users\fneves\AppData\Local\Temp\ccoNsDRu.s 			page 14


 327:Generated_Source\PSoC4/CyDMA.c **** uint32 CyDmaGetInterruptSourceMasked(void)
 328:Generated_Source\PSoC4/CyDMA.c **** {
 416              		.loc 1 328 0
 417              		.cfi_startproc
 418 0000 80B5     		push	{r7, lr}
 419              		.cfi_def_cfa_offset 8
 420              		.cfi_offset 7, -8
 421              		.cfi_offset 14, -4
 422 0002 00AF     		add	r7, sp, #0
 423              		.cfi_def_cfa_register 7
 329:Generated_Source\PSoC4/CyDMA.c ****     return (CYDMA_INTR_MASKED_REG);
 424              		.loc 1 329 0
 425 0004 024B     		ldr	r3, .L41
 426 0006 1B68     		ldr	r3, [r3]
 330:Generated_Source\PSoC4/CyDMA.c **** }
 427              		.loc 1 330 0
 428 0008 181C     		mov	r0, r3
 429 000a BD46     		mov	sp, r7
 430              		@ sp needed
 431 000c 80BD     		pop	{r7, pc}
 432              	.L42:
 433 000e C046     		.align	2
 434              	.L41:
 435 0010 FC171040 		.word	1074796540
 436              		.cfi_endproc
 437              	.LFE12:
 438              		.size	CyDmaGetInterruptSourceMasked, .-CyDmaGetInterruptSourceMasked
 439              		.section	.text.CyDmaSetInterruptCallback,"ax",%progbits
 440              		.align	2
 441              		.global	CyDmaSetInterruptCallback
 442              		.code	16
 443              		.thumb_func
 444              		.type	CyDmaSetInterruptCallback, %function
 445              	CyDmaSetInterruptCallback:
 446              	.LFB13:
 331:Generated_Source\PSoC4/CyDMA.c **** 
 332:Generated_Source\PSoC4/CyDMA.c **** 
 333:Generated_Source\PSoC4/CyDMA.c **** /*******************************************************************************
 334:Generated_Source\PSoC4/CyDMA.c **** * Function Name: CyDmaSetInterruptCallback
 335:Generated_Source\PSoC4/CyDMA.c **** ********************************************************************************
 336:Generated_Source\PSoC4/CyDMA.c **** *
 337:Generated_Source\PSoC4/CyDMA.c **** * Summary:
 338:Generated_Source\PSoC4/CyDMA.c **** *  Sets a user defined callback function to be called by the DMA interrupt. The
 339:Generated_Source\PSoC4/CyDMA.c **** *  function should contain code to process the interrupt request for the 
 340:Generated_Source\PSoC4/CyDMA.c **** *  associated DMA channel.
 341:Generated_Source\PSoC4/CyDMA.c **** *
 342:Generated_Source\PSoC4/CyDMA.c **** * Parameters:
 343:Generated_Source\PSoC4/CyDMA.c **** *  channel:  Channel used by this function.
 344:Generated_Source\PSoC4/CyDMA.c **** *  callback: Pointer to the user defined callback function.
 345:Generated_Source\PSoC4/CyDMA.c **** *
 346:Generated_Source\PSoC4/CyDMA.c **** * Return:
 347:Generated_Source\PSoC4/CyDMA.c **** *  Pointer to the function previously set for the specified channel. 
 348:Generated_Source\PSoC4/CyDMA.c **** *
 349:Generated_Source\PSoC4/CyDMA.c **** *******************************************************************************/
 350:Generated_Source\PSoC4/CyDMA.c **** cydma_callback_t CyDmaSetInterruptCallback(int32 channel, cydma_callback_t callback)
 351:Generated_Source\PSoC4/CyDMA.c **** {
 447              		.loc 1 351 0
ARM GAS  C:\Users\fneves\AppData\Local\Temp\ccoNsDRu.s 			page 15


 448              		.cfi_startproc
 449 0000 80B5     		push	{r7, lr}
 450              		.cfi_def_cfa_offset 8
 451              		.cfi_offset 7, -8
 452              		.cfi_offset 14, -4
 453 0002 84B0     		sub	sp, sp, #16
 454              		.cfi_def_cfa_offset 24
 455 0004 00AF     		add	r7, sp, #0
 456              		.cfi_def_cfa_register 7
 457 0006 7860     		str	r0, [r7, #4]
 458 0008 3960     		str	r1, [r7]
 352:Generated_Source\PSoC4/CyDMA.c ****     cydma_callback_t prevCallback;
 353:Generated_Source\PSoC4/CyDMA.c **** 
 354:Generated_Source\PSoC4/CyDMA.c ****     CYASSERT((channel >= 0) && (channel < CYDMA_CH_NR));
 459              		.loc 1 354 0
 460 000a 7B68     		ldr	r3, [r7, #4]
 461 000c 002B     		cmp	r3, #0
 462 000e 04DB     		blt	.L44
 463              		.loc 1 354 0 is_stmt 0 discriminator 1
 464 0010 7B68     		ldr	r3, [r7, #4]
 465 0012 072B     		cmp	r3, #7
 466 0014 01DC     		bgt	.L44
 467              		.loc 1 354 0 discriminator 3
 468 0016 0123     		mov	r3, #1
 469 0018 00E0     		b	.L45
 470              	.L44:
 471              		.loc 1 354 0 discriminator 4
 472 001a 0023     		mov	r3, #0
 473              	.L45:
 474              		.loc 1 354 0 discriminator 6
 475 001c 002B     		cmp	r3, #0
 476 001e 02D1     		bne	.L46
 477              		.loc 1 354 0 discriminator 7
 478 0020 0020     		mov	r0, #0
 479 0022 FFF7FEFF 		bl	CyHalt
 480              	.L46:
 355:Generated_Source\PSoC4/CyDMA.c **** 
 356:Generated_Source\PSoC4/CyDMA.c ****     prevCallback = CyDmaInterruptCallback[channel];
 481              		.loc 1 356 0 is_stmt 1
 482 0026 074B     		ldr	r3, .L48
 483 0028 7A68     		ldr	r2, [r7, #4]
 484 002a 9200     		lsl	r2, r2, #2
 485 002c D358     		ldr	r3, [r2, r3]
 486 002e FB60     		str	r3, [r7, #12]
 357:Generated_Source\PSoC4/CyDMA.c ****     CyDmaInterruptCallback[channel] = callback;
 487              		.loc 1 357 0
 488 0030 044B     		ldr	r3, .L48
 489 0032 7A68     		ldr	r2, [r7, #4]
 490 0034 9200     		lsl	r2, r2, #2
 491 0036 3968     		ldr	r1, [r7]
 492 0038 D150     		str	r1, [r2, r3]
 358:Generated_Source\PSoC4/CyDMA.c ****     return (prevCallback);
 493              		.loc 1 358 0
 494 003a FB68     		ldr	r3, [r7, #12]
 359:Generated_Source\PSoC4/CyDMA.c **** }
 495              		.loc 1 359 0
 496 003c 181C     		mov	r0, r3
ARM GAS  C:\Users\fneves\AppData\Local\Temp\ccoNsDRu.s 			page 16


 497 003e BD46     		mov	sp, r7
 498 0040 04B0     		add	sp, sp, #16
 499              		@ sp needed
 500 0042 80BD     		pop	{r7, pc}
 501              	.L49:
 502              		.align	2
 503              	.L48:
 504 0044 00000000 		.word	CyDmaInterruptCallback
 505              		.cfi_endproc
 506              	.LFE13:
 507              		.size	CyDmaSetInterruptCallback, .-CyDmaSetInterruptCallback
 508              		.section	.text.CyDmaGetInterruptCallback,"ax",%progbits
 509              		.align	2
 510              		.global	CyDmaGetInterruptCallback
 511              		.code	16
 512              		.thumb_func
 513              		.type	CyDmaGetInterruptCallback, %function
 514              	CyDmaGetInterruptCallback:
 515              	.LFB14:
 360:Generated_Source\PSoC4/CyDMA.c **** 
 361:Generated_Source\PSoC4/CyDMA.c **** 
 362:Generated_Source\PSoC4/CyDMA.c **** /*******************************************************************************
 363:Generated_Source\PSoC4/CyDMA.c **** * Function Name: CyDmaGetInterruptCallback
 364:Generated_Source\PSoC4/CyDMA.c **** ********************************************************************************
 365:Generated_Source\PSoC4/CyDMA.c **** *
 366:Generated_Source\PSoC4/CyDMA.c **** * Summary:
 367:Generated_Source\PSoC4/CyDMA.c **** *  Returns the pointer to the interrupt callback function for the specified DMA
 368:Generated_Source\PSoC4/CyDMA.c **** *  channel.
 369:Generated_Source\PSoC4/CyDMA.c **** *
 370:Generated_Source\PSoC4/CyDMA.c **** * Parameters:
 371:Generated_Source\PSoC4/CyDMA.c **** *  channel: Channel used by this function.
 372:Generated_Source\PSoC4/CyDMA.c **** *
 373:Generated_Source\PSoC4/CyDMA.c **** * Return:
 374:Generated_Source\PSoC4/CyDMA.c **** *  Callback function pointer for the specified channel.
 375:Generated_Source\PSoC4/CyDMA.c **** *
 376:Generated_Source\PSoC4/CyDMA.c **** *******************************************************************************/
 377:Generated_Source\PSoC4/CyDMA.c **** cydma_callback_t CyDmaGetInterruptCallback(int32 channel)
 378:Generated_Source\PSoC4/CyDMA.c **** {
 516              		.loc 1 378 0
 517              		.cfi_startproc
 518 0000 80B5     		push	{r7, lr}
 519              		.cfi_def_cfa_offset 8
 520              		.cfi_offset 7, -8
 521              		.cfi_offset 14, -4
 522 0002 82B0     		sub	sp, sp, #8
 523              		.cfi_def_cfa_offset 16
 524 0004 00AF     		add	r7, sp, #0
 525              		.cfi_def_cfa_register 7
 526 0006 7860     		str	r0, [r7, #4]
 379:Generated_Source\PSoC4/CyDMA.c ****     CYASSERT((channel >= 0) && (channel < CYDMA_CH_NR));
 527              		.loc 1 379 0
 528 0008 7B68     		ldr	r3, [r7, #4]
 529 000a 002B     		cmp	r3, #0
 530 000c 04DB     		blt	.L51
 531              		.loc 1 379 0 is_stmt 0 discriminator 1
 532 000e 7B68     		ldr	r3, [r7, #4]
 533 0010 072B     		cmp	r3, #7
ARM GAS  C:\Users\fneves\AppData\Local\Temp\ccoNsDRu.s 			page 17


 534 0012 01DC     		bgt	.L51
 535              		.loc 1 379 0 discriminator 3
 536 0014 0123     		mov	r3, #1
 537 0016 00E0     		b	.L52
 538              	.L51:
 539              		.loc 1 379 0 discriminator 4
 540 0018 0023     		mov	r3, #0
 541              	.L52:
 542              		.loc 1 379 0 discriminator 6
 543 001a 002B     		cmp	r3, #0
 544 001c 02D1     		bne	.L53
 545              		.loc 1 379 0 discriminator 7
 546 001e 0020     		mov	r0, #0
 547 0020 FFF7FEFF 		bl	CyHalt
 548              	.L53:
 380:Generated_Source\PSoC4/CyDMA.c ****     
 381:Generated_Source\PSoC4/CyDMA.c ****     return (CyDmaInterruptCallback[channel]);
 549              		.loc 1 381 0 is_stmt 1
 550 0024 034B     		ldr	r3, .L55
 551 0026 7A68     		ldr	r2, [r7, #4]
 552 0028 9200     		lsl	r2, r2, #2
 553 002a D358     		ldr	r3, [r2, r3]
 382:Generated_Source\PSoC4/CyDMA.c **** }
 554              		.loc 1 382 0
 555 002c 181C     		mov	r0, r3
 556 002e BD46     		mov	sp, r7
 557 0030 02B0     		add	sp, sp, #8
 558              		@ sp needed
 559 0032 80BD     		pop	{r7, pc}
 560              	.L56:
 561              		.align	2
 562              	.L55:
 563 0034 00000000 		.word	CyDmaInterruptCallback
 564              		.cfi_endproc
 565              	.LFE14:
 566              		.size	CyDmaGetInterruptCallback, .-CyDmaGetInterruptCallback
 567              		.section	.text.CyDmaInterrupt,"ax",%progbits
 568              		.align	2
 569              		.global	CyDmaInterrupt
 570              		.code	16
 571              		.thumb_func
 572              		.type	CyDmaInterrupt, %function
 573              	CyDmaInterrupt:
 574              	.LFB15:
 383:Generated_Source\PSoC4/CyDMA.c **** 
 384:Generated_Source\PSoC4/CyDMA.c **** 
 385:Generated_Source\PSoC4/CyDMA.c **** /*******************************************************************************
 386:Generated_Source\PSoC4/CyDMA.c **** * Function Name: CyDmaInterrupt
 387:Generated_Source\PSoC4/CyDMA.c **** ********************************************************************************
 388:Generated_Source\PSoC4/CyDMA.c **** *
 389:Generated_Source\PSoC4/CyDMA.c **** * Summary:
 390:Generated_Source\PSoC4/CyDMA.c **** *  The default ISR for DMA interrupts. The handler checks which DMA channel has
 391:Generated_Source\PSoC4/CyDMA.c **** *  triggered the interrupt and calls the user defined callback function.
 392:Generated_Source\PSoC4/CyDMA.c **** *  The callback function is set using CyDmaSetInteruptCallback() API.
 393:Generated_Source\PSoC4/CyDMA.c **** *
 394:Generated_Source\PSoC4/CyDMA.c **** * Parameters:
 395:Generated_Source\PSoC4/CyDMA.c **** *  None.
ARM GAS  C:\Users\fneves\AppData\Local\Temp\ccoNsDRu.s 			page 18


 396:Generated_Source\PSoC4/CyDMA.c **** *
 397:Generated_Source\PSoC4/CyDMA.c **** * Return:
 398:Generated_Source\PSoC4/CyDMA.c **** *  None.
 399:Generated_Source\PSoC4/CyDMA.c **** *
 400:Generated_Source\PSoC4/CyDMA.c **** * Side Effects:
 401:Generated_Source\PSoC4/CyDMA.c **** *  This function clears the pending interrupts.
 402:Generated_Source\PSoC4/CyDMA.c **** *
 403:Generated_Source\PSoC4/CyDMA.c **** *******************************************************************************/
 404:Generated_Source\PSoC4/CyDMA.c **** CY_ISR(CyDmaInterrupt)
 405:Generated_Source\PSoC4/CyDMA.c **** {
 575              		.loc 1 405 0
 576              		.cfi_startproc
 577 0000 80B5     		push	{r7, lr}
 578              		.cfi_def_cfa_offset 8
 579              		.cfi_offset 7, -8
 580              		.cfi_offset 14, -4
 581 0002 82B0     		sub	sp, sp, #8
 582              		.cfi_def_cfa_offset 16
 583 0004 00AF     		add	r7, sp, #0
 584              		.cfi_def_cfa_register 7
 406:Generated_Source\PSoC4/CyDMA.c ****     uint32 intr;
 407:Generated_Source\PSoC4/CyDMA.c ****     uint32 cbIdx = 0u;
 585              		.loc 1 407 0
 586 0006 0023     		mov	r3, #0
 587 0008 3B60     		str	r3, [r7]
 408:Generated_Source\PSoC4/CyDMA.c **** 
 409:Generated_Source\PSoC4/CyDMA.c ****     /* Get interrupt source. */
 410:Generated_Source\PSoC4/CyDMA.c ****     intr = CYDMA_INTR_MASKED_REG;
 588              		.loc 1 410 0
 589 000a 0E4B     		ldr	r3, .L61
 590 000c 1B68     		ldr	r3, [r3]
 591 000e 7B60     		str	r3, [r7, #4]
 411:Generated_Source\PSoC4/CyDMA.c **** 
 412:Generated_Source\PSoC4/CyDMA.c ****     /* Clear pending interrupts. */
 413:Generated_Source\PSoC4/CyDMA.c ****     CYDMA_INTR_REG = intr;
 592              		.loc 1 413 0
 593 0010 0D4B     		ldr	r3, .L61+4
 594 0012 7A68     		ldr	r2, [r7, #4]
 595 0014 1A60     		str	r2, [r3]
 414:Generated_Source\PSoC4/CyDMA.c **** 
 415:Generated_Source\PSoC4/CyDMA.c ****     /* Call user defined callback functions for triggered interrupt sources. */
 416:Generated_Source\PSoC4/CyDMA.c ****     while(0u != intr)
 596              		.loc 1 416 0
 597 0016 0EE0     		b	.L58
 598              	.L60:
 417:Generated_Source\PSoC4/CyDMA.c ****     {
 418:Generated_Source\PSoC4/CyDMA.c ****         if(0u != (intr & 0x1u))
 599              		.loc 1 418 0
 600 0018 7B68     		ldr	r3, [r7, #4]
 601 001a 0122     		mov	r2, #1
 602 001c 1340     		and	r3, r2
 603 001e 04D0     		beq	.L59
 419:Generated_Source\PSoC4/CyDMA.c ****         {
 420:Generated_Source\PSoC4/CyDMA.c ****             CyDmaInterruptCallback[cbIdx]();
 604              		.loc 1 420 0
 605 0020 0A4B     		ldr	r3, .L61+8
 606 0022 3A68     		ldr	r2, [r7]
ARM GAS  C:\Users\fneves\AppData\Local\Temp\ccoNsDRu.s 			page 19


 607 0024 9200     		lsl	r2, r2, #2
 608 0026 D358     		ldr	r3, [r2, r3]
 609 0028 9847     		blx	r3
 610              	.L59:
 421:Generated_Source\PSoC4/CyDMA.c ****         }
 422:Generated_Source\PSoC4/CyDMA.c ****         intr >>= 1;
 611              		.loc 1 422 0
 612 002a 7B68     		ldr	r3, [r7, #4]
 613 002c 5B08     		lsr	r3, r3, #1
 614 002e 7B60     		str	r3, [r7, #4]
 423:Generated_Source\PSoC4/CyDMA.c ****         ++cbIdx;
 615              		.loc 1 423 0
 616 0030 3B68     		ldr	r3, [r7]
 617 0032 0133     		add	r3, r3, #1
 618 0034 3B60     		str	r3, [r7]
 619              	.L58:
 416:Generated_Source\PSoC4/CyDMA.c ****     {
 620              		.loc 1 416 0
 621 0036 7B68     		ldr	r3, [r7, #4]
 622 0038 002B     		cmp	r3, #0
 623 003a EDD1     		bne	.L60
 424:Generated_Source\PSoC4/CyDMA.c ****     }
 425:Generated_Source\PSoC4/CyDMA.c **** }
 624              		.loc 1 425 0
 625 003c BD46     		mov	sp, r7
 626 003e 02B0     		add	sp, sp, #8
 627              		@ sp needed
 628 0040 80BD     		pop	{r7, pc}
 629              	.L62:
 630 0042 C046     		.align	2
 631              	.L61:
 632 0044 FC171040 		.word	1074796540
 633 0048 F0171040 		.word	1074796528
 634 004c 00000000 		.word	CyDmaInterruptCallback
 635              		.cfi_endproc
 636              	.LFE15:
 637              		.size	CyDmaInterrupt, .-CyDmaInterrupt
 638              		.section	.text.CyDmaDefaultInterruptCallback,"ax",%progbits
 639              		.align	2
 640              		.code	16
 641              		.thumb_func
 642              		.type	CyDmaDefaultInterruptCallback, %function
 643              	CyDmaDefaultInterruptCallback:
 644              	.LFB16:
 426:Generated_Source\PSoC4/CyDMA.c **** 
 427:Generated_Source\PSoC4/CyDMA.c **** 
 428:Generated_Source\PSoC4/CyDMA.c **** /*******************************************************************************
 429:Generated_Source\PSoC4/CyDMA.c **** * Function Name: CyDmaDefaultInterruptCallback
 430:Generated_Source\PSoC4/CyDMA.c **** ********************************************************************************
 431:Generated_Source\PSoC4/CyDMA.c **** *
 432:Generated_Source\PSoC4/CyDMA.c **** * Summary:
 433:Generated_Source\PSoC4/CyDMA.c **** *  This function is invoked when the user defined callback function is undefined
 434:Generated_Source\PSoC4/CyDMA.c **** *  for the interrupt source.
 435:Generated_Source\PSoC4/CyDMA.c **** *
 436:Generated_Source\PSoC4/CyDMA.c **** * Parameters:
 437:Generated_Source\PSoC4/CyDMA.c **** *  None.
 438:Generated_Source\PSoC4/CyDMA.c **** *
ARM GAS  C:\Users\fneves\AppData\Local\Temp\ccoNsDRu.s 			page 20


 439:Generated_Source\PSoC4/CyDMA.c **** * Return:
 440:Generated_Source\PSoC4/CyDMA.c **** *  None.
 441:Generated_Source\PSoC4/CyDMA.c **** *
 442:Generated_Source\PSoC4/CyDMA.c **** *******************************************************************************/
 443:Generated_Source\PSoC4/CyDMA.c **** static void CyDmaDefaultInterruptCallback(void)
 444:Generated_Source\PSoC4/CyDMA.c **** {
 645              		.loc 1 444 0
 646              		.cfi_startproc
 647 0000 80B5     		push	{r7, lr}
 648              		.cfi_def_cfa_offset 8
 649              		.cfi_offset 7, -8
 650              		.cfi_offset 14, -4
 651 0002 00AF     		add	r7, sp, #0
 652              		.cfi_def_cfa_register 7
 445:Generated_Source\PSoC4/CyDMA.c ****     /* Halt CPU in debug mode. We get here because there is no user defined
 446:Generated_Source\PSoC4/CyDMA.c ****     * callback function for the interrupt source. You should either set a
 447:Generated_Source\PSoC4/CyDMA.c ****     * callback function or disable generating an interrupt from this
 448:Generated_Source\PSoC4/CyDMA.c ****     * interrupt source.
 449:Generated_Source\PSoC4/CyDMA.c ****     * To set a callback, use the CyDmaSetInterruptCallback() API function.
 450:Generated_Source\PSoC4/CyDMA.c ****     * To disable interrupt generation, write '0' to the corresponding bit
 451:Generated_Source\PSoC4/CyDMA.c ****     * in the interrupt mask by calling CyDmaSetInterruptSourceMask().
 452:Generated_Source\PSoC4/CyDMA.c ****     */
 453:Generated_Source\PSoC4/CyDMA.c ****     CYASSERT(0 != 0);
 653              		.loc 1 453 0
 654 0004 0020     		mov	r0, #0
 655 0006 FFF7FEFF 		bl	CyHalt
 454:Generated_Source\PSoC4/CyDMA.c **** }
 656              		.loc 1 454 0
 657 000a BD46     		mov	sp, r7
 658              		@ sp needed
 659 000c 80BD     		pop	{r7, pc}
 660              		.cfi_endproc
 661              	.LFE16:
 662              		.size	CyDmaDefaultInterruptCallback, .-CyDmaDefaultInterruptCallback
 663              		.section	.text.CyDmaChAlloc,"ax",%progbits
 664              		.align	2
 665              		.global	CyDmaChAlloc
 666              		.code	16
 667              		.thumb_func
 668              		.type	CyDmaChAlloc, %function
 669              	CyDmaChAlloc:
 670              	.LFB17:
 455:Generated_Source\PSoC4/CyDMA.c **** 
 456:Generated_Source\PSoC4/CyDMA.c **** 
 457:Generated_Source\PSoC4/CyDMA.c **** /*******************************************************************************
 458:Generated_Source\PSoC4/CyDMA.c **** * Function Name: CyDmaChAlloc
 459:Generated_Source\PSoC4/CyDMA.c **** ********************************************************************************
 460:Generated_Source\PSoC4/CyDMA.c **** *
 461:Generated_Source\PSoC4/CyDMA.c **** * Summary:
 462:Generated_Source\PSoC4/CyDMA.c **** *  Allocates a channel number to use with later DMA functions.
 463:Generated_Source\PSoC4/CyDMA.c **** *
 464:Generated_Source\PSoC4/CyDMA.c **** * Parameters:
 465:Generated_Source\PSoC4/CyDMA.c **** *  None.
 466:Generated_Source\PSoC4/CyDMA.c **** *                   
 467:Generated_Source\PSoC4/CyDMA.c **** * Return:
 468:Generated_Source\PSoC4/CyDMA.c **** *  The allocated channel number. Zero is a valid channel number.
 469:Generated_Source\PSoC4/CyDMA.c **** *  CYDMA_INVALID_CHANNEL is returned if there are no channels available.
ARM GAS  C:\Users\fneves\AppData\Local\Temp\ccoNsDRu.s 			page 21


 470:Generated_Source\PSoC4/CyDMA.c **** *
 471:Generated_Source\PSoC4/CyDMA.c **** *******************************************************************************/
 472:Generated_Source\PSoC4/CyDMA.c **** int32 CyDmaChAlloc(void)
 473:Generated_Source\PSoC4/CyDMA.c **** {
 671              		.loc 1 473 0
 672              		.cfi_startproc
 673 0000 80B5     		push	{r7, lr}
 674              		.cfi_def_cfa_offset 8
 675              		.cfi_offset 7, -8
 676              		.cfi_offset 14, -4
 677 0002 82B0     		sub	sp, sp, #8
 678              		.cfi_def_cfa_offset 16
 679 0004 00AF     		add	r7, sp, #0
 680              		.cfi_def_cfa_register 7
 474:Generated_Source\PSoC4/CyDMA.c ****     int32  channel = CYDMA_CH_NR-1;
 681              		.loc 1 474 0
 682 0006 0723     		mov	r3, #7
 683 0008 7B60     		str	r3, [r7, #4]
 475:Generated_Source\PSoC4/CyDMA.c ****     uint32 channelMask = (uint32)(1UL << (CYDMA_CH_NR-1));
 684              		.loc 1 475 0
 685 000a 8023     		mov	r3, #128
 686 000c 3B60     		str	r3, [r7]
 476:Generated_Source\PSoC4/CyDMA.c ****     
 477:Generated_Source\PSoC4/CyDMA.c ****     while (channel >= 0)
 687              		.loc 1 477 0
 688 000e 11E0     		b	.L65
 689              	.L68:
 478:Generated_Source\PSoC4/CyDMA.c ****     {
 479:Generated_Source\PSoC4/CyDMA.c ****         if(0u == (CyDmaChannelUsedMask & channelMask))
 690              		.loc 1 479 0
 691 0010 0C4B     		ldr	r3, .L70
 692 0012 1B68     		ldr	r3, [r3]
 693 0014 3A68     		ldr	r2, [r7]
 694 0016 1340     		and	r3, r2
 695 0018 06D1     		bne	.L66
 480:Generated_Source\PSoC4/CyDMA.c ****         {
 481:Generated_Source\PSoC4/CyDMA.c ****             /* Mark channel as used and exit loop. */ 
 482:Generated_Source\PSoC4/CyDMA.c ****             CyDmaChannelUsedMask |= channelMask;
 696              		.loc 1 482 0
 697 001a 0A4B     		ldr	r3, .L70
 698 001c 1A68     		ldr	r2, [r3]
 699 001e 3B68     		ldr	r3, [r7]
 700 0020 1A43     		orr	r2, r3
 701 0022 084B     		ldr	r3, .L70
 702 0024 1A60     		str	r2, [r3]
 483:Generated_Source\PSoC4/CyDMA.c ****             break;
 703              		.loc 1 483 0
 704 0026 08E0     		b	.L67
 705              	.L66:
 484:Generated_Source\PSoC4/CyDMA.c ****         }
 485:Generated_Source\PSoC4/CyDMA.c ****         channelMask >>= 1;
 706              		.loc 1 485 0
 707 0028 3B68     		ldr	r3, [r7]
 708 002a 5B08     		lsr	r3, r3, #1
 709 002c 3B60     		str	r3, [r7]
 486:Generated_Source\PSoC4/CyDMA.c ****         --channel;
 710              		.loc 1 486 0
ARM GAS  C:\Users\fneves\AppData\Local\Temp\ccoNsDRu.s 			page 22


 711 002e 7B68     		ldr	r3, [r7, #4]
 712 0030 013B     		sub	r3, r3, #1
 713 0032 7B60     		str	r3, [r7, #4]
 714              	.L65:
 477:Generated_Source\PSoC4/CyDMA.c ****     {
 715              		.loc 1 477 0
 716 0034 7B68     		ldr	r3, [r7, #4]
 717 0036 002B     		cmp	r3, #0
 718 0038 EADA     		bge	.L68
 719              	.L67:
 487:Generated_Source\PSoC4/CyDMA.c ****     }
 488:Generated_Source\PSoC4/CyDMA.c ****     return (channel);
 720              		.loc 1 488 0
 721 003a 7B68     		ldr	r3, [r7, #4]
 489:Generated_Source\PSoC4/CyDMA.c **** }
 722              		.loc 1 489 0
 723 003c 181C     		mov	r0, r3
 724 003e BD46     		mov	sp, r7
 725 0040 02B0     		add	sp, sp, #8
 726              		@ sp needed
 727 0042 80BD     		pop	{r7, pc}
 728              	.L71:
 729              		.align	2
 730              	.L70:
 731 0044 20000000 		.word	CyDmaChannelUsedMask
 732              		.cfi_endproc
 733              	.LFE17:
 734              		.size	CyDmaChAlloc, .-CyDmaChAlloc
 735              		.section	.text.CyDmaChFree,"ax",%progbits
 736              		.align	2
 737              		.global	CyDmaChFree
 738              		.code	16
 739              		.thumb_func
 740              		.type	CyDmaChFree, %function
 741              	CyDmaChFree:
 742              	.LFB18:
 490:Generated_Source\PSoC4/CyDMA.c **** 
 491:Generated_Source\PSoC4/CyDMA.c **** 
 492:Generated_Source\PSoC4/CyDMA.c **** /*******************************************************************************
 493:Generated_Source\PSoC4/CyDMA.c **** * Function Name: CyDmaChFree
 494:Generated_Source\PSoC4/CyDMA.c **** ********************************************************************************
 495:Generated_Source\PSoC4/CyDMA.c **** *
 496:Generated_Source\PSoC4/CyDMA.c **** * Summary:
 497:Generated_Source\PSoC4/CyDMA.c **** *  Frees a channel handle allocated by CyDmaChAlloc(). Channels allocated for
 498:Generated_Source\PSoC4/CyDMA.c **** *  DMA instances placed on a schematic cannot be freed.
 499:Generated_Source\PSoC4/CyDMA.c **** *
 500:Generated_Source\PSoC4/CyDMA.c **** * Parameters:
 501:Generated_Source\PSoC4/CyDMA.c **** *  channel: The handle previously returned by CyDmaChAlloc().
 502:Generated_Source\PSoC4/CyDMA.c **** *                   
 503:Generated_Source\PSoC4/CyDMA.c **** * Return:
 504:Generated_Source\PSoC4/CyDMA.c **** *  CYRET_SUCCESS if successful.
 505:Generated_Source\PSoC4/CyDMA.c **** *  CYRET_BAD_PARAM if channel is invalid.
 506:Generated_Source\PSoC4/CyDMA.c **** *
 507:Generated_Source\PSoC4/CyDMA.c **** *******************************************************************************/
 508:Generated_Source\PSoC4/CyDMA.c **** cystatus CyDmaChFree(int32 channel)
 509:Generated_Source\PSoC4/CyDMA.c **** {
 743              		.loc 1 509 0
ARM GAS  C:\Users\fneves\AppData\Local\Temp\ccoNsDRu.s 			page 23


 744              		.cfi_startproc
 745 0000 80B5     		push	{r7, lr}
 746              		.cfi_def_cfa_offset 8
 747              		.cfi_offset 7, -8
 748              		.cfi_offset 14, -4
 749 0002 84B0     		sub	sp, sp, #16
 750              		.cfi_def_cfa_offset 24
 751 0004 00AF     		add	r7, sp, #0
 752              		.cfi_def_cfa_register 7
 753 0006 7860     		str	r0, [r7, #4]
 510:Generated_Source\PSoC4/CyDMA.c ****     uint32   channelMask;
 511:Generated_Source\PSoC4/CyDMA.c ****     cystatus result = CYRET_BAD_PARAM;
 754              		.loc 1 511 0
 755 0008 0123     		mov	r3, #1
 756 000a FB60     		str	r3, [r7, #12]
 512:Generated_Source\PSoC4/CyDMA.c **** 
 513:Generated_Source\PSoC4/CyDMA.c ****     CYASSERT((channel >= 0) && (channel < CYDMA_CH_NR));
 757              		.loc 1 513 0
 758 000c 7B68     		ldr	r3, [r7, #4]
 759 000e 002B     		cmp	r3, #0
 760 0010 04DB     		blt	.L73
 761              		.loc 1 513 0 is_stmt 0 discriminator 1
 762 0012 7B68     		ldr	r3, [r7, #4]
 763 0014 072B     		cmp	r3, #7
 764 0016 01DC     		bgt	.L73
 765              		.loc 1 513 0 discriminator 3
 766 0018 0123     		mov	r3, #1
 767 001a 00E0     		b	.L74
 768              	.L73:
 769              		.loc 1 513 0 discriminator 4
 770 001c 0023     		mov	r3, #0
 771              	.L74:
 772              		.loc 1 513 0 discriminator 6
 773 001e 002B     		cmp	r3, #0
 774 0020 02D1     		bne	.L75
 775              		.loc 1 513 0 discriminator 7
 776 0022 0020     		mov	r0, #0
 777 0024 FFF7FEFF 		bl	CyHalt
 778              	.L75:
 514:Generated_Source\PSoC4/CyDMA.c ****     
 515:Generated_Source\PSoC4/CyDMA.c ****     channelMask = (uint32)(1UL << channel);
 779              		.loc 1 515 0 is_stmt 1
 780 0028 0122     		mov	r2, #1
 781 002a 7B68     		ldr	r3, [r7, #4]
 782 002c 9A40     		lsl	r2, r2, r3
 783 002e 131C     		mov	r3, r2
 784 0030 BB60     		str	r3, [r7, #8]
 516:Generated_Source\PSoC4/CyDMA.c **** 
 517:Generated_Source\PSoC4/CyDMA.c ****     /* Check against attempt to free channel allocated for DMA instance
 518:Generated_Source\PSoC4/CyDMA.c ****     * placed on schematic.
 519:Generated_Source\PSoC4/CyDMA.c ****     */
 520:Generated_Source\PSoC4/CyDMA.c ****     if(0u == (channelMask & DMA_CHANNELS_USED__MASK))
 785              		.loc 1 520 0
 786 0032 BB68     		ldr	r3, [r7, #8]
 787 0034 0122     		mov	r2, #1
 788 0036 1340     		and	r3, r2
 789 0038 08D1     		bne	.L76
ARM GAS  C:\Users\fneves\AppData\Local\Temp\ccoNsDRu.s 			page 24


 521:Generated_Source\PSoC4/CyDMA.c ****     {
 522:Generated_Source\PSoC4/CyDMA.c ****         CyDmaChannelUsedMask &= (uint32)~channelMask;
 790              		.loc 1 522 0
 791 003a BB68     		ldr	r3, [r7, #8]
 792 003c DA43     		mvn	r2, r3
 793 003e 064B     		ldr	r3, .L78
 794 0040 1B68     		ldr	r3, [r3]
 795 0042 1A40     		and	r2, r3
 796 0044 044B     		ldr	r3, .L78
 797 0046 1A60     		str	r2, [r3]
 523:Generated_Source\PSoC4/CyDMA.c ****         result = CYRET_SUCCESS;
 798              		.loc 1 523 0
 799 0048 0023     		mov	r3, #0
 800 004a FB60     		str	r3, [r7, #12]
 801              	.L76:
 524:Generated_Source\PSoC4/CyDMA.c ****     }
 525:Generated_Source\PSoC4/CyDMA.c ****     
 526:Generated_Source\PSoC4/CyDMA.c ****     return (result);
 802              		.loc 1 526 0
 803 004c FB68     		ldr	r3, [r7, #12]
 527:Generated_Source\PSoC4/CyDMA.c **** }
 804              		.loc 1 527 0
 805 004e 181C     		mov	r0, r3
 806 0050 BD46     		mov	sp, r7
 807 0052 04B0     		add	sp, sp, #16
 808              		@ sp needed
 809 0054 80BD     		pop	{r7, pc}
 810              	.L79:
 811 0056 C046     		.align	2
 812              	.L78:
 813 0058 20000000 		.word	CyDmaChannelUsedMask
 814              		.cfi_endproc
 815              	.LFE18:
 816              		.size	CyDmaChFree, .-CyDmaChFree
 817              		.section	.text.CyDmaChEnable,"ax",%progbits
 818              		.align	2
 819              		.global	CyDmaChEnable
 820              		.code	16
 821              		.thumb_func
 822              		.type	CyDmaChEnable, %function
 823              	CyDmaChEnable:
 824              	.LFB19:
 528:Generated_Source\PSoC4/CyDMA.c **** 
 529:Generated_Source\PSoC4/CyDMA.c **** 
 530:Generated_Source\PSoC4/CyDMA.c **** /*******************************************************************************
 531:Generated_Source\PSoC4/CyDMA.c **** * Function Name: CyDmaChEnable
 532:Generated_Source\PSoC4/CyDMA.c **** ********************************************************************************
 533:Generated_Source\PSoC4/CyDMA.c **** *
 534:Generated_Source\PSoC4/CyDMA.c **** * Summary:
 535:Generated_Source\PSoC4/CyDMA.c **** *  Enables the DMA channel.
 536:Generated_Source\PSoC4/CyDMA.c **** *
 537:Generated_Source\PSoC4/CyDMA.c **** * Parameters:
 538:Generated_Source\PSoC4/CyDMA.c **** *  channel: Channel used by this function.
 539:Generated_Source\PSoC4/CyDMA.c **** *                   
 540:Generated_Source\PSoC4/CyDMA.c **** * Return:
 541:Generated_Source\PSoC4/CyDMA.c **** *  None.
 542:Generated_Source\PSoC4/CyDMA.c **** *
ARM GAS  C:\Users\fneves\AppData\Local\Temp\ccoNsDRu.s 			page 25


 543:Generated_Source\PSoC4/CyDMA.c **** * Side effect:
 544:Generated_Source\PSoC4/CyDMA.c **** *  If this function is called before CyDmaSetConfiguration(), and
 545:Generated_Source\PSoC4/CyDMA.c **** *  CyDmaSetSrcAddress() and CyDmaSetDstAddress(), the operation of
 546:Generated_Source\PSoC4/CyDMA.c **** *  the DMA is undefined and could result in system data corruption. 
 547:Generated_Source\PSoC4/CyDMA.c **** *
 548:Generated_Source\PSoC4/CyDMA.c **** *******************************************************************************/
 549:Generated_Source\PSoC4/CyDMA.c **** void CyDmaChEnable(int32 channel)
 550:Generated_Source\PSoC4/CyDMA.c **** {
 825              		.loc 1 550 0
 826              		.cfi_startproc
 827 0000 80B5     		push	{r7, lr}
 828              		.cfi_def_cfa_offset 8
 829              		.cfi_offset 7, -8
 830              		.cfi_offset 14, -4
 831 0002 82B0     		sub	sp, sp, #8
 832              		.cfi_def_cfa_offset 16
 833 0004 00AF     		add	r7, sp, #0
 834              		.cfi_def_cfa_register 7
 835 0006 7860     		str	r0, [r7, #4]
 551:Generated_Source\PSoC4/CyDMA.c ****     CYASSERT((channel >= 0) && (channel < CYDMA_CH_NR));
 836              		.loc 1 551 0
 837 0008 7B68     		ldr	r3, [r7, #4]
 838 000a 002B     		cmp	r3, #0
 839 000c 04DB     		blt	.L81
 840              		.loc 1 551 0 is_stmt 0 discriminator 1
 841 000e 7B68     		ldr	r3, [r7, #4]
 842 0010 072B     		cmp	r3, #7
 843 0012 01DC     		bgt	.L81
 844              		.loc 1 551 0 discriminator 3
 845 0014 0123     		mov	r3, #1
 846 0016 00E0     		b	.L82
 847              	.L81:
 848              		.loc 1 551 0 discriminator 4
 849 0018 0023     		mov	r3, #0
 850              	.L82:
 851              		.loc 1 551 0 discriminator 6
 852 001a 002B     		cmp	r3, #0
 853 001c 02D1     		bne	.L83
 854              		.loc 1 551 0 discriminator 7
 855 001e 0020     		mov	r0, #0
 856 0020 FFF7FEFF 		bl	CyHalt
 857              	.L83:
 552:Generated_Source\PSoC4/CyDMA.c **** 
 553:Generated_Source\PSoC4/CyDMA.c ****     CYDMA_CH_CTL_BASE.ctl[channel] |= CYDMA_ENABLED;
 858              		.loc 1 553 0 is_stmt 1
 859 0024 0649     		ldr	r1, .L84
 860 0026 064A     		ldr	r2, .L84
 861 0028 7B68     		ldr	r3, [r7, #4]
 862 002a 9B00     		lsl	r3, r3, #2
 863 002c 9B58     		ldr	r3, [r3, r2]
 864 002e 8022     		mov	r2, #128
 865 0030 1206     		lsl	r2, r2, #24
 866 0032 1A43     		orr	r2, r3
 867 0034 7B68     		ldr	r3, [r7, #4]
 868 0036 9B00     		lsl	r3, r3, #2
 869 0038 5A50     		str	r2, [r3, r1]
 554:Generated_Source\PSoC4/CyDMA.c **** }
ARM GAS  C:\Users\fneves\AppData\Local\Temp\ccoNsDRu.s 			page 26


 870              		.loc 1 554 0
 871 003a BD46     		mov	sp, r7
 872 003c 02B0     		add	sp, sp, #8
 873              		@ sp needed
 874 003e 80BD     		pop	{r7, pc}
 875              	.L85:
 876              		.align	2
 877              	.L84:
 878 0040 80101040 		.word	1074794624
 879              		.cfi_endproc
 880              	.LFE19:
 881              		.size	CyDmaChEnable, .-CyDmaChEnable
 882              		.section	.text.CyDmaChDisable,"ax",%progbits
 883              		.align	2
 884              		.global	CyDmaChDisable
 885              		.code	16
 886              		.thumb_func
 887              		.type	CyDmaChDisable, %function
 888              	CyDmaChDisable:
 889              	.LFB20:
 555:Generated_Source\PSoC4/CyDMA.c **** 
 556:Generated_Source\PSoC4/CyDMA.c **** 
 557:Generated_Source\PSoC4/CyDMA.c **** /*******************************************************************************
 558:Generated_Source\PSoC4/CyDMA.c **** * Function Name: CyDmaChDisable
 559:Generated_Source\PSoC4/CyDMA.c **** ********************************************************************************
 560:Generated_Source\PSoC4/CyDMA.c **** *
 561:Generated_Source\PSoC4/CyDMA.c **** * Summary:
 562:Generated_Source\PSoC4/CyDMA.c **** *  Disables the DMA channel.
 563:Generated_Source\PSoC4/CyDMA.c **** *
 564:Generated_Source\PSoC4/CyDMA.c **** * Parameters:
 565:Generated_Source\PSoC4/CyDMA.c **** *  channel: Channel used by this function.
 566:Generated_Source\PSoC4/CyDMA.c **** *                   
 567:Generated_Source\PSoC4/CyDMA.c **** * Return:
 568:Generated_Source\PSoC4/CyDMA.c **** *  None.
 569:Generated_Source\PSoC4/CyDMA.c **** *
 570:Generated_Source\PSoC4/CyDMA.c **** * Side effect:
 571:Generated_Source\PSoC4/CyDMA.c **** *  If this function is called during a DMA transfer the transfer is aborted. 
 572:Generated_Source\PSoC4/CyDMA.c **** *
 573:Generated_Source\PSoC4/CyDMA.c **** *******************************************************************************/
 574:Generated_Source\PSoC4/CyDMA.c **** void CyDmaChDisable(int32 channel)
 575:Generated_Source\PSoC4/CyDMA.c **** {
 890              		.loc 1 575 0
 891              		.cfi_startproc
 892 0000 80B5     		push	{r7, lr}
 893              		.cfi_def_cfa_offset 8
 894              		.cfi_offset 7, -8
 895              		.cfi_offset 14, -4
 896 0002 82B0     		sub	sp, sp, #8
 897              		.cfi_def_cfa_offset 16
 898 0004 00AF     		add	r7, sp, #0
 899              		.cfi_def_cfa_register 7
 900 0006 7860     		str	r0, [r7, #4]
 576:Generated_Source\PSoC4/CyDMA.c ****     CYASSERT((channel >= 0) && (channel < CYDMA_CH_NR));
 901              		.loc 1 576 0
 902 0008 7B68     		ldr	r3, [r7, #4]
 903 000a 002B     		cmp	r3, #0
 904 000c 04DB     		blt	.L87
ARM GAS  C:\Users\fneves\AppData\Local\Temp\ccoNsDRu.s 			page 27


 905              		.loc 1 576 0 is_stmt 0 discriminator 1
 906 000e 7B68     		ldr	r3, [r7, #4]
 907 0010 072B     		cmp	r3, #7
 908 0012 01DC     		bgt	.L87
 909              		.loc 1 576 0 discriminator 3
 910 0014 0123     		mov	r3, #1
 911 0016 00E0     		b	.L88
 912              	.L87:
 913              		.loc 1 576 0 discriminator 4
 914 0018 0023     		mov	r3, #0
 915              	.L88:
 916              		.loc 1 576 0 discriminator 6
 917 001a 002B     		cmp	r3, #0
 918 001c 02D1     		bne	.L89
 919              		.loc 1 576 0 discriminator 7
 920 001e 0020     		mov	r0, #0
 921 0020 FFF7FEFF 		bl	CyHalt
 922              	.L89:
 577:Generated_Source\PSoC4/CyDMA.c **** 
 578:Generated_Source\PSoC4/CyDMA.c ****     CYDMA_CH_CTL_BASE.ctl[channel] &= (uint32)~CYDMA_ENABLED;
 923              		.loc 1 578 0 is_stmt 1
 924 0024 0649     		ldr	r1, .L90
 925 0026 064A     		ldr	r2, .L90
 926 0028 7B68     		ldr	r3, [r7, #4]
 927 002a 9B00     		lsl	r3, r3, #2
 928 002c 9B58     		ldr	r3, [r3, r2]
 929 002e 5B00     		lsl	r3, r3, #1
 930 0030 5A08     		lsr	r2, r3, #1
 931 0032 7B68     		ldr	r3, [r7, #4]
 932 0034 9B00     		lsl	r3, r3, #2
 933 0036 5A50     		str	r2, [r3, r1]
 579:Generated_Source\PSoC4/CyDMA.c **** }
 934              		.loc 1 579 0
 935 0038 BD46     		mov	sp, r7
 936 003a 02B0     		add	sp, sp, #8
 937              		@ sp needed
 938 003c 80BD     		pop	{r7, pc}
 939              	.L91:
 940 003e C046     		.align	2
 941              	.L90:
 942 0040 80101040 		.word	1074794624
 943              		.cfi_endproc
 944              	.LFE20:
 945              		.size	CyDmaChDisable, .-CyDmaChDisable
 946              		.section	.text.CyDmaTrigger,"ax",%progbits
 947              		.align	2
 948              		.global	CyDmaTrigger
 949              		.code	16
 950              		.thumb_func
 951              		.type	CyDmaTrigger, %function
 952              	CyDmaTrigger:
 953              	.LFB21:
 580:Generated_Source\PSoC4/CyDMA.c **** 
 581:Generated_Source\PSoC4/CyDMA.c **** 
 582:Generated_Source\PSoC4/CyDMA.c **** /*******************************************************************************
 583:Generated_Source\PSoC4/CyDMA.c **** * Function Name: CyDmaTrigger
 584:Generated_Source\PSoC4/CyDMA.c **** ********************************************************************************
ARM GAS  C:\Users\fneves\AppData\Local\Temp\ccoNsDRu.s 			page 28


 585:Generated_Source\PSoC4/CyDMA.c **** *
 586:Generated_Source\PSoC4/CyDMA.c **** * Summary:
 587:Generated_Source\PSoC4/CyDMA.c **** *  Triggers the DMA channel, this is useful only for software triggers. This is
 588:Generated_Source\PSoC4/CyDMA.c **** *  not needed when hardware triggers are used.
 589:Generated_Source\PSoC4/CyDMA.c **** *
 590:Generated_Source\PSoC4/CyDMA.c **** * Parameters:
 591:Generated_Source\PSoC4/CyDMA.c **** *  channel: Channel used by this function.
 592:Generated_Source\PSoC4/CyDMA.c **** *                   
 593:Generated_Source\PSoC4/CyDMA.c **** * Return:
 594:Generated_Source\PSoC4/CyDMA.c **** *  None. 
 595:Generated_Source\PSoC4/CyDMA.c **** *
 596:Generated_Source\PSoC4/CyDMA.c **** *******************************************************************************/
 597:Generated_Source\PSoC4/CyDMA.c **** void CyDmaTrigger(int32 channel)
 598:Generated_Source\PSoC4/CyDMA.c **** {
 954              		.loc 1 598 0
 955              		.cfi_startproc
 956 0000 80B5     		push	{r7, lr}
 957              		.cfi_def_cfa_offset 8
 958              		.cfi_offset 7, -8
 959              		.cfi_offset 14, -4
 960 0002 82B0     		sub	sp, sp, #8
 961              		.cfi_def_cfa_offset 16
 962 0004 00AF     		add	r7, sp, #0
 963              		.cfi_def_cfa_register 7
 964 0006 7860     		str	r0, [r7, #4]
 599:Generated_Source\PSoC4/CyDMA.c ****     /* The LUT is device-dependent, thus it is generated during the build process. */
 600:Generated_Source\PSoC4/CyDMA.c ****     static const uint32 trCtlLut[] = {0xC0020000U};
 601:Generated_Source\PSoC4/CyDMA.c **** 
 602:Generated_Source\PSoC4/CyDMA.c ****     CYASSERT((channel >= 0) && (channel < CYDMA_CH_NR));
 965              		.loc 1 602 0
 966 0008 7B68     		ldr	r3, [r7, #4]
 967 000a 002B     		cmp	r3, #0
 968 000c 04DB     		blt	.L93
 969              		.loc 1 602 0 is_stmt 0 discriminator 1
 970 000e 7B68     		ldr	r3, [r7, #4]
 971 0010 072B     		cmp	r3, #7
 972 0012 01DC     		bgt	.L93
 973              		.loc 1 602 0 discriminator 3
 974 0014 0123     		mov	r3, #1
 975 0016 00E0     		b	.L94
 976              	.L93:
 977              		.loc 1 602 0 discriminator 4
 978 0018 0023     		mov	r3, #0
 979              	.L94:
 980              		.loc 1 602 0 discriminator 6
 981 001a 002B     		cmp	r3, #0
 982 001c 02D1     		bne	.L95
 983              		.loc 1 602 0 discriminator 7
 984 001e 0020     		mov	r0, #0
 985 0020 FFF7FEFF 		bl	CyHalt
 986              	.L95:
 603:Generated_Source\PSoC4/CyDMA.c **** 
 604:Generated_Source\PSoC4/CyDMA.c ****     CYDMA_TR_CTL_REG = trCtlLut[(uint32)channel >> CYDMA_TR_GROUP_SHR] | ((uint32)channel & CYDMA_T
 987              		.loc 1 604 0 is_stmt 1
 988 0024 044B     		ldr	r3, .L96
 989 0026 0549     		ldr	r1, .L96+4
 990 0028 7A68     		ldr	r2, [r7, #4]
ARM GAS  C:\Users\fneves\AppData\Local\Temp\ccoNsDRu.s 			page 29


 991 002a 0720     		mov	r0, #7
 992 002c 0240     		and	r2, r0
 993 002e 0A43     		orr	r2, r1
 994 0030 1A60     		str	r2, [r3]
 605:Generated_Source\PSoC4/CyDMA.c **** }
 995              		.loc 1 605 0
 996 0032 BD46     		mov	sp, r7
 997 0034 02B0     		add	sp, sp, #8
 998              		@ sp needed
 999 0036 80BD     		pop	{r7, pc}
 1000              	.L97:
 1001              		.align	2
 1002              	.L96:
 1003 0038 00060040 		.word	1073743360
 1004 003c 000002C0 		.word	-1073610752
 1005              		.cfi_endproc
 1006              	.LFE21:
 1007              		.size	CyDmaTrigger, .-CyDmaTrigger
 1008              		.section	.text.CyDmaSetPriority,"ax",%progbits
 1009              		.align	2
 1010              		.global	CyDmaSetPriority
 1011              		.code	16
 1012              		.thumb_func
 1013              		.type	CyDmaSetPriority, %function
 1014              	CyDmaSetPriority:
 1015              	.LFB22:
 606:Generated_Source\PSoC4/CyDMA.c **** 
 607:Generated_Source\PSoC4/CyDMA.c **** 
 608:Generated_Source\PSoC4/CyDMA.c **** /*******************************************************************************
 609:Generated_Source\PSoC4/CyDMA.c **** * Function Name: CyDmaSetPriority
 610:Generated_Source\PSoC4/CyDMA.c **** ********************************************************************************
 611:Generated_Source\PSoC4/CyDMA.c **** *
 612:Generated_Source\PSoC4/CyDMA.c **** * Summary:
 613:Generated_Source\PSoC4/CyDMA.c **** *  Sets the priority for the channel.
 614:Generated_Source\PSoC4/CyDMA.c **** *
 615:Generated_Source\PSoC4/CyDMA.c **** * Parameters:
 616:Generated_Source\PSoC4/CyDMA.c **** *  channel:  Channel used by this function
 617:Generated_Source\PSoC4/CyDMA.c **** *  priority: Priority for channel. Priority can be 0,1,2, or 3.
 618:Generated_Source\PSoC4/CyDMA.c **** *            0 is the highest priority.
 619:Generated_Source\PSoC4/CyDMA.c **** *                   
 620:Generated_Source\PSoC4/CyDMA.c **** * Return:
 621:Generated_Source\PSoC4/CyDMA.c **** *  None.
 622:Generated_Source\PSoC4/CyDMA.c **** *
 623:Generated_Source\PSoC4/CyDMA.c **** * Side effect:
 624:Generated_Source\PSoC4/CyDMA.c **** *  This function should not be called while the channel is enabled.
 625:Generated_Source\PSoC4/CyDMA.c **** *
 626:Generated_Source\PSoC4/CyDMA.c **** *******************************************************************************/
 627:Generated_Source\PSoC4/CyDMA.c **** void CyDmaSetPriority(int32 channel, int32 priority)
 628:Generated_Source\PSoC4/CyDMA.c **** {
 1016              		.loc 1 628 0
 1017              		.cfi_startproc
 1018 0000 80B5     		push	{r7, lr}
 1019              		.cfi_def_cfa_offset 8
 1020              		.cfi_offset 7, -8
 1021              		.cfi_offset 14, -4
 1022 0002 84B0     		sub	sp, sp, #16
 1023              		.cfi_def_cfa_offset 24
ARM GAS  C:\Users\fneves\AppData\Local\Temp\ccoNsDRu.s 			page 30


 1024 0004 00AF     		add	r7, sp, #0
 1025              		.cfi_def_cfa_register 7
 1026 0006 7860     		str	r0, [r7, #4]
 1027 0008 3960     		str	r1, [r7]
 629:Generated_Source\PSoC4/CyDMA.c ****     uint32 regValue;
 630:Generated_Source\PSoC4/CyDMA.c **** 
 631:Generated_Source\PSoC4/CyDMA.c ****     CYASSERT((channel  >= 0) && (channel  <  CYDMA_CH_NR));
 1028              		.loc 1 631 0
 1029 000a 7B68     		ldr	r3, [r7, #4]
 1030 000c 002B     		cmp	r3, #0
 1031 000e 04DB     		blt	.L99
 1032              		.loc 1 631 0 is_stmt 0 discriminator 1
 1033 0010 7B68     		ldr	r3, [r7, #4]
 1034 0012 072B     		cmp	r3, #7
 1035 0014 01DC     		bgt	.L99
 1036              		.loc 1 631 0 discriminator 3
 1037 0016 0123     		mov	r3, #1
 1038 0018 00E0     		b	.L100
 1039              	.L99:
 1040              		.loc 1 631 0 discriminator 4
 1041 001a 0023     		mov	r3, #0
 1042              	.L100:
 1043              		.loc 1 631 0 discriminator 6
 1044 001c 002B     		cmp	r3, #0
 1045 001e 02D1     		bne	.L101
 1046              		.loc 1 631 0 discriminator 7
 1047 0020 0020     		mov	r0, #0
 1048 0022 FFF7FEFF 		bl	CyHalt
 1049              	.L101:
 632:Generated_Source\PSoC4/CyDMA.c ****     CYASSERT((priority >= 0) && (priority <= CY_DMA_MAX_PRIO));
 1050              		.loc 1 632 0 is_stmt 1
 1051 0026 3B68     		ldr	r3, [r7]
 1052 0028 002B     		cmp	r3, #0
 1053 002a 04DB     		blt	.L102
 1054              		.loc 1 632 0 is_stmt 0 discriminator 1
 1055 002c 3B68     		ldr	r3, [r7]
 1056 002e 032B     		cmp	r3, #3
 1057 0030 01DC     		bgt	.L102
 1058              		.loc 1 632 0 discriminator 3
 1059 0032 0123     		mov	r3, #1
 1060 0034 00E0     		b	.L103
 1061              	.L102:
 1062              		.loc 1 632 0 discriminator 4
 1063 0036 0023     		mov	r3, #0
 1064              	.L103:
 1065              		.loc 1 632 0 discriminator 6
 1066 0038 002B     		cmp	r3, #0
 1067 003a 02D1     		bne	.L104
 1068              		.loc 1 632 0 discriminator 7
 1069 003c 0020     		mov	r0, #0
 1070 003e FFF7FEFF 		bl	CyHalt
 1071              	.L104:
 633:Generated_Source\PSoC4/CyDMA.c **** 
 634:Generated_Source\PSoC4/CyDMA.c ****     regValue = CYDMA_CH_CTL_BASE.ctl[channel] & (uint32)~CYDMA_PRIO;
 1072              		.loc 1 634 0 is_stmt 1
 1073 0042 094A     		ldr	r2, .L105
 1074 0044 7B68     		ldr	r3, [r7, #4]
ARM GAS  C:\Users\fneves\AppData\Local\Temp\ccoNsDRu.s 			page 31


 1075 0046 9B00     		lsl	r3, r3, #2
 1076 0048 9B58     		ldr	r3, [r3, r2]
 1077 004a 084A     		ldr	r2, .L105+4
 1078 004c 1340     		and	r3, r2
 1079 004e FB60     		str	r3, [r7, #12]
 635:Generated_Source\PSoC4/CyDMA.c ****     CYDMA_CH_CTL_BASE.ctl[channel] = regValue | (uint32)((uint32)priority << CYDMA_PRIO_POS);
 1080              		.loc 1 635 0
 1081 0050 0549     		ldr	r1, .L105
 1082 0052 3B68     		ldr	r3, [r7]
 1083 0054 1A07     		lsl	r2, r3, #28
 1084 0056 FB68     		ldr	r3, [r7, #12]
 1085 0058 1A43     		orr	r2, r3
 1086 005a 7B68     		ldr	r3, [r7, #4]
 1087 005c 9B00     		lsl	r3, r3, #2
 1088 005e 5A50     		str	r2, [r3, r1]
 636:Generated_Source\PSoC4/CyDMA.c **** }
 1089              		.loc 1 636 0
 1090 0060 BD46     		mov	sp, r7
 1091 0062 04B0     		add	sp, sp, #16
 1092              		@ sp needed
 1093 0064 80BD     		pop	{r7, pc}
 1094              	.L106:
 1095 0066 C046     		.align	2
 1096              	.L105:
 1097 0068 80101040 		.word	1074794624
 1098 006c FFFFFFCF 		.word	-805306369
 1099              		.cfi_endproc
 1100              	.LFE22:
 1101              		.size	CyDmaSetPriority, .-CyDmaSetPriority
 1102              		.section	.text.CyDmaGetPriority,"ax",%progbits
 1103              		.align	2
 1104              		.global	CyDmaGetPriority
 1105              		.code	16
 1106              		.thumb_func
 1107              		.type	CyDmaGetPriority, %function
 1108              	CyDmaGetPriority:
 1109              	.LFB23:
 637:Generated_Source\PSoC4/CyDMA.c **** 
 638:Generated_Source\PSoC4/CyDMA.c **** 
 639:Generated_Source\PSoC4/CyDMA.c **** /*******************************************************************************
 640:Generated_Source\PSoC4/CyDMA.c **** * Function Name: CyDmaGetPriority
 641:Generated_Source\PSoC4/CyDMA.c **** ********************************************************************************
 642:Generated_Source\PSoC4/CyDMA.c **** *
 643:Generated_Source\PSoC4/CyDMA.c **** * Summary:
 644:Generated_Source\PSoC4/CyDMA.c **** *  Gets the priority for the channel.
 645:Generated_Source\PSoC4/CyDMA.c **** *
 646:Generated_Source\PSoC4/CyDMA.c **** * Parameters:
 647:Generated_Source\PSoC4/CyDMA.c **** *  channel: Channel used by this function.
 648:Generated_Source\PSoC4/CyDMA.c **** *                   
 649:Generated_Source\PSoC4/CyDMA.c **** * Return:
 650:Generated_Source\PSoC4/CyDMA.c **** *  Priority for channel. Priority can be 0,1,2, or 3. 0 is the highest priority.
 651:Generated_Source\PSoC4/CyDMA.c **** *
 652:Generated_Source\PSoC4/CyDMA.c **** *******************************************************************************/
 653:Generated_Source\PSoC4/CyDMA.c **** int32 CyDmaGetPriority(int32 channel)
 654:Generated_Source\PSoC4/CyDMA.c **** {
 1110              		.loc 1 654 0
 1111              		.cfi_startproc
ARM GAS  C:\Users\fneves\AppData\Local\Temp\ccoNsDRu.s 			page 32


 1112 0000 80B5     		push	{r7, lr}
 1113              		.cfi_def_cfa_offset 8
 1114              		.cfi_offset 7, -8
 1115              		.cfi_offset 14, -4
 1116 0002 84B0     		sub	sp, sp, #16
 1117              		.cfi_def_cfa_offset 24
 1118 0004 00AF     		add	r7, sp, #0
 1119              		.cfi_def_cfa_register 7
 1120 0006 7860     		str	r0, [r7, #4]
 655:Generated_Source\PSoC4/CyDMA.c ****     uint32 priority;
 656:Generated_Source\PSoC4/CyDMA.c **** 
 657:Generated_Source\PSoC4/CyDMA.c ****     CYASSERT((channel >= 0) && (channel < CYDMA_CH_NR));
 1121              		.loc 1 657 0
 1122 0008 7B68     		ldr	r3, [r7, #4]
 1123 000a 002B     		cmp	r3, #0
 1124 000c 04DB     		blt	.L108
 1125              		.loc 1 657 0 is_stmt 0 discriminator 1
 1126 000e 7B68     		ldr	r3, [r7, #4]
 1127 0010 072B     		cmp	r3, #7
 1128 0012 01DC     		bgt	.L108
 1129              		.loc 1 657 0 discriminator 3
 1130 0014 0123     		mov	r3, #1
 1131 0016 00E0     		b	.L109
 1132              	.L108:
 1133              		.loc 1 657 0 discriminator 4
 1134 0018 0023     		mov	r3, #0
 1135              	.L109:
 1136              		.loc 1 657 0 discriminator 6
 1137 001a 002B     		cmp	r3, #0
 1138 001c 02D1     		bne	.L110
 1139              		.loc 1 657 0 discriminator 7
 1140 001e 0020     		mov	r0, #0
 1141 0020 FFF7FEFF 		bl	CyHalt
 1142              	.L110:
 658:Generated_Source\PSoC4/CyDMA.c **** 
 659:Generated_Source\PSoC4/CyDMA.c ****     priority = (CYDMA_CH_CTL_BASE.ctl[channel] & CYDMA_PRIO) >> CYDMA_PRIO_POS;
 1143              		.loc 1 659 0 is_stmt 1
 1144 0024 064A     		ldr	r2, .L112
 1145 0026 7B68     		ldr	r3, [r7, #4]
 1146 0028 9B00     		lsl	r3, r3, #2
 1147 002a 9A58     		ldr	r2, [r3, r2]
 1148 002c C023     		mov	r3, #192
 1149 002e 9B05     		lsl	r3, r3, #22
 1150 0030 1340     		and	r3, r2
 1151 0032 1B0F     		lsr	r3, r3, #28
 1152 0034 FB60     		str	r3, [r7, #12]
 660:Generated_Source\PSoC4/CyDMA.c ****     return ((int32)priority);
 1153              		.loc 1 660 0
 1154 0036 FB68     		ldr	r3, [r7, #12]
 661:Generated_Source\PSoC4/CyDMA.c **** }
 1155              		.loc 1 661 0
 1156 0038 181C     		mov	r0, r3
 1157 003a BD46     		mov	sp, r7
 1158 003c 04B0     		add	sp, sp, #16
 1159              		@ sp needed
 1160 003e 80BD     		pop	{r7, pc}
 1161              	.L113:
ARM GAS  C:\Users\fneves\AppData\Local\Temp\ccoNsDRu.s 			page 33


 1162              		.align	2
 1163              	.L112:
 1164 0040 80101040 		.word	1074794624
 1165              		.cfi_endproc
 1166              	.LFE23:
 1167              		.size	CyDmaGetPriority, .-CyDmaGetPriority
 1168              		.section	.text.CyDmaSetNextDescriptor,"ax",%progbits
 1169              		.align	2
 1170              		.global	CyDmaSetNextDescriptor
 1171              		.code	16
 1172              		.thumb_func
 1173              		.type	CyDmaSetNextDescriptor, %function
 1174              	CyDmaSetNextDescriptor:
 1175              	.LFB24:
 662:Generated_Source\PSoC4/CyDMA.c **** 
 663:Generated_Source\PSoC4/CyDMA.c **** 
 664:Generated_Source\PSoC4/CyDMA.c **** /*******************************************************************************
 665:Generated_Source\PSoC4/CyDMA.c **** * Function Name: CyDmaSetNextDescriptor
 666:Generated_Source\PSoC4/CyDMA.c **** ********************************************************************************
 667:Generated_Source\PSoC4/CyDMA.c **** *
 668:Generated_Source\PSoC4/CyDMA.c **** * Summary:
 669:Generated_Source\PSoC4/CyDMA.c **** *  Sets the descriptor that should be run the next time the channel is
 670:Generated_Source\PSoC4/CyDMA.c **** *  triggered.
 671:Generated_Source\PSoC4/CyDMA.c **** *
 672:Generated_Source\PSoC4/CyDMA.c **** * Parameters:
 673:Generated_Source\PSoC4/CyDMA.c **** *  channel:    Channel used by this function.
 674:Generated_Source\PSoC4/CyDMA.c **** *  descriptor: Next Descriptor to run (0 or 1).
 675:Generated_Source\PSoC4/CyDMA.c **** *
 676:Generated_Source\PSoC4/CyDMA.c **** * Return:
 677:Generated_Source\PSoC4/CyDMA.c **** *  None.
 678:Generated_Source\PSoC4/CyDMA.c **** *                   
 679:Generated_Source\PSoC4/CyDMA.c **** * Side effect:
 680:Generated_Source\PSoC4/CyDMA.c **** *  This function should not be called while the channel is enabled.
 681:Generated_Source\PSoC4/CyDMA.c **** *
 682:Generated_Source\PSoC4/CyDMA.c **** *******************************************************************************/
 683:Generated_Source\PSoC4/CyDMA.c **** void CyDmaSetNextDescriptor(int32 channel, int32 descriptor)
 684:Generated_Source\PSoC4/CyDMA.c **** {
 1176              		.loc 1 684 0
 1177              		.cfi_startproc
 1178 0000 80B5     		push	{r7, lr}
 1179              		.cfi_def_cfa_offset 8
 1180              		.cfi_offset 7, -8
 1181              		.cfi_offset 14, -4
 1182 0002 84B0     		sub	sp, sp, #16
 1183              		.cfi_def_cfa_offset 24
 1184 0004 00AF     		add	r7, sp, #0
 1185              		.cfi_def_cfa_register 7
 1186 0006 7860     		str	r0, [r7, #4]
 1187 0008 3960     		str	r1, [r7]
 685:Generated_Source\PSoC4/CyDMA.c ****     uint32 regValue;
 686:Generated_Source\PSoC4/CyDMA.c **** 
 687:Generated_Source\PSoC4/CyDMA.c ****     CYASSERT((channel    >= 0) && (channel    < CYDMA_CH_NR));
 1188              		.loc 1 687 0
 1189 000a 7B68     		ldr	r3, [r7, #4]
 1190 000c 002B     		cmp	r3, #0
 1191 000e 04DB     		blt	.L115
 1192              		.loc 1 687 0 is_stmt 0 discriminator 1
ARM GAS  C:\Users\fneves\AppData\Local\Temp\ccoNsDRu.s 			page 34


 1193 0010 7B68     		ldr	r3, [r7, #4]
 1194 0012 072B     		cmp	r3, #7
 1195 0014 01DC     		bgt	.L115
 1196              		.loc 1 687 0 discriminator 3
 1197 0016 0123     		mov	r3, #1
 1198 0018 00E0     		b	.L116
 1199              	.L115:
 1200              		.loc 1 687 0 discriminator 4
 1201 001a 0023     		mov	r3, #0
 1202              	.L116:
 1203              		.loc 1 687 0 discriminator 6
 1204 001c 002B     		cmp	r3, #0
 1205 001e 02D1     		bne	.L117
 1206              		.loc 1 687 0 discriminator 7
 1207 0020 0020     		mov	r0, #0
 1208 0022 FFF7FEFF 		bl	CyHalt
 1209              	.L117:
 688:Generated_Source\PSoC4/CyDMA.c ****     CYASSERT((descriptor >= 0) && (descriptor < CYDMA_DESCR_NR));
 1210              		.loc 1 688 0 is_stmt 1
 1211 0026 3B68     		ldr	r3, [r7]
 1212 0028 002B     		cmp	r3, #0
 1213 002a 04DB     		blt	.L118
 1214              		.loc 1 688 0 is_stmt 0 discriminator 1
 1215 002c 3B68     		ldr	r3, [r7]
 1216 002e 012B     		cmp	r3, #1
 1217 0030 01DC     		bgt	.L118
 1218              		.loc 1 688 0 discriminator 3
 1219 0032 0123     		mov	r3, #1
 1220 0034 00E0     		b	.L119
 1221              	.L118:
 1222              		.loc 1 688 0 discriminator 4
 1223 0036 0023     		mov	r3, #0
 1224              	.L119:
 1225              		.loc 1 688 0 discriminator 6
 1226 0038 002B     		cmp	r3, #0
 1227 003a 02D1     		bne	.L120
 1228              		.loc 1 688 0 discriminator 7
 1229 003c 0020     		mov	r0, #0
 1230 003e FFF7FEFF 		bl	CyHalt
 1231              	.L120:
 689:Generated_Source\PSoC4/CyDMA.c **** 
 690:Generated_Source\PSoC4/CyDMA.c ****     regValue = CYDMA_CH_CTL_BASE.ctl[channel] & (uint32)~CYDMA_DESCRIPTOR;
 1232              		.loc 1 690 0 is_stmt 1
 1233 0042 094A     		ldr	r2, .L121
 1234 0044 7B68     		ldr	r3, [r7, #4]
 1235 0046 9B00     		lsl	r3, r3, #2
 1236 0048 9B58     		ldr	r3, [r3, r2]
 1237 004a 084A     		ldr	r2, .L121+4
 1238 004c 1340     		and	r3, r2
 1239 004e FB60     		str	r3, [r7, #12]
 691:Generated_Source\PSoC4/CyDMA.c ****     CYDMA_CH_CTL_BASE.ctl[channel] = regValue | (uint32)((uint32)descriptor << CYDMA_DESCRIPTOR_POS
 1240              		.loc 1 691 0
 1241 0050 0549     		ldr	r1, .L121
 1242 0052 3B68     		ldr	r3, [r7]
 1243 0054 9A07     		lsl	r2, r3, #30
 1244 0056 FB68     		ldr	r3, [r7, #12]
 1245 0058 1A43     		orr	r2, r3
ARM GAS  C:\Users\fneves\AppData\Local\Temp\ccoNsDRu.s 			page 35


 1246 005a 7B68     		ldr	r3, [r7, #4]
 1247 005c 9B00     		lsl	r3, r3, #2
 1248 005e 5A50     		str	r2, [r3, r1]
 692:Generated_Source\PSoC4/CyDMA.c **** }
 1249              		.loc 1 692 0
 1250 0060 BD46     		mov	sp, r7
 1251 0062 04B0     		add	sp, sp, #16
 1252              		@ sp needed
 1253 0064 80BD     		pop	{r7, pc}
 1254              	.L122:
 1255 0066 C046     		.align	2
 1256              	.L121:
 1257 0068 80101040 		.word	1074794624
 1258 006c FFFFFFBF 		.word	-1073741825
 1259              		.cfi_endproc
 1260              	.LFE24:
 1261              		.size	CyDmaSetNextDescriptor, .-CyDmaSetNextDescriptor
 1262              		.section	.text.CyDmaGetNextDescriptor,"ax",%progbits
 1263              		.align	2
 1264              		.global	CyDmaGetNextDescriptor
 1265              		.code	16
 1266              		.thumb_func
 1267              		.type	CyDmaGetNextDescriptor, %function
 1268              	CyDmaGetNextDescriptor:
 1269              	.LFB25:
 693:Generated_Source\PSoC4/CyDMA.c **** 
 694:Generated_Source\PSoC4/CyDMA.c **** 
 695:Generated_Source\PSoC4/CyDMA.c **** /*******************************************************************************
 696:Generated_Source\PSoC4/CyDMA.c **** * Function Name: CyDmaGetNextDescriptor
 697:Generated_Source\PSoC4/CyDMA.c **** ********************************************************************************
 698:Generated_Source\PSoC4/CyDMA.c **** *
 699:Generated_Source\PSoC4/CyDMA.c **** * Summary:
 700:Generated_Source\PSoC4/CyDMA.c **** *  Returns the next descriptor that should be run, as set by 
 701:Generated_Source\PSoC4/CyDMA.c **** *  CyDmaSetNextDescriptor().
 702:Generated_Source\PSoC4/CyDMA.c **** *
 703:Generated_Source\PSoC4/CyDMA.c **** * Parameters:
 704:Generated_Source\PSoC4/CyDMA.c **** *  channel: channel used by this function.
 705:Generated_Source\PSoC4/CyDMA.c **** *                   
 706:Generated_Source\PSoC4/CyDMA.c **** * Return:
 707:Generated_Source\PSoC4/CyDMA.c **** *  Next Descriptor to run (0 or 1).
 708:Generated_Source\PSoC4/CyDMA.c **** *
 709:Generated_Source\PSoC4/CyDMA.c **** *******************************************************************************/
 710:Generated_Source\PSoC4/CyDMA.c **** int32 CyDmaGetNextDescriptor(int32 channel)
 711:Generated_Source\PSoC4/CyDMA.c **** {
 1270              		.loc 1 711 0
 1271              		.cfi_startproc
 1272 0000 80B5     		push	{r7, lr}
 1273              		.cfi_def_cfa_offset 8
 1274              		.cfi_offset 7, -8
 1275              		.cfi_offset 14, -4
 1276 0002 84B0     		sub	sp, sp, #16
 1277              		.cfi_def_cfa_offset 24
 1278 0004 00AF     		add	r7, sp, #0
 1279              		.cfi_def_cfa_register 7
 1280 0006 7860     		str	r0, [r7, #4]
 712:Generated_Source\PSoC4/CyDMA.c ****     uint32 nextDescriptor;
 713:Generated_Source\PSoC4/CyDMA.c **** 
ARM GAS  C:\Users\fneves\AppData\Local\Temp\ccoNsDRu.s 			page 36


 714:Generated_Source\PSoC4/CyDMA.c ****     CYASSERT((channel >= 0) && (channel < CYDMA_CH_NR));
 1281              		.loc 1 714 0
 1282 0008 7B68     		ldr	r3, [r7, #4]
 1283 000a 002B     		cmp	r3, #0
 1284 000c 04DB     		blt	.L124
 1285              		.loc 1 714 0 is_stmt 0 discriminator 1
 1286 000e 7B68     		ldr	r3, [r7, #4]
 1287 0010 072B     		cmp	r3, #7
 1288 0012 01DC     		bgt	.L124
 1289              		.loc 1 714 0 discriminator 3
 1290 0014 0123     		mov	r3, #1
 1291 0016 00E0     		b	.L125
 1292              	.L124:
 1293              		.loc 1 714 0 discriminator 4
 1294 0018 0023     		mov	r3, #0
 1295              	.L125:
 1296              		.loc 1 714 0 discriminator 6
 1297 001a 002B     		cmp	r3, #0
 1298 001c 02D1     		bne	.L126
 1299              		.loc 1 714 0 discriminator 7
 1300 001e 0020     		mov	r0, #0
 1301 0020 FFF7FEFF 		bl	CyHalt
 1302              	.L126:
 715:Generated_Source\PSoC4/CyDMA.c **** 
 716:Generated_Source\PSoC4/CyDMA.c ****     nextDescriptor = (CYDMA_CH_CTL_BASE.ctl[channel] & CYDMA_DESCRIPTOR) >> CYDMA_DESCRIPTOR_POS;
 1303              		.loc 1 716 0 is_stmt 1
 1304 0024 064A     		ldr	r2, .L128
 1305 0026 7B68     		ldr	r3, [r7, #4]
 1306 0028 9B00     		lsl	r3, r3, #2
 1307 002a 9A58     		ldr	r2, [r3, r2]
 1308 002c 8023     		mov	r3, #128
 1309 002e DB05     		lsl	r3, r3, #23
 1310 0030 1340     		and	r3, r2
 1311 0032 9B0F     		lsr	r3, r3, #30
 1312 0034 FB60     		str	r3, [r7, #12]
 717:Generated_Source\PSoC4/CyDMA.c ****     return ((int32)nextDescriptor);
 1313              		.loc 1 717 0
 1314 0036 FB68     		ldr	r3, [r7, #12]
 718:Generated_Source\PSoC4/CyDMA.c **** }
 1315              		.loc 1 718 0
 1316 0038 181C     		mov	r0, r3
 1317 003a BD46     		mov	sp, r7
 1318 003c 04B0     		add	sp, sp, #16
 1319              		@ sp needed
 1320 003e 80BD     		pop	{r7, pc}
 1321              	.L129:
 1322              		.align	2
 1323              	.L128:
 1324 0040 80101040 		.word	1074794624
 1325              		.cfi_endproc
 1326              	.LFE25:
 1327              		.size	CyDmaGetNextDescriptor, .-CyDmaGetNextDescriptor
 1328              		.section	.text.CyDmaSetConfiguration,"ax",%progbits
 1329              		.align	2
 1330              		.global	CyDmaSetConfiguration
 1331              		.code	16
 1332              		.thumb_func
ARM GAS  C:\Users\fneves\AppData\Local\Temp\ccoNsDRu.s 			page 37


 1333              		.type	CyDmaSetConfiguration, %function
 1334              	CyDmaSetConfiguration:
 1335              	.LFB26:
 719:Generated_Source\PSoC4/CyDMA.c **** 
 720:Generated_Source\PSoC4/CyDMA.c **** 
 721:Generated_Source\PSoC4/CyDMA.c **** /*******************************************************************************
 722:Generated_Source\PSoC4/CyDMA.c **** * Function Name: CyDmaSetConfiguration
 723:Generated_Source\PSoC4/CyDMA.c **** ********************************************************************************
 724:Generated_Source\PSoC4/CyDMA.c **** *
 725:Generated_Source\PSoC4/CyDMA.c **** * Summary:
 726:Generated_Source\PSoC4/CyDMA.c **** *  Sets configuration information for the specified descriptor.
 727:Generated_Source\PSoC4/CyDMA.c **** *
 728:Generated_Source\PSoC4/CyDMA.c **** * Parameters:
 729:Generated_Source\PSoC4/CyDMA.c **** *  channel:    DMA channel modified by this function.
 730:Generated_Source\PSoC4/CyDMA.c **** *  descriptor: Descriptor (0 or 1) modified by this function.
 731:Generated_Source\PSoC4/CyDMA.c **** *  config:     Pointer to a configuration structure. Refer to cydma_init_struct
 732:Generated_Source\PSoC4/CyDMA.c **** *              structure definition in CyDMA_P4.h and/or DMA channel datasheet
 733:Generated_Source\PSoC4/CyDMA.c **** *              for more information.
 734:Generated_Source\PSoC4/CyDMA.c **** *                   
 735:Generated_Source\PSoC4/CyDMA.c **** * Return:
 736:Generated_Source\PSoC4/CyDMA.c **** *  None.
 737:Generated_Source\PSoC4/CyDMA.c **** *
 738:Generated_Source\PSoC4/CyDMA.c **** * Side effect:
 739:Generated_Source\PSoC4/CyDMA.c **** *  The status register associated with the specified descriptor is reset to
 740:Generated_Source\PSoC4/CyDMA.c **** *  zero after this function call. This function also validates the descriptor.
 741:Generated_Source\PSoC4/CyDMA.c **** *  This function should not be called while the descriptor is active.
 742:Generated_Source\PSoC4/CyDMA.c **** *  This can be checked by calling CyDmaGetStatus().
 743:Generated_Source\PSoC4/CyDMA.c **** *
 744:Generated_Source\PSoC4/CyDMA.c **** *******************************************************************************/
 745:Generated_Source\PSoC4/CyDMA.c **** void CyDmaSetConfiguration(int32 channel, int32 descriptor, const cydma_init_struct * config)
 746:Generated_Source\PSoC4/CyDMA.c **** {  
 1336              		.loc 1 746 0
 1337              		.cfi_startproc
 1338 0000 80B5     		push	{r7, lr}
 1339              		.cfi_def_cfa_offset 8
 1340              		.cfi_offset 7, -8
 1341              		.cfi_offset 14, -4
 1342 0002 84B0     		sub	sp, sp, #16
 1343              		.cfi_def_cfa_offset 24
 1344 0004 00AF     		add	r7, sp, #0
 1345              		.cfi_def_cfa_register 7
 1346 0006 F860     		str	r0, [r7, #12]
 1347 0008 B960     		str	r1, [r7, #8]
 1348 000a 7A60     		str	r2, [r7, #4]
 747:Generated_Source\PSoC4/CyDMA.c ****     CYASSERT((channel        >= 0) && (channel         < CYDMA_CH_NR));
 1349              		.loc 1 747 0
 1350 000c FB68     		ldr	r3, [r7, #12]
 1351 000e 002B     		cmp	r3, #0
 1352 0010 04DB     		blt	.L131
 1353              		.loc 1 747 0 is_stmt 0 discriminator 1
 1354 0012 FB68     		ldr	r3, [r7, #12]
 1355 0014 072B     		cmp	r3, #7
 1356 0016 01DC     		bgt	.L131
 1357              		.loc 1 747 0 discriminator 3
 1358 0018 0123     		mov	r3, #1
 1359 001a 00E0     		b	.L132
 1360              	.L131:
ARM GAS  C:\Users\fneves\AppData\Local\Temp\ccoNsDRu.s 			page 38


 1361              		.loc 1 747 0 discriminator 4
 1362 001c 0023     		mov	r3, #0
 1363              	.L132:
 1364              		.loc 1 747 0 discriminator 6
 1365 001e 002B     		cmp	r3, #0
 1366 0020 02D1     		bne	.L133
 1367              		.loc 1 747 0 discriminator 7
 1368 0022 0020     		mov	r0, #0
 1369 0024 FFF7FEFF 		bl	CyHalt
 1370              	.L133:
 748:Generated_Source\PSoC4/CyDMA.c ****     CYASSERT((descriptor     >= 0) && (descriptor      < CYDMA_DESCR_NR));
 1371              		.loc 1 748 0 is_stmt 1
 1372 0028 BB68     		ldr	r3, [r7, #8]
 1373 002a 002B     		cmp	r3, #0
 1374 002c 04DB     		blt	.L134
 1375              		.loc 1 748 0 is_stmt 0 discriminator 1
 1376 002e BB68     		ldr	r3, [r7, #8]
 1377 0030 012B     		cmp	r3, #1
 1378 0032 01DC     		bgt	.L134
 1379              		.loc 1 748 0 discriminator 3
 1380 0034 0123     		mov	r3, #1
 1381 0036 00E0     		b	.L135
 1382              	.L134:
 1383              		.loc 1 748 0 discriminator 4
 1384 0038 0023     		mov	r3, #0
 1385              	.L135:
 1386              		.loc 1 748 0 discriminator 6
 1387 003a 002B     		cmp	r3, #0
 1388 003c 02D1     		bne	.L136
 1389              		.loc 1 748 0 discriminator 7
 1390 003e 0020     		mov	r0, #0
 1391 0040 FFF7FEFF 		bl	CyHalt
 1392              	.L136:
 749:Generated_Source\PSoC4/CyDMA.c **** 
 750:Generated_Source\PSoC4/CyDMA.c ****     CYASSERT(0u == (config->dataElementSize     & (uint32)~CYDMA_DATA_SIZE));   
 1393              		.loc 1 750 0 is_stmt 1
 1394 0044 7B68     		ldr	r3, [r7, #4]
 1395 0046 1B68     		ldr	r3, [r3]
 1396 0048 3B4A     		ldr	r2, .L147
 1397 004a 1340     		and	r3, r2
 1398 004c 02D0     		beq	.L137
 1399              		.loc 1 750 0 is_stmt 0 discriminator 1
 1400 004e 0020     		mov	r0, #0
 1401 0050 FFF7FEFF 		bl	CyHalt
 1402              	.L137:
 751:Generated_Source\PSoC4/CyDMA.c ****     CYASSERT((config->numDataElements > 0)     && (config->numDataElements <= CYDMA_MAX_DATA_NR));
 1403              		.loc 1 751 0 is_stmt 1
 1404 0054 7B68     		ldr	r3, [r7, #4]
 1405 0056 5B68     		ldr	r3, [r3, #4]
 1406 0058 002B     		cmp	r3, #0
 1407 005a 07DD     		ble	.L138
 1408              		.loc 1 751 0 is_stmt 0 discriminator 1
 1409 005c 7B68     		ldr	r3, [r7, #4]
 1410 005e 5A68     		ldr	r2, [r3, #4]
 1411 0060 8023     		mov	r3, #128
 1412 0062 5B02     		lsl	r3, r3, #9
 1413 0064 9A42     		cmp	r2, r3
ARM GAS  C:\Users\fneves\AppData\Local\Temp\ccoNsDRu.s 			page 39


 1414 0066 01DC     		bgt	.L138
 1415              		.loc 1 751 0 discriminator 3
 1416 0068 0123     		mov	r3, #1
 1417 006a 00E0     		b	.L139
 1418              	.L138:
 1419              		.loc 1 751 0 discriminator 4
 1420 006c 0023     		mov	r3, #0
 1421              	.L139:
 1422              		.loc 1 751 0 discriminator 6
 1423 006e 002B     		cmp	r3, #0
 1424 0070 02D1     		bne	.L140
 1425              		.loc 1 751 0 discriminator 7
 1426 0072 0020     		mov	r0, #0
 1427 0074 FFF7FEFF 		bl	CyHalt
 1428              	.L140:
 752:Generated_Source\PSoC4/CyDMA.c ****     CYASSERT(0u == (config->srcDstTransferWidth & (uint32)~CYDMA_TRANSFER_WIDTH));
 1429              		.loc 1 752 0 is_stmt 1
 1430 0078 7B68     		ldr	r3, [r7, #4]
 1431 007a 9B68     		ldr	r3, [r3, #8]
 1432 007c 2F4A     		ldr	r2, .L147+4
 1433 007e 1340     		and	r3, r2
 1434 0080 02D0     		beq	.L141
 1435              		.loc 1 752 0 is_stmt 0 discriminator 1
 1436 0082 0020     		mov	r0, #0
 1437 0084 FFF7FEFF 		bl	CyHalt
 1438              	.L141:
 753:Generated_Source\PSoC4/CyDMA.c ****     CYASSERT(0u == (config->addressIncrement    & (uint32)~CYDMA_ADDR_INCR));
 1439              		.loc 1 753 0 is_stmt 1
 1440 0088 7B68     		ldr	r3, [r7, #4]
 1441 008a DB68     		ldr	r3, [r3, #12]
 1442 008c 2C4A     		ldr	r2, .L147+8
 1443 008e 1340     		and	r3, r2
 1444 0090 02D0     		beq	.L142
 1445              		.loc 1 753 0 is_stmt 0 discriminator 1
 1446 0092 0020     		mov	r0, #0
 1447 0094 FFF7FEFF 		bl	CyHalt
 1448              	.L142:
 754:Generated_Source\PSoC4/CyDMA.c ****     CYASSERT(0u == (config->triggerType         & (uint32)~CYDMA_TRIGGER_TYPE));
 1449              		.loc 1 754 0 is_stmt 1
 1450 0098 7B68     		ldr	r3, [r7, #4]
 1451 009a 1B69     		ldr	r3, [r3, #16]
 1452 009c 294A     		ldr	r2, .L147+12
 1453 009e 1340     		and	r3, r2
 1454 00a0 02D0     		beq	.L143
 1455              		.loc 1 754 0 is_stmt 0 discriminator 1
 1456 00a2 0020     		mov	r0, #0
 1457 00a4 FFF7FEFF 		bl	CyHalt
 1458              	.L143:
 755:Generated_Source\PSoC4/CyDMA.c ****     CYASSERT(0u == (config->transferMode        & (uint32)~CYDMA_TRANSFER_MODE));
 1459              		.loc 1 755 0 is_stmt 1
 1460 00a8 7B68     		ldr	r3, [r7, #4]
 1461 00aa 5B69     		ldr	r3, [r3, #20]
 1462 00ac 9B00     		lsl	r3, r3, #2
 1463 00ae 9B08     		lsr	r3, r3, #2
 1464 00b0 02D0     		beq	.L144
 1465              		.loc 1 755 0 is_stmt 0 discriminator 1
 1466 00b2 0020     		mov	r0, #0
ARM GAS  C:\Users\fneves\AppData\Local\Temp\ccoNsDRu.s 			page 40


 1467 00b4 FFF7FEFF 		bl	CyHalt
 1468              	.L144:
 756:Generated_Source\PSoC4/CyDMA.c ****     CYASSERT(0u == (config->preemptable         & (uint32)~CYDMA_PREEMPTABLE));
 1469              		.loc 1 756 0 is_stmt 1
 1470 00b8 7B68     		ldr	r3, [r7, #4]
 1471 00ba 9B69     		ldr	r3, [r3, #24]
 1472 00bc 224A     		ldr	r2, .L147+16
 1473 00be 1340     		and	r3, r2
 1474 00c0 02D0     		beq	.L145
 1475              		.loc 1 756 0 is_stmt 0 discriminator 1
 1476 00c2 0020     		mov	r0, #0
 1477 00c4 FFF7FEFF 		bl	CyHalt
 1478              	.L145:
 757:Generated_Source\PSoC4/CyDMA.c ****     CYASSERT(0u == (config->actions             & (uint32)~CYDMA_POST_COMPLETE_ACTIONS));
 1479              		.loc 1 757 0 is_stmt 1
 1480 00c8 7B68     		ldr	r3, [r7, #4]
 1481 00ca DB69     		ldr	r3, [r3, #28]
 1482 00cc 1F4A     		ldr	r2, .L147+20
 1483 00ce 1340     		and	r3, r2
 1484 00d0 02D0     		beq	.L146
 1485              		.loc 1 757 0 is_stmt 0 discriminator 1
 1486 00d2 0020     		mov	r0, #0
 1487 00d4 FFF7FEFF 		bl	CyHalt
 1488              	.L146:
 758:Generated_Source\PSoC4/CyDMA.c ****     
 759:Generated_Source\PSoC4/CyDMA.c ****     CYDMA_DESCR_BASE.descriptor[channel][descriptor].ctl = config->dataElementSize     |
 1489              		.loc 1 759 0 is_stmt 1
 1490 00d8 1D48     		ldr	r0, .L147+24
 1491 00da 7B68     		ldr	r3, [r7, #4]
 1492 00dc 1A68     		ldr	r2, [r3]
 760:Generated_Source\PSoC4/CyDMA.c ****                                                   ((uint32)config->numDataElements-1u) |
 1493              		.loc 1 760 0
 1494 00de 7B68     		ldr	r3, [r7, #4]
 1495 00e0 5B68     		ldr	r3, [r3, #4]
 1496 00e2 013B     		sub	r3, r3, #1
 759:Generated_Source\PSoC4/CyDMA.c ****                                                   ((uint32)config->numDataElements-1u) |
 1497              		.loc 1 759 0
 1498 00e4 1A43     		orr	r2, r3
 761:Generated_Source\PSoC4/CyDMA.c ****                                                            config->srcDstTransferWidth |
 1499              		.loc 1 761 0
 1500 00e6 7B68     		ldr	r3, [r7, #4]
 1501 00e8 9B68     		ldr	r3, [r3, #8]
 760:Generated_Source\PSoC4/CyDMA.c ****                                                   ((uint32)config->numDataElements-1u) |
 1502              		.loc 1 760 0
 1503 00ea 1A43     		orr	r2, r3
 762:Generated_Source\PSoC4/CyDMA.c ****                                                            config->addressIncrement    |
 1504              		.loc 1 762 0
 1505 00ec 7B68     		ldr	r3, [r7, #4]
 1506 00ee DB68     		ldr	r3, [r3, #12]
 761:Generated_Source\PSoC4/CyDMA.c ****                                                            config->srcDstTransferWidth |
 1507              		.loc 1 761 0
 1508 00f0 1A43     		orr	r2, r3
 763:Generated_Source\PSoC4/CyDMA.c ****                                                            config->triggerType         |
 1509              		.loc 1 763 0
 1510 00f2 7B68     		ldr	r3, [r7, #4]
 1511 00f4 1B69     		ldr	r3, [r3, #16]
 762:Generated_Source\PSoC4/CyDMA.c ****                                                            config->addressIncrement    |
ARM GAS  C:\Users\fneves\AppData\Local\Temp\ccoNsDRu.s 			page 41


 1512              		.loc 1 762 0
 1513 00f6 1A43     		orr	r2, r3
 764:Generated_Source\PSoC4/CyDMA.c ****                                                            config->transferMode        |
 1514              		.loc 1 764 0
 1515 00f8 7B68     		ldr	r3, [r7, #4]
 1516 00fa 5B69     		ldr	r3, [r3, #20]
 763:Generated_Source\PSoC4/CyDMA.c ****                                                            config->triggerType         |
 1517              		.loc 1 763 0
 1518 00fc 1A43     		orr	r2, r3
 765:Generated_Source\PSoC4/CyDMA.c ****                                                            config->preemptable         |
 1519              		.loc 1 765 0
 1520 00fe 7B68     		ldr	r3, [r7, #4]
 1521 0100 9B69     		ldr	r3, [r3, #24]
 764:Generated_Source\PSoC4/CyDMA.c ****                                                            config->transferMode        |
 1522              		.loc 1 764 0
 1523 0102 1A43     		orr	r2, r3
 766:Generated_Source\PSoC4/CyDMA.c ****                                                            config->actions;
 1524              		.loc 1 766 0
 1525 0104 7B68     		ldr	r3, [r7, #4]
 1526 0106 DB69     		ldr	r3, [r3, #28]
 765:Generated_Source\PSoC4/CyDMA.c ****                                                            config->preemptable         |
 1527              		.loc 1 765 0
 1528 0108 1A43     		orr	r2, r3
 759:Generated_Source\PSoC4/CyDMA.c ****                                                   ((uint32)config->numDataElements-1u) |
 1529              		.loc 1 759 0
 1530 010a FB68     		ldr	r3, [r7, #12]
 1531 010c 5900     		lsl	r1, r3, #1
 1532 010e BB68     		ldr	r3, [r7, #8]
 1533 0110 CB18     		add	r3, r1, r3
 1534 0112 1B01     		lsl	r3, r3, #4
 1535 0114 C318     		add	r3, r0, r3
 1536 0116 0833     		add	r3, r3, #8
 1537 0118 1A60     		str	r2, [r3]
 767:Generated_Source\PSoC4/CyDMA.c **** 
 768:Generated_Source\PSoC4/CyDMA.c ****     CYDMA_DESCR_BASE.descriptor[channel][descriptor].status = CYDMA_VALID;
 1538              		.loc 1 768 0
 1539 011a 0D49     		ldr	r1, .L147+24
 1540 011c FB68     		ldr	r3, [r7, #12]
 1541 011e 5A00     		lsl	r2, r3, #1
 1542 0120 BB68     		ldr	r3, [r7, #8]
 1543 0122 D318     		add	r3, r2, r3
 1544 0124 1B01     		lsl	r3, r3, #4
 1545 0126 CB18     		add	r3, r1, r3
 1546 0128 0833     		add	r3, r3, #8
 1547 012a 8022     		mov	r2, #128
 1548 012c 1206     		lsl	r2, r2, #24
 1549 012e 5A60     		str	r2, [r3, #4]
 769:Generated_Source\PSoC4/CyDMA.c **** }
 1550              		.loc 1 769 0
 1551 0130 BD46     		mov	sp, r7
 1552 0132 04B0     		add	sp, sp, #16
 1553              		@ sp needed
 1554 0134 80BD     		pop	{r7, pc}
 1555              	.L148:
 1556 0136 C046     		.align	2
 1557              	.L147:
 1558 0138 FFFFFCFF 		.word	-196609
ARM GAS  C:\Users\fneves\AppData\Local\Temp\ccoNsDRu.s 			page 42


 1559 013c FFFFAFFF 		.word	-5242881
 1560 0140 FFFF5FFF 		.word	-10485761
 1561 0144 FFFFFFFC 		.word	-50331649
 1562 0148 FFFFFFEF 		.word	-268435457
 1563 014c FFFFFFD3 		.word	-738197505
 1564 0150 00181040 		.word	1074796544
 1565              		.cfi_endproc
 1566              	.LFE26:
 1567              		.size	CyDmaSetConfiguration, .-CyDmaSetConfiguration
 1568              		.section	.text.CyDmaValidateDescriptor,"ax",%progbits
 1569              		.align	2
 1570              		.global	CyDmaValidateDescriptor
 1571              		.code	16
 1572              		.thumb_func
 1573              		.type	CyDmaValidateDescriptor, %function
 1574              	CyDmaValidateDescriptor:
 1575              	.LFB27:
 770:Generated_Source\PSoC4/CyDMA.c **** 
 771:Generated_Source\PSoC4/CyDMA.c **** 
 772:Generated_Source\PSoC4/CyDMA.c **** /*******************************************************************************
 773:Generated_Source\PSoC4/CyDMA.c **** * Function Name: CyDmaValidateDescriptor
 774:Generated_Source\PSoC4/CyDMA.c **** ********************************************************************************
 775:Generated_Source\PSoC4/CyDMA.c **** *
 776:Generated_Source\PSoC4/CyDMA.c **** * Summary:
 777:Generated_Source\PSoC4/CyDMA.c **** *  Validates the specified descriptor after it has been invalidated.
 778:Generated_Source\PSoC4/CyDMA.c **** *
 779:Generated_Source\PSoC4/CyDMA.c **** * Parameters:
 780:Generated_Source\PSoC4/CyDMA.c **** *  channel:    Channel used by this function.
 781:Generated_Source\PSoC4/CyDMA.c **** *  descriptor: Descriptor (0 or 1) modified by this function.
 782:Generated_Source\PSoC4/CyDMA.c **** *                   
 783:Generated_Source\PSoC4/CyDMA.c **** * Return:
 784:Generated_Source\PSoC4/CyDMA.c **** *  None. 
 785:Generated_Source\PSoC4/CyDMA.c **** *
 786:Generated_Source\PSoC4/CyDMA.c **** * Side effect:
 787:Generated_Source\PSoC4/CyDMA.c **** *  The status register associated with the specified descriptor is reset to
 788:Generated_Source\PSoC4/CyDMA.c **** *  zero after this function call.
 789:Generated_Source\PSoC4/CyDMA.c **** *  This function should not be called when the specified descriptor is active
 790:Generated_Source\PSoC4/CyDMA.c **** *  in the DMA transfer engine. This can be checked by calling CyDmaGetStatus().
 791:Generated_Source\PSoC4/CyDMA.c **** *
 792:Generated_Source\PSoC4/CyDMA.c **** *******************************************************************************/
 793:Generated_Source\PSoC4/CyDMA.c **** void CyDmaValidateDescriptor(int32 channel, int32 descriptor)
 794:Generated_Source\PSoC4/CyDMA.c **** {
 1576              		.loc 1 794 0
 1577              		.cfi_startproc
 1578 0000 80B5     		push	{r7, lr}
 1579              		.cfi_def_cfa_offset 8
 1580              		.cfi_offset 7, -8
 1581              		.cfi_offset 14, -4
 1582 0002 82B0     		sub	sp, sp, #8
 1583              		.cfi_def_cfa_offset 16
 1584 0004 00AF     		add	r7, sp, #0
 1585              		.cfi_def_cfa_register 7
 1586 0006 7860     		str	r0, [r7, #4]
 1587 0008 3960     		str	r1, [r7]
 795:Generated_Source\PSoC4/CyDMA.c ****     CYASSERT((channel    >= 0) && (channel    < CYDMA_CH_NR));
 1588              		.loc 1 795 0
 1589 000a 7B68     		ldr	r3, [r7, #4]
ARM GAS  C:\Users\fneves\AppData\Local\Temp\ccoNsDRu.s 			page 43


 1590 000c 002B     		cmp	r3, #0
 1591 000e 04DB     		blt	.L150
 1592              		.loc 1 795 0 is_stmt 0 discriminator 1
 1593 0010 7B68     		ldr	r3, [r7, #4]
 1594 0012 072B     		cmp	r3, #7
 1595 0014 01DC     		bgt	.L150
 1596              		.loc 1 795 0 discriminator 3
 1597 0016 0123     		mov	r3, #1
 1598 0018 00E0     		b	.L151
 1599              	.L150:
 1600              		.loc 1 795 0 discriminator 4
 1601 001a 0023     		mov	r3, #0
 1602              	.L151:
 1603              		.loc 1 795 0 discriminator 6
 1604 001c 002B     		cmp	r3, #0
 1605 001e 02D1     		bne	.L152
 1606              		.loc 1 795 0 discriminator 7
 1607 0020 0020     		mov	r0, #0
 1608 0022 FFF7FEFF 		bl	CyHalt
 1609              	.L152:
 796:Generated_Source\PSoC4/CyDMA.c ****     CYASSERT((descriptor >= 0) && (descriptor < CYDMA_DESCR_NR));
 1610              		.loc 1 796 0 is_stmt 1
 1611 0026 3B68     		ldr	r3, [r7]
 1612 0028 002B     		cmp	r3, #0
 1613 002a 04DB     		blt	.L153
 1614              		.loc 1 796 0 is_stmt 0 discriminator 1
 1615 002c 3B68     		ldr	r3, [r7]
 1616 002e 012B     		cmp	r3, #1
 1617 0030 01DC     		bgt	.L153
 1618              		.loc 1 796 0 discriminator 3
 1619 0032 0123     		mov	r3, #1
 1620 0034 00E0     		b	.L154
 1621              	.L153:
 1622              		.loc 1 796 0 discriminator 4
 1623 0036 0023     		mov	r3, #0
 1624              	.L154:
 1625              		.loc 1 796 0 discriminator 6
 1626 0038 002B     		cmp	r3, #0
 1627 003a 02D1     		bne	.L155
 1628              		.loc 1 796 0 discriminator 7
 1629 003c 0020     		mov	r0, #0
 1630 003e FFF7FEFF 		bl	CyHalt
 1631              	.L155:
 797:Generated_Source\PSoC4/CyDMA.c **** 
 798:Generated_Source\PSoC4/CyDMA.c ****     CYDMA_DESCR_BASE.descriptor[channel][descriptor].status = CYDMA_VALID;
 1632              		.loc 1 798 0 is_stmt 1
 1633 0042 0749     		ldr	r1, .L156
 1634 0044 7B68     		ldr	r3, [r7, #4]
 1635 0046 5A00     		lsl	r2, r3, #1
 1636 0048 3B68     		ldr	r3, [r7]
 1637 004a D318     		add	r3, r2, r3
 1638 004c 1B01     		lsl	r3, r3, #4
 1639 004e CB18     		add	r3, r1, r3
 1640 0050 0833     		add	r3, r3, #8
 1641 0052 8022     		mov	r2, #128
 1642 0054 1206     		lsl	r2, r2, #24
 1643 0056 5A60     		str	r2, [r3, #4]
ARM GAS  C:\Users\fneves\AppData\Local\Temp\ccoNsDRu.s 			page 44


 799:Generated_Source\PSoC4/CyDMA.c **** }
 1644              		.loc 1 799 0
 1645 0058 BD46     		mov	sp, r7
 1646 005a 02B0     		add	sp, sp, #8
 1647              		@ sp needed
 1648 005c 80BD     		pop	{r7, pc}
 1649              	.L157:
 1650 005e C046     		.align	2
 1651              	.L156:
 1652 0060 00181040 		.word	1074796544
 1653              		.cfi_endproc
 1654              	.LFE27:
 1655              		.size	CyDmaValidateDescriptor, .-CyDmaValidateDescriptor
 1656              		.section	.text.CyDmaGetDescriptorStatus,"ax",%progbits
 1657              		.align	2
 1658              		.global	CyDmaGetDescriptorStatus
 1659              		.code	16
 1660              		.thumb_func
 1661              		.type	CyDmaGetDescriptorStatus, %function
 1662              	CyDmaGetDescriptorStatus:
 1663              	.LFB28:
 800:Generated_Source\PSoC4/CyDMA.c **** 
 801:Generated_Source\PSoC4/CyDMA.c **** 
 802:Generated_Source\PSoC4/CyDMA.c **** /*******************************************************************************
 803:Generated_Source\PSoC4/CyDMA.c **** * Function Name: CyDmaGetDescriptorStatus
 804:Generated_Source\PSoC4/CyDMA.c **** ********************************************************************************
 805:Generated_Source\PSoC4/CyDMA.c **** *
 806:Generated_Source\PSoC4/CyDMA.c **** * Summary:
 807:Generated_Source\PSoC4/CyDMA.c **** *  Returns the status of the specified descriptor.
 808:Generated_Source\PSoC4/CyDMA.c **** *
 809:Generated_Source\PSoC4/CyDMA.c **** * Parameters:
 810:Generated_Source\PSoC4/CyDMA.c **** *  channel:    Channel used by this function.
 811:Generated_Source\PSoC4/CyDMA.c **** *  descriptor: Descriptor (0 or 1) modified by this function.
 812:Generated_Source\PSoC4/CyDMA.c **** *                   
 813:Generated_Source\PSoC4/CyDMA.c **** * Return:
 814:Generated_Source\PSoC4/CyDMA.c **** *  Returns the contents of the specified descriptors status register. Refer to 
 815:Generated_Source\PSoC4/CyDMA.c **** *  descriptor status register bit definitions in CyDMA_P4.h or the API
 816:Generated_Source\PSoC4/CyDMA.c **** *  description in the DMA channel datasheet for more information.
 817:Generated_Source\PSoC4/CyDMA.c **** *
 818:Generated_Source\PSoC4/CyDMA.c **** *******************************************************************************/
 819:Generated_Source\PSoC4/CyDMA.c **** uint32 CyDmaGetDescriptorStatus(int32 channel, int32 descriptor)
 820:Generated_Source\PSoC4/CyDMA.c **** {
 1664              		.loc 1 820 0
 1665              		.cfi_startproc
 1666 0000 80B5     		push	{r7, lr}
 1667              		.cfi_def_cfa_offset 8
 1668              		.cfi_offset 7, -8
 1669              		.cfi_offset 14, -4
 1670 0002 82B0     		sub	sp, sp, #8
 1671              		.cfi_def_cfa_offset 16
 1672 0004 00AF     		add	r7, sp, #0
 1673              		.cfi_def_cfa_register 7
 1674 0006 7860     		str	r0, [r7, #4]
 1675 0008 3960     		str	r1, [r7]
 821:Generated_Source\PSoC4/CyDMA.c ****     CYASSERT((channel    >= 0) && (channel    < CYDMA_CH_NR));
 1676              		.loc 1 821 0
 1677 000a 7B68     		ldr	r3, [r7, #4]
ARM GAS  C:\Users\fneves\AppData\Local\Temp\ccoNsDRu.s 			page 45


 1678 000c 002B     		cmp	r3, #0
 1679 000e 04DB     		blt	.L159
 1680              		.loc 1 821 0 is_stmt 0 discriminator 1
 1681 0010 7B68     		ldr	r3, [r7, #4]
 1682 0012 072B     		cmp	r3, #7
 1683 0014 01DC     		bgt	.L159
 1684              		.loc 1 821 0 discriminator 3
 1685 0016 0123     		mov	r3, #1
 1686 0018 00E0     		b	.L160
 1687              	.L159:
 1688              		.loc 1 821 0 discriminator 4
 1689 001a 0023     		mov	r3, #0
 1690              	.L160:
 1691              		.loc 1 821 0 discriminator 6
 1692 001c 002B     		cmp	r3, #0
 1693 001e 02D1     		bne	.L161
 1694              		.loc 1 821 0 discriminator 7
 1695 0020 0020     		mov	r0, #0
 1696 0022 FFF7FEFF 		bl	CyHalt
 1697              	.L161:
 822:Generated_Source\PSoC4/CyDMA.c ****     CYASSERT((descriptor >= 0) && (descriptor < CYDMA_DESCR_NR));
 1698              		.loc 1 822 0 is_stmt 1
 1699 0026 3B68     		ldr	r3, [r7]
 1700 0028 002B     		cmp	r3, #0
 1701 002a 04DB     		blt	.L162
 1702              		.loc 1 822 0 is_stmt 0 discriminator 1
 1703 002c 3B68     		ldr	r3, [r7]
 1704 002e 012B     		cmp	r3, #1
 1705 0030 01DC     		bgt	.L162
 1706              		.loc 1 822 0 discriminator 3
 1707 0032 0123     		mov	r3, #1
 1708 0034 00E0     		b	.L163
 1709              	.L162:
 1710              		.loc 1 822 0 discriminator 4
 1711 0036 0023     		mov	r3, #0
 1712              	.L163:
 1713              		.loc 1 822 0 discriminator 6
 1714 0038 002B     		cmp	r3, #0
 1715 003a 02D1     		bne	.L164
 1716              		.loc 1 822 0 discriminator 7
 1717 003c 0020     		mov	r0, #0
 1718 003e FFF7FEFF 		bl	CyHalt
 1719              	.L164:
 823:Generated_Source\PSoC4/CyDMA.c **** 
 824:Generated_Source\PSoC4/CyDMA.c ****     return (CYDMA_DESCR_BASE.descriptor[channel][descriptor].status);
 1720              		.loc 1 824 0 is_stmt 1
 1721 0042 0649     		ldr	r1, .L166
 1722 0044 7B68     		ldr	r3, [r7, #4]
 1723 0046 5A00     		lsl	r2, r3, #1
 1724 0048 3B68     		ldr	r3, [r7]
 1725 004a D318     		add	r3, r2, r3
 1726 004c 1B01     		lsl	r3, r3, #4
 1727 004e CB18     		add	r3, r1, r3
 1728 0050 0833     		add	r3, r3, #8
 1729 0052 5B68     		ldr	r3, [r3, #4]
 825:Generated_Source\PSoC4/CyDMA.c **** }
 1730              		.loc 1 825 0
ARM GAS  C:\Users\fneves\AppData\Local\Temp\ccoNsDRu.s 			page 46


 1731 0054 181C     		mov	r0, r3
 1732 0056 BD46     		mov	sp, r7
 1733 0058 02B0     		add	sp, sp, #8
 1734              		@ sp needed
 1735 005a 80BD     		pop	{r7, pc}
 1736              	.L167:
 1737              		.align	2
 1738              	.L166:
 1739 005c 00181040 		.word	1074796544
 1740              		.cfi_endproc
 1741              	.LFE28:
 1742              		.size	CyDmaGetDescriptorStatus, .-CyDmaGetDescriptorStatus
 1743              		.section	.text.CyDmaSetSrcAddress,"ax",%progbits
 1744              		.align	2
 1745              		.global	CyDmaSetSrcAddress
 1746              		.code	16
 1747              		.thumb_func
 1748              		.type	CyDmaSetSrcAddress, %function
 1749              	CyDmaSetSrcAddress:
 1750              	.LFB29:
 826:Generated_Source\PSoC4/CyDMA.c **** 
 827:Generated_Source\PSoC4/CyDMA.c **** 
 828:Generated_Source\PSoC4/CyDMA.c **** /*******************************************************************************
 829:Generated_Source\PSoC4/CyDMA.c **** * Function Name: CyDmaSetSrcAddress
 830:Generated_Source\PSoC4/CyDMA.c **** ********************************************************************************
 831:Generated_Source\PSoC4/CyDMA.c **** *
 832:Generated_Source\PSoC4/CyDMA.c **** * Summary:
 833:Generated_Source\PSoC4/CyDMA.c **** *  Configures the source address for the specified descriptor.
 834:Generated_Source\PSoC4/CyDMA.c **** *
 835:Generated_Source\PSoC4/CyDMA.c **** * Parameters:
 836:Generated_Source\PSoC4/CyDMA.c **** *  channel:    Channel used by this function.
 837:Generated_Source\PSoC4/CyDMA.c **** *  descriptor: Descriptor (0 or 1) modified by this function.
 838:Generated_Source\PSoC4/CyDMA.c **** *  srcAddress: Address of DMA transfer source.
 839:Generated_Source\PSoC4/CyDMA.c **** *                   
 840:Generated_Source\PSoC4/CyDMA.c **** * Return:
 841:Generated_Source\PSoC4/CyDMA.c **** *  None.
 842:Generated_Source\PSoC4/CyDMA.c **** *
 843:Generated_Source\PSoC4/CyDMA.c **** * Side effect:
 844:Generated_Source\PSoC4/CyDMA.c **** *  This function should not be called when the specified descriptor is active
 845:Generated_Source\PSoC4/CyDMA.c **** *  in the DMA transfer engine. This can be checked by calling CyDmaGetStatus(). 
 846:Generated_Source\PSoC4/CyDMA.c **** *
 847:Generated_Source\PSoC4/CyDMA.c **** *******************************************************************************/
 848:Generated_Source\PSoC4/CyDMA.c **** void CyDmaSetSrcAddress(int32 channel, int32 descriptor, void * srcAddress)
 849:Generated_Source\PSoC4/CyDMA.c **** {
 1751              		.loc 1 849 0
 1752              		.cfi_startproc
 1753 0000 80B5     		push	{r7, lr}
 1754              		.cfi_def_cfa_offset 8
 1755              		.cfi_offset 7, -8
 1756              		.cfi_offset 14, -4
 1757 0002 84B0     		sub	sp, sp, #16
 1758              		.cfi_def_cfa_offset 24
 1759 0004 00AF     		add	r7, sp, #0
 1760              		.cfi_def_cfa_register 7
 1761 0006 F860     		str	r0, [r7, #12]
 1762 0008 B960     		str	r1, [r7, #8]
 1763 000a 7A60     		str	r2, [r7, #4]
ARM GAS  C:\Users\fneves\AppData\Local\Temp\ccoNsDRu.s 			page 47


 850:Generated_Source\PSoC4/CyDMA.c ****     CYASSERT((channel    >= 0) && (channel    < CYDMA_CH_NR));
 1764              		.loc 1 850 0
 1765 000c FB68     		ldr	r3, [r7, #12]
 1766 000e 002B     		cmp	r3, #0
 1767 0010 04DB     		blt	.L169
 1768              		.loc 1 850 0 is_stmt 0 discriminator 1
 1769 0012 FB68     		ldr	r3, [r7, #12]
 1770 0014 072B     		cmp	r3, #7
 1771 0016 01DC     		bgt	.L169
 1772              		.loc 1 850 0 discriminator 3
 1773 0018 0123     		mov	r3, #1
 1774 001a 00E0     		b	.L170
 1775              	.L169:
 1776              		.loc 1 850 0 discriminator 4
 1777 001c 0023     		mov	r3, #0
 1778              	.L170:
 1779              		.loc 1 850 0 discriminator 6
 1780 001e 002B     		cmp	r3, #0
 1781 0020 02D1     		bne	.L171
 1782              		.loc 1 850 0 discriminator 7
 1783 0022 0020     		mov	r0, #0
 1784 0024 FFF7FEFF 		bl	CyHalt
 1785              	.L171:
 851:Generated_Source\PSoC4/CyDMA.c ****     CYASSERT((descriptor >= 0) && (descriptor < CYDMA_DESCR_NR));
 1786              		.loc 1 851 0 is_stmt 1
 1787 0028 BB68     		ldr	r3, [r7, #8]
 1788 002a 002B     		cmp	r3, #0
 1789 002c 04DB     		blt	.L172
 1790              		.loc 1 851 0 is_stmt 0 discriminator 1
 1791 002e BB68     		ldr	r3, [r7, #8]
 1792 0030 012B     		cmp	r3, #1
 1793 0032 01DC     		bgt	.L172
 1794              		.loc 1 851 0 discriminator 3
 1795 0034 0123     		mov	r3, #1
 1796 0036 00E0     		b	.L173
 1797              	.L172:
 1798              		.loc 1 851 0 discriminator 4
 1799 0038 0023     		mov	r3, #0
 1800              	.L173:
 1801              		.loc 1 851 0 discriminator 6
 1802 003a 002B     		cmp	r3, #0
 1803 003c 02D1     		bne	.L174
 1804              		.loc 1 851 0 discriminator 7
 1805 003e 0020     		mov	r0, #0
 1806 0040 FFF7FEFF 		bl	CyHalt
 1807              	.L174:
 852:Generated_Source\PSoC4/CyDMA.c **** 
 853:Generated_Source\PSoC4/CyDMA.c ****     CYDMA_DESCR_BASE.descriptor[channel][descriptor].src = srcAddress;
 1808              		.loc 1 853 0 is_stmt 1
 1809 0044 0549     		ldr	r1, .L175
 1810 0046 FB68     		ldr	r3, [r7, #12]
 1811 0048 5A00     		lsl	r2, r3, #1
 1812 004a BB68     		ldr	r3, [r7, #8]
 1813 004c D318     		add	r3, r2, r3
 1814 004e 1B01     		lsl	r3, r3, #4
 1815 0050 7A68     		ldr	r2, [r7, #4]
 1816 0052 5A50     		str	r2, [r3, r1]
ARM GAS  C:\Users\fneves\AppData\Local\Temp\ccoNsDRu.s 			page 48


 854:Generated_Source\PSoC4/CyDMA.c **** }
 1817              		.loc 1 854 0
 1818 0054 BD46     		mov	sp, r7
 1819 0056 04B0     		add	sp, sp, #16
 1820              		@ sp needed
 1821 0058 80BD     		pop	{r7, pc}
 1822              	.L176:
 1823 005a C046     		.align	2
 1824              	.L175:
 1825 005c 00181040 		.word	1074796544
 1826              		.cfi_endproc
 1827              	.LFE29:
 1828              		.size	CyDmaSetSrcAddress, .-CyDmaSetSrcAddress
 1829              		.section	.text.CyDmaGetSrcAddress,"ax",%progbits
 1830              		.align	2
 1831              		.global	CyDmaGetSrcAddress
 1832              		.code	16
 1833              		.thumb_func
 1834              		.type	CyDmaGetSrcAddress, %function
 1835              	CyDmaGetSrcAddress:
 1836              	.LFB30:
 855:Generated_Source\PSoC4/CyDMA.c **** 
 856:Generated_Source\PSoC4/CyDMA.c **** 
 857:Generated_Source\PSoC4/CyDMA.c **** /*******************************************************************************
 858:Generated_Source\PSoC4/CyDMA.c **** * Function Name: CyDmaGetSrcAddress
 859:Generated_Source\PSoC4/CyDMA.c **** ********************************************************************************
 860:Generated_Source\PSoC4/CyDMA.c **** *
 861:Generated_Source\PSoC4/CyDMA.c **** * Summary:
 862:Generated_Source\PSoC4/CyDMA.c **** *  Returns the source address for the specified descriptor, set by 
 863:Generated_Source\PSoC4/CyDMA.c **** *  CyDmaSetSrcAddress().
 864:Generated_Source\PSoC4/CyDMA.c **** *
 865:Generated_Source\PSoC4/CyDMA.c **** * Parameters:
 866:Generated_Source\PSoC4/CyDMA.c **** *  channel:    Channel used by this function.
 867:Generated_Source\PSoC4/CyDMA.c **** *  descriptor: Specifies descriptor (0 or 1) used by this function.
 868:Generated_Source\PSoC4/CyDMA.c **** *                   
 869:Generated_Source\PSoC4/CyDMA.c **** * Return:
 870:Generated_Source\PSoC4/CyDMA.c **** *  Source address written to specified descriptor.
 871:Generated_Source\PSoC4/CyDMA.c **** *
 872:Generated_Source\PSoC4/CyDMA.c **** *******************************************************************************/
 873:Generated_Source\PSoC4/CyDMA.c **** void * CyDmaGetSrcAddress(int32 channel, int32 descriptor)
 874:Generated_Source\PSoC4/CyDMA.c **** {
 1837              		.loc 1 874 0
 1838              		.cfi_startproc
 1839 0000 80B5     		push	{r7, lr}
 1840              		.cfi_def_cfa_offset 8
 1841              		.cfi_offset 7, -8
 1842              		.cfi_offset 14, -4
 1843 0002 82B0     		sub	sp, sp, #8
 1844              		.cfi_def_cfa_offset 16
 1845 0004 00AF     		add	r7, sp, #0
 1846              		.cfi_def_cfa_register 7
 1847 0006 7860     		str	r0, [r7, #4]
 1848 0008 3960     		str	r1, [r7]
 875:Generated_Source\PSoC4/CyDMA.c ****     CYASSERT((channel    >= 0) && (channel    < CYDMA_CH_NR));
 1849              		.loc 1 875 0
 1850 000a 7B68     		ldr	r3, [r7, #4]
 1851 000c 002B     		cmp	r3, #0
ARM GAS  C:\Users\fneves\AppData\Local\Temp\ccoNsDRu.s 			page 49


 1852 000e 04DB     		blt	.L178
 1853              		.loc 1 875 0 is_stmt 0 discriminator 1
 1854 0010 7B68     		ldr	r3, [r7, #4]
 1855 0012 072B     		cmp	r3, #7
 1856 0014 01DC     		bgt	.L178
 1857              		.loc 1 875 0 discriminator 3
 1858 0016 0123     		mov	r3, #1
 1859 0018 00E0     		b	.L179
 1860              	.L178:
 1861              		.loc 1 875 0 discriminator 4
 1862 001a 0023     		mov	r3, #0
 1863              	.L179:
 1864              		.loc 1 875 0 discriminator 6
 1865 001c 002B     		cmp	r3, #0
 1866 001e 02D1     		bne	.L180
 1867              		.loc 1 875 0 discriminator 7
 1868 0020 0020     		mov	r0, #0
 1869 0022 FFF7FEFF 		bl	CyHalt
 1870              	.L180:
 876:Generated_Source\PSoC4/CyDMA.c ****     CYASSERT((descriptor >= 0) && (descriptor < CYDMA_DESCR_NR));
 1871              		.loc 1 876 0 is_stmt 1
 1872 0026 3B68     		ldr	r3, [r7]
 1873 0028 002B     		cmp	r3, #0
 1874 002a 04DB     		blt	.L181
 1875              		.loc 1 876 0 is_stmt 0 discriminator 1
 1876 002c 3B68     		ldr	r3, [r7]
 1877 002e 012B     		cmp	r3, #1
 1878 0030 01DC     		bgt	.L181
 1879              		.loc 1 876 0 discriminator 3
 1880 0032 0123     		mov	r3, #1
 1881 0034 00E0     		b	.L182
 1882              	.L181:
 1883              		.loc 1 876 0 discriminator 4
 1884 0036 0023     		mov	r3, #0
 1885              	.L182:
 1886              		.loc 1 876 0 discriminator 6
 1887 0038 002B     		cmp	r3, #0
 1888 003a 02D1     		bne	.L183
 1889              		.loc 1 876 0 discriminator 7
 1890 003c 0020     		mov	r0, #0
 1891 003e FFF7FEFF 		bl	CyHalt
 1892              	.L183:
 877:Generated_Source\PSoC4/CyDMA.c **** 
 878:Generated_Source\PSoC4/CyDMA.c ****     return (CYDMA_DESCR_BASE.descriptor[channel][descriptor].src);
 1893              		.loc 1 878 0 is_stmt 1
 1894 0042 0549     		ldr	r1, .L185
 1895 0044 7B68     		ldr	r3, [r7, #4]
 1896 0046 5A00     		lsl	r2, r3, #1
 1897 0048 3B68     		ldr	r3, [r7]
 1898 004a D318     		add	r3, r2, r3
 1899 004c 1B01     		lsl	r3, r3, #4
 1900 004e 5B58     		ldr	r3, [r3, r1]
 879:Generated_Source\PSoC4/CyDMA.c **** }
 1901              		.loc 1 879 0
 1902 0050 181C     		mov	r0, r3
 1903 0052 BD46     		mov	sp, r7
 1904 0054 02B0     		add	sp, sp, #8
ARM GAS  C:\Users\fneves\AppData\Local\Temp\ccoNsDRu.s 			page 50


 1905              		@ sp needed
 1906 0056 80BD     		pop	{r7, pc}
 1907              	.L186:
 1908              		.align	2
 1909              	.L185:
 1910 0058 00181040 		.word	1074796544
 1911              		.cfi_endproc
 1912              	.LFE30:
 1913              		.size	CyDmaGetSrcAddress, .-CyDmaGetSrcAddress
 1914              		.section	.text.CyDmaSetDstAddress,"ax",%progbits
 1915              		.align	2
 1916              		.global	CyDmaSetDstAddress
 1917              		.code	16
 1918              		.thumb_func
 1919              		.type	CyDmaSetDstAddress, %function
 1920              	CyDmaSetDstAddress:
 1921              	.LFB31:
 880:Generated_Source\PSoC4/CyDMA.c **** 
 881:Generated_Source\PSoC4/CyDMA.c **** 
 882:Generated_Source\PSoC4/CyDMA.c **** /*******************************************************************************
 883:Generated_Source\PSoC4/CyDMA.c **** * Function Name: CyDmaSetDstAddress
 884:Generated_Source\PSoC4/CyDMA.c **** ********************************************************************************
 885:Generated_Source\PSoC4/CyDMA.c **** *
 886:Generated_Source\PSoC4/CyDMA.c **** * Summary:
 887:Generated_Source\PSoC4/CyDMA.c **** *  Configures the destination address for the specified descriptor.
 888:Generated_Source\PSoC4/CyDMA.c **** *
 889:Generated_Source\PSoC4/CyDMA.c **** * Parameters:
 890:Generated_Source\PSoC4/CyDMA.c **** *  channel:    Channel used by this function.
 891:Generated_Source\PSoC4/CyDMA.c **** *  descriptor: Descriptor (0 or 1) modified by this function.
 892:Generated_Source\PSoC4/CyDMA.c **** *  dstAddress: Address of DMA transfer destination.
 893:Generated_Source\PSoC4/CyDMA.c **** *                   
 894:Generated_Source\PSoC4/CyDMA.c **** * Return:
 895:Generated_Source\PSoC4/CyDMA.c **** *  None.
 896:Generated_Source\PSoC4/CyDMA.c **** *
 897:Generated_Source\PSoC4/CyDMA.c **** * Side effect:
 898:Generated_Source\PSoC4/CyDMA.c **** *  This function should not be called when the specified descriptor is active
 899:Generated_Source\PSoC4/CyDMA.c **** *  in the DMA transfer engine. This can be checked by calling CyDmaGetStatus(). 
 900:Generated_Source\PSoC4/CyDMA.c **** *
 901:Generated_Source\PSoC4/CyDMA.c **** *******************************************************************************/
 902:Generated_Source\PSoC4/CyDMA.c **** void CyDmaSetDstAddress(int32 channel, int32 descriptor, void * dstAddress)
 903:Generated_Source\PSoC4/CyDMA.c **** {
 1922              		.loc 1 903 0
 1923              		.cfi_startproc
 1924 0000 80B5     		push	{r7, lr}
 1925              		.cfi_def_cfa_offset 8
 1926              		.cfi_offset 7, -8
 1927              		.cfi_offset 14, -4
 1928 0002 84B0     		sub	sp, sp, #16
 1929              		.cfi_def_cfa_offset 24
 1930 0004 00AF     		add	r7, sp, #0
 1931              		.cfi_def_cfa_register 7
 1932 0006 F860     		str	r0, [r7, #12]
 1933 0008 B960     		str	r1, [r7, #8]
 1934 000a 7A60     		str	r2, [r7, #4]
 904:Generated_Source\PSoC4/CyDMA.c ****     CYASSERT((channel    >= 0) && (channel    < CYDMA_CH_NR));
 1935              		.loc 1 904 0
 1936 000c FB68     		ldr	r3, [r7, #12]
ARM GAS  C:\Users\fneves\AppData\Local\Temp\ccoNsDRu.s 			page 51


 1937 000e 002B     		cmp	r3, #0
 1938 0010 04DB     		blt	.L188
 1939              		.loc 1 904 0 is_stmt 0 discriminator 1
 1940 0012 FB68     		ldr	r3, [r7, #12]
 1941 0014 072B     		cmp	r3, #7
 1942 0016 01DC     		bgt	.L188
 1943              		.loc 1 904 0 discriminator 3
 1944 0018 0123     		mov	r3, #1
 1945 001a 00E0     		b	.L189
 1946              	.L188:
 1947              		.loc 1 904 0 discriminator 4
 1948 001c 0023     		mov	r3, #0
 1949              	.L189:
 1950              		.loc 1 904 0 discriminator 6
 1951 001e 002B     		cmp	r3, #0
 1952 0020 02D1     		bne	.L190
 1953              		.loc 1 904 0 discriminator 7
 1954 0022 0020     		mov	r0, #0
 1955 0024 FFF7FEFF 		bl	CyHalt
 1956              	.L190:
 905:Generated_Source\PSoC4/CyDMA.c ****     CYASSERT((descriptor >= 0) && (descriptor < CYDMA_DESCR_NR));
 1957              		.loc 1 905 0 is_stmt 1
 1958 0028 BB68     		ldr	r3, [r7, #8]
 1959 002a 002B     		cmp	r3, #0
 1960 002c 04DB     		blt	.L191
 1961              		.loc 1 905 0 is_stmt 0 discriminator 1
 1962 002e BB68     		ldr	r3, [r7, #8]
 1963 0030 012B     		cmp	r3, #1
 1964 0032 01DC     		bgt	.L191
 1965              		.loc 1 905 0 discriminator 3
 1966 0034 0123     		mov	r3, #1
 1967 0036 00E0     		b	.L192
 1968              	.L191:
 1969              		.loc 1 905 0 discriminator 4
 1970 0038 0023     		mov	r3, #0
 1971              	.L192:
 1972              		.loc 1 905 0 discriminator 6
 1973 003a 002B     		cmp	r3, #0
 1974 003c 02D1     		bne	.L193
 1975              		.loc 1 905 0 discriminator 7
 1976 003e 0020     		mov	r0, #0
 1977 0040 FFF7FEFF 		bl	CyHalt
 1978              	.L193:
 906:Generated_Source\PSoC4/CyDMA.c **** 
 907:Generated_Source\PSoC4/CyDMA.c ****     CYDMA_DESCR_BASE.descriptor[channel][descriptor].dst = dstAddress;
 1979              		.loc 1 907 0 is_stmt 1
 1980 0044 0549     		ldr	r1, .L194
 1981 0046 FB68     		ldr	r3, [r7, #12]
 1982 0048 5A00     		lsl	r2, r3, #1
 1983 004a BB68     		ldr	r3, [r7, #8]
 1984 004c D318     		add	r3, r2, r3
 1985 004e 1B01     		lsl	r3, r3, #4
 1986 0050 CB18     		add	r3, r1, r3
 1987 0052 7A68     		ldr	r2, [r7, #4]
 1988 0054 5A60     		str	r2, [r3, #4]
 908:Generated_Source\PSoC4/CyDMA.c **** }
 1989              		.loc 1 908 0
ARM GAS  C:\Users\fneves\AppData\Local\Temp\ccoNsDRu.s 			page 52


 1990 0056 BD46     		mov	sp, r7
 1991 0058 04B0     		add	sp, sp, #16
 1992              		@ sp needed
 1993 005a 80BD     		pop	{r7, pc}
 1994              	.L195:
 1995              		.align	2
 1996              	.L194:
 1997 005c 00181040 		.word	1074796544
 1998              		.cfi_endproc
 1999              	.LFE31:
 2000              		.size	CyDmaSetDstAddress, .-CyDmaSetDstAddress
 2001              		.section	.text.CyDmaGetDstAddress,"ax",%progbits
 2002              		.align	2
 2003              		.global	CyDmaGetDstAddress
 2004              		.code	16
 2005              		.thumb_func
 2006              		.type	CyDmaGetDstAddress, %function
 2007              	CyDmaGetDstAddress:
 2008              	.LFB32:
 909:Generated_Source\PSoC4/CyDMA.c **** 
 910:Generated_Source\PSoC4/CyDMA.c **** 
 911:Generated_Source\PSoC4/CyDMA.c **** /*******************************************************************************
 912:Generated_Source\PSoC4/CyDMA.c **** * Function Name: CyDmaGetDstAddress
 913:Generated_Source\PSoC4/CyDMA.c **** ********************************************************************************
 914:Generated_Source\PSoC4/CyDMA.c **** *
 915:Generated_Source\PSoC4/CyDMA.c **** * Summary:
 916:Generated_Source\PSoC4/CyDMA.c **** *  Returns the destination address for the specified descriptor, set by 
 917:Generated_Source\PSoC4/CyDMA.c **** *  CyDmaSetDstAddress().
 918:Generated_Source\PSoC4/CyDMA.c **** *
 919:Generated_Source\PSoC4/CyDMA.c **** * Parameters:
 920:Generated_Source\PSoC4/CyDMA.c **** *  channel:    Channel used by this function.
 921:Generated_Source\PSoC4/CyDMA.c **** *  descriptor: Specifies descriptor (0 or 1) used by this function.
 922:Generated_Source\PSoC4/CyDMA.c **** *                   
 923:Generated_Source\PSoC4/CyDMA.c **** * Return:
 924:Generated_Source\PSoC4/CyDMA.c **** *  Destination address written to specified descriptor.
 925:Generated_Source\PSoC4/CyDMA.c **** *
 926:Generated_Source\PSoC4/CyDMA.c **** *******************************************************************************/
 927:Generated_Source\PSoC4/CyDMA.c **** void * CyDmaGetDstAddress(int32 channel, int32 descriptor)
 928:Generated_Source\PSoC4/CyDMA.c **** {
 2009              		.loc 1 928 0
 2010              		.cfi_startproc
 2011 0000 80B5     		push	{r7, lr}
 2012              		.cfi_def_cfa_offset 8
 2013              		.cfi_offset 7, -8
 2014              		.cfi_offset 14, -4
 2015 0002 82B0     		sub	sp, sp, #8
 2016              		.cfi_def_cfa_offset 16
 2017 0004 00AF     		add	r7, sp, #0
 2018              		.cfi_def_cfa_register 7
 2019 0006 7860     		str	r0, [r7, #4]
 2020 0008 3960     		str	r1, [r7]
 929:Generated_Source\PSoC4/CyDMA.c ****     CYASSERT((channel    >= 0) && (channel    < CYDMA_CH_NR));
 2021              		.loc 1 929 0
 2022 000a 7B68     		ldr	r3, [r7, #4]
 2023 000c 002B     		cmp	r3, #0
 2024 000e 04DB     		blt	.L197
 2025              		.loc 1 929 0 is_stmt 0 discriminator 1
ARM GAS  C:\Users\fneves\AppData\Local\Temp\ccoNsDRu.s 			page 53


 2026 0010 7B68     		ldr	r3, [r7, #4]
 2027 0012 072B     		cmp	r3, #7
 2028 0014 01DC     		bgt	.L197
 2029              		.loc 1 929 0 discriminator 3
 2030 0016 0123     		mov	r3, #1
 2031 0018 00E0     		b	.L198
 2032              	.L197:
 2033              		.loc 1 929 0 discriminator 4
 2034 001a 0023     		mov	r3, #0
 2035              	.L198:
 2036              		.loc 1 929 0 discriminator 6
 2037 001c 002B     		cmp	r3, #0
 2038 001e 02D1     		bne	.L199
 2039              		.loc 1 929 0 discriminator 7
 2040 0020 0020     		mov	r0, #0
 2041 0022 FFF7FEFF 		bl	CyHalt
 2042              	.L199:
 930:Generated_Source\PSoC4/CyDMA.c ****     CYASSERT((descriptor >= 0) && (descriptor < CYDMA_DESCR_NR));
 2043              		.loc 1 930 0 is_stmt 1
 2044 0026 3B68     		ldr	r3, [r7]
 2045 0028 002B     		cmp	r3, #0
 2046 002a 04DB     		blt	.L200
 2047              		.loc 1 930 0 is_stmt 0 discriminator 1
 2048 002c 3B68     		ldr	r3, [r7]
 2049 002e 012B     		cmp	r3, #1
 2050 0030 01DC     		bgt	.L200
 2051              		.loc 1 930 0 discriminator 3
 2052 0032 0123     		mov	r3, #1
 2053 0034 00E0     		b	.L201
 2054              	.L200:
 2055              		.loc 1 930 0 discriminator 4
 2056 0036 0023     		mov	r3, #0
 2057              	.L201:
 2058              		.loc 1 930 0 discriminator 6
 2059 0038 002B     		cmp	r3, #0
 2060 003a 02D1     		bne	.L202
 2061              		.loc 1 930 0 discriminator 7
 2062 003c 0020     		mov	r0, #0
 2063 003e FFF7FEFF 		bl	CyHalt
 2064              	.L202:
 931:Generated_Source\PSoC4/CyDMA.c **** 
 932:Generated_Source\PSoC4/CyDMA.c ****     return (CYDMA_DESCR_BASE.descriptor[channel][descriptor].dst);
 2065              		.loc 1 932 0 is_stmt 1
 2066 0042 0649     		ldr	r1, .L204
 2067 0044 7B68     		ldr	r3, [r7, #4]
 2068 0046 5A00     		lsl	r2, r3, #1
 2069 0048 3B68     		ldr	r3, [r7]
 2070 004a D318     		add	r3, r2, r3
 2071 004c 1B01     		lsl	r3, r3, #4
 2072 004e CB18     		add	r3, r1, r3
 2073 0050 5B68     		ldr	r3, [r3, #4]
 933:Generated_Source\PSoC4/CyDMA.c **** }
 2074              		.loc 1 933 0
 2075 0052 181C     		mov	r0, r3
 2076 0054 BD46     		mov	sp, r7
 2077 0056 02B0     		add	sp, sp, #8
 2078              		@ sp needed
ARM GAS  C:\Users\fneves\AppData\Local\Temp\ccoNsDRu.s 			page 54


 2079 0058 80BD     		pop	{r7, pc}
 2080              	.L205:
 2081 005a C046     		.align	2
 2082              	.L204:
 2083 005c 00181040 		.word	1074796544
 2084              		.cfi_endproc
 2085              	.LFE32:
 2086              		.size	CyDmaGetDstAddress, .-CyDmaGetDstAddress
 2087              		.section	.text.CyDmaSetDataElementSize,"ax",%progbits
 2088              		.align	2
 2089              		.global	CyDmaSetDataElementSize
 2090              		.code	16
 2091              		.thumb_func
 2092              		.type	CyDmaSetDataElementSize, %function
 2093              	CyDmaSetDataElementSize:
 2094              	.LFB33:
 934:Generated_Source\PSoC4/CyDMA.c **** 
 935:Generated_Source\PSoC4/CyDMA.c **** /*******************************************************************************
 936:Generated_Source\PSoC4/CyDMA.c **** * Function Name: CyDmaSetDataElementSize
 937:Generated_Source\PSoC4/CyDMA.c **** ********************************************************************************
 938:Generated_Source\PSoC4/CyDMA.c **** *
 939:Generated_Source\PSoC4/CyDMA.c **** * Summary:
 940:Generated_Source\PSoC4/CyDMA.c **** *  Sets the data element size for the specified descriptor.
 941:Generated_Source\PSoC4/CyDMA.c **** *
 942:Generated_Source\PSoC4/CyDMA.c **** * Parameters:
 943:Generated_Source\PSoC4/CyDMA.c **** *  channel:         Channel used by this function.
 944:Generated_Source\PSoC4/CyDMA.c **** *  descriptor:      Descriptor (0 or 1) modified by this function.
 945:Generated_Source\PSoC4/CyDMA.c **** *  dataElementSize: Specifies the size of the data element. The DMA transfer
 946:Generated_Source\PSoC4/CyDMA.c **** *                   engine transfers one data element at a time. How these
 947:Generated_Source\PSoC4/CyDMA.c **** *                   transfers occur is controlled by the transfer mode.
 948:Generated_Source\PSoC4/CyDMA.c **** *                   Refer to the API bit field definitions in CyDMA_P4.h
 949:Generated_Source\PSoC4/CyDMA.c **** *                   or API description in the DMA channel datasheet for the 
 950:Generated_Source\PSoC4/CyDMA.c **** *                   parameter options.
 951:Generated_Source\PSoC4/CyDMA.c **** *
 952:Generated_Source\PSoC4/CyDMA.c **** * Return:
 953:Generated_Source\PSoC4/CyDMA.c **** *  None.
 954:Generated_Source\PSoC4/CyDMA.c **** *
 955:Generated_Source\PSoC4/CyDMA.c **** * Side effect:
 956:Generated_Source\PSoC4/CyDMA.c **** *  This function should not be called when the specified descriptor is active
 957:Generated_Source\PSoC4/CyDMA.c **** *  in the DMA transfer engine. This can be checked by calling CyDmaGetStatus(). 
 958:Generated_Source\PSoC4/CyDMA.c **** *
 959:Generated_Source\PSoC4/CyDMA.c **** *******************************************************************************/
 960:Generated_Source\PSoC4/CyDMA.c **** void CyDmaSetDataElementSize(int32 channel, int32 descriptor, uint32 dataElementSize)
 961:Generated_Source\PSoC4/CyDMA.c **** {
 2095              		.loc 1 961 0
 2096              		.cfi_startproc
 2097 0000 80B5     		push	{r7, lr}
 2098              		.cfi_def_cfa_offset 8
 2099              		.cfi_offset 7, -8
 2100              		.cfi_offset 14, -4
 2101 0002 86B0     		sub	sp, sp, #24
 2102              		.cfi_def_cfa_offset 32
 2103 0004 00AF     		add	r7, sp, #0
 2104              		.cfi_def_cfa_register 7
 2105 0006 F860     		str	r0, [r7, #12]
 2106 0008 B960     		str	r1, [r7, #8]
 2107 000a 7A60     		str	r2, [r7, #4]
ARM GAS  C:\Users\fneves\AppData\Local\Temp\ccoNsDRu.s 			page 55


 962:Generated_Source\PSoC4/CyDMA.c ****     uint32 regValue;
 963:Generated_Source\PSoC4/CyDMA.c ****     
 964:Generated_Source\PSoC4/CyDMA.c ****     CYASSERT((channel    >= 0) && (channel    < CYDMA_CH_NR));
 2108              		.loc 1 964 0
 2109 000c FB68     		ldr	r3, [r7, #12]
 2110 000e 002B     		cmp	r3, #0
 2111 0010 04DB     		blt	.L207
 2112              		.loc 1 964 0 is_stmt 0 discriminator 1
 2113 0012 FB68     		ldr	r3, [r7, #12]
 2114 0014 072B     		cmp	r3, #7
 2115 0016 01DC     		bgt	.L207
 2116              		.loc 1 964 0 discriminator 3
 2117 0018 0123     		mov	r3, #1
 2118 001a 00E0     		b	.L208
 2119              	.L207:
 2120              		.loc 1 964 0 discriminator 4
 2121 001c 0023     		mov	r3, #0
 2122              	.L208:
 2123              		.loc 1 964 0 discriminator 6
 2124 001e 002B     		cmp	r3, #0
 2125 0020 02D1     		bne	.L209
 2126              		.loc 1 964 0 discriminator 7
 2127 0022 0020     		mov	r0, #0
 2128 0024 FFF7FEFF 		bl	CyHalt
 2129              	.L209:
 965:Generated_Source\PSoC4/CyDMA.c ****     CYASSERT((descriptor >= 0) && (descriptor < CYDMA_DESCR_NR));
 2130              		.loc 1 965 0 is_stmt 1
 2131 0028 BB68     		ldr	r3, [r7, #8]
 2132 002a 002B     		cmp	r3, #0
 2133 002c 04DB     		blt	.L210
 2134              		.loc 1 965 0 is_stmt 0 discriminator 1
 2135 002e BB68     		ldr	r3, [r7, #8]
 2136 0030 012B     		cmp	r3, #1
 2137 0032 01DC     		bgt	.L210
 2138              		.loc 1 965 0 discriminator 3
 2139 0034 0123     		mov	r3, #1
 2140 0036 00E0     		b	.L211
 2141              	.L210:
 2142              		.loc 1 965 0 discriminator 4
 2143 0038 0023     		mov	r3, #0
 2144              	.L211:
 2145              		.loc 1 965 0 discriminator 6
 2146 003a 002B     		cmp	r3, #0
 2147 003c 02D1     		bne	.L212
 2148              		.loc 1 965 0 discriminator 7
 2149 003e 0020     		mov	r0, #0
 2150 0040 FFF7FEFF 		bl	CyHalt
 2151              	.L212:
 966:Generated_Source\PSoC4/CyDMA.c ****     CYASSERT(0u == (dataElementSize & (uint32)~CYDMA_DATA_SIZE));
 2152              		.loc 1 966 0 is_stmt 1
 2153 0044 7B68     		ldr	r3, [r7, #4]
 2154 0046 104A     		ldr	r2, .L214
 2155 0048 1340     		and	r3, r2
 2156 004a 02D0     		beq	.L213
 2157              		.loc 1 966 0 is_stmt 0 discriminator 1
 2158 004c 0020     		mov	r0, #0
 2159 004e FFF7FEFF 		bl	CyHalt
ARM GAS  C:\Users\fneves\AppData\Local\Temp\ccoNsDRu.s 			page 56


 2160              	.L213:
 967:Generated_Source\PSoC4/CyDMA.c **** 
 968:Generated_Source\PSoC4/CyDMA.c ****     regValue = CYDMA_DESCR_BASE.descriptor[channel][descriptor].ctl & (uint32)~CYDMA_DATA_SIZE;
 2161              		.loc 1 968 0 is_stmt 1
 2162 0052 0E49     		ldr	r1, .L214+4
 2163 0054 FB68     		ldr	r3, [r7, #12]
 2164 0056 5A00     		lsl	r2, r3, #1
 2165 0058 BB68     		ldr	r3, [r7, #8]
 2166 005a D318     		add	r3, r2, r3
 2167 005c 1B01     		lsl	r3, r3, #4
 2168 005e CB18     		add	r3, r1, r3
 2169 0060 0833     		add	r3, r3, #8
 2170 0062 1B68     		ldr	r3, [r3]
 2171 0064 084A     		ldr	r2, .L214
 2172 0066 1340     		and	r3, r2
 2173 0068 7B61     		str	r3, [r7, #20]
 969:Generated_Source\PSoC4/CyDMA.c ****     CYDMA_DESCR_BASE.descriptor[channel][descriptor].ctl = regValue | dataElementSize;
 2174              		.loc 1 969 0
 2175 006a 0848     		ldr	r0, .L214+4
 2176 006c 7A69     		ldr	r2, [r7, #20]
 2177 006e 7B68     		ldr	r3, [r7, #4]
 2178 0070 1A43     		orr	r2, r3
 2179 0072 FB68     		ldr	r3, [r7, #12]
 2180 0074 5900     		lsl	r1, r3, #1
 2181 0076 BB68     		ldr	r3, [r7, #8]
 2182 0078 CB18     		add	r3, r1, r3
 2183 007a 1B01     		lsl	r3, r3, #4
 2184 007c C318     		add	r3, r0, r3
 2185 007e 0833     		add	r3, r3, #8
 2186 0080 1A60     		str	r2, [r3]
 970:Generated_Source\PSoC4/CyDMA.c **** }
 2187              		.loc 1 970 0
 2188 0082 BD46     		mov	sp, r7
 2189 0084 06B0     		add	sp, sp, #24
 2190              		@ sp needed
 2191 0086 80BD     		pop	{r7, pc}
 2192              	.L215:
 2193              		.align	2
 2194              	.L214:
 2195 0088 FFFFFCFF 		.word	-196609
 2196 008c 00181040 		.word	1074796544
 2197              		.cfi_endproc
 2198              	.LFE33:
 2199              		.size	CyDmaSetDataElementSize, .-CyDmaSetDataElementSize
 2200              		.section	.text.CyDmaGetDataElementSize,"ax",%progbits
 2201              		.align	2
 2202              		.global	CyDmaGetDataElementSize
 2203              		.code	16
 2204              		.thumb_func
 2205              		.type	CyDmaGetDataElementSize, %function
 2206              	CyDmaGetDataElementSize:
 2207              	.LFB34:
 971:Generated_Source\PSoC4/CyDMA.c **** 
 972:Generated_Source\PSoC4/CyDMA.c **** 
 973:Generated_Source\PSoC4/CyDMA.c **** /*******************************************************************************
 974:Generated_Source\PSoC4/CyDMA.c **** * Function Name: CyDmaGetDataElementSize
 975:Generated_Source\PSoC4/CyDMA.c **** ********************************************************************************
ARM GAS  C:\Users\fneves\AppData\Local\Temp\ccoNsDRu.s 			page 57


 976:Generated_Source\PSoC4/CyDMA.c **** *
 977:Generated_Source\PSoC4/CyDMA.c **** * Summary:
 978:Generated_Source\PSoC4/CyDMA.c **** *  Returns the data element size configured for the specified descriptor, set by
 979:Generated_Source\PSoC4/CyDMA.c **** *  CyDmaSetDataElementSize() or CyDmaSetConfiguration.
 980:Generated_Source\PSoC4/CyDMA.c **** *
 981:Generated_Source\PSoC4/CyDMA.c **** * Parameters:
 982:Generated_Source\PSoC4/CyDMA.c **** *  channel:    Channel used by this function.
 983:Generated_Source\PSoC4/CyDMA.c **** *  descriptor: Descriptor (0 or 1) modified by this function.
 984:Generated_Source\PSoC4/CyDMA.c **** *                   
 985:Generated_Source\PSoC4/CyDMA.c **** * Return:
 986:Generated_Source\PSoC4/CyDMA.c **** *  The size of the data element. The DMA transfer engine transfers one data
 987:Generated_Source\PSoC4/CyDMA.c **** *  element at a time. How these transfers occur is controlled by the transfer
 988:Generated_Source\PSoC4/CyDMA.c **** *  mode. Refer to the API bit field definitions in CyDMA_P4.h or the API 
 989:Generated_Source\PSoC4/CyDMA.c **** *  description in the DMA channel datasheet for more information.
 990:Generated_Source\PSoC4/CyDMA.c **** *
 991:Generated_Source\PSoC4/CyDMA.c **** * Note:
 992:Generated_Source\PSoC4/CyDMA.c **** *  The size of the source and destination can be configured to use the
 993:Generated_Source\PSoC4/CyDMA.c **** *  data element size, or a Word, this is set in CyDmaSetSrcDstTransferWidth().
 994:Generated_Source\PSoC4/CyDMA.c **** *
 995:Generated_Source\PSoC4/CyDMA.c **** *******************************************************************************/
 996:Generated_Source\PSoC4/CyDMA.c **** uint32 CyDmaGetDataElementSize(int32 channel, int32 descriptor)
 997:Generated_Source\PSoC4/CyDMA.c **** {
 2208              		.loc 1 997 0
 2209              		.cfi_startproc
 2210 0000 80B5     		push	{r7, lr}
 2211              		.cfi_def_cfa_offset 8
 2212              		.cfi_offset 7, -8
 2213              		.cfi_offset 14, -4
 2214 0002 82B0     		sub	sp, sp, #8
 2215              		.cfi_def_cfa_offset 16
 2216 0004 00AF     		add	r7, sp, #0
 2217              		.cfi_def_cfa_register 7
 2218 0006 7860     		str	r0, [r7, #4]
 2219 0008 3960     		str	r1, [r7]
 998:Generated_Source\PSoC4/CyDMA.c ****     CYASSERT((channel    >= 0) && (channel    < CYDMA_CH_NR));
 2220              		.loc 1 998 0
 2221 000a 7B68     		ldr	r3, [r7, #4]
 2222 000c 002B     		cmp	r3, #0
 2223 000e 04DB     		blt	.L217
 2224              		.loc 1 998 0 is_stmt 0 discriminator 1
 2225 0010 7B68     		ldr	r3, [r7, #4]
 2226 0012 072B     		cmp	r3, #7
 2227 0014 01DC     		bgt	.L217
 2228              		.loc 1 998 0 discriminator 3
 2229 0016 0123     		mov	r3, #1
 2230 0018 00E0     		b	.L218
 2231              	.L217:
 2232              		.loc 1 998 0 discriminator 4
 2233 001a 0023     		mov	r3, #0
 2234              	.L218:
 2235              		.loc 1 998 0 discriminator 6
 2236 001c 002B     		cmp	r3, #0
 2237 001e 02D1     		bne	.L219
 2238              		.loc 1 998 0 discriminator 7
 2239 0020 0020     		mov	r0, #0
 2240 0022 FFF7FEFF 		bl	CyHalt
 2241              	.L219:
ARM GAS  C:\Users\fneves\AppData\Local\Temp\ccoNsDRu.s 			page 58


 999:Generated_Source\PSoC4/CyDMA.c ****     CYASSERT((descriptor >= 0) && (descriptor < CYDMA_DESCR_NR));
 2242              		.loc 1 999 0 is_stmt 1
 2243 0026 3B68     		ldr	r3, [r7]
 2244 0028 002B     		cmp	r3, #0
 2245 002a 04DB     		blt	.L220
 2246              		.loc 1 999 0 is_stmt 0 discriminator 1
 2247 002c 3B68     		ldr	r3, [r7]
 2248 002e 012B     		cmp	r3, #1
 2249 0030 01DC     		bgt	.L220
 2250              		.loc 1 999 0 discriminator 3
 2251 0032 0123     		mov	r3, #1
 2252 0034 00E0     		b	.L221
 2253              	.L220:
 2254              		.loc 1 999 0 discriminator 4
 2255 0036 0023     		mov	r3, #0
 2256              	.L221:
 2257              		.loc 1 999 0 discriminator 6
 2258 0038 002B     		cmp	r3, #0
 2259 003a 02D1     		bne	.L222
 2260              		.loc 1 999 0 discriminator 7
 2261 003c 0020     		mov	r0, #0
 2262 003e FFF7FEFF 		bl	CyHalt
 2263              	.L222:
1000:Generated_Source\PSoC4/CyDMA.c **** 
1001:Generated_Source\PSoC4/CyDMA.c ****     return (CYDMA_DESCR_BASE.descriptor[channel][descriptor].ctl & CYDMA_DATA_SIZE);
 2264              		.loc 1 1001 0 is_stmt 1
 2265 0042 0849     		ldr	r1, .L224
 2266 0044 7B68     		ldr	r3, [r7, #4]
 2267 0046 5A00     		lsl	r2, r3, #1
 2268 0048 3B68     		ldr	r3, [r7]
 2269 004a D318     		add	r3, r2, r3
 2270 004c 1B01     		lsl	r3, r3, #4
 2271 004e CB18     		add	r3, r1, r3
 2272 0050 0833     		add	r3, r3, #8
 2273 0052 1A68     		ldr	r2, [r3]
 2274 0054 C023     		mov	r3, #192
 2275 0056 9B02     		lsl	r3, r3, #10
 2276 0058 1340     		and	r3, r2
1002:Generated_Source\PSoC4/CyDMA.c **** }
 2277              		.loc 1 1002 0
 2278 005a 181C     		mov	r0, r3
 2279 005c BD46     		mov	sp, r7
 2280 005e 02B0     		add	sp, sp, #8
 2281              		@ sp needed
 2282 0060 80BD     		pop	{r7, pc}
 2283              	.L225:
 2284 0062 C046     		.align	2
 2285              	.L224:
 2286 0064 00181040 		.word	1074796544
 2287              		.cfi_endproc
 2288              	.LFE34:
 2289              		.size	CyDmaGetDataElementSize, .-CyDmaGetDataElementSize
 2290              		.section	.text.CyDmaSetNumDataElements,"ax",%progbits
 2291              		.align	2
 2292              		.global	CyDmaSetNumDataElements
 2293              		.code	16
 2294              		.thumb_func
ARM GAS  C:\Users\fneves\AppData\Local\Temp\ccoNsDRu.s 			page 59


 2295              		.type	CyDmaSetNumDataElements, %function
 2296              	CyDmaSetNumDataElements:
 2297              	.LFB35:
1003:Generated_Source\PSoC4/CyDMA.c **** 
1004:Generated_Source\PSoC4/CyDMA.c **** 
1005:Generated_Source\PSoC4/CyDMA.c **** /*******************************************************************************
1006:Generated_Source\PSoC4/CyDMA.c **** * Function Name: CyDmaSetNumDataElements
1007:Generated_Source\PSoC4/CyDMA.c **** ********************************************************************************
1008:Generated_Source\PSoC4/CyDMA.c **** *
1009:Generated_Source\PSoC4/CyDMA.c **** * Summary:
1010:Generated_Source\PSoC4/CyDMA.c **** *  Sets the number of data elements to transfer for specified descriptor.
1011:Generated_Source\PSoC4/CyDMA.c **** *
1012:Generated_Source\PSoC4/CyDMA.c **** * Parameters:
1013:Generated_Source\PSoC4/CyDMA.c **** *  channel:         Channel used by this function.
1014:Generated_Source\PSoC4/CyDMA.c **** *  descriptor:      Descriptor (0 or 1) modified by this function.
1015:Generated_Source\PSoC4/CyDMA.c **** *  numDataElements: Total number of data elements this descriptor transfers.
1016:Generated_Source\PSoC4/CyDMA.c **** *                   Valid ranges are 1 to 65536.
1017:Generated_Source\PSoC4/CyDMA.c **** *                   
1018:Generated_Source\PSoC4/CyDMA.c **** * Return:
1019:Generated_Source\PSoC4/CyDMA.c **** *  None.
1020:Generated_Source\PSoC4/CyDMA.c **** *
1021:Generated_Source\PSoC4/CyDMA.c **** * Side effect:
1022:Generated_Source\PSoC4/CyDMA.c **** *  This function should not be called when the specified descriptor is active
1023:Generated_Source\PSoC4/CyDMA.c **** *  in the DMA transfer engine. This can be checked by calling CyDmaGetStatus(). 
1024:Generated_Source\PSoC4/CyDMA.c **** *
1025:Generated_Source\PSoC4/CyDMA.c **** *******************************************************************************/
1026:Generated_Source\PSoC4/CyDMA.c **** void CyDmaSetNumDataElements(int32 channel, int32 descriptor, int32 numDataElements)
1027:Generated_Source\PSoC4/CyDMA.c **** {
 2298              		.loc 1 1027 0
 2299              		.cfi_startproc
 2300 0000 80B5     		push	{r7, lr}
 2301              		.cfi_def_cfa_offset 8
 2302              		.cfi_offset 7, -8
 2303              		.cfi_offset 14, -4
 2304 0002 86B0     		sub	sp, sp, #24
 2305              		.cfi_def_cfa_offset 32
 2306 0004 00AF     		add	r7, sp, #0
 2307              		.cfi_def_cfa_register 7
 2308 0006 F860     		str	r0, [r7, #12]
 2309 0008 B960     		str	r1, [r7, #8]
 2310 000a 7A60     		str	r2, [r7, #4]
1028:Generated_Source\PSoC4/CyDMA.c ****     uint32 regValue;
1029:Generated_Source\PSoC4/CyDMA.c ****     
1030:Generated_Source\PSoC4/CyDMA.c ****     CYASSERT((channel        >= 0) && (channel         <  CYDMA_CH_NR));
 2311              		.loc 1 1030 0
 2312 000c FB68     		ldr	r3, [r7, #12]
 2313 000e 002B     		cmp	r3, #0
 2314 0010 04DB     		blt	.L227
 2315              		.loc 1 1030 0 is_stmt 0 discriminator 1
 2316 0012 FB68     		ldr	r3, [r7, #12]
 2317 0014 072B     		cmp	r3, #7
 2318 0016 01DC     		bgt	.L227
 2319              		.loc 1 1030 0 discriminator 3
 2320 0018 0123     		mov	r3, #1
 2321 001a 00E0     		b	.L228
 2322              	.L227:
 2323              		.loc 1 1030 0 discriminator 4
ARM GAS  C:\Users\fneves\AppData\Local\Temp\ccoNsDRu.s 			page 60


 2324 001c 0023     		mov	r3, #0
 2325              	.L228:
 2326              		.loc 1 1030 0 discriminator 6
 2327 001e 002B     		cmp	r3, #0
 2328 0020 02D1     		bne	.L229
 2329              		.loc 1 1030 0 discriminator 7
 2330 0022 0020     		mov	r0, #0
 2331 0024 FFF7FEFF 		bl	CyHalt
 2332              	.L229:
1031:Generated_Source\PSoC4/CyDMA.c ****     CYASSERT((descriptor     >= 0) && (descriptor      <  CYDMA_DESCR_NR));
 2333              		.loc 1 1031 0 is_stmt 1
 2334 0028 BB68     		ldr	r3, [r7, #8]
 2335 002a 002B     		cmp	r3, #0
 2336 002c 04DB     		blt	.L230
 2337              		.loc 1 1031 0 is_stmt 0 discriminator 1
 2338 002e BB68     		ldr	r3, [r7, #8]
 2339 0030 012B     		cmp	r3, #1
 2340 0032 01DC     		bgt	.L230
 2341              		.loc 1 1031 0 discriminator 3
 2342 0034 0123     		mov	r3, #1
 2343 0036 00E0     		b	.L231
 2344              	.L230:
 2345              		.loc 1 1031 0 discriminator 4
 2346 0038 0023     		mov	r3, #0
 2347              	.L231:
 2348              		.loc 1 1031 0 discriminator 6
 2349 003a 002B     		cmp	r3, #0
 2350 003c 02D1     		bne	.L232
 2351              		.loc 1 1031 0 discriminator 7
 2352 003e 0020     		mov	r0, #0
 2353 0040 FFF7FEFF 		bl	CyHalt
 2354              	.L232:
1032:Generated_Source\PSoC4/CyDMA.c ****     CYASSERT((numDataElements > 0) && (numDataElements <= CYDMA_MAX_DATA_NR));
 2355              		.loc 1 1032 0 is_stmt 1
 2356 0044 7B68     		ldr	r3, [r7, #4]
 2357 0046 002B     		cmp	r3, #0
 2358 0048 06DD     		ble	.L233
 2359              		.loc 1 1032 0 is_stmt 0 discriminator 1
 2360 004a 7A68     		ldr	r2, [r7, #4]
 2361 004c 8023     		mov	r3, #128
 2362 004e 5B02     		lsl	r3, r3, #9
 2363 0050 9A42     		cmp	r2, r3
 2364 0052 01DC     		bgt	.L233
 2365              		.loc 1 1032 0 discriminator 3
 2366 0054 0123     		mov	r3, #1
 2367 0056 00E0     		b	.L234
 2368              	.L233:
 2369              		.loc 1 1032 0 discriminator 4
 2370 0058 0023     		mov	r3, #0
 2371              	.L234:
 2372              		.loc 1 1032 0 discriminator 6
 2373 005a 002B     		cmp	r3, #0
 2374 005c 02D1     		bne	.L235
 2375              		.loc 1 1032 0 discriminator 7
 2376 005e 0020     		mov	r0, #0
 2377 0060 FFF7FEFF 		bl	CyHalt
 2378              	.L235:
ARM GAS  C:\Users\fneves\AppData\Local\Temp\ccoNsDRu.s 			page 61


1033:Generated_Source\PSoC4/CyDMA.c ****     
1034:Generated_Source\PSoC4/CyDMA.c ****     --numDataElements;
 2379              		.loc 1 1034 0 is_stmt 1
 2380 0064 7B68     		ldr	r3, [r7, #4]
 2381 0066 013B     		sub	r3, r3, #1
 2382 0068 7B60     		str	r3, [r7, #4]
1035:Generated_Source\PSoC4/CyDMA.c ****     regValue = CYDMA_DESCR_BASE.descriptor[channel][descriptor].ctl & (uint32)~CYDMA_DATA_NR;
 2383              		.loc 1 1035 0
 2384 006a 0D49     		ldr	r1, .L236
 2385 006c FB68     		ldr	r3, [r7, #12]
 2386 006e 5A00     		lsl	r2, r3, #1
 2387 0070 BB68     		ldr	r3, [r7, #8]
 2388 0072 D318     		add	r3, r2, r3
 2389 0074 1B01     		lsl	r3, r3, #4
 2390 0076 CB18     		add	r3, r1, r3
 2391 0078 0833     		add	r3, r3, #8
 2392 007a 1B68     		ldr	r3, [r3]
 2393 007c 1B0C     		lsr	r3, r3, #16
 2394 007e 1B04     		lsl	r3, r3, #16
 2395 0080 7B61     		str	r3, [r7, #20]
1036:Generated_Source\PSoC4/CyDMA.c ****     CYDMA_DESCR_BASE.descriptor[channel][descriptor].ctl = regValue | (uint32)numDataElements;
 2396              		.loc 1 1036 0
 2397 0082 0748     		ldr	r0, .L236
 2398 0084 7A68     		ldr	r2, [r7, #4]
 2399 0086 7B69     		ldr	r3, [r7, #20]
 2400 0088 1A43     		orr	r2, r3
 2401 008a FB68     		ldr	r3, [r7, #12]
 2402 008c 5900     		lsl	r1, r3, #1
 2403 008e BB68     		ldr	r3, [r7, #8]
 2404 0090 CB18     		add	r3, r1, r3
 2405 0092 1B01     		lsl	r3, r3, #4
 2406 0094 C318     		add	r3, r0, r3
 2407 0096 0833     		add	r3, r3, #8
 2408 0098 1A60     		str	r2, [r3]
1037:Generated_Source\PSoC4/CyDMA.c **** }
 2409              		.loc 1 1037 0
 2410 009a BD46     		mov	sp, r7
 2411 009c 06B0     		add	sp, sp, #24
 2412              		@ sp needed
 2413 009e 80BD     		pop	{r7, pc}
 2414              	.L237:
 2415              		.align	2
 2416              	.L236:
 2417 00a0 00181040 		.word	1074796544
 2418              		.cfi_endproc
 2419              	.LFE35:
 2420              		.size	CyDmaSetNumDataElements, .-CyDmaSetNumDataElements
 2421              		.section	.text.CyDmaGetNumDataElements,"ax",%progbits
 2422              		.align	2
 2423              		.global	CyDmaGetNumDataElements
 2424              		.code	16
 2425              		.thumb_func
 2426              		.type	CyDmaGetNumDataElements, %function
 2427              	CyDmaGetNumDataElements:
 2428              	.LFB36:
1038:Generated_Source\PSoC4/CyDMA.c **** 
1039:Generated_Source\PSoC4/CyDMA.c **** 
ARM GAS  C:\Users\fneves\AppData\Local\Temp\ccoNsDRu.s 			page 62


1040:Generated_Source\PSoC4/CyDMA.c **** /*******************************************************************************
1041:Generated_Source\PSoC4/CyDMA.c **** * Function Name: CyDmaGetNumDataElements
1042:Generated_Source\PSoC4/CyDMA.c **** ********************************************************************************
1043:Generated_Source\PSoC4/CyDMA.c **** *
1044:Generated_Source\PSoC4/CyDMA.c **** * Summary:
1045:Generated_Source\PSoC4/CyDMA.c **** *  Returns the number of data elements to be transferred. Only reflects the
1046:Generated_Source\PSoC4/CyDMA.c **** *  value written by CyDmaSetNumDataElements() or CyDmaSetConfiguration(). This
1047:Generated_Source\PSoC4/CyDMA.c **** *  does not reflect how many elements have been transferred. For that
1048:Generated_Source\PSoC4/CyDMA.c **** *  information use the CyDmaGetDescriptorStatus() function.
1049:Generated_Source\PSoC4/CyDMA.c **** *
1050:Generated_Source\PSoC4/CyDMA.c **** * Parameters:
1051:Generated_Source\PSoC4/CyDMA.c **** *  channel:    Channel used by this function.
1052:Generated_Source\PSoC4/CyDMA.c **** *  descriptor: Descriptor (0 or 1) modified by this function.
1053:Generated_Source\PSoC4/CyDMA.c **** *                   
1054:Generated_Source\PSoC4/CyDMA.c **** * Return:
1055:Generated_Source\PSoC4/CyDMA.c **** *  Number of data elements to transfer.
1056:Generated_Source\PSoC4/CyDMA.c **** *
1057:Generated_Source\PSoC4/CyDMA.c **** *******************************************************************************/
1058:Generated_Source\PSoC4/CyDMA.c **** int32 CyDmaGetNumDataElements(int32 channel, int32 descriptor)
1059:Generated_Source\PSoC4/CyDMA.c **** {
 2429              		.loc 1 1059 0
 2430              		.cfi_startproc
 2431 0000 80B5     		push	{r7, lr}
 2432              		.cfi_def_cfa_offset 8
 2433              		.cfi_offset 7, -8
 2434              		.cfi_offset 14, -4
 2435 0002 84B0     		sub	sp, sp, #16
 2436              		.cfi_def_cfa_offset 24
 2437 0004 00AF     		add	r7, sp, #0
 2438              		.cfi_def_cfa_register 7
 2439 0006 7860     		str	r0, [r7, #4]
 2440 0008 3960     		str	r1, [r7]
1060:Generated_Source\PSoC4/CyDMA.c ****     uint32 numElements;
1061:Generated_Source\PSoC4/CyDMA.c **** 
1062:Generated_Source\PSoC4/CyDMA.c ****     CYASSERT((channel    >= 0) && (channel    < CYDMA_CH_NR));
 2441              		.loc 1 1062 0
 2442 000a 7B68     		ldr	r3, [r7, #4]
 2443 000c 002B     		cmp	r3, #0
 2444 000e 04DB     		blt	.L239
 2445              		.loc 1 1062 0 is_stmt 0 discriminator 1
 2446 0010 7B68     		ldr	r3, [r7, #4]
 2447 0012 072B     		cmp	r3, #7
 2448 0014 01DC     		bgt	.L239
 2449              		.loc 1 1062 0 discriminator 3
 2450 0016 0123     		mov	r3, #1
 2451 0018 00E0     		b	.L240
 2452              	.L239:
 2453              		.loc 1 1062 0 discriminator 4
 2454 001a 0023     		mov	r3, #0
 2455              	.L240:
 2456              		.loc 1 1062 0 discriminator 6
 2457 001c 002B     		cmp	r3, #0
 2458 001e 02D1     		bne	.L241
 2459              		.loc 1 1062 0 discriminator 7
 2460 0020 0020     		mov	r0, #0
 2461 0022 FFF7FEFF 		bl	CyHalt
 2462              	.L241:
ARM GAS  C:\Users\fneves\AppData\Local\Temp\ccoNsDRu.s 			page 63


1063:Generated_Source\PSoC4/CyDMA.c ****     CYASSERT((descriptor >= 0) && (descriptor < CYDMA_DESCR_NR));
 2463              		.loc 1 1063 0 is_stmt 1
 2464 0026 3B68     		ldr	r3, [r7]
 2465 0028 002B     		cmp	r3, #0
 2466 002a 04DB     		blt	.L242
 2467              		.loc 1 1063 0 is_stmt 0 discriminator 1
 2468 002c 3B68     		ldr	r3, [r7]
 2469 002e 012B     		cmp	r3, #1
 2470 0030 01DC     		bgt	.L242
 2471              		.loc 1 1063 0 discriminator 3
 2472 0032 0123     		mov	r3, #1
 2473 0034 00E0     		b	.L243
 2474              	.L242:
 2475              		.loc 1 1063 0 discriminator 4
 2476 0036 0023     		mov	r3, #0
 2477              	.L243:
 2478              		.loc 1 1063 0 discriminator 6
 2479 0038 002B     		cmp	r3, #0
 2480 003a 02D1     		bne	.L244
 2481              		.loc 1 1063 0 discriminator 7
 2482 003c 0020     		mov	r0, #0
 2483 003e FFF7FEFF 		bl	CyHalt
 2484              	.L244:
1064:Generated_Source\PSoC4/CyDMA.c ****     
1065:Generated_Source\PSoC4/CyDMA.c ****     numElements = (CYDMA_DESCR_BASE.descriptor[channel][descriptor].ctl & CYDMA_DATA_NR) + 1u;
 2485              		.loc 1 1065 0 is_stmt 1
 2486 0042 0949     		ldr	r1, .L246
 2487 0044 7B68     		ldr	r3, [r7, #4]
 2488 0046 5A00     		lsl	r2, r3, #1
 2489 0048 3B68     		ldr	r3, [r7]
 2490 004a D318     		add	r3, r2, r3
 2491 004c 1B01     		lsl	r3, r3, #4
 2492 004e CB18     		add	r3, r1, r3
 2493 0050 0833     		add	r3, r3, #8
 2494 0052 1B68     		ldr	r3, [r3]
 2495 0054 1B04     		lsl	r3, r3, #16
 2496 0056 1B0C     		lsr	r3, r3, #16
 2497 0058 0133     		add	r3, r3, #1
 2498 005a FB60     		str	r3, [r7, #12]
1066:Generated_Source\PSoC4/CyDMA.c ****     return ((int32)numElements);
 2499              		.loc 1 1066 0
 2500 005c FB68     		ldr	r3, [r7, #12]
1067:Generated_Source\PSoC4/CyDMA.c **** }
 2501              		.loc 1 1067 0
 2502 005e 181C     		mov	r0, r3
 2503 0060 BD46     		mov	sp, r7
 2504 0062 04B0     		add	sp, sp, #16
 2505              		@ sp needed
 2506 0064 80BD     		pop	{r7, pc}
 2507              	.L247:
 2508 0066 C046     		.align	2
 2509              	.L246:
 2510 0068 00181040 		.word	1074796544
 2511              		.cfi_endproc
 2512              	.LFE36:
 2513              		.size	CyDmaGetNumDataElements, .-CyDmaGetNumDataElements
 2514              		.section	.text.CyDmaSetSrcDstTransferWidth,"ax",%progbits
ARM GAS  C:\Users\fneves\AppData\Local\Temp\ccoNsDRu.s 			page 64


 2515              		.align	2
 2516              		.global	CyDmaSetSrcDstTransferWidth
 2517              		.code	16
 2518              		.thumb_func
 2519              		.type	CyDmaSetSrcDstTransferWidth, %function
 2520              	CyDmaSetSrcDstTransferWidth:
 2521              	.LFB37:
1068:Generated_Source\PSoC4/CyDMA.c **** 
1069:Generated_Source\PSoC4/CyDMA.c **** 
1070:Generated_Source\PSoC4/CyDMA.c **** /*******************************************************************************
1071:Generated_Source\PSoC4/CyDMA.c **** * Function Name: CyDmaSetSrcDstTransferWidth
1072:Generated_Source\PSoC4/CyDMA.c **** ********************************************************************************
1073:Generated_Source\PSoC4/CyDMA.c **** *
1074:Generated_Source\PSoC4/CyDMA.c **** * Summary:
1075:Generated_Source\PSoC4/CyDMA.c **** *  Sets the width of the source and destination. The DMA can either read and
1076:Generated_Source\PSoC4/CyDMA.c **** *  write data from the source and destination at the size specified by
1077:Generated_Source\PSoC4/CyDMA.c **** *  CyDmaSetDataElementSize() or by a word (4bytes). This also determines how
1078:Generated_Source\PSoC4/CyDMA.c **** *  many bytes the addresses are incremented if increment source and destination
1079:Generated_Source\PSoC4/CyDMA.c **** *  address are turned on.
1080:Generated_Source\PSoC4/CyDMA.c **** *
1081:Generated_Source\PSoC4/CyDMA.c **** * Parameters:
1082:Generated_Source\PSoC4/CyDMA.c **** *  channel:       Channel used by this function.
1083:Generated_Source\PSoC4/CyDMA.c **** *  descriptor:    Descriptor (0 or 1) modified by this function.
1084:Generated_Source\PSoC4/CyDMA.c **** *  transferWidth: Specifies the source and destination widths. Refer to 
1085:Generated_Source\PSoC4/CyDMA.c **** *                 the API bit field definitions in CyDMA_P4.h or the API
1086:Generated_Source\PSoC4/CyDMA.c **** *                 description in the DMA channel datasheet for the parameter
1087:Generated_Source\PSoC4/CyDMA.c **** *                 options.
1088:Generated_Source\PSoC4/CyDMA.c **** *                   
1089:Generated_Source\PSoC4/CyDMA.c **** * Return:
1090:Generated_Source\PSoC4/CyDMA.c **** *  None.
1091:Generated_Source\PSoC4/CyDMA.c **** *
1092:Generated_Source\PSoC4/CyDMA.c **** * Side effect:
1093:Generated_Source\PSoC4/CyDMA.c **** *  This function should not be called when the specified descriptor is active
1094:Generated_Source\PSoC4/CyDMA.c **** *  in the DMA transfer engine. This can be checked by calling CyDmaGetStatus(). 
1095:Generated_Source\PSoC4/CyDMA.c **** *
1096:Generated_Source\PSoC4/CyDMA.c **** *******************************************************************************/
1097:Generated_Source\PSoC4/CyDMA.c **** void CyDmaSetSrcDstTransferWidth(int32 channel, int32 descriptor, uint32 transferWidth)
1098:Generated_Source\PSoC4/CyDMA.c **** {
 2522              		.loc 1 1098 0
 2523              		.cfi_startproc
 2524 0000 80B5     		push	{r7, lr}
 2525              		.cfi_def_cfa_offset 8
 2526              		.cfi_offset 7, -8
 2527              		.cfi_offset 14, -4
 2528 0002 86B0     		sub	sp, sp, #24
 2529              		.cfi_def_cfa_offset 32
 2530 0004 00AF     		add	r7, sp, #0
 2531              		.cfi_def_cfa_register 7
 2532 0006 F860     		str	r0, [r7, #12]
 2533 0008 B960     		str	r1, [r7, #8]
 2534 000a 7A60     		str	r2, [r7, #4]
1099:Generated_Source\PSoC4/CyDMA.c ****     uint32 regValue;
1100:Generated_Source\PSoC4/CyDMA.c **** 
1101:Generated_Source\PSoC4/CyDMA.c ****     CYASSERT((channel    >= 0) && (channel    < CYDMA_CH_NR));
 2535              		.loc 1 1101 0
 2536 000c FB68     		ldr	r3, [r7, #12]
 2537 000e 002B     		cmp	r3, #0
ARM GAS  C:\Users\fneves\AppData\Local\Temp\ccoNsDRu.s 			page 65


 2538 0010 04DB     		blt	.L249
 2539              		.loc 1 1101 0 is_stmt 0 discriminator 1
 2540 0012 FB68     		ldr	r3, [r7, #12]
 2541 0014 072B     		cmp	r3, #7
 2542 0016 01DC     		bgt	.L249
 2543              		.loc 1 1101 0 discriminator 3
 2544 0018 0123     		mov	r3, #1
 2545 001a 00E0     		b	.L250
 2546              	.L249:
 2547              		.loc 1 1101 0 discriminator 4
 2548 001c 0023     		mov	r3, #0
 2549              	.L250:
 2550              		.loc 1 1101 0 discriminator 6
 2551 001e 002B     		cmp	r3, #0
 2552 0020 02D1     		bne	.L251
 2553              		.loc 1 1101 0 discriminator 7
 2554 0022 0020     		mov	r0, #0
 2555 0024 FFF7FEFF 		bl	CyHalt
 2556              	.L251:
1102:Generated_Source\PSoC4/CyDMA.c ****     CYASSERT((descriptor >= 0) && (descriptor < CYDMA_DESCR_NR));
 2557              		.loc 1 1102 0 is_stmt 1
 2558 0028 BB68     		ldr	r3, [r7, #8]
 2559 002a 002B     		cmp	r3, #0
 2560 002c 04DB     		blt	.L252
 2561              		.loc 1 1102 0 is_stmt 0 discriminator 1
 2562 002e BB68     		ldr	r3, [r7, #8]
 2563 0030 012B     		cmp	r3, #1
 2564 0032 01DC     		bgt	.L252
 2565              		.loc 1 1102 0 discriminator 3
 2566 0034 0123     		mov	r3, #1
 2567 0036 00E0     		b	.L253
 2568              	.L252:
 2569              		.loc 1 1102 0 discriminator 4
 2570 0038 0023     		mov	r3, #0
 2571              	.L253:
 2572              		.loc 1 1102 0 discriminator 6
 2573 003a 002B     		cmp	r3, #0
 2574 003c 02D1     		bne	.L254
 2575              		.loc 1 1102 0 discriminator 7
 2576 003e 0020     		mov	r0, #0
 2577 0040 FFF7FEFF 		bl	CyHalt
 2578              	.L254:
1103:Generated_Source\PSoC4/CyDMA.c ****     CYASSERT(0u == (transferWidth & (uint32)~CYDMA_TRANSFER_WIDTH));
 2579              		.loc 1 1103 0 is_stmt 1
 2580 0044 7B68     		ldr	r3, [r7, #4]
 2581 0046 104A     		ldr	r2, .L256
 2582 0048 1340     		and	r3, r2
 2583 004a 02D0     		beq	.L255
 2584              		.loc 1 1103 0 is_stmt 0 discriminator 1
 2585 004c 0020     		mov	r0, #0
 2586 004e FFF7FEFF 		bl	CyHalt
 2587              	.L255:
1104:Generated_Source\PSoC4/CyDMA.c **** 
1105:Generated_Source\PSoC4/CyDMA.c ****     regValue = CYDMA_DESCR_BASE.descriptor[channel][descriptor].ctl & (uint32)~CYDMA_TRANSFER_WIDTH
 2588              		.loc 1 1105 0 is_stmt 1
 2589 0052 0E49     		ldr	r1, .L256+4
 2590 0054 FB68     		ldr	r3, [r7, #12]
ARM GAS  C:\Users\fneves\AppData\Local\Temp\ccoNsDRu.s 			page 66


 2591 0056 5A00     		lsl	r2, r3, #1
 2592 0058 BB68     		ldr	r3, [r7, #8]
 2593 005a D318     		add	r3, r2, r3
 2594 005c 1B01     		lsl	r3, r3, #4
 2595 005e CB18     		add	r3, r1, r3
 2596 0060 0833     		add	r3, r3, #8
 2597 0062 1B68     		ldr	r3, [r3]
 2598 0064 084A     		ldr	r2, .L256
 2599 0066 1340     		and	r3, r2
 2600 0068 7B61     		str	r3, [r7, #20]
1106:Generated_Source\PSoC4/CyDMA.c ****     CYDMA_DESCR_BASE.descriptor[channel][descriptor].ctl = regValue | transferWidth;
 2601              		.loc 1 1106 0
 2602 006a 0848     		ldr	r0, .L256+4
 2603 006c 7A69     		ldr	r2, [r7, #20]
 2604 006e 7B68     		ldr	r3, [r7, #4]
 2605 0070 1A43     		orr	r2, r3
 2606 0072 FB68     		ldr	r3, [r7, #12]
 2607 0074 5900     		lsl	r1, r3, #1
 2608 0076 BB68     		ldr	r3, [r7, #8]
 2609 0078 CB18     		add	r3, r1, r3
 2610 007a 1B01     		lsl	r3, r3, #4
 2611 007c C318     		add	r3, r0, r3
 2612 007e 0833     		add	r3, r3, #8
 2613 0080 1A60     		str	r2, [r3]
1107:Generated_Source\PSoC4/CyDMA.c **** }
 2614              		.loc 1 1107 0
 2615 0082 BD46     		mov	sp, r7
 2616 0084 06B0     		add	sp, sp, #24
 2617              		@ sp needed
 2618 0086 80BD     		pop	{r7, pc}
 2619              	.L257:
 2620              		.align	2
 2621              	.L256:
 2622 0088 FFFFAFFF 		.word	-5242881
 2623 008c 00181040 		.word	1074796544
 2624              		.cfi_endproc
 2625              	.LFE37:
 2626              		.size	CyDmaSetSrcDstTransferWidth, .-CyDmaSetSrcDstTransferWidth
 2627              		.section	.text.CyDmaGetSrcDstTransferWidth,"ax",%progbits
 2628              		.align	2
 2629              		.global	CyDmaGetSrcDstTransferWidth
 2630              		.code	16
 2631              		.thumb_func
 2632              		.type	CyDmaGetSrcDstTransferWidth, %function
 2633              	CyDmaGetSrcDstTransferWidth:
 2634              	.LFB38:
1108:Generated_Source\PSoC4/CyDMA.c **** 
1109:Generated_Source\PSoC4/CyDMA.c **** 
1110:Generated_Source\PSoC4/CyDMA.c **** /*******************************************************************************
1111:Generated_Source\PSoC4/CyDMA.c **** * Function Name: CyDmaGetSrcDstTransferWidth
1112:Generated_Source\PSoC4/CyDMA.c **** ********************************************************************************
1113:Generated_Source\PSoC4/CyDMA.c **** *
1114:Generated_Source\PSoC4/CyDMA.c **** * Summary:
1115:Generated_Source\PSoC4/CyDMA.c **** *  Returns the width of the source and destination, as set by 
1116:Generated_Source\PSoC4/CyDMA.c **** *  CyDmaSetSrcDstTransferWidth() or CyDmaSetConfiguration().
1117:Generated_Source\PSoC4/CyDMA.c **** *
1118:Generated_Source\PSoC4/CyDMA.c **** * Parameters:
ARM GAS  C:\Users\fneves\AppData\Local\Temp\ccoNsDRu.s 			page 67


1119:Generated_Source\PSoC4/CyDMA.c **** *  channel:    Channel used by this function.
1120:Generated_Source\PSoC4/CyDMA.c **** *  descriptor: Descriptor (0 or 1) modified by this function.
1121:Generated_Source\PSoC4/CyDMA.c **** *                   
1122:Generated_Source\PSoC4/CyDMA.c **** * Return:
1123:Generated_Source\PSoC4/CyDMA.c **** *  Width of source and destination. Refer to the API bit field definitions in
1124:Generated_Source\PSoC4/CyDMA.c **** *  CyDMA_P4.h or the API description in the DMA channel datasheet for more
1125:Generated_Source\PSoC4/CyDMA.c **** *  information.
1126:Generated_Source\PSoC4/CyDMA.c **** *
1127:Generated_Source\PSoC4/CyDMA.c **** *******************************************************************************/
1128:Generated_Source\PSoC4/CyDMA.c **** uint32 CyDmaGetSrcDstTransferWidth(int32 channel, int32 descriptor)
1129:Generated_Source\PSoC4/CyDMA.c **** {
 2635              		.loc 1 1129 0
 2636              		.cfi_startproc
 2637 0000 80B5     		push	{r7, lr}
 2638              		.cfi_def_cfa_offset 8
 2639              		.cfi_offset 7, -8
 2640              		.cfi_offset 14, -4
 2641 0002 82B0     		sub	sp, sp, #8
 2642              		.cfi_def_cfa_offset 16
 2643 0004 00AF     		add	r7, sp, #0
 2644              		.cfi_def_cfa_register 7
 2645 0006 7860     		str	r0, [r7, #4]
 2646 0008 3960     		str	r1, [r7]
1130:Generated_Source\PSoC4/CyDMA.c ****     CYASSERT((channel    >= 0) && (channel    < CYDMA_CH_NR));
 2647              		.loc 1 1130 0
 2648 000a 7B68     		ldr	r3, [r7, #4]
 2649 000c 002B     		cmp	r3, #0
 2650 000e 04DB     		blt	.L259
 2651              		.loc 1 1130 0 is_stmt 0 discriminator 1
 2652 0010 7B68     		ldr	r3, [r7, #4]
 2653 0012 072B     		cmp	r3, #7
 2654 0014 01DC     		bgt	.L259
 2655              		.loc 1 1130 0 discriminator 3
 2656 0016 0123     		mov	r3, #1
 2657 0018 00E0     		b	.L260
 2658              	.L259:
 2659              		.loc 1 1130 0 discriminator 4
 2660 001a 0023     		mov	r3, #0
 2661              	.L260:
 2662              		.loc 1 1130 0 discriminator 6
 2663 001c 002B     		cmp	r3, #0
 2664 001e 02D1     		bne	.L261
 2665              		.loc 1 1130 0 discriminator 7
 2666 0020 0020     		mov	r0, #0
 2667 0022 FFF7FEFF 		bl	CyHalt
 2668              	.L261:
1131:Generated_Source\PSoC4/CyDMA.c ****     CYASSERT((descriptor >= 0) && (descriptor < CYDMA_DESCR_NR));
 2669              		.loc 1 1131 0 is_stmt 1
 2670 0026 3B68     		ldr	r3, [r7]
 2671 0028 002B     		cmp	r3, #0
 2672 002a 04DB     		blt	.L262
 2673              		.loc 1 1131 0 is_stmt 0 discriminator 1
 2674 002c 3B68     		ldr	r3, [r7]
 2675 002e 012B     		cmp	r3, #1
 2676 0030 01DC     		bgt	.L262
 2677              		.loc 1 1131 0 discriminator 3
 2678 0032 0123     		mov	r3, #1
ARM GAS  C:\Users\fneves\AppData\Local\Temp\ccoNsDRu.s 			page 68


 2679 0034 00E0     		b	.L263
 2680              	.L262:
 2681              		.loc 1 1131 0 discriminator 4
 2682 0036 0023     		mov	r3, #0
 2683              	.L263:
 2684              		.loc 1 1131 0 discriminator 6
 2685 0038 002B     		cmp	r3, #0
 2686 003a 02D1     		bne	.L264
 2687              		.loc 1 1131 0 discriminator 7
 2688 003c 0020     		mov	r0, #0
 2689 003e FFF7FEFF 		bl	CyHalt
 2690              	.L264:
1132:Generated_Source\PSoC4/CyDMA.c ****     return (CYDMA_DESCR_BASE.descriptor[channel][descriptor].ctl & CYDMA_TRANSFER_WIDTH);
 2691              		.loc 1 1132 0 is_stmt 1
 2692 0042 0849     		ldr	r1, .L266
 2693 0044 7B68     		ldr	r3, [r7, #4]
 2694 0046 5A00     		lsl	r2, r3, #1
 2695 0048 3B68     		ldr	r3, [r7]
 2696 004a D318     		add	r3, r2, r3
 2697 004c 1B01     		lsl	r3, r3, #4
 2698 004e CB18     		add	r3, r1, r3
 2699 0050 0833     		add	r3, r3, #8
 2700 0052 1A68     		ldr	r2, [r3]
 2701 0054 A023     		mov	r3, #160
 2702 0056 DB03     		lsl	r3, r3, #15
 2703 0058 1340     		and	r3, r2
1133:Generated_Source\PSoC4/CyDMA.c **** }
 2704              		.loc 1 1133 0
 2705 005a 181C     		mov	r0, r3
 2706 005c BD46     		mov	sp, r7
 2707 005e 02B0     		add	sp, sp, #8
 2708              		@ sp needed
 2709 0060 80BD     		pop	{r7, pc}
 2710              	.L267:
 2711 0062 C046     		.align	2
 2712              	.L266:
 2713 0064 00181040 		.word	1074796544
 2714              		.cfi_endproc
 2715              	.LFE38:
 2716              		.size	CyDmaGetSrcDstTransferWidth, .-CyDmaGetSrcDstTransferWidth
 2717              		.section	.text.CyDmaSetAddressIncrement,"ax",%progbits
 2718              		.align	2
 2719              		.global	CyDmaSetAddressIncrement
 2720              		.code	16
 2721              		.thumb_func
 2722              		.type	CyDmaSetAddressIncrement, %function
 2723              	CyDmaSetAddressIncrement:
 2724              	.LFB39:
1134:Generated_Source\PSoC4/CyDMA.c **** 
1135:Generated_Source\PSoC4/CyDMA.c **** 
1136:Generated_Source\PSoC4/CyDMA.c **** /*******************************************************************************
1137:Generated_Source\PSoC4/CyDMA.c **** * Function Name: CyDmaSetAddressIncrement
1138:Generated_Source\PSoC4/CyDMA.c **** ********************************************************************************
1139:Generated_Source\PSoC4/CyDMA.c **** *
1140:Generated_Source\PSoC4/CyDMA.c **** * Summary:
1141:Generated_Source\PSoC4/CyDMA.c **** *  Sets whether the source or destination addresses are incremented after the
1142:Generated_Source\PSoC4/CyDMA.c **** *  transfer of each data element. The amount that the source and destination
ARM GAS  C:\Users\fneves\AppData\Local\Temp\ccoNsDRu.s 			page 69


1143:Generated_Source\PSoC4/CyDMA.c **** *  address are incremented is determined by the CyDmaSetSrcDstTransferWidth()
1144:Generated_Source\PSoC4/CyDMA.c **** *  function. The addresses will either be incremented by the data element size
1145:Generated_Source\PSoC4/CyDMA.c **** *  or by a word (4 bytes).
1146:Generated_Source\PSoC4/CyDMA.c **** *
1147:Generated_Source\PSoC4/CyDMA.c **** * Parameters:
1148:Generated_Source\PSoC4/CyDMA.c **** *  channel:          Channel used by this function.
1149:Generated_Source\PSoC4/CyDMA.c **** *  descriptor:       Descriptor (0 or 1) modified by this function.
1150:Generated_Source\PSoC4/CyDMA.c **** *  addressIncrement: Address increment settings. Refer to the API bit fields 
1151:Generated_Source\PSoC4/CyDMA.c **** *                    definition in CyDMA_P4.h or the API description in the DMA
1152:Generated_Source\PSoC4/CyDMA.c **** *                    channel datasheet for the parameter options.
1153:Generated_Source\PSoC4/CyDMA.c **** *    
1154:Generated_Source\PSoC4/CyDMA.c **** * Return:
1155:Generated_Source\PSoC4/CyDMA.c **** *  None.
1156:Generated_Source\PSoC4/CyDMA.c **** *
1157:Generated_Source\PSoC4/CyDMA.c **** * Side effect:
1158:Generated_Source\PSoC4/CyDMA.c **** *  This function should not be called when the specified descriptor is active
1159:Generated_Source\PSoC4/CyDMA.c **** *  in the DMA transfer engine. This can be checked by calling CyDmaGetStatus(). 
1160:Generated_Source\PSoC4/CyDMA.c **** *
1161:Generated_Source\PSoC4/CyDMA.c **** *******************************************************************************/
1162:Generated_Source\PSoC4/CyDMA.c **** void CyDmaSetAddressIncrement(int32 channel, int32 descriptor, uint32 addressIncrement)
1163:Generated_Source\PSoC4/CyDMA.c **** {
 2725              		.loc 1 1163 0
 2726              		.cfi_startproc
 2727 0000 80B5     		push	{r7, lr}
 2728              		.cfi_def_cfa_offset 8
 2729              		.cfi_offset 7, -8
 2730              		.cfi_offset 14, -4
 2731 0002 86B0     		sub	sp, sp, #24
 2732              		.cfi_def_cfa_offset 32
 2733 0004 00AF     		add	r7, sp, #0
 2734              		.cfi_def_cfa_register 7
 2735 0006 F860     		str	r0, [r7, #12]
 2736 0008 B960     		str	r1, [r7, #8]
 2737 000a 7A60     		str	r2, [r7, #4]
1164:Generated_Source\PSoC4/CyDMA.c ****     uint32 regValue;
1165:Generated_Source\PSoC4/CyDMA.c **** 
1166:Generated_Source\PSoC4/CyDMA.c ****     CYASSERT((channel    >= 0) && (channel    < CYDMA_CH_NR));
 2738              		.loc 1 1166 0
 2739 000c FB68     		ldr	r3, [r7, #12]
 2740 000e 002B     		cmp	r3, #0
 2741 0010 04DB     		blt	.L269
 2742              		.loc 1 1166 0 is_stmt 0 discriminator 1
 2743 0012 FB68     		ldr	r3, [r7, #12]
 2744 0014 072B     		cmp	r3, #7
 2745 0016 01DC     		bgt	.L269
 2746              		.loc 1 1166 0 discriminator 3
 2747 0018 0123     		mov	r3, #1
 2748 001a 00E0     		b	.L270
 2749              	.L269:
 2750              		.loc 1 1166 0 discriminator 4
 2751 001c 0023     		mov	r3, #0
 2752              	.L270:
 2753              		.loc 1 1166 0 discriminator 6
 2754 001e 002B     		cmp	r3, #0
 2755 0020 02D1     		bne	.L271
 2756              		.loc 1 1166 0 discriminator 7
 2757 0022 0020     		mov	r0, #0
ARM GAS  C:\Users\fneves\AppData\Local\Temp\ccoNsDRu.s 			page 70


 2758 0024 FFF7FEFF 		bl	CyHalt
 2759              	.L271:
1167:Generated_Source\PSoC4/CyDMA.c ****     CYASSERT((descriptor >= 0) && (descriptor < CYDMA_DESCR_NR));
 2760              		.loc 1 1167 0 is_stmt 1
 2761 0028 BB68     		ldr	r3, [r7, #8]
 2762 002a 002B     		cmp	r3, #0
 2763 002c 04DB     		blt	.L272
 2764              		.loc 1 1167 0 is_stmt 0 discriminator 1
 2765 002e BB68     		ldr	r3, [r7, #8]
 2766 0030 012B     		cmp	r3, #1
 2767 0032 01DC     		bgt	.L272
 2768              		.loc 1 1167 0 discriminator 3
 2769 0034 0123     		mov	r3, #1
 2770 0036 00E0     		b	.L273
 2771              	.L272:
 2772              		.loc 1 1167 0 discriminator 4
 2773 0038 0023     		mov	r3, #0
 2774              	.L273:
 2775              		.loc 1 1167 0 discriminator 6
 2776 003a 002B     		cmp	r3, #0
 2777 003c 02D1     		bne	.L274
 2778              		.loc 1 1167 0 discriminator 7
 2779 003e 0020     		mov	r0, #0
 2780 0040 FFF7FEFF 		bl	CyHalt
 2781              	.L274:
1168:Generated_Source\PSoC4/CyDMA.c ****     CYASSERT(0u == (addressIncrement & (uint32)~CYDMA_ADDR_INCR));
 2782              		.loc 1 1168 0 is_stmt 1
 2783 0044 7B68     		ldr	r3, [r7, #4]
 2784 0046 104A     		ldr	r2, .L276
 2785 0048 1340     		and	r3, r2
 2786 004a 02D0     		beq	.L275
 2787              		.loc 1 1168 0 is_stmt 0 discriminator 1
 2788 004c 0020     		mov	r0, #0
 2789 004e FFF7FEFF 		bl	CyHalt
 2790              	.L275:
1169:Generated_Source\PSoC4/CyDMA.c **** 
1170:Generated_Source\PSoC4/CyDMA.c ****     regValue = CYDMA_DESCR_BASE.descriptor[channel][descriptor].ctl & (uint32)~CYDMA_ADDR_INCR;
 2791              		.loc 1 1170 0 is_stmt 1
 2792 0052 0E49     		ldr	r1, .L276+4
 2793 0054 FB68     		ldr	r3, [r7, #12]
 2794 0056 5A00     		lsl	r2, r3, #1
 2795 0058 BB68     		ldr	r3, [r7, #8]
 2796 005a D318     		add	r3, r2, r3
 2797 005c 1B01     		lsl	r3, r3, #4
 2798 005e CB18     		add	r3, r1, r3
 2799 0060 0833     		add	r3, r3, #8
 2800 0062 1B68     		ldr	r3, [r3]
 2801 0064 084A     		ldr	r2, .L276
 2802 0066 1340     		and	r3, r2
 2803 0068 7B61     		str	r3, [r7, #20]
1171:Generated_Source\PSoC4/CyDMA.c ****     CYDMA_DESCR_BASE.descriptor[channel][descriptor].ctl = regValue | addressIncrement;
 2804              		.loc 1 1171 0
 2805 006a 0848     		ldr	r0, .L276+4
 2806 006c 7A69     		ldr	r2, [r7, #20]
 2807 006e 7B68     		ldr	r3, [r7, #4]
 2808 0070 1A43     		orr	r2, r3
 2809 0072 FB68     		ldr	r3, [r7, #12]
ARM GAS  C:\Users\fneves\AppData\Local\Temp\ccoNsDRu.s 			page 71


 2810 0074 5900     		lsl	r1, r3, #1
 2811 0076 BB68     		ldr	r3, [r7, #8]
 2812 0078 CB18     		add	r3, r1, r3
 2813 007a 1B01     		lsl	r3, r3, #4
 2814 007c C318     		add	r3, r0, r3
 2815 007e 0833     		add	r3, r3, #8
 2816 0080 1A60     		str	r2, [r3]
1172:Generated_Source\PSoC4/CyDMA.c **** }
 2817              		.loc 1 1172 0
 2818 0082 BD46     		mov	sp, r7
 2819 0084 06B0     		add	sp, sp, #24
 2820              		@ sp needed
 2821 0086 80BD     		pop	{r7, pc}
 2822              	.L277:
 2823              		.align	2
 2824              	.L276:
 2825 0088 FFFF5FFF 		.word	-10485761
 2826 008c 00181040 		.word	1074796544
 2827              		.cfi_endproc
 2828              	.LFE39:
 2829              		.size	CyDmaSetAddressIncrement, .-CyDmaSetAddressIncrement
 2830              		.section	.text.CyDmaGetAddressIncrement,"ax",%progbits
 2831              		.align	2
 2832              		.global	CyDmaGetAddressIncrement
 2833              		.code	16
 2834              		.thumb_func
 2835              		.type	CyDmaGetAddressIncrement, %function
 2836              	CyDmaGetAddressIncrement:
 2837              	.LFB40:
1173:Generated_Source\PSoC4/CyDMA.c **** 
1174:Generated_Source\PSoC4/CyDMA.c **** 
1175:Generated_Source\PSoC4/CyDMA.c **** /*******************************************************************************
1176:Generated_Source\PSoC4/CyDMA.c **** * Function Name: CyDmaGetAddressIncrement
1177:Generated_Source\PSoC4/CyDMA.c **** ********************************************************************************
1178:Generated_Source\PSoC4/CyDMA.c **** *
1179:Generated_Source\PSoC4/CyDMA.c **** * Summary:
1180:Generated_Source\PSoC4/CyDMA.c **** *  Returns address increment settings as set by CyDmaSetAddressIncrement() or
1181:Generated_Source\PSoC4/CyDMA.c **** *  CyDmaSetConfiguration().
1182:Generated_Source\PSoC4/CyDMA.c **** *
1183:Generated_Source\PSoC4/CyDMA.c **** * Parameters:
1184:Generated_Source\PSoC4/CyDMA.c **** *  channel:    Channel used by this function.
1185:Generated_Source\PSoC4/CyDMA.c **** *  descriptor: Descriptor (0 or 1) modified by this function.
1186:Generated_Source\PSoC4/CyDMA.c **** *                   
1187:Generated_Source\PSoC4/CyDMA.c **** * Return:
1188:Generated_Source\PSoC4/CyDMA.c **** *  Address increment settings. Refer to the API bit field definitions in
1189:Generated_Source\PSoC4/CyDMA.c **** *  CyDMA_P4.h or the API description in the DMA channel datasheet for more
1190:Generated_Source\PSoC4/CyDMA.c **** *  information.
1191:Generated_Source\PSoC4/CyDMA.c **** *
1192:Generated_Source\PSoC4/CyDMA.c **** *******************************************************************************/
1193:Generated_Source\PSoC4/CyDMA.c **** uint32 CyDmaGetAddressIncrement(int32 channel, int32 descriptor)
1194:Generated_Source\PSoC4/CyDMA.c **** {
 2838              		.loc 1 1194 0
 2839              		.cfi_startproc
 2840 0000 80B5     		push	{r7, lr}
 2841              		.cfi_def_cfa_offset 8
 2842              		.cfi_offset 7, -8
 2843              		.cfi_offset 14, -4
ARM GAS  C:\Users\fneves\AppData\Local\Temp\ccoNsDRu.s 			page 72


 2844 0002 82B0     		sub	sp, sp, #8
 2845              		.cfi_def_cfa_offset 16
 2846 0004 00AF     		add	r7, sp, #0
 2847              		.cfi_def_cfa_register 7
 2848 0006 7860     		str	r0, [r7, #4]
 2849 0008 3960     		str	r1, [r7]
1195:Generated_Source\PSoC4/CyDMA.c ****     CYASSERT((channel    >= 0) && (channel    < CYDMA_CH_NR));
 2850              		.loc 1 1195 0
 2851 000a 7B68     		ldr	r3, [r7, #4]
 2852 000c 002B     		cmp	r3, #0
 2853 000e 04DB     		blt	.L279
 2854              		.loc 1 1195 0 is_stmt 0 discriminator 1
 2855 0010 7B68     		ldr	r3, [r7, #4]
 2856 0012 072B     		cmp	r3, #7
 2857 0014 01DC     		bgt	.L279
 2858              		.loc 1 1195 0 discriminator 3
 2859 0016 0123     		mov	r3, #1
 2860 0018 00E0     		b	.L280
 2861              	.L279:
 2862              		.loc 1 1195 0 discriminator 4
 2863 001a 0023     		mov	r3, #0
 2864              	.L280:
 2865              		.loc 1 1195 0 discriminator 6
 2866 001c 002B     		cmp	r3, #0
 2867 001e 02D1     		bne	.L281
 2868              		.loc 1 1195 0 discriminator 7
 2869 0020 0020     		mov	r0, #0
 2870 0022 FFF7FEFF 		bl	CyHalt
 2871              	.L281:
1196:Generated_Source\PSoC4/CyDMA.c ****     CYASSERT((descriptor >= 0) && (descriptor < CYDMA_DESCR_NR));
 2872              		.loc 1 1196 0 is_stmt 1
 2873 0026 3B68     		ldr	r3, [r7]
 2874 0028 002B     		cmp	r3, #0
 2875 002a 04DB     		blt	.L282
 2876              		.loc 1 1196 0 is_stmt 0 discriminator 1
 2877 002c 3B68     		ldr	r3, [r7]
 2878 002e 012B     		cmp	r3, #1
 2879 0030 01DC     		bgt	.L282
 2880              		.loc 1 1196 0 discriminator 3
 2881 0032 0123     		mov	r3, #1
 2882 0034 00E0     		b	.L283
 2883              	.L282:
 2884              		.loc 1 1196 0 discriminator 4
 2885 0036 0023     		mov	r3, #0
 2886              	.L283:
 2887              		.loc 1 1196 0 discriminator 6
 2888 0038 002B     		cmp	r3, #0
 2889 003a 02D1     		bne	.L284
 2890              		.loc 1 1196 0 discriminator 7
 2891 003c 0020     		mov	r0, #0
 2892 003e FFF7FEFF 		bl	CyHalt
 2893              	.L284:
1197:Generated_Source\PSoC4/CyDMA.c **** 
1198:Generated_Source\PSoC4/CyDMA.c ****     return (CYDMA_DESCR_BASE.descriptor[channel][descriptor].ctl & CYDMA_ADDR_INCR);
 2894              		.loc 1 1198 0 is_stmt 1
 2895 0042 0849     		ldr	r1, .L286
 2896 0044 7B68     		ldr	r3, [r7, #4]
ARM GAS  C:\Users\fneves\AppData\Local\Temp\ccoNsDRu.s 			page 73


 2897 0046 5A00     		lsl	r2, r3, #1
 2898 0048 3B68     		ldr	r3, [r7]
 2899 004a D318     		add	r3, r2, r3
 2900 004c 1B01     		lsl	r3, r3, #4
 2901 004e CB18     		add	r3, r1, r3
 2902 0050 0833     		add	r3, r3, #8
 2903 0052 1A68     		ldr	r2, [r3]
 2904 0054 A023     		mov	r3, #160
 2905 0056 1B04     		lsl	r3, r3, #16
 2906 0058 1340     		and	r3, r2
1199:Generated_Source\PSoC4/CyDMA.c **** }
 2907              		.loc 1 1199 0
 2908 005a 181C     		mov	r0, r3
 2909 005c BD46     		mov	sp, r7
 2910 005e 02B0     		add	sp, sp, #8
 2911              		@ sp needed
 2912 0060 80BD     		pop	{r7, pc}
 2913              	.L287:
 2914 0062 C046     		.align	2
 2915              	.L286:
 2916 0064 00181040 		.word	1074796544
 2917              		.cfi_endproc
 2918              	.LFE40:
 2919              		.size	CyDmaGetAddressIncrement, .-CyDmaGetAddressIncrement
 2920              		.section	.text.CyDmaSetTriggerType,"ax",%progbits
 2921              		.align	2
 2922              		.global	CyDmaSetTriggerType
 2923              		.code	16
 2924              		.thumb_func
 2925              		.type	CyDmaSetTriggerType, %function
 2926              	CyDmaSetTriggerType:
 2927              	.LFB41:
1200:Generated_Source\PSoC4/CyDMA.c **** 
1201:Generated_Source\PSoC4/CyDMA.c **** 
1202:Generated_Source\PSoC4/CyDMA.c **** /*******************************************************************************
1203:Generated_Source\PSoC4/CyDMA.c **** * Function Name: CyDmaSetTriggerType
1204:Generated_Source\PSoC4/CyDMA.c **** ********************************************************************************
1205:Generated_Source\PSoC4/CyDMA.c **** *
1206:Generated_Source\PSoC4/CyDMA.c **** * Summary:
1207:Generated_Source\PSoC4/CyDMA.c **** *  Sets the type of input trigger for the DMA For level sensitive triggers sets
1208:Generated_Source\PSoC4/CyDMA.c **** *  how long the DMA waits for the trigger to go low (deactivate) before
1209:Generated_Source\PSoC4/CyDMA.c **** *  triggering the channel again.
1210:Generated_Source\PSoC4/CyDMA.c **** *
1211:Generated_Source\PSoC4/CyDMA.c **** * Parameters:
1212:Generated_Source\PSoC4/CyDMA.c **** *  channel:     Channel used by this function.
1213:Generated_Source\PSoC4/CyDMA.c **** *  descriptor:  Descriptor (0 or 1) modified by this function.
1214:Generated_Source\PSoC4/CyDMA.c **** *  triggerType: Type of DMA trigger. Refer to the API bit field definitions
1215:Generated_Source\PSoC4/CyDMA.c **** *               in CyDMA_P4.h or the API description in the DMA channel
1216:Generated_Source\PSoC4/CyDMA.c **** *               datasheet for the parameter options.
1217:Generated_Source\PSoC4/CyDMA.c **** *                   
1218:Generated_Source\PSoC4/CyDMA.c **** * Return:
1219:Generated_Source\PSoC4/CyDMA.c **** *  None.
1220:Generated_Source\PSoC4/CyDMA.c **** *
1221:Generated_Source\PSoC4/CyDMA.c **** * Side effect:
1222:Generated_Source\PSoC4/CyDMA.c **** *  This function should not be called when the specified descriptor is active
1223:Generated_Source\PSoC4/CyDMA.c **** *  in the DMA transfer engine. This can be checked by calling CyDmaGetStatus(). 
1224:Generated_Source\PSoC4/CyDMA.c **** *
ARM GAS  C:\Users\fneves\AppData\Local\Temp\ccoNsDRu.s 			page 74


1225:Generated_Source\PSoC4/CyDMA.c **** *******************************************************************************/
1226:Generated_Source\PSoC4/CyDMA.c **** void CyDmaSetTriggerType(int32 channel, int32 descriptor, uint32 triggerType)
1227:Generated_Source\PSoC4/CyDMA.c **** {
 2928              		.loc 1 1227 0
 2929              		.cfi_startproc
 2930 0000 80B5     		push	{r7, lr}
 2931              		.cfi_def_cfa_offset 8
 2932              		.cfi_offset 7, -8
 2933              		.cfi_offset 14, -4
 2934 0002 86B0     		sub	sp, sp, #24
 2935              		.cfi_def_cfa_offset 32
 2936 0004 00AF     		add	r7, sp, #0
 2937              		.cfi_def_cfa_register 7
 2938 0006 F860     		str	r0, [r7, #12]
 2939 0008 B960     		str	r1, [r7, #8]
 2940 000a 7A60     		str	r2, [r7, #4]
1228:Generated_Source\PSoC4/CyDMA.c ****     uint32 regValue;
1229:Generated_Source\PSoC4/CyDMA.c **** 
1230:Generated_Source\PSoC4/CyDMA.c ****     CYASSERT((channel    >= 0) && (channel    < CYDMA_CH_NR));
 2941              		.loc 1 1230 0
 2942 000c FB68     		ldr	r3, [r7, #12]
 2943 000e 002B     		cmp	r3, #0
 2944 0010 04DB     		blt	.L289
 2945              		.loc 1 1230 0 is_stmt 0 discriminator 1
 2946 0012 FB68     		ldr	r3, [r7, #12]
 2947 0014 072B     		cmp	r3, #7
 2948 0016 01DC     		bgt	.L289
 2949              		.loc 1 1230 0 discriminator 3
 2950 0018 0123     		mov	r3, #1
 2951 001a 00E0     		b	.L290
 2952              	.L289:
 2953              		.loc 1 1230 0 discriminator 4
 2954 001c 0023     		mov	r3, #0
 2955              	.L290:
 2956              		.loc 1 1230 0 discriminator 6
 2957 001e 002B     		cmp	r3, #0
 2958 0020 02D1     		bne	.L291
 2959              		.loc 1 1230 0 discriminator 7
 2960 0022 0020     		mov	r0, #0
 2961 0024 FFF7FEFF 		bl	CyHalt
 2962              	.L291:
1231:Generated_Source\PSoC4/CyDMA.c ****     CYASSERT((descriptor >= 0) && (descriptor < CYDMA_DESCR_NR));
 2963              		.loc 1 1231 0 is_stmt 1
 2964 0028 BB68     		ldr	r3, [r7, #8]
 2965 002a 002B     		cmp	r3, #0
 2966 002c 04DB     		blt	.L292
 2967              		.loc 1 1231 0 is_stmt 0 discriminator 1
 2968 002e BB68     		ldr	r3, [r7, #8]
 2969 0030 012B     		cmp	r3, #1
 2970 0032 01DC     		bgt	.L292
 2971              		.loc 1 1231 0 discriminator 3
 2972 0034 0123     		mov	r3, #1
 2973 0036 00E0     		b	.L293
 2974              	.L292:
 2975              		.loc 1 1231 0 discriminator 4
 2976 0038 0023     		mov	r3, #0
 2977              	.L293:
ARM GAS  C:\Users\fneves\AppData\Local\Temp\ccoNsDRu.s 			page 75


 2978              		.loc 1 1231 0 discriminator 6
 2979 003a 002B     		cmp	r3, #0
 2980 003c 02D1     		bne	.L294
 2981              		.loc 1 1231 0 discriminator 7
 2982 003e 0020     		mov	r0, #0
 2983 0040 FFF7FEFF 		bl	CyHalt
 2984              	.L294:
1232:Generated_Source\PSoC4/CyDMA.c ****     CYASSERT(0u == (triggerType & (uint32)~CYDMA_TRIGGER_TYPE));
 2985              		.loc 1 1232 0 is_stmt 1
 2986 0044 7B68     		ldr	r3, [r7, #4]
 2987 0046 104A     		ldr	r2, .L296
 2988 0048 1340     		and	r3, r2
 2989 004a 02D0     		beq	.L295
 2990              		.loc 1 1232 0 is_stmt 0 discriminator 1
 2991 004c 0020     		mov	r0, #0
 2992 004e FFF7FEFF 		bl	CyHalt
 2993              	.L295:
1233:Generated_Source\PSoC4/CyDMA.c **** 
1234:Generated_Source\PSoC4/CyDMA.c ****     regValue = CYDMA_DESCR_BASE.descriptor[channel][descriptor].ctl & (uint32)~CYDMA_TRIGGER_TYPE;
 2994              		.loc 1 1234 0 is_stmt 1
 2995 0052 0E49     		ldr	r1, .L296+4
 2996 0054 FB68     		ldr	r3, [r7, #12]
 2997 0056 5A00     		lsl	r2, r3, #1
 2998 0058 BB68     		ldr	r3, [r7, #8]
 2999 005a D318     		add	r3, r2, r3
 3000 005c 1B01     		lsl	r3, r3, #4
 3001 005e CB18     		add	r3, r1, r3
 3002 0060 0833     		add	r3, r3, #8
 3003 0062 1B68     		ldr	r3, [r3]
 3004 0064 084A     		ldr	r2, .L296
 3005 0066 1340     		and	r3, r2
 3006 0068 7B61     		str	r3, [r7, #20]
1235:Generated_Source\PSoC4/CyDMA.c ****     CYDMA_DESCR_BASE.descriptor[channel][descriptor].ctl = regValue | triggerType;
 3007              		.loc 1 1235 0
 3008 006a 0848     		ldr	r0, .L296+4
 3009 006c 7A69     		ldr	r2, [r7, #20]
 3010 006e 7B68     		ldr	r3, [r7, #4]
 3011 0070 1A43     		orr	r2, r3
 3012 0072 FB68     		ldr	r3, [r7, #12]
 3013 0074 5900     		lsl	r1, r3, #1
 3014 0076 BB68     		ldr	r3, [r7, #8]
 3015 0078 CB18     		add	r3, r1, r3
 3016 007a 1B01     		lsl	r3, r3, #4
 3017 007c C318     		add	r3, r0, r3
 3018 007e 0833     		add	r3, r3, #8
 3019 0080 1A60     		str	r2, [r3]
1236:Generated_Source\PSoC4/CyDMA.c **** }
 3020              		.loc 1 1236 0
 3021 0082 BD46     		mov	sp, r7
 3022 0084 06B0     		add	sp, sp, #24
 3023              		@ sp needed
 3024 0086 80BD     		pop	{r7, pc}
 3025              	.L297:
 3026              		.align	2
 3027              	.L296:
 3028 0088 FFFFFFFC 		.word	-50331649
 3029 008c 00181040 		.word	1074796544
ARM GAS  C:\Users\fneves\AppData\Local\Temp\ccoNsDRu.s 			page 76


 3030              		.cfi_endproc
 3031              	.LFE41:
 3032              		.size	CyDmaSetTriggerType, .-CyDmaSetTriggerType
 3033              		.section	.text.CyDmaGetTriggerType,"ax",%progbits
 3034              		.align	2
 3035              		.global	CyDmaGetTriggerType
 3036              		.code	16
 3037              		.thumb_func
 3038              		.type	CyDmaGetTriggerType, %function
 3039              	CyDmaGetTriggerType:
 3040              	.LFB42:
1237:Generated_Source\PSoC4/CyDMA.c **** 
1238:Generated_Source\PSoC4/CyDMA.c **** 
1239:Generated_Source\PSoC4/CyDMA.c **** /*******************************************************************************
1240:Generated_Source\PSoC4/CyDMA.c **** * Function Name: CyDmaGetTriggerType
1241:Generated_Source\PSoC4/CyDMA.c **** ********************************************************************************
1242:Generated_Source\PSoC4/CyDMA.c **** *
1243:Generated_Source\PSoC4/CyDMA.c **** * Summary:
1244:Generated_Source\PSoC4/CyDMA.c **** *  Returns the trigger deactivation settings as set by CyDmaSetTriggerType() or
1245:Generated_Source\PSoC4/CyDMA.c **** *  CyDmaSetConfiguration().
1246:Generated_Source\PSoC4/CyDMA.c **** *
1247:Generated_Source\PSoC4/CyDMA.c **** * Parameters:
1248:Generated_Source\PSoC4/CyDMA.c **** *  channel:    Channel used by this function.
1249:Generated_Source\PSoC4/CyDMA.c **** *  descriptor: Descriptor (0 or 1) modified by this function.
1250:Generated_Source\PSoC4/CyDMA.c **** *                   
1251:Generated_Source\PSoC4/CyDMA.c **** * Return:
1252:Generated_Source\PSoC4/CyDMA.c **** *  Trigger deactivation settings. Refer to the API bit field definitions in
1253:Generated_Source\PSoC4/CyDMA.c **** *  CyDMA_P4.h or the API description in the DMA channel datasheet for more
1254:Generated_Source\PSoC4/CyDMA.c **** *  information.
1255:Generated_Source\PSoC4/CyDMA.c **** *
1256:Generated_Source\PSoC4/CyDMA.c **** *******************************************************************************/
1257:Generated_Source\PSoC4/CyDMA.c **** uint32 CyDmaGetTriggerType(int32 channel, int32 descriptor)
1258:Generated_Source\PSoC4/CyDMA.c **** {
 3041              		.loc 1 1258 0
 3042              		.cfi_startproc
 3043 0000 80B5     		push	{r7, lr}
 3044              		.cfi_def_cfa_offset 8
 3045              		.cfi_offset 7, -8
 3046              		.cfi_offset 14, -4
 3047 0002 82B0     		sub	sp, sp, #8
 3048              		.cfi_def_cfa_offset 16
 3049 0004 00AF     		add	r7, sp, #0
 3050              		.cfi_def_cfa_register 7
 3051 0006 7860     		str	r0, [r7, #4]
 3052 0008 3960     		str	r1, [r7]
1259:Generated_Source\PSoC4/CyDMA.c ****     CYASSERT((channel    >= 0) && (channel    < CYDMA_CH_NR));
 3053              		.loc 1 1259 0
 3054 000a 7B68     		ldr	r3, [r7, #4]
 3055 000c 002B     		cmp	r3, #0
 3056 000e 04DB     		blt	.L299
 3057              		.loc 1 1259 0 is_stmt 0 discriminator 1
 3058 0010 7B68     		ldr	r3, [r7, #4]
 3059 0012 072B     		cmp	r3, #7
 3060 0014 01DC     		bgt	.L299
 3061              		.loc 1 1259 0 discriminator 3
 3062 0016 0123     		mov	r3, #1
 3063 0018 00E0     		b	.L300
ARM GAS  C:\Users\fneves\AppData\Local\Temp\ccoNsDRu.s 			page 77


 3064              	.L299:
 3065              		.loc 1 1259 0 discriminator 4
 3066 001a 0023     		mov	r3, #0
 3067              	.L300:
 3068              		.loc 1 1259 0 discriminator 6
 3069 001c 002B     		cmp	r3, #0
 3070 001e 02D1     		bne	.L301
 3071              		.loc 1 1259 0 discriminator 7
 3072 0020 0020     		mov	r0, #0
 3073 0022 FFF7FEFF 		bl	CyHalt
 3074              	.L301:
1260:Generated_Source\PSoC4/CyDMA.c ****     CYASSERT((descriptor >= 0) && (descriptor < CYDMA_DESCR_NR));
 3075              		.loc 1 1260 0 is_stmt 1
 3076 0026 3B68     		ldr	r3, [r7]
 3077 0028 002B     		cmp	r3, #0
 3078 002a 04DB     		blt	.L302
 3079              		.loc 1 1260 0 is_stmt 0 discriminator 1
 3080 002c 3B68     		ldr	r3, [r7]
 3081 002e 012B     		cmp	r3, #1
 3082 0030 01DC     		bgt	.L302
 3083              		.loc 1 1260 0 discriminator 3
 3084 0032 0123     		mov	r3, #1
 3085 0034 00E0     		b	.L303
 3086              	.L302:
 3087              		.loc 1 1260 0 discriminator 4
 3088 0036 0023     		mov	r3, #0
 3089              	.L303:
 3090              		.loc 1 1260 0 discriminator 6
 3091 0038 002B     		cmp	r3, #0
 3092 003a 02D1     		bne	.L304
 3093              		.loc 1 1260 0 discriminator 7
 3094 003c 0020     		mov	r0, #0
 3095 003e FFF7FEFF 		bl	CyHalt
 3096              	.L304:
1261:Generated_Source\PSoC4/CyDMA.c **** 
1262:Generated_Source\PSoC4/CyDMA.c ****     return (CYDMA_DESCR_BASE.descriptor[channel][descriptor].ctl & CYDMA_TRIGGER_TYPE);
 3097              		.loc 1 1262 0 is_stmt 1
 3098 0042 0849     		ldr	r1, .L306
 3099 0044 7B68     		ldr	r3, [r7, #4]
 3100 0046 5A00     		lsl	r2, r3, #1
 3101 0048 3B68     		ldr	r3, [r7]
 3102 004a D318     		add	r3, r2, r3
 3103 004c 1B01     		lsl	r3, r3, #4
 3104 004e CB18     		add	r3, r1, r3
 3105 0050 0833     		add	r3, r3, #8
 3106 0052 1A68     		ldr	r2, [r3]
 3107 0054 C023     		mov	r3, #192
 3108 0056 9B04     		lsl	r3, r3, #18
 3109 0058 1340     		and	r3, r2
1263:Generated_Source\PSoC4/CyDMA.c **** }
 3110              		.loc 1 1263 0
 3111 005a 181C     		mov	r0, r3
 3112 005c BD46     		mov	sp, r7
 3113 005e 02B0     		add	sp, sp, #8
 3114              		@ sp needed
 3115 0060 80BD     		pop	{r7, pc}
 3116              	.L307:
ARM GAS  C:\Users\fneves\AppData\Local\Temp\ccoNsDRu.s 			page 78


 3117 0062 C046     		.align	2
 3118              	.L306:
 3119 0064 00181040 		.word	1074796544
 3120              		.cfi_endproc
 3121              	.LFE42:
 3122              		.size	CyDmaGetTriggerType, .-CyDmaGetTriggerType
 3123              		.section	.text.CyDmaSetTransferMode,"ax",%progbits
 3124              		.align	2
 3125              		.global	CyDmaSetTransferMode
 3126              		.code	16
 3127              		.thumb_func
 3128              		.type	CyDmaSetTransferMode, %function
 3129              	CyDmaSetTransferMode:
 3130              	.LFB43:
1264:Generated_Source\PSoC4/CyDMA.c **** 
1265:Generated_Source\PSoC4/CyDMA.c **** 
1266:Generated_Source\PSoC4/CyDMA.c **** /*******************************************************************************
1267:Generated_Source\PSoC4/CyDMA.c **** * Function Name: CyDmaSetTransferMode
1268:Generated_Source\PSoC4/CyDMA.c **** ********************************************************************************
1269:Generated_Source\PSoC4/CyDMA.c **** *
1270:Generated_Source\PSoC4/CyDMA.c **** * Summary:
1271:Generated_Source\PSoC4/CyDMA.c **** *  Sets the DMA transfer mode. This determines how the DMA reacts to each trigger
1272:Generated_Source\PSoC4/CyDMA.c **** *  event.
1273:Generated_Source\PSoC4/CyDMA.c **** *
1274:Generated_Source\PSoC4/CyDMA.c **** * Parameters:
1275:Generated_Source\PSoC4/CyDMA.c **** *  channel:      Channel used by this function.
1276:Generated_Source\PSoC4/CyDMA.c **** *  descriptor:   Descriptor (0 or 1) modified by this function.
1277:Generated_Source\PSoC4/CyDMA.c **** *  transferMode: Specifies the DMA transfer mode settings. Refer to the API bit
1278:Generated_Source\PSoC4/CyDMA.c **** *                field definitions in CyDMA_P4.h or the API description in the
1279:Generated_Source\PSoC4/CyDMA.c **** *                DMA channel datasheet for the parameter options.
1280:Generated_Source\PSoC4/CyDMA.c **** *                   
1281:Generated_Source\PSoC4/CyDMA.c **** * Return:
1282:Generated_Source\PSoC4/CyDMA.c **** *  None.
1283:Generated_Source\PSoC4/CyDMA.c **** *
1284:Generated_Source\PSoC4/CyDMA.c **** * Side effect:
1285:Generated_Source\PSoC4/CyDMA.c **** *  This function should not be called when the specified descriptor is active
1286:Generated_Source\PSoC4/CyDMA.c **** *  in the DMA transfer engine. This can be checked by calling CyDmaGetStatus(). 
1287:Generated_Source\PSoC4/CyDMA.c **** *
1288:Generated_Source\PSoC4/CyDMA.c **** *******************************************************************************/
1289:Generated_Source\PSoC4/CyDMA.c **** void CyDmaSetTransferMode(int32 channel, int32 descriptor, uint32 transferMode)
1290:Generated_Source\PSoC4/CyDMA.c **** {
 3131              		.loc 1 1290 0
 3132              		.cfi_startproc
 3133 0000 80B5     		push	{r7, lr}
 3134              		.cfi_def_cfa_offset 8
 3135              		.cfi_offset 7, -8
 3136              		.cfi_offset 14, -4
 3137 0002 86B0     		sub	sp, sp, #24
 3138              		.cfi_def_cfa_offset 32
 3139 0004 00AF     		add	r7, sp, #0
 3140              		.cfi_def_cfa_register 7
 3141 0006 F860     		str	r0, [r7, #12]
 3142 0008 B960     		str	r1, [r7, #8]
 3143 000a 7A60     		str	r2, [r7, #4]
1291:Generated_Source\PSoC4/CyDMA.c ****     uint32 regValue;
1292:Generated_Source\PSoC4/CyDMA.c **** 
1293:Generated_Source\PSoC4/CyDMA.c ****     CYASSERT((channel    >= 0) && (channel    < CYDMA_CH_NR));
ARM GAS  C:\Users\fneves\AppData\Local\Temp\ccoNsDRu.s 			page 79


 3144              		.loc 1 1293 0
 3145 000c FB68     		ldr	r3, [r7, #12]
 3146 000e 002B     		cmp	r3, #0
 3147 0010 04DB     		blt	.L309
 3148              		.loc 1 1293 0 is_stmt 0 discriminator 1
 3149 0012 FB68     		ldr	r3, [r7, #12]
 3150 0014 072B     		cmp	r3, #7
 3151 0016 01DC     		bgt	.L309
 3152              		.loc 1 1293 0 discriminator 3
 3153 0018 0123     		mov	r3, #1
 3154 001a 00E0     		b	.L310
 3155              	.L309:
 3156              		.loc 1 1293 0 discriminator 4
 3157 001c 0023     		mov	r3, #0
 3158              	.L310:
 3159              		.loc 1 1293 0 discriminator 6
 3160 001e 002B     		cmp	r3, #0
 3161 0020 02D1     		bne	.L311
 3162              		.loc 1 1293 0 discriminator 7
 3163 0022 0020     		mov	r0, #0
 3164 0024 FFF7FEFF 		bl	CyHalt
 3165              	.L311:
1294:Generated_Source\PSoC4/CyDMA.c ****     CYASSERT((descriptor >= 0) && (descriptor < CYDMA_DESCR_NR));
 3166              		.loc 1 1294 0 is_stmt 1
 3167 0028 BB68     		ldr	r3, [r7, #8]
 3168 002a 002B     		cmp	r3, #0
 3169 002c 04DB     		blt	.L312
 3170              		.loc 1 1294 0 is_stmt 0 discriminator 1
 3171 002e BB68     		ldr	r3, [r7, #8]
 3172 0030 012B     		cmp	r3, #1
 3173 0032 01DC     		bgt	.L312
 3174              		.loc 1 1294 0 discriminator 3
 3175 0034 0123     		mov	r3, #1
 3176 0036 00E0     		b	.L313
 3177              	.L312:
 3178              		.loc 1 1294 0 discriminator 4
 3179 0038 0023     		mov	r3, #0
 3180              	.L313:
 3181              		.loc 1 1294 0 discriminator 6
 3182 003a 002B     		cmp	r3, #0
 3183 003c 02D1     		bne	.L314
 3184              		.loc 1 1294 0 discriminator 7
 3185 003e 0020     		mov	r0, #0
 3186 0040 FFF7FEFF 		bl	CyHalt
 3187              	.L314:
1295:Generated_Source\PSoC4/CyDMA.c ****     CYASSERT(0u == (transferMode & (uint32)~CYDMA_TRANSFER_MODE));
 3188              		.loc 1 1295 0 is_stmt 1
 3189 0044 7B68     		ldr	r3, [r7, #4]
 3190 0046 9B00     		lsl	r3, r3, #2
 3191 0048 9B08     		lsr	r3, r3, #2
 3192 004a 02D0     		beq	.L315
 3193              		.loc 1 1295 0 is_stmt 0 discriminator 1
 3194 004c 0020     		mov	r0, #0
 3195 004e FFF7FEFF 		bl	CyHalt
 3196              	.L315:
1296:Generated_Source\PSoC4/CyDMA.c **** 
1297:Generated_Source\PSoC4/CyDMA.c ****     regValue = CYDMA_DESCR_BASE.descriptor[channel][descriptor].ctl & (uint32)~CYDMA_TRANSFER_MODE;
ARM GAS  C:\Users\fneves\AppData\Local\Temp\ccoNsDRu.s 			page 80


 3197              		.loc 1 1297 0 is_stmt 1
 3198 0052 0D49     		ldr	r1, .L316
 3199 0054 FB68     		ldr	r3, [r7, #12]
 3200 0056 5A00     		lsl	r2, r3, #1
 3201 0058 BB68     		ldr	r3, [r7, #8]
 3202 005a D318     		add	r3, r2, r3
 3203 005c 1B01     		lsl	r3, r3, #4
 3204 005e CB18     		add	r3, r1, r3
 3205 0060 0833     		add	r3, r3, #8
 3206 0062 1B68     		ldr	r3, [r3]
 3207 0064 9B00     		lsl	r3, r3, #2
 3208 0066 9B08     		lsr	r3, r3, #2
 3209 0068 7B61     		str	r3, [r7, #20]
1298:Generated_Source\PSoC4/CyDMA.c ****     CYDMA_DESCR_BASE.descriptor[channel][descriptor].ctl = regValue | transferMode;
 3210              		.loc 1 1298 0
 3211 006a 0748     		ldr	r0, .L316
 3212 006c 7A69     		ldr	r2, [r7, #20]
 3213 006e 7B68     		ldr	r3, [r7, #4]
 3214 0070 1A43     		orr	r2, r3
 3215 0072 FB68     		ldr	r3, [r7, #12]
 3216 0074 5900     		lsl	r1, r3, #1
 3217 0076 BB68     		ldr	r3, [r7, #8]
 3218 0078 CB18     		add	r3, r1, r3
 3219 007a 1B01     		lsl	r3, r3, #4
 3220 007c C318     		add	r3, r0, r3
 3221 007e 0833     		add	r3, r3, #8
 3222 0080 1A60     		str	r2, [r3]
1299:Generated_Source\PSoC4/CyDMA.c **** }
 3223              		.loc 1 1299 0
 3224 0082 BD46     		mov	sp, r7
 3225 0084 06B0     		add	sp, sp, #24
 3226              		@ sp needed
 3227 0086 80BD     		pop	{r7, pc}
 3228              	.L317:
 3229              		.align	2
 3230              	.L316:
 3231 0088 00181040 		.word	1074796544
 3232              		.cfi_endproc
 3233              	.LFE43:
 3234              		.size	CyDmaSetTransferMode, .-CyDmaSetTransferMode
 3235              		.section	.text.CyDmaGetTransferMode,"ax",%progbits
 3236              		.align	2
 3237              		.global	CyDmaGetTransferMode
 3238              		.code	16
 3239              		.thumb_func
 3240              		.type	CyDmaGetTransferMode, %function
 3241              	CyDmaGetTransferMode:
 3242              	.LFB44:
1300:Generated_Source\PSoC4/CyDMA.c **** 
1301:Generated_Source\PSoC4/CyDMA.c **** 
1302:Generated_Source\PSoC4/CyDMA.c **** /*******************************************************************************
1303:Generated_Source\PSoC4/CyDMA.c **** * Function Name: CyDmaGetTransferMode
1304:Generated_Source\PSoC4/CyDMA.c **** ********************************************************************************
1305:Generated_Source\PSoC4/CyDMA.c **** *
1306:Generated_Source\PSoC4/CyDMA.c **** * Summary:
1307:Generated_Source\PSoC4/CyDMA.c **** *  Returns the transfer mode for the specified descriptor as set by 
1308:Generated_Source\PSoC4/CyDMA.c **** *  CyDmaSetTransferMode() or CyDmaSetConfiguration.
ARM GAS  C:\Users\fneves\AppData\Local\Temp\ccoNsDRu.s 			page 81


1309:Generated_Source\PSoC4/CyDMA.c **** *
1310:Generated_Source\PSoC4/CyDMA.c **** * Parameters:
1311:Generated_Source\PSoC4/CyDMA.c **** *  channel:    Channel used by this function.
1312:Generated_Source\PSoC4/CyDMA.c **** *  descriptor: Descriptor (0 or 1) modified by this function.
1313:Generated_Source\PSoC4/CyDMA.c **** *                   
1314:Generated_Source\PSoC4/CyDMA.c **** * Return:
1315:Generated_Source\PSoC4/CyDMA.c **** *  DMA transfer mode settings. Refer to the API bit field definitions in
1316:Generated_Source\PSoC4/CyDMA.c **** *  CyDMA_P4.h or the API description in the DMA channel datasheet for more
1317:Generated_Source\PSoC4/CyDMA.c **** *  information.
1318:Generated_Source\PSoC4/CyDMA.c **** *
1319:Generated_Source\PSoC4/CyDMA.c **** *******************************************************************************/
1320:Generated_Source\PSoC4/CyDMA.c **** uint32 CyDmaGetTransferMode(int32 channel, int32 descriptor)
1321:Generated_Source\PSoC4/CyDMA.c **** {
 3243              		.loc 1 1321 0
 3244              		.cfi_startproc
 3245 0000 80B5     		push	{r7, lr}
 3246              		.cfi_def_cfa_offset 8
 3247              		.cfi_offset 7, -8
 3248              		.cfi_offset 14, -4
 3249 0002 82B0     		sub	sp, sp, #8
 3250              		.cfi_def_cfa_offset 16
 3251 0004 00AF     		add	r7, sp, #0
 3252              		.cfi_def_cfa_register 7
 3253 0006 7860     		str	r0, [r7, #4]
 3254 0008 3960     		str	r1, [r7]
1322:Generated_Source\PSoC4/CyDMA.c ****     CYASSERT((channel    >= 0) && (channel    < CYDMA_CH_NR));
 3255              		.loc 1 1322 0
 3256 000a 7B68     		ldr	r3, [r7, #4]
 3257 000c 002B     		cmp	r3, #0
 3258 000e 04DB     		blt	.L319
 3259              		.loc 1 1322 0 is_stmt 0 discriminator 1
 3260 0010 7B68     		ldr	r3, [r7, #4]
 3261 0012 072B     		cmp	r3, #7
 3262 0014 01DC     		bgt	.L319
 3263              		.loc 1 1322 0 discriminator 3
 3264 0016 0123     		mov	r3, #1
 3265 0018 00E0     		b	.L320
 3266              	.L319:
 3267              		.loc 1 1322 0 discriminator 4
 3268 001a 0023     		mov	r3, #0
 3269              	.L320:
 3270              		.loc 1 1322 0 discriminator 6
 3271 001c 002B     		cmp	r3, #0
 3272 001e 02D1     		bne	.L321
 3273              		.loc 1 1322 0 discriminator 7
 3274 0020 0020     		mov	r0, #0
 3275 0022 FFF7FEFF 		bl	CyHalt
 3276              	.L321:
1323:Generated_Source\PSoC4/CyDMA.c ****     CYASSERT((descriptor >= 0) && (descriptor < CYDMA_DESCR_NR));
 3277              		.loc 1 1323 0 is_stmt 1
 3278 0026 3B68     		ldr	r3, [r7]
 3279 0028 002B     		cmp	r3, #0
 3280 002a 04DB     		blt	.L322
 3281              		.loc 1 1323 0 is_stmt 0 discriminator 1
 3282 002c 3B68     		ldr	r3, [r7]
 3283 002e 012B     		cmp	r3, #1
 3284 0030 01DC     		bgt	.L322
ARM GAS  C:\Users\fneves\AppData\Local\Temp\ccoNsDRu.s 			page 82


 3285              		.loc 1 1323 0 discriminator 3
 3286 0032 0123     		mov	r3, #1
 3287 0034 00E0     		b	.L323
 3288              	.L322:
 3289              		.loc 1 1323 0 discriminator 4
 3290 0036 0023     		mov	r3, #0
 3291              	.L323:
 3292              		.loc 1 1323 0 discriminator 6
 3293 0038 002B     		cmp	r3, #0
 3294 003a 02D1     		bne	.L324
 3295              		.loc 1 1323 0 discriminator 7
 3296 003c 0020     		mov	r0, #0
 3297 003e FFF7FEFF 		bl	CyHalt
 3298              	.L324:
1324:Generated_Source\PSoC4/CyDMA.c **** 
1325:Generated_Source\PSoC4/CyDMA.c ****     return (CYDMA_DESCR_BASE.descriptor[channel][descriptor].ctl & CYDMA_TRANSFER_MODE);
 3299              		.loc 1 1325 0 is_stmt 1
 3300 0042 0749     		ldr	r1, .L326
 3301 0044 7B68     		ldr	r3, [r7, #4]
 3302 0046 5A00     		lsl	r2, r3, #1
 3303 0048 3B68     		ldr	r3, [r7]
 3304 004a D318     		add	r3, r2, r3
 3305 004c 1B01     		lsl	r3, r3, #4
 3306 004e CB18     		add	r3, r1, r3
 3307 0050 0833     		add	r3, r3, #8
 3308 0052 1B68     		ldr	r3, [r3]
 3309 0054 9B0F     		lsr	r3, r3, #30
 3310 0056 9B07     		lsl	r3, r3, #30
1326:Generated_Source\PSoC4/CyDMA.c **** }
 3311              		.loc 1 1326 0
 3312 0058 181C     		mov	r0, r3
 3313 005a BD46     		mov	sp, r7
 3314 005c 02B0     		add	sp, sp, #8
 3315              		@ sp needed
 3316 005e 80BD     		pop	{r7, pc}
 3317              	.L327:
 3318              		.align	2
 3319              	.L326:
 3320 0060 00181040 		.word	1074796544
 3321              		.cfi_endproc
 3322              	.LFE44:
 3323              		.size	CyDmaGetTransferMode, .-CyDmaGetTransferMode
 3324              		.section	.text.CyDmaSetPreemptable,"ax",%progbits
 3325              		.align	2
 3326              		.global	CyDmaSetPreemptable
 3327              		.code	16
 3328              		.thumb_func
 3329              		.type	CyDmaSetPreemptable, %function
 3330              	CyDmaSetPreemptable:
 3331              	.LFB45:
1327:Generated_Source\PSoC4/CyDMA.c **** 
1328:Generated_Source\PSoC4/CyDMA.c **** 
1329:Generated_Source\PSoC4/CyDMA.c **** /*******************************************************************************
1330:Generated_Source\PSoC4/CyDMA.c **** * Function Name: CyDmaSetPreemptable
1331:Generated_Source\PSoC4/CyDMA.c **** ********************************************************************************
1332:Generated_Source\PSoC4/CyDMA.c **** *
1333:Generated_Source\PSoC4/CyDMA.c **** * Summary:
ARM GAS  C:\Users\fneves\AppData\Local\Temp\ccoNsDRu.s 			page 83


1334:Generated_Source\PSoC4/CyDMA.c **** *  Determines if the descriptor is preemptable.
1335:Generated_Source\PSoC4/CyDMA.c **** *
1336:Generated_Source\PSoC4/CyDMA.c **** * Parameters:
1337:Generated_Source\PSoC4/CyDMA.c **** *  channel:     Channel used by this function.
1338:Generated_Source\PSoC4/CyDMA.c **** *  descriptor:  Descriptor (0 or 1) modified by this function.
1339:Generated_Source\PSoC4/CyDMA.c **** *  preemptable: Descriptor preemption settings. Refer to the API bit fields
1340:Generated_Source\PSoC4/CyDMA.c **** *               definition in CyDMA_P4.h or the API description in the DMA 
1341:Generated_Source\PSoC4/CyDMA.c **** *               channel datasheet for the parameter options.
1342:Generated_Source\PSoC4/CyDMA.c **** *                   
1343:Generated_Source\PSoC4/CyDMA.c **** * Return:
1344:Generated_Source\PSoC4/CyDMA.c **** *  None.
1345:Generated_Source\PSoC4/CyDMA.c **** *
1346:Generated_Source\PSoC4/CyDMA.c **** * Side effect:
1347:Generated_Source\PSoC4/CyDMA.c **** *  This function should not be called when the specified descriptor is active
1348:Generated_Source\PSoC4/CyDMA.c **** *  in the DMA transfer engine. This can be checked by calling CyDmaGetStatus(). 
1349:Generated_Source\PSoC4/CyDMA.c **** *
1350:Generated_Source\PSoC4/CyDMA.c **** *******************************************************************************/
1351:Generated_Source\PSoC4/CyDMA.c **** void CyDmaSetPreemptable(int32 channel, int32 descriptor, uint32 preemptable)
1352:Generated_Source\PSoC4/CyDMA.c **** {
 3332              		.loc 1 1352 0
 3333              		.cfi_startproc
 3334 0000 80B5     		push	{r7, lr}
 3335              		.cfi_def_cfa_offset 8
 3336              		.cfi_offset 7, -8
 3337              		.cfi_offset 14, -4
 3338 0002 86B0     		sub	sp, sp, #24
 3339              		.cfi_def_cfa_offset 32
 3340 0004 00AF     		add	r7, sp, #0
 3341              		.cfi_def_cfa_register 7
 3342 0006 F860     		str	r0, [r7, #12]
 3343 0008 B960     		str	r1, [r7, #8]
 3344 000a 7A60     		str	r2, [r7, #4]
1353:Generated_Source\PSoC4/CyDMA.c ****     uint32 regValue;
1354:Generated_Source\PSoC4/CyDMA.c **** 
1355:Generated_Source\PSoC4/CyDMA.c ****     CYASSERT((channel    >= 0) && (channel    < CYDMA_CH_NR));
 3345              		.loc 1 1355 0
 3346 000c FB68     		ldr	r3, [r7, #12]
 3347 000e 002B     		cmp	r3, #0
 3348 0010 04DB     		blt	.L329
 3349              		.loc 1 1355 0 is_stmt 0 discriminator 1
 3350 0012 FB68     		ldr	r3, [r7, #12]
 3351 0014 072B     		cmp	r3, #7
 3352 0016 01DC     		bgt	.L329
 3353              		.loc 1 1355 0 discriminator 3
 3354 0018 0123     		mov	r3, #1
 3355 001a 00E0     		b	.L330
 3356              	.L329:
 3357              		.loc 1 1355 0 discriminator 4
 3358 001c 0023     		mov	r3, #0
 3359              	.L330:
 3360              		.loc 1 1355 0 discriminator 6
 3361 001e 002B     		cmp	r3, #0
 3362 0020 02D1     		bne	.L331
 3363              		.loc 1 1355 0 discriminator 7
 3364 0022 0020     		mov	r0, #0
 3365 0024 FFF7FEFF 		bl	CyHalt
 3366              	.L331:
ARM GAS  C:\Users\fneves\AppData\Local\Temp\ccoNsDRu.s 			page 84


1356:Generated_Source\PSoC4/CyDMA.c ****     CYASSERT((descriptor >= 0) && (descriptor < CYDMA_DESCR_NR));
 3367              		.loc 1 1356 0 is_stmt 1
 3368 0028 BB68     		ldr	r3, [r7, #8]
 3369 002a 002B     		cmp	r3, #0
 3370 002c 04DB     		blt	.L332
 3371              		.loc 1 1356 0 is_stmt 0 discriminator 1
 3372 002e BB68     		ldr	r3, [r7, #8]
 3373 0030 012B     		cmp	r3, #1
 3374 0032 01DC     		bgt	.L332
 3375              		.loc 1 1356 0 discriminator 3
 3376 0034 0123     		mov	r3, #1
 3377 0036 00E0     		b	.L333
 3378              	.L332:
 3379              		.loc 1 1356 0 discriminator 4
 3380 0038 0023     		mov	r3, #0
 3381              	.L333:
 3382              		.loc 1 1356 0 discriminator 6
 3383 003a 002B     		cmp	r3, #0
 3384 003c 02D1     		bne	.L334
 3385              		.loc 1 1356 0 discriminator 7
 3386 003e 0020     		mov	r0, #0
 3387 0040 FFF7FEFF 		bl	CyHalt
 3388              	.L334:
1357:Generated_Source\PSoC4/CyDMA.c ****     CYASSERT(0u == (preemptable & (uint32)~CYDMA_PREEMPTABLE));
 3389              		.loc 1 1357 0 is_stmt 1
 3390 0044 7B68     		ldr	r3, [r7, #4]
 3391 0046 104A     		ldr	r2, .L336
 3392 0048 1340     		and	r3, r2
 3393 004a 02D0     		beq	.L335
 3394              		.loc 1 1357 0 is_stmt 0 discriminator 1
 3395 004c 0020     		mov	r0, #0
 3396 004e FFF7FEFF 		bl	CyHalt
 3397              	.L335:
1358:Generated_Source\PSoC4/CyDMA.c **** 
1359:Generated_Source\PSoC4/CyDMA.c ****     regValue = CYDMA_DESCR_BASE.descriptor[channel][descriptor].ctl & (uint32)~CYDMA_PREEMPTABLE;
 3398              		.loc 1 1359 0 is_stmt 1
 3399 0052 0E49     		ldr	r1, .L336+4
 3400 0054 FB68     		ldr	r3, [r7, #12]
 3401 0056 5A00     		lsl	r2, r3, #1
 3402 0058 BB68     		ldr	r3, [r7, #8]
 3403 005a D318     		add	r3, r2, r3
 3404 005c 1B01     		lsl	r3, r3, #4
 3405 005e CB18     		add	r3, r1, r3
 3406 0060 0833     		add	r3, r3, #8
 3407 0062 1B68     		ldr	r3, [r3]
 3408 0064 084A     		ldr	r2, .L336
 3409 0066 1340     		and	r3, r2
 3410 0068 7B61     		str	r3, [r7, #20]
1360:Generated_Source\PSoC4/CyDMA.c ****     CYDMA_DESCR_BASE.descriptor[channel][descriptor].ctl = regValue | preemptable;
 3411              		.loc 1 1360 0
 3412 006a 0848     		ldr	r0, .L336+4
 3413 006c 7A69     		ldr	r2, [r7, #20]
 3414 006e 7B68     		ldr	r3, [r7, #4]
 3415 0070 1A43     		orr	r2, r3
 3416 0072 FB68     		ldr	r3, [r7, #12]
 3417 0074 5900     		lsl	r1, r3, #1
 3418 0076 BB68     		ldr	r3, [r7, #8]
ARM GAS  C:\Users\fneves\AppData\Local\Temp\ccoNsDRu.s 			page 85


 3419 0078 CB18     		add	r3, r1, r3
 3420 007a 1B01     		lsl	r3, r3, #4
 3421 007c C318     		add	r3, r0, r3
 3422 007e 0833     		add	r3, r3, #8
 3423 0080 1A60     		str	r2, [r3]
1361:Generated_Source\PSoC4/CyDMA.c **** }
 3424              		.loc 1 1361 0
 3425 0082 BD46     		mov	sp, r7
 3426 0084 06B0     		add	sp, sp, #24
 3427              		@ sp needed
 3428 0086 80BD     		pop	{r7, pc}
 3429              	.L337:
 3430              		.align	2
 3431              	.L336:
 3432 0088 FFFFFFEF 		.word	-268435457
 3433 008c 00181040 		.word	1074796544
 3434              		.cfi_endproc
 3435              	.LFE45:
 3436              		.size	CyDmaSetPreemptable, .-CyDmaSetPreemptable
 3437              		.section	.text.CyDmaGetPreemptable,"ax",%progbits
 3438              		.align	2
 3439              		.global	CyDmaGetPreemptable
 3440              		.code	16
 3441              		.thumb_func
 3442              		.type	CyDmaGetPreemptable, %function
 3443              	CyDmaGetPreemptable:
 3444              	.LFB46:
1362:Generated_Source\PSoC4/CyDMA.c **** 
1363:Generated_Source\PSoC4/CyDMA.c **** 
1364:Generated_Source\PSoC4/CyDMA.c **** /*******************************************************************************
1365:Generated_Source\PSoC4/CyDMA.c **** * Function Name: CyDmaGetPreemptable
1366:Generated_Source\PSoC4/CyDMA.c **** ********************************************************************************
1367:Generated_Source\PSoC4/CyDMA.c **** *
1368:Generated_Source\PSoC4/CyDMA.c **** * Summary:
1369:Generated_Source\PSoC4/CyDMA.c **** *  Returns whether or not the descriptor is preemptable.
1370:Generated_Source\PSoC4/CyDMA.c **** *
1371:Generated_Source\PSoC4/CyDMA.c **** * Parameters:
1372:Generated_Source\PSoC4/CyDMA.c **** *  channel:    Channel used by this function.
1373:Generated_Source\PSoC4/CyDMA.c **** *  descriptor: Descriptor (0 or 1) modified by this function.
1374:Generated_Source\PSoC4/CyDMA.c **** *                   
1375:Generated_Source\PSoC4/CyDMA.c **** * Return:
1376:Generated_Source\PSoC4/CyDMA.c **** *  Descriptor preemption setting. Refer to the API bit field definitions in
1377:Generated_Source\PSoC4/CyDMA.c **** *  CyDMA_P4.h or the API description in the DMA channel datasheet for more
1378:Generated_Source\PSoC4/CyDMA.c **** *  information.
1379:Generated_Source\PSoC4/CyDMA.c **** *
1380:Generated_Source\PSoC4/CyDMA.c **** *******************************************************************************/
1381:Generated_Source\PSoC4/CyDMA.c **** uint32 CyDmaGetPreemptable(int32 channel, int32 descriptor)
1382:Generated_Source\PSoC4/CyDMA.c **** {
 3445              		.loc 1 1382 0
 3446              		.cfi_startproc
 3447 0000 80B5     		push	{r7, lr}
 3448              		.cfi_def_cfa_offset 8
 3449              		.cfi_offset 7, -8
 3450              		.cfi_offset 14, -4
 3451 0002 82B0     		sub	sp, sp, #8
 3452              		.cfi_def_cfa_offset 16
 3453 0004 00AF     		add	r7, sp, #0
ARM GAS  C:\Users\fneves\AppData\Local\Temp\ccoNsDRu.s 			page 86


 3454              		.cfi_def_cfa_register 7
 3455 0006 7860     		str	r0, [r7, #4]
 3456 0008 3960     		str	r1, [r7]
1383:Generated_Source\PSoC4/CyDMA.c ****     CYASSERT((channel    >= 0) && (channel    < CYDMA_CH_NR));
 3457              		.loc 1 1383 0
 3458 000a 7B68     		ldr	r3, [r7, #4]
 3459 000c 002B     		cmp	r3, #0
 3460 000e 04DB     		blt	.L339
 3461              		.loc 1 1383 0 is_stmt 0 discriminator 1
 3462 0010 7B68     		ldr	r3, [r7, #4]
 3463 0012 072B     		cmp	r3, #7
 3464 0014 01DC     		bgt	.L339
 3465              		.loc 1 1383 0 discriminator 3
 3466 0016 0123     		mov	r3, #1
 3467 0018 00E0     		b	.L340
 3468              	.L339:
 3469              		.loc 1 1383 0 discriminator 4
 3470 001a 0023     		mov	r3, #0
 3471              	.L340:
 3472              		.loc 1 1383 0 discriminator 6
 3473 001c 002B     		cmp	r3, #0
 3474 001e 02D1     		bne	.L341
 3475              		.loc 1 1383 0 discriminator 7
 3476 0020 0020     		mov	r0, #0
 3477 0022 FFF7FEFF 		bl	CyHalt
 3478              	.L341:
1384:Generated_Source\PSoC4/CyDMA.c ****     CYASSERT((descriptor >= 0) && (descriptor < CYDMA_DESCR_NR));
 3479              		.loc 1 1384 0 is_stmt 1
 3480 0026 3B68     		ldr	r3, [r7]
 3481 0028 002B     		cmp	r3, #0
 3482 002a 04DB     		blt	.L342
 3483              		.loc 1 1384 0 is_stmt 0 discriminator 1
 3484 002c 3B68     		ldr	r3, [r7]
 3485 002e 012B     		cmp	r3, #1
 3486 0030 01DC     		bgt	.L342
 3487              		.loc 1 1384 0 discriminator 3
 3488 0032 0123     		mov	r3, #1
 3489 0034 00E0     		b	.L343
 3490              	.L342:
 3491              		.loc 1 1384 0 discriminator 4
 3492 0036 0023     		mov	r3, #0
 3493              	.L343:
 3494              		.loc 1 1384 0 discriminator 6
 3495 0038 002B     		cmp	r3, #0
 3496 003a 02D1     		bne	.L344
 3497              		.loc 1 1384 0 discriminator 7
 3498 003c 0020     		mov	r0, #0
 3499 003e FFF7FEFF 		bl	CyHalt
 3500              	.L344:
1385:Generated_Source\PSoC4/CyDMA.c **** 
1386:Generated_Source\PSoC4/CyDMA.c ****     return (CYDMA_DESCR_BASE.descriptor[channel][descriptor].ctl & CYDMA_PREEMPTABLE);
 3501              		.loc 1 1386 0 is_stmt 1
 3502 0042 0849     		ldr	r1, .L346
 3503 0044 7B68     		ldr	r3, [r7, #4]
 3504 0046 5A00     		lsl	r2, r3, #1
 3505 0048 3B68     		ldr	r3, [r7]
 3506 004a D318     		add	r3, r2, r3
ARM GAS  C:\Users\fneves\AppData\Local\Temp\ccoNsDRu.s 			page 87


 3507 004c 1B01     		lsl	r3, r3, #4
 3508 004e CB18     		add	r3, r1, r3
 3509 0050 0833     		add	r3, r3, #8
 3510 0052 1A68     		ldr	r2, [r3]
 3511 0054 8023     		mov	r3, #128
 3512 0056 5B05     		lsl	r3, r3, #21
 3513 0058 1340     		and	r3, r2
1387:Generated_Source\PSoC4/CyDMA.c **** }
 3514              		.loc 1 1387 0
 3515 005a 181C     		mov	r0, r3
 3516 005c BD46     		mov	sp, r7
 3517 005e 02B0     		add	sp, sp, #8
 3518              		@ sp needed
 3519 0060 80BD     		pop	{r7, pc}
 3520              	.L347:
 3521 0062 C046     		.align	2
 3522              	.L346:
 3523 0064 00181040 		.word	1074796544
 3524              		.cfi_endproc
 3525              	.LFE46:
 3526              		.size	CyDmaGetPreemptable, .-CyDmaGetPreemptable
 3527              		.section	.text.CyDmaSetPostCompletionActions,"ax",%progbits
 3528              		.align	2
 3529              		.global	CyDmaSetPostCompletionActions
 3530              		.code	16
 3531              		.thumb_func
 3532              		.type	CyDmaSetPostCompletionActions, %function
 3533              	CyDmaSetPostCompletionActions:
 3534              	.LFB47:
1388:Generated_Source\PSoC4/CyDMA.c **** 
1389:Generated_Source\PSoC4/CyDMA.c **** 
1390:Generated_Source\PSoC4/CyDMA.c **** /*******************************************************************************
1391:Generated_Source\PSoC4/CyDMA.c **** * Function Name: CyDmaSetPostCompletionActions
1392:Generated_Source\PSoC4/CyDMA.c **** ********************************************************************************
1393:Generated_Source\PSoC4/CyDMA.c **** *
1394:Generated_Source\PSoC4/CyDMA.c **** * Summary:
1395:Generated_Source\PSoC4/CyDMA.c **** *  Determines what occurs after a descriptor completes.
1396:Generated_Source\PSoC4/CyDMA.c **** *
1397:Generated_Source\PSoC4/CyDMA.c **** * Parameters:
1398:Generated_Source\PSoC4/CyDMA.c **** *  channel:    Channel used by this function.
1399:Generated_Source\PSoC4/CyDMA.c **** *  descriptor: Descriptor (0 or 1) modified by this function.
1400:Generated_Source\PSoC4/CyDMA.c **** *  actions:    Specifies descriptor post completion actions. Refer to the API
1401:Generated_Source\PSoC4/CyDMA.c **** *              bit field definitions in CyDMA_P4.h or the API description
1402:Generated_Source\PSoC4/CyDMA.c **** *              in the DMA channel datasheet for the parameter options.
1403:Generated_Source\PSoC4/CyDMA.c **** *                   
1404:Generated_Source\PSoC4/CyDMA.c **** * Return:
1405:Generated_Source\PSoC4/CyDMA.c **** *  None.  
1406:Generated_Source\PSoC4/CyDMA.c **** *
1407:Generated_Source\PSoC4/CyDMA.c **** * Side effect:
1408:Generated_Source\PSoC4/CyDMA.c **** *  This function should not be called when the specified descriptor is active
1409:Generated_Source\PSoC4/CyDMA.c **** *  in the DMA transfer engine. This can be checked by calling CyDmaGetStatus(). 
1410:Generated_Source\PSoC4/CyDMA.c **** *
1411:Generated_Source\PSoC4/CyDMA.c **** *******************************************************************************/
1412:Generated_Source\PSoC4/CyDMA.c **** void CyDmaSetPostCompletionActions(int32 channel, int32 descriptor, uint32 actions)
1413:Generated_Source\PSoC4/CyDMA.c **** {
 3535              		.loc 1 1413 0
 3536              		.cfi_startproc
ARM GAS  C:\Users\fneves\AppData\Local\Temp\ccoNsDRu.s 			page 88


 3537 0000 80B5     		push	{r7, lr}
 3538              		.cfi_def_cfa_offset 8
 3539              		.cfi_offset 7, -8
 3540              		.cfi_offset 14, -4
 3541 0002 86B0     		sub	sp, sp, #24
 3542              		.cfi_def_cfa_offset 32
 3543 0004 00AF     		add	r7, sp, #0
 3544              		.cfi_def_cfa_register 7
 3545 0006 F860     		str	r0, [r7, #12]
 3546 0008 B960     		str	r1, [r7, #8]
 3547 000a 7A60     		str	r2, [r7, #4]
1414:Generated_Source\PSoC4/CyDMA.c ****     uint32 regValue;
1415:Generated_Source\PSoC4/CyDMA.c **** 
1416:Generated_Source\PSoC4/CyDMA.c ****     CYASSERT((channel    >= 0) && (channel    < CYDMA_CH_NR));
 3548              		.loc 1 1416 0
 3549 000c FB68     		ldr	r3, [r7, #12]
 3550 000e 002B     		cmp	r3, #0
 3551 0010 04DB     		blt	.L349
 3552              		.loc 1 1416 0 is_stmt 0 discriminator 1
 3553 0012 FB68     		ldr	r3, [r7, #12]
 3554 0014 072B     		cmp	r3, #7
 3555 0016 01DC     		bgt	.L349
 3556              		.loc 1 1416 0 discriminator 3
 3557 0018 0123     		mov	r3, #1
 3558 001a 00E0     		b	.L350
 3559              	.L349:
 3560              		.loc 1 1416 0 discriminator 4
 3561 001c 0023     		mov	r3, #0
 3562              	.L350:
 3563              		.loc 1 1416 0 discriminator 6
 3564 001e 002B     		cmp	r3, #0
 3565 0020 02D1     		bne	.L351
 3566              		.loc 1 1416 0 discriminator 7
 3567 0022 0020     		mov	r0, #0
 3568 0024 FFF7FEFF 		bl	CyHalt
 3569              	.L351:
1417:Generated_Source\PSoC4/CyDMA.c ****     CYASSERT((descriptor >= 0) && (descriptor < CYDMA_DESCR_NR));
 3570              		.loc 1 1417 0 is_stmt 1
 3571 0028 BB68     		ldr	r3, [r7, #8]
 3572 002a 002B     		cmp	r3, #0
 3573 002c 04DB     		blt	.L352
 3574              		.loc 1 1417 0 is_stmt 0 discriminator 1
 3575 002e BB68     		ldr	r3, [r7, #8]
 3576 0030 012B     		cmp	r3, #1
 3577 0032 01DC     		bgt	.L352
 3578              		.loc 1 1417 0 discriminator 3
 3579 0034 0123     		mov	r3, #1
 3580 0036 00E0     		b	.L353
 3581              	.L352:
 3582              		.loc 1 1417 0 discriminator 4
 3583 0038 0023     		mov	r3, #0
 3584              	.L353:
 3585              		.loc 1 1417 0 discriminator 6
 3586 003a 002B     		cmp	r3, #0
 3587 003c 02D1     		bne	.L354
 3588              		.loc 1 1417 0 discriminator 7
 3589 003e 0020     		mov	r0, #0
ARM GAS  C:\Users\fneves\AppData\Local\Temp\ccoNsDRu.s 			page 89


 3590 0040 FFF7FEFF 		bl	CyHalt
 3591              	.L354:
1418:Generated_Source\PSoC4/CyDMA.c ****     CYASSERT(0u == (actions & (uint32)~CYDMA_POST_COMPLETE_ACTIONS));
 3592              		.loc 1 1418 0 is_stmt 1
 3593 0044 7B68     		ldr	r3, [r7, #4]
 3594 0046 104A     		ldr	r2, .L356
 3595 0048 1340     		and	r3, r2
 3596 004a 02D0     		beq	.L355
 3597              		.loc 1 1418 0 is_stmt 0 discriminator 1
 3598 004c 0020     		mov	r0, #0
 3599 004e FFF7FEFF 		bl	CyHalt
 3600              	.L355:
1419:Generated_Source\PSoC4/CyDMA.c **** 
1420:Generated_Source\PSoC4/CyDMA.c ****     regValue = CYDMA_DESCR_BASE.descriptor[channel][descriptor].ctl & (uint32)~CYDMA_POST_COMPLETE_
 3601              		.loc 1 1420 0 is_stmt 1
 3602 0052 0E49     		ldr	r1, .L356+4
 3603 0054 FB68     		ldr	r3, [r7, #12]
 3604 0056 5A00     		lsl	r2, r3, #1
 3605 0058 BB68     		ldr	r3, [r7, #8]
 3606 005a D318     		add	r3, r2, r3
 3607 005c 1B01     		lsl	r3, r3, #4
 3608 005e CB18     		add	r3, r1, r3
 3609 0060 0833     		add	r3, r3, #8
 3610 0062 1B68     		ldr	r3, [r3]
 3611 0064 084A     		ldr	r2, .L356
 3612 0066 1340     		and	r3, r2
 3613 0068 7B61     		str	r3, [r7, #20]
1421:Generated_Source\PSoC4/CyDMA.c ****     CYDMA_DESCR_BASE.descriptor[channel][descriptor].ctl = regValue | actions;
 3614              		.loc 1 1421 0
 3615 006a 0848     		ldr	r0, .L356+4
 3616 006c 7A69     		ldr	r2, [r7, #20]
 3617 006e 7B68     		ldr	r3, [r7, #4]
 3618 0070 1A43     		orr	r2, r3
 3619 0072 FB68     		ldr	r3, [r7, #12]
 3620 0074 5900     		lsl	r1, r3, #1
 3621 0076 BB68     		ldr	r3, [r7, #8]
 3622 0078 CB18     		add	r3, r1, r3
 3623 007a 1B01     		lsl	r3, r3, #4
 3624 007c C318     		add	r3, r0, r3
 3625 007e 0833     		add	r3, r3, #8
 3626 0080 1A60     		str	r2, [r3]
1422:Generated_Source\PSoC4/CyDMA.c **** }
 3627              		.loc 1 1422 0
 3628 0082 BD46     		mov	sp, r7
 3629 0084 06B0     		add	sp, sp, #24
 3630              		@ sp needed
 3631 0086 80BD     		pop	{r7, pc}
 3632              	.L357:
 3633              		.align	2
 3634              	.L356:
 3635 0088 FFFFFFD3 		.word	-738197505
 3636 008c 00181040 		.word	1074796544
 3637              		.cfi_endproc
 3638              	.LFE47:
 3639              		.size	CyDmaSetPostCompletionActions, .-CyDmaSetPostCompletionActions
 3640              		.section	.text.CyDmaGetPostCompletionActions,"ax",%progbits
 3641              		.align	2
ARM GAS  C:\Users\fneves\AppData\Local\Temp\ccoNsDRu.s 			page 90


 3642              		.global	CyDmaGetPostCompletionActions
 3643              		.code	16
 3644              		.thumb_func
 3645              		.type	CyDmaGetPostCompletionActions, %function
 3646              	CyDmaGetPostCompletionActions:
 3647              	.LFB48:
1423:Generated_Source\PSoC4/CyDMA.c **** 
1424:Generated_Source\PSoC4/CyDMA.c **** 
1425:Generated_Source\PSoC4/CyDMA.c **** /*******************************************************************************
1426:Generated_Source\PSoC4/CyDMA.c **** * Function Name: CyDmaGetPostCompletionActions
1427:Generated_Source\PSoC4/CyDMA.c **** ********************************************************************************
1428:Generated_Source\PSoC4/CyDMA.c **** *
1429:Generated_Source\PSoC4/CyDMA.c **** * Summary:
1430:Generated_Source\PSoC4/CyDMA.c **** *  Returns the post descriptor action settings as set by 
1431:Generated_Source\PSoC4/CyDMA.c **** *  CyDmaSetPostCompletionActions() or CyDmaSetConfiguration().
1432:Generated_Source\PSoC4/CyDMA.c **** *
1433:Generated_Source\PSoC4/CyDMA.c **** * Parameters:
1434:Generated_Source\PSoC4/CyDMA.c **** *  channel:    Channel used by this function.
1435:Generated_Source\PSoC4/CyDMA.c **** *  descriptor: Descriptor (0 or 1) modified by this function.
1436:Generated_Source\PSoC4/CyDMA.c **** *                   
1437:Generated_Source\PSoC4/CyDMA.c **** * Return:
1438:Generated_Source\PSoC4/CyDMA.c **** *  Post descriptor actions. Refer to the API bit field definitions in
1439:Generated_Source\PSoC4/CyDMA.c **** *  CyDMA_P4.h or the API description in the DMA channel datasheet for more
1440:Generated_Source\PSoC4/CyDMA.c **** *  information.
1441:Generated_Source\PSoC4/CyDMA.c **** *
1442:Generated_Source\PSoC4/CyDMA.c **** *******************************************************************************/
1443:Generated_Source\PSoC4/CyDMA.c **** uint32 CyDmaGetPostCompletionActions(int32 channel, int32 descriptor)
1444:Generated_Source\PSoC4/CyDMA.c **** {
 3648              		.loc 1 1444 0
 3649              		.cfi_startproc
 3650 0000 80B5     		push	{r7, lr}
 3651              		.cfi_def_cfa_offset 8
 3652              		.cfi_offset 7, -8
 3653              		.cfi_offset 14, -4
 3654 0002 82B0     		sub	sp, sp, #8
 3655              		.cfi_def_cfa_offset 16
 3656 0004 00AF     		add	r7, sp, #0
 3657              		.cfi_def_cfa_register 7
 3658 0006 7860     		str	r0, [r7, #4]
 3659 0008 3960     		str	r1, [r7]
1445:Generated_Source\PSoC4/CyDMA.c ****     CYASSERT((channel    >= 0) && (channel    < CYDMA_CH_NR));
 3660              		.loc 1 1445 0
 3661 000a 7B68     		ldr	r3, [r7, #4]
 3662 000c 002B     		cmp	r3, #0
 3663 000e 04DB     		blt	.L359
 3664              		.loc 1 1445 0 is_stmt 0 discriminator 1
 3665 0010 7B68     		ldr	r3, [r7, #4]
 3666 0012 072B     		cmp	r3, #7
 3667 0014 01DC     		bgt	.L359
 3668              		.loc 1 1445 0 discriminator 3
 3669 0016 0123     		mov	r3, #1
 3670 0018 00E0     		b	.L360
 3671              	.L359:
 3672              		.loc 1 1445 0 discriminator 4
 3673 001a 0023     		mov	r3, #0
 3674              	.L360:
 3675              		.loc 1 1445 0 discriminator 6
ARM GAS  C:\Users\fneves\AppData\Local\Temp\ccoNsDRu.s 			page 91


 3676 001c 002B     		cmp	r3, #0
 3677 001e 02D1     		bne	.L361
 3678              		.loc 1 1445 0 discriminator 7
 3679 0020 0020     		mov	r0, #0
 3680 0022 FFF7FEFF 		bl	CyHalt
 3681              	.L361:
1446:Generated_Source\PSoC4/CyDMA.c ****     CYASSERT((descriptor >= 0) && (descriptor < CYDMA_DESCR_NR));
 3682              		.loc 1 1446 0 is_stmt 1
 3683 0026 3B68     		ldr	r3, [r7]
 3684 0028 002B     		cmp	r3, #0
 3685 002a 04DB     		blt	.L362
 3686              		.loc 1 1446 0 is_stmt 0 discriminator 1
 3687 002c 3B68     		ldr	r3, [r7]
 3688 002e 012B     		cmp	r3, #1
 3689 0030 01DC     		bgt	.L362
 3690              		.loc 1 1446 0 discriminator 3
 3691 0032 0123     		mov	r3, #1
 3692 0034 00E0     		b	.L363
 3693              	.L362:
 3694              		.loc 1 1446 0 discriminator 4
 3695 0036 0023     		mov	r3, #0
 3696              	.L363:
 3697              		.loc 1 1446 0 discriminator 6
 3698 0038 002B     		cmp	r3, #0
 3699 003a 02D1     		bne	.L364
 3700              		.loc 1 1446 0 discriminator 7
 3701 003c 0020     		mov	r0, #0
 3702 003e FFF7FEFF 		bl	CyHalt
 3703              	.L364:
1447:Generated_Source\PSoC4/CyDMA.c **** 
1448:Generated_Source\PSoC4/CyDMA.c ****     return (CYDMA_DESCR_BASE.descriptor[channel][descriptor].ctl & CYDMA_POST_COMPLETE_ACTIONS);
 3704              		.loc 1 1448 0 is_stmt 1
 3705 0042 0849     		ldr	r1, .L366
 3706 0044 7B68     		ldr	r3, [r7, #4]
 3707 0046 5A00     		lsl	r2, r3, #1
 3708 0048 3B68     		ldr	r3, [r7]
 3709 004a D318     		add	r3, r2, r3
 3710 004c 1B01     		lsl	r3, r3, #4
 3711 004e CB18     		add	r3, r1, r3
 3712 0050 0833     		add	r3, r3, #8
 3713 0052 1A68     		ldr	r2, [r3]
 3714 0054 B023     		mov	r3, #176
 3715 0056 9B05     		lsl	r3, r3, #22
 3716 0058 1340     		and	r3, r2
1449:Generated_Source\PSoC4/CyDMA.c **** }
 3717              		.loc 1 1449 0
 3718 005a 181C     		mov	r0, r3
 3719 005c BD46     		mov	sp, r7
 3720 005e 02B0     		add	sp, sp, #8
 3721              		@ sp needed
 3722 0060 80BD     		pop	{r7, pc}
 3723              	.L367:
 3724 0062 C046     		.align	2
 3725              	.L366:
 3726 0064 00181040 		.word	1074796544
 3727              		.cfi_endproc
 3728              	.LFE48:
ARM GAS  C:\Users\fneves\AppData\Local\Temp\ccoNsDRu.s 			page 92


 3729              		.size	CyDmaGetPostCompletionActions, .-CyDmaGetPostCompletionActions
 3730              		.bss
 3731              	initIntrVector.4912:
 3732 0000 00       		.space	1
 3733              		.section	.rodata
 3734              		.align	2
 3735              		.type	trCtlLut.4987, %object
 3736              		.size	trCtlLut.4987, 4
 3737              	trCtlLut.4987:
 3738 0000 000002C0 		.word	-1073610752
 3739              		.text
 3740              	.Letext0:
 3741              		.file 2 "Generated_Source\\PSoC4\\cytypes.h"
 3742              		.file 3 "Generated_Source\\PSoC4\\CyDMA.h"
 3743              		.section	.debug_info,"",%progbits
 3744              	.Ldebug_info0:
 3745 0000 660C0000 		.4byte	0xc66
 3746 0004 0400     		.2byte	0x4
 3747 0006 00000000 		.4byte	.Ldebug_abbrev0
 3748 000a 04       		.byte	0x4
 3749 000b 01       		.uleb128 0x1
 3750 000c 7C020000 		.4byte	.LASF101
 3751 0010 01       		.byte	0x1
 3752 0011 74070000 		.4byte	.LASF102
 3753 0015 38050000 		.4byte	.LASF103
 3754 0019 00000000 		.4byte	.Ldebug_ranges0+0
 3755 001d 00000000 		.4byte	0
 3756 0021 00000000 		.4byte	.Ldebug_line0
 3757 0025 02       		.uleb128 0x2
 3758 0026 01       		.byte	0x1
 3759 0027 06       		.byte	0x6
 3760 0028 DF000000 		.4byte	.LASF0
 3761 002c 02       		.uleb128 0x2
 3762 002d 01       		.byte	0x1
 3763 002e 08       		.byte	0x8
 3764 002f 02050000 		.4byte	.LASF1
 3765 0033 02       		.uleb128 0x2
 3766 0034 02       		.byte	0x2
 3767 0035 05       		.byte	0x5
 3768 0036 2E050000 		.4byte	.LASF2
 3769 003a 02       		.uleb128 0x2
 3770 003b 02       		.byte	0x2
 3771 003c 07       		.byte	0x7
 3772 003d 19030000 		.4byte	.LASF3
 3773 0041 02       		.uleb128 0x2
 3774 0042 04       		.byte	0x4
 3775 0043 05       		.byte	0x5
 3776 0044 20010000 		.4byte	.LASF4
 3777 0048 02       		.uleb128 0x2
 3778 0049 04       		.byte	0x4
 3779 004a 07       		.byte	0x7
 3780 004b 6A020000 		.4byte	.LASF5
 3781 004f 02       		.uleb128 0x2
 3782 0050 08       		.byte	0x8
 3783 0051 05       		.byte	0x5
 3784 0052 D1000000 		.4byte	.LASF6
 3785 0056 02       		.uleb128 0x2
ARM GAS  C:\Users\fneves\AppData\Local\Temp\ccoNsDRu.s 			page 93


 3786 0057 08       		.byte	0x8
 3787 0058 07       		.byte	0x7
 3788 0059 8B000000 		.4byte	.LASF7
 3789 005d 03       		.uleb128 0x3
 3790 005e 04       		.byte	0x4
 3791 005f 05       		.byte	0x5
 3792 0060 696E7400 		.ascii	"int\000"
 3793 0064 02       		.uleb128 0x2
 3794 0065 04       		.byte	0x4
 3795 0066 07       		.byte	0x7
 3796 0067 46020000 		.4byte	.LASF8
 3797 006b 04       		.uleb128 0x4
 3798 006c 8E010000 		.4byte	.LASF9
 3799 0070 02       		.byte	0x2
 3800 0071 B901     		.2byte	0x1b9
 3801 0073 2C000000 		.4byte	0x2c
 3802 0077 04       		.uleb128 0x4
 3803 0078 CB010000 		.4byte	.LASF10
 3804 007c 02       		.byte	0x2
 3805 007d BB01     		.2byte	0x1bb
 3806 007f 48000000 		.4byte	0x48
 3807 0083 04       		.uleb128 0x4
 3808 0084 03010000 		.4byte	.LASF11
 3809 0088 02       		.byte	0x2
 3810 0089 BE01     		.2byte	0x1be
 3811 008b 41000000 		.4byte	0x41
 3812 008f 02       		.uleb128 0x2
 3813 0090 04       		.byte	0x4
 3814 0091 04       		.byte	0x4
 3815 0092 C5040000 		.4byte	.LASF12
 3816 0096 02       		.uleb128 0x2
 3817 0097 08       		.byte	0x8
 3818 0098 04       		.byte	0x4
 3819 0099 A8010000 		.4byte	.LASF13
 3820 009d 02       		.uleb128 0x2
 3821 009e 01       		.byte	0x1
 3822 009f 08       		.byte	0x8
 3823 00a0 F7050000 		.4byte	.LASF14
 3824 00a4 04       		.uleb128 0x4
 3825 00a5 0B070000 		.4byte	.LASF15
 3826 00a9 02       		.byte	0x2
 3827 00aa 5B02     		.2byte	0x25b
 3828 00ac 48000000 		.4byte	0x48
 3829 00b0 04       		.uleb128 0x4
 3830 00b1 A2030000 		.4byte	.LASF16
 3831 00b5 02       		.byte	0x2
 3832 00b6 6502     		.2byte	0x265
 3833 00b8 BC000000 		.4byte	0xbc
 3834 00bc 05       		.uleb128 0x5
 3835 00bd 77000000 		.4byte	0x77
 3836 00c1 04       		.uleb128 0x4
 3837 00c2 16060000 		.4byte	.LASF17
 3838 00c6 02       		.byte	0x2
 3839 00c7 7502     		.2byte	0x275
 3840 00c9 CD000000 		.4byte	0xcd
 3841 00cd 06       		.uleb128 0x6
 3842 00ce 04       		.byte	0x4
ARM GAS  C:\Users\fneves\AppData\Local\Temp\ccoNsDRu.s 			page 94


 3843 00cf D3000000 		.4byte	0xd3
 3844 00d3 07       		.uleb128 0x7
 3845 00d4 08       		.uleb128 0x8
 3846 00d5 20       		.byte	0x20
 3847 00d6 03       		.byte	0x3
 3848 00d7 26       		.byte	0x26
 3849 00d8 E9000000 		.4byte	0xe9
 3850 00dc 09       		.uleb128 0x9
 3851 00dd 63746C00 		.ascii	"ctl\000"
 3852 00e1 03       		.byte	0x3
 3853 00e2 28       		.byte	0x28
 3854 00e3 E9000000 		.4byte	0xe9
 3855 00e7 00       		.byte	0
 3856 00e8 00       		.byte	0
 3857 00e9 0A       		.uleb128 0xa
 3858 00ea 77000000 		.4byte	0x77
 3859 00ee F9000000 		.4byte	0xf9
 3860 00f2 0B       		.uleb128 0xb
 3861 00f3 F9000000 		.4byte	0xf9
 3862 00f7 07       		.byte	0x7
 3863 00f8 00       		.byte	0
 3864 00f9 02       		.uleb128 0x2
 3865 00fa 04       		.byte	0x4
 3866 00fb 07       		.byte	0x7
 3867 00fc DB030000 		.4byte	.LASF18
 3868 0100 0C       		.uleb128 0xc
 3869 0101 29010000 		.4byte	.LASF19
 3870 0105 03       		.byte	0x3
 3871 0106 29       		.byte	0x29
 3872 0107 D4000000 		.4byte	0xd4
 3873 010b 08       		.uleb128 0x8
 3874 010c 10       		.byte	0x10
 3875 010d 03       		.byte	0x3
 3876 010e 2C       		.byte	0x2c
 3877 010f 44010000 		.4byte	0x144
 3878 0113 09       		.uleb128 0x9
 3879 0114 73726300 		.ascii	"src\000"
 3880 0118 03       		.byte	0x3
 3881 0119 2E       		.byte	0x2e
 3882 011a 44010000 		.4byte	0x144
 3883 011e 00       		.byte	0
 3884 011f 09       		.uleb128 0x9
 3885 0120 64737400 		.ascii	"dst\000"
 3886 0124 03       		.byte	0x3
 3887 0125 2F       		.byte	0x2f
 3888 0126 44010000 		.4byte	0x144
 3889 012a 04       		.byte	0x4
 3890 012b 09       		.uleb128 0x9
 3891 012c 63746C00 		.ascii	"ctl\000"
 3892 0130 03       		.byte	0x3
 3893 0131 30       		.byte	0x30
 3894 0132 77000000 		.4byte	0x77
 3895 0136 08       		.byte	0x8
 3896 0137 0D       		.uleb128 0xd
 3897 0138 EC060000 		.4byte	.LASF20
 3898 013c 03       		.byte	0x3
 3899 013d 31       		.byte	0x31
ARM GAS  C:\Users\fneves\AppData\Local\Temp\ccoNsDRu.s 			page 95


 3900 013e 77000000 		.4byte	0x77
 3901 0142 0C       		.byte	0xc
 3902 0143 00       		.byte	0
 3903 0144 0E       		.uleb128 0xe
 3904 0145 04       		.byte	0x4
 3905 0146 0C       		.uleb128 0xc
 3906 0147 F3060000 		.4byte	.LASF21
 3907 014b 03       		.byte	0x3
 3908 014c 32       		.byte	0x32
 3909 014d 0B010000 		.4byte	0x10b
 3910 0151 0F       		.uleb128 0xf
 3911 0152 0001     		.2byte	0x100
 3912 0154 03       		.byte	0x3
 3913 0155 38       		.byte	0x38
 3914 0156 67010000 		.4byte	0x167
 3915 015a 0D       		.uleb128 0xd
 3916 015b E0050000 		.4byte	.LASF22
 3917 015f 03       		.byte	0x3
 3918 0160 3A       		.byte	0x3a
 3919 0161 67010000 		.4byte	0x167
 3920 0165 00       		.byte	0
 3921 0166 00       		.byte	0
 3922 0167 0A       		.uleb128 0xa
 3923 0168 46010000 		.4byte	0x146
 3924 016c 7D010000 		.4byte	0x17d
 3925 0170 0B       		.uleb128 0xb
 3926 0171 F9000000 		.4byte	0xf9
 3927 0175 07       		.byte	0x7
 3928 0176 0B       		.uleb128 0xb
 3929 0177 F9000000 		.4byte	0xf9
 3930 017b 01       		.byte	0x1
 3931 017c 00       		.byte	0
 3932 017d 0C       		.uleb128 0xc
 3933 017e 44070000 		.4byte	.LASF23
 3934 0182 03       		.byte	0x3
 3935 0183 3B       		.byte	0x3b
 3936 0184 51010000 		.4byte	0x151
 3937 0188 08       		.uleb128 0x8
 3938 0189 20       		.byte	0x20
 3939 018a 03       		.byte	0x3
 3940 018b 3E       		.byte	0x3e
 3941 018c F1010000 		.4byte	0x1f1
 3942 0190 0D       		.uleb128 0xd
 3943 0191 B5040000 		.4byte	.LASF24
 3944 0195 03       		.byte	0x3
 3945 0196 44       		.byte	0x44
 3946 0197 77000000 		.4byte	0x77
 3947 019b 00       		.byte	0
 3948 019c 0D       		.uleb128 0xd
 3949 019d 7E010000 		.4byte	.LASF25
 3950 01a1 03       		.byte	0x3
 3951 01a2 49       		.byte	0x49
 3952 01a3 83000000 		.4byte	0x83
 3953 01a7 04       		.byte	0x4
 3954 01a8 0D       		.uleb128 0xd
 3955 01a9 69040000 		.4byte	.LASF26
 3956 01ad 03       		.byte	0x3
ARM GAS  C:\Users\fneves\AppData\Local\Temp\ccoNsDRu.s 			page 96


 3957 01ae 4C       		.byte	0x4c
 3958 01af 77000000 		.4byte	0x77
 3959 01b3 08       		.byte	0x8
 3960 01b4 0D       		.uleb128 0xd
 3961 01b5 97060000 		.4byte	.LASF27
 3962 01b9 03       		.byte	0x3
 3963 01ba 51       		.byte	0x51
 3964 01bb 77000000 		.4byte	0x77
 3965 01bf 0C       		.byte	0xc
 3966 01c0 0D       		.uleb128 0xd
 3967 01c1 D2010000 		.4byte	.LASF28
 3968 01c5 03       		.byte	0x3
 3969 01c6 54       		.byte	0x54
 3970 01c7 77000000 		.4byte	0x77
 3971 01cb 10       		.byte	0x10
 3972 01cc 0D       		.uleb128 0xd
 3973 01cd 39020000 		.4byte	.LASF29
 3974 01d1 03       		.byte	0x3
 3975 01d2 57       		.byte	0x57
 3976 01d3 77000000 		.4byte	0x77
 3977 01d7 14       		.byte	0x14
 3978 01d8 0D       		.uleb128 0xd
 3979 01d9 9B070000 		.4byte	.LASF30
 3980 01dd 03       		.byte	0x3
 3981 01de 5A       		.byte	0x5a
 3982 01df 77000000 		.4byte	0x77
 3983 01e3 18       		.byte	0x18
 3984 01e4 0D       		.uleb128 0xd
 3985 01e5 93070000 		.4byte	.LASF31
 3986 01e9 03       		.byte	0x3
 3987 01ea 5D       		.byte	0x5d
 3988 01eb 77000000 		.4byte	0x77
 3989 01ef 1C       		.byte	0x1c
 3990 01f0 00       		.byte	0
 3991 01f1 0C       		.uleb128 0xc
 3992 01f2 10020000 		.4byte	.LASF32
 3993 01f6 03       		.byte	0x3
 3994 01f7 5F       		.byte	0x5f
 3995 01f8 88010000 		.4byte	0x188
 3996 01fc 0C       		.uleb128 0xc
 3997 01fd CB040000 		.4byte	.LASF33
 3998 0201 03       		.byte	0x3
 3999 0202 67       		.byte	0x67
 4000 0203 CD000000 		.4byte	0xcd
 4001 0207 10       		.uleb128 0x10
 4002 0208 8B060000 		.4byte	.LASF38
 4003 020c 01       		.byte	0x1
 4004 020d 3E       		.byte	0x3e
 4005 020e 00000000 		.4byte	.LFB1
 4006 0212 3C000000 		.4byte	.LFE1-.LFB1
 4007 0216 01       		.uleb128 0x1
 4008 0217 9C       		.byte	0x9c
 4009 0218 2E020000 		.4byte	0x22e
 4010 021c 11       		.uleb128 0x11
 4011 021d 55010000 		.4byte	.LASF49
 4012 0221 01       		.byte	0x1
 4013 0222 40       		.byte	0x40
ARM GAS  C:\Users\fneves\AppData\Local\Temp\ccoNsDRu.s 			page 97


 4014 0223 6B000000 		.4byte	0x6b
 4015 0227 05       		.uleb128 0x5
 4016 0228 03       		.byte	0x3
 4017 0229 00000000 		.4byte	initIntrVector.4912
 4018 022d 00       		.byte	0
 4019 022e 12       		.uleb128 0x12
 4020 022f 94010000 		.4byte	.LASF104
 4021 0233 01       		.byte	0x1
 4022 0234 5D       		.byte	0x5d
 4023 0235 00000000 		.4byte	.LFB2
 4024 0239 18000000 		.4byte	.LFE2-.LFB2
 4025 023d 01       		.uleb128 0x1
 4026 023e 9C       		.byte	0x9c
 4027 023f 13       		.uleb128 0x13
 4028 0240 F3040000 		.4byte	.LASF34
 4029 0244 01       		.byte	0x1
 4030 0245 79       		.byte	0x79
 4031 0246 77000000 		.4byte	0x77
 4032 024a 00000000 		.4byte	.LFB3
 4033 024e 14000000 		.4byte	.LFE3-.LFB3
 4034 0252 01       		.uleb128 0x1
 4035 0253 9C       		.byte	0x9c
 4036 0254 13       		.uleb128 0x13
 4037 0255 53020000 		.4byte	.LASF35
 4038 0259 01       		.byte	0x1
 4039 025a 8E       		.byte	0x8e
 4040 025b 77000000 		.4byte	0x77
 4041 025f 00000000 		.4byte	.LFB4
 4042 0263 14000000 		.4byte	.LFE4-.LFB4
 4043 0267 01       		.uleb128 0x1
 4044 0268 9C       		.byte	0x9c
 4045 0269 13       		.uleb128 0x13
 4046 026a 2B000000 		.4byte	.LASF36
 4047 026e 01       		.byte	0x1
 4048 026f AA       		.byte	0xaa
 4049 0270 44010000 		.4byte	0x144
 4050 0274 00000000 		.4byte	.LFB5
 4051 0278 14000000 		.4byte	.LFE5-.LFB5
 4052 027c 01       		.uleb128 0x1
 4053 027d 9C       		.byte	0x9c
 4054 027e 13       		.uleb128 0x13
 4055 027f BB060000 		.4byte	.LASF37
 4056 0283 01       		.byte	0x1
 4057 0284 C6       		.byte	0xc6
 4058 0285 44010000 		.4byte	0x144
 4059 0289 00000000 		.4byte	.LFB6
 4060 028d 14000000 		.4byte	.LFE6-.LFB6
 4061 0291 01       		.uleb128 0x1
 4062 0292 9C       		.byte	0x9c
 4063 0293 10       		.uleb128 0x10
 4064 0294 00000000 		.4byte	.LASF39
 4065 0298 01       		.byte	0x1
 4066 0299 E3       		.byte	0xe3
 4067 029a 00000000 		.4byte	.LFB7
 4068 029e 18000000 		.4byte	.LFE7-.LFB7
 4069 02a2 01       		.uleb128 0x1
 4070 02a3 9C       		.byte	0x9c
ARM GAS  C:\Users\fneves\AppData\Local\Temp\ccoNsDRu.s 			page 98


 4071 02a4 B7020000 		.4byte	0x2b7
 4072 02a8 14       		.uleb128 0x14
 4073 02a9 A2000000 		.4byte	.LASF42
 4074 02ad 01       		.byte	0x1
 4075 02ae E3       		.byte	0xe3
 4076 02af C1000000 		.4byte	0xc1
 4077 02b3 02       		.uleb128 0x2
 4078 02b4 91       		.byte	0x91
 4079 02b5 74       		.sleb128 -12
 4080 02b6 00       		.byte	0
 4081 02b7 13       		.uleb128 0x13
 4082 02b8 51040000 		.4byte	.LASF40
 4083 02bc 01       		.byte	0x1
 4084 02bd F7       		.byte	0xf7
 4085 02be 77000000 		.4byte	0x77
 4086 02c2 00000000 		.4byte	.LFB8
 4087 02c6 14000000 		.4byte	.LFE8-.LFB8
 4088 02ca 01       		.uleb128 0x1
 4089 02cb 9C       		.byte	0x9c
 4090 02cc 15       		.uleb128 0x15
 4091 02cd FC050000 		.4byte	.LASF41
 4092 02d1 01       		.byte	0x1
 4093 02d2 0B01     		.2byte	0x10b
 4094 02d4 00000000 		.4byte	.LFB9
 4095 02d8 18000000 		.4byte	.LFE9-.LFB9
 4096 02dc 01       		.uleb128 0x1
 4097 02dd 9C       		.byte	0x9c
 4098 02de F2020000 		.4byte	0x2f2
 4099 02e2 16       		.uleb128 0x16
 4100 02e3 7E050000 		.4byte	.LASF43
 4101 02e7 01       		.byte	0x1
 4102 02e8 0B01     		.2byte	0x10b
 4103 02ea 77000000 		.4byte	0x77
 4104 02ee 02       		.uleb128 0x2
 4105 02ef 91       		.byte	0x91
 4106 02f0 74       		.sleb128 -12
 4107 02f1 00       		.byte	0
 4108 02f2 15       		.uleb128 0x15
 4109 02f3 F4010000 		.4byte	.LASF44
 4110 02f7 01       		.byte	0x1
 4111 02f8 1F01     		.2byte	0x11f
 4112 02fa 00000000 		.4byte	.LFB10
 4113 02fe 18000000 		.4byte	.LFE10-.LFB10
 4114 0302 01       		.uleb128 0x1
 4115 0303 9C       		.byte	0x9c
 4116 0304 18030000 		.4byte	0x318
 4117 0308 16       		.uleb128 0x16
 4118 0309 7E050000 		.4byte	.LASF43
 4119 030d 01       		.byte	0x1
 4120 030e 1F01     		.2byte	0x11f
 4121 0310 77000000 		.4byte	0x77
 4122 0314 02       		.uleb128 0x2
 4123 0315 91       		.byte	0x91
 4124 0316 74       		.sleb128 -12
 4125 0317 00       		.byte	0
 4126 0318 17       		.uleb128 0x17
 4127 0319 8C050000 		.4byte	.LASF45
ARM GAS  C:\Users\fneves\AppData\Local\Temp\ccoNsDRu.s 			page 99


 4128 031d 01       		.byte	0x1
 4129 031e 3301     		.2byte	0x133
 4130 0320 77000000 		.4byte	0x77
 4131 0324 00000000 		.4byte	.LFB11
 4132 0328 14000000 		.4byte	.LFE11-.LFB11
 4133 032c 01       		.uleb128 0x1
 4134 032d 9C       		.byte	0x9c
 4135 032e 17       		.uleb128 0x17
 4136 032f 10050000 		.4byte	.LASF46
 4137 0333 01       		.byte	0x1
 4138 0334 4701     		.2byte	0x147
 4139 0336 77000000 		.4byte	0x77
 4140 033a 00000000 		.4byte	.LFB12
 4141 033e 14000000 		.4byte	.LFE12-.LFB12
 4142 0342 01       		.uleb128 0x1
 4143 0343 9C       		.byte	0x9c
 4144 0344 18       		.uleb128 0x18
 4145 0345 37040000 		.4byte	.LASF51
 4146 0349 01       		.byte	0x1
 4147 034a 5E01     		.2byte	0x15e
 4148 034c FC010000 		.4byte	0x1fc
 4149 0350 00000000 		.4byte	.LFB13
 4150 0354 48000000 		.4byte	.LFE13-.LFB13
 4151 0358 01       		.uleb128 0x1
 4152 0359 9C       		.byte	0x9c
 4153 035a 8C030000 		.4byte	0x38c
 4154 035e 16       		.uleb128 0x16
 4155 035f B7050000 		.4byte	.LASF47
 4156 0363 01       		.byte	0x1
 4157 0364 5E01     		.2byte	0x15e
 4158 0366 83000000 		.4byte	0x83
 4159 036a 02       		.uleb128 0x2
 4160 036b 91       		.byte	0x91
 4161 036c 6C       		.sleb128 -20
 4162 036d 16       		.uleb128 0x16
 4163 036e 63030000 		.4byte	.LASF48
 4164 0372 01       		.byte	0x1
 4165 0373 5E01     		.2byte	0x15e
 4166 0375 FC010000 		.4byte	0x1fc
 4167 0379 02       		.uleb128 0x2
 4168 037a 91       		.byte	0x91
 4169 037b 68       		.sleb128 -24
 4170 037c 19       		.uleb128 0x19
 4171 037d DE010000 		.4byte	.LASF50
 4172 0381 01       		.byte	0x1
 4173 0382 6001     		.2byte	0x160
 4174 0384 FC010000 		.4byte	0x1fc
 4175 0388 02       		.uleb128 0x2
 4176 0389 91       		.byte	0x91
 4177 038a 74       		.sleb128 -12
 4178 038b 00       		.byte	0
 4179 038c 18       		.uleb128 0x18
 4180 038d 64010000 		.4byte	.LASF52
 4181 0391 01       		.byte	0x1
 4182 0392 7901     		.2byte	0x179
 4183 0394 FC010000 		.4byte	0x1fc
 4184 0398 00000000 		.4byte	.LFB14
ARM GAS  C:\Users\fneves\AppData\Local\Temp\ccoNsDRu.s 			page 100


 4185 039c 38000000 		.4byte	.LFE14-.LFB14
 4186 03a0 01       		.uleb128 0x1
 4187 03a1 9C       		.byte	0x9c
 4188 03a2 B6030000 		.4byte	0x3b6
 4189 03a6 16       		.uleb128 0x16
 4190 03a7 B7050000 		.4byte	.LASF47
 4191 03ab 01       		.byte	0x1
 4192 03ac 7901     		.2byte	0x179
 4193 03ae 83000000 		.4byte	0x83
 4194 03b2 02       		.uleb128 0x2
 4195 03b3 91       		.byte	0x91
 4196 03b4 74       		.sleb128 -12
 4197 03b5 00       		.byte	0
 4198 03b6 1A       		.uleb128 0x1a
 4199 03b7 95040000 		.4byte	.LASF53
 4200 03bb 01       		.byte	0x1
 4201 03bc 9401     		.2byte	0x194
 4202 03be 00000000 		.4byte	.LFB15
 4203 03c2 50000000 		.4byte	.LFE15-.LFB15
 4204 03c6 01       		.uleb128 0x1
 4205 03c7 9C       		.byte	0x9c
 4206 03c8 EB030000 		.4byte	0x3eb
 4207 03cc 19       		.uleb128 0x19
 4208 03cd E4030000 		.4byte	.LASF54
 4209 03d1 01       		.byte	0x1
 4210 03d2 9601     		.2byte	0x196
 4211 03d4 77000000 		.4byte	0x77
 4212 03d8 02       		.uleb128 0x2
 4213 03d9 91       		.byte	0x91
 4214 03da 74       		.sleb128 -12
 4215 03db 19       		.uleb128 0x19
 4216 03dc 74000000 		.4byte	.LASF55
 4217 03e0 01       		.byte	0x1
 4218 03e1 9701     		.2byte	0x197
 4219 03e3 77000000 		.4byte	0x77
 4220 03e7 02       		.uleb128 0x2
 4221 03e8 91       		.byte	0x91
 4222 03e9 70       		.sleb128 -16
 4223 03ea 00       		.byte	0
 4224 03eb 1B       		.uleb128 0x1b
 4225 03ec E9030000 		.4byte	.LASF105
 4226 03f0 01       		.byte	0x1
 4227 03f1 BB01     		.2byte	0x1bb
 4228 03f3 00000000 		.4byte	.LFB16
 4229 03f7 0E000000 		.4byte	.LFE16-.LFB16
 4230 03fb 01       		.uleb128 0x1
 4231 03fc 9C       		.byte	0x9c
 4232 03fd 1C       		.uleb128 0x1c
 4233 03fe D3050000 		.4byte	.LASF56
 4234 0402 01       		.byte	0x1
 4235 0403 D801     		.2byte	0x1d8
 4236 0405 83000000 		.4byte	0x83
 4237 0409 00000000 		.4byte	.LFB17
 4238 040d 48000000 		.4byte	.LFE17-.LFB17
 4239 0411 01       		.uleb128 0x1
 4240 0412 9C       		.byte	0x9c
 4241 0413 36040000 		.4byte	0x436
ARM GAS  C:\Users\fneves\AppData\Local\Temp\ccoNsDRu.s 			page 101


 4242 0417 19       		.uleb128 0x19
 4243 0418 B7050000 		.4byte	.LASF47
 4244 041c 01       		.byte	0x1
 4245 041d DA01     		.2byte	0x1da
 4246 041f 83000000 		.4byte	0x83
 4247 0423 02       		.uleb128 0x2
 4248 0424 91       		.byte	0x91
 4249 0425 74       		.sleb128 -12
 4250 0426 19       		.uleb128 0x19
 4251 0427 EB050000 		.4byte	.LASF57
 4252 042b 01       		.byte	0x1
 4253 042c DB01     		.2byte	0x1db
 4254 042e 77000000 		.4byte	0x77
 4255 0432 02       		.uleb128 0x2
 4256 0433 91       		.byte	0x91
 4257 0434 70       		.sleb128 -16
 4258 0435 00       		.byte	0
 4259 0436 18       		.uleb128 0x18
 4260 0437 BB070000 		.4byte	.LASF58
 4261 043b 01       		.byte	0x1
 4262 043c FC01     		.2byte	0x1fc
 4263 043e A4000000 		.4byte	0xa4
 4264 0442 00000000 		.4byte	.LFB18
 4265 0446 5C000000 		.4byte	.LFE18-.LFB18
 4266 044a 01       		.uleb128 0x1
 4267 044b 9C       		.byte	0x9c
 4268 044c 7E040000 		.4byte	0x47e
 4269 0450 16       		.uleb128 0x16
 4270 0451 B7050000 		.4byte	.LASF47
 4271 0455 01       		.byte	0x1
 4272 0456 FC01     		.2byte	0x1fc
 4273 0458 83000000 		.4byte	0x83
 4274 045c 02       		.uleb128 0x2
 4275 045d 91       		.byte	0x91
 4276 045e 6C       		.sleb128 -20
 4277 045f 19       		.uleb128 0x19
 4278 0460 EB050000 		.4byte	.LASF57
 4279 0464 01       		.byte	0x1
 4280 0465 FE01     		.2byte	0x1fe
 4281 0467 77000000 		.4byte	0x77
 4282 046b 02       		.uleb128 0x2
 4283 046c 91       		.byte	0x91
 4284 046d 70       		.sleb128 -16
 4285 046e 19       		.uleb128 0x19
 4286 046f A1010000 		.4byte	.LASF59
 4287 0473 01       		.byte	0x1
 4288 0474 FF01     		.2byte	0x1ff
 4289 0476 A4000000 		.4byte	0xa4
 4290 047a 02       		.uleb128 0x2
 4291 047b 91       		.byte	0x91
 4292 047c 74       		.sleb128 -12
 4293 047d 00       		.byte	0
 4294 047e 1A       		.uleb128 0x1a
 4295 047f 66000000 		.4byte	.LASF60
 4296 0483 01       		.byte	0x1
 4297 0484 2502     		.2byte	0x225
 4298 0486 00000000 		.4byte	.LFB19
ARM GAS  C:\Users\fneves\AppData\Local\Temp\ccoNsDRu.s 			page 102


 4299 048a 44000000 		.4byte	.LFE19-.LFB19
 4300 048e 01       		.uleb128 0x1
 4301 048f 9C       		.byte	0x9c
 4302 0490 A4040000 		.4byte	0x4a4
 4303 0494 16       		.uleb128 0x16
 4304 0495 B7050000 		.4byte	.LASF47
 4305 0499 01       		.byte	0x1
 4306 049a 2502     		.2byte	0x225
 4307 049c 83000000 		.4byte	0x83
 4308 04a0 02       		.uleb128 0x2
 4309 04a1 91       		.byte	0x91
 4310 04a2 74       		.sleb128 -12
 4311 04a3 00       		.byte	0
 4312 04a4 1A       		.uleb128 0x1a
 4313 04a5 44000000 		.4byte	.LASF61
 4314 04a9 01       		.byte	0x1
 4315 04aa 3E02     		.2byte	0x23e
 4316 04ac 00000000 		.4byte	.LFB20
 4317 04b0 44000000 		.4byte	.LFE20-.LFB20
 4318 04b4 01       		.uleb128 0x1
 4319 04b5 9C       		.byte	0x9c
 4320 04b6 CA040000 		.4byte	0x4ca
 4321 04ba 16       		.uleb128 0x16
 4322 04bb B7050000 		.4byte	.LASF47
 4323 04bf 01       		.byte	0x1
 4324 04c0 3E02     		.2byte	0x23e
 4325 04c2 83000000 		.4byte	0x83
 4326 04c6 02       		.uleb128 0x2
 4327 04c7 91       		.byte	0x91
 4328 04c8 74       		.sleb128 -12
 4329 04c9 00       		.byte	0
 4330 04ca 1A       		.uleb128 0x1a
 4331 04cb 22070000 		.4byte	.LASF62
 4332 04cf 01       		.byte	0x1
 4333 04d0 5502     		.2byte	0x255
 4334 04d2 00000000 		.4byte	.LFB21
 4335 04d6 40000000 		.4byte	.LFE21-.LFB21
 4336 04da 01       		.uleb128 0x1
 4337 04db 9C       		.byte	0x9c
 4338 04dc 02050000 		.4byte	0x502
 4339 04e0 16       		.uleb128 0x16
 4340 04e1 B7050000 		.4byte	.LASF47
 4341 04e5 01       		.byte	0x1
 4342 04e6 5502     		.2byte	0x255
 4343 04e8 83000000 		.4byte	0x83
 4344 04ec 02       		.uleb128 0x2
 4345 04ed 91       		.byte	0x91
 4346 04ee 74       		.sleb128 -12
 4347 04ef 19       		.uleb128 0x19
 4348 04f0 C8000000 		.4byte	.LASF63
 4349 04f4 01       		.byte	0x1
 4350 04f5 5802     		.2byte	0x258
 4351 04f7 12050000 		.4byte	0x512
 4352 04fb 05       		.uleb128 0x5
 4353 04fc 03       		.byte	0x3
 4354 04fd 00000000 		.4byte	trCtlLut.4987
 4355 0501 00       		.byte	0
ARM GAS  C:\Users\fneves\AppData\Local\Temp\ccoNsDRu.s 			page 103


 4356 0502 0A       		.uleb128 0xa
 4357 0503 77000000 		.4byte	0x77
 4358 0507 12050000 		.4byte	0x512
 4359 050b 0B       		.uleb128 0xb
 4360 050c F9000000 		.4byte	0xf9
 4361 0510 00       		.byte	0
 4362 0511 00       		.byte	0
 4363 0512 1D       		.uleb128 0x1d
 4364 0513 02050000 		.4byte	0x502
 4365 0517 1A       		.uleb128 0x1a
 4366 0518 A4040000 		.4byte	.LASF64
 4367 051c 01       		.byte	0x1
 4368 051d 7302     		.2byte	0x273
 4369 051f 00000000 		.4byte	.LFB22
 4370 0523 70000000 		.4byte	.LFE22-.LFB22
 4371 0527 01       		.uleb128 0x1
 4372 0528 9C       		.byte	0x9c
 4373 0529 5B050000 		.4byte	0x55b
 4374 052d 16       		.uleb128 0x16
 4375 052e B7050000 		.4byte	.LASF47
 4376 0532 01       		.byte	0x1
 4377 0533 7302     		.2byte	0x273
 4378 0535 83000000 		.4byte	0x83
 4379 0539 02       		.uleb128 0x2
 4380 053a 91       		.byte	0x91
 4381 053b 6C       		.sleb128 -20
 4382 053c 16       		.uleb128 0x16
 4383 053d 6C030000 		.4byte	.LASF65
 4384 0541 01       		.byte	0x1
 4385 0542 7302     		.2byte	0x273
 4386 0544 83000000 		.4byte	0x83
 4387 0548 02       		.uleb128 0x2
 4388 0549 91       		.byte	0x91
 4389 054a 68       		.sleb128 -24
 4390 054b 19       		.uleb128 0x19
 4391 054c EB010000 		.4byte	.LASF66
 4392 0550 01       		.byte	0x1
 4393 0551 7502     		.2byte	0x275
 4394 0553 77000000 		.4byte	0x77
 4395 0557 02       		.uleb128 0x2
 4396 0558 91       		.byte	0x91
 4397 0559 74       		.sleb128 -12
 4398 055a 00       		.byte	0
 4399 055b 18       		.uleb128 0x18
 4400 055c 7A000000 		.4byte	.LASF67
 4401 0560 01       		.byte	0x1
 4402 0561 8D02     		.2byte	0x28d
 4403 0563 83000000 		.4byte	0x83
 4404 0567 00000000 		.4byte	.LFB23
 4405 056b 44000000 		.4byte	.LFE23-.LFB23
 4406 056f 01       		.uleb128 0x1
 4407 0570 9C       		.byte	0x9c
 4408 0571 94050000 		.4byte	0x594
 4409 0575 16       		.uleb128 0x16
 4410 0576 B7050000 		.4byte	.LASF47
 4411 057a 01       		.byte	0x1
 4412 057b 8D02     		.2byte	0x28d
ARM GAS  C:\Users\fneves\AppData\Local\Temp\ccoNsDRu.s 			page 104


 4413 057d 83000000 		.4byte	0x83
 4414 0581 02       		.uleb128 0x2
 4415 0582 91       		.byte	0x91
 4416 0583 6C       		.sleb128 -20
 4417 0584 19       		.uleb128 0x19
 4418 0585 6C030000 		.4byte	.LASF65
 4419 0589 01       		.byte	0x1
 4420 058a 8F02     		.2byte	0x28f
 4421 058c 77000000 		.4byte	0x77
 4422 0590 02       		.uleb128 0x2
 4423 0591 91       		.byte	0x91
 4424 0592 74       		.sleb128 -12
 4425 0593 00       		.byte	0
 4426 0594 1A       		.uleb128 0x1a
 4427 0595 22020000 		.4byte	.LASF68
 4428 0599 01       		.byte	0x1
 4429 059a AB02     		.2byte	0x2ab
 4430 059c 00000000 		.4byte	.LFB24
 4431 05a0 70000000 		.4byte	.LFE24-.LFB24
 4432 05a4 01       		.uleb128 0x1
 4433 05a5 9C       		.byte	0x9c
 4434 05a6 D8050000 		.4byte	0x5d8
 4435 05aa 16       		.uleb128 0x16
 4436 05ab B7050000 		.4byte	.LASF47
 4437 05af 01       		.byte	0x1
 4438 05b0 AB02     		.2byte	0x2ab
 4439 05b2 83000000 		.4byte	0x83
 4440 05b6 02       		.uleb128 0x2
 4441 05b7 91       		.byte	0x91
 4442 05b8 6C       		.sleb128 -20
 4443 05b9 16       		.uleb128 0x16
 4444 05ba E0050000 		.4byte	.LASF22
 4445 05be 01       		.byte	0x1
 4446 05bf AB02     		.2byte	0x2ab
 4447 05c1 83000000 		.4byte	0x83
 4448 05c5 02       		.uleb128 0x2
 4449 05c6 91       		.byte	0x91
 4450 05c7 68       		.sleb128 -24
 4451 05c8 19       		.uleb128 0x19
 4452 05c9 EB010000 		.4byte	.LASF66
 4453 05cd 01       		.byte	0x1
 4454 05ce AD02     		.2byte	0x2ad
 4455 05d0 77000000 		.4byte	0x77
 4456 05d4 02       		.uleb128 0x2
 4457 05d5 91       		.byte	0x91
 4458 05d6 74       		.sleb128 -12
 4459 05d7 00       		.byte	0
 4460 05d8 18       		.uleb128 0x18
 4461 05d9 09010000 		.4byte	.LASF69
 4462 05dd 01       		.byte	0x1
 4463 05de C602     		.2byte	0x2c6
 4464 05e0 83000000 		.4byte	0x83
 4465 05e4 00000000 		.4byte	.LFB25
 4466 05e8 44000000 		.4byte	.LFE25-.LFB25
 4467 05ec 01       		.uleb128 0x1
 4468 05ed 9C       		.byte	0x9c
 4469 05ee 11060000 		.4byte	0x611
ARM GAS  C:\Users\fneves\AppData\Local\Temp\ccoNsDRu.s 			page 105


 4470 05f2 16       		.uleb128 0x16
 4471 05f3 B7050000 		.4byte	.LASF47
 4472 05f7 01       		.byte	0x1
 4473 05f8 C602     		.2byte	0x2c6
 4474 05fa 83000000 		.4byte	0x83
 4475 05fe 02       		.uleb128 0x2
 4476 05ff 91       		.byte	0x91
 4477 0600 6C       		.sleb128 -20
 4478 0601 19       		.uleb128 0x19
 4479 0602 A8050000 		.4byte	.LASF70
 4480 0606 01       		.byte	0x1
 4481 0607 C802     		.2byte	0x2c8
 4482 0609 77000000 		.4byte	0x77
 4483 060d 02       		.uleb128 0x2
 4484 060e 91       		.byte	0x91
 4485 060f 74       		.sleb128 -12
 4486 0610 00       		.byte	0
 4487 0611 1A       		.uleb128 0x1a
 4488 0612 B2000000 		.4byte	.LASF71
 4489 0616 01       		.byte	0x1
 4490 0617 E902     		.2byte	0x2e9
 4491 0619 00000000 		.4byte	.LFB26
 4492 061d 54010000 		.4byte	.LFE26-.LFB26
 4493 0621 01       		.uleb128 0x1
 4494 0622 9C       		.byte	0x9c
 4495 0623 55060000 		.4byte	0x655
 4496 0627 16       		.uleb128 0x16
 4497 0628 B7050000 		.4byte	.LASF47
 4498 062c 01       		.byte	0x1
 4499 062d E902     		.2byte	0x2e9
 4500 062f 83000000 		.4byte	0x83
 4501 0633 02       		.uleb128 0x2
 4502 0634 91       		.byte	0x91
 4503 0635 74       		.sleb128 -12
 4504 0636 16       		.uleb128 0x16
 4505 0637 E0050000 		.4byte	.LASF22
 4506 063b 01       		.byte	0x1
 4507 063c E902     		.2byte	0x2e9
 4508 063e 83000000 		.4byte	0x83
 4509 0642 02       		.uleb128 0x2
 4510 0643 91       		.byte	0x91
 4511 0644 70       		.sleb128 -16
 4512 0645 16       		.uleb128 0x16
 4513 0646 23060000 		.4byte	.LASF72
 4514 064a 01       		.byte	0x1
 4515 064b E902     		.2byte	0x2e9
 4516 064d 55060000 		.4byte	0x655
 4517 0651 02       		.uleb128 0x2
 4518 0652 91       		.byte	0x91
 4519 0653 6C       		.sleb128 -20
 4520 0654 00       		.byte	0
 4521 0655 06       		.uleb128 0x6
 4522 0656 04       		.byte	0x4
 4523 0657 5B060000 		.4byte	0x65b
 4524 065b 1D       		.uleb128 0x1d
 4525 065c F1010000 		.4byte	0x1f1
 4526 0660 1A       		.uleb128 0x1a
ARM GAS  C:\Users\fneves\AppData\Local\Temp\ccoNsDRu.s 			page 106


 4527 0661 73060000 		.4byte	.LASF73
 4528 0665 01       		.byte	0x1
 4529 0666 1903     		.2byte	0x319
 4530 0668 00000000 		.4byte	.LFB27
 4531 066c 64000000 		.4byte	.LFE27-.LFB27
 4532 0670 01       		.uleb128 0x1
 4533 0671 9C       		.byte	0x9c
 4534 0672 95060000 		.4byte	0x695
 4535 0676 16       		.uleb128 0x16
 4536 0677 B7050000 		.4byte	.LASF47
 4537 067b 01       		.byte	0x1
 4538 067c 1903     		.2byte	0x319
 4539 067e 83000000 		.4byte	0x83
 4540 0682 02       		.uleb128 0x2
 4541 0683 91       		.byte	0x91
 4542 0684 74       		.sleb128 -12
 4543 0685 16       		.uleb128 0x16
 4544 0686 E0050000 		.4byte	.LASF22
 4545 068a 01       		.byte	0x1
 4546 068b 1903     		.2byte	0x319
 4547 068d 83000000 		.4byte	0x83
 4548 0691 02       		.uleb128 0x2
 4549 0692 91       		.byte	0x91
 4550 0693 70       		.sleb128 -16
 4551 0694 00       		.byte	0
 4552 0695 18       		.uleb128 0x18
 4553 0696 1E040000 		.4byte	.LASF74
 4554 069a 01       		.byte	0x1
 4555 069b 3303     		.2byte	0x333
 4556 069d 77000000 		.4byte	0x77
 4557 06a1 00000000 		.4byte	.LFB28
 4558 06a5 60000000 		.4byte	.LFE28-.LFB28
 4559 06a9 01       		.uleb128 0x1
 4560 06aa 9C       		.byte	0x9c
 4561 06ab CE060000 		.4byte	0x6ce
 4562 06af 16       		.uleb128 0x16
 4563 06b0 B7050000 		.4byte	.LASF47
 4564 06b4 01       		.byte	0x1
 4565 06b5 3303     		.2byte	0x333
 4566 06b7 83000000 		.4byte	0x83
 4567 06bb 02       		.uleb128 0x2
 4568 06bc 91       		.byte	0x91
 4569 06bd 74       		.sleb128 -12
 4570 06be 16       		.uleb128 0x16
 4571 06bf E0050000 		.4byte	.LASF22
 4572 06c3 01       		.byte	0x1
 4573 06c4 3303     		.2byte	0x333
 4574 06c6 83000000 		.4byte	0x83
 4575 06ca 02       		.uleb128 0x2
 4576 06cb 91       		.byte	0x91
 4577 06cc 70       		.sleb128 -16
 4578 06cd 00       		.byte	0
 4579 06ce 1A       		.uleb128 0x1a
 4580 06cf 42010000 		.4byte	.LASF75
 4581 06d3 01       		.byte	0x1
 4582 06d4 5003     		.2byte	0x350
 4583 06d6 00000000 		.4byte	.LFB29
ARM GAS  C:\Users\fneves\AppData\Local\Temp\ccoNsDRu.s 			page 107


 4584 06da 60000000 		.4byte	.LFE29-.LFB29
 4585 06de 01       		.uleb128 0x1
 4586 06df 9C       		.byte	0x9c
 4587 06e0 12070000 		.4byte	0x712
 4588 06e4 16       		.uleb128 0x16
 4589 06e5 B7050000 		.4byte	.LASF47
 4590 06e9 01       		.byte	0x1
 4591 06ea 5003     		.2byte	0x350
 4592 06ec 83000000 		.4byte	0x83
 4593 06f0 02       		.uleb128 0x2
 4594 06f1 91       		.byte	0x91
 4595 06f2 74       		.sleb128 -12
 4596 06f3 16       		.uleb128 0x16
 4597 06f4 E0050000 		.4byte	.LASF22
 4598 06f8 01       		.byte	0x1
 4599 06f9 5003     		.2byte	0x350
 4600 06fb 83000000 		.4byte	0x83
 4601 06ff 02       		.uleb128 0x2
 4602 0700 91       		.byte	0x91
 4603 0701 70       		.sleb128 -16
 4604 0702 16       		.uleb128 0x16
 4605 0703 13040000 		.4byte	.LASF76
 4606 0707 01       		.byte	0x1
 4607 0708 5003     		.2byte	0x350
 4608 070a 44010000 		.4byte	0x144
 4609 070e 02       		.uleb128 0x2
 4610 070f 91       		.byte	0x91
 4611 0710 6C       		.sleb128 -20
 4612 0711 00       		.byte	0
 4613 0712 18       		.uleb128 0x18
 4614 0713 18000000 		.4byte	.LASF77
 4615 0717 01       		.byte	0x1
 4616 0718 6903     		.2byte	0x369
 4617 071a 44010000 		.4byte	0x144
 4618 071e 00000000 		.4byte	.LFB30
 4619 0722 5C000000 		.4byte	.LFE30-.LFB30
 4620 0726 01       		.uleb128 0x1
 4621 0727 9C       		.byte	0x9c
 4622 0728 4B070000 		.4byte	0x74b
 4623 072c 16       		.uleb128 0x16
 4624 072d B7050000 		.4byte	.LASF47
 4625 0731 01       		.byte	0x1
 4626 0732 6903     		.2byte	0x369
 4627 0734 83000000 		.4byte	0x83
 4628 0738 02       		.uleb128 0x2
 4629 0739 91       		.byte	0x91
 4630 073a 74       		.sleb128 -12
 4631 073b 16       		.uleb128 0x16
 4632 073c E0050000 		.4byte	.LASF22
 4633 0740 01       		.byte	0x1
 4634 0741 6903     		.2byte	0x369
 4635 0743 83000000 		.4byte	0x83
 4636 0747 02       		.uleb128 0x2
 4637 0748 91       		.byte	0x91
 4638 0749 70       		.sleb128 -16
 4639 074a 00       		.byte	0
 4640 074b 1A       		.uleb128 0x1a
ARM GAS  C:\Users\fneves\AppData\Local\Temp\ccoNsDRu.s 			page 108


 4641 074c 53000000 		.4byte	.LASF78
 4642 0750 01       		.byte	0x1
 4643 0751 8603     		.2byte	0x386
 4644 0753 00000000 		.4byte	.LFB31
 4645 0757 60000000 		.4byte	.LFE31-.LFB31
 4646 075b 01       		.uleb128 0x1
 4647 075c 9C       		.byte	0x9c
 4648 075d 8F070000 		.4byte	0x78f
 4649 0761 16       		.uleb128 0x16
 4650 0762 B7050000 		.4byte	.LASF47
 4651 0766 01       		.byte	0x1
 4652 0767 8603     		.2byte	0x386
 4653 0769 83000000 		.4byte	0x83
 4654 076d 02       		.uleb128 0x2
 4655 076e 91       		.byte	0x91
 4656 076f 74       		.sleb128 -12
 4657 0770 16       		.uleb128 0x16
 4658 0771 E0050000 		.4byte	.LASF22
 4659 0775 01       		.byte	0x1
 4660 0776 8603     		.2byte	0x386
 4661 0778 83000000 		.4byte	0x83
 4662 077c 02       		.uleb128 0x2
 4663 077d 91       		.byte	0x91
 4664 077e 70       		.sleb128 -16
 4665 077f 16       		.uleb128 0x16
 4666 0780 0E030000 		.4byte	.LASF79
 4667 0784 01       		.byte	0x1
 4668 0785 8603     		.2byte	0x386
 4669 0787 44010000 		.4byte	0x144
 4670 078b 02       		.uleb128 0x2
 4671 078c 91       		.byte	0x91
 4672 078d 6C       		.sleb128 -20
 4673 078e 00       		.byte	0
 4674 078f 18       		.uleb128 0x18
 4675 0790 A8060000 		.4byte	.LASF80
 4676 0794 01       		.byte	0x1
 4677 0795 9F03     		.2byte	0x39f
 4678 0797 44010000 		.4byte	0x144
 4679 079b 00000000 		.4byte	.LFB32
 4680 079f 60000000 		.4byte	.LFE32-.LFB32
 4681 07a3 01       		.uleb128 0x1
 4682 07a4 9C       		.byte	0x9c
 4683 07a5 C8070000 		.4byte	0x7c8
 4684 07a9 16       		.uleb128 0x16
 4685 07aa B7050000 		.4byte	.LASF47
 4686 07ae 01       		.byte	0x1
 4687 07af 9F03     		.2byte	0x39f
 4688 07b1 83000000 		.4byte	0x83
 4689 07b5 02       		.uleb128 0x2
 4690 07b6 91       		.byte	0x91
 4691 07b7 74       		.sleb128 -12
 4692 07b8 16       		.uleb128 0x16
 4693 07b9 E0050000 		.4byte	.LASF22
 4694 07bd 01       		.byte	0x1
 4695 07be 9F03     		.2byte	0x39f
 4696 07c0 83000000 		.4byte	0x83
 4697 07c4 02       		.uleb128 0x2
ARM GAS  C:\Users\fneves\AppData\Local\Temp\ccoNsDRu.s 			page 109


 4698 07c5 91       		.byte	0x91
 4699 07c6 70       		.sleb128 -16
 4700 07c7 00       		.byte	0
 4701 07c8 1A       		.uleb128 0x1a
 4702 07c9 7D040000 		.4byte	.LASF81
 4703 07cd 01       		.byte	0x1
 4704 07ce C003     		.2byte	0x3c0
 4705 07d0 00000000 		.4byte	.LFB33
 4706 07d4 90000000 		.4byte	.LFE33-.LFB33
 4707 07d8 01       		.uleb128 0x1
 4708 07d9 9C       		.byte	0x9c
 4709 07da 1B080000 		.4byte	0x81b
 4710 07de 16       		.uleb128 0x16
 4711 07df B7050000 		.4byte	.LASF47
 4712 07e3 01       		.byte	0x1
 4713 07e4 C003     		.2byte	0x3c0
 4714 07e6 83000000 		.4byte	0x83
 4715 07ea 02       		.uleb128 0x2
 4716 07eb 91       		.byte	0x91
 4717 07ec 6C       		.sleb128 -20
 4718 07ed 16       		.uleb128 0x16
 4719 07ee E0050000 		.4byte	.LASF22
 4720 07f2 01       		.byte	0x1
 4721 07f3 C003     		.2byte	0x3c0
 4722 07f5 83000000 		.4byte	0x83
 4723 07f9 02       		.uleb128 0x2
 4724 07fa 91       		.byte	0x91
 4725 07fb 68       		.sleb128 -24
 4726 07fc 16       		.uleb128 0x16
 4727 07fd B5040000 		.4byte	.LASF24
 4728 0801 01       		.byte	0x1
 4729 0802 C003     		.2byte	0x3c0
 4730 0804 77000000 		.4byte	0x77
 4731 0808 02       		.uleb128 0x2
 4732 0809 91       		.byte	0x91
 4733 080a 64       		.sleb128 -28
 4734 080b 19       		.uleb128 0x19
 4735 080c EB010000 		.4byte	.LASF66
 4736 0810 01       		.byte	0x1
 4737 0811 C203     		.2byte	0x3c2
 4738 0813 77000000 		.4byte	0x77
 4739 0817 02       		.uleb128 0x2
 4740 0818 91       		.byte	0x91
 4741 0819 74       		.sleb128 -12
 4742 081a 00       		.byte	0
 4743 081b 18       		.uleb128 0x18
 4744 081c 3F060000 		.4byte	.LASF82
 4745 0820 01       		.byte	0x1
 4746 0821 E403     		.2byte	0x3e4
 4747 0823 77000000 		.4byte	0x77
 4748 0827 00000000 		.4byte	.LFB34
 4749 082b 68000000 		.4byte	.LFE34-.LFB34
 4750 082f 01       		.uleb128 0x1
 4751 0830 9C       		.byte	0x9c
 4752 0831 54080000 		.4byte	0x854
 4753 0835 16       		.uleb128 0x16
 4754 0836 B7050000 		.4byte	.LASF47
ARM GAS  C:\Users\fneves\AppData\Local\Temp\ccoNsDRu.s 			page 110


 4755 083a 01       		.byte	0x1
 4756 083b E403     		.2byte	0x3e4
 4757 083d 83000000 		.4byte	0x83
 4758 0841 02       		.uleb128 0x2
 4759 0842 91       		.byte	0x91
 4760 0843 74       		.sleb128 -12
 4761 0844 16       		.uleb128 0x16
 4762 0845 E0050000 		.4byte	.LASF22
 4763 0849 01       		.byte	0x1
 4764 084a E403     		.2byte	0x3e4
 4765 084c 83000000 		.4byte	0x83
 4766 0850 02       		.uleb128 0x2
 4767 0851 91       		.byte	0x91
 4768 0852 70       		.sleb128 -16
 4769 0853 00       		.byte	0
 4770 0854 1A       		.uleb128 0x1a
 4771 0855 D4060000 		.4byte	.LASF83
 4772 0859 01       		.byte	0x1
 4773 085a 0204     		.2byte	0x402
 4774 085c 00000000 		.4byte	.LFB35
 4775 0860 A4000000 		.4byte	.LFE35-.LFB35
 4776 0864 01       		.uleb128 0x1
 4777 0865 9C       		.byte	0x9c
 4778 0866 A7080000 		.4byte	0x8a7
 4779 086a 16       		.uleb128 0x16
 4780 086b B7050000 		.4byte	.LASF47
 4781 086f 01       		.byte	0x1
 4782 0870 0204     		.2byte	0x402
 4783 0872 83000000 		.4byte	0x83
 4784 0876 02       		.uleb128 0x2
 4785 0877 91       		.byte	0x91
 4786 0878 6C       		.sleb128 -20
 4787 0879 16       		.uleb128 0x16
 4788 087a E0050000 		.4byte	.LASF22
 4789 087e 01       		.byte	0x1
 4790 087f 0204     		.2byte	0x402
 4791 0881 83000000 		.4byte	0x83
 4792 0885 02       		.uleb128 0x2
 4793 0886 91       		.byte	0x91
 4794 0887 68       		.sleb128 -24
 4795 0888 16       		.uleb128 0x16
 4796 0889 7E010000 		.4byte	.LASF25
 4797 088d 01       		.byte	0x1
 4798 088e 0204     		.2byte	0x402
 4799 0890 83000000 		.4byte	0x83
 4800 0894 02       		.uleb128 0x2
 4801 0895 91       		.byte	0x91
 4802 0896 64       		.sleb128 -28
 4803 0897 19       		.uleb128 0x19
 4804 0898 EB010000 		.4byte	.LASF66
 4805 089c 01       		.byte	0x1
 4806 089d 0404     		.2byte	0x404
 4807 089f 77000000 		.4byte	0x77
 4808 08a3 02       		.uleb128 0x2
 4809 08a4 91       		.byte	0x91
 4810 08a5 74       		.sleb128 -12
 4811 08a6 00       		.byte	0
ARM GAS  C:\Users\fneves\AppData\Local\Temp\ccoNsDRu.s 			page 111


 4812 08a7 18       		.uleb128 0x18
 4813 08a8 EB000000 		.4byte	.LASF84
 4814 08ac 01       		.byte	0x1
 4815 08ad 2204     		.2byte	0x422
 4816 08af 83000000 		.4byte	0x83
 4817 08b3 00000000 		.4byte	.LFB36
 4818 08b7 6C000000 		.4byte	.LFE36-.LFB36
 4819 08bb 01       		.uleb128 0x1
 4820 08bc 9C       		.byte	0x9c
 4821 08bd EF080000 		.4byte	0x8ef
 4822 08c1 16       		.uleb128 0x16
 4823 08c2 B7050000 		.4byte	.LASF47
 4824 08c6 01       		.byte	0x1
 4825 08c7 2204     		.2byte	0x422
 4826 08c9 83000000 		.4byte	0x83
 4827 08cd 02       		.uleb128 0x2
 4828 08ce 91       		.byte	0x91
 4829 08cf 6C       		.sleb128 -20
 4830 08d0 16       		.uleb128 0x16
 4831 08d1 E0050000 		.4byte	.LASF22
 4832 08d5 01       		.byte	0x1
 4833 08d6 2204     		.2byte	0x422
 4834 08d8 83000000 		.4byte	0x83
 4835 08dc 02       		.uleb128 0x2
 4836 08dd 91       		.byte	0x91
 4837 08de 68       		.sleb128 -24
 4838 08df 19       		.uleb128 0x19
 4839 08e0 07040000 		.4byte	.LASF85
 4840 08e4 01       		.byte	0x1
 4841 08e5 2404     		.2byte	0x424
 4842 08e7 77000000 		.4byte	0x77
 4843 08eb 02       		.uleb128 0x2
 4844 08ec 91       		.byte	0x91
 4845 08ed 74       		.sleb128 -12
 4846 08ee 00       		.byte	0
 4847 08ef 1A       		.uleb128 0x1a
 4848 08f0 57060000 		.4byte	.LASF86
 4849 08f4 01       		.byte	0x1
 4850 08f5 4904     		.2byte	0x449
 4851 08f7 00000000 		.4byte	.LFB37
 4852 08fb 90000000 		.4byte	.LFE37-.LFB37
 4853 08ff 01       		.uleb128 0x1
 4854 0900 9C       		.byte	0x9c
 4855 0901 42090000 		.4byte	0x942
 4856 0905 16       		.uleb128 0x16
 4857 0906 B7050000 		.4byte	.LASF47
 4858 090a 01       		.byte	0x1
 4859 090b 4904     		.2byte	0x449
 4860 090d 83000000 		.4byte	0x83
 4861 0911 02       		.uleb128 0x2
 4862 0912 91       		.byte	0x91
 4863 0913 6C       		.sleb128 -20
 4864 0914 16       		.uleb128 0x16
 4865 0915 E0050000 		.4byte	.LASF22
 4866 0919 01       		.byte	0x1
 4867 091a 4904     		.2byte	0x449
 4868 091c 83000000 		.4byte	0x83
ARM GAS  C:\Users\fneves\AppData\Local\Temp\ccoNsDRu.s 			page 112


 4869 0920 02       		.uleb128 0x2
 4870 0921 91       		.byte	0x91
 4871 0922 68       		.sleb128 -24
 4872 0923 16       		.uleb128 0x16
 4873 0924 14070000 		.4byte	.LASF87
 4874 0928 01       		.byte	0x1
 4875 0929 4904     		.2byte	0x449
 4876 092b 77000000 		.4byte	0x77
 4877 092f 02       		.uleb128 0x2
 4878 0930 91       		.byte	0x91
 4879 0931 64       		.sleb128 -28
 4880 0932 19       		.uleb128 0x19
 4881 0933 EB010000 		.4byte	.LASF66
 4882 0937 01       		.byte	0x1
 4883 0938 4B04     		.2byte	0x44b
 4884 093a 77000000 		.4byte	0x77
 4885 093e 02       		.uleb128 0x2
 4886 093f 91       		.byte	0x91
 4887 0940 74       		.sleb128 -12
 4888 0941 00       		.byte	0
 4889 0942 18       		.uleb128 0x18
 4890 0943 AF010000 		.4byte	.LASF88
 4891 0947 01       		.byte	0x1
 4892 0948 6804     		.2byte	0x468
 4893 094a 77000000 		.4byte	0x77
 4894 094e 00000000 		.4byte	.LFB38
 4895 0952 68000000 		.4byte	.LFE38-.LFB38
 4896 0956 01       		.uleb128 0x1
 4897 0957 9C       		.byte	0x9c
 4898 0958 7B090000 		.4byte	0x97b
 4899 095c 16       		.uleb128 0x16
 4900 095d B7050000 		.4byte	.LASF47
 4901 0961 01       		.byte	0x1
 4902 0962 6804     		.2byte	0x468
 4903 0964 83000000 		.4byte	0x83
 4904 0968 02       		.uleb128 0x2
 4905 0969 91       		.byte	0x91
 4906 096a 74       		.sleb128 -12
 4907 096b 16       		.uleb128 0x16
 4908 096c E0050000 		.4byte	.LASF22
 4909 0970 01       		.byte	0x1
 4910 0971 6804     		.2byte	0x468
 4911 0973 83000000 		.4byte	0x83
 4912 0977 02       		.uleb128 0x2
 4913 0978 91       		.byte	0x91
 4914 0979 70       		.sleb128 -16
 4915 097a 00       		.byte	0
 4916 097b 1A       		.uleb128 0x1a
 4917 097c 75030000 		.4byte	.LASF89
 4918 0980 01       		.byte	0x1
 4919 0981 8A04     		.2byte	0x48a
 4920 0983 00000000 		.4byte	.LFB39
 4921 0987 90000000 		.4byte	.LFE39-.LFB39
 4922 098b 01       		.uleb128 0x1
 4923 098c 9C       		.byte	0x9c
 4924 098d CE090000 		.4byte	0x9ce
 4925 0991 16       		.uleb128 0x16
ARM GAS  C:\Users\fneves\AppData\Local\Temp\ccoNsDRu.s 			page 113


 4926 0992 B7050000 		.4byte	.LASF47
 4927 0996 01       		.byte	0x1
 4928 0997 8A04     		.2byte	0x48a
 4929 0999 83000000 		.4byte	0x83
 4930 099d 02       		.uleb128 0x2
 4931 099e 91       		.byte	0x91
 4932 099f 6C       		.sleb128 -20
 4933 09a0 16       		.uleb128 0x16
 4934 09a1 E0050000 		.4byte	.LASF22
 4935 09a5 01       		.byte	0x1
 4936 09a6 8A04     		.2byte	0x48a
 4937 09a8 83000000 		.4byte	0x83
 4938 09ac 02       		.uleb128 0x2
 4939 09ad 91       		.byte	0x91
 4940 09ae 68       		.sleb128 -24
 4941 09af 16       		.uleb128 0x16
 4942 09b0 97060000 		.4byte	.LASF27
 4943 09b4 01       		.byte	0x1
 4944 09b5 8A04     		.2byte	0x48a
 4945 09b7 77000000 		.4byte	0x77
 4946 09bb 02       		.uleb128 0x2
 4947 09bc 91       		.byte	0x91
 4948 09bd 64       		.sleb128 -28
 4949 09be 19       		.uleb128 0x19
 4950 09bf EB010000 		.4byte	.LASF66
 4951 09c3 01       		.byte	0x1
 4952 09c4 8C04     		.2byte	0x48c
 4953 09c6 77000000 		.4byte	0x77
 4954 09ca 02       		.uleb128 0x2
 4955 09cb 91       		.byte	0x91
 4956 09cc 74       		.sleb128 -12
 4957 09cd 00       		.byte	0
 4958 09ce 18       		.uleb128 0x18
 4959 09cf 4A030000 		.4byte	.LASF90
 4960 09d3 01       		.byte	0x1
 4961 09d4 A904     		.2byte	0x4a9
 4962 09d6 77000000 		.4byte	0x77
 4963 09da 00000000 		.4byte	.LFB40
 4964 09de 68000000 		.4byte	.LFE40-.LFB40
 4965 09e2 01       		.uleb128 0x1
 4966 09e3 9C       		.byte	0x9c
 4967 09e4 070A0000 		.4byte	0xa07
 4968 09e8 16       		.uleb128 0x16
 4969 09e9 B7050000 		.4byte	.LASF47
 4970 09ed 01       		.byte	0x1
 4971 09ee A904     		.2byte	0x4a9
 4972 09f0 83000000 		.4byte	0x83
 4973 09f4 02       		.uleb128 0x2
 4974 09f5 91       		.byte	0x91
 4975 09f6 74       		.sleb128 -12
 4976 09f7 16       		.uleb128 0x16
 4977 09f8 E0050000 		.4byte	.LASF22
 4978 09fc 01       		.byte	0x1
 4979 09fd A904     		.2byte	0x4a9
 4980 09ff 83000000 		.4byte	0x83
 4981 0a03 02       		.uleb128 0x2
 4982 0a04 91       		.byte	0x91
ARM GAS  C:\Users\fneves\AppData\Local\Temp\ccoNsDRu.s 			page 114


 4983 0a05 70       		.sleb128 -16
 4984 0a06 00       		.byte	0
 4985 0a07 1A       		.uleb128 0x1a
 4986 0a08 60070000 		.4byte	.LASF91
 4987 0a0c 01       		.byte	0x1
 4988 0a0d CA04     		.2byte	0x4ca
 4989 0a0f 00000000 		.4byte	.LFB41
 4990 0a13 90000000 		.4byte	.LFE41-.LFB41
 4991 0a17 01       		.uleb128 0x1
 4992 0a18 9C       		.byte	0x9c
 4993 0a19 5A0A0000 		.4byte	0xa5a
 4994 0a1d 16       		.uleb128 0x16
 4995 0a1e B7050000 		.4byte	.LASF47
 4996 0a22 01       		.byte	0x1
 4997 0a23 CA04     		.2byte	0x4ca
 4998 0a25 83000000 		.4byte	0x83
 4999 0a29 02       		.uleb128 0x2
 5000 0a2a 91       		.byte	0x91
 5001 0a2b 6C       		.sleb128 -20
 5002 0a2c 16       		.uleb128 0x16
 5003 0a2d E0050000 		.4byte	.LASF22
 5004 0a31 01       		.byte	0x1
 5005 0a32 CA04     		.2byte	0x4ca
 5006 0a34 83000000 		.4byte	0x83
 5007 0a38 02       		.uleb128 0x2
 5008 0a39 91       		.byte	0x91
 5009 0a3a 68       		.sleb128 -24
 5010 0a3b 16       		.uleb128 0x16
 5011 0a3c D2010000 		.4byte	.LASF28
 5012 0a40 01       		.byte	0x1
 5013 0a41 CA04     		.2byte	0x4ca
 5014 0a43 77000000 		.4byte	0x77
 5015 0a47 02       		.uleb128 0x2
 5016 0a48 91       		.byte	0x91
 5017 0a49 64       		.sleb128 -28
 5018 0a4a 19       		.uleb128 0x19
 5019 0a4b EB010000 		.4byte	.LASF66
 5020 0a4f 01       		.byte	0x1
 5021 0a50 CC04     		.2byte	0x4cc
 5022 0a52 77000000 		.4byte	0x77
 5023 0a56 02       		.uleb128 0x2
 5024 0a57 91       		.byte	0x91
 5025 0a58 74       		.sleb128 -12
 5026 0a59 00       		.byte	0
 5027 0a5a 18       		.uleb128 0x18
 5028 0a5b BF050000 		.4byte	.LASF92
 5029 0a5f 01       		.byte	0x1
 5030 0a60 E904     		.2byte	0x4e9
 5031 0a62 77000000 		.4byte	0x77
 5032 0a66 00000000 		.4byte	.LFB42
 5033 0a6a 68000000 		.4byte	.LFE42-.LFB42
 5034 0a6e 01       		.uleb128 0x1
 5035 0a6f 9C       		.byte	0x9c
 5036 0a70 930A0000 		.4byte	0xa93
 5037 0a74 16       		.uleb128 0x16
 5038 0a75 B7050000 		.4byte	.LASF47
 5039 0a79 01       		.byte	0x1
ARM GAS  C:\Users\fneves\AppData\Local\Temp\ccoNsDRu.s 			page 115


 5040 0a7a E904     		.2byte	0x4e9
 5041 0a7c 83000000 		.4byte	0x83
 5042 0a80 02       		.uleb128 0x2
 5043 0a81 91       		.byte	0x91
 5044 0a82 74       		.sleb128 -12
 5045 0a83 16       		.uleb128 0x16
 5046 0a84 E0050000 		.4byte	.LASF22
 5047 0a88 01       		.byte	0x1
 5048 0a89 E904     		.2byte	0x4e9
 5049 0a8b 83000000 		.4byte	0x83
 5050 0a8f 02       		.uleb128 0x2
 5051 0a90 91       		.byte	0x91
 5052 0a91 70       		.sleb128 -16
 5053 0a92 00       		.byte	0
 5054 0a93 1A       		.uleb128 0x1a
 5055 0a94 2F070000 		.4byte	.LASF93
 5056 0a98 01       		.byte	0x1
 5057 0a99 0905     		.2byte	0x509
 5058 0a9b 00000000 		.4byte	.LFB43
 5059 0a9f 8C000000 		.4byte	.LFE43-.LFB43
 5060 0aa3 01       		.uleb128 0x1
 5061 0aa4 9C       		.byte	0x9c
 5062 0aa5 E60A0000 		.4byte	0xae6
 5063 0aa9 16       		.uleb128 0x16
 5064 0aaa B7050000 		.4byte	.LASF47
 5065 0aae 01       		.byte	0x1
 5066 0aaf 0905     		.2byte	0x509
 5067 0ab1 83000000 		.4byte	0x83
 5068 0ab5 02       		.uleb128 0x2
 5069 0ab6 91       		.byte	0x91
 5070 0ab7 6C       		.sleb128 -20
 5071 0ab8 16       		.uleb128 0x16
 5072 0ab9 E0050000 		.4byte	.LASF22
 5073 0abd 01       		.byte	0x1
 5074 0abe 0905     		.2byte	0x509
 5075 0ac0 83000000 		.4byte	0x83
 5076 0ac4 02       		.uleb128 0x2
 5077 0ac5 91       		.byte	0x91
 5078 0ac6 68       		.sleb128 -24
 5079 0ac7 16       		.uleb128 0x16
 5080 0ac8 39020000 		.4byte	.LASF29
 5081 0acc 01       		.byte	0x1
 5082 0acd 0905     		.2byte	0x509
 5083 0acf 77000000 		.4byte	0x77
 5084 0ad3 02       		.uleb128 0x2
 5085 0ad4 91       		.byte	0x91
 5086 0ad5 64       		.sleb128 -28
 5087 0ad6 19       		.uleb128 0x19
 5088 0ad7 EB010000 		.4byte	.LASF66
 5089 0adb 01       		.byte	0x1
 5090 0adc 0B05     		.2byte	0x50b
 5091 0ade 77000000 		.4byte	0x77
 5092 0ae2 02       		.uleb128 0x2
 5093 0ae3 91       		.byte	0x91
 5094 0ae4 74       		.sleb128 -12
 5095 0ae5 00       		.byte	0
 5096 0ae6 18       		.uleb128 0x18
ARM GAS  C:\Users\fneves\AppData\Local\Temp\ccoNsDRu.s 			page 116


 5097 0ae7 A8030000 		.4byte	.LASF94
 5098 0aeb 01       		.byte	0x1
 5099 0aec 2805     		.2byte	0x528
 5100 0aee 77000000 		.4byte	0x77
 5101 0af2 00000000 		.4byte	.LFB44
 5102 0af6 64000000 		.4byte	.LFE44-.LFB44
 5103 0afa 01       		.uleb128 0x1
 5104 0afb 9C       		.byte	0x9c
 5105 0afc 1F0B0000 		.4byte	0xb1f
 5106 0b00 16       		.uleb128 0x16
 5107 0b01 B7050000 		.4byte	.LASF47
 5108 0b05 01       		.byte	0x1
 5109 0b06 2805     		.2byte	0x528
 5110 0b08 83000000 		.4byte	0x83
 5111 0b0c 02       		.uleb128 0x2
 5112 0b0d 91       		.byte	0x91
 5113 0b0e 74       		.sleb128 -12
 5114 0b0f 16       		.uleb128 0x16
 5115 0b10 E0050000 		.4byte	.LASF22
 5116 0b14 01       		.byte	0x1
 5117 0b15 2805     		.2byte	0x528
 5118 0b17 83000000 		.4byte	0x83
 5119 0b1b 02       		.uleb128 0x2
 5120 0b1c 91       		.byte	0x91
 5121 0b1d 70       		.sleb128 -16
 5122 0b1e 00       		.byte	0
 5123 0b1f 1A       		.uleb128 0x1a
 5124 0b20 A7070000 		.4byte	.LASF95
 5125 0b24 01       		.byte	0x1
 5126 0b25 4705     		.2byte	0x547
 5127 0b27 00000000 		.4byte	.LFB45
 5128 0b2b 90000000 		.4byte	.LFE45-.LFB45
 5129 0b2f 01       		.uleb128 0x1
 5130 0b30 9C       		.byte	0x9c
 5131 0b31 720B0000 		.4byte	0xb72
 5132 0b35 16       		.uleb128 0x16
 5133 0b36 B7050000 		.4byte	.LASF47
 5134 0b3a 01       		.byte	0x1
 5135 0b3b 4705     		.2byte	0x547
 5136 0b3d 83000000 		.4byte	0x83
 5137 0b41 02       		.uleb128 0x2
 5138 0b42 91       		.byte	0x91
 5139 0b43 6C       		.sleb128 -20
 5140 0b44 16       		.uleb128 0x16
 5141 0b45 E0050000 		.4byte	.LASF22
 5142 0b49 01       		.byte	0x1
 5143 0b4a 4705     		.2byte	0x547
 5144 0b4c 83000000 		.4byte	0x83
 5145 0b50 02       		.uleb128 0x2
 5146 0b51 91       		.byte	0x91
 5147 0b52 68       		.sleb128 -24
 5148 0b53 16       		.uleb128 0x16
 5149 0b54 9B070000 		.4byte	.LASF30
 5150 0b58 01       		.byte	0x1
 5151 0b59 4705     		.2byte	0x547
 5152 0b5b 77000000 		.4byte	0x77
 5153 0b5f 02       		.uleb128 0x2
ARM GAS  C:\Users\fneves\AppData\Local\Temp\ccoNsDRu.s 			page 117


 5154 0b60 91       		.byte	0x91
 5155 0b61 64       		.sleb128 -28
 5156 0b62 19       		.uleb128 0x19
 5157 0b63 EB010000 		.4byte	.LASF66
 5158 0b67 01       		.byte	0x1
 5159 0b68 4905     		.2byte	0x549
 5160 0b6a 77000000 		.4byte	0x77
 5161 0b6e 02       		.uleb128 0x2
 5162 0b6f 91       		.byte	0x91
 5163 0b70 74       		.sleb128 -12
 5164 0b71 00       		.byte	0
 5165 0b72 18       		.uleb128 0x18
 5166 0b73 8E030000 		.4byte	.LASF96
 5167 0b77 01       		.byte	0x1
 5168 0b78 6505     		.2byte	0x565
 5169 0b7a 77000000 		.4byte	0x77
 5170 0b7e 00000000 		.4byte	.LFB46
 5171 0b82 68000000 		.4byte	.LFE46-.LFB46
 5172 0b86 01       		.uleb128 0x1
 5173 0b87 9C       		.byte	0x9c
 5174 0b88 AB0B0000 		.4byte	0xbab
 5175 0b8c 16       		.uleb128 0x16
 5176 0b8d B7050000 		.4byte	.LASF47
 5177 0b91 01       		.byte	0x1
 5178 0b92 6505     		.2byte	0x565
 5179 0b94 83000000 		.4byte	0x83
 5180 0b98 02       		.uleb128 0x2
 5181 0b99 91       		.byte	0x91
 5182 0b9a 74       		.sleb128 -12
 5183 0b9b 16       		.uleb128 0x16
 5184 0b9c E0050000 		.4byte	.LASF22
 5185 0ba0 01       		.byte	0x1
 5186 0ba1 6505     		.2byte	0x565
 5187 0ba3 83000000 		.4byte	0x83
 5188 0ba7 02       		.uleb128 0x2
 5189 0ba8 91       		.byte	0x91
 5190 0ba9 70       		.sleb128 -16
 5191 0baa 00       		.byte	0
 5192 0bab 1A       		.uleb128 0x1a
 5193 0bac BD030000 		.4byte	.LASF97
 5194 0bb0 01       		.byte	0x1
 5195 0bb1 8405     		.2byte	0x584
 5196 0bb3 00000000 		.4byte	.LFB47
 5197 0bb7 90000000 		.4byte	.LFE47-.LFB47
 5198 0bbb 01       		.uleb128 0x1
 5199 0bbc 9C       		.byte	0x9c
 5200 0bbd FE0B0000 		.4byte	0xbfe
 5201 0bc1 16       		.uleb128 0x16
 5202 0bc2 B7050000 		.4byte	.LASF47
 5203 0bc6 01       		.byte	0x1
 5204 0bc7 8405     		.2byte	0x584
 5205 0bc9 83000000 		.4byte	0x83
 5206 0bcd 02       		.uleb128 0x2
 5207 0bce 91       		.byte	0x91
 5208 0bcf 6C       		.sleb128 -20
 5209 0bd0 16       		.uleb128 0x16
 5210 0bd1 E0050000 		.4byte	.LASF22
ARM GAS  C:\Users\fneves\AppData\Local\Temp\ccoNsDRu.s 			page 118


 5211 0bd5 01       		.byte	0x1
 5212 0bd6 8405     		.2byte	0x584
 5213 0bd8 83000000 		.4byte	0x83
 5214 0bdc 02       		.uleb128 0x2
 5215 0bdd 91       		.byte	0x91
 5216 0bde 68       		.sleb128 -24
 5217 0bdf 16       		.uleb128 0x16
 5218 0be0 93070000 		.4byte	.LASF31
 5219 0be4 01       		.byte	0x1
 5220 0be5 8405     		.2byte	0x584
 5221 0be7 77000000 		.4byte	0x77
 5222 0beb 02       		.uleb128 0x2
 5223 0bec 91       		.byte	0x91
 5224 0bed 64       		.sleb128 -28
 5225 0bee 19       		.uleb128 0x19
 5226 0bef EB010000 		.4byte	.LASF66
 5227 0bf3 01       		.byte	0x1
 5228 0bf4 8605     		.2byte	0x586
 5229 0bf6 77000000 		.4byte	0x77
 5230 0bfa 02       		.uleb128 0x2
 5231 0bfb 91       		.byte	0x91
 5232 0bfc 74       		.sleb128 -12
 5233 0bfd 00       		.byte	0
 5234 0bfe 18       		.uleb128 0x18
 5235 0bff 2C030000 		.4byte	.LASF98
 5236 0c03 01       		.byte	0x1
 5237 0c04 A305     		.2byte	0x5a3
 5238 0c06 77000000 		.4byte	0x77
 5239 0c0a 00000000 		.4byte	.LFB48
 5240 0c0e 68000000 		.4byte	.LFE48-.LFB48
 5241 0c12 01       		.uleb128 0x1
 5242 0c13 9C       		.byte	0x9c
 5243 0c14 370C0000 		.4byte	0xc37
 5244 0c18 16       		.uleb128 0x16
 5245 0c19 B7050000 		.4byte	.LASF47
 5246 0c1d 01       		.byte	0x1
 5247 0c1e A305     		.2byte	0x5a3
 5248 0c20 83000000 		.4byte	0x83
 5249 0c24 02       		.uleb128 0x2
 5250 0c25 91       		.byte	0x91
 5251 0c26 74       		.sleb128 -12
 5252 0c27 16       		.uleb128 0x16
 5253 0c28 E0050000 		.4byte	.LASF22
 5254 0c2c 01       		.byte	0x1
 5255 0c2d A305     		.2byte	0x5a3
 5256 0c2f 83000000 		.4byte	0x83
 5257 0c33 02       		.uleb128 0x2
 5258 0c34 91       		.byte	0x91
 5259 0c35 70       		.sleb128 -16
 5260 0c36 00       		.byte	0
 5261 0c37 0A       		.uleb128 0xa
 5262 0c38 FC010000 		.4byte	0x1fc
 5263 0c3c 470C0000 		.4byte	0xc47
 5264 0c40 0B       		.uleb128 0xb
 5265 0c41 F9000000 		.4byte	0xf9
 5266 0c45 07       		.byte	0x7
 5267 0c46 00       		.byte	0
ARM GAS  C:\Users\fneves\AppData\Local\Temp\ccoNsDRu.s 			page 119


 5268 0c47 11       		.uleb128 0x11
 5269 0c48 DC040000 		.4byte	.LASF99
 5270 0c4c 01       		.byte	0x1
 5271 0c4d 1A       		.byte	0x1a
 5272 0c4e 370C0000 		.4byte	0xc37
 5273 0c52 05       		.uleb128 0x5
 5274 0c53 03       		.byte	0x3
 5275 0c54 00000000 		.4byte	CyDmaInterruptCallback
 5276 0c58 11       		.uleb128 0x11
 5277 0c59 2A060000 		.4byte	.LASF100
 5278 0c5d 01       		.byte	0x1
 5279 0c5e 28       		.byte	0x28
 5280 0c5f 77000000 		.4byte	0x77
 5281 0c63 05       		.uleb128 0x5
 5282 0c64 03       		.byte	0x3
 5283 0c65 20000000 		.4byte	CyDmaChannelUsedMask
 5284 0c69 00       		.byte	0
 5285              		.section	.debug_abbrev,"",%progbits
 5286              	.Ldebug_abbrev0:
 5287 0000 01       		.uleb128 0x1
 5288 0001 11       		.uleb128 0x11
 5289 0002 01       		.byte	0x1
 5290 0003 25       		.uleb128 0x25
 5291 0004 0E       		.uleb128 0xe
 5292 0005 13       		.uleb128 0x13
 5293 0006 0B       		.uleb128 0xb
 5294 0007 03       		.uleb128 0x3
 5295 0008 0E       		.uleb128 0xe
 5296 0009 1B       		.uleb128 0x1b
 5297 000a 0E       		.uleb128 0xe
 5298 000b 55       		.uleb128 0x55
 5299 000c 17       		.uleb128 0x17
 5300 000d 11       		.uleb128 0x11
 5301 000e 01       		.uleb128 0x1
 5302 000f 10       		.uleb128 0x10
 5303 0010 17       		.uleb128 0x17
 5304 0011 00       		.byte	0
 5305 0012 00       		.byte	0
 5306 0013 02       		.uleb128 0x2
 5307 0014 24       		.uleb128 0x24
 5308 0015 00       		.byte	0
 5309 0016 0B       		.uleb128 0xb
 5310 0017 0B       		.uleb128 0xb
 5311 0018 3E       		.uleb128 0x3e
 5312 0019 0B       		.uleb128 0xb
 5313 001a 03       		.uleb128 0x3
 5314 001b 0E       		.uleb128 0xe
 5315 001c 00       		.byte	0
 5316 001d 00       		.byte	0
 5317 001e 03       		.uleb128 0x3
 5318 001f 24       		.uleb128 0x24
 5319 0020 00       		.byte	0
 5320 0021 0B       		.uleb128 0xb
 5321 0022 0B       		.uleb128 0xb
 5322 0023 3E       		.uleb128 0x3e
 5323 0024 0B       		.uleb128 0xb
 5324 0025 03       		.uleb128 0x3
ARM GAS  C:\Users\fneves\AppData\Local\Temp\ccoNsDRu.s 			page 120


 5325 0026 08       		.uleb128 0x8
 5326 0027 00       		.byte	0
 5327 0028 00       		.byte	0
 5328 0029 04       		.uleb128 0x4
 5329 002a 16       		.uleb128 0x16
 5330 002b 00       		.byte	0
 5331 002c 03       		.uleb128 0x3
 5332 002d 0E       		.uleb128 0xe
 5333 002e 3A       		.uleb128 0x3a
 5334 002f 0B       		.uleb128 0xb
 5335 0030 3B       		.uleb128 0x3b
 5336 0031 05       		.uleb128 0x5
 5337 0032 49       		.uleb128 0x49
 5338 0033 13       		.uleb128 0x13
 5339 0034 00       		.byte	0
 5340 0035 00       		.byte	0
 5341 0036 05       		.uleb128 0x5
 5342 0037 35       		.uleb128 0x35
 5343 0038 00       		.byte	0
 5344 0039 49       		.uleb128 0x49
 5345 003a 13       		.uleb128 0x13
 5346 003b 00       		.byte	0
 5347 003c 00       		.byte	0
 5348 003d 06       		.uleb128 0x6
 5349 003e 0F       		.uleb128 0xf
 5350 003f 00       		.byte	0
 5351 0040 0B       		.uleb128 0xb
 5352 0041 0B       		.uleb128 0xb
 5353 0042 49       		.uleb128 0x49
 5354 0043 13       		.uleb128 0x13
 5355 0044 00       		.byte	0
 5356 0045 00       		.byte	0
 5357 0046 07       		.uleb128 0x7
 5358 0047 15       		.uleb128 0x15
 5359 0048 00       		.byte	0
 5360 0049 27       		.uleb128 0x27
 5361 004a 19       		.uleb128 0x19
 5362 004b 00       		.byte	0
 5363 004c 00       		.byte	0
 5364 004d 08       		.uleb128 0x8
 5365 004e 13       		.uleb128 0x13
 5366 004f 01       		.byte	0x1
 5367 0050 0B       		.uleb128 0xb
 5368 0051 0B       		.uleb128 0xb
 5369 0052 3A       		.uleb128 0x3a
 5370 0053 0B       		.uleb128 0xb
 5371 0054 3B       		.uleb128 0x3b
 5372 0055 0B       		.uleb128 0xb
 5373 0056 01       		.uleb128 0x1
 5374 0057 13       		.uleb128 0x13
 5375 0058 00       		.byte	0
 5376 0059 00       		.byte	0
 5377 005a 09       		.uleb128 0x9
 5378 005b 0D       		.uleb128 0xd
 5379 005c 00       		.byte	0
 5380 005d 03       		.uleb128 0x3
 5381 005e 08       		.uleb128 0x8
ARM GAS  C:\Users\fneves\AppData\Local\Temp\ccoNsDRu.s 			page 121


 5382 005f 3A       		.uleb128 0x3a
 5383 0060 0B       		.uleb128 0xb
 5384 0061 3B       		.uleb128 0x3b
 5385 0062 0B       		.uleb128 0xb
 5386 0063 49       		.uleb128 0x49
 5387 0064 13       		.uleb128 0x13
 5388 0065 38       		.uleb128 0x38
 5389 0066 0B       		.uleb128 0xb
 5390 0067 00       		.byte	0
 5391 0068 00       		.byte	0
 5392 0069 0A       		.uleb128 0xa
 5393 006a 01       		.uleb128 0x1
 5394 006b 01       		.byte	0x1
 5395 006c 49       		.uleb128 0x49
 5396 006d 13       		.uleb128 0x13
 5397 006e 01       		.uleb128 0x1
 5398 006f 13       		.uleb128 0x13
 5399 0070 00       		.byte	0
 5400 0071 00       		.byte	0
 5401 0072 0B       		.uleb128 0xb
 5402 0073 21       		.uleb128 0x21
 5403 0074 00       		.byte	0
 5404 0075 49       		.uleb128 0x49
 5405 0076 13       		.uleb128 0x13
 5406 0077 2F       		.uleb128 0x2f
 5407 0078 0B       		.uleb128 0xb
 5408 0079 00       		.byte	0
 5409 007a 00       		.byte	0
 5410 007b 0C       		.uleb128 0xc
 5411 007c 16       		.uleb128 0x16
 5412 007d 00       		.byte	0
 5413 007e 03       		.uleb128 0x3
 5414 007f 0E       		.uleb128 0xe
 5415 0080 3A       		.uleb128 0x3a
 5416 0081 0B       		.uleb128 0xb
 5417 0082 3B       		.uleb128 0x3b
 5418 0083 0B       		.uleb128 0xb
 5419 0084 49       		.uleb128 0x49
 5420 0085 13       		.uleb128 0x13
 5421 0086 00       		.byte	0
 5422 0087 00       		.byte	0
 5423 0088 0D       		.uleb128 0xd
 5424 0089 0D       		.uleb128 0xd
 5425 008a 00       		.byte	0
 5426 008b 03       		.uleb128 0x3
 5427 008c 0E       		.uleb128 0xe
 5428 008d 3A       		.uleb128 0x3a
 5429 008e 0B       		.uleb128 0xb
 5430 008f 3B       		.uleb128 0x3b
 5431 0090 0B       		.uleb128 0xb
 5432 0091 49       		.uleb128 0x49
 5433 0092 13       		.uleb128 0x13
 5434 0093 38       		.uleb128 0x38
 5435 0094 0B       		.uleb128 0xb
 5436 0095 00       		.byte	0
 5437 0096 00       		.byte	0
 5438 0097 0E       		.uleb128 0xe
ARM GAS  C:\Users\fneves\AppData\Local\Temp\ccoNsDRu.s 			page 122


 5439 0098 0F       		.uleb128 0xf
 5440 0099 00       		.byte	0
 5441 009a 0B       		.uleb128 0xb
 5442 009b 0B       		.uleb128 0xb
 5443 009c 00       		.byte	0
 5444 009d 00       		.byte	0
 5445 009e 0F       		.uleb128 0xf
 5446 009f 13       		.uleb128 0x13
 5447 00a0 01       		.byte	0x1
 5448 00a1 0B       		.uleb128 0xb
 5449 00a2 05       		.uleb128 0x5
 5450 00a3 3A       		.uleb128 0x3a
 5451 00a4 0B       		.uleb128 0xb
 5452 00a5 3B       		.uleb128 0x3b
 5453 00a6 0B       		.uleb128 0xb
 5454 00a7 01       		.uleb128 0x1
 5455 00a8 13       		.uleb128 0x13
 5456 00a9 00       		.byte	0
 5457 00aa 00       		.byte	0
 5458 00ab 10       		.uleb128 0x10
 5459 00ac 2E       		.uleb128 0x2e
 5460 00ad 01       		.byte	0x1
 5461 00ae 3F       		.uleb128 0x3f
 5462 00af 19       		.uleb128 0x19
 5463 00b0 03       		.uleb128 0x3
 5464 00b1 0E       		.uleb128 0xe
 5465 00b2 3A       		.uleb128 0x3a
 5466 00b3 0B       		.uleb128 0xb
 5467 00b4 3B       		.uleb128 0x3b
 5468 00b5 0B       		.uleb128 0xb
 5469 00b6 27       		.uleb128 0x27
 5470 00b7 19       		.uleb128 0x19
 5471 00b8 11       		.uleb128 0x11
 5472 00b9 01       		.uleb128 0x1
 5473 00ba 12       		.uleb128 0x12
 5474 00bb 06       		.uleb128 0x6
 5475 00bc 40       		.uleb128 0x40
 5476 00bd 18       		.uleb128 0x18
 5477 00be 9642     		.uleb128 0x2116
 5478 00c0 19       		.uleb128 0x19
 5479 00c1 01       		.uleb128 0x1
 5480 00c2 13       		.uleb128 0x13
 5481 00c3 00       		.byte	0
 5482 00c4 00       		.byte	0
 5483 00c5 11       		.uleb128 0x11
 5484 00c6 34       		.uleb128 0x34
 5485 00c7 00       		.byte	0
 5486 00c8 03       		.uleb128 0x3
 5487 00c9 0E       		.uleb128 0xe
 5488 00ca 3A       		.uleb128 0x3a
 5489 00cb 0B       		.uleb128 0xb
 5490 00cc 3B       		.uleb128 0x3b
 5491 00cd 0B       		.uleb128 0xb
 5492 00ce 49       		.uleb128 0x49
 5493 00cf 13       		.uleb128 0x13
 5494 00d0 02       		.uleb128 0x2
 5495 00d1 18       		.uleb128 0x18
ARM GAS  C:\Users\fneves\AppData\Local\Temp\ccoNsDRu.s 			page 123


 5496 00d2 00       		.byte	0
 5497 00d3 00       		.byte	0
 5498 00d4 12       		.uleb128 0x12
 5499 00d5 2E       		.uleb128 0x2e
 5500 00d6 00       		.byte	0
 5501 00d7 3F       		.uleb128 0x3f
 5502 00d8 19       		.uleb128 0x19
 5503 00d9 03       		.uleb128 0x3
 5504 00da 0E       		.uleb128 0xe
 5505 00db 3A       		.uleb128 0x3a
 5506 00dc 0B       		.uleb128 0xb
 5507 00dd 3B       		.uleb128 0x3b
 5508 00de 0B       		.uleb128 0xb
 5509 00df 27       		.uleb128 0x27
 5510 00e0 19       		.uleb128 0x19
 5511 00e1 11       		.uleb128 0x11
 5512 00e2 01       		.uleb128 0x1
 5513 00e3 12       		.uleb128 0x12
 5514 00e4 06       		.uleb128 0x6
 5515 00e5 40       		.uleb128 0x40
 5516 00e6 18       		.uleb128 0x18
 5517 00e7 9742     		.uleb128 0x2117
 5518 00e9 19       		.uleb128 0x19
 5519 00ea 00       		.byte	0
 5520 00eb 00       		.byte	0
 5521 00ec 13       		.uleb128 0x13
 5522 00ed 2E       		.uleb128 0x2e
 5523 00ee 00       		.byte	0
 5524 00ef 3F       		.uleb128 0x3f
 5525 00f0 19       		.uleb128 0x19
 5526 00f1 03       		.uleb128 0x3
 5527 00f2 0E       		.uleb128 0xe
 5528 00f3 3A       		.uleb128 0x3a
 5529 00f4 0B       		.uleb128 0xb
 5530 00f5 3B       		.uleb128 0x3b
 5531 00f6 0B       		.uleb128 0xb
 5532 00f7 27       		.uleb128 0x27
 5533 00f8 19       		.uleb128 0x19
 5534 00f9 49       		.uleb128 0x49
 5535 00fa 13       		.uleb128 0x13
 5536 00fb 11       		.uleb128 0x11
 5537 00fc 01       		.uleb128 0x1
 5538 00fd 12       		.uleb128 0x12
 5539 00fe 06       		.uleb128 0x6
 5540 00ff 40       		.uleb128 0x40
 5541 0100 18       		.uleb128 0x18
 5542 0101 9742     		.uleb128 0x2117
 5543 0103 19       		.uleb128 0x19
 5544 0104 00       		.byte	0
 5545 0105 00       		.byte	0
 5546 0106 14       		.uleb128 0x14
 5547 0107 05       		.uleb128 0x5
 5548 0108 00       		.byte	0
 5549 0109 03       		.uleb128 0x3
 5550 010a 0E       		.uleb128 0xe
 5551 010b 3A       		.uleb128 0x3a
 5552 010c 0B       		.uleb128 0xb
ARM GAS  C:\Users\fneves\AppData\Local\Temp\ccoNsDRu.s 			page 124


 5553 010d 3B       		.uleb128 0x3b
 5554 010e 0B       		.uleb128 0xb
 5555 010f 49       		.uleb128 0x49
 5556 0110 13       		.uleb128 0x13
 5557 0111 02       		.uleb128 0x2
 5558 0112 18       		.uleb128 0x18
 5559 0113 00       		.byte	0
 5560 0114 00       		.byte	0
 5561 0115 15       		.uleb128 0x15
 5562 0116 2E       		.uleb128 0x2e
 5563 0117 01       		.byte	0x1
 5564 0118 3F       		.uleb128 0x3f
 5565 0119 19       		.uleb128 0x19
 5566 011a 03       		.uleb128 0x3
 5567 011b 0E       		.uleb128 0xe
 5568 011c 3A       		.uleb128 0x3a
 5569 011d 0B       		.uleb128 0xb
 5570 011e 3B       		.uleb128 0x3b
 5571 011f 05       		.uleb128 0x5
 5572 0120 27       		.uleb128 0x27
 5573 0121 19       		.uleb128 0x19
 5574 0122 11       		.uleb128 0x11
 5575 0123 01       		.uleb128 0x1
 5576 0124 12       		.uleb128 0x12
 5577 0125 06       		.uleb128 0x6
 5578 0126 40       		.uleb128 0x40
 5579 0127 18       		.uleb128 0x18
 5580 0128 9742     		.uleb128 0x2117
 5581 012a 19       		.uleb128 0x19
 5582 012b 01       		.uleb128 0x1
 5583 012c 13       		.uleb128 0x13
 5584 012d 00       		.byte	0
 5585 012e 00       		.byte	0
 5586 012f 16       		.uleb128 0x16
 5587 0130 05       		.uleb128 0x5
 5588 0131 00       		.byte	0
 5589 0132 03       		.uleb128 0x3
 5590 0133 0E       		.uleb128 0xe
 5591 0134 3A       		.uleb128 0x3a
 5592 0135 0B       		.uleb128 0xb
 5593 0136 3B       		.uleb128 0x3b
 5594 0137 05       		.uleb128 0x5
 5595 0138 49       		.uleb128 0x49
 5596 0139 13       		.uleb128 0x13
 5597 013a 02       		.uleb128 0x2
 5598 013b 18       		.uleb128 0x18
 5599 013c 00       		.byte	0
 5600 013d 00       		.byte	0
 5601 013e 17       		.uleb128 0x17
 5602 013f 2E       		.uleb128 0x2e
 5603 0140 00       		.byte	0
 5604 0141 3F       		.uleb128 0x3f
 5605 0142 19       		.uleb128 0x19
 5606 0143 03       		.uleb128 0x3
 5607 0144 0E       		.uleb128 0xe
 5608 0145 3A       		.uleb128 0x3a
 5609 0146 0B       		.uleb128 0xb
ARM GAS  C:\Users\fneves\AppData\Local\Temp\ccoNsDRu.s 			page 125


 5610 0147 3B       		.uleb128 0x3b
 5611 0148 05       		.uleb128 0x5
 5612 0149 27       		.uleb128 0x27
 5613 014a 19       		.uleb128 0x19
 5614 014b 49       		.uleb128 0x49
 5615 014c 13       		.uleb128 0x13
 5616 014d 11       		.uleb128 0x11
 5617 014e 01       		.uleb128 0x1
 5618 014f 12       		.uleb128 0x12
 5619 0150 06       		.uleb128 0x6
 5620 0151 40       		.uleb128 0x40
 5621 0152 18       		.uleb128 0x18
 5622 0153 9742     		.uleb128 0x2117
 5623 0155 19       		.uleb128 0x19
 5624 0156 00       		.byte	0
 5625 0157 00       		.byte	0
 5626 0158 18       		.uleb128 0x18
 5627 0159 2E       		.uleb128 0x2e
 5628 015a 01       		.byte	0x1
 5629 015b 3F       		.uleb128 0x3f
 5630 015c 19       		.uleb128 0x19
 5631 015d 03       		.uleb128 0x3
 5632 015e 0E       		.uleb128 0xe
 5633 015f 3A       		.uleb128 0x3a
 5634 0160 0B       		.uleb128 0xb
 5635 0161 3B       		.uleb128 0x3b
 5636 0162 05       		.uleb128 0x5
 5637 0163 27       		.uleb128 0x27
 5638 0164 19       		.uleb128 0x19
 5639 0165 49       		.uleb128 0x49
 5640 0166 13       		.uleb128 0x13
 5641 0167 11       		.uleb128 0x11
 5642 0168 01       		.uleb128 0x1
 5643 0169 12       		.uleb128 0x12
 5644 016a 06       		.uleb128 0x6
 5645 016b 40       		.uleb128 0x40
 5646 016c 18       		.uleb128 0x18
 5647 016d 9642     		.uleb128 0x2116
 5648 016f 19       		.uleb128 0x19
 5649 0170 01       		.uleb128 0x1
 5650 0171 13       		.uleb128 0x13
 5651 0172 00       		.byte	0
 5652 0173 00       		.byte	0
 5653 0174 19       		.uleb128 0x19
 5654 0175 34       		.uleb128 0x34
 5655 0176 00       		.byte	0
 5656 0177 03       		.uleb128 0x3
 5657 0178 0E       		.uleb128 0xe
 5658 0179 3A       		.uleb128 0x3a
 5659 017a 0B       		.uleb128 0xb
 5660 017b 3B       		.uleb128 0x3b
 5661 017c 05       		.uleb128 0x5
 5662 017d 49       		.uleb128 0x49
 5663 017e 13       		.uleb128 0x13
 5664 017f 02       		.uleb128 0x2
 5665 0180 18       		.uleb128 0x18
 5666 0181 00       		.byte	0
ARM GAS  C:\Users\fneves\AppData\Local\Temp\ccoNsDRu.s 			page 126


 5667 0182 00       		.byte	0
 5668 0183 1A       		.uleb128 0x1a
 5669 0184 2E       		.uleb128 0x2e
 5670 0185 01       		.byte	0x1
 5671 0186 3F       		.uleb128 0x3f
 5672 0187 19       		.uleb128 0x19
 5673 0188 03       		.uleb128 0x3
 5674 0189 0E       		.uleb128 0xe
 5675 018a 3A       		.uleb128 0x3a
 5676 018b 0B       		.uleb128 0xb
 5677 018c 3B       		.uleb128 0x3b
 5678 018d 05       		.uleb128 0x5
 5679 018e 27       		.uleb128 0x27
 5680 018f 19       		.uleb128 0x19
 5681 0190 11       		.uleb128 0x11
 5682 0191 01       		.uleb128 0x1
 5683 0192 12       		.uleb128 0x12
 5684 0193 06       		.uleb128 0x6
 5685 0194 40       		.uleb128 0x40
 5686 0195 18       		.uleb128 0x18
 5687 0196 9642     		.uleb128 0x2116
 5688 0198 19       		.uleb128 0x19
 5689 0199 01       		.uleb128 0x1
 5690 019a 13       		.uleb128 0x13
 5691 019b 00       		.byte	0
 5692 019c 00       		.byte	0
 5693 019d 1B       		.uleb128 0x1b
 5694 019e 2E       		.uleb128 0x2e
 5695 019f 00       		.byte	0
 5696 01a0 03       		.uleb128 0x3
 5697 01a1 0E       		.uleb128 0xe
 5698 01a2 3A       		.uleb128 0x3a
 5699 01a3 0B       		.uleb128 0xb
 5700 01a4 3B       		.uleb128 0x3b
 5701 01a5 05       		.uleb128 0x5
 5702 01a6 27       		.uleb128 0x27
 5703 01a7 19       		.uleb128 0x19
 5704 01a8 11       		.uleb128 0x11
 5705 01a9 01       		.uleb128 0x1
 5706 01aa 12       		.uleb128 0x12
 5707 01ab 06       		.uleb128 0x6
 5708 01ac 40       		.uleb128 0x40
 5709 01ad 18       		.uleb128 0x18
 5710 01ae 9642     		.uleb128 0x2116
 5711 01b0 19       		.uleb128 0x19
 5712 01b1 00       		.byte	0
 5713 01b2 00       		.byte	0
 5714 01b3 1C       		.uleb128 0x1c
 5715 01b4 2E       		.uleb128 0x2e
 5716 01b5 01       		.byte	0x1
 5717 01b6 3F       		.uleb128 0x3f
 5718 01b7 19       		.uleb128 0x19
 5719 01b8 03       		.uleb128 0x3
 5720 01b9 0E       		.uleb128 0xe
 5721 01ba 3A       		.uleb128 0x3a
 5722 01bb 0B       		.uleb128 0xb
 5723 01bc 3B       		.uleb128 0x3b
ARM GAS  C:\Users\fneves\AppData\Local\Temp\ccoNsDRu.s 			page 127


 5724 01bd 05       		.uleb128 0x5
 5725 01be 27       		.uleb128 0x27
 5726 01bf 19       		.uleb128 0x19
 5727 01c0 49       		.uleb128 0x49
 5728 01c1 13       		.uleb128 0x13
 5729 01c2 11       		.uleb128 0x11
 5730 01c3 01       		.uleb128 0x1
 5731 01c4 12       		.uleb128 0x12
 5732 01c5 06       		.uleb128 0x6
 5733 01c6 40       		.uleb128 0x40
 5734 01c7 18       		.uleb128 0x18
 5735 01c8 9742     		.uleb128 0x2117
 5736 01ca 19       		.uleb128 0x19
 5737 01cb 01       		.uleb128 0x1
 5738 01cc 13       		.uleb128 0x13
 5739 01cd 00       		.byte	0
 5740 01ce 00       		.byte	0
 5741 01cf 1D       		.uleb128 0x1d
 5742 01d0 26       		.uleb128 0x26
 5743 01d1 00       		.byte	0
 5744 01d2 49       		.uleb128 0x49
 5745 01d3 13       		.uleb128 0x13
 5746 01d4 00       		.byte	0
 5747 01d5 00       		.byte	0
 5748 01d6 00       		.byte	0
 5749              		.section	.debug_aranges,"",%progbits
 5750 0000 94010000 		.4byte	0x194
 5751 0004 0200     		.2byte	0x2
 5752 0006 00000000 		.4byte	.Ldebug_info0
 5753 000a 04       		.byte	0x4
 5754 000b 00       		.byte	0
 5755 000c 0000     		.2byte	0
 5756 000e 0000     		.2byte	0
 5757 0010 00000000 		.4byte	.LFB1
 5758 0014 3C000000 		.4byte	.LFE1-.LFB1
 5759 0018 00000000 		.4byte	.LFB2
 5760 001c 18000000 		.4byte	.LFE2-.LFB2
 5761 0020 00000000 		.4byte	.LFB3
 5762 0024 14000000 		.4byte	.LFE3-.LFB3
 5763 0028 00000000 		.4byte	.LFB4
 5764 002c 14000000 		.4byte	.LFE4-.LFB4
 5765 0030 00000000 		.4byte	.LFB5
 5766 0034 14000000 		.4byte	.LFE5-.LFB5
 5767 0038 00000000 		.4byte	.LFB6
 5768 003c 14000000 		.4byte	.LFE6-.LFB6
 5769 0040 00000000 		.4byte	.LFB7
 5770 0044 18000000 		.4byte	.LFE7-.LFB7
 5771 0048 00000000 		.4byte	.LFB8
 5772 004c 14000000 		.4byte	.LFE8-.LFB8
 5773 0050 00000000 		.4byte	.LFB9
 5774 0054 18000000 		.4byte	.LFE9-.LFB9
 5775 0058 00000000 		.4byte	.LFB10
 5776 005c 18000000 		.4byte	.LFE10-.LFB10
 5777 0060 00000000 		.4byte	.LFB11
 5778 0064 14000000 		.4byte	.LFE11-.LFB11
 5779 0068 00000000 		.4byte	.LFB12
 5780 006c 14000000 		.4byte	.LFE12-.LFB12
ARM GAS  C:\Users\fneves\AppData\Local\Temp\ccoNsDRu.s 			page 128


 5781 0070 00000000 		.4byte	.LFB13
 5782 0074 48000000 		.4byte	.LFE13-.LFB13
 5783 0078 00000000 		.4byte	.LFB14
 5784 007c 38000000 		.4byte	.LFE14-.LFB14
 5785 0080 00000000 		.4byte	.LFB15
 5786 0084 50000000 		.4byte	.LFE15-.LFB15
 5787 0088 00000000 		.4byte	.LFB16
 5788 008c 0E000000 		.4byte	.LFE16-.LFB16
 5789 0090 00000000 		.4byte	.LFB17
 5790 0094 48000000 		.4byte	.LFE17-.LFB17
 5791 0098 00000000 		.4byte	.LFB18
 5792 009c 5C000000 		.4byte	.LFE18-.LFB18
 5793 00a0 00000000 		.4byte	.LFB19
 5794 00a4 44000000 		.4byte	.LFE19-.LFB19
 5795 00a8 00000000 		.4byte	.LFB20
 5796 00ac 44000000 		.4byte	.LFE20-.LFB20
 5797 00b0 00000000 		.4byte	.LFB21
 5798 00b4 40000000 		.4byte	.LFE21-.LFB21
 5799 00b8 00000000 		.4byte	.LFB22
 5800 00bc 70000000 		.4byte	.LFE22-.LFB22
 5801 00c0 00000000 		.4byte	.LFB23
 5802 00c4 44000000 		.4byte	.LFE23-.LFB23
 5803 00c8 00000000 		.4byte	.LFB24
 5804 00cc 70000000 		.4byte	.LFE24-.LFB24
 5805 00d0 00000000 		.4byte	.LFB25
 5806 00d4 44000000 		.4byte	.LFE25-.LFB25
 5807 00d8 00000000 		.4byte	.LFB26
 5808 00dc 54010000 		.4byte	.LFE26-.LFB26
 5809 00e0 00000000 		.4byte	.LFB27
 5810 00e4 64000000 		.4byte	.LFE27-.LFB27
 5811 00e8 00000000 		.4byte	.LFB28
 5812 00ec 60000000 		.4byte	.LFE28-.LFB28
 5813 00f0 00000000 		.4byte	.LFB29
 5814 00f4 60000000 		.4byte	.LFE29-.LFB29
 5815 00f8 00000000 		.4byte	.LFB30
 5816 00fc 5C000000 		.4byte	.LFE30-.LFB30
 5817 0100 00000000 		.4byte	.LFB31
 5818 0104 60000000 		.4byte	.LFE31-.LFB31
 5819 0108 00000000 		.4byte	.LFB32
 5820 010c 60000000 		.4byte	.LFE32-.LFB32
 5821 0110 00000000 		.4byte	.LFB33
 5822 0114 90000000 		.4byte	.LFE33-.LFB33
 5823 0118 00000000 		.4byte	.LFB34
 5824 011c 68000000 		.4byte	.LFE34-.LFB34
 5825 0120 00000000 		.4byte	.LFB35
 5826 0124 A4000000 		.4byte	.LFE35-.LFB35
 5827 0128 00000000 		.4byte	.LFB36
 5828 012c 6C000000 		.4byte	.LFE36-.LFB36
 5829 0130 00000000 		.4byte	.LFB37
 5830 0134 90000000 		.4byte	.LFE37-.LFB37
 5831 0138 00000000 		.4byte	.LFB38
 5832 013c 68000000 		.4byte	.LFE38-.LFB38
 5833 0140 00000000 		.4byte	.LFB39
 5834 0144 90000000 		.4byte	.LFE39-.LFB39
 5835 0148 00000000 		.4byte	.LFB40
 5836 014c 68000000 		.4byte	.LFE40-.LFB40
 5837 0150 00000000 		.4byte	.LFB41
ARM GAS  C:\Users\fneves\AppData\Local\Temp\ccoNsDRu.s 			page 129


 5838 0154 90000000 		.4byte	.LFE41-.LFB41
 5839 0158 00000000 		.4byte	.LFB42
 5840 015c 68000000 		.4byte	.LFE42-.LFB42
 5841 0160 00000000 		.4byte	.LFB43
 5842 0164 8C000000 		.4byte	.LFE43-.LFB43
 5843 0168 00000000 		.4byte	.LFB44
 5844 016c 64000000 		.4byte	.LFE44-.LFB44
 5845 0170 00000000 		.4byte	.LFB45
 5846 0174 90000000 		.4byte	.LFE45-.LFB45
 5847 0178 00000000 		.4byte	.LFB46
 5848 017c 68000000 		.4byte	.LFE46-.LFB46
 5849 0180 00000000 		.4byte	.LFB47
 5850 0184 90000000 		.4byte	.LFE47-.LFB47
 5851 0188 00000000 		.4byte	.LFB48
 5852 018c 68000000 		.4byte	.LFE48-.LFB48
 5853 0190 00000000 		.4byte	0
 5854 0194 00000000 		.4byte	0
 5855              		.section	.debug_ranges,"",%progbits
 5856              	.Ldebug_ranges0:
 5857 0000 00000000 		.4byte	.LFB1
 5858 0004 3C000000 		.4byte	.LFE1
 5859 0008 00000000 		.4byte	.LFB2
 5860 000c 18000000 		.4byte	.LFE2
 5861 0010 00000000 		.4byte	.LFB3
 5862 0014 14000000 		.4byte	.LFE3
 5863 0018 00000000 		.4byte	.LFB4
 5864 001c 14000000 		.4byte	.LFE4
 5865 0020 00000000 		.4byte	.LFB5
 5866 0024 14000000 		.4byte	.LFE5
 5867 0028 00000000 		.4byte	.LFB6
 5868 002c 14000000 		.4byte	.LFE6
 5869 0030 00000000 		.4byte	.LFB7
 5870 0034 18000000 		.4byte	.LFE7
 5871 0038 00000000 		.4byte	.LFB8
 5872 003c 14000000 		.4byte	.LFE8
 5873 0040 00000000 		.4byte	.LFB9
 5874 0044 18000000 		.4byte	.LFE9
 5875 0048 00000000 		.4byte	.LFB10
 5876 004c 18000000 		.4byte	.LFE10
 5877 0050 00000000 		.4byte	.LFB11
 5878 0054 14000000 		.4byte	.LFE11
 5879 0058 00000000 		.4byte	.LFB12
 5880 005c 14000000 		.4byte	.LFE12
 5881 0060 00000000 		.4byte	.LFB13
 5882 0064 48000000 		.4byte	.LFE13
 5883 0068 00000000 		.4byte	.LFB14
 5884 006c 38000000 		.4byte	.LFE14
 5885 0070 00000000 		.4byte	.LFB15
 5886 0074 50000000 		.4byte	.LFE15
 5887 0078 00000000 		.4byte	.LFB16
 5888 007c 0E000000 		.4byte	.LFE16
 5889 0080 00000000 		.4byte	.LFB17
 5890 0084 48000000 		.4byte	.LFE17
 5891 0088 00000000 		.4byte	.LFB18
 5892 008c 5C000000 		.4byte	.LFE18
 5893 0090 00000000 		.4byte	.LFB19
 5894 0094 44000000 		.4byte	.LFE19
ARM GAS  C:\Users\fneves\AppData\Local\Temp\ccoNsDRu.s 			page 130


 5895 0098 00000000 		.4byte	.LFB20
 5896 009c 44000000 		.4byte	.LFE20
 5897 00a0 00000000 		.4byte	.LFB21
 5898 00a4 40000000 		.4byte	.LFE21
 5899 00a8 00000000 		.4byte	.LFB22
 5900 00ac 70000000 		.4byte	.LFE22
 5901 00b0 00000000 		.4byte	.LFB23
 5902 00b4 44000000 		.4byte	.LFE23
 5903 00b8 00000000 		.4byte	.LFB24
 5904 00bc 70000000 		.4byte	.LFE24
 5905 00c0 00000000 		.4byte	.LFB25
 5906 00c4 44000000 		.4byte	.LFE25
 5907 00c8 00000000 		.4byte	.LFB26
 5908 00cc 54010000 		.4byte	.LFE26
 5909 00d0 00000000 		.4byte	.LFB27
 5910 00d4 64000000 		.4byte	.LFE27
 5911 00d8 00000000 		.4byte	.LFB28
 5912 00dc 60000000 		.4byte	.LFE28
 5913 00e0 00000000 		.4byte	.LFB29
 5914 00e4 60000000 		.4byte	.LFE29
 5915 00e8 00000000 		.4byte	.LFB30
 5916 00ec 5C000000 		.4byte	.LFE30
 5917 00f0 00000000 		.4byte	.LFB31
 5918 00f4 60000000 		.4byte	.LFE31
 5919 00f8 00000000 		.4byte	.LFB32
 5920 00fc 60000000 		.4byte	.LFE32
 5921 0100 00000000 		.4byte	.LFB33
 5922 0104 90000000 		.4byte	.LFE33
 5923 0108 00000000 		.4byte	.LFB34
 5924 010c 68000000 		.4byte	.LFE34
 5925 0110 00000000 		.4byte	.LFB35
 5926 0114 A4000000 		.4byte	.LFE35
 5927 0118 00000000 		.4byte	.LFB36
 5928 011c 6C000000 		.4byte	.LFE36
 5929 0120 00000000 		.4byte	.LFB37
 5930 0124 90000000 		.4byte	.LFE37
 5931 0128 00000000 		.4byte	.LFB38
 5932 012c 68000000 		.4byte	.LFE38
 5933 0130 00000000 		.4byte	.LFB39
 5934 0134 90000000 		.4byte	.LFE39
 5935 0138 00000000 		.4byte	.LFB40
 5936 013c 68000000 		.4byte	.LFE40
 5937 0140 00000000 		.4byte	.LFB41
 5938 0144 90000000 		.4byte	.LFE41
 5939 0148 00000000 		.4byte	.LFB42
 5940 014c 68000000 		.4byte	.LFE42
 5941 0150 00000000 		.4byte	.LFB43
 5942 0154 8C000000 		.4byte	.LFE43
 5943 0158 00000000 		.4byte	.LFB44
 5944 015c 64000000 		.4byte	.LFE44
 5945 0160 00000000 		.4byte	.LFB45
 5946 0164 90000000 		.4byte	.LFE45
 5947 0168 00000000 		.4byte	.LFB46
 5948 016c 68000000 		.4byte	.LFE46
 5949 0170 00000000 		.4byte	.LFB47
 5950 0174 90000000 		.4byte	.LFE47
 5951 0178 00000000 		.4byte	.LFB48
ARM GAS  C:\Users\fneves\AppData\Local\Temp\ccoNsDRu.s 			page 131


 5952 017c 68000000 		.4byte	.LFE48
 5953 0180 00000000 		.4byte	0
 5954 0184 00000000 		.4byte	0
 5955              		.section	.debug_line,"",%progbits
 5956              	.Ldebug_line0:
 5957 0000 FA0A0000 		.section	.debug_str,"MS",%progbits,1
 5957      02004D00 
 5957      00000201 
 5957      FB0E0D00 
 5957      01010101 
 5958              	.LASF39:
 5959 0000 4379446D 		.ascii	"CyDmaSetInterruptVector\000"
 5959      61536574 
 5959      496E7465 
 5959      72727570 
 5959      74566563 
 5960              	.LASF77:
 5961 0018 4379446D 		.ascii	"CyDmaGetSrcAddress\000"
 5961      61476574 
 5961      53726341 
 5961      64647265 
 5961      737300
 5962              	.LASF36:
 5963 002b 4379446D 		.ascii	"CyDmaGetActiveSrcAddress\000"
 5963      61476574 
 5963      41637469 
 5963      76655372 
 5963      63416464 
 5964              	.LASF61:
 5965 0044 4379446D 		.ascii	"CyDmaChDisable\000"
 5965      61436844 
 5965      69736162 
 5965      6C6500
 5966              	.LASF78:
 5967 0053 4379446D 		.ascii	"CyDmaSetDstAddress\000"
 5967      61536574 
 5967      44737441 
 5967      64647265 
 5967      737300
 5968              	.LASF60:
 5969 0066 4379446D 		.ascii	"CyDmaChEnable\000"
 5969      61436845 
 5969      6E61626C 
 5969      6500
 5970              	.LASF55:
 5971 0074 63624964 		.ascii	"cbIdx\000"
 5971      7800
 5972              	.LASF67:
 5973 007a 4379446D 		.ascii	"CyDmaGetPriority\000"
 5973      61476574 
 5973      5072696F 
 5973      72697479 
 5973      00
 5974              	.LASF7:
 5975 008b 6C6F6E67 		.ascii	"long long unsigned int\000"
 5975      206C6F6E 
 5975      6720756E 
ARM GAS  C:\Users\fneves\AppData\Local\Temp\ccoNsDRu.s 			page 132


 5975      7369676E 
 5975      65642069 
 5976              	.LASF42:
 5977 00a2 696E7465 		.ascii	"interruptVector\000"
 5977      72727570 
 5977      74566563 
 5977      746F7200 
 5978              	.LASF71:
 5979 00b2 4379446D 		.ascii	"CyDmaSetConfiguration\000"
 5979      61536574 
 5979      436F6E66 
 5979      69677572 
 5979      6174696F 
 5980              	.LASF63:
 5981 00c8 74724374 		.ascii	"trCtlLut\000"
 5981      6C4C7574 
 5981      00
 5982              	.LASF6:
 5983 00d1 6C6F6E67 		.ascii	"long long int\000"
 5983      206C6F6E 
 5983      6720696E 
 5983      7400
 5984              	.LASF0:
 5985 00df 7369676E 		.ascii	"signed char\000"
 5985      65642063 
 5985      68617200 
 5986              	.LASF84:
 5987 00eb 4379446D 		.ascii	"CyDmaGetNumDataElements\000"
 5987      61476574 
 5987      4E756D44 
 5987      61746145 
 5987      6C656D65 
 5988              	.LASF11:
 5989 0103 696E7433 		.ascii	"int32\000"
 5989      3200
 5990              	.LASF69:
 5991 0109 4379446D 		.ascii	"CyDmaGetNextDescriptor\000"
 5991      61476574 
 5991      4E657874 
 5991      44657363 
 5991      72697074 
 5992              	.LASF4:
 5993 0120 6C6F6E67 		.ascii	"long int\000"
 5993      20696E74 
 5993      00
 5994              	.LASF19:
 5995 0129 6379646D 		.ascii	"cydma_channel_ctl_struct\000"
 5995      615F6368 
 5995      616E6E65 
 5995      6C5F6374 
 5995      6C5F7374 
 5996              	.LASF75:
 5997 0142 4379446D 		.ascii	"CyDmaSetSrcAddress\000"
 5997      61536574 
 5997      53726341 
 5997      64647265 
 5997      737300
ARM GAS  C:\Users\fneves\AppData\Local\Temp\ccoNsDRu.s 			page 133


 5998              	.LASF49:
 5999 0155 696E6974 		.ascii	"initIntrVector\000"
 5999      496E7472 
 5999      56656374 
 5999      6F7200
 6000              	.LASF52:
 6001 0164 4379446D 		.ascii	"CyDmaGetInterruptCallback\000"
 6001      61476574 
 6001      496E7465 
 6001      72727570 
 6001      7443616C 
 6002              	.LASF25:
 6003 017e 6E756D44 		.ascii	"numDataElements\000"
 6003      61746145 
 6003      6C656D65 
 6003      6E747300 
 6004              	.LASF9:
 6005 018e 75696E74 		.ascii	"uint8\000"
 6005      3800
 6006              	.LASF104:
 6007 0194 4379446D 		.ascii	"CyDmaDisable\000"
 6007      61446973 
 6007      61626C65 
 6007      00
 6008              	.LASF59:
 6009 01a1 72657375 		.ascii	"result\000"
 6009      6C7400
 6010              	.LASF13:
 6011 01a8 646F7562 		.ascii	"double\000"
 6011      6C6500
 6012              	.LASF88:
 6013 01af 4379446D 		.ascii	"CyDmaGetSrcDstTransferWidth\000"
 6013      61476574 
 6013      53726344 
 6013      73745472 
 6013      616E7366 
 6014              	.LASF10:
 6015 01cb 75696E74 		.ascii	"uint32\000"
 6015      333200
 6016              	.LASF28:
 6017 01d2 74726967 		.ascii	"triggerType\000"
 6017      67657254 
 6017      79706500 
 6018              	.LASF50:
 6019 01de 70726576 		.ascii	"prevCallback\000"
 6019      43616C6C 
 6019      6261636B 
 6019      00
 6020              	.LASF66:
 6021 01eb 72656756 		.ascii	"regValue\000"
 6021      616C7565 
 6021      00
 6022              	.LASF44:
 6023 01f4 4379446D 		.ascii	"CyDmaSetInterruptSourceMask\000"
 6023      61536574 
 6023      496E7465 
 6023      72727570 
ARM GAS  C:\Users\fneves\AppData\Local\Temp\ccoNsDRu.s 			page 134


 6023      74536F75 
 6024              	.LASF32:
 6025 0210 6379646D 		.ascii	"cydma_init_struct\000"
 6025      615F696E 
 6025      69745F73 
 6025      74727563 
 6025      7400
 6026              	.LASF68:
 6027 0222 4379446D 		.ascii	"CyDmaSetNextDescriptor\000"
 6027      61536574 
 6027      4E657874 
 6027      44657363 
 6027      72697074 
 6028              	.LASF29:
 6029 0239 7472616E 		.ascii	"transferMode\000"
 6029      73666572 
 6029      4D6F6465 
 6029      00
 6030              	.LASF8:
 6031 0246 756E7369 		.ascii	"unsigned int\000"
 6031      676E6564 
 6031      20696E74 
 6031      00
 6032              	.LASF35:
 6033 0253 4379446D 		.ascii	"CyDmaGetActiveChannels\000"
 6033      61476574 
 6033      41637469 
 6033      76654368 
 6033      616E6E65 
 6034              	.LASF5:
 6035 026a 6C6F6E67 		.ascii	"long unsigned int\000"
 6035      20756E73 
 6035      69676E65 
 6035      6420696E 
 6035      7400
 6036              	.LASF101:
 6037 027c 474E5520 		.ascii	"GNU C 4.9.3 20150303 (release) [ARM/embedded-4_9-br"
 6037      4320342E 
 6037      392E3320 
 6037      32303135 
 6037      30333033 
 6038 02af 616E6368 		.ascii	"anch revision 221220] -mcpu=cortex-m0plus -mthumb -"
 6038      20726576 
 6038      6973696F 
 6038      6E203232 
 6038      31323230 
 6039 02e2 67202D4F 		.ascii	"g -O0 -ffunction-sections -ffat-lto-objects\000"
 6039      30202D66 
 6039      66756E63 
 6039      74696F6E 
 6039      2D736563 
 6040              	.LASF79:
 6041 030e 64737441 		.ascii	"dstAddress\000"
 6041      64647265 
 6041      737300
 6042              	.LASF3:
 6043 0319 73686F72 		.ascii	"short unsigned int\000"
ARM GAS  C:\Users\fneves\AppData\Local\Temp\ccoNsDRu.s 			page 135


 6043      7420756E 
 6043      7369676E 
 6043      65642069 
 6043      6E7400
 6044              	.LASF98:
 6045 032c 4379446D 		.ascii	"CyDmaGetPostCompletionActions\000"
 6045      61476574 
 6045      506F7374 
 6045      436F6D70 
 6045      6C657469 
 6046              	.LASF90:
 6047 034a 4379446D 		.ascii	"CyDmaGetAddressIncrement\000"
 6047      61476574 
 6047      41646472 
 6047      65737349 
 6047      6E637265 
 6048              	.LASF48:
 6049 0363 63616C6C 		.ascii	"callback\000"
 6049      6261636B 
 6049      00
 6050              	.LASF65:
 6051 036c 7072696F 		.ascii	"priority\000"
 6051      72697479 
 6051      00
 6052              	.LASF89:
 6053 0375 4379446D 		.ascii	"CyDmaSetAddressIncrement\000"
 6053      61536574 
 6053      41646472 
 6053      65737349 
 6053      6E637265 
 6054              	.LASF96:
 6055 038e 4379446D 		.ascii	"CyDmaGetPreemptable\000"
 6055      61476574 
 6055      50726565 
 6055      6D707461 
 6055      626C6500 
 6056              	.LASF16:
 6057 03a2 72656733 		.ascii	"reg32\000"
 6057      3200
 6058              	.LASF94:
 6059 03a8 4379446D 		.ascii	"CyDmaGetTransferMode\000"
 6059      61476574 
 6059      5472616E 
 6059      73666572 
 6059      4D6F6465 
 6060              	.LASF97:
 6061 03bd 4379446D 		.ascii	"CyDmaSetPostCompletionActions\000"
 6061      61536574 
 6061      506F7374 
 6061      436F6D70 
 6061      6C657469 
 6062              	.LASF18:
 6063 03db 73697A65 		.ascii	"sizetype\000"
 6063      74797065 
 6063      00
 6064              	.LASF54:
 6065 03e4 696E7472 		.ascii	"intr\000"
ARM GAS  C:\Users\fneves\AppData\Local\Temp\ccoNsDRu.s 			page 136


 6065      00
 6066              	.LASF105:
 6067 03e9 4379446D 		.ascii	"CyDmaDefaultInterruptCallback\000"
 6067      61446566 
 6067      61756C74 
 6067      496E7465 
 6067      72727570 
 6068              	.LASF85:
 6069 0407 6E756D45 		.ascii	"numElements\000"
 6069      6C656D65 
 6069      6E747300 
 6070              	.LASF76:
 6071 0413 73726341 		.ascii	"srcAddress\000"
 6071      64647265 
 6071      737300
 6072              	.LASF74:
 6073 041e 4379446D 		.ascii	"CyDmaGetDescriptorStatus\000"
 6073      61476574 
 6073      44657363 
 6073      72697074 
 6073      6F725374 
 6074              	.LASF51:
 6075 0437 4379446D 		.ascii	"CyDmaSetInterruptCallback\000"
 6075      61536574 
 6075      496E7465 
 6075      72727570 
 6075      7443616C 
 6076              	.LASF40:
 6077 0451 4379446D 		.ascii	"CyDmaGetInterruptSource\000"
 6077      61476574 
 6077      496E7465 
 6077      72727570 
 6077      74536F75 
 6078              	.LASF26:
 6079 0469 73726344 		.ascii	"srcDstTransferWidth\000"
 6079      73745472 
 6079      616E7366 
 6079      65725769 
 6079      64746800 
 6080              	.LASF81:
 6081 047d 4379446D 		.ascii	"CyDmaSetDataElementSize\000"
 6081      61536574 
 6081      44617461 
 6081      456C656D 
 6081      656E7453 
 6082              	.LASF53:
 6083 0495 4379446D 		.ascii	"CyDmaInterrupt\000"
 6083      61496E74 
 6083      65727275 
 6083      707400
 6084              	.LASF64:
 6085 04a4 4379446D 		.ascii	"CyDmaSetPriority\000"
 6085      61536574 
 6085      5072696F 
 6085      72697479 
 6085      00
 6086              	.LASF24:
ARM GAS  C:\Users\fneves\AppData\Local\Temp\ccoNsDRu.s 			page 137


 6087 04b5 64617461 		.ascii	"dataElementSize\000"
 6087      456C656D 
 6087      656E7453 
 6087      697A6500 
 6088              	.LASF12:
 6089 04c5 666C6F61 		.ascii	"float\000"
 6089      7400
 6090              	.LASF33:
 6091 04cb 6379646D 		.ascii	"cydma_callback_t\000"
 6091      615F6361 
 6091      6C6C6261 
 6091      636B5F74 
 6091      00
 6092              	.LASF99:
 6093 04dc 4379446D 		.ascii	"CyDmaInterruptCallback\000"
 6093      61496E74 
 6093      65727275 
 6093      70744361 
 6093      6C6C6261 
 6094              	.LASF34:
 6095 04f3 4379446D 		.ascii	"CyDmaGetStatus\000"
 6095      61476574 
 6095      53746174 
 6095      757300
 6096              	.LASF1:
 6097 0502 756E7369 		.ascii	"unsigned char\000"
 6097      676E6564 
 6097      20636861 
 6097      7200
 6098              	.LASF46:
 6099 0510 4379446D 		.ascii	"CyDmaGetInterruptSourceMasked\000"
 6099      61476574 
 6099      496E7465 
 6099      72727570 
 6099      74536F75 
 6100              	.LASF2:
 6101 052e 73686F72 		.ascii	"short int\000"
 6101      7420696E 
 6101      7400
 6102              	.LASF103:
 6103 0538 433A5C55 		.ascii	"C:\\Users\\fneves\\Documents\\PSoC Creator\\wp_1\\e"
 6103      73657273 
 6103      5C666E65 
 6103      7665735C 
 6103      446F6375 
 6104 0565 6E67696E 		.ascii	"ngine_speed_sensor.cydsn\000"
 6104      655F7370 
 6104      6565645F 
 6104      73656E73 
 6104      6F722E63 
 6105              	.LASF43:
 6106 057e 696E7465 		.ascii	"interruptMask\000"
 6106      72727570 
 6106      744D6173 
 6106      6B00
 6107              	.LASF45:
 6108 058c 4379446D 		.ascii	"CyDmaGetInterruptSourceMask\000"
ARM GAS  C:\Users\fneves\AppData\Local\Temp\ccoNsDRu.s 			page 138


 6108      61476574 
 6108      496E7465 
 6108      72727570 
 6108      74536F75 
 6109              	.LASF70:
 6110 05a8 6E657874 		.ascii	"nextDescriptor\000"
 6110      44657363 
 6110      72697074 
 6110      6F7200
 6111              	.LASF47:
 6112 05b7 6368616E 		.ascii	"channel\000"
 6112      6E656C00 
 6113              	.LASF92:
 6114 05bf 4379446D 		.ascii	"CyDmaGetTriggerType\000"
 6114      61476574 
 6114      54726967 
 6114      67657254 
 6114      79706500 
 6115              	.LASF56:
 6116 05d3 4379446D 		.ascii	"CyDmaChAlloc\000"
 6116      61436841 
 6116      6C6C6F63 
 6116      00
 6117              	.LASF22:
 6118 05e0 64657363 		.ascii	"descriptor\000"
 6118      72697074 
 6118      6F7200
 6119              	.LASF57:
 6120 05eb 6368616E 		.ascii	"channelMask\000"
 6120      6E656C4D 
 6120      61736B00 
 6121              	.LASF14:
 6122 05f7 63686172 		.ascii	"char\000"
 6122      00
 6123              	.LASF41:
 6124 05fc 4379446D 		.ascii	"CyDmaClearInterruptSource\000"
 6124      61436C65 
 6124      6172496E 
 6124      74657272 
 6124      75707453 
 6125              	.LASF17:
 6126 0616 63796973 		.ascii	"cyisraddress\000"
 6126      72616464 
 6126      72657373 
 6126      00
 6127              	.LASF72:
 6128 0623 636F6E66 		.ascii	"config\000"
 6128      696700
 6129              	.LASF100:
 6130 062a 4379446D 		.ascii	"CyDmaChannelUsedMask\000"
 6130      61436861 
 6130      6E6E656C 
 6130      55736564 
 6130      4D61736B 
 6131              	.LASF82:
 6132 063f 4379446D 		.ascii	"CyDmaGetDataElementSize\000"
 6132      61476574 
ARM GAS  C:\Users\fneves\AppData\Local\Temp\ccoNsDRu.s 			page 139


 6132      44617461 
 6132      456C656D 
 6132      656E7453 
 6133              	.LASF86:
 6134 0657 4379446D 		.ascii	"CyDmaSetSrcDstTransferWidth\000"
 6134      61536574 
 6134      53726344 
 6134      73745472 
 6134      616E7366 
 6135              	.LASF73:
 6136 0673 4379446D 		.ascii	"CyDmaValidateDescriptor\000"
 6136      6156616C 
 6136      69646174 
 6136      65446573 
 6136      63726970 
 6137              	.LASF38:
 6138 068b 4379446D 		.ascii	"CyDmaEnable\000"
 6138      61456E61 
 6138      626C6500 
 6139              	.LASF27:
 6140 0697 61646472 		.ascii	"addressIncrement\000"
 6140      65737349 
 6140      6E637265 
 6140      6D656E74 
 6140      00
 6141              	.LASF80:
 6142 06a8 4379446D 		.ascii	"CyDmaGetDstAddress\000"
 6142      61476574 
 6142      44737441 
 6142      64647265 
 6142      737300
 6143              	.LASF37:
 6144 06bb 4379446D 		.ascii	"CyDmaGetActiveDstAddress\000"
 6144      61476574 
 6144      41637469 
 6144      76654473 
 6144      74416464 
 6145              	.LASF83:
 6146 06d4 4379446D 		.ascii	"CyDmaSetNumDataElements\000"
 6146      61536574 
 6146      4E756D44 
 6146      61746145 
 6146      6C656D65 
 6147              	.LASF20:
 6148 06ec 73746174 		.ascii	"status\000"
 6148      757300
 6149              	.LASF21:
 6150 06f3 6379646D 		.ascii	"cydma_descriptor_struct\000"
 6150      615F6465 
 6150      73637269 
 6150      70746F72 
 6150      5F737472 
 6151              	.LASF15:
 6152 070b 63797374 		.ascii	"cystatus\000"
 6152      61747573 
 6152      00
 6153              	.LASF87:
ARM GAS  C:\Users\fneves\AppData\Local\Temp\ccoNsDRu.s 			page 140


 6154 0714 7472616E 		.ascii	"transferWidth\000"
 6154      73666572 
 6154      57696474 
 6154      6800
 6155              	.LASF62:
 6156 0722 4379446D 		.ascii	"CyDmaTrigger\000"
 6156      61547269 
 6156      67676572 
 6156      00
 6157              	.LASF93:
 6158 072f 4379446D 		.ascii	"CyDmaSetTransferMode\000"
 6158      61536574 
 6158      5472616E 
 6158      73666572 
 6158      4D6F6465 
 6159              	.LASF23:
 6160 0744 6379646D 		.ascii	"cydma_descriptor_ram_struct\000"
 6160      615F6465 
 6160      73637269 
 6160      70746F72 
 6160      5F72616D 
 6161              	.LASF91:
 6162 0760 4379446D 		.ascii	"CyDmaSetTriggerType\000"
 6162      61536574 
 6162      54726967 
 6162      67657254 
 6162      79706500 
 6163              	.LASF102:
 6164 0774 47656E65 		.ascii	"Generated_Source\\PSoC4\\CyDMA.c\000"
 6164      72617465 
 6164      645F536F 
 6164      75726365 
 6164      5C50536F 
 6165              	.LASF31:
 6166 0793 61637469 		.ascii	"actions\000"
 6166      6F6E7300 
 6167              	.LASF30:
 6168 079b 70726565 		.ascii	"preemptable\000"
 6168      6D707461 
 6168      626C6500 
 6169              	.LASF95:
 6170 07a7 4379446D 		.ascii	"CyDmaSetPreemptable\000"
 6170      61536574 
 6170      50726565 
 6170      6D707461 
 6170      626C6500 
 6171              	.LASF58:
 6172 07bb 4379446D 		.ascii	"CyDmaChFree\000"
 6172      61436846 
 6172      72656500 
 6173              		.ident	"GCC: (GNU Tools for ARM Embedded Processors) 4.9.3 20150303 (release) [ARM/embedded-4_9-br
