ARM GAS  C:\Users\fneves\AppData\Local\Temp\ccoNsDRu.s 			page 1


   1              		.cpu cortex-m0plus
   2              		.fpu softvfp
   3              		.eabi_attribute 20, 1
   4              		.eabi_attribute 21, 1
   5              		.eabi_attribute 23, 3
   6              		.eabi_attribute 24, 1
   7              		.eabi_attribute 25, 1
   8              		.eabi_attribute 26, 1
   9              		.eabi_attribute 30, 6
  10              		.eabi_attribute 34, 0
  11              		.eabi_attribute 18, 4
  12              		.code	16
  13              		.file	"CyDMA.c"
  14              		.text
  15              	.Ltext0:
  16              		.cfi_sections	.debug_frame
  17              		.data
  18              		.align	2
  19              		.type	CyDmaInterruptCallback, %object
  20              		.size	CyDmaInterruptCallback, 32
  21              	CyDmaInterruptCallback:
  22 0000 00000000 		.word	CyDmaDefaultInterruptCallback
  23 0004 00000000 		.word	CyDmaDefaultInterruptCallback
  24 0008 00000000 		.word	CyDmaDefaultInterruptCallback
  25 000c 00000000 		.word	CyDmaDefaultInterruptCallback
  26 0010 00000000 		.word	CyDmaDefaultInterruptCallback
  27 0014 00000000 		.word	CyDmaDefaultInterruptCallback
  28 0018 00000000 		.word	CyDmaDefaultInterruptCallback
  29 001c 00000000 		.word	CyDmaDefaultInterruptCallback
  30              		.align	2
  31              		.type	CyDmaChannelUsedMask, %object
  32              		.size	CyDmaChannelUsedMask, 4
  33              	CyDmaChannelUsedMask:
  34 0020 01000000 		.word	1
  35              		.section	.text.CyDmaEnable,"ax",%progbits
  36              		.align	2
  37              		.global	CyDmaEnable
  38              		.code	16
  39              		.thumb_func
  40              		.type	CyDmaEnable, %function
  41              	CyDmaEnable:
  42              	.LFB1:
  43              		.file 1 "Generated_Source\\PSoC4\\CyDMA.c"
   1:Generated_Source\PSoC4/CyDMA.c **** /*******************************************************************************
   2:Generated_Source\PSoC4/CyDMA.c **** * File Name: CyDMA.c
   3:Generated_Source\PSoC4/CyDMA.c **** * Version 1.10
   4:Generated_Source\PSoC4/CyDMA.c **** *
   5:Generated_Source\PSoC4/CyDMA.c **** * Description:
   6:Generated_Source\PSoC4/CyDMA.c **** *  This file contains all of the global DMA API functions.
   7:Generated_Source\PSoC4/CyDMA.c **** *
   8:Generated_Source\PSoC4/CyDMA.c **** ********************************************************************************
   9:Generated_Source\PSoC4/CyDMA.c **** * Copyright 2015, Cypress Semiconductor Corporation. All rights reserved.
  10:Generated_Source\PSoC4/CyDMA.c **** * You may use this file only in accordance with the license, terms, conditions,
  11:Generated_Source\PSoC4/CyDMA.c **** * disclaimers, and limitations in the end user license agreement accompanying
  12:Generated_Source\PSoC4/CyDMA.c **** * the software package with which this file was provided.
  13:Generated_Source\PSoC4/CyDMA.c **** *******************************************************************************/
  14:Generated_Source\PSoC4/CyDMA.c **** 
ARM GAS  C:\Users\fneves\AppData\Local\Temp\ccoNsDRu.s 			page 2


  15:Generated_Source\PSoC4/CyDMA.c **** #include "CyDMA.h"
  16:Generated_Source\PSoC4/CyDMA.c **** #include "CyLib.h"
  17:Generated_Source\PSoC4/CyDMA.c **** 
  18:Generated_Source\PSoC4/CyDMA.c **** /* Default callback function. It is invoked if the user callback function is
  19:Generated_Source\PSoC4/CyDMA.c **** * undefined.
  20:Generated_Source\PSoC4/CyDMA.c **** */
  21:Generated_Source\PSoC4/CyDMA.c **** static void CyDmaDefaultInterruptCallback(void);
  22:Generated_Source\PSoC4/CyDMA.c **** 
  23:Generated_Source\PSoC4/CyDMA.c **** /* Array of pointers to user defined callback functions to be called
  24:Generated_Source\PSoC4/CyDMA.c **** * from DMA interrupt.
  25:Generated_Source\PSoC4/CyDMA.c **** */
  26:Generated_Source\PSoC4/CyDMA.c **** static cydma_callback_t CyDmaInterruptCallback[CYDMA_CH_NR] = {
  27:Generated_Source\PSoC4/CyDMA.c ****     &CyDmaDefaultInterruptCallback, &CyDmaDefaultInterruptCallback,
  28:Generated_Source\PSoC4/CyDMA.c ****     &CyDmaDefaultInterruptCallback, &CyDmaDefaultInterruptCallback,
  29:Generated_Source\PSoC4/CyDMA.c ****     &CyDmaDefaultInterruptCallback, &CyDmaDefaultInterruptCallback,
  30:Generated_Source\PSoC4/CyDMA.c ****     &CyDmaDefaultInterruptCallback, &CyDmaDefaultInterruptCallback
  31:Generated_Source\PSoC4/CyDMA.c **** };
  32:Generated_Source\PSoC4/CyDMA.c **** 
  33:Generated_Source\PSoC4/CyDMA.c **** /* The live status of all DMA channels usage. Bit i is associated to channel i,
  34:Generated_Source\PSoC4/CyDMA.c **** * with i = 0..CYDMA_CH_NR-1. '0' - channel is free. '1' - channel is in use.
  35:Generated_Source\PSoC4/CyDMA.c **** * All the channels allocated for DMA instances placed on a schematic are in use
  36:Generated_Source\PSoC4/CyDMA.c **** * by default and cannot be freed. 
  37:Generated_Source\PSoC4/CyDMA.c **** * DMA_CHANNELS_USED__MASK is generated during the build time and is a bit field
  38:Generated_Source\PSoC4/CyDMA.c **** * corresponding to the DMA channels placed on a design schematic.
  39:Generated_Source\PSoC4/CyDMA.c **** */
  40:Generated_Source\PSoC4/CyDMA.c **** static uint32 CyDmaChannelUsedMask = DMA_CHANNELS_USED__MASK;
  41:Generated_Source\PSoC4/CyDMA.c **** 
  42:Generated_Source\PSoC4/CyDMA.c **** 
  43:Generated_Source\PSoC4/CyDMA.c **** /*******************************************************************************
  44:Generated_Source\PSoC4/CyDMA.c **** * Function Name: CyDmaEnable
  45:Generated_Source\PSoC4/CyDMA.c **** ********************************************************************************
  46:Generated_Source\PSoC4/CyDMA.c **** *
  47:Generated_Source\PSoC4/CyDMA.c **** * Summary:
  48:Generated_Source\PSoC4/CyDMA.c **** *  Sets the default ISR to be called by the DMA interrupt and enables the DMA
  49:Generated_Source\PSoC4/CyDMA.c **** *  transfer engine.
  50:Generated_Source\PSoC4/CyDMA.c **** *
  51:Generated_Source\PSoC4/CyDMA.c **** * Parameters:
  52:Generated_Source\PSoC4/CyDMA.c **** *  None.
  53:Generated_Source\PSoC4/CyDMA.c **** *                   
  54:Generated_Source\PSoC4/CyDMA.c **** * Return:
  55:Generated_Source\PSoC4/CyDMA.c **** *  None.
  56:Generated_Source\PSoC4/CyDMA.c **** *
  57:Generated_Source\PSoC4/CyDMA.c **** * Side effect:
  58:Generated_Source\PSoC4/CyDMA.c **** *  Does not affect the channel enable status. Overrides the interrupt vector
  59:Generated_Source\PSoC4/CyDMA.c **** *  set prior the first time CyDmaEnable() is called.
  60:Generated_Source\PSoC4/CyDMA.c **** *
  61:Generated_Source\PSoC4/CyDMA.c **** *******************************************************************************/
  62:Generated_Source\PSoC4/CyDMA.c **** void CyDmaEnable(void)
  63:Generated_Source\PSoC4/CyDMA.c **** {
  44              		.loc 1 63 0
  45              		.cfi_startproc
  46 0000 80B5     		push	{r7, lr}
  47              		.cfi_def_cfa_offset 8
  48              		.cfi_offset 7, -8
  49              		.cfi_offset 14, -4
  50 0002 00AF     		add	r7, sp, #0
  51              		.cfi_def_cfa_register 7
ARM GAS  C:\Users\fneves\AppData\Local\Temp\ccoNsDRu.s 			page 3


  64:Generated_Source\PSoC4/CyDMA.c ****     static uint8 initIntrVector = 0u;
  65:Generated_Source\PSoC4/CyDMA.c **** 
  66:Generated_Source\PSoC4/CyDMA.c ****     if(0u == initIntrVector)
  52              		.loc 1 66 0
  53 0004 0A4B     		ldr	r3, .L3
  54 0006 1B78     		ldrb	r3, [r3]
  55 0008 002B     		cmp	r3, #0
  56 000a 0AD1     		bne	.L2
  67:Generated_Source\PSoC4/CyDMA.c ****     {
  68:Generated_Source\PSoC4/CyDMA.c ****         CyDmaSetInterruptVector(&CyDmaInterrupt);
  57              		.loc 1 68 0
  58 000c 094B     		ldr	r3, .L3+4
  59 000e 181C     		mov	r0, r3
  60 0010 FFF7FEFF 		bl	CyDmaSetInterruptVector
  69:Generated_Source\PSoC4/CyDMA.c ****         CyIntSetPriority(CYDMA_INTR_NUMBER, CYDMA_INTR_PRIO);
  61              		.loc 1 69 0
  62 0014 0C20     		mov	r0, #12
  63 0016 0321     		mov	r1, #3
  64 0018 FFF7FEFF 		bl	CyIntSetPriority
  70:Generated_Source\PSoC4/CyDMA.c ****         initIntrVector = 1u;
  65              		.loc 1 70 0
  66 001c 044B     		ldr	r3, .L3
  67 001e 0122     		mov	r2, #1
  68 0020 1A70     		strb	r2, [r3]
  69              	.L2:
  71:Generated_Source\PSoC4/CyDMA.c ****     }
  72:Generated_Source\PSoC4/CyDMA.c ****     CYDMA_CTL_REG = CYDMA_ENABLED;
  70              		.loc 1 72 0
  71 0022 054B     		ldr	r3, .L3+8
  72 0024 8022     		mov	r2, #128
  73 0026 1206     		lsl	r2, r2, #24
  74 0028 1A60     		str	r2, [r3]
  73:Generated_Source\PSoC4/CyDMA.c **** }
  75              		.loc 1 73 0
  76 002a BD46     		mov	sp, r7
  77              		@ sp needed
  78 002c 80BD     		pop	{r7, pc}
  79              	.L4:
  80 002e C046     		.align	2
  81              	.L3:
  82 0030 00000000 		.word	initIntrVector.4912
  83 0034 00000000 		.word	CyDmaInterrupt
  84 0038 00101040 		.word	1074794496
  85              		.cfi_endproc
  86              	.LFE1:
  87              		.size	CyDmaEnable, .-CyDmaEnable
  88              		.section	.text.CyDmaDisable,"ax",%progbits
  89              		.align	2
  90              		.global	CyDmaDisable
  91              		.code	16
  92              		.thumb_func
  93              		.type	CyDmaDisable, %function
  94              	CyDmaDisable:
  95              	.LFB2:
  74:Generated_Source\PSoC4/CyDMA.c **** 
  75:Generated_Source\PSoC4/CyDMA.c **** 
  76:Generated_Source\PSoC4/CyDMA.c **** /*******************************************************************************
ARM GAS  C:\Users\fneves\AppData\Local\Temp\ccoNsDRu.s 			page 4


  77:Generated_Source\PSoC4/CyDMA.c **** * Function Name: CyDmaDisable
  78:Generated_Source\PSoC4/CyDMA.c **** ********************************************************************************
  79:Generated_Source\PSoC4/CyDMA.c **** *
  80:Generated_Source\PSoC4/CyDMA.c **** * Summary:
  81:Generated_Source\PSoC4/CyDMA.c **** *  Disables the DMA transfer engine.
  82:Generated_Source\PSoC4/CyDMA.c **** *
  83:Generated_Source\PSoC4/CyDMA.c **** * Parameters:
  84:Generated_Source\PSoC4/CyDMA.c **** *  None.
  85:Generated_Source\PSoC4/CyDMA.c **** *                   
  86:Generated_Source\PSoC4/CyDMA.c **** * Return:
  87:Generated_Source\PSoC4/CyDMA.c **** *  None.
  88:Generated_Source\PSoC4/CyDMA.c **** *
  89:Generated_Source\PSoC4/CyDMA.c **** * Side effect:
  90:Generated_Source\PSoC4/CyDMA.c **** *  Does not affect the channel enable status.
  91:Generated_Source\PSoC4/CyDMA.c **** *
  92:Generated_Source\PSoC4/CyDMA.c **** *******************************************************************************/
  93:Generated_Source\PSoC4/CyDMA.c **** void CyDmaDisable(void)
  94:Generated_Source\PSoC4/CyDMA.c **** {
  96              		.loc 1 94 0
  97              		.cfi_startproc
  98 0000 80B5     		push	{r7, lr}
  99              		.cfi_def_cfa_offset 8
 100              		.cfi_offset 7, -8
 101              		.cfi_offset 14, -4
 102 0002 00AF     		add	r7, sp, #0
 103              		.cfi_def_cfa_register 7
  95:Generated_Source\PSoC4/CyDMA.c ****     CYDMA_CTL_REG = (uint32)~CYDMA_ENABLED;
 104              		.loc 1 95 0
 105 0004 024B     		ldr	r3, .L6
 106 0006 034A     		ldr	r2, .L6+4
 107 0008 1A60     		str	r2, [r3]
  96:Generated_Source\PSoC4/CyDMA.c **** }
 108              		.loc 1 96 0
 109 000a BD46     		mov	sp, r7
 110              		@ sp needed
 111 000c 80BD     		pop	{r7, pc}
 112              	.L7:
 113 000e C046     		.align	2
 114              	.L6:
 115 0010 00101040 		.word	1074794496
 116 0014 FFFFFF7F 		.word	2147483647
 117              		.cfi_endproc
 118              	.LFE2:
 119              		.size	CyDmaDisable, .-CyDmaDisable
 120              		.section	.text.CyDmaGetStatus,"ax",%progbits
 121              		.align	2
 122              		.global	CyDmaGetStatus
 123              		.code	16
 124              		.thumb_func
 125              		.type	CyDmaGetStatus, %function
 126              	CyDmaGetStatus:
 127              	.LFB3:
  97:Generated_Source\PSoC4/CyDMA.c **** 
  98:Generated_Source\PSoC4/CyDMA.c **** 
  99:Generated_Source\PSoC4/CyDMA.c **** /*******************************************************************************
 100:Generated_Source\PSoC4/CyDMA.c **** * Function Name: CyDmaGetStatus
 101:Generated_Source\PSoC4/CyDMA.c **** ********************************************************************************
ARM GAS  C:\Users\fneves\AppData\Local\Temp\ccoNsDRu.s 			page 5


 102:Generated_Source\PSoC4/CyDMA.c **** *
 103:Generated_Source\PSoC4/CyDMA.c **** * Summary:
 104:Generated_Source\PSoC4/CyDMA.c **** *  Returns the status of the DMA transfer engine.
 105:Generated_Source\PSoC4/CyDMA.c **** *
 106:Generated_Source\PSoC4/CyDMA.c **** * Parameters:
 107:Generated_Source\PSoC4/CyDMA.c **** *  None.
 108:Generated_Source\PSoC4/CyDMA.c **** *                   
 109:Generated_Source\PSoC4/CyDMA.c **** * Return:
 110:Generated_Source\PSoC4/CyDMA.c **** *  The contents of the DMA status register. Refer to the status register bit
 111:Generated_Source\PSoC4/CyDMA.c **** *  definitions in CyDMA_P4.h or the API description in the DMA channel
 112:Generated_Source\PSoC4/CyDMA.c **** *  datasheet.
 113:Generated_Source\PSoC4/CyDMA.c **** *
 114:Generated_Source\PSoC4/CyDMA.c **** * Side effect:
 115:Generated_Source\PSoC4/CyDMA.c **** *  The series of function calls CyDmaGetActiveSrcAddress(),
 116:Generated_Source\PSoC4/CyDMA.c **** *  CyDmaGetActiveDstAddress(), CyDmaGetStatus() are not atomic, the DMA
 117:Generated_Source\PSoC4/CyDMA.c **** *  engine may have advanced after one or more of these function calls. Meaning
 118:Generated_Source\PSoC4/CyDMA.c **** *  the returns from these three functions may not be related to each other.
 119:Generated_Source\PSoC4/CyDMA.c **** *
 120:Generated_Source\PSoC4/CyDMA.c **** *******************************************************************************/
 121:Generated_Source\PSoC4/CyDMA.c **** uint32 CyDmaGetStatus(void)
 122:Generated_Source\PSoC4/CyDMA.c **** {
 128              		.loc 1 122 0
 129              		.cfi_startproc
 130 0000 80B5     		push	{r7, lr}
 131              		.cfi_def_cfa_offset 8
 132              		.cfi_offset 7, -8
 133              		.cfi_offset 14, -4
 134 0002 00AF     		add	r7, sp, #0
 135              		.cfi_def_cfa_register 7
 123:Generated_Source\PSoC4/CyDMA.c ****     return (CYDMA_STATUS_REG);
 136              		.loc 1 123 0
 137 0004 024B     		ldr	r3, .L10
 138 0006 1B68     		ldr	r3, [r3]
 124:Generated_Source\PSoC4/CyDMA.c **** }
 139              		.loc 1 124 0
 140 0008 181C     		mov	r0, r3
 141 000a BD46     		mov	sp, r7
 142              		@ sp needed
 143 000c 80BD     		pop	{r7, pc}
 144              	.L11:
 145 000e C046     		.align	2
 146              	.L10:
 147 0010 10101040 		.word	1074794512
 148              		.cfi_endproc
 149              	.LFE3:
 150              		.size	CyDmaGetStatus, .-CyDmaGetStatus
 151              		.section	.text.CyDmaGetActiveChannels,"ax",%progbits
 152              		.align	2
 153              		.global	CyDmaGetActiveChannels
 154              		.code	16
 155              		.thumb_func
 156              		.type	CyDmaGetActiveChannels, %function
 157              	CyDmaGetActiveChannels:
 158              	.LFB4:
 125:Generated_Source\PSoC4/CyDMA.c **** 
 126:Generated_Source\PSoC4/CyDMA.c **** 
 127:Generated_Source\PSoC4/CyDMA.c **** /*******************************************************************************
ARM GAS  C:\Users\fneves\AppData\Local\Temp\ccoNsDRu.s 			page 6


 128:Generated_Source\PSoC4/CyDMA.c **** * Function Name: CyDmaGetActiveChannels
 129:Generated_Source\PSoC4/CyDMA.c **** ********************************************************************************
 130:Generated_Source\PSoC4/CyDMA.c **** *
 131:Generated_Source\PSoC4/CyDMA.c **** * Summary:
 132:Generated_Source\PSoC4/CyDMA.c **** *  Returns a bit field of all the DMA channels that are either active or
 133:Generated_Source\PSoC4/CyDMA.c **** *  pending.
 134:Generated_Source\PSoC4/CyDMA.c **** *
 135:Generated_Source\PSoC4/CyDMA.c **** * Parameters:
 136:Generated_Source\PSoC4/CyDMA.c **** *  None.
 137:Generated_Source\PSoC4/CyDMA.c **** *                   
 138:Generated_Source\PSoC4/CyDMA.c **** * Return:
 139:Generated_Source\PSoC4/CyDMA.c **** *  Bit field of active and pending channels. 
 140:Generated_Source\PSoC4/CyDMA.c **** *
 141:Generated_Source\PSoC4/CyDMA.c **** *******************************************************************************/
 142:Generated_Source\PSoC4/CyDMA.c **** uint32 CyDmaGetActiveChannels(void)
 143:Generated_Source\PSoC4/CyDMA.c **** {
 159              		.loc 1 143 0
 160              		.cfi_startproc
 161 0000 80B5     		push	{r7, lr}
 162              		.cfi_def_cfa_offset 8
 163              		.cfi_offset 7, -8
 164              		.cfi_offset 14, -4
 165 0002 00AF     		add	r7, sp, #0
 166              		.cfi_def_cfa_register 7
 144:Generated_Source\PSoC4/CyDMA.c ****     return (CYDMA_STATUS_CH_ACT_REG);
 167              		.loc 1 144 0
 168 0004 024B     		ldr	r3, .L14
 169 0006 1B68     		ldr	r3, [r3]
 145:Generated_Source\PSoC4/CyDMA.c **** }
 170              		.loc 1 145 0
 171 0008 181C     		mov	r0, r3
 172 000a BD46     		mov	sp, r7
 173              		@ sp needed
 174 000c 80BD     		pop	{r7, pc}
 175              	.L15:
 176 000e C046     		.align	2
 177              	.L14:
 178 0010 1C101040 		.word	1074794524
 179              		.cfi_endproc
 180              	.LFE4:
 181              		.size	CyDmaGetActiveChannels, .-CyDmaGetActiveChannels
 182              		.section	.text.CyDmaGetActiveSrcAddress,"ax",%progbits
 183              		.align	2
 184              		.global	CyDmaGetActiveSrcAddress
 185              		.code	16
 186              		.thumb_func
 187              		.type	CyDmaGetActiveSrcAddress, %function
 188              	CyDmaGetActiveSrcAddress:
 189              	.LFB5:
 146:Generated_Source\PSoC4/CyDMA.c **** 
 147:Generated_Source\PSoC4/CyDMA.c **** 
 148:Generated_Source\PSoC4/CyDMA.c **** /*******************************************************************************
 149:Generated_Source\PSoC4/CyDMA.c **** * Function Name: CyDmaGetActiveSrcAddress
 150:Generated_Source\PSoC4/CyDMA.c **** ********************************************************************************
 151:Generated_Source\PSoC4/CyDMA.c **** *
 152:Generated_Source\PSoC4/CyDMA.c **** * Summary:
 153:Generated_Source\PSoC4/CyDMA.c **** *  Returns the source address currently being used by the DMA transfer engine.
ARM GAS  C:\Users\fneves\AppData\Local\Temp\ccoNsDRu.s 			page 7


 154:Generated_Source\PSoC4/CyDMA.c **** *  This function can be used to debug the DMA, or observe where it is at in a
 155:Generated_Source\PSoC4/CyDMA.c **** *  transfer. It will not be used in normal DMA operation.
 156:Generated_Source\PSoC4/CyDMA.c **** *
 157:Generated_Source\PSoC4/CyDMA.c **** * Parameters:
 158:Generated_Source\PSoC4/CyDMA.c **** *  None.
 159:Generated_Source\PSoC4/CyDMA.c **** *                   
 160:Generated_Source\PSoC4/CyDMA.c **** * Return:
 161:Generated_Source\PSoC4/CyDMA.c **** *  Source address currently being used by the DMA transfer engine.
 162:Generated_Source\PSoC4/CyDMA.c **** *
 163:Generated_Source\PSoC4/CyDMA.c **** * Side effect:
 164:Generated_Source\PSoC4/CyDMA.c **** *  The series of function calls CyDmaGetActiveSrcAddress(),
 165:Generated_Source\PSoC4/CyDMA.c **** *  CyDmaGetActiveDstAddress(), CyDmaGetStatus() are not atomic, the DMA
 166:Generated_Source\PSoC4/CyDMA.c **** *  engine may have advanced after one or more of these function calls. Meaning
 167:Generated_Source\PSoC4/CyDMA.c **** *  the returns from these three functions may not be related to each other.
 168:Generated_Source\PSoC4/CyDMA.c **** *
 169:Generated_Source\PSoC4/CyDMA.c **** *******************************************************************************/
 170:Generated_Source\PSoC4/CyDMA.c **** void * CyDmaGetActiveSrcAddress(void)
 171:Generated_Source\PSoC4/CyDMA.c **** {
 190              		.loc 1 171 0
 191              		.cfi_startproc
 192 0000 80B5     		push	{r7, lr}
 193              		.cfi_def_cfa_offset 8
 194              		.cfi_offset 7, -8
 195              		.cfi_offset 14, -4
 196 0002 00AF     		add	r7, sp, #0
 197              		.cfi_def_cfa_register 7
 172:Generated_Source\PSoC4/CyDMA.c ****     return ((void *)CYDMA_STATUS_SRC_ADDR_REG);
 198              		.loc 1 172 0
 199 0004 024B     		ldr	r3, .L18
 200 0006 1B68     		ldr	r3, [r3]
 173:Generated_Source\PSoC4/CyDMA.c **** }
 201              		.loc 1 173 0
 202 0008 181C     		mov	r0, r3
 203 000a BD46     		mov	sp, r7
 204              		@ sp needed
 205 000c 80BD     		pop	{r7, pc}
 206              	.L19:
 207 000e C046     		.align	2
 208              	.L18:
 209 0010 14101040 		.word	1074794516
 210              		.cfi_endproc
 211              	.LFE5:
 212              		.size	CyDmaGetActiveSrcAddress, .-CyDmaGetActiveSrcAddress
 213              		.section	.text.CyDmaGetActiveDstAddress,"ax",%progbits
 214              		.align	2
 215              		.global	CyDmaGetActiveDstAddress
 216              		.code	16
 217              		.thumb_func
 218              		.type	CyDmaGetActiveDstAddress, %function
 219              	CyDmaGetActiveDstAddress:
 220              	.LFB6:
 174:Generated_Source\PSoC4/CyDMA.c **** 
 175:Generated_Source\PSoC4/CyDMA.c **** 
 176:Generated_Source\PSoC4/CyDMA.c **** /*******************************************************************************
 177:Generated_Source\PSoC4/CyDMA.c **** * Function Name: CyDmaGetActiveDstAddress
 178:Generated_Source\PSoC4/CyDMA.c **** ********************************************************************************
 179:Generated_Source\PSoC4/CyDMA.c **** *
ARM GAS  C:\Users\fneves\AppData\Local\Temp\ccoNsDRu.s 			page 8


 180:Generated_Source\PSoC4/CyDMA.c **** * Summary:
 181:Generated_Source\PSoC4/CyDMA.c **** *  Returns the destination address currently being used by the DMA transfer
 182:Generated_Source\PSoC4/CyDMA.c **** *  engine. This function can be used to debug the DMA, or observe where it is at
 183:Generated_Source\PSoC4/CyDMA.c **** *  in a transfer. It will not be used in normal DMA operation.
 184:Generated_Source\PSoC4/CyDMA.c **** *
 185:Generated_Source\PSoC4/CyDMA.c **** * Parameters:
 186:Generated_Source\PSoC4/CyDMA.c **** *  None.
 187:Generated_Source\PSoC4/CyDMA.c **** *                   
 188:Generated_Source\PSoC4/CyDMA.c **** * Return:
 189:Generated_Source\PSoC4/CyDMA.c **** *  Destination address currently being used by the DMA transfer engine.
 190:Generated_Source\PSoC4/CyDMA.c **** *
 191:Generated_Source\PSoC4/CyDMA.c **** * Side effect:
 192:Generated_Source\PSoC4/CyDMA.c **** *  The series of function calls CyDmaGetActiveSrcAddress(),
 193:Generated_Source\PSoC4/CyDMA.c **** *  CyDmaGetActiveDstAddress(), CyDmaGetStatus() are not atomic, the DMA
 194:Generated_Source\PSoC4/CyDMA.c **** *  engine may have advanced after one or more of these function calls. Meaning
 195:Generated_Source\PSoC4/CyDMA.c **** *  the returns from these three functions may not be related to each other.
 196:Generated_Source\PSoC4/CyDMA.c **** *
 197:Generated_Source\PSoC4/CyDMA.c **** *******************************************************************************/
 198:Generated_Source\PSoC4/CyDMA.c **** void * CyDmaGetActiveDstAddress(void)
 199:Generated_Source\PSoC4/CyDMA.c **** {
 221              		.loc 1 199 0
 222              		.cfi_startproc
 223 0000 80B5     		push	{r7, lr}
 224              		.cfi_def_cfa_offset 8
 225              		.cfi_offset 7, -8
 226              		.cfi_offset 14, -4
 227 0002 00AF     		add	r7, sp, #0
 228              		.cfi_def_cfa_register 7
 200:Generated_Source\PSoC4/CyDMA.c ****     return ((void *)CYDMA_STATUS_DST_ADDR_REG);
 229              		.loc 1 200 0
 230 0004 024B     		ldr	r3, .L22
 231 0006 1B68     		ldr	r3, [r3]
 201:Generated_Source\PSoC4/CyDMA.c **** }
 232              		.loc 1 201 0
 233 0008 181C     		mov	r0, r3
 234 000a BD46     		mov	sp, r7
 235              		@ sp needed
 236 000c 80BD     		pop	{r7, pc}
 237              	.L23:
 238 000e C046     		.align	2
 239              	.L22:
 240 0010 18101040 		.word	1074794520
 241              		.cfi_endproc
 242              	.LFE6:
 243              		.size	CyDmaGetActiveDstAddress, .-CyDmaGetActiveDstAddress
 244              		.section	.text.CyDmaSetInterruptVector,"ax",%progbits
 245              		.align	2
 246              		.global	CyDmaSetInterruptVector
 247              		.code	16
 248              		.thumb_func
 249              		.type	CyDmaSetInterruptVector, %function
 250              	CyDmaSetInterruptVector:
 251              	.LFB7:
 202:Generated_Source\PSoC4/CyDMA.c **** 
 203:Generated_Source\PSoC4/CyDMA.c **** 
 204:Generated_Source\PSoC4/CyDMA.c **** /*******************************************************************************
 205:Generated_Source\PSoC4/CyDMA.c **** * Function Name: CyDmaSetInterruptVector
ARM GAS  C:\Users\fneves\AppData\Local\Temp\ccoNsDRu.s 			page 9


 206:Generated_Source\PSoC4/CyDMA.c **** ********************************************************************************
 207:Generated_Source\PSoC4/CyDMA.c **** *
 208:Generated_Source\PSoC4/CyDMA.c **** * Summary:
 209:Generated_Source\PSoC4/CyDMA.c **** *  Sets the function that will be called by the DMA interrupt. Note, calling
 210:Generated_Source\PSoC4/CyDMA.c **** *  CyDmaEnable() for the first time overrides any effect this API could have.
 211:Generated_Source\PSoC4/CyDMA.c **** *  Call CyDmaSetInterruptVector() after calling CyDmaEnable() to change
 212:Generated_Source\PSoC4/CyDMA.c **** *  the default ISR.
 213:Generated_Source\PSoC4/CyDMA.c **** *
 214:Generated_Source\PSoC4/CyDMA.c **** * Parameters:
 215:Generated_Source\PSoC4/CyDMA.c **** *  interruptVector: Address of the function that will be called by the DMA
 216:Generated_Source\PSoC4/CyDMA.c **** *                   interrupt.
 217:Generated_Source\PSoC4/CyDMA.c **** * Return:
 218:Generated_Source\PSoC4/CyDMA.c **** *  None.
 219:Generated_Source\PSoC4/CyDMA.c **** *
 220:Generated_Source\PSoC4/CyDMA.c **** * Side effect:
 221:Generated_Source\PSoC4/CyDMA.c **** *  Other components that use DMA may register their callback functions to be
 222:Generated_Source\PSoC4/CyDMA.c **** *  called from the default DMA ISR. Therefore, changing the DMA ISR to a user
 223:Generated_Source\PSoC4/CyDMA.c **** *  defined ISR using this API may prevent these other components from
 224:Generated_Source\PSoC4/CyDMA.c **** *  functioning correctly.
 225:Generated_Source\PSoC4/CyDMA.c **** *
 226:Generated_Source\PSoC4/CyDMA.c **** *******************************************************************************/
 227:Generated_Source\PSoC4/CyDMA.c **** void CyDmaSetInterruptVector(cyisraddress interruptVector)
 228:Generated_Source\PSoC4/CyDMA.c **** {
 252              		.loc 1 228 0
 253              		.cfi_startproc
 254 0000 80B5     		push	{r7, lr}
 255              		.cfi_def_cfa_offset 8
 256              		.cfi_offset 7, -8
 257              		.cfi_offset 14, -4
 258 0002 82B0     		sub	sp, sp, #8
 259              		.cfi_def_cfa_offset 16
 260 0004 00AF     		add	r7, sp, #0
 261              		.cfi_def_cfa_register 7
 262 0006 7860     		str	r0, [r7, #4]
 229:Generated_Source\PSoC4/CyDMA.c ****     (void)CyIntSetVector(CYDMA_INTR_NUMBER, interruptVector);
 263              		.loc 1 229 0
 264 0008 7B68     		ldr	r3, [r7, #4]
 265 000a 0C20     		mov	r0, #12
 266 000c 191C     		mov	r1, r3
 267 000e FFF7FEFF 		bl	CyIntSetVector
 230:Generated_Source\PSoC4/CyDMA.c **** }
 268              		.loc 1 230 0
 269 0012 BD46     		mov	sp, r7
 270 0014 02B0     		add	sp, sp, #8
 271              		@ sp needed
 272 0016 80BD     		pop	{r7, pc}
 273              		.cfi_endproc
 274              	.LFE7:
 275              		.size	CyDmaSetInterruptVector, .-CyDmaSetInterruptVector
 276              		.section	.text.CyDmaGetInterruptSource,"ax",%progbits
 277              		.align	2
 278              		.global	CyDmaGetInterruptSource
 279              		.code	16
 280              		.thumb_func
 281              		.type	CyDmaGetInterruptSource, %function
 282              	CyDmaGetInterruptSource:
 283              	.LFB8:
ARM GAS  C:\Users\fneves\AppData\Local\Temp\ccoNsDRu.s 			page 10


 231:Generated_Source\PSoC4/CyDMA.c **** 
 232:Generated_Source\PSoC4/CyDMA.c **** 
 233:Generated_Source\PSoC4/CyDMA.c **** /*******************************************************************************
 234:Generated_Source\PSoC4/CyDMA.c **** * Function Name: CyDmaGetInterruptSource
 235:Generated_Source\PSoC4/CyDMA.c **** ********************************************************************************
 236:Generated_Source\PSoC4/CyDMA.c **** *
 237:Generated_Source\PSoC4/CyDMA.c **** * Summary:
 238:Generated_Source\PSoC4/CyDMA.c **** *  Returns the bit field of which channels generated an interrupt request.
 239:Generated_Source\PSoC4/CyDMA.c **** *
 240:Generated_Source\PSoC4/CyDMA.c **** * Parameters:
 241:Generated_Source\PSoC4/CyDMA.c **** *  None.
 242:Generated_Source\PSoC4/CyDMA.c **** *                   
 243:Generated_Source\PSoC4/CyDMA.c **** * Return:
 244:Generated_Source\PSoC4/CyDMA.c **** *  Bit filed of which channels generated an interrupt request.
 245:Generated_Source\PSoC4/CyDMA.c **** *
 246:Generated_Source\PSoC4/CyDMA.c **** *******************************************************************************/
 247:Generated_Source\PSoC4/CyDMA.c **** uint32 CyDmaGetInterruptSource(void)
 248:Generated_Source\PSoC4/CyDMA.c **** {
 284              		.loc 1 248 0
 285              		.cfi_startproc
 286 0000 80B5     		push	{r7, lr}
 287              		.cfi_def_cfa_offset 8
 288              		.cfi_offset 7, -8
 289              		.cfi_offset 14, -4
 290 0002 00AF     		add	r7, sp, #0
 291              		.cfi_def_cfa_register 7
 249:Generated_Source\PSoC4/CyDMA.c ****     return (CYDMA_INTR_REG);
 292              		.loc 1 249 0
 293 0004 024B     		ldr	r3, .L27
 294 0006 1B68     		ldr	r3, [r3]
 250:Generated_Source\PSoC4/CyDMA.c **** }
 295              		.loc 1 250 0
 296 0008 181C     		mov	r0, r3
 297 000a BD46     		mov	sp, r7
 298              		@ sp needed
 299 000c 80BD     		pop	{r7, pc}
 300              	.L28:
 301 000e C046     		.align	2
 302              	.L27:
 303 0010 F0171040 		.word	1074796528
 304              		.cfi_endproc
 305              	.LFE8:
 306              		.size	CyDmaGetInterruptSource, .-CyDmaGetInterruptSource
 307              		.section	.text.CyDmaClearInterruptSource,"ax",%progbits
 308              		.align	2
 309              		.global	CyDmaClearInterruptSource
 310              		.code	16
 311              		.thumb_func
 312              		.type	CyDmaClearInterruptSource, %function
 313              	CyDmaClearInterruptSource:
 314              	.LFB9:
 251:Generated_Source\PSoC4/CyDMA.c **** 
 252:Generated_Source\PSoC4/CyDMA.c **** 
 253:Generated_Source\PSoC4/CyDMA.c **** /*******************************************************************************
 254:Generated_Source\PSoC4/CyDMA.c **** * Function Name: CyDmaClearInterruptSource
 255:Generated_Source\PSoC4/CyDMA.c **** ********************************************************************************
 256:Generated_Source\PSoC4/CyDMA.c **** *
ARM GAS  C:\Users\fneves\AppData\Local\Temp\ccoNsDRu.s 			page 11


 257:Generated_Source\PSoC4/CyDMA.c **** * Summary:
 258:Generated_Source\PSoC4/CyDMA.c **** *  Clears the pending interrupts.
 259:Generated_Source\PSoC4/CyDMA.c **** *
 260:Generated_Source\PSoC4/CyDMA.c **** * Parameters:
 261:Generated_Source\PSoC4/CyDMA.c **** *  interruptMask: Bit field of interrupts to clear.
 262:Generated_Source\PSoC4/CyDMA.c **** *                   
 263:Generated_Source\PSoC4/CyDMA.c **** * Return:
 264:Generated_Source\PSoC4/CyDMA.c **** *  None.
 265:Generated_Source\PSoC4/CyDMA.c **** *
 266:Generated_Source\PSoC4/CyDMA.c **** *******************************************************************************/
 267:Generated_Source\PSoC4/CyDMA.c **** void CyDmaClearInterruptSource(uint32 interruptMask)
 268:Generated_Source\PSoC4/CyDMA.c **** {
 315              		.loc 1 268 0
 316              		.cfi_startproc
 317 0000 80B5     		push	{r7, lr}
 318              		.cfi_def_cfa_offset 8
 319              		.cfi_offset 7, -8
 320              		.cfi_offset 14, -4
 321 0002 82B0     		sub	sp, sp, #8
 322              		.cfi_def_cfa_offset 16
 323 0004 00AF     		add	r7, sp, #0
 324              		.cfi_def_cfa_register 7
 325 0006 7860     		str	r0, [r7, #4]
 269:Generated_Source\PSoC4/CyDMA.c ****     CYDMA_INTR_REG = interruptMask;
 326              		.loc 1 269 0
 327 0008 024B     		ldr	r3, .L30
 328 000a 7A68     		ldr	r2, [r7, #4]
 329 000c 1A60     		str	r2, [r3]
 270:Generated_Source\PSoC4/CyDMA.c **** }
 330              		.loc 1 270 0
 331 000e BD46     		mov	sp, r7
 332 0010 02B0     		add	sp, sp, #8
 333              		@ sp needed
 334 0012 80BD     		pop	{r7, pc}
 335              	.L31:
 336              		.align	2
 337              	.L30:
 338 0014 F0171040 		.word	1074796528
 339              		.cfi_endproc
 340              	.LFE9:
 341              		.size	CyDmaClearInterruptSource, .-CyDmaClearInterruptSource
 342              		.section	.text.CyDmaSetInterruptSourceMask,"ax",%progbits
 343              		.align	2
 344              		.global	CyDmaSetInterruptSourceMask
 345              		.code	16
 346              		.thumb_func
 347              		.type	CyDmaSetInterruptSourceMask, %function
 348              	CyDmaSetInterruptSourceMask:
 349              	.LFB10:
 271:Generated_Source\PSoC4/CyDMA.c **** 
 272:Generated_Source\PSoC4/CyDMA.c **** 
 273:Generated_Source\PSoC4/CyDMA.c **** /*******************************************************************************
 274:Generated_Source\PSoC4/CyDMA.c **** * Function Name: CyDmaSetInterruptSourceMask
 275:Generated_Source\PSoC4/CyDMA.c **** ********************************************************************************
 276:Generated_Source\PSoC4/CyDMA.c **** *
 277:Generated_Source\PSoC4/CyDMA.c **** * Summary:
 278:Generated_Source\PSoC4/CyDMA.c **** *  Sets mask for interrupt source.
ARM GAS  C:\Users\fneves\AppData\Local\Temp\ccoNsDRu.s 			page 12


 279:Generated_Source\PSoC4/CyDMA.c **** *
 280:Generated_Source\PSoC4/CyDMA.c **** * Parameters:
 281:Generated_Source\PSoC4/CyDMA.c **** *  interruptmask: Mask corresponding to interrupt bit field.
 282:Generated_Source\PSoC4/CyDMA.c **** *                   
 283:Generated_Source\PSoC4/CyDMA.c **** * Return:
 284:Generated_Source\PSoC4/CyDMA.c **** *  None.
 285:Generated_Source\PSoC4/CyDMA.c **** *
 286:Generated_Source\PSoC4/CyDMA.c **** *******************************************************************************/
 287:Generated_Source\PSoC4/CyDMA.c **** void CyDmaSetInterruptSourceMask(uint32 interruptMask)
 288:Generated_Source\PSoC4/CyDMA.c **** {
 350              		.loc 1 288 0
 351              		.cfi_startproc
 352 0000 80B5     		push	{r7, lr}
 353              		.cfi_def_cfa_offset 8
 354              		.cfi_offset 7, -8
 355              		.cfi_offset 14, -4
 356 0002 82B0     		sub	sp, sp, #8
 357              		.cfi_def_cfa_offset 16
 358 0004 00AF     		add	r7, sp, #0
 359              		.cfi_def_cfa_register 7
 360 0006 7860     		str	r0, [r7, #4]
 289:Generated_Source\PSoC4/CyDMA.c ****     CYDMA_INTR_MASK_REG = interruptMask;
 361              		.loc 1 289 0
 362 0008 024B     		ldr	r3, .L33
 363 000a 7A68     		ldr	r2, [r7, #4]
 364 000c 1A60     		str	r2, [r3]
 290:Generated_Source\PSoC4/CyDMA.c **** }
 365              		.loc 1 290 0
 366 000e BD46     		mov	sp, r7
 367 0010 02B0     		add	sp, sp, #8
 368              		@ sp needed
 369 0012 80BD     		pop	{r7, pc}
 370              	.L34:
 371              		.align	2
 372              	.L33:
 373 0014 F8171040 		.word	1074796536
 374              		.cfi_endproc
 375              	.LFE10:
 376              		.size	CyDmaSetInterruptSourceMask, .-CyDmaSetInterruptSourceMask
 377              		.section	.text.CyDmaGetInterruptSourceMask,"ax",%progbits
 378              		.align	2
 379              		.global	CyDmaGetInterruptSourceMask
 380              		.code	16
 381              		.thumb_func
 382              		.type	CyDmaGetInterruptSourceMask, %function
 383              	CyDmaGetInterruptSourceMask:
 384              	.LFB11:
 291:Generated_Source\PSoC4/CyDMA.c **** 
 292:Generated_Source\PSoC4/CyDMA.c **** 
 293:Generated_Source\PSoC4/CyDMA.c **** /*******************************************************************************
 294:Generated_Source\PSoC4/CyDMA.c **** * Function Name: CyDmaGetInterruptSourceMask
 295:Generated_Source\PSoC4/CyDMA.c **** ********************************************************************************
 296:Generated_Source\PSoC4/CyDMA.c **** *
 297:Generated_Source\PSoC4/CyDMA.c **** * Summary:
 298:Generated_Source\PSoC4/CyDMA.c **** *  Returns mask for interrupt source.
 299:Generated_Source\PSoC4/CyDMA.c **** *
 300:Generated_Source\PSoC4/CyDMA.c **** * Parameters:
ARM GAS  C:\Users\fneves\AppData\Local\Temp\ccoNsDRu.s 			page 13


 301:Generated_Source\PSoC4/CyDMA.c **** *  None.
 302:Generated_Source\PSoC4/CyDMA.c **** *                   
 303:Generated_Source\PSoC4/CyDMA.c **** * Return:
 304:Generated_Source\PSoC4/CyDMA.c **** *  Mask corresponding to interrupt bit field.
 305:Generated_Source\PSoC4/CyDMA.c **** *
 306:Generated_Source\PSoC4/CyDMA.c **** *******************************************************************************/
 307:Generated_Source\PSoC4/CyDMA.c **** uint32 CyDmaGetInterruptSourceMask(void)
 308:Generated_Source\PSoC4/CyDMA.c **** {
 385              		.loc 1 308 0
 386              		.cfi_startproc
 387 0000 80B5     		push	{r7, lr}
 388              		.cfi_def_cfa_offset 8
 389              		.cfi_offset 7, -8
 390              		.cfi_offset 14, -4
 391 0002 00AF     		add	r7, sp, #0
 392              		.cfi_def_cfa_register 7
 309:Generated_Source\PSoC4/CyDMA.c ****     return (CYDMA_INTR_MASK_REG);
 393              		.loc 1 309 0
 394 0004 024B     		ldr	r3, .L37
 395 0006 1B68     		ldr	r3, [r3]
 310:Generated_Source\PSoC4/CyDMA.c **** }
 396              		.loc 1 310 0
 397 0008 181C     		mov	r0, r3
 398 000a BD46     		mov	sp, r7
 399              		@ sp needed
 400 000c 80BD     		pop	{r7, pc}
 401              	.L38:
 402 000e C046     		.align	2
 403              	.L37:
 404 0010 F8171040 		.word	1074796536
 405              		.cfi_endproc
 406              	.LFE11:
 407              		.size	CyDmaGetInterruptSourceMask, .-CyDmaGetInterruptSourceMask
 408              		.section	.text.CyDmaGetInterruptSourceMasked,"ax",%progbits
 409              		.align	2
 410              		.global	CyDmaGetInterruptSourceMasked
 411              		.code	16
 412              		.thumb_func
 413              		.type	CyDmaGetInterruptSourceMasked, %function
 414              	CyDmaGetInterruptSourceMasked:
 415              	.LFB12:
 311:Generated_Source\PSoC4/CyDMA.c **** 
 312:Generated_Source\PSoC4/CyDMA.c **** 
 313:Generated_Source\PSoC4/CyDMA.c **** /*******************************************************************************
 314:Generated_Source\PSoC4/CyDMA.c **** * Function Name: CyDmaGetInterruptSourceMasked
 315:Generated_Source\PSoC4/CyDMA.c **** ********************************************************************************
 316:Generated_Source\PSoC4/CyDMA.c **** *
 317:Generated_Source\PSoC4/CyDMA.c **** * Summary:
 318:Generated_Source\PSoC4/CyDMA.c **** *  Returns the bitwise AND of the interrupt source and the interrupt mask.
 319:Generated_Source\PSoC4/CyDMA.c **** *
 320:Generated_Source\PSoC4/CyDMA.c **** * Parameters:
 321:Generated_Source\PSoC4/CyDMA.c **** *  None.
 322:Generated_Source\PSoC4/CyDMA.c **** *                   
 323:Generated_Source\PSoC4/CyDMA.c **** * Return:
 324:Generated_Source\PSoC4/CyDMA.c **** *  Bitwise AND of the interrupt source and the interrupt mask.
 325:Generated_Source\PSoC4/CyDMA.c **** *
 326:Generated_Source\PSoC4/CyDMA.c **** *******************************************************************************/
ARM GAS  C:\Users\fneves\AppData\Local\Temp\ccoNsDRu.s 			page 14


 327:Generated_Source\PSoC4/CyDMA.c **** uint32 CyDmaGetInterruptSourceMasked(void)
 328:Generated_Source\PSoC4/CyDMA.c **** {
 416              		.loc 1 328 0
 417              		.cfi_startproc
 418 0000 80B5     		push	{r7, lr}
 419              		.cfi_def_cfa_offset 8
 420              		.cfi_offset 7, -8
 421              		.cfi_offset 14, -4
 422 0002 00AF     		add	r7, sp, #0
 423              		.cfi_def_cfa_register 7
 329:Generated_Source\PSoC4/CyDMA.c ****     return (CYDMA_INTR_MASKED_REG);
 424              		.loc 1 329 0
 425 0004 024B     		ldr	r3, .L41
 426 0006 1B68     		ldr	r3, [r3]
 330:Generated_Source\PSoC4/CyDMA.c **** }
 427              		.loc 1 330 0
 428 0008 181C     		mov	r0, r3
 429 000a BD46     		mov	sp, r7
 430              		@ sp needed
 431 000c 80BD     		pop	{r7, pc}
 432              	.L42:
 433 000e C046     		.align	2
 434              	.L41:
 435 0010 FC171040 		.word	1074796540
 436              		.cfi_endproc
 437              	.LFE12:
 438              		.size	CyDmaGetInterruptSourceMasked, .-CyDmaGetInterruptSourceMasked
 439              		.section	.text.CyDmaSetInterruptCallback,"ax",%progbits
 440              		.align	2
 441              		.global	CyDmaSetInterruptCallback
 442              		.code	16
 443              		.thumb_func
 444              		.type	CyDmaSetInterruptCallback, %function
 445              	CyDmaSetInterruptCallback:
 446              	.LFB13:
 331:Generated_Source\PSoC4/CyDMA.c **** 
 332:Generated_Source\PSoC4/CyDMA.c **** 
 333:Generated_Source\PSoC4/CyDMA.c **** /*******************************************************************************
 334:Generated_Source\PSoC4/CyDMA.c **** * Function Name: CyDmaSetInterruptCallback
 335:Generated_Source\PSoC4/CyDMA.c **** ********************************************************************************
 336:Generated_Source\PSoC4/CyDMA.c **** *
 337:Generated_Source\PSoC4/CyDMA.c **** * Summary:
 338:Generated_Source\PSoC4/CyDMA.c **** *  Sets a user defined callback function to be called by the DMA interrupt. The
 339:Generated_Source\PSoC4/CyDMA.c **** *  function should contain code to process the interrupt request for the 
 340:Generated_Source\PSoC4/CyDMA.c **** *  associated DMA channel.
 341:Generated_Source\PSoC4/CyDMA.c **** *
 342:Generated_Source\PSoC4/CyDMA.c **** * Parameters:
 343:Generated_Source\PSoC4/CyDMA.c **** *  channel:  Channel used by this function.
 344:Generated_Source\PSoC4/CyDMA.c **** *  callback: Pointer to the user defined callback function.
 345:Generated_Source\PSoC4/CyDMA.c **** *
 346:Generated_Source\PSoC4/CyDMA.c **** * Return:
 347:Generated_Source\PSoC4/CyDMA.c **** *  Pointer to the function previously set for the specified channel. 
 348:Generated_Source\PSoC4/CyDMA.c **** *
 349:Generated_Source\PSoC4/CyDMA.c **** *******************************************************************************/
 350:Generated_Source\PSoC4/CyDMA.c **** cydma_callback_t CyDmaSetInterruptCallback(int32 channel, cydma_callback_t callback)
 351:Generated_Source\PSoC4/CyDMA.c **** {
 447              		.loc 1 351 0
ARM GAS  C:\Users\fneves\AppData\Local\Temp\ccoNsDRu.s 			page 15


 448              		.cfi_startproc
 449 0000 80B5     		push	{r7, lr}
 450              		.cfi_def_cfa_offset 8
 451              		.cfi_offset 7, -8
 452              		.cfi_offset 14, -4
 453 0002 84B0     		sub	sp, sp, #16
 454              		.cfi_def_cfa_offset 24
 455 0004 00AF     		add	r7, sp, #0
 456              		.cfi_def_cfa_register 7
 457 0006 7860     		str	r0, [r7, #4]
 458 0008 3960     		str	r1, [r7]
 352:Generated_Source\PSoC4/CyDMA.c ****     cydma_callback_t prevCallback;
 353:Generated_Source\PSoC4/CyDMA.c **** 
 354:Generated_Source\PSoC4/CyDMA.c ****     CYASSERT((channel >= 0) && (channel < CYDMA_CH_NR));
 459              		.loc 1 354 0
 460 000a 7B68     		ldr	r3, [r7, #4]
 461 000c 002B     		cmp	r3, #0
 462 000e 04DB     		blt	.L44
 463              		.loc 1 354 0 is_stmt 0 discriminator 1
 464 0010 7B68     		ldr	r3, [r7, #4]
 465 0012 072B     		cmp	r3, #7
 466 0014 01DC     		bgt	.L44
 467              		.loc 1 354 0 discriminator 3
 468 0016 0123     		mov	r3, #1
 469 0018 00E0     		b	.L45
 470              	.L44:
 471              		.loc 1 354 0 discriminator 4
 472 001a 0023     		mov	r3, #0
 473              	.L45:
 474              		.loc 1 354 0 discriminator 6
 475 001c 002B     		cmp	r3, #0
 476 001e 02D1     		bne	.L46
 477              		.loc 1 354 0 discriminator 7
 478 0020 0020     		mov	r0, #0
 479 0022 FFF7FEFF 		bl	CyHalt
 480              	.L46:
 355:Generated_Source\PSoC4/CyDMA.c **** 
 356:Generated_Source\PSoC4/CyDMA.c ****     prevCallback = CyDmaInterruptCallback[channel];
 481              		.loc 1 356 0 is_stmt 1
 482 0026 074B     		ldr	r3, .L48
 483 0028 7A68     		ldr	r2, [r7, #4]
 484 002a 9200     		lsl	r2, r2, #2
 485 002c D358     		ldr	r3, [r2, r3]
 486 002e FB60     		str	r3, [r7, #12]
 357:Generated_Source\PSoC4/CyDMA.c ****     CyDmaInterruptCallback[channel] = callback;
 487              		.loc 1 357 0
 488 0030 044B     		ldr	r3, .L48
 489 0032 7A68     		ldr	r2, [r7, #4]
 490 0034 9200     		lsl	r2, r2, #2
 491 0036 3968     		ldr	r1, [r7]
 492 0038 D150     		str	r1, [r2, r3]
 358:Generated_Source\PSoC4/CyDMA.c ****     return (prevCallback);
 493              		.loc 1 358 0
 494 003a FB68     		ldr	r3, [r7, #12]
 359:Generated_Source\PSoC4/CyDMA.c **** }
 495              		.loc 1 359 0
 496 003c 181C     		mov	r0, r3
ARM GAS  C:\Users\fneves\AppData\Local\Temp\ccoNsDRu.s 			page 16


 497 003e BD46     		mov	sp, r7
 498 0040 04B0     		add	sp, sp, #16
 499              		@ sp needed
 500 0042 80BD     		pop	{r7, pc}
 501              	.L49:
 502              		.align	2
 503              	.L48:
 504 0044 00000000 		.word	CyDmaInterruptCallback
 505              		.cfi_endproc
 506              	.LFE13:
 507              		.size	CyDmaSetInterruptCallback, .-CyDmaSetInterruptCallback
 508              		.section	.text.CyDmaGetInterruptCallback,"ax",%progbits
 509              		.align	2
 510              		.global	CyDmaGetInterruptCallback
 511              		.code	16
 512              		.thumb_func
 513              		.type	CyDmaGetInterruptCallback, %function
 514              	CyDmaGetInterruptCallback:
 515              	.LFB14:
 360:Generated_Source\PSoC4/CyDMA.c **** 
 361:Generated_Source\PSoC4/CyDMA.c **** 
 362:Generated_Source\PSoC4/CyDMA.c **** /*******************************************************************************
 363:Generated_Source\PSoC4/CyDMA.c **** * Function Name: CyDmaGetInterruptCallback
 364:Generated_Source\PSoC4/CyDMA.c **** ********************************************************************************
 365:Generated_Source\PSoC4/CyDMA.c **** *
 366:Generated_Source\PSoC4/CyDMA.c **** * Summary:
 367:Generated_Source\PSoC4/CyDMA.c **** *  Returns the pointer to the interrupt callback function for the specified DMA
 368:Generated_Source\PSoC4/CyDMA.c **** *  channel.
 369:Generated_Source\PSoC4/CyDMA.c **** *
 370:Generated_Source\PSoC4/CyDMA.c **** * Parameters:
 371:Generated_Source\PSoC4/CyDMA.c **** *  channel: Channel used by this function.
 372:Generated_Source\PSoC4/CyDMA.c **** *
 373:Generated_Source\PSoC4/CyDMA.c **** * Return:
 374:Generated_Source\PSoC4/CyDMA.c **** *  Callback function pointer for the specified channel.
 375:Generated_Source\PSoC4/CyDMA.c **** *
 376:Generated_Source\PSoC4/CyDMA.c **** *******************************************************************************/
 377:Generated_Source\PSoC4/CyDMA.c **** cydma_callback_t CyDmaGetInterruptCallback(int32 channel)
 378:Generated_Source\PSoC4/CyDMA.c **** {
 516              		.loc 1 378 0
 517              		.cfi_startproc
 518 0000 80B5     		push	{r7, lr}
 519              		.cfi_def_cfa_offset 8
 520              		.cfi_offset 7, -8
 521              		.cfi_offset 14, -4
 522 0002 82B0     		sub	sp, sp, #8
 523              		.cfi_def_cfa_offset 16
 524 0004 00AF     		add	r7, sp, #0
 525              		.cfi_def_cfa_register 7
 526 0006 7860     		str	r0, [r7, #4]
 379:Generated_Source\PSoC4/CyDMA.c ****     CYASSERT((channel >= 0) && (channel < CYDMA_CH_NR));
 527              		.loc 1 379 0
 528 0008 7B68     		ldr	r3, [r7, #4]
 529 000a 002B     		cmp	r3, #0
 530 000c 04DB     		blt	.L51
 531              		.loc 1 379 0 is_stmt 0 discriminator 1
 532 000e 7B68     		ldr	r3, [r7, #4]
 533 0010 072B     		cmp	r3, #7
ARM GAS  C:\Users\fneves\AppData\Local\Temp\ccoNsDRu.s 			page 17


 534 0012 01DC     		bgt	.L51
 535              		.loc 1 379 0 discriminator 3
 536 0014 0123     		mov	r3, #1
 537 0016 00E0     		b	.L52
 538              	.L51:
 539              		.loc 1 379 0 discriminator 4
 540 0018 0023     		mov	r3, #0
 541              	.L52:
 542              		.loc 1 379 0 discriminator 6
 543 001a 002B     		cmp	r3, #0
 544 001c 02D1     		bne	.L53
 545              		.loc 1 379 0 discriminator 7
 546 001e 0020     		mov	r0, #0
 547 0020 FFF7FEFF 		bl	CyHalt
 548              	.L53:
 380:Generated_Source\PSoC4/CyDMA.c ****     
 381:Generated_Source\PSoC4/CyDMA.c ****     return (CyDmaInterruptCallback[channel]);
 549              		.loc 1 381 0 is_stmt 1
 550 0024 034B     		ldr	r3, .L55
 551 0026 7A68     		ldr	r2, [r7, #4]
 552 0028 9200     		lsl	r2, r2, #2
 553 002a D358     		ldr	r3, [r2, r3]
 382:Generated_Source\PSoC4/CyDMA.c **** }
 554              		.loc 1 382 0
 555 002c 181C     		mov	r0, r3
 556 002e BD46     		mov	sp, r7
 557 0030 02B0     		add	sp, sp, #8
 558              		@ sp needed
 559 0032 80BD     		pop	{r7, pc}
 560              	.L56:
 561              		.align	2
 562              	.L55:
 563 0034 00000000 		.word	CyDmaInterruptCallback
 564              		.cfi_endproc
 565              	.LFE14:
 566              		.size	CyDmaGetInterruptCallback, .-CyDmaGetInterruptCallback
 567              		.section	.text.CyDmaInterrupt,"ax",%progbits
 568              		.align	2
 569              		.global	CyDmaInterrupt
 570              		.code	16
 571              		.thumb_func
 572              		.type	CyDmaInterrupt, %function
 573              	CyDmaInterrupt:
 574              	.LFB15:
 383:Generated_Source\PSoC4/CyDMA.c **** 
 384:Generated_Source\PSoC4/CyDMA.c **** 
 385:Generated_Source\PSoC4/CyDMA.c **** /*******************************************************************************
 386:Generated_Source\PSoC4/CyDMA.c **** * Function Name: CyDmaInterrupt
 387:Generated_Source\PSoC4/CyDMA.c **** ********************************************************************************
 388:Generated_Source\PSoC4/CyDMA.c **** *
 389:Generated_Source\PSoC4/CyDMA.c **** * Summary:
 390:Generated_Source\PSoC4/CyDMA.c **** *  The default ISR for DMA interrupts. The handler checks which DMA channel has
 391:Generated_Source\PSoC4/CyDMA.c **** *  triggered the interrupt and calls the user defined callback function.
 392:Generated_Source\PSoC4/CyDMA.c **** *  The callback function is set using CyDmaSetInteruptCallback() API.
 393:Generated_Source\PSoC4/CyDMA.c **** *
 394:Generated_Source\PSoC4/CyDMA.c **** * Parameters:
 395:Generated_Source\PSoC4/CyDMA.c **** *  None.
ARM GAS  C:\Users\fneves\AppData\Local\Temp\ccoNsDRu.s 			page 18


 396:Generated_Source\PSoC4/CyDMA.c **** *
 397:Generated_Source\PSoC4/CyDMA.c **** * Return:
 398:Generated_Source\PSoC4/CyDMA.c **** *  None.
 399:Generated_Source\PSoC4/CyDMA.c **** *
 400:Generated_Source\PSoC4/CyDMA.c **** * Side Effects:
 401:Generated_Source\PSoC4/CyDMA.c **** *  This function clears the pending interrupts.
 402:Generated_Source\PSoC4/CyDMA.c **** *
 403:Generated_Source\PSoC4/CyDMA.c **** *******************************************************************************/
 404:Generated_Source\PSoC4/CyDMA.c **** CY_ISR(CyDmaInterrupt)
 405:Generated_Source\PSoC4/CyDMA.c **** {
 575              		.loc 1 405 0
 576              		.cfi_startproc
 577 0000 80B5     		push	{r7, lr}
 578              		.cfi_def_cfa_offset 8
 579              		.cfi_offset 7, -8
 580              		.cfi_offset 14, -4
 581 0002 82B0     		sub	sp, sp, #8
 582              		.cfi_def_cfa_offset 16
 583 0004 00AF     		add	r7, sp, #0
 584              		.cfi_def_cfa_register 7
 406:Generated_Source\PSoC4/CyDMA.c ****     uint32 intr;
 407:Generated_Source\PSoC4/CyDMA.c ****     uint32 cbIdx = 0u;
 585              		.loc 1 407 0
 586 0006 0023     		mov	r3, #0
 587 0008 3B60     		str	r3, [r7]
 408:Generated_Source\PSoC4/CyDMA.c **** 
 409:Generated_Source\PSoC4/CyDMA.c ****     /* Get interrupt source. */
 410:Generated_Source\PSoC4/CyDMA.c ****     intr = CYDMA_INTR_MASKED_REG;
 588              		.loc 1 410 0
 589 000a 0E4B     		ldr	r3, .L61
 590 000c 1B68     		ldr	r3, [r3]
 591 000e 7B60     		str	r3, [r7, #4]
 411:Generated_Source\PSoC4/CyDMA.c **** 
 412:Generated_Source\PSoC4/CyDMA.c ****     /* Clear pending interrupts. */
 413:Generated_Source\PSoC4/CyDMA.c ****     CYDMA_INTR_REG = intr;
 592              		.loc 1 413 0
 593 0010 0D4B     		ldr	r3, .L61+4
 594 0012 7A68     		ldr	r2, [r7, #4]
 595 0014 1A60     		str	r2, [r3]
 414:Generated_Source\PSoC4/CyDMA.c **** 
 415:Generated_Source\PSoC4/CyDMA.c ****     /* Call user defined callback functions for triggered interrupt sources. */
 416:Generated_Source\PSoC4/CyDMA.c ****     while(0u != intr)
 596              		.loc 1 416 0
 597 0016 0EE0     		b	.L58
 598              	.L60:
 417:Generated_Source\PSoC4/CyDMA.c ****     {
 418:Generated_Source\PSoC4/CyDMA.c ****         if(0u != (intr & 0x1u))
 599              		.loc 1 418 0
 600 0018 7B68     		ldr	r3, [r7, #4]
 601 001a 0122     		mov	r2, #1
 602 001c 1340     		and	r3, r2
 603 001e 04D0     		beq	.L59
 419:Generated_Source\PSoC4/CyDMA.c ****         {
 420:Generated_Source\PSoC4/CyDMA.c ****             CyDmaInterruptCallback[cbIdx]();
 604              		.loc 1 420 0
 605 0020 0A4B     		ldr	r3, .L61+8
 606 0022 3A68     		ldr	r2, [r7]
ARM GAS  C:\Users\fneves\AppData\Local\Temp\ccoNsDRu.s 			page 19


 607 0024 9200     		lsl	r2, r2, #2
 608 0026 D358     		ldr	r3, [r2, r3]
 609 0028 9847     		blx	r3
 610              	.L59:
 421:Generated_Source\PSoC4/CyDMA.c ****         }
 422:Generated_Source\PSoC4/CyDMA.c ****         intr >>= 1;
 611              		.loc 1 422 0
 612 002a 7B68     		ldr	r3, [r7, #4]
 613 002c 5B08     		lsr	r3, r3, #1
 614 002e 7B60     		str	r3, [r7, #4]
 423:Generated_Source\PSoC4/CyDMA.c ****         ++cbIdx;
 615              		.loc 1 423 0
 616 0030 3B68     		ldr	r3, [r7]
 617 0032 0133     		add	r3, r3, #1
 618 0034 3B60     		str	r3, [r7]
 619              	.L58:
 416:Generated_Source\PSoC4/CyDMA.c ****     {
 620              		.loc 1 416 0
 621 0036 7B68     		ldr	r3, [r7, #4]
 622 0038 002B     		cmp	r3, #0
 623 003a EDD1     		bne	.L60
 424:Generated_Source\PSoC4/CyDMA.c ****     }
 425:Generated_Source\PSoC4/CyDMA.c **** }
 624              		.loc 1 425 0
 625 003c BD46     		mov	sp, r7
 626 003e 02B0     		add	sp, sp, #8
 627              		@ sp needed
 628 0040 80BD     		pop	{r7, pc}
 629              	.L62:
 630 0042 C046     		.align	2
 631              	.L61:
 632 0044 FC171040 		.word	1074796540
 633 0048 F0171040 		.word	1074796528
 634 004c 00000000 		.word	CyDmaInterruptCallback
 635              		.cfi_endproc
 636              	.LFE15:
 637              		.size	CyDmaInterrupt, .-CyDmaInterrupt
 638              		.section	.text.CyDmaDefaultInterruptCallback,"ax",%progbits
 639              		.align	2
 640              		.code	16
 641              		.thumb_func
 642              		.type	CyDmaDefaultInterruptCallback, %function
 643              	CyDmaDefaultInterruptCallback:
 644              	.LFB16:
 426:Generated_Source\PSoC4/CyDMA.c **** 
 427:Generated_Source\PSoC4/CyDMA.c **** 
 428:Generated_Source\PSoC4/CyDMA.c **** /*******************************************************************************
 429:Generated_Source\PSoC4/CyDMA.c **** * Function Name: CyDmaDefaultInterruptCallback
 430:Generated_Source\PSoC4/CyDMA.c **** ********************************************************************************
 431:Generated_Source\PSoC4/CyDMA.c **** *
 432:Generated_Source\PSoC4/CyDMA.c **** * Summary:
 433:Generated_Source\PSoC4/CyDMA.c **** *  This function is invoked when the user defined callback function is undefined
 434:Generated_Source\PSoC4/CyDMA.c **** *  for the interrupt source.
 435:Generated_Source\PSoC4/CyDMA.c **** *
 436:Generated_Source\PSoC4/CyDMA.c **** * Parameters:
 437:Generated_Source\PSoC4/CyDMA.c **** *  None.
 438:Generated_Source\PSoC4/CyDMA.c **** *
ARM GAS  C:\Users\fneves\AppData\Local\Temp\ccoNsDRu.s 			page 20


 439:Generated_Source\PSoC4/CyDMA.c **** * Return:
 440:Generated_Source\PSoC4/CyDMA.c **** *  None.
 441:Generated_Source\PSoC4/CyDMA.c **** *
 442:Generated_Source\PSoC4/CyDMA.c **** *******************************************************************************/
 443:Generated_Source\PSoC4/CyDMA.c **** static void CyDmaDefaultInterruptCallback(void)
 444:Generated_Source\PSoC4/CyDMA.c **** {
 645              		.loc 1 444 0
 646              		.cfi_startproc
 647 0000 80B5     		push	{r7, lr}
 648              		.cfi_def_cfa_offset 8
 649              		.cfi_offset 7, -8
 650              		.cfi_offset 14, -4
 651 0002 00AF     		add	r7, sp, #0
 652              		.cfi_def_cfa_register 7
 445:Generated_Source\PSoC4/CyDMA.c ****     /* Halt CPU in debug mode. We get here because there is no user defined
 446:Generated_Source\PSoC4/CyDMA.c ****     * callback function for the interrupt source. You should either set a
 447:Generated_Source\PSoC4/CyDMA.c ****     * callback function or disable generating an interrupt from this
 448:Generated_Source\PSoC4/CyDMA.c ****     * interrupt source.
 449:Generated_Source\PSoC4/CyDMA.c ****     * To set a callback, use the CyDmaSetInterruptCallback() API function.
 450:Generated_Source\PSoC4/CyDMA.c ****     * To disable interrupt generation, write '0' to the corresponding bit
 451:Generated_Source\PSoC4/CyDMA.c ****     * in the interrupt mask by calling CyDmaSetInterruptSourceMask().
 452:Generated_Source\PSoC4/CyDMA.c ****     */
 453:Generated_Source\PSoC4/CyDMA.c ****     CYASSERT(0 != 0);
 653              		.loc 1 453 0
 654 0004 0020     		mov	r0, #0
 655 0006 FFF7FEFF 		bl	CyHalt
 454:Generated_Source\PSoC4/CyDMA.c **** }
 656              		.loc 1 454 0
 657 000a BD46     		mov	sp, r7
 658              		@ sp needed
 659 000c 80BD     		pop	{r7, pc}
 660              		.cfi_endproc
 661              	.LFE16:
 662              		.size	CyDmaDefaultInterruptCallback, .-CyDmaDefaultInterruptCallback
 663              		.section	.text.CyDmaChAlloc,"ax",%progbits
 664              		.align	2
 665              		.global	CyDmaChAlloc
 666              		.code	16
 667              		.thumb_func
 668              		.type	CyDmaChAlloc, %function
 669              	CyDmaChAlloc:
 670              	.LFB17:
 455:Generated_Source\PSoC4/CyDMA.c **** 
 456:Generated_Source\PSoC4/CyDMA.c **** 
 457:Generated_Source\PSoC4/CyDMA.c **** /*******************************************************************************
 458:Generated_Source\PSoC4/CyDMA.c **** * Function Name: CyDmaChAlloc
 459:Generated_Source\PSoC4/CyDMA.c **** ********************************************************************************
 460:Generated_Source\PSoC4/CyDMA.c **** *
 461:Generated_Source\PSoC4/CyDMA.c **** * Summary:
 462:Generated_Source\PSoC4/CyDMA.c **** *  Allocates a channel number to use with later DMA functions.
 463:Generated_Source\PSoC4/CyDMA.c **** *
 464:Generated_Source\PSoC4/CyDMA.c **** * Parameters:
 465:Generated_Source\PSoC4/CyDMA.c **** *  None.
 466:Generated_Source\PSoC4/CyDMA.c **** *                   
 467:Generated_Source\PSoC4/CyDMA.c **** * Return:
 468:Generated_Source\PSoC4/CyDMA.c **** *  The allocated channel number. Zero is a valid channel number.
 469:Generated_Source\PSoC4/CyDMA.c **** *  CYDMA_INVALID_CHANNEL is returned if there are no channels available.
ARM GAS  C:\Users\fneves\AppData\Local\Temp\ccoNsDRu.s 			page 21


 470:Generated_Source\PSoC4/CyDMA.c **** *
 471:Generated_Source\PSoC4/CyDMA.c **** *******************************************************************************/
 472:Generated_Source\PSoC4/CyDMA.c **** int32 CyDmaChAlloc(void)
 473:Generated_Source\PSoC4/CyDMA.c **** {
 671              		.loc 1 473 0
 672              		.cfi_startproc
 673 0000 80B5     		push	{r7, lr}
 674              		.cfi_def_cfa_offset 8
 675              		.cfi_offset 7, -8
 676              		.cfi_offset 14, -4
 677 0002 82B0     		sub	sp, sp, #8
 678              		.cfi_def_cfa_offset 16
 679 0004 00AF     		add	r7, sp, #0
 680              		.cfi_def_cfa_register 7
 474:Generated_Source\PSoC4/CyDMA.c ****     int32  channel = CYDMA_CH_NR-1;
 681              		.loc 1 474 0
 682 0006 0723     		mov	r3, #7
 683 0008 7B60     		str	r3, [r7, #4]
 475:Generated_Source\PSoC4/CyDMA.c ****     uint32 channelMask = (uint32)(1UL << (CYDMA_CH_NR-1));
 684              		.loc 1 475 0
 685 000a 8023     		mov	r3, #128
 686 000c 3B60     		str	r3, [r7]
 476:Generated_Source\PSoC4/CyDMA.c ****     
 477:Generated_Source\PSoC4/CyDMA.c ****     while (channel >= 0)
 687              		.loc 1 477 0
 688 000e 11E0     		b	.L65
 689              	.L68:
 478:Generated_Source\PSoC4/CyDMA.c ****     {
 479:Generated_Source\PSoC4/CyDMA.c ****         if(0u == (CyDmaChannelUsedMask & channelMask))
 690              		.loc 1 479 0
 691 0010 0C4B     		ldr	r3, .L70
 692 0012 1B68     		ldr	r3, [r3]
 693 0014 3A68     		ldr	r2, [r7]
 694 0016 1340     		and	r3, r2
 695 0018 06D1     		bne	.L66
 480:Generated_Source\PSoC4/CyDMA.c ****         {
 481:Generated_Source\PSoC4/CyDMA.c ****             /* Mark channel as used and exit loop. */ 
 482:Generated_Source\PSoC4/CyDMA.c ****             CyDmaChannelUsedMask |= channelMask;
 696              		.loc 1 482 0
 697 001a 0A4B     		ldr	r3, .L70
 698 001c 1A68     		ldr	r2, [r3]
 699 001e 3B68     		ldr	r3, [r7]
 700 0020 1A43     		orr	r2, r3
 701 0022 084B     		ldr	r3, .L70
 702 0024 1A60     		str	r2, [r3]
 483:Generated_Source\PSoC4/CyDMA.c ****             break;
 703              		.loc 1 483 0
 704 0026 08E0     		b	.L67
 705              	.L66:
 484:Generated_Source\PSoC4/CyDMA.c ****         }
 485:Generated_Source\PSoC4/CyDMA.c ****         channelMask >>= 1;
 706              		.loc 1 485 0
 707 0028 3B68     		ldr	r3, [r7]
 708 002a 5B08     		lsr	r3, r3, #1
 709 002c 3B60     		str	r3, [r7]
 486:Generated_Source\PSoC4/CyDMA.c ****         --channel;
 710              		.loc 1 486 0
ARM GAS  C:\Users\fneves\AppData\Local\Temp\ccoNsDRu.s 			page 22


 711 002e 7B68     		ldr	r3, [r7, #4]
 712 0030 013B     		sub	r3, r3, #1
 713 0032 7B60     		str	r3, [r7, #4]
 714              	.L65:
 477:Generated_Source\PSoC4/CyDMA.c ****     {
 715              		.loc 1 477 0
 716 0034 7B68     		ldr	r3, [r7, #4]
 717 0036 002B     		cmp	r3, #0
 718 0038 EADA     		bge	.L68
 719              	.L67:
 487:Generated_Source\PSoC4/CyDMA.c ****     }
 488:Generated_Source\PSoC4/CyDMA.c ****     return (channel);
 720              		.loc 1 488 0
 721 003a 7B68     		ldr	r3, [r7, #4]
 489:Generated_Source\PSoC4/CyDMA.c **** }
 722              		.loc 1 489 0
 723 003c 181C     		mov	r0, r3
 724 003e BD46     		mov	sp, r7
 725 0040 02B0     		add	sp, sp, #8
 726              		@ sp needed
 727 0042 80BD     		pop	{r7, pc}
 728              	.L71:
 729              		.align	2
 730              	.L70:
 731 0044 20000000 		.word	CyDmaChannelUsedMask
 732              		.cfi_endproc
 733              	.LFE17:
 734              		.size	CyDmaChAlloc, .-CyDmaChAlloc
 735              		.section	.text.CyDmaChFree,"ax",%progbits
 736              		.align	2
 737              		.global	CyDmaChFree
 738              		.code	16
 739              		.thumb_func
 740              		.type	CyDmaChFree, %function
 741              	CyDmaChFree:
 742              	.LFB18:
 490:Generated_Source\PSoC4/CyDMA.c **** 
 491:Generated_Source\PSoC4/CyDMA.c **** 
 492:Generated_Source\PSoC4/CyDMA.c **** /*******************************************************************************
 493:Generated_Source\PSoC4/CyDMA.c **** * Function Name: CyDmaChFree
 494:Generated_Source\PSoC4/CyDMA.c **** ********************************************************************************
 495:Generated_Source\PSoC4/CyDMA.c **** *
 496:Generated_Source\PSoC4/CyDMA.c **** * Summary:
 497:Generated_Source\PSoC4/CyDMA.c **** *  Frees a channel handle allocated by CyDmaChAlloc(). Channels allocated for
 498:Generated_Source\PSoC4/CyDMA.c **** *  DMA instances placed on a schematic cannot be freed.
 499:Generated_Source\PSoC4/CyDMA.c **** *
 500:Generated_Source\PSoC4/CyDMA.c **** * Parameters:
 501:Generated_Source\PSoC4/CyDMA.c **** *  channel: The handle previously returned by CyDmaChAlloc().
 502:Generated_Source\PSoC4/CyDMA.c **** *                   
 503:Generated_Source\PSoC4/CyDMA.c **** * Return:
 504:Generated_Source\PSoC4/CyDMA.c **** *  CYRET_SUCCESS if successful.
 505:Generated_Source\PSoC4/CyDMA.c **** *  CYRET_BAD_PARAM if channel is invalid.
 506:Generated_Source\PSoC4/CyDMA.c **** *
 507:Generated_Source\PSoC4/CyDMA.c **** *******************************************************************************/
 508:Generated_Source\PSoC4/CyDMA.c **** cystatus CyDmaChFree(int32 channel)
 509:Generated_Source\PSoC4/CyDMA.c **** {
 743              		.loc 1 509 0
ARM GAS  C:\Users\fneves\AppData\Local\Temp\ccoNsDRu.s 			page 23


 744              		.cfi_startproc
 745 0000 80B5     		push	{r7, lr}
 746              		.cfi_def_cfa_offset 8
 747              		.cfi_offset 7, -8
 748              		.cfi_offset 14, -4
 749 0002 84B0     		sub	sp, sp, #16
 750              		.cfi_def_cfa_offset 24
 751 0004 00AF     		add	r7, sp, #0
 752              		.cfi_def_cfa_register 7
 753 0006 7860     		str	r0, [r7, #4]
 510:Generated_Source\PSoC4/CyDMA.c ****     uint32   channelMask;
 511:Generated_Source\PSoC4/CyDMA.c ****     cystatus result = CYRET_BAD_PARAM;
 754              		.loc 1 511 0
 755 0008 0123     		mov	r3, #1
 756 000a FB60     		str	r3, [r7, #12]
 512:Generated_Source\PSoC4/CyDMA.c **** 
 513:Generated_Source\PSoC4/CyDMA.c ****     CYASSERT((channel >= 0) && (channel < CYDMA_CH_NR));
 757              		.loc 1 513 0
 758 000c 7B68     		ldr	r3, [r7, #4]
 759 000e 002B     		cmp	r3, #0
 760 0010 04DB     		blt	.L73
 761              		.loc 1 513 0 is_stmt 0 discriminator 1
 762 0012 7B68     		ldr	r3, [r7, #4]
 763 0014 072B     		cmp	r3, #7
 764 0016 01DC     		bgt	.L73
 765              		.loc 1 513 0 discriminator 3
 766 0018 0123     		mov	r3, #1
 767 001a 00E0     		b	.L74
 768              	.L73:
 769              		.loc 1 513 0 discriminator 4
 770 001c 0023     		mov	r3, #0
 771              	.L74:
 772              		.loc 1 513 0 discriminator 6
 773 001e 002B     		cmp	r3, #0
 774 0020 02D1     		bne	.L75
 775              		.loc 1 513 0 discriminator 7
 776 0022 0020     		mov	r0, #0
 777 0024 FFF7FEFF 		bl	CyHalt
 778              	.L75:
 514:Generated_Source\PSoC4/CyDMA.c ****     
 515:Generated_Source\PSoC4/CyDMA.c ****     channelMask = (uint32)(1UL << channel);
 779              		.loc 1 515 0 is_stmt 1
 780 0028 0122     		mov	r2, #1
 781 002a 7B68     		ldr	r3, [r7, #4]
 782 002c 9A40     		lsl	r2, r2, r3
 783 002e 131C     		mov	r3, r2
 784 0030 BB60     		str	r3, [r7, #8]
 516:Generated_Source\PSoC4/CyDMA.c **** 
 517:Generated_Source\PSoC4/CyDMA.c ****     /* Check against attempt to free channel allocated for DMA instance
 518:Generated_Source\PSoC4/CyDMA.c ****     * placed on schematic.
 519:Generated_Source\PSoC4/CyDMA.c ****     */
 520:Generated_Source\PSoC4/CyDMA.c ****     if(0u == (channelMask & DMA_CHANNELS_USED__MASK))
 785              		.loc 1 520 0
 786 0032 BB68     		ldr	r3, [r7, #8]
 787 0034 0122     		mov	r2, #1
 788 0036 1340     		and	r3, r2
 789 0038 08D1     		bne	.L76
ARM GAS  C:\Users\fneves\AppData\Local\Temp\ccoNsDRu.s 			page 24


 521:Generated_Source\PSoC4/CyDMA.c ****     {
 522:Generated_Source\PSoC4/CyDMA.c ****         CyDmaChannelUsedMask &= (uint32)~channelMask;
 790              		.loc 1 522 0
 791 003a BB68     		ldr	r3, [r7, #8]
 792 003c DA43     		mvn	r2, r3
 793 003e 064B     		ldr	r3, .L78
 794 0040 1B68     		ldr	r3, [r3]
 795 0042 1A40     		and	r2, r3
 796 0044 044B     		ldr	r3, .L78
 797 0046 1A60     		str	r2, [r3]
 523:Generated_Source\PSoC4/CyDMA.c ****         result = CYRET_SUCCESS;
 798              		.loc 1 523 0
 799 0048 0023     		mov	r3, #0
 800 004a FB60     		str	r3, [r7, #12]
 801              	.L76:
 524:Generated_Source\PSoC4/CyDMA.c ****     }
 525:Generated_Source\PSoC4/CyDMA.c ****     
 526:Generated_Source\PSoC4/CyDMA.c ****     return (result);
 802              		.loc 1 526 0
 803 004c FB68     		ldr	r3, [r7, #12]
 527:Generated_Source\PSoC4/CyDMA.c **** }
 804              		.loc 1 527 0
 805 004e 181C     		mov	r0, r3
 806 0050 BD46     		mov	sp, r7
 807 0052 04B0     		add	sp, sp, #16
 808              		@ sp needed
 809 0054 80BD     		pop	{r7, pc}
 810              	.L79:
 811 0056 C046     		.align	2
 812              	.L78:
 813 0058 20000000 		.word	CyDmaChannelUsedMask
 814              		.cfi_endproc
 815              	.LFE18:
 816              		.size	CyDmaChFree, .-CyDmaChFree
 817              		.section	.text.CyDmaChEnable,"ax",%progbits
 818              		.align	2
 819              		.global	CyDmaChEnable
 820              		.code	16
 821              		.thumb_func
 822              		.type	CyDmaChEnable, %function
 823              	CyDmaChEnable:
 824              	.LFB19:
 528:Generated_Source\PSoC4/CyDMA.c **** 
 529:Generated_Source\PSoC4/CyDMA.c **** 
 530:Generated_Source\PSoC4/CyDMA.c **** /*******************************************************************************
 531:Generated_Source\PSoC4/CyDMA.c **** * Function Name: CyDmaChEnable
 532:Generated_Source\PSoC4/CyDMA.c **** ********************************************************************************
 533:Generated_Source\PSoC4/CyDMA.c **** *
 534:Generated_Source\PSoC4/CyDMA.c **** * Summary:
 535:Generated_Source\PSoC4/CyDMA.c **** *  Enables the DMA channel.
 536:Generated_Source\PSoC4/CyDMA.c **** *
 537:Generated_Source\PSoC4/CyDMA.c **** * Parameters:
 538:Generated_Source\PSoC4/CyDMA.c **** *  channel: Channel used by this function.
 539:Generated_Source\PSoC4/CyDMA.c **** *                   
 540:Generated_Source\PSoC4/CyDMA.c **** * Return:
 541:Generated_Source\PSoC4/CyDMA.c **** *  None.
 542:Generated_Source\PSoC4/CyDMA.c **** *
ARM GAS  C:\Users\fneves\AppData\Local\Temp\ccoNsDRu.s 			page 25


 543:Generated_Source\PSoC4/CyDMA.c **** * Side effect:
 544:Generated_Source\PSoC4/CyDMA.c **** *  If this function is called before CyDmaSetConfiguration(), and
 545:Generated_Source\PSoC4/CyDMA.c **** *  CyDmaSetSrcAddress() and CyDmaSetDstAddress(), the operation of
 546:Generated_Source\PSoC4/CyDMA.c **** *  the DMA is undefined and could result in system data corruption. 
 547:Generated_Source\PSoC4/CyDMA.c **** *
 548:Generated_Source\PSoC4/CyDMA.c **** *******************************************************************************/
 549:Generated_Source\PSoC4/CyDMA.c **** void CyDmaChEnable(int32 channel)
 550:Generated_Source\PSoC4/CyDMA.c **** {
 825              		.loc 1 550 0
 826              		.cfi_startproc
 827 0000 80B5     		push	{r7, lr}
 828              		.cfi_def_cfa_offset 8
 829              		.cfi_offset 7, -8
 830              		.cfi_offset 14, -4
 831 0002 82B0     		sub	sp, sp, #8
 832              		.cfi_def_cfa_offset 16
 833 0004 00AF     		add	r7, sp, #0
 834              		.cfi_def_cfa_register 7
 835 0006 7860     		str	r0, [r7, #4]
 551:Generated_Source\PSoC4/CyDMA.c ****     CYASSERT((channel >= 0) && (channel < CYDMA_CH_NR));
 836              		.loc 1 551 0
 837 0008 7B68     		ldr	r3, [r7, #4]
 838 000a 002B     		cmp	r3, #0
 839 000c 04DB     		blt	.L81
 840              		.loc 1 551 0 is_stmt 0 discriminator 1
 841 000e 7B68     		ldr	r3, [r7, #4]
 842 0010 072B     		cmp	r3, #7
 843 0012 01DC     		bgt	.L81
 844              		.loc 1 551 0 discriminator 3
 845 0014 0123     		mov	r3, #1
 846 0016 00E0     		b	.L82
 847              	.L81:
 848              		.loc 1 551 0 discriminator 4
 849 0018 0023     		mov	r3, #0
 850              	.L82:
 851              		.loc 1 551 0 discriminator 6
 852 001a 002B     		cmp	r3, #0
 853 001c 02D1     		bne	.L83
 854              		.loc 1 551 0 discriminator 7
 855 001e 0020     		mov	r0, #0
 856 0020 FFF7FEFF 		bl	CyHalt
 857              	.L83:
 552:Generated_Source\PSoC4/CyDMA.c **** 
 553:Generated_Source\PSoC4/CyDMA.c ****     CYDMA_CH_CTL_BASE.ctl[channel] |= CYDMA_ENABLED;
 858              		.loc 1 553 0 is_stmt 1
 859 0024 0649     		ldr	r1, .L84
 860 0026 064A     		ldr	r2, .L84
 861 0028 7B68     		ldr	r3, [r7, #4]
 862 002a 9B00     		lsl	r3, r3, #2
 863 002c 9B58     		ldr	r3, [r3, r2]
 864 002e 8022     		mov	r2, #128
 865 0030 1206     		lsl	r2, r2, #24
 866 0032 1A43     		orr	r2, r3
 867 0034 7B68     		ldr	r3, [r7, #4]
 868 0036 9B00     		lsl	r3, r3, #2
 869 0038 5A50     		str	r2, [r3, r1]
 554:Generated_Source\PSoC4/CyDMA.c **** }
ARM GAS  C:\Users\fneves\AppData\Local\Temp\ccoNsDRu.s 			page 26


 870              		.loc 1 554 0
 871 003a BD46     		mov	sp, r7
 872 003c 02B0     		add	sp, sp, #8
 873              		@ sp needed
 874 003e 80BD     		pop	{r7, pc}
 875              	.L85:
 876              		.align	2
 877              	.L84:
 878 0040 80101040 		.word	1074794624
 879              		.cfi_endproc
 880              	.LFE19:
 881              		.size	CyDmaChEnable, .-CyDmaChEnable
 882              		.section	.text.CyDmaChDisable,"ax",%progbits
 883              		.align	2
 884              		.global	CyDmaChDisable
 885              		.code	16
 886              		.thumb_func
 887              		.type	CyDmaChDisable, %function
 888              	CyDmaChDisable:
 889              	.LFB20:
 555:Generated_Source\PSoC4/CyDMA.c **** 
 556:Generated_Source\PSoC4/CyDMA.c **** 
 557:Generated_Source\PSoC4/CyDMA.c **** /*******************************************************************************
 558:Generated_Source\PSoC4/CyDMA.c **** * Function Name: CyDmaChDisable
 559:Generated_Source\PSoC4/CyDMA.c **** ********************************************************************************
 560:Generated_Source\PSoC4/CyDMA.c **** *
 561:Generated_Source\PSoC4/CyDMA.c **** * Summary:
 562:Generated_Source\PSoC4/CyDMA.c **** *  Disables the DMA channel.
 563:Generated_Source\PSoC4/CyDMA.c **** *
 564:Generated_Source\PSoC4/CyDMA.c **** * Parameters:
 565:Generated_Source\PSoC4/CyDMA.c **** *  channel: Channel used by this function.
 566:Generated_Source\PSoC4/CyDMA.c **** *                   
 567:Generated_Source\PSoC4/CyDMA.c **** * Return:
 568:Generated_Source\PSoC4/CyDMA.c **** *  None.
 569:Generated_Source\PSoC4/CyDMA.c **** *
 570:Generated_Source\PSoC4/CyDMA.c **** * Side effect:
 571:Generated_Source\PSoC4/CyDMA.c **** *  If this function is called during a DMA transfer the transfer is aborted. 
 572:Generated_Source\PSoC4/CyDMA.c **** *
 573:Generated_Source\PSoC4/CyDMA.c **** *******************************************************************************/
 574:Generated_Source\PSoC4/CyDMA.c **** void CyDmaChDisable(int32 channel)
 575:Generated_Source\PSoC4/CyDMA.c **** {
 890              		.loc 1 575 0
 891              		.cfi_startproc
 892 0000 80B5     		push	{r7, lr}
 893              		.cfi_def_cfa_offset 8
 894              		.cfi_offset 7, -8
 895              		.cfi_offset 14, -4
 896 0002 82B0     		sub	sp, sp, #8
 897              		.cfi_def_cfa_offset 16
 898 0004 00AF     		add	r7, sp, #0
 899              		.cfi_def_cfa_register 7
 900 0006 7860     		str	r0, [r7, #4]
 576:Generated_Source\PSoC4/CyDMA.c ****     CYASSERT((channel >= 0) && (channel < CYDMA_CH_NR));
 901              		.loc 1 576 0
 902 0008 7B68     		ldr	r3, [r7, #4]
 903 000a 002B     		cmp	r3, #0
 904 000c 04DB     		blt	.L87
ARM GAS  C:\Users\fneves\AppData\Local\Temp\ccoNsDRu.s 			page 27


 905              		.loc 1 576 0 is_stmt 0 discriminator 1
 906 000e 7B68     		ldr	r3, [r7, #4]
 907 0010 072B     		cmp	r3, #7
 908 0012 01DC     		bgt	.L87
 909              		.loc 1 576 0 discriminator 3
 910 0014 0123     		mov	r3, #1
 911 0016 00E0     		b	.L88
 912              	.L87:
 913              		.loc 1 576 0 discriminator 4
 914 0018 0023     		mov	r3, #0
 915              	.L88:
 916              		.loc 1 576 0 discriminator 6
 917 001a 002B     		cmp	r3, #0
 918 001c 02D1     		bne	.L89
 919              		.loc 1 576 0 discriminator 7
 920 001e 0020     		mov	r0, #0
 921 0020 FFF7FEFF 		bl	CyHalt
 922              	.L89:
 577:Generated_Source\PSoC4/CyDMA.c **** 
 578:Generated_Source\PSoC4/CyDMA.c ****     CYDMA_CH_CTL_BASE.ctl[channel] &= (uint32)~CYDMA_ENABLED;
 923              		.loc 1 578 0 is_stmt 1
 924 0024 0649     		ldr	r1, .L90
 925 0026 064A     		ldr	r2, .L90
 926 0028 7B68     		ldr	r3, [r7, #4]
 927 002a 9B00     		lsl	r3, r3, #2
 928 002c 9B58     		ldr	r3, [r3, r2]
 929 002e 5B00     		lsl	r3, r3, #1
 930 0030 5A08     		lsr	r2, r3, #1
 931 0032 7B68     		ldr	r3, [r7, #4]
 932 0034 9B00     		lsl	r3, r3, #2
 933 0036 5A50     		str	r2, [r3, r1]
 579:Generated_Source\PSoC4/CyDMA.c **** }
 934              		.loc 1 579 0
 935 0038 BD46     		mov	sp, r7
 936 003a 02B0     		add	sp, sp, #8
 937              		@ sp needed
 938 003c 80BD     		pop	{r7, pc}
 939              	.L91:
 940 003e C046     		.align	2
 941              	.L90:
 942 0040 80101040 		.word	1074794624
 943              		.cfi_endproc
 944              	.LFE20:
 945              		.size	CyDmaChDisable, .-CyDmaChDisable
 946              		.section	.text.CyDmaTrigger,"ax",%progbits
 947              		.align	2
 948              		.global	CyDmaTrigger
 949              		.code	16
 950              		.thumb_func
 951              		.type	CyDmaTrigger, %function
 952              	CyDmaTrigger:
 953              	.LFB21:
 580:Generated_Source\PSoC4/CyDMA.c **** 
 581:Generated_Source\PSoC4/CyDMA.c **** 
 582:Generated_Source\PSoC4/CyDMA.c **** /*******************************************************************************
 583:Generated_Source\PSoC4/CyDMA.c **** * Function Name: CyDmaTrigger
 584:Generated_Source\PSoC4/CyDMA.c **** ********************************************************************************
ARM GAS  C:\Users\fneves\AppData\Local\Temp\ccoNsDRu.s 			page 28


 585:Generated_Source\PSoC4/CyDMA.c **** *
 586:Generated_Source\PSoC4/CyDMA.c **** * Summary:
 587:Generated_Source\PSoC4/CyDMA.c **** *  Triggers the DMA channel, this is useful only for software triggers. This is
 588:Generated_Source\PSoC4/CyDMA.c **** *  not needed when hardware triggers are used.
 589:Generated_Source\PSoC4/CyDMA.c **** *
 590:Generated_Source\PSoC4/CyDMA.c **** * Parameters:
 591:Generated_Source\PSoC4/CyDMA.c **** *  channel: Channel used by this function.
 592:Generated_Source\PSoC4/CyDMA.c **** *                   
 593:Generated_Source\PSoC4/CyDMA.c **** * Return:
 594:Generated_Source\PSoC4/CyDMA.c **** *  None. 
 595:Generated_Source\PSoC4/CyDMA.c **** *
 596:Generated_Source\PSoC4/CyDMA.c **** *******************************************************************************/
 597:Generated_Source\PSoC4/CyDMA.c **** void CyDmaTrigger(int32 channel)
 598:Generated_Source\PSoC4/CyDMA.c **** {
 954              		.loc 1 598 0
 955              		.cfi_startproc
 956 0000 80B5     		push	{r7, lr}
 957              		.cfi_def_cfa_offset 8
 958              		.cfi_offset 7, -8
 959              		.cfi_offset 14, -4
 960 0002 82B0     		sub	sp, sp, #8
 961              		.cfi_def_cfa_offset 16
 962 0004 00AF     		add	r7, sp, #0
 963              		.cfi_def_cfa_register 7
 964 0006 7860     		str	r0, [r7, #4]
 599:Generated_Source\PSoC4/CyDMA.c ****     /* The LUT is device-dependent, thus it is generated during the build process. */
 600:Generated_Source\PSoC4/CyDMA.c ****     static const uint32 trCtlLut[] = {0xC0020000U};
 601:Generated_Source\PSoC4/CyDMA.c **** 
 602:Generated_Source\PSoC4/CyDMA.c ****     CYASSERT((channel >= 0) && (channel < CYDMA_CH_NR));
 965              		.loc 1 602 0
 966 0008 7B68     		ldr	r3, [r7, #4]
 967 000a 002B     		cmp	r3, #0
 968 000c 04DB     		blt	.L93
 969              		.loc 1 602 0 is_stmt 0 discriminator 1
 970 000e 7B68     		ldr	r3, [r7, #4]
 971 0010 072B     		cmp	r3, #7
 972 0012 01DC     		bgt	.L93
 973              		.loc 1 602 0 discriminator 3
 974 0014 0123     		mov	r3, #1
 975 0016 00E0     		b	.L94
 976              	.L93:
 977              		.loc 1 602 0 discriminator 4
 978 0018 0023     		mov	r3, #0
 979              	.L94:
 980              		.loc 1 602 0 discriminator 6
 981 001a 002B     		cmp	r3, #0
 982 001c 02D1     		bne	.L95
 983              		.loc 1 602 0 discriminator 7
 984 001e 0020     		mov	r0, #0
 985 0020 FFF7FEFF 		bl	CyHalt
 986              	.L95:
 603:Generated_Source\PSoC4/CyDMA.c **** 
 604:Generated_Source\PSoC4/CyDMA.c ****     CYDMA_TR_CTL_REG = trCtlLut[(uint32)channel >> CYDMA_TR_GROUP_SHR] | ((uint32)channel & CYDMA_T
 987              		.loc 1 604 0 is_stmt 1
 988 0024 044B     		ldr	r3, .L96
 989 0026 0549     		ldr	r1, .L96+4
 990 0028 7A68     		ldr	r2, [r7, #4]
ARM GAS  C:\Users\fneves\AppData\Local\Temp\ccoNsDRu.s 			page 29


 991 002a 0720     		mov	r0, #7
 992 002c 0240     		and	r2, r0
 993 002e 0A43     		orr	r2, r1
 994 0030 1A60     		str	r2, [r3]
 605:Generated_Source\PSoC4/CyDMA.c **** }
 995              		.loc 1 605 0
 996 0032 BD46     		mov	sp, r7
 997 0034 02B0     		add	sp, sp, #8
 998              		@ sp needed
 999 0036 80BD     		pop	{r7, pc}
 1000              	.L97:
 1001              		.align	2
 1002              	.L96:
 1003 0038 00060040 		.word	1073743360
 1004 003c 000002C0 		.word	-1073610752
 1005              		.cfi_endproc
 1006              	.LFE21:
 1007              		.size	CyDmaTrigger, .-CyDmaTrigger
 1008              		.section	.text.CyDmaSetPriority,"ax",%progbits
 1009              		.align	2
 1010              		.global	CyDmaSetPriority
 1011              		.code	16
 1012              		.thumb_func
 1013              		.type	CyDmaSetPriority, %function
 1014              	CyDmaSetPriority:
 1015              	.LFB22:
 606:Generated_Source\PSoC4/CyDMA.c **** 
 607:Generated_Source\PSoC4/CyDMA.c **** 
 608:Generated_Source\PSoC4/CyDMA.c **** /*******************************************************************************
 609:Generated_Source\PSoC4/CyDMA.c **** * Function Name: CyDmaSetPriority
 610:Generated_Source\PSoC4/CyDMA.c **** ********************************************************************************
 611:Generated_Source\PSoC4/CyDMA.c **** *
 612:Generated_Source\PSoC4/CyDMA.c **** * Summary:
 613:Generated_Source\PSoC4/CyDMA.c **** *  Sets the priority for the channel.
 614:Generated_Source\PSoC4/CyDMA.c **** *
 615:Generated_Source\PSoC4/CyDMA.c **** * Parameters:
 616:Generated_Source\PSoC4/CyDMA.c **** *  channel:  Channel used by this function
 617:Generated_Source\PSoC4/CyDMA.c **** *  priority: Priority for channel. Priority can be 0,1,2, or 3.
 618:Generated_Source\PSoC4/CyDMA.c **** *            0 is the highest priority.
 619:Generated_Source\PSoC4/CyDMA.c **** *                   
 620:Generated_Source\PSoC4/CyDMA.c **** * Return:
 621:Generated_Source\PSoC4/CyDMA.c **** *  None.
 622:Generated_Source\PSoC4/CyDMA.c **** *
 623:Generated_Source\PSoC4/CyDMA.c **** * Side effect:
 624:Generated_Source\PSoC4/CyDMA.c **** *  This function should not be called while the channel is enabled.
 625:Generated_Source\PSoC4/CyDMA.c **** *
 626:Generated_Source\PSoC4/CyDMA.c **** *******************************************************************************/
 627:Generated_Source\PSoC4/CyDMA.c **** void CyDmaSetPriority(int32 channel, int32 priority)
 628:Generated_Source\PSoC4/CyDMA.c **** {
 1016              		.loc 1 628 0
 1017              		.cfi_startproc
 1018 0000 80B5     		push	{r7, lr}
 1019              		.cfi_def_cfa_offset 8
 1020              		.cfi_offset 7, -8
 1021              		.cfi_offset 14, -4
 1022 0002 84B0     		sub	sp, sp, #16
 1023              		.cfi_def_cfa_offset 24
ARM GAS  C:\Users\fneves\AppData\Local\Temp\ccoNsDRu.s 			page 30


 1024 0004 00AF     		add	r7, sp, #0
 1025              		.cfi_def_cfa_register 7
 1026 0006 7860     		str	r0, [r7, #4]
 1027 0008 3960     		str	r1, [r7]
 629:Generated_Source\PSoC4/CyDMA.c ****     uint32 regValue;
 630:Generated_Source\PSoC4/CyDMA.c **** 
 631:Generated_Source\PSoC4/CyDMA.c ****     CYASSERT((channel  >= 0) && (channel  <  CYDMA_CH_NR));
 1028              		.loc 1 631 0
 1029 000a 7B68     		ldr	r3, [r7, #4]
 1030 000c 002B     		cmp	r3, #0
 1031 000e 04DB     		blt	.L99
 1032              		.loc 1 631 0 is_stmt 0 discriminator 1
 1033 0010 7B68     		ldr	r3, [r7, #4]
 1034 0012 072B     		cmp	r3, #7
 1035 0014 01DC     		bgt	.L99
 1036              		.loc 1 631 0 discriminator 3
 1037 0016 0123     		mov	r3, #1
 1038 0018 00E0     		b	.L100
 1039              	.L99:
 1040              		.loc 1 631 0 discriminator 4
 1041 001a 0023     		mov	r3, #0
 1042              	.L100:
 1043              		.loc 1 631 0 discriminator 6
 1044 001c 002B     		cmp	r3, #0
 1045 001e 02D1     		bne	.L101
 1046              		.loc 1 631 0 discriminator 7
 1047 0020 0020     		mov	r0, #0
 1048 0022 FFF7FEFF 		bl	CyHalt
 1049              	.L101:
 632:Generated_Source\PSoC4/CyDMA.c ****     CYASSERT((priority >= 0) && (priority <= CY_DMA_MAX_PRIO));
 1050              		.loc 1 632 0 is_stmt 1
 1051 0026 3B68     		ldr	r3, [r7]
 1052 0028 002B     		cmp	r3, #0
 1053 002a 04DB     		blt	.L102
 1054              		.loc 1 632 0 is_stmt 0 discriminator 1
 1055 002c 3B68     		ldr	r3, [r7]
 1056 002e 032B     		cmp	r3, #3
 1057 0030 01DC     		bgt	.L102
 1058              		.loc 1 632 0 discriminator 3
 1059 0032 0123     		mov	r3, #1
 1060 0034 00E0     		b	.L103
 1061              	.L102:
 1062              		.loc 1 632 0 discriminator 4
 1063 0036 0023     		mov	r3, #0
 1064              	.L103:
 1065              		.loc 1 632 0 discriminator 6
 1066 0038 002B     		cmp	r3, #0
 1067 003a 02D1     		bne	.L104
 1068              		.loc 1 632 0 discriminator 7
 1069 003c 0020     		mov	r0, #0
 1070 003e FFF7FEFF 		bl	CyHalt
 1071              	.L104:
 633:Generated_Source\PSoC4/CyDMA.c **** 
 634:Generated_Source\PSoC4/CyDMA.c ****     regValue = CYDMA_CH_CTL_BASE.ctl[channel] & (uint32)~CYDMA_PRIO;
 1072              		.loc 1 634 0 is_stmt 1
 1073 0042 094A     		ldr	r2, .L105
 1074 0044 7B68     		ldr	r3, [r7, #4]
ARM GAS  C:\Users\fneves\AppData\Local\Temp\ccoNsDRu.s 			page 31


 1075 0046 9B00     		lsl	r3, r3, #2
 1076 0048 9B58     		ldr	r3, [r3, r2]
 1077 004a 084A     		ldr	r2, .L105+4
 1078 004c 1340     		and	r3, r2
 1079 004e FB60     		str	r3, [r7, #12]
 635:Generated_Source\PSoC4/CyDMA.c ****     CYDMA_CH_CTL_BASE.ctl[channel] = regValue | (uint32)((uint32)priority << CYDMA_PRIO_POS);
 1080              		.loc 1 635 0
 1081 0050 0549     		ldr	r1, .L105
 1082 0052 3B68     		ldr	r3, [r7]
 1083 0054 1A07     		lsl	r2, r3, #28
 1084 0056 FB68     		ldr	r3, [r7, #12]
 1085 0058 1A43     		orr	r2, r3
 1086 005a 7B68     		ldr	r3, [r7, #4]
 1087 005c 9B00     		lsl	r3, r3, #2
 1088 005e 5A50     		str	r2, [r3, r1]
 636:Generated_Source\PSoC4/CyDMA.c **** }
 1089              		.loc 1 636 0
 1090 0060 BD46     		mov	sp, r7
 1091 0062 04B0     		add	sp, sp, #16
 1092              		@ sp needed
 1093 0064 80BD     		pop	{r7, pc}
 1094              	.L106:
 1095 0066 C046     		.align	2
 1096              	.L105:
 1097 0068 80101040 		.word	1074794624
 1098 006c FFFFFFCF 		.word	-805306369
 1099              		.cfi_endproc
 1100              	.LFE22:
 1101              		.size	CyDmaSetPriority, .-CyDmaSetPriority
 1102              		.section	.text.CyDmaGetPriority,"ax",%progbits
 1103              		.align	2
 1104              		.global	CyDmaGetPriority
 1105              		.code	16
 1106              		.thumb_func
 1107              		.type	CyDmaGetPriority, %function
 1108              	CyDmaGetPriority:
 1109              	.LFB23:
 637:Generated_Source\PSoC4/CyDMA.c **** 
 638:Generated_Source\PSoC4/CyDMA.c **** 
 639:Generated_Source\PSoC4/CyDMA.c **** /*******************************************************************************
 640:Generated_Source\PSoC4/CyDMA.c **** * Function Name: CyDmaGetPriority
 641:Generated_Source\PSoC4/CyDMA.c **** ********************************************************************************
 642:Generated_Source\PSoC4/CyDMA.c **** *
 643:Generated_Source\PSoC4/CyDMA.c **** * Summary:
 644:Generated_Source\PSoC4/CyDMA.c **** *  Gets the priority for the channel.
 645:Generated_Source\PSoC4/CyDMA.c **** *
 646:Generated_Source\PSoC4/CyDMA.c **** * Parameters:
 647:Generated_Source\PSoC4/CyDMA.c **** *  channel: Channel used by this function.
 648:Generated_Source\PSoC4/CyDMA.c **** *                   
 649:Generated_Source\PSoC4/CyDMA.c **** * Return:
 650:Generated_Source\PSoC4/CyDMA.c **** *  Priority for channel. Priority can be 0,1,2, or 3. 0 is the highest priority.
 651:Generated_Source\PSoC4/CyDMA.c **** *
 652:Generated_Source\PSoC4/CyDMA.c **** *******************************************************************************/
 653:Generated_Source\PSoC4/CyDMA.c **** int32 CyDmaGetPriority(int32 channel)
 654:Generated_Source\PSoC4/CyDMA.c **** {
 1110              		.loc 1 654 0
 1111              		.cfi_startproc
ARM GAS  C:\Users\fneves\AppData\Local\Temp\ccoNsDRu.s 			page 32


 1112 0000 80B5     		push	{r7, lr}
 1113              		.cfi_def_cfa_offset 8
 1114              		.cfi_offset 7, -8
 1115              		.cfi_offset 14, -4
 1116 0002 84B0     		sub	sp, sp, #16
 1117              		.cfi_def_cfa_offset 24
 1118 0004 00AF     		add	r7, sp, #0
 1119              		.cfi_def_cfa_register 7
 1120 0006 7860     		str	r0, [r7, #4]
 655:Generated_Source\PSoC4/CyDMA.c ****     uint32 priority;
 656:Generated_Source\PSoC4/CyDMA.c **** 
 657:Generated_Source\PSoC4/CyDMA.c ****     CYASSERT((channel >= 0) && (channel < CYDMA_CH_NR));
 1121              		.loc 1 657 0
 1122 0008 7B68     		ldr	r3, [r7, #4]
 1123 000a 002B     		cmp	r3, #0
 1124 000c 04DB     		blt	.L108
 1125              		.loc 1 657 0 is_stmt 0 discriminator 1
 1126 000e 7B68     		ldr	r3, [r7, #4]
 1127 0010 072B     		cmp	r3, #7
 1128 0012 01DC     		bgt	.L108
 1129              		.loc 1 657 0 discriminator 3
 1130 0014 0123     		mov	r3, #1
 1131 0016 00E0     		b	.L109
 1132              	.L108:
 1133              		.loc 1 657 0 discriminator 4
 1134 0018 0023     		mov	r3, #0
 1135              	.L109:
 1136              		.loc 1 657 0 discriminator 6
 1137 001a 002B     		cmp	r3, #0
 1138 001c 02D1     		bne	.L110
 1139              		.loc 1 657 0 discriminator 7
 1140 001e 0020     		mov	r0, #0
 1141 0020 FFF7FEFF 		bl	CyHalt
 1142              	.L110:
 658:Generated_Source\PSoC4/CyDMA.c **** 
 659:Generated_Source\PSoC4/CyDMA.c ****     priority = (CYDMA_CH_CTL_BASE.ctl[channel] & CYDMA_PRIO) >> CYDMA_PRIO_POS;
 1143              		.loc 1 659 0 is_stmt 1
 1144 0024 064A     		ldr	r2, .L112
 1145 0026 7B68     		ldr	r3, [r7, #4]
 1146 0028 9B00     		lsl	r3, r3, #2
 1147 002a 9A58     		ldr	r2, [r3, r2]
 1148 002c C023     		mov	r3, #192
 1149 002e 9B05     		lsl	r3, r3, #22
 1150 0030 1340     		and	r3, r2
 1151 0032 1B0F     		lsr	r3, r3, #28
 1152 0034 FB60     		str	r3, [r7, #12]
 660:Generated_Source\PSoC4/CyDMA.c ****     return ((int32)priority);
 1153              		.loc 1 660 0
 1154 0036 FB68     		ldr	r3, [r7, #12]
 661:Generated_Source\PSoC4/CyDMA.c **** }
 1155              		.loc 1 661 0
 1156 0038 181C     		mov	r0, r3
 1157 003a BD46     		mov	sp, r7
 1158 003c 04B0     		add	sp, sp, #16
 1159              		@ sp needed
 1160 003e 80BD     		pop	{r7, pc}
 1161              	.L113:
ARM GAS  C:\Users\fneves\AppData\Local\Temp\ccoNsDRu.s 			page 33


 1162              		.align	2
 1163              	.L112:
 1164 0040 80101040 		.word	1074794624
 1165              		.cfi_endproc
 1166              	.LFE23:
 1167              		.size	CyDmaGetPriority, .-CyDmaGetPriority
 1168              		.section	.text.CyDmaSetNextDescriptor,"ax",%progbits
 1169              		.align	2
 1170              		.global	CyDmaSetNextDescriptor
 1171              		.code	16
 1172              		.thumb_func
 1173              		.type	CyDmaSetNextDescriptor, %function
 1174              	CyDmaSetNextDescriptor:
 1175              	.LFB24:
 662:Generated_Source\PSoC4/CyDMA.c **** 
 663:Generated_Source\PSoC4/CyDMA.c **** 
 664:Generated_Source\PSoC4/CyDMA.c **** /*******************************************************************************
 665:Generated_Source\PSoC4/CyDMA.c **** * Function Name: CyDmaSetNextDescriptor
 666:Generated_Source\PSoC4/CyDMA.c **** ********************************************************************************
 667:Generated_Source\PSoC4/CyDMA.c **** *
 668:Generated_Source\PSoC4/CyDMA.c **** * Summary:
 669:Generated_Source\PSoC4/CyDMA.c **** *  Sets the descriptor that should be run the next time the channel is
 670:Generated_Source\PSoC4/CyDMA.c **** *  triggered.
 671:Generated_Source\PSoC4/CyDMA.c **** *
 672:Generated_Source\PSoC4/CyDMA.c **** * Parameters:
 673:Generated_Source\PSoC4/CyDMA.c **** *  channel:    Channel used by this function.
 674:Generated_Source\PSoC4/CyDMA.c **** *  descriptor: Next Descriptor to run (0 or 1).
 675:Generated_Source\PSoC4/CyDMA.c **** *
 676:Generated_Source\PSoC4/CyDMA.c **** * Return:
 677:Generated_Source\PSoC4/CyDMA.c **** *  None.
 678:Generated_Source\PSoC4/CyDMA.c **** *                   
 679:Generated_Source\PSoC4/CyDMA.c **** * Side effect:
 680:Generated_Source\PSoC4/CyDMA.c **** *  This function should not be called while the channel is enabled.
 681:Generated_Source\PSoC4/CyDMA.c **** *
 682:Generated_Source\PSoC4/CyDMA.c **** *******************************************************************************/
 683:Generated_Source\PSoC4/CyDMA.c **** void CyDmaSetNextDescriptor(int32 channel, int32 descriptor)
 684:Generated_Source\PSoC4/CyDMA.c **** {
 1176              		.loc 1 684 0
 1177              		.cfi_startproc
 1178 0000 80B5     		push	{r7, lr}
 1179              		.cfi_def_cfa_offset 8
 1180              		.cfi_offset 7, -8
 1181              		.cfi_offset 14, -4
 1182 0002 84B0     		sub	sp, sp, #16
 1183              		.cfi_def_cfa_offset 24
 1184 0004 00AF     		add	r7, sp, #0
 1185              		.cfi_def_cfa_register 7
 1186 0006 7860     		str	r0, [r7, #4]
 1187 0008 3960     		str	r1, [r7]
 685:Generated_Source\PSoC4/CyDMA.c ****     uint32 regValue;
 686:Generated_Source\PSoC4/CyDMA.c **** 
 687:Generated_Source\PSoC4/CyDMA.c ****     CYASSERT((channel    >= 0) && (channel    < CYDMA_CH_NR));
 1188              		.loc 1 687 0
 1189 000a 7B68     		ldr	r3, [r7, #4]
 1190 000c 002B     		cmp	r3, #0
 1191 000e 04DB     		blt	.L115
 1192              		.loc 1 687 0 is_stmt 0 discriminator 1
ARM GAS  C:\Users\fneves\AppData\Local\Temp\ccoNsDRu.s 			page 34


 1193 0010 7B68     		ldr	r3, [r7, #4]
 1194 0012 072B     		cmp	r3, #7
 1195 0014 01DC     		bgt	.L115
 1196              		.loc 1 687 0 discriminator 3
 1197 0016 0123     		mov	r3, #1
 1198 0018 00E0     		b	.L116
 1199              	.L115:
 1200              		.loc 1 687 0 discriminator 4
 1201 001a 0023     		mov	r3, #0
 1202              	.L116:
 1203              		.loc 1 687 0 discriminator 6
 1204 001c 002B     		cmp	r3, #0
 1205 001e 02D1     		bne	.L117
 1206              		.loc 1 687 0 discriminator 7
 1207 0020 0020     		mov	r0, #0
 1208 0022 FFF7FEFF 		bl	CyHalt
 1209              	.L117:
 688:Generated_Source\PSoC4/CyDMA.c ****     CYASSERT((descriptor >= 0) && (descriptor < CYDMA_DESCR_NR));
 1210              		.loc 1 688 0 is_stmt 1
 1211 0026 3B68     		ldr	r3, [r7]
 1212 0028 002B     		cmp	r3, #0
 1213 002a 04DB     		blt	.L118
 1214              		.loc 1 688 0 is_stmt 0 discriminator 1
 1215 002c 3B68     		ldr	r3, [r7]
 1216 002e 012B     		cmp	r3, #1
 1217 0030 01DC     		bgt	.L118
 1218              		.loc 1 688 0 discriminator 3
 1219 0032 0123     		mov	r3, #1
 1220 0034 00E0     		b	.L119
 1221              	.L118:
 1222              		.loc 1 688 0 discriminator 4
 1223 0036 0023     		mov	r3, #0
 1224              	.L119:
 1225              		.loc 1 688 0 discriminator 6
 1226 0038 002B     		cmp	r3, #0
 1227 003a 02D1     		bne	.L120
 1228              		.loc 1 688 0 discriminator 7
 1229 003c 0020     		mov	r0, #0
 1230 003e FFF7FEFF 		bl	CyHalt
 1231              	.L120:
 689:Generated_Source\PSoC4/CyDMA.c **** 
 690:Generated_Source\PSoC4/CyDMA.c ****     regValue = CYDMA_CH_CTL_BASE.ctl[channel] & (uint32)~CYDMA_DESCRIPTOR;
 1232              		.loc 1 690 0 is_stmt 1
 1233 0042 094A     		ldr	r2, .L121
 1234 0044 7B68     		ldr	r3, [r7, #4]
 1235 0046 9B00     		lsl	r3, r3, #2
 1236 0048 9B58     		ldr	r3, [r3, r2]
 1237 004a 084A     		ldr	r2, .L121+4
 1238 004c 1340     		and	r3, r2
 1239 004e FB60     		str	r3, [r7, #12]
 691:Generated_Source\PSoC4/CyDMA.c ****     CYDMA_CH_CTL_BASE.ctl[channel] = regValue | (uint32)((uint32)descriptor << CYDMA_DESCRIPTOR_POS
 1240              		.loc 1 691 0
 1241 0050 0549     		ldr	r1, .L121
 1242 0052 3B68     		ldr	r3, [r7]
 1243 0054 9A07     		lsl	r2, r3, #30
 1244 0056 FB68     		ldr	r3, [r7, #12]
 1245 0058 1A43     		orr	r2, r3
ARM GAS  C:\Users\fneves\AppData\Local\Temp\ccoNsDRu.s 			page 35


 1246 005a 7B68     		ldr	r3, [r7, #4]
 1247 005c 9B00     		lsl	r3, r3, #2
 1248 005e 5A50     		str	r2, [r3, r1]
 692:Generated_Source\PSoC4/CyDMA.c **** }
 1249              		.loc 1 692 0
 1250 0060 BD46     		mov	sp, r7
 1251 0062 04B0     		add	sp, sp, #16
 1252              		@ sp needed
 1253 0064 80BD     		pop	{r7, pc}
 1254              	.L122:
 1255 0066 C046     		.align	2
 1256              	.L121:
 1257 0068 80101040 		.word	1074794624
 1258 006c FFFFFFBF 		.word	-1073741825
 1259              		.cfi_endproc
 1260              	.LFE24:
 1261              		.size	CyDmaSetNextDescriptor, .-CyDmaSetNextDescriptor
 1262              		.section	.text.CyDmaGetNextDescriptor,"ax",%progbits
 1263              		.align	2
 1264              		.global	CyDmaGetNextDescriptor
 1265              		.code	16
 1266              		.thumb_func
 1267              		.type	CyDmaGetNextDescriptor, %function
 1268              	CyDmaGetNextDescriptor:
 1269              	.LFB25:
 693:Generated_Source\PSoC4/CyDMA.c **** 
 694:Generated_Source\PSoC4/CyDMA.c **** 
 695:Generated_Source\PSoC4/CyDMA.c **** /*******************************************************************************
 696:Generated_Source\PSoC4/CyDMA.c **** * Function Name: CyDmaGetNextDescriptor
 697:Generated_Source\PSoC4/CyDMA.c **** ********************************************************************************
 698:Generated_Source\PSoC4/CyDMA.c **** *
 699:Generated_Source\PSoC4/CyDMA.c **** * Summary:
 700:Generated_Source\PSoC4/CyDMA.c **** *  Returns the next descriptor that should be run, as set by 
 701:Generated_Source\PSoC4/CyDMA.c **** *  CyDmaSetNextDescriptor().
 702:Generated_Source\PSoC4/CyDMA.c **** *
 703:Generated_Source\PSoC4/CyDMA.c **** * Parameters:
 704:Generated_Source\PSoC4/CyDMA.c **** *  channel: channel used by this function.
 705:Generated_Source\PSoC4/CyDMA.c **** *                   
 706:Generated_Source\PSoC4/CyDMA.c **** * Return:
 707:Generated_Source\PSoC4/CyDMA.c **** *  Next Descriptor to run (0 or 1).
 708:Generated_Source\PSoC4/CyDMA.c **** *
 709:Generated_Source\PSoC4/CyDMA.c **** *******************************************************************************/
 710:Generated_Source\PSoC4/CyDMA.c **** int32 CyDmaGetNextDescriptor(int32 channel)
 711:Generated_Source\PSoC4/CyDMA.c **** {
 1270              		.loc 1 711 0
 1271              		.cfi_startproc
 1272 0000 80B5     		push	{r7, lr}
 1273              		.cfi_def_cfa_offset 8
 1274              		.cfi_offset 7, -8
 1275              		.cfi_offset 14, -4
 1276 0002 84B0     		sub	sp, sp, #16
 1277              		.cfi_def_cfa_offset 24
 1278 0004 00AF     		add	r7, sp, #0
 1279              		.cfi_def_cfa_register 7
 1280 0006 7860     		str	r0, [r7, #4]
 712:Generated_Source\PSoC4/CyDMA.c ****     uint32 nextDescriptor;
 713:Generated_Source\PSoC4/CyDMA.c **** 
ARM GAS  C:\Users\fneves\AppData\Local\Temp\ccoNsDRu.s 			page 36


 714:Generated_Source\PSoC4/CyDMA.c ****     CYASSERT((channel >= 0) && (channel < CYDMA_CH_NR));
 1281              		.loc 1 714 0
 1282 0008 7B68     		ldr	r3, [r7, #4]
 1283 000a 002B     		cmp	r3, #0
 1284 000c 04DB     		blt	.L124
 1285              		.loc 1 714 0 is_stmt 0 discriminator 1
 1286 000e 7B68     		ldr	r3, [r7, #4]
 1287 0010 072B     		cmp	r3, #7
 1288 0012 01DC     		bgt	.L124
 1289              		.loc 1 714 0 discriminator 3
 1290 0014 0123     		mov	r3, #1
 1291 0016 00E0     		b	.L125
 1292              	.L124:
 1293              		.loc 1 714 0 discriminator 4
 1294 0018 0023     		mov	r3, #0
 1295              	.L125:
 1296              		.loc 1 714 0 discriminator 6
 1297 001a 002B     		cmp	r3, #0
 1298 001c 02D1     		bne	.L126
 1299              		.loc 1 714 0 discriminator 7
 1300 001e 0020     		mov	r0, #0
 1301 0020 FFF7FEFF 		bl	CyHalt
 1302              	.L126:
 715:Generated_Source\PSoC4/CyDMA.c **** 
 716:Generated_Source\PSoC4/CyDMA.c ****     nextDescriptor = (CYDMA_CH_CTL_BASE.ctl[channel] & CYDMA_DESCRIPTOR) >> CYDMA_DESCRIPTOR_POS;
 1303              		.loc 1 716 0 is_stmt 1
 1304 0024 064A     		ldr	r2, .L128
 1305 0026 7B68     		ldr	r3, [r7, #4]
 1306 0028 9B00     		lsl	r3, r3, #2
 1307 002a 9A58     		ldr	r2, [r3, r2]
 1308 002c 8023     		mov	r3, #128
 1309 002e DB05     		lsl	r3, r3, #23
 1310 0030 1340     		and	r3, r2
 1311 0032 9B0F     		lsr	r3, r3, #30
 1312 0034 FB60     		str	r3, [r7, #12]
 717:Generated_Source\PSoC4/CyDMA.c ****     return ((int32)nextDescriptor);
 1313              		.loc 1 717 0
 1314 0036 FB68     		ldr	r3, [r7, #12]
 718:Generated_Source\PSoC4/CyDMA.c **** }
 1315              		.loc 1 718 0
 1316 0038 181C     		mov	r0, r3
 1317 003a BD46     		mov	sp, r7
 1318 003c 04B0     		add	sp, sp, #16
 1319              		@ sp needed
 1320 003e 80BD     		pop	{r7, pc}
 1321              	.L129:
 1322              		.align	2
 1323              	.L128:
 1324 0040 80101040 		.word	1074794624
 1325              		.cfi_endproc
 1326              	.LFE25:
 1327              		.size	CyDmaGetNextDescriptor, .-CyDmaGetNextDescriptor
 1328              		.section	.text.CyDmaSetConfiguration,"ax",%progbits
 1329              		.align	2
 1330              		.global	CyDmaSetConfiguration
 1331              		.code	16
 1332              		.thumb_func
ARM GAS  C:\Users\fneves\AppData\Local\Temp\ccoNsDRu.s 			page 37


 1333              		.type	CyDmaSetConfiguration, %function
 1334              	CyDmaSetConfiguration:
 1335              	.LFB26:
 719:Generated_Source\PSoC4/CyDMA.c **** 
 720:Generated_Source\PSoC4/CyDMA.c **** 
 721:Generated_Source\PSoC4/CyDMA.c **** /*******************************************************************************
 722:Generated_Source\PSoC4/CyDMA.c **** * Function Name: CyDmaSetConfiguration
 723:Generated_Source\PSoC4/CyDMA.c **** ********************************************************************************
 724:Generated_Source\PSoC4/CyDMA.c **** *
 725:Generated_Source\PSoC4/CyDMA.c **** * Summary:
 726:Generated_Source\PSoC4/CyDMA.c **** *  Sets configuration information for the specified descriptor.
 727:Generated_Source\PSoC4/CyDMA.c **** *
 728:Generated_Source\PSoC4/CyDMA.c **** * Parameters:
 729:Generated_Source\PSoC4/CyDMA.c **** *  channel:    DMA channel modified by this function.
 730:Generated_Source\PSoC4/CyDMA.c **** *  descriptor: Descriptor (0 or 1) modified by this function.
 731:Generated_Source\PSoC4/CyDMA.c **** *  config:     Pointer to a configuration structure. Refer to cydma_init_struct
 732:Generated_Source\PSoC4/CyDMA.c **** *              structure definition in CyDMA_P4.h and/or DMA channel datasheet
 733:Generated_Source\PSoC4/CyDMA.c **** *              for more information.
 734:Generated_Source\PSoC4/CyDMA.c **** *                   
 735:Generated_Source\PSoC4/CyDMA.c **** * Return:
 736:Generated_Source\PSoC4/CyDMA.c **** *  None.
 737:Generated_Source\PSoC4/CyDMA.c **** *
 738:Generated_Source\PSoC4/CyDMA.c **** * Side effect:
 739:Generated_Source\PSoC4/CyDMA.c **** *  The status register associated with the specified descriptor is reset to
 740:Generated_Source\PSoC4/CyDMA.c **** *  zero after this function call. This function also validates the descriptor.
 741:Generated_Source\PSoC4/CyDMA.c **** *  This function should not be called while the descriptor is active.
 742:Generated_Source\PSoC4/CyDMA.c **** *  This can be checked by calling CyDmaGetStatus().
 743:Generated_Source\PSoC4/CyDMA.c **** *
 744:Generated_Source\PSoC4/CyDMA.c **** *******************************************************************************/
 745:Generated_Source\PSoC4/CyDMA.c **** void CyDmaSetConfiguration(int32 channel, int32 descriptor, const cydma_init_struct * config)
 746:Generated_Source\PSoC4/CyDMA.c **** {  
 1336              		.loc 1 746 0
 1337              		.cfi_startproc
 1338 0000 80B5     		push	{r7, lr}
 1339              		.cfi_def_cfa_offset 8
 1340              		.cfi_offset 7, -8
 1341              		.cfi_offset 14, -4
 1342 0002 84B0     		sub	sp, sp, #16
 1343              		.cfi_def_cfa_offset 24
 1344 0004 00AF     		add	r7, sp, #0
 1345              		.cfi_def_cfa_register 7
 1346 0006 F860     		str	r0, [r7, #12]
 1347 0008 B960     		str	r1, [r7, #8]
 1348 000a 7A60     		str	r2, [r7, #4]
 747:Generated_Source\PSoC4/CyDMA.c ****     CYASSERT((channel        >= 0) && (channel         < CYDMA_CH_NR));
 1349              		.loc 1 747 0
 1350 000c FB68     		ldr	r3, [r7, #12]
 1351 000e 002B     		cmp	r3, #0
 1352 0010 04DB     		blt	.L131
 1353              		.loc 1 747 0 is_stmt 0 discriminator 1
 1354 0012 FB68     		ldr	r3, [r7, #12]
 1355 0014 072B     		cmp	r3, #7
 1356 0016 01DC     		bgt	.L131
 1357              		.loc 1 747 0 discriminator 3
 1358 0018 0123     		mov	r3, #1
 1359 001a 00E0     		b	.L132
 1360              	.L131:
ARM GAS  C:\Users\fneves\AppData\Local\Temp\ccoNsDRu.s 			page 38


 1361              		.loc 1 747 0 discriminator 4
 1362 001c 0023     		mov	r3, #0
 1363              	.L132:
 1364              		.loc 1 747 0 discriminator 6
 1365 001e 002B     		cmp	r3, #0
 1366 0020 02D1     		bne	.L133
 1367              		.loc 1 747 0 discriminator 7
 1368 0022 0020     		mov	r0, #0
 1369 0024 FFF7FEFF 		bl	CyHalt
 1370              	.L133:
 748:Generated_Source\PSoC4/CyDMA.c ****     CYASSERT((descriptor     >= 0) && (descriptor      < CYDMA_DESCR_NR));
 1371              		.loc 1 748 0 is_stmt 1
 1372 0028 BB68     		ldr	r3, [r7, #8]
 1373 002a 002B     		cmp	r3, #0
 1374 002c 04DB     		blt	.L134
 1375              		.loc 1 748 0 is_stmt 0 discriminator 1
 1376 002e BB68     		ldr	r3, [r7, #8]
 1377 0030 012B     		cmp	r3, #1
 1378 0032 01DC     		bgt	.L134
 1379              		.loc 1 748 0 discriminator 3
 1380 0034 0123     		mov	r3, #1
 1381 0036 00E0     		b	.L135
 1382              	.L134:
 1383              		.loc 1 748 0 discriminator 4
 1384 0038 0023     		mov	r3, #0
 1385              	.L135:
 1386              		.loc 1 748 0 discriminator 6
 1387 003a 002B     		cmp	r3, #0
 1388 003c 02D1     		bne	.L136
 1389              		.loc 1 748 0 discriminator 7
 1390 003e 0020     		mov	r0, #0
 1391 0040 FFF7FEFF 		bl	CyHalt
 1392              	.L136:
 749:Generated_Source\PSoC4/CyDMA.c **** 
 750:Generated_Source\PSoC4/CyDMA.c ****     CYASSERT(0u == (config->dataElementSize     & (uint32)~CYDMA_DATA_SIZE));   
 1393              		.loc 1 750 0 is_stmt 1
 1394 0044 7B68     		ldr	r3, [r7, #4]
 1395 0046 1B68     		ldr	r3, [r3]
 1396 0048 3B4A     		ldr	r2, .L147
 1397 004a 1340     		and	r3, r2
 1398 004c 02D0     		beq	.L137
 1399              		.loc 1 750 0 is_stmt 0 discriminator 1
 1400 004e 0020     		mov	r0, #0
 1401 0050 FFF7FEFF 		bl	CyHalt
 1402              	.L137:
 751:Generated_Source\PSoC4/CyDMA.c ****     CYASSERT((config->numDataElements > 0)     && (config->numDataElements <= CYDMA_MAX_DATA_NR));
 1403              		.loc 1 751 0 is_stmt 1
 1404 0054 7B68     		ldr	r3, [r7, #4]
 1405 0056 5B68     		ldr	r3, [r3, #4]
 1406 0058 002B     		cmp	r3, #0
 1407 005a 07DD     		ble	.L138
 1408              		.loc 1 751 0 is_stmt 0 discriminator 1
 1409 005c 7B68     		ldr	r3, [r7, #4]
 1410 005e 5A68     		ldr	r2, [r3, #4]
 1411 0060 8023     		mov	r3, #128
 1412 0062 5B02     		lsl	r3, r3, #9
 1413 0064 9A42     		cmp	r2, r3
ARM GAS  C:\Users\fneves\AppData\Local\Temp\ccoNsDRu.s 			page 39


 1414 0066 01DC     		bgt	.L138
 1415              		.loc 1 751 0 discriminator 3
 1416 0068 0123     		mov	r3, #1
 1417 006a 00E0     		b	.L139
 1418              	.L138:
 1419              		.loc 1 751 0 discriminator 4
 1420 006c 0023     		mov	r3, #0
 1421              	.L139:
 1422              		.loc 1 751 0 discriminator 6
 1423 006e 002B     		cmp	r3, #0
 1424 0070 02D1     		bne	.L140
 1425              		.loc 1 751 0 discriminator 7
 1426 0072 0020     		mov	r0, #0
 1427 0074 FFF7FEFF 		bl	CyHalt
 1428              	.L140:
 752:Generated_Source\PSoC4/CyDMA.c ****     CYASSERT(0u == (config->srcDstTransferWidth & (uint32)~CYDMA_TRANSFER_WIDTH));
 1429              		.loc 1 752 0 is_stmt 1
 1430 0078 7B68     		ldr	r3, [r7, #4]
 1431 007a 9B68     		ldr	r3, [r3, #8]
 1432 007c 2F4A     		ldr	r2, .L147+4
 1433 007e 1340     		and	r3, r2
 1434 0080 02D0     		beq	.L141
 1435              		.loc 1 752 0 is_stmt 0 discriminator 1
 1436 0082 0020     		mov	r0, #0
 1437 0084 FFF7FEFF 		bl	CyHalt
 1438              	.L141:
 753:Generated_Source\PSoC4/CyDMA.c ****     CYASSERT(0u == (config->addressIncrement    & (uint32)~CYDMA_ADDR_INCR));
 1439              		.loc 1 753 0 is_stmt 1
 1440 0088 7B68     		ldr	r3, [r7, #4]
 1441 008a DB68     		ldr	r3, [r3, #12]
 1442 008c 2C4A     		ldr	r2, .L147+8
 1443 008e 1340     		and	r3, r2
 1444 0090 02D0     		beq	.L142
 1445              		.loc 1 753 0 is_stmt 0 discriminator 1
 1446 0092 0020     		mov	r0, #0
 1447 0094 FFF7FEFF 		bl	CyHalt
 1448              	.L142:
 754:Generated_Source\PSoC4/CyDMA.c ****     CYASSERT(0u == (config->triggerType         & (uint32)~CYDMA_TRIGGER_TYPE));
 1449              		.loc 1 754 0 is_stmt 1
 1450 0098 7B68     		ldr	r3, [r7, #4]
 1451 009a 1B69     		ldr	r3, [r3, #16]
 1452 009c 294A     		ldr	r2, .L147+12
 1453 009e 1340     		and	r3, r2
 1454 00a0 02D0     		beq	.L143
 1455              		.loc 1 754 0 is_stmt 0 discriminator 1
 1456 00a2 0020     		mov	r0, #0
 1457 00a4 FFF7FEFF 		bl	CyHalt
 1458              	.L143:
 755:Generated_Source\PSoC4/CyDMA.c ****     CYASSERT(0u == (config->transferMode        & (uint32)~CYDMA_TRANSFER_MODE));
 1459              		.loc 1 755 0 is_stmt 1
 1460 00a8 7B68     		ldr	r3, [r7, #4]
 1461 00aa 5B69     		ldr	r3, [r3, #20]
 1462 00ac 9B00     		lsl	r3, r3, #2
 1463 00ae 9B08     		lsr	r3, r3, #2
 1464 00b0 02D0     		beq	.L144
 1465              		.loc 1 755 0 is_stmt 0 discriminator 1
 1466 00b2 0020     		mov	r0, #0
ARM GAS  C:\Users\fneves\AppData\Local\Temp\ccoNsDRu.s 			page 40


 1467 00b4 FFF7FEFF 		bl	CyHalt
 1468              	.L144:
 756:Generated_Source\PSoC4/CyDMA.c ****     CYASSERT(0u == (config->preemptable         & (uint32)~CYDMA_PREEMPTABLE));
 1469              		.loc 1 756 0 is_stmt 1
 1470 00b8 7B68     		ldr	r3, [r7, #4]
 1471 00ba 9B69     		ldr	r3, [r3, #24]
 1472 00bc 224A     		ldr	r2, .L147+16
 1473 00be 1340     		and	r3, r2
 1474 00c0 02D0     		beq	.L145
 1475              		.loc 1 756 0 is_stmt 0 discriminator 1
 1476 00c2 0020     		mov	r0, #0
 1477 00c4 FFF7FEFF 		bl	CyHalt
 1478              	.L145:
 757:Generated_Source\PSoC4/CyDMA.c ****     CYASSERT(0u == (config->actions             & (uint32)~CYDMA_POST_COMPLETE_ACTIONS));
 1479              		.loc 1 757 0 is_stmt 1
 1480 00c8 7B68     		ldr	r3, [r7, #4]
 1481 00ca DB69     		ldr	r3, [r3, #28]
 1482 00cc 1F4A     		ldr	r2, .L147+20
 1483 00ce 1340     		and	r3, r2
 1484 00d0 02D0     		beq	.L146
 1485              		.loc 1 757 0 is_stmt 0 discriminator 1
 1486 00d2 0020     		mov	r0, #0
 1487 00d4 FFF7FEFF 		bl	CyHalt
 1488              	.L146:
 758:Generated_Source\PSoC4/CyDMA.c ****     
 759:Generated_Source\PSoC4/CyDMA.c ****     CYDMA_DESCR_BASE.descriptor[channel][descriptor].ctl = config->dataElementSize     |
 1489              		.loc 1 759 0 is_stmt 1
 1490 00d8 1D48     		ldr	r0, .L147+24
 1491 00da 7B68     		ldr	r3, [r7, #4]
 1492 00dc 1A68     		ldr	r2, [r3]
 760:Generated_Source\PSoC4/CyDMA.c ****                                                   ((uint32)config->numDataElements-1u) |
 1493              		.loc 1 760 0
 1494 00de 7B68     		ldr	r3, [r7, #4]
 1495 00e0 5B68     		ldr	r3, [r3, #4]
 1496 00e2 013B     		sub	r3, r3, #1
 759:Generated_Source\PSoC4/CyDMA.c ****                                                   ((uint32)config->numDataElements-1u) |
 1497              		.loc 1 759 0
 1498 00e4 1A43     		orr	r2, r3
 761:Generated_Source\PSoC4/CyDMA.c ****                                                            config->srcDstTransferWidth |
 1499              		.loc 1 761 0
 1500 00e6 7B68     		ldr	r3, [r7, #4]
 1501 00e8 9B68     		ldr	r3, [r3, #8]
 760:Generated_Source\PSoC4/CyDMA.c ****                                                   ((uint32)config->numDataElements-1u) |
 1502              		.loc 1 760 0
 1503 00ea 1A43     		orr	r2, r3
 762:Generated_Source\PSoC4/CyDMA.c ****                                                            config->addressIncrement    |
 1504              		.loc 1 762 0
 1505 00ec 7B68     		ldr	r3, [r7, #4]
 1506 00ee DB68     		ldr	r3, [r3, #12]
 761:Generated_Source\PSoC4/CyDMA.c ****                                                            config->srcDstTransferWidth |
 1507              		.loc 1 761 0
 1508 00f0 1A43     		orr	r2, r3
 763:Generated_Source\PSoC4/CyDMA.c ****                                                            config->triggerType         |
 1509              		.loc 1 763 0
 1510 00f2 7B68     		ldr	r3, [r7, #4]
 1511 00f4 1B69     		ldr	r3, [r3, #16]
 762:Generated_Source\PSoC4/CyDMA.c ****                                                            config->addressIncrement    |
ARM GAS  C:\Users\fneves\AppData\Local\Temp\ccoNsDRu.s 			page 41


 1512              		.loc 1 762 0
 1513 00f6 1A43     		orr	r2, r3
 764:Generated_Source\PSoC4/CyDMA.c ****                                                            config->transferMode        |
 1514              		.loc 1 764 0
 1515 00f8 7B68     		ldr	r3, [r7, #4]
 1516 00fa 5B69     		ldr	r3, [r3, #20]
 763:Generated_Source\PSoC4/CyDMA.c ****                                                            config->triggerType         |
 1517              		.loc 1 763 0
 1518 00fc 1A43     		orr	r2, r3
 765:Generated_Source\PSoC4/CyDMA.c ****                                                            config->preemptable         |
 1519              		.loc 1 765 0
 1520 00fe 7B68     		ldr	r3, [r7, #4]
 1521 0100 9B69     		ldr	r3, [r3, #24]
 764:Generated_Source\PSoC4/CyDMA.c ****                                                            config->transferMode        |
 1522              		.loc 1 764 0
 1523 0102 1A43     		orr	r2, r3
 766:Generated_Source\PSoC4/CyDMA.c ****                                                            config->actions;
 1524              		.loc 1 766 0
 1525 0104 7B68     		ldr	r3, [r7, #4]
 1526 0106 DB69     		ldr	r3, [r3, #28]
 765:Generated_Source\PSoC4/CyDMA.c ****                                                            config->preemptable         |
 1527              		.loc 1 765 0
 1528 0108 1A43     		orr	r2, r3
 759:Generated_Source\PSoC4/CyDMA.c ****                                                   ((uint32)config->numDataElements-1u) |
 1529              		.loc 1 759 0
 1530 010a FB68     		ldr	r3, [r7, #12]
 1531 010c 5900     		lsl	r1, r3, #1
 1532 010e BB68     		ldr	r3, [r7, #8]
 1533 0110 CB18     		add	r3, r1, r3
 1534 0112 1B01     		lsl	r3, r3, #4
 1535 0114 C318     		add	r3, r0, r3
 1536 0116 0833     		add	r3, r3, #8
 1537 0118 1A60     		str	r2, [r3]
 767:Generated_Source\PSoC4/CyDMA.c **** 
 768:Generated_Source\PSoC4/CyDMA.c ****     CYDMA_DESCR_BASE.descriptor[channel][descriptor].status = CYDMA_VALID;
 1538              		.loc 1 768 0
 1539 011a 0D49     		ldr	r1, .L147+24
 1540 011c FB68     		ldr	r3, [r7, #12]
 1541 011e 5A00     		lsl	r2, r3, #1
 1542 0120 BB68     		ldr	r3, [r7, #8]
 1543 0122 D318     		add	r3, r2, r3
 1544 0124 1B01     		lsl	r3, r3, #4
 1545 0126 CB18     		add	r3, r1, r3
 1546 0128 0833     		add	r3, r3, #8
 1547 012a 8022     		mov	r2, #128
 1548 012c 1206     		lsl	r2, r2, #24
 1549 012e 5A60     		str	r2, [r3, #4]
 769:Generated_Source\PSoC4/CyDMA.c **** }
 1550              		.loc 1 769 0
 1551 0130 BD46     		mov	sp, r7
 1552 0132 04B0     		add	sp, sp, #16
 1553              		@ sp needed
 1554 0134 80BD     		pop	{r7, pc}
 1555              	.L148:
 1556 0136 C046     		.align	2
 1557              	.L147:
 1558 0138 FFFFFCFF 		.word	-196609
ARM GAS  C:\Users\fneves\AppData\Local\Temp\ccoNsDRu.s 			page 42


 1559 013c FFFFAFFF 		.word	-5242881
 1560 0140 FFFF5FFF 		.word	-10485761
 1561 0144 FFFFFFFC 		.word	-50331649
 1562 0148 FFFFFFEF 		.word	-268435457
 1563 014c FFFFFFD3 		.word	-738197505
 1564 0150 00181040 		.word	1074796544
 1565              		.cfi_endproc
 1566              	.LFE26:
 1567              		.size	CyDmaSetConfiguration, .-CyDmaSetConfiguration
 1568              		.section	.text.CyDmaValidateDescriptor,"ax",%progbits
 1569              		.align	2
 1570              		.global	CyDmaValidateDescriptor
 1571              		.code	16
 1572              		.thumb_func
 1573              		.type	CyDmaValidateDescriptor, %function
 1574              	CyDmaValidateDescriptor:
 1575              	.LFB27:
 770:Generated_Source\PSoC4/CyDMA.c **** 
 771:Generated_Source\PSoC4/CyDMA.c **** 
 772:Generated_Source\PSoC4/CyDMA.c **** /*******************************************************************************
 773:Generated_Source\PSoC4/CyDMA.c **** * Function Name: CyDmaValidateDescriptor
 774:Generated_Source\PSoC4/CyDMA.c **** ********************************************************************************
 775:Generated_Source\PSoC4/CyDMA.c **** *
 776:Generated_Source\PSoC4/CyDMA.c **** * Summary:
 777:Generated_Source\PSoC4/CyDMA.c **** *  Validates the specified descriptor after it has been invalidated.
 778:Generated_Source\PSoC4/CyDMA.c **** *
 779:Generated_Source\PSoC4/CyDMA.c **** * Parameters:
 780:Generated_Source\PSoC4/CyDMA.c **** *  channel:    Channel used by this function.
 781:Generated_Source\PSoC4/CyDMA.c **** *  descriptor: Descriptor (0 or 1) modified by this function.
 782:Generated_Source\PSoC4/CyDMA.c **** *                   
 783:Generated_Source\PSoC4/CyDMA.c **** * Return:
 784:Generated_Source\PSoC4/CyDMA.c **** *  None. 
 785:Generated_Source\PSoC4/CyDMA.c **** *
 786:Generated_Source\PSoC4/CyDMA.c **** * Side effect:
 787:Generated_Source\PSoC4/CyDMA.c **** *  The status register associated with the specified descriptor is reset to
 788:Generated_Source\PSoC4/CyDMA.c **** *  zero after this function call.
 789:Generated_Source\PSoC4/CyDMA.c **** *  This function should not be called when the specified descriptor is active
 790:Generated_Source\PSoC4/CyDMA.c **** *  in the DMA transfer engine. This can be checked by calling CyDmaGetStatus().
 791:Generated_Source\PSoC4/CyDMA.c **** *
 792:Generated_Source\PSoC4/CyDMA.c **** *******************************************************************************/
 793:Generated_Source\PSoC4/CyDMA.c **** void CyDmaValidateDescriptor(int32 channel, int32 descriptor)
 794:Generated_Source\PSoC4/CyDMA.c **** {
 1576              		.loc 1 794 0
 1577              		.cfi_startproc
 1578 0000 80B5     		push	{r7, lr}
 1579              		.cfi_def_cfa_offset 8
 1580              		.cfi_offset 7, -8
 1581              		.cfi_offset 14, -4
 1582 0002 82B0     		sub	sp, sp, #8
 1583              		.cfi_def_cfa_offset 16
 1584 0004 00AF     		add	r7, sp, #0
 1585              		.cfi_def_cfa_register 7
 1586 0006 7860     		str	r0, [r7, #4]
 1587 0008 3960     		str	r1, [r7]
 795:Generated_Source\PSoC4/CyDMA.c ****     CYASSERT((channel    >= 0) && (channel    < CYDMA_CH_NR));
 1588              		.loc 1 795 0
 1589 000a 7B68     		ldr	r3, [r7, #4]
ARM GAS  C:\Users\fneves\AppData\Local\Temp\ccoNsDRu.s 			page 43


 1590 000c 002B     		cmp	r3, #0
 1591 000e 04DB     		blt	.L150
 1592              		.loc 1 795 0 is_stmt 0 discriminator 1
 1593 0010 7B68     		ldr	r3, [r7, #4]
 1594 0012 072B     		cmp	r3, #7
 1595 0014 01DC     		bgt	.L150
 1596              		.loc 1 795 0 discriminator 3
 1597 0016 0123     		mov	r3, #1
 1598 0018 00E0     		b	.L151
 1599              	.L150:
 1600              		.loc 1 795 0 discriminator 4
 1601 001a 0023     		mov	r3, #0
 1602              	.L151:
 1603              		.loc 1 795 0 discriminator 6
 1604 001c 002B     		cmp	r3, #0
 1605 001e 02D1     		bne	.L152
 1606              		.loc 1 795 0 discriminator 7
 1607 0020 0020     		mov	r0, #0
 1608 0022 FFF7FEFF 		bl	CyHalt
 1609              	.L152:
 796:Generated_Source\PSoC4/CyDMA.c ****     CYASSERT((descriptor >= 0) && (descriptor < CYDMA_DESCR_NR));
 1610              		.loc 1 796 0 is_stmt 1
 1611 0026 3B68     		ldr	r3, [r7]
 1612 0028 002B     		cmp	r3, #0
 1613 002a 04DB     		blt	.L153
 1614              		.loc 1 796 0 is_stmt 0 discriminator 1
 1615 002c 3B68     		ldr	r3, [r7]
 1616 002e 012B     		cmp	r3, #1
 1617 0030 01DC     		bgt	.L153
 1618              		.loc 1 796 0 discriminator 3
 1619 0032 0123     		mov	r3, #1
 1620 0034 00E0     		b	.L154
 1621              	.L153:
 1622              		.loc 1 796 0 discriminator 4
 1623 0036 0023     		mov	r3, #0
 1624              	.L154:
 1625              		.loc 1 796 0 discriminator 6
 1626 0038 002B     		cmp	r3, #0
 1627 003a 02D1     		bne	.L155
 1628              		.loc 1 796 0 discriminator 7
 1629 003c 0020     		mov	r0, #0
 1630 003e FFF7FEFF 		bl	CyHalt
 1631              	.L155:
 797:Generated_Source\PSoC4/CyDMA.c **** 
 798:Generated_Source\PSoC4/CyDMA.c ****     CYDMA_DESCR_BASE.descriptor[channel][descriptor].status = CYDMA_VALID;
 1632              		.loc 1 798 0 is_stmt 1
 1633 0042 0749     		ldr	r1, .L156
 1634 0044 7B68     		ldr	r3, [r7, #4]
 1635 0046 5A00     		lsl	r2, r3, #1
 1636 0048 3B68     		ldr	r3, [r7]
 1637 004a D318     		add	r3, r2, r3
 1638 004c 1B01     		lsl	r3, r3, #4
 1639 004e CB18     		add	r3, r1, r3
 1640 0050 0833     		add	r3, r3, #8
 1641 0052 8022     		mov	r2, #128
 1642 0054 1206     		lsl	r2, r2, #24
 1643 0056 5A60     		str	r2, [r3, #4]
ARM GAS  C:\Users\fneves\AppData\Local\Temp\ccoNsDRu.s 			page 44


 799:Generated_Source\PSoC4/CyDMA.c **** }
 1644              		.loc 1 799 0
 1645 0058 BD46     		mov	sp, r7
 1646 005a 02B0     		add	sp, sp, #8
 1647              		@ sp needed
 1648 005c 80BD     		pop	{r7, pc}
 1649              	.L157:
 1650 005e C046     		.align	2
 1651              	.L156:
 1652 0060 00181040 		.word	1074796544
 1653              		.cfi_endproc
 1654              	.LFE27:
 1655              		.size	CyDmaValidateDescriptor, .-CyDmaValidateDescriptor
 1656              		.section	.text.CyDmaGetDescriptorStatus,"ax",%progbits
 1657              		.align	2
 1658              		.global	CyDmaGetDescriptorStatus
 1659              		.code	16
 1660              		.thumb_func
 1661              		.type	CyDmaGetDescriptorStatus, %function
 1662              	CyDmaGetDescriptorStatus:
 1663              	.LFB28:
 800:Generated_Source\PSoC4/CyDMA.c **** 
 801:Generated_Source\PSoC4/CyDMA.c **** 
 802:Generated_Source\PSoC4/CyDMA.c **** /*******************************************************************************
 803:Generated_Source\PSoC4/CyDMA.c **** * Function Name: CyDmaGetDescriptorStatus
 804:Generated_Source\PSoC4/CyDMA.c **** ********************************************************************************
 805:Generated_Source\PSoC4/CyDMA.c **** *
 806:Generated_Source\PSoC4/CyDMA.c **** * Summary:
 807:Generated_Source\PSoC4/CyDMA.c **** *  Returns the status of the specified descriptor.
 808:Generated_Source\PSoC4/CyDMA.c **** *
 809:Generated_Source\PSoC4/CyDMA.c **** * Parameters:
 810:Generated_Source\PSoC4/CyDMA.c **** *  channel:    Channel used by this function.
 811:Generated_Source\PSoC4/CyDMA.c **** *  descriptor: Descriptor (0 or 1) modified by this function.
 812:Generated_Source\PSoC4/CyDMA.c **** *                   
 813:Generated_Source\PSoC4/CyDMA.c **** * Return:
 814:Generated_Source\PSoC4/CyDMA.c **** *  Returns the contents of the specified descriptors status register. Refer to 
 815:Generated_Source\PSoC4/CyDMA.c **** *  descriptor status register bit definitions in CyDMA_P4.h or the API
 816:Generated_Source\PSoC4/CyDMA.c **** *  description in the DMA channel datasheet for more information.
 817:Generated_Source\PSoC4/CyDMA.c **** *
 818:Generated_Source\PSoC4/CyDMA.c **** *******************************************************************************/
 819:Generated_Source\PSoC4/CyDMA.c **** uint32 CyDmaGetDescriptorStatus(int32 channel, int32 descriptor)
 820:Generated_Source\PSoC4/CyDMA.c **** {
 1664              		.loc 1 820 0
 1665              		.cfi_startproc
 1666 0000 80B5     		push	{r7, lr}
 1667              		.cfi_def_cfa_offset 8
 1668              		.cfi_offset 7, -8
 1669              		.cfi_offset 14, -4
 1670 0002 82B0     		sub	sp, sp, #8
 1671              		.cfi_def_cfa_offset 16
 1672 0004 00AF     		add	r7, sp, #0
 1673              		.cfi_def_cfa_register 7
 1674 0006 7860     		str	r0, [r7, #4]
 1675 0008 3960     		str	r1, [r7]
 821:Generated_Source\PSoC4/CyDMA.c ****     CYASSERT((channel    >= 0) && (channel    < CYDMA_CH_NR));
 1676              		.loc 1 821 0
 1677 000a 7B68     		ldr	r3, [r7, #4]
ARM GAS  C:\Users\fneves\AppData\Local\Temp\ccoNsDRu.s 			page 45


 1678 000c 002B     		cmp	r3, #0
 1679 000e 04DB     		blt	.L159
 1680              		.loc 1 821 0 is_stmt 0 discriminator 1
 1681 0010 7B68     		ldr	r3, [r7, #4]
 1682 0012 072B     		cmp	r3, #7
 1683 0014 01DC     		bgt	.L159
 1684              		.loc 1 821 0 discriminator 3
 1685 0016 0123     		mov	r3, #1
 1686 0018 00E0     		b	.L160
 1687              	.L159:
 1688              		.loc 1 821 0 discriminator 4
 1689 001a 0023     		mov	r3, #0
 1690              	.L160:
 1691              		.loc 1 821 0 discriminator 6
 1692 001c 002B     		cmp	r3, #0
 1693 001e 02D1     		bne	.L161
 1694              		.loc 1 821 0 discriminator 7
 1695 0020 0020     		mov	r0, #0
 1696 0022 FFF7FEFF 		bl	CyHalt
 1697              	.L161:
 822:Generated_Source\PSoC4/CyDMA.c ****     CYASSERT((descriptor >= 0) && (descriptor < CYDMA_DESCR_NR));
 1698              		.loc 1 822 0 is_stmt 1
 1699 0026 3B68     		ldr	r3, [r7]
 1700 0028 002B     		cmp	r3, #0
 1701 002a 04DB     		blt	.L162
 1702              		.loc 1 822 0 is_stmt 0 discriminator 1
 1703 002c 3B68     		ldr	r3, [r7]
 1704 002e 012B     		cmp	r3, #1
 1705 0030 01DC     		bgt	.L162
 1706              		.loc 1 822 0 discriminator 3
 1707 0032 0123     		mov	r3, #1
 1708 0034 00E0     		b	.L163
 1709              	.L162:
 1710              		.loc 1 822 0 discriminator 4
 1711 0036 0023     		mov	r3, #0
 1712              	.L163:
 1713              		.loc 1 822 0 discriminator 6
 1714 0038 002B     		cmp	r3, #0
 1715 003a 02D1     		bne	.L164
 1716              		.loc 1 822 0 discriminator 7
 1717 003c 0020     		mov	r0, #0
 1718 003e FFF7FEFF 		bl	CyHalt
 1719              	.L164:
 823:Generated_Source\PSoC4/CyDMA.c **** 
 824:Generated_Source\PSoC4/CyDMA.c ****     return (CYDMA_DESCR_BASE.descriptor[channel][descriptor].status);
 1720              		.loc 1 824 0 is_stmt 1
 1721 0042 0649     		ldr	r1, .L166
 1722 0044 7B68     		ldr	r3, [r7, #4]
 1723 0046 5A00     		lsl	r2, r3, #1
 1724 0048 3B68     		ldr	r3, [r7]
 1725 004a D318     		add	r3, r2, r3
 1726 004c 1B01     		lsl	r3, r3, #4
 1727 004e CB18     		add	r3, r1, r3
 1728 0050 0833     		add	r3, r3, #8
 1729 0052 5B68     		ldr	r3, [r3, #4]
 825:Generated_Source\PSoC4/CyDMA.c **** }
 1730              		.loc 1 825 0
ARM GAS  C:\Users\fneves\AppData\Local\Temp\ccoNsDRu.s 			page 46


 1731 0054 181C     		mov	r0, r3
 1732 0056 BD46     		mov	sp, r7
 1733 0058 02B0     		add	sp, sp, #8
 1734              		@ sp needed
 1735 005a 80BD     		pop	{r7, pc}
 1736              	.L167:
 1737              		.align	2
 1738              	.L166:
 1739 005c 00181040 		.word	1074796544
 1740              		.cfi_endproc
 1741              	.LFE28:
 1742              		.size	CyDmaGetDescriptorStatus, .-CyDmaGetDescriptorStatus
 1743              		.section	.text.CyDmaSetSrcAddress,"ax",%progbits
 1744              		.align	2
 1745              		.global	CyDmaSetSrcAddress
 1746              		.code	16
 1747              		.thumb_func
 1748              		.type	CyDmaSetSrcAddress, %function
 1749              	CyDmaSetSrcAddress:
 1750              	.LFB29:
 826:Generated_Source\PSoC4/CyDMA.c **** 
 827:Generated_Source\PSoC4/CyDMA.c **** 
 828:Generated_Source\PSoC4/CyDMA.c **** /*******************************************************************************
 829:Generated_Source\PSoC4/CyDMA.c **** * Function Name: CyDmaSetSrcAddress
 830:Generated_Source\PSoC4/CyDMA.c **** ********************************************************************************
 831:Generated_Source\PSoC4/CyDMA.c **** *
 832:Generated_Source\PSoC4/CyDMA.c **** * Summary:
 833:Generated_Source\PSoC4/CyDMA.c **** *  Configures the source address for the specified descriptor.
 834:Generated_Source\PSoC4/CyDMA.c **** *
 835:Generated_Source\PSoC4/CyDMA.c **** * Parameters:
 836:Generated_Source\PSoC4/CyDMA.c **** *  channel:    Channel used by this function.
 837:Generated_Source\PSoC4/CyDMA.c **** *  descriptor: Descriptor (0 or 1) modified by this function.
 838:Generated_Source\PSoC4/CyDMA.c **** *  srcAddress: Address of DMA transfer source.
 839:Generated_Source\PSoC4/CyDMA.c **** *                   
 840:Generated_Source\PSoC4/CyDMA.c **** * Return:
 841:Generated_Source\PSoC4/CyDMA.c **** *  None.
 842:Generated_Source\PSoC4/CyDMA.c **** *
 843:Generated_Source\PSoC4/CyDMA.c **** * Side effect:
 844:Generated_Source\PSoC4/CyDMA.c **** *  This function should not be called when the specified descriptor is active
 845:Generated_Source\PSoC4/CyDMA.c **** *  in the DMA transfer engine. This can be checked by calling CyDmaGetStatus(). 
 846:Generated_Source\PSoC4/CyDMA.c **** *
 847:Generated_Source\PSoC4/CyDMA.c **** *******************************************************************************/
 848:Generated_Source\PSoC4/CyDMA.c **** void CyDmaSetSrcAddress(int32 channel, int32 descriptor, void * srcAddress)
 849:Generated_Source\PSoC4/CyDMA.c **** {
 1751              		.loc 1 849 0
 1752              		.cfi_startproc
 1753 0000 80B5     		push	{r7, lr}
 1754              		.cfi_def_cfa_offset 8
 1755              		.cfi_offset 7, -8
 1756              		.cfi_offset 14, -4
 1757 0002 84B0     		sub	sp, sp, #16
 1758              		.cfi_def_cfa_offset 24
 1759 0004 00AF     		add	r7, sp, #0
 1760              		.cfi_def_cfa_register 7
 1761 0006 F860     		str	r0, [r7, #12]
 1762 0008 B960     		str	r1, [r7, #8]
 1763 000a 7A60     		str	r2, [r7, #4]
ARM GAS  C:\Users\fneves\AppData\Local\Temp\ccoNsDRu.s 			page 47


 850:Generated_Source\PSoC4/CyDMA.c ****     CYASSERT((channel    >= 0) && (channel    < CYDMA_CH_NR));
 1764              		.loc 1 850 0
 1765 000c FB68     		ldr	r3, [r7, #12]
 1766 000e 002B     		cmp	r3, #0
 1767 0010 04DB     		blt	.L169
 1768              		.loc 1 850 0 is_stmt 0 discriminator 1
 1769 0012 FB68     		ldr	r3, [r7, #12]
 1770 0014 072B     		cmp	r3, #7
 1771 0016 01DC     		bgt	.L169
 1772              		.loc 1 850 0 discriminator 3
 1773 0018 0123     		mov	r3, #1
 1774 001a 00E0     		b	.L170
 1775              	.L169:
 1776              		.loc 1 850 0 discriminator 4
 1777 001c 0023     		mov	r3, #0
 1778              	.L170:
 1779              		.loc 1 850 0 discriminator 6
 1780 001e 002B     		cmp	r3, #0
 1781 0020 02D1     		bne	.L171
 1782              		.loc 1 850 0 discriminator 7
 1783 0022 0020     		mov	r0, #0
 1784 0024 FFF7FEFF 		bl	CyHalt
 1785              	.L171:
 851:Generated_Source\PSoC4/CyDMA.c ****     CYASSERT((descriptor >= 0) && (descriptor < CYDMA_DESCR_NR));
 1786              		.loc 1 851 0 is_stmt 1
 1787 0028 BB68     		ldr	r3, [r7, #8]
 1788 002a 002B     		cmp	r3, #0
 1789 002c 04DB     		blt	.L172
 1790              		.loc 1 851 0 is_stmt 0 discriminator 1
 1791 002e BB68     		ldr	r3, [r7, #8]
 1792 0030 012B     		cmp	r3, #1
 1793 0032 01DC     		bgt	.L172
 1794              		.loc 1 851 0 discriminator 3
 1795 0034 0123     		mov	r3, #1
 1796 0036 00E0     		b	.L173
 1797              	.L172:
 1798              		.loc 1 851 0 discriminator 4
 1799 0038 0023     		mov	r3, #0
 1800              	.L173:
 1801              		.loc 1 851 0 discriminator 6
 1802 003a 002B     		cmp	r3, #0
 1803 003c 02D1     		bne	.L174
 1804              		.loc 1 851 0 discriminator 7
 1805 003e 0020     		mov	r0, #0
 1806 0040 FFF7FEFF 		bl	CyHalt
 1807              	.L174:
 852:Generated_Source\PSoC4/CyDMA.c **** 
 853:Generated_Source\PSoC4/CyDMA.c ****     CYDMA_DESCR_BASE.descriptor[channel][descriptor].src = srcAddress;
 1808              		.loc 1 853 0 is_stmt 1
 1809 0044 0549     		ldr	r1, .L175
 1810 0046 FB68     		ldr	r3, [r7, #12]
 1811 0048 5A00     		lsl	r2, r3, #1
 1812 004a BB68     		ldr	r3, [r7, #8]
 1813 004c D318     		add	r3, r2, r3
 1814 004e 1B01     		lsl	r3, r3, #4
 1815 0050 7A68     		ldr	r2, [r7, #4]
 1816 0052 5A50     		str	r2, [r3, r1]
ARM GAS  C:\Users\fneves\AppData\Local\Temp\ccoNsDRu.s 			page 48


 854:Generated_Source\PSoC4/CyDMA.c **** }
 1817              		.loc 1 854 0
 1818 0054 BD46     		mov	sp, r7
 1819 0056 04B0     		add	sp, sp, #16
 1820              		@ sp needed
 1821 0058 80BD     		pop	{r7, pc}
 1822              	.L176:
 1823 005a C046     		.align	2
 1824              	.L175:
 1825 005c 00181040 		.word	1074796544
 1826              		.cfi_endproc
 1827              	.LFE29:
 1828              		.size	CyDmaSetSrcAddress, .-CyDmaSetSrcAddress
 1829              		.section	.text.CyDmaGetSrcAddress,"ax",%progbits
 1830              		.align	2
 1831              		.global	CyDmaGetSrcAddress
 1832              		.code	16
 1833              		.thumb_func
 1834              		.type	CyDmaGetSrcAddress, %function
 1835              	CyDmaGetSrcAddress:
 1836              	.LFB30:
 855:Generated_Source\PSoC4/CyDMA.c **** 
 856:Generated_Source\PSoC4/CyDMA.c **** 
 857:Generated_Source\PSoC4/CyDMA.c **** /*******************************************************************************
 858:Generated_Source\PSoC4/CyDMA.c **** * Function Name: CyDmaGetSrcAddress
 859:Generated_Source\PSoC4/CyDMA.c **** ********************************************************************************
 860:Generated_Source\PSoC4/CyDMA.c **** *
 861:Generated_Source\PSoC4/CyDMA.c **** * Summary:
 862:Generated_Source\PSoC4/CyDMA.c **** *  Returns the source address for the specified descriptor, set by 
 863:Generated_Source\PSoC4/CyDMA.c **** *  CyDmaSetSrcAddress().
 864:Generated_Source\PSoC4/CyDMA.c **** *
 865:Generated_Source\PSoC4/CyDMA.c **** * Parameters:
 866:Generated_Source\PSoC4/CyDMA.c **** *  channel:    Channel used by this function.
 867:Generated_Source\PSoC4/CyDMA.c **** *  descriptor: Specifies descriptor (0 or 1) used by this function.
 868:Generated_Source\PSoC4/CyDMA.c **** *                   
 869:Generated_Source\PSoC4/CyDMA.c **** * Return:
 870:Generated_Source\PSoC4/CyDMA.c **** *  Source address written to specified descriptor.
 871:Generated_Source\PSoC4/CyDMA.c **** *
 872:Generated_Source\PSoC4/CyDMA.c **** *******************************************************************************/
 873:Generated_Source\PSoC4/CyDMA.c **** void * CyDmaGetSrcAddress(int32 channel, int32 descriptor)
 874:Generated_Source\PSoC4/CyDMA.c **** {
 1837              		.loc 1 874 0
 1838              		.cfi_startproc
 1839 0000 80B5     		push	{r7, lr}
 1840              		.cfi_def_cfa_offset 8
 1841              		.cfi_offset 7, -8
 1842              		.cfi_offset 14, -4
 1843 0002 82B0     		sub	sp, sp, #8
 1844              		.cfi_def_cfa_offset 16
 1845 0004 00AF     		add	r7, sp, #0
 1846              		.cfi_def_cfa_register 7
 1847 0006 7860     		str	r0, [r7, #4]
 1848 0008 3960     		str	r1, [r7]
 875:Generated_Source\PSoC4/CyDMA.c ****     CYASSERT((channel    >= 0) && (channel    < CYDMA_CH_NR));
 1849              		.loc 1 875 0
 1850 000a 7B68     		ldr	r3, [r7, #4]
 1851 000c 002B     		cmp	r3, #0
ARM GAS  C:\Users\fneves\AppData\Local\Temp\ccoNsDRu.s 			page 49


 1852 000e 04DB     		blt	.L178
 1853              		.loc 1 875 0 is_stmt 0 discriminator 1
 1854 0010 7B68     		ldr	r3, [r7, #4]
 1855 0012 072B     		cmp	r3, #7
 1856 0014 01DC     		bgt	.L178
 1857              		.loc 1 875 0 discriminator 3
 1858 0016 0123     		mov	r3, #1
 1859 0018 00E0     		b	.L179
 1860              	.L178:
 1861              		.loc 1 875 0 discriminator 4
 1862 001a 0023     		mov	r3, #0
 1863              	.L179:
 1864              		.loc 1 875 0 discriminator 6
 1865 001c 002B     		cmp	r3, #0
 1866 001e 02D1     		bne	.L180
 1867              		.loc 1 875 0 discriminator 7
 1868 0020 0020     		mov	r0, #0
 1869 0022 FFF7FEFF 		bl	CyHalt
 1870              	.L180:
 876:Generated_Source\PSoC4/CyDMA.c ****     CYASSERT((descriptor >= 0) && (descriptor < CYDMA_DESCR_NR));
 1871              		.loc 1 876 0 is_stmt 1
 1872 0026 3B68     		ldr	r3, [r7]
 1873 0028 002B     		cmp	r3, #0
 1874 002a 04DB     		blt	.L181
 1875              		.loc 1 876 0 is_stmt 0 discriminator 1
 1876 002c 3B68     		ldr	r3, [r7]
 1877 002e 012B     		cmp	r3, #1
 1878 0030 01DC     		bgt	.L181
 1879              		.loc 1 876 0 discriminator 3
 1880 0032 0123     		mov	r3, #1
 1881 0034 00E0     		b	.L182
 1882              	.L181:
 1883              		.loc 1 876 0 discriminator 4
 1884 0036 0023     		mov	r3, #0
 1885              	.L182:
 1886              		.loc 1 876 0 discriminator 6
 1887 0038 002B     		cmp	r3, #0
 1888 003a 02D1     		bne	.L183
 1889              		.loc 1 876 0 discriminator 7
 1890 003c 0020     		mov	r0, #0
 1891 003e FFF7FEFF 		bl	CyHalt
 1892              	.L183:
 877:Generated_Source\PSoC4/CyDMA.c **** 
 878:Generated_Source\PSoC4/CyDMA.c ****     return (CYDMA_DESCR_BASE.descriptor[channel][descriptor].src);
 1893              		.loc 1 878 0 is_stmt 1
 1894 0042 0549     		ldr	r1, .L185
 1895 0044 7B68     		ldr	r3, [r7, #4]
 1896 0046 5A00     		lsl	r2, r3, #1
 1897 0048 3B68     		ldr	r3, [r7]
 1898 004a D318     		add	r3, r2, r3
 1899 004c 1B01     		lsl	r3, r3, #4
 1900 004e 5B58     		ldr	r3, [r3, r1]
 879:Generated_Source\PSoC4/CyDMA.c **** }
 1901              		.loc 1 879 0
 1902 0050 181C     		mov	r0, r3
 1903 0052 BD46     		mov	sp, r7
 1904 0054 02B0     		add	sp, sp, #8
ARM GAS  C:\Users\fneves\AppData\Local\Temp\ccoNsDRu.s 			page 50


 1905              		@ sp needed
 1906 0056 80BD     		pop	{r7, pc}
 1907              	.L186:
 1908              		.align	2
 1909              	.L185:
 1910 0058 00181040 		.word	1074796544
 1911              		.cfi_endproc
 1912              	.LFE30:
 1913              		.size	CyDmaGetSrcAddress, .-CyDmaGetSrcAddress
 1914              		.section	.text.CyDmaSetDstAddress,"ax",%progbits
 1915              		.align	2
 1916              		.global	CyDmaSetDstAddress
 1917              		.code	16
 1918              		.thumb_func
 1919              		.type	CyDmaSetDstAddress, %function
 1920              	CyDmaSetDstAddress:
 1921              	.LFB31:
 880:Generated_Source\PSoC4/CyDMA.c **** 
 881:Generated_Source\PSoC4/CyDMA.c **** 
 882:Generated_Source\PSoC4/CyDMA.c **** /*******************************************************************************
 883:Generated_Source\PSoC4/CyDMA.c **** * Function Name: CyDmaSetDstAddress
 884:Generated_Source\PSoC4/CyDMA.c **** ********************************************************************************
 885:Generated_Source\PSoC4/CyDMA.c **** *
 886:Generated_Source\PSoC4/CyDMA.c **** * Summary:
 887:Generated_Source\PSoC4/CyDMA.c **** *  Configures the destination address for the specified descriptor.
 888:Generated_Source\PSoC4/CyDMA.c **** *
 889:Generated_Source\PSoC4/CyDMA.c **** * Parameters:
 890:Generated_Source\PSoC4/CyDMA.c **** *  channel:    Channel used by this function.
 891:Generated_Source\PSoC4/CyDMA.c **** *  descriptor: Descriptor (0 or 1) modified by this function.
 892:Generated_Source\PSoC4/CyDMA.c **** *  dstAddress: Address of DMA transfer destination.
 893:Generated_Source\PSoC4/CyDMA.c **** *                   
 894:Generated_Source\PSoC4/CyDMA.c **** * Return:
 895:Generated_Source\PSoC4/CyDMA.c **** *  None.
 896:Generated_Source\PSoC4/CyDMA.c **** *
 897:Generated_Source\PSoC4/CyDMA.c **** * Side effect:
 898:Generated_Source\PSoC4/CyDMA.c **** *  This function should not be called when the specified descriptor is active
 899:Generated_Source\PSoC4/CyDMA.c **** *  in the DMA transfer engine. This can be checked by calling CyDmaGetStatus(). 
 900:Generated_Source\PSoC4/CyDMA.c **** *
 901:Generated_Source\PSoC4/CyDMA.c **** *******************************************************************************/
 902:Generated_Source\PSoC4/CyDMA.c **** void CyDmaSetDstAddress(int32 channel, int32 descriptor, void * dstAddress)
 903:Generated_Source\PSoC4/CyDMA.c **** {
 1922              		.loc 1 903 0
 1923              		.cfi_startproc
 1924 0000 80B5     		push	{r7, lr}
 1925              		.cfi_def_cfa_offset 8
 1926              		.cfi_offset 7, -8
 1927              		.cfi_offset 14, -4
 1928 0002 84B0     		sub	sp, sp, #16
 1929              		.cfi_def_cfa_offset 24
 1930 0004 00AF     		add	r7, sp, #0
 1931              		.cfi_def_cfa_register 7
 1932 0006 F860     		str	r0, [r7, #12]
 1933 0008 B960     		str	r1, [r7, #8]
 1934 000a 7A60     		str	r2, [r7, #4]
 904:Generated_Source\PSoC4/CyDMA.c ****     CYASSERT((channel    >= 0) && (channel    < CYDMA_CH_NR));
 1935              		.loc 1 904 0
 1936 000c FB68     		ldr	r3, [r7, #12]
ARM GAS  C:\Users\fneves\AppData\Local\Temp\ccoNsDRu.s 			page 51


 1937 000e 002B     		cmp	r3, #0
 1938 0010 04DB     		blt	.L188
 1939              		.loc 1 904 0 is_stmt 0 discriminator 1
 1940 0012 FB68     		ldr	r3, [r7, #12]
 1941 0014 072B     		cmp	r3, #7
 1942 0016 01DC     		bgt	.L188
 1943              		.loc 1 904 0 discriminator 3
 1944 0018 0123     		mov	r3, #1
 1945 001a 00E0     		b	.L189
 1946              	.L188:
 1947              		.loc 1 904 0 discriminator 4
 1948 001c 0023     		mov	r3, #0
 1949              	.L189:
 1950              		.loc 1 904 0 discriminator 6
 1951 001e 002B     		cmp	r3, #0
 1952 0020 02D1     		bne	.L190
 1953              		.loc 1 904 0 discriminator 7
 1954 0022 0020     		mov	r0, #0
 1955 0024 FFF7FEFF 		bl	CyHalt
 1956              	.L190:
 905:Generated_Source\PSoC4/CyDMA.c ****     CYASSERT((descriptor >= 0) && (descriptor < CYDMA_DESCR_NR));
 1957              		.loc 1 905 0 is_stmt 1
 1958 0028 BB68     		ldr	r3, [r7, #8]
 1959 002a 002B     		cmp	r3, #0
 1960 002c 04DB     		blt	.L191
 1961              		.loc 1 905 0 is_stmt 0 discriminator 1
 1962 002e BB68     		ldr	r3, [r7, #8]
 1963 0030 012B     		cmp	r3, #1
 1964 0032 01DC     		bgt	.L191
 1965              		.loc 1 905 0 discriminator 3
 1966 0034 0123     		mov	r3, #1
 1967 0036 00E0     		b	.L192
 1968              	.L191:
 1969              		.loc 1 905 0 discriminator 4
 1970 0038 0023     		mov	r3, #0
 1971              	.L192:
 1972              		.loc 1 905 0 discriminator 6
 1973 003a 002B     		cmp	r3, #0
 1974 003c 02D1     		bne	.L193
 1975              		.loc 1 905 0 discriminator 7
 1976 003e 0020     		mov	r0, #0
 1977 0040 FFF7FEFF 		bl	CyHalt
 1978              	.L193:
 906:Generated_Source\PSoC4/CyDMA.c **** 
 907:Generated_Source\PSoC4/CyDMA.c ****     CYDMA_DESCR_BASE.descriptor[channel][descriptor].dst = dstAddress;
 1979              		.loc 1 907 0 is_stmt 1
 1980 0044 0549     		ldr	r1, .L194
 1981 0046 FB68     		ldr	r3, [r7, #12]
 1982 0048 5A00     		lsl	r2, r3, #1
 1983 004a BB68     		ldr	r3, [r7, #8]
 1984 004c D318     		add	r3, r2, r3
 1985 004e 1B01     		lsl	r3, r3, #4
 1986 0050 CB18     		add	r3, r1, r3
 1987 0052 7A68     		ldr	r2, [r7, #4]
 1988 0054 5A60     		str	r2, [r3, #4]
 908:Generated_Source\PSoC4/CyDMA.c **** }
 1989              		.loc 1 908 0
ARM GAS  C:\Users\fneves\AppData\Local\Temp\ccoNsDRu.s 			page 52


 1990 0056 BD46     		mov	sp, r7
 1991 0058 04B0     		add	sp, sp, #16
 1992              		@ sp needed
 1993 005a 80BD     		pop	{r7, pc}
 1994              	.L195:
 1995              		.align	2
 1996              	.L194:
 1997 005c 00181040 		.word	1074796544
 1998              		.cfi_endproc
 1999              	.LFE31:
 2000              		.size	CyDmaSetDstAddress, .-CyDmaSetDstAddress
 2001              		.section	.text.CyDmaGetDstAddress,"ax",%progbits
 2002              		.align	2
 2003              		.global	CyDmaGetDstAddress
 2004              		.code	16
 2005              		.thumb_func
 2006              		.type	CyDmaGetDstAddress, %function
 2007              	CyDmaGetDstAddress:
 2008              	.LFB32:
 909:Generated_Source\PSoC4/CyDMA.c **** 
 910:Generated_Source\PSoC4/CyDMA.c **** 
 911:Generated_Source\PSoC4/CyDMA.c **** /*******************************************************************************
 912:Generated_Source\PSoC4/CyDMA.c **** * Function Name: CyDmaGetDstAddress
 913:Generated_Source\PSoC4/CyDMA.c **** ********************************************************************************
 914:Generated_Source\PSoC4/CyDMA.c **** *
 915:Generated_Source\PSoC4/CyDMA.c **** * Summary:
 916:Generated_Source\PSoC4/CyDMA.c **** *  Returns the destination address for the specified descriptor, set by 
 917:Generated_Source\PSoC4/CyDMA.c **** *  CyDmaSetDstAddress().
 918:Generated_Source\PSoC4/CyDMA.c **** *
 919:Generated_Source\PSoC4/CyDMA.c **** * Parameters:
 920:Generated_Source\PSoC4/CyDMA.c **** *  channel:    Channel used by this function.
 921:Generated_Source\PSoC4/CyDMA.c **** *  descriptor: Specifies descriptor (0 or 1) used by this function.
 922:Generated_Source\PSoC4/CyDMA.c **** *                   
 923:Generated_Source\PSoC4/CyDMA.c **** * Return:
 924:Generated_Source\PSoC4/CyDMA.c **** *  Destination address written to specified descriptor.
 925:Generated_Source\PSoC4/CyDMA.c **** *
 926:Generated_Source\PSoC4/CyDMA.c **** *******************************************************************************/
 927:Generated_Source\PSoC4/CyDMA.c **** void * CyDmaGetDstAddress(int32 channel, int32 descriptor)
 928:Generated_Source\PSoC4/CyDMA.c **** {
 2009              		.loc 1 928 0
 2010              		.cfi_startproc
 2011 0000 80B5     		push	{r7, lr}
 2012              		.cfi_def_cfa_offset 8
 2013              		.cfi_offset 7, -8
 2014              		.cfi_offset 14, -4
 2015 0002 82B0     		sub	sp, sp, #8
 2016              		.cfi_def_cfa_offset 16
 2017 0004 00AF     		add	r7, sp, #0
 2018              		.cfi_def_cfa_register 7
 2019 0006 7860     		str	r0, [r7, #4]
 2020 0008 3960     		str	r1, [r7]
 929:Generated_Source\PSoC4/CyDMA.c ****     CYASSERT((channel    >= 0) && (channel    < CYDMA_CH_NR));
 2021              		.loc 1 929 0
 2022 000a 7B68     		ldr	r3, [r7, #4]
 2023 000c 002B     		cmp	r3, #0
 2024 000e 04DB     		blt	.L197
 2025              		.loc 1 929 0 is_stmt 0 discriminator 1
ARM GAS  C:\Users\fneves\AppData\Local\Temp\ccoNsDRu.s 			page 53


 2026 0010 7B68     		ldr	r3, [r7, #4]
 2027 0012 072B     		cmp	r3, #7
 2028 0014 01DC     		bgt	.L197
 2029              		.loc 1 929 0 discriminator 3
 2030 0016 0123     		mov	r3, #1
 2031 0018 00E0     		b	.L198
 2032              	.L197:
 2033              		.loc 1 929 0 discriminator 4
 2034 001a 0023     		mov	r3, #0
 2035              	.L198:
 2036              		.loc 1 929 0 discriminator 6
 2037 001c 002B     		cmp	r3, #0
 2038 001e 02D1     		bne	.L199
 2039              		.loc 1 929 0 discriminator 7
 2040 0020 0020     		mov	r0, #0
 2041 0022 FFF7FEFF 		bl	CyHalt
 2042              	.L199:
 930:Generated_Source\PSoC4/CyDMA.c ****     CYASSERT((descriptor >= 0) && (descriptor < CYDMA_DESCR_NR));
 2043              		.loc 1 930 0 is_stmt 1
 2044 0026 3B68     		ldr	r3, [r7]
 2045 0028 002B     		cmp	r3, #0
 2046 002a 04DB     		blt	.L200
 2047              		.loc 1 930 0 is_stmt 0 discriminator 1
 2048 002c 3B68     		ldr	r3, [r7]
 2049 002e 012B     		cmp	r3, #1
 2050 0030 01DC     		bgt	.L200
 2051              		.loc 1 930 0 discriminator 3
 2052 0032 0123     		mov	r3, #1
 2053 0034 00E0     		b	.L201
 2054              	.L200:
 2055              		.loc 1 930 0 discriminator 4
 2056 0036 0023     		mov	r3, #0
 2057              	.L201:
 2058              		.loc 1 930 0 discriminator 6
 2059 0038 002B     		cmp	r3, #0
 2060 003a 02D1     		bne	.L202
 2061              		.loc 1 930 0 discriminator 7
 2062 003c 0020     		mov	r0, #0
 2063 003e FFF7FEFF 		bl	CyHalt
 2064              	.L202:
 931:Generated_Source\PSoC4/CyDMA.c **** 
 932:Generated_Source\PSoC4/CyDMA.c ****     return (CYDMA_DESCR_BASE.descriptor[channel][descriptor].dst);
 2065              		.loc 1 932 0 is_stmt 1
 2066 0042 0649     		ldr	r1, .L204
 2067 0044 7B68     		ldr	r3, [r7, #4]
 2068 0046 5A00     		lsl	r2, r3, #1
 2069 0048 3B68     		ldr	r3, [r7]
 2070 004a D318     		add	r3, r2, r3
 2071 004c 1B01     		lsl	r3, r3, #4
 2072 004e CB18     		add	r3, r1, r3
 2073 0050 5B68     		ldr	r3, [r3, #4]
 933:Generated_Source\PSoC4/CyDMA.c **** }
 2074              		.loc 1 933 0
 2075 0052 181C     		mov	r0, r3
 2076 0054 BD46     		mov	sp, r7
 2077 0056 02B0     		add	sp, sp, #8
 2078              		@ sp needed
ARM GAS  C:\Users\fneves\AppData\Local\Temp\ccoNsDRu.s 			page 54


 2079 0058 80BD     		pop	{r7, pc}
 2080              	.L205:
 2081 005a C046     		.align	2
 2082              	.L204:
 2083 005c 00181040 		.word	1074796544
 2084              		.cfi_endproc
 2085              	.LFE32:
 2086              		.size	CyDmaGetDstAddress, .-CyDmaGetDstAddress
 2087              		.section	.text.CyDmaSetDataElementSize,"ax",%progbits
 2088              		.align	2
 2089              		.global	CyDmaSetDataElementSize
 2090              		.code	16
 2091              		.thumb_func
 2092              		.type	CyDmaSetDataElementSize, %function
 2093              	CyDmaSetDataElementSize:
 2094              	.LFB33:
 934:Generated_Source\PSoC4/CyDMA.c **** 
 935:Generated_Source\PSoC4/CyDMA.c **** /*******************************************************************************
 936:Generated_Source\PSoC4/CyDMA.c **** * Function Name: CyDmaSetDataElementSize
 937:Generated_Source\PSoC4/CyDMA.c **** ********************************************************************************
 938:Generated_Source\PSoC4/CyDMA.c **** *
 939:Generated_Source\PSoC4/CyDMA.c **** * Summary:
 940:Generated_Source\PSoC4/CyDMA.c **** *  Sets the data element size for the specified descriptor.
 941:Generated_Source\PSoC4/CyDMA.c **** *
 942:Generated_Source\PSoC4/CyDMA.c **** * Parameters:
 943:Generated_Source\PSoC4/CyDMA.c **** *  channel:         Channel used by this function.
 944:Generated_Source\PSoC4/CyDMA.c **** *  descriptor:      Descriptor (0 or 1) modified by this function.
 945:Generated_Source\PSoC4/CyDMA.c **** *  dataElementSize: Specifies the size of the data element. The DMA transfer
 946:Generated_Source\PSoC4/CyDMA.c **** *                   engine transfers one data element at a time. How these
 947:Generated_Source\PSoC4/CyDMA.c **** *                   transfers occur is controlled by the transfer mode.
 948:Generated_Source\PSoC4/CyDMA.c **** *                   Refer to the API bit field definitions in CyDMA_P4.h
 949:Generated_Source\PSoC4/CyDMA.c **** *                   or API description in the DMA channel datasheet for the 
 950:Generated_Source\PSoC4/CyDMA.c **** *                   parameter options.
 951:Generated_Source\PSoC4/CyDMA.c **** *
 952:Generated_Source\PSoC4/CyDMA.c **** * Return:
 953:Generated_Source\PSoC4/CyDMA.c **** *  None.
 954:Generated_Source\PSoC4/CyDMA.c **** *
 955:Generated_Source\PSoC4/CyDMA.c **** * Side effect:
 956:Generated_Source\PSoC4/CyDMA.c **** *  This function should not be called when the specified descriptor is active
 957:Generated_Source\PSoC4/CyDMA.c **** *  in the DMA transfer engine. This can be checked by calling CyDmaGetStatus(). 
 958:Generated_Source\PSoC4/CyDMA.c **** *
 959:Generated_Source\PSoC4/CyDMA.c **** *******************************************************************************/
 960:Generated_Source\PSoC4/CyDMA.c **** void CyDmaSetDataElementSize(int32 channel, int32 descriptor, uint32 dataElementSize)
 961:Generated_Source\PSoC4/CyDMA.c **** {
 2095              		.loc 1 961 0
 2096              		.cfi_startproc
 2097 0000 80B5     		push	{r7, lr}
 2098              		.cfi_def_cfa_offset 8
 2099              		.cfi_offset 7, -8
 2100              		.cfi_offset 14, -4
 2101 0002 86B0     		sub	sp, sp, #24
 2102              		.cfi_def_cfa_offset 32
 2103 0004 00AF     		add	r7, sp, #0
 2104              		.cfi_def_cfa_register 7
 2105 0006 F860     		str	r0, [r7, #12]
 2106 0008 B960     		str	r1, [r7, #8]
 2107 000a 7A60     		str	r2, [r7, #4]
ARM GAS  C:\Users\fneves\AppData\Local\Temp\ccoNsDRu.s 			page 55


 962:Generated_Source\PSoC4/CyDMA.c ****     uint32 regValue;
 963:Generated_Source\PSoC4/CyDMA.c ****     
 964:Generated_Source\PSoC4/CyDMA.c ****     CYASSERT((channel    >= 0) && (channel    < CYDMA_CH_NR));
 2108              		.loc 1 964 0
 2109 000c FB68     		ldr	r3, [r7, #12]
 2110 000e 002B     		cmp	r3, #0
 2111 0010 04DB     		blt	.L207
 2112              		.loc 1 964 0 is_stmt 0 discriminator 1
 2113 0012 FB68     		ldr	r3, [r7, #12]
 2114 0014 072B     		cmp	r3, #7
 2115 0016 01DC     		bgt	.L207
 2116              		.loc 1 964 0 discriminator 3
 2117 0018 0123     		mov	r3, #1
 2118 001a 00E0     		b	.L208
 2119              	.L207:
 2120              		.loc 1 964 0 discriminator 4
 2121 001c 0023     		mov	r3, #0
 2122              	.L208:
 2123              		.loc 1 964 0 discriminator 6
 2124 001e 002B     		cmp	r3, #0
 2125 0020 02D1     		bne	.L209
 2126              		.loc 1 964 0 discriminator 7
 2127 0022 0020     		mov	r0, #0
 2128 0024 FFF7FEFF 		bl	CyHalt
 2129              	.L209:
 965:Generated_Source\PSoC4/CyDMA.c ****     CYASSERT((descriptor >= 0) && (descriptor < CYDMA_DESCR_NR));
 2130              		.loc 1 965 0 is_stmt 1
 2131 0028 BB68     		ldr	r3, [r7, #8]
 2132 002a 002B     		cmp	r3, #0
 2133 002c 04DB     		blt	.L210
 2134              		.loc 1 965 0 is_stmt 0 discriminator 1
 2135 002e BB68     		ldr	r3, [r7, #8]
 2136 0030 012B     		cmp	r3, #1
 2137 0032 01DC     		bgt	.L210
 2138              		.loc 1 965 0 discriminator 3
 2139 0034 0123     		mov	r3, #1
 2140 0036 00E0     		b	.L211
 2141              	.L210:
 2142              		.loc 1 965 0 discriminator 4
 2143 0038 0023     		mov	r3, #0
 2144              	.L211:
 2145              		.loc 1 965 0 discriminator 6
 2146 003a 002B     		cmp	r3, #0
 2147 003c 02D1     		bne	.L212
 2148              		.loc 1 965 0 discriminator 7
 2149 003e 0020     		mov	r0, #0
 2150 0040 FFF7FEFF 		bl	CyHalt
 2151              	.L212:
 966:Generated_Source\PSoC4/CyDMA.c ****     CYASSERT(0u == (dataElementSize & (uint32)~CYDMA_DATA_SIZE));
 2152              		.loc 1 966 0 is_stmt 1
 2153 0044 7B68     		ldr	r3, [r7, #4]
 2154 0046 104A     		ldr	r2, .L214
 2155 0048 1340     		and	r3, r2
 2156 004a 02D0     		beq	.L213
 2157              		.loc 1 966 0 is_stmt 0 discriminator 1
 2158 004c 0020     		mov	r0, #0
 2159 004e FFF7FEFF 		bl	CyHalt
ARM GAS  C:\Users\fneves\AppData\Local\Temp\ccoNsDRu.s 			page 56


 2160              	.L213:
 967:Generated_Source\PSoC4/CyDMA.c **** 
 968:Generated_Source\PSoC4/CyDMA.c ****     regValue = CYDMA_DESCR_BASE.descriptor[channel][descriptor].ctl & (uint32)~CYDMA_DATA_SIZE;
 2161              		.loc 1 968 0 is_stmt 1
 2162 0052 0E49     		ldr	r1, .L214+4
 2163 0054 FB68     		ldr	r3, [r7, #12]
 2164 0056 5A00     		lsl	r2, r3, #1
 2165 0058 BB68     		ldr	r3, [r7, #8]
 2166 005a D318     		add	r3, r2, r3
 2167 005c 1B01     		lsl	r3, r3, #4
 2168 005e CB18     		add	r3, r1, r3
 2169 0060 0833     		add	r3, r3, #8
 2170 0062 1B68     		ldr	r3, [r3]
 2171 0064 084A     		ldr	r2, .L214
 2172 0066 1340     		and	r3, r2
 2173 0068 7B61     		str	r3, [r7, #20]
 969:Generated_Source\PSoC4/CyDMA.c ****     CYDMA_DESCR_BASE.descriptor[channel][descriptor].ctl = regValue | dataElementSize;
 2174              		.loc 1 969 0
 2175 006a 0848     		ldr	r0, .L214+4
 2176 006c 7A69     		ldr	r2, [r7, #20]
 2177 006e 7B68     		ldr	r3, [r7, #4]
 2178 0070 1A43     		orr	r2, r3
 2179 0072 FB68     		ldr	r3, [r7, #12]
 2180 0074 5900     		lsl	r1, r3, #1
 2181 0076 BB68     		ldr	r3, [r7, #8]
 2182 0078 CB18     		add	r3, r1, r3
 2183 007a 1B01     		lsl	r3, r3, #4
 2184 007c C318     		add	r3, r0, r3
 2185 007e 0833     		add	r3, r3, #8
 2186 0080 1A60     		str	r2, [r3]
 970:Generated_Source\PSoC4/CyDMA.c **** }
 2187              		.loc 1 970 0
 2188 0082 BD46     		mov	sp, r7
 2189 0084 06B0     		add	sp, sp, #24
 2190              		@ sp needed
 2191 0086 80BD     		pop	{r7, pc}
 2192              	.L215:
 2193              		.align	2
 2194              	.L214:
 2195 0088 FFFFFCFF 		.word	-196609
 2196 008c 00181040 		.word	1074796544
 2197              		.cfi_endproc
 2198              	.LFE33:
 2199              		.size	CyDmaSetDataElementSize, .-CyDmaSetDataElementSize
 2200              		.section	.text.CyDmaGetDataElementSize,"ax",%progbits
 2201              		.align	2
 2202              		.global	CyDmaGetDataElementSize
 2203              		.code	16
 2204              		.thumb_func
 2205              		.type	CyDmaGetDataElementSize, %function
 2206              	CyDmaGetDataElementSize:
 2207              	.LFB34:
 971:Generated_Source\PSoC4/CyDMA.c **** 
 972:Generated_Source\PSoC4/CyDMA.c **** 
 973:Generated_Source\PSoC4/CyDMA.c **** /*******************************************************************************
 974:Generated_Source\PSoC4/CyDMA.c **** * Function Name: CyDmaGetDataElementSize
 975:Generated_Source\PSoC4/CyDMA.c **** ********************************************************************************
ARM GAS  C:\Users\fneves\AppData\Local\Temp\ccoNsDRu.s 			page 57


 976:Generated_Source\PSoC4/CyDMA.c **** *
 977:Generated_Source\PSoC4/CyDMA.c **** * Summary:
 978:Generated_Source\PSoC4/CyDMA.c **** *  Returns the data element size configured for the specified descriptor, set by
 979:Generated_Source\PSoC4/CyDMA.c **** *  CyDmaSetDataElementSize() or CyDmaSetConfiguration.
 980:Generated_Source\PSoC4/CyDMA.c **** *
 981:Generated_Source\PSoC4/CyDMA.c **** * Parameters:
 982:Generated_Source\PSoC4/CyDMA.c **** *  channel:    Channel used by this function.
 983:Generated_Source\PSoC4/CyDMA.c **** *  descriptor: Descriptor (0 or 1) modified by this function.
 984:Generated_Source\PSoC4/CyDMA.c **** *                   
 985:Generated_Source\PSoC4/CyDMA.c **** * Return:
 986:Generated_Source\PSoC4/CyDMA.c **** *  The size of the data element. The DMA transfer engine transfers one data
 987:Generated_Source\PSoC4/CyDMA.c **** *  element at a time. How these transfers occur is controlled by the transfer
 988:Generated_Source\PSoC4/CyDMA.c **** *  mode. Refer to the API bit field definitions in CyDMA_P4.h or the API 
 989:Generated_Source\PSoC4/CyDMA.c **** *  description in the DMA channel datasheet for more information.
 990:Generated_Source\PSoC4/CyDMA.c **** *
 991:Generated_Source\PSoC4/CyDMA.c **** * Note:
 992:Generated_Source\PSoC4/CyDMA.c **** *  The size of the source and destination can be configured to use the
 993:Generated_Source\PSoC4/CyDMA.c **** *  data element size, or a Word, this is set in CyDmaSetSrcDstTransferWidth().
 994:Generated_Source\PSoC4/CyDMA.c **** *
 995:Generated_Source\PSoC4/CyDMA.c **** *******************************************************************************/
 996:Generated_Source\PSoC4/CyDMA.c **** uint32 CyDmaGetDataElementSize(int32 channel, int32 descriptor)
 997:Generated_Source\PSoC4/CyDMA.c **** {
 2208              		.loc 1 997 0
 2209              		.cfi_startproc
 2210 0000 80B5     		push	{r7, lr}
 2211              		.cfi_def_cfa_offset 8
 2212              		.cfi_offset 7, -8
 2213              		.cfi_offset 14, -4
 2214 0002 82B0     		sub	sp, sp, #8
 2215              		.cfi_def_cfa_offset 16
 2216 0004 00AF     		add	r7, sp, #0
 2217              		.cfi_def_cfa_register 7
 2218 0006 7860     		str	r0, [r7, #4]
 2219 0008 3960     		str	r1, [r7]
 998:Generated_Source\PSoC4/CyDMA.c ****     CYASSERT((channel    >= 0) && (channel    < CYDMA_CH_NR));
 2220              		.loc 1 998 0
 2221 000a 7B68     		ldr	r3, [r7, #4]
 2222 000c 002B     		cmp	r3, #0
 2223 000e 04DB     		blt	.L217
 2224              		.loc 1 998 0 is_stmt 0 discriminator 1
 2225 0010 7B68     		ldr	r3, [r7, #4]
 2226 0012 072B     		cmp	r3, #7
 2227 0014 01DC     		bgt	.L217
 2228              		.loc 1 998 0 discriminator 3
 2229 0016 0123     		mov	r3, #1
 2230 0018 00E0     		b	.L218
 2231              	.L217:
 2232              		.loc 1 998 0 discriminator 4
 2233 001a 0023     		mov	r3, #0
 2234              	.L218:
 2235              		.loc 1 998 0 discriminator 6
 2236 001c 002B     		cmp	r3, #0
 2237 001e 02D1     		bne	.L219
 2238              		.loc 1 998 0 discriminator 7
 2239 0020 0020     		mov	r0, #0
 2240 0022 FFF7FEFF 		bl	CyHalt
 2241              	.L219:
ARM GAS  C:\Users\fneves\AppData\Local\Temp\ccoNsDRu.s 			page 58


 999:Generated_Source\PSoC4/CyDMA.c ****     CYASSERT((descriptor >= 0) && (descriptor < CYDMA_DESCR_NR));
 2242              		.loc 1 999 0 is_stmt 1
 2243 0026 3B68     		ldr	r3, [r7]
 2244 0028 002B     		cmp	r3, #0
 2245 002a 04DB     		blt	.L220
 2246              		.loc 1 999 0 is_stmt 0 discriminator 1
 2247 002c 3B68     		ldr	r3, [r7]
 2248 002e 012B     		cmp	r3, #1
 2249 0030 01DC     		bgt	.L220
 2250              		.loc 1 999 0 discriminator 3
 2251 0032 0123     		mov	r3, #1
 2252 0034 00E0     		b	.L221
 2253              	.L220:
 2254              		.loc 1 999 0 discriminator 4
 2255 0036 0023     		mov	r3, #0
 2256              	.L221:
 2257              		.loc 1 999 0 discriminator 6
 2258 0038 002B     		cmp	r3, #0
 2259 003a 02D1     		bne	.L222
 2260              		.loc 1 999 0 discriminator 7
 2261 003c 0020     		mov	r0, #0
 2262 003e FFF7FEFF 		bl	CyHalt
 2263              	.L222:
1000:Generated_Source\PSoC4/CyDMA.c **** 
1001:Generated_Source\PSoC4/CyDMA.c ****     return (CYDMA_DESCR_BASE.descriptor[channel][descriptor].ctl & CYDMA_DATA_SIZE);
 2264              		.loc 1 1001 0 is_stmt 1
 2265 0042 0849     		ldr	r1, .L224
 2266 0044 7B68     		ldr	r3, [r7, #4]
 2267 0046 5A00     		lsl	r2, r3, #1
 2268 0048 3B68     		ldr	r3, [r7]
 2269 004a D318     		add	r3, r2, r3
 2270 004c 1B01     		lsl	r3, r3, #4
 2271 004e CB18     		add	r3, r1, r3
 2272 0050 0833     		add	r3, r3, #8
 2273 0052 1A68     		ldr	r2, [r3]
 2274 0054 C023     		mov	r3, #192
 2275 0056 9B02     		lsl	r3, r3, #10
 2276 0058 1340     		and	r3, r2
1002:Generated_Source\PSoC4/CyDMA.c **** }
 2277              		.loc 1 1002 0
 2278 005a 181C     		mov	r0, r3
 2279 005c BD46     		mov	sp, r7
 2280 005e 02B0     		add	sp, sp, #8
 2281              		@ sp needed
 2282 0060 80BD     		pop	{r7, pc}
 2283              	.L225:
 2284 0062 C046     		.align	2
 2285              	.L224:
 2286 0064 00181040 		.word	1074796544
 2287              		.cfi_endproc
 2288              	.LFE34:
 2289              		.size	CyDmaGetDataElementSize, .-CyDmaGetDataElementSize
 2290              		.section	.text.CyDmaSetNumDataElements,"ax",%progbits
 2291              		.align	2
 2292              		.global	CyDmaSetNumDataElements
 2293              		.code	16
 2294              		.thumb_func
ARM GAS  C:\Users\fneves\AppData\Local\Temp\ccoNsDRu.s 			page 59


 2295              		.type	CyDmaSetNumDataElements, %function
 2296              	CyDmaSetNumDataElements:
 2297              	.LFB35:
1003:Generated_Source\PSoC4/CyDMA.c **** 
1004:Generated_Source\PSoC4/CyDMA.c **** 
1005:Generated_Source\PSoC4/CyDMA.c **** /*******************************************************************************
1006:Generated_Source\PSoC4/CyDMA.c **** * Function Name: CyDmaSetNumDataElements
1007:Generated_Source\PSoC4/CyDMA.c **** ********************************************************************************
1008:Generated_Source\PSoC4/CyDMA.c **** *
1009:Generated_Source\PSoC4/CyDMA.c **** * Summary:
1010:Generated_Source\PSoC4/CyDMA.c **** *  Sets the number of data elements to transfer for specified descriptor.
1011:Generated_Source\PSoC4/CyDMA.c **** *
1012:Generated_Source\PSoC4/CyDMA.c **** * Parameters:
1013:Generated_Source\PSoC4/CyDMA.c **** *  channel:         Channel used by this function.
1014:Generated_Source\PSoC4/CyDMA.c **** *  descriptor:      Descriptor (0 or 1) modified by this function.
1015:Generated_Source\PSoC4/CyDMA.c **** *  numDataElements: Total number of data elements this descriptor transfers.
1016:Generated_Source\PSoC4/CyDMA.c **** *                   Valid ranges are 1 to 65536.
1017:Generated_Source\PSoC4/CyDMA.c **** *                   
1018:Generated_Source\PSoC4/CyDMA.c **** * Return:
1019:Generated_Source\PSoC4/CyDMA.c **** *  None.
1020:Generated_Source\PSoC4/CyDMA.c **** *
1021:Generated_Source\PSoC4/CyDMA.c **** * Side effect:
1022:Generated_Source\PSoC4/CyDMA.c **** *  This function should not be called when the specified descriptor is active
1023:Generated_Source\PSoC4/CyDMA.c **** *  in the DMA transfer engine. This can be checked by calling CyDmaGetStatus(). 
1024:Generated_Source\PSoC4/CyDMA.c **** *
1025:Generated_Source\PSoC4/CyDMA.c **** *******************************************************************************/
1026:Generated_Source\PSoC4/CyDMA.c **** void CyDmaSetNumDataElements(int32 channel, int32 descriptor, int32 numDataElements)
1027:Generated_Source\PSoC4/CyDMA.c **** {
 2298              		.loc 1 1027 0
 2299              		.cfi_startproc
 2300 0000 80B5     		push	{r7, lr}
 2301              		.cfi_def_cfa_offset 8
 2302              		.cfi_offset 7, -8
 2303              		.cfi_offset 14, -4
 2304 0002 86B0     		sub	sp, sp, #24
 2305              		.cfi_def_cfa_offset 32
 2306 0004 00AF     		add	r7, sp, #0
 2307              		.cfi_def_cfa_register 7
 2308 0006 F860     		str	r0, [r7, #12]
 2309 0008 B960     		str	r1, [r7, #8]
 2310 000a 7A60     		str	r2, [r7, #4]
1028:Generated_Source\PSoC4/CyDMA.c ****     uint32 regValue;
1029:Generated_Source\PSoC4/CyDMA.c ****     
1030:Generated_Source\PSoC4/CyDMA.c ****     CYASSERT((channel        >= 0) && (channel         <  CYDMA_CH_NR));
 2311              		.loc 1 1030 0
 2312 000c FB68     		ldr	r3, [r7, #12]
 2313 000e 002B     		cmp	r3, #0
 2314 0010 04DB     		blt	.L227
 2315              		.loc 1 1030 0 is_stmt 0 discriminator 1
 2316 0012 FB68     		ldr	r3, [r7, #12]
 2317 0014 072B     		cmp	r3, #7
 2318 0016 01DC     		bgt	.L227
 2319              		.loc 1 1030 0 discriminator 3
 2320 0018 0123     		mov	r3, #1
 2321 001a 00E0     		b	.L228
 2322              	.L227:
 2323              		.loc 1 1030 0 discriminator 4
ARM GAS  C:\Users\fneves\AppData\Local\Temp\ccoNsDRu.s 			page 60


 2324 001c 0023     		mov	r3, #0
 2325              	.L228:
 2326              		.loc 1 1030 0 discriminator 6
 2327 001e 002B     		cmp	r3, #0
 2328 0020 02D1     		bne	.L229
 2329              		.loc 1 1030 0 discriminator 7
 2330 0022 0020     		mov	r0, #0
 2331 0024 FFF7FEFF 		bl	CyHalt
 2332              	.L229:
1031:Generated_Source\PSoC4/CyDMA.c ****     CYASSERT((descriptor     >= 0) && (descriptor      <  CYDMA_DESCR_NR));
 2333              		.loc 1 1031 0 is_stmt 1
 2334 0028 BB68     		ldr	r3, [r7, #8]
 2335 002a 002B     		cmp	r3, #0
 2336 002c 04DB     		blt	.L230
 2337              		.loc 1 1031 0 is_stmt 0 discriminator 1
 2338 002e BB68     		ldr	r3, [r7, #8]
 2339 0030 012B     		cmp	r3, #1
 2340 0032 01DC     		bgt	.L230
 2341              		.loc 1 1031 0 discriminator 3
 2342 0034 0123     		mov	r3, #1
 2343 0036 00E0     		b	.L231
 2344              	.L230:
 2345              		.loc 1 1031 0 discriminator 4
 2346 0038 0023     		mov	r3, #0
 2347              	.L231:
 2348              		.loc 1 1031 0 discriminator 6
 2349 003a 002B     		cmp	r3, #0
 2350 003c 02D1     		bne	.L232
 2351              		.loc 1 1031 0 discriminator 7
 2352 003e 0020     		mov	r0, #0
 2353 0040 FFF7FEFF 		bl	CyHalt
 2354              	.L232:
1032:Generated_Source\PSoC4/CyDMA.c ****     CYASSERT((numDataElements > 0) && (numDataElements <= CYDMA_MAX_DATA_NR));
 2355              		.loc 1 1032 0 is_stmt 1
 2356 0044 7B68     		ldr	r3, [r7, #4]
 2357 0046 002B     		cmp	r3, #0
 2358 0048 06DD     		ble	.L233
 2359              		.loc 1 1032 0 is_stmt 0 discriminator 1
 2360 004a 7A68     		ldr	r2, [r7, #4]
 2361 004c 8023     		mov	r3, #128
 2362 004e 5B02     		lsl	r3, r3, #9
 2363 0050 9A42     		cmp	r2, r3
 2364 0052 01DC     		bgt	.L233
 2365              		.loc 1 1032 0 discriminator 3
 2366 0054 0123     		mov	r3, #1
 2367 0056 00E0     		b	.L234
 2368              	.L233:
 2369              		.loc 1 1032 0 discriminator 4
 2370 0058 0023     		mov	r3, #0
 2371              	.L234:
 2372              		.loc 1 1032 0 discriminator 6
 2373 005a 002B     		cmp	r3, #0
 2374 005c 02D1     		bne	.L235
 2375              		.loc 1 1032 0 discriminator 7
 2376 005e 0020     		mov	r0, #0
 2377 0060 FFF7FEFF 		bl	CyHalt
 2378              	.L235:
ARM GAS  C:\Users\fneves\AppData\Local\Temp\ccoNsDRu.s 			page 61


1033:Generated_Source\PSoC4/CyDMA.c ****     
1034:Generated_Source\PSoC4/CyDMA.c ****     --numDataElements;
 2379              		.loc 1 1034 0 is_stmt 1
 2380 0064 7B68     		ldr	r3, [r7, #4]
 2381 0066 013B     		sub	r3, r3, #1
 2382 0068 7B60     		str	r3, [r7, #4]
1035:Generated_Source\PSoC4/CyDMA.c ****     regValue = CYDMA_DESCR_BASE.descriptor[channel][descriptor].ctl & (uint32)~CYDMA_DATA_NR;
 2383              		.loc 1 1035 0
 2384 006a 0D49     		ldr	r1, .L236
 2385 006c FB68     		ldr	r3, [r7, #12]
 2386 006e 5A00     		lsl	r2, r3, #1
 2387 0070 BB68     		ldr	r3, [r7, #8]
 2388 0072 D318     		add	r3, r2, r3
 2389 0074 1B01     		lsl	r3, r3, #4
 2390 0076 CB18     		add	r3, r1, r3
 2391 0078 0833     		add	r3, r3, #8
 2392 007a 1B68     		ldr	r3, [r3]
 2393 007c 1B0C     		lsr	r3, r3, #16
 2394 007e 1B04     		lsl	r3, r3, #16
 2395 0080 7B61     		str	r3, [r7, #20]
1036:Generated_Source\PSoC4/CyDMA.c ****     CYDMA_DESCR_BASE.descriptor[channel][descriptor].ctl = regValue | (uint32)numDataElements;
 2396              		.loc 1 1036 0
 2397 0082 0748     		ldr	r0, .L236
 2398 0084 7A68     		ldr	r2, [r7, #4]
 2399 0086 7B69     		ldr	r3, [r7, #20]
 2400 0088 1A43     		orr	r2, r3
 2401 008a FB68     		ldr	r3, [r7, #12]
 2402 008c 5900     		lsl	r1, r3, #1
 2403 008e BB68     		ldr	r3, [r7, #8]
 2404 0090 CB18     		add	r3, r1, r3
 2405 0092 1B01     		lsl	r3, r3, #4
 2406 0094 C318     		add	r3, r0, r3
 2407 0096 0833     		add	r3, r3, #8
 2408 0098 1A60     		str	r2, [r3]
1037:Generated_Source\PSoC4/CyDMA.c **** }
 2409              		.loc 1 1037 0
 2410 009a BD46     		mov	sp, r7
 2411 009c 06B0     		add	sp, sp, #24
 2412              		@ sp needed
 2413 009e 80BD     		pop	{r7, pc}
 2414              	.L237:
 2415              		.align	2
 2416              	.L236:
 2417 00a0 00181040 		.word	1074796544
 2418              		.cfi_endproc
 2419              	.LFE35:
 2420              		.size	CyDmaSetNumDataElements, .-CyDmaSetNumDataElements
 2421              		.section	.text.CyDmaGetNumDataElements,"ax",%progbits
 2422              		.align	2
 2423              		.global	CyDmaGetNumDataElements
 2424              		.code	16
 2425              		.thumb_func
 2426              		.type	CyDmaGetNumDataElements, %function
 2427              	CyDmaGetNumDataElements:
 2428              	.LFB36:
1038:Generated_Source\PSoC4/CyDMA.c **** 
1039:Generated_Source\PSoC4/CyDMA.c **** 
ARM GAS  C:\Users\fneves\AppData\Local\Temp\ccoNsDRu.s 			page 62


1040:Generated_Source\PSoC4/CyDMA.c **** /*******************************************************************************
1041:Generated_Source\PSoC4/CyDMA.c **** * Function Name: CyDmaGetNumDataElements
1042:Generated_Source\PSoC4/CyDMA.c **** ********************************************************************************
1043:Generated_Source\PSoC4/CyDMA.c **** *
1044:Generated_Source\PSoC4/CyDMA.c **** * Summary:
1045:Generated_Source\PSoC4/CyDMA.c **** *  Returns the number of data elements to be transferred. Only reflects the
1046:Generated_Source\PSoC4/CyDMA.c **** *  value written by CyDmaSetNumDataElements() or CyDmaSetConfiguration(). This
1047:Generated_Source\PSoC4/CyDMA.c **** *  does not reflect how many elements have been transferred. For that
1048:Generated_Source\PSoC4/CyDMA.c **** *  information use the CyDmaGetDescriptorStatus() function.
1049:Generated_Source\PSoC4/CyDMA.c **** *
1050:Generated_Source\PSoC4/CyDMA.c **** * Parameters:
1051:Generated_Source\PSoC4/CyDMA.c **** *  channel:    Channel used by this function.
1052:Generated_Source\PSoC4/CyDMA.c **** *  descriptor: Descriptor (0 or 1) modified by this function.
1053:Generated_Source\PSoC4/CyDMA.c **** *                   
1054:Generated_Source\PSoC4/CyDMA.c **** * Return:
1055:Generated_Source\PSoC4/CyDMA.c **** *  Number of data elements to transfer.
1056:Generated_Source\PSoC4/CyDMA.c **** *
1057:Generated_Source\PSoC4/CyDMA.c **** *******************************************************************************/
1058:Generated_Source\PSoC4/CyDMA.c **** int32 CyDmaGetNumDataElements(int32 channel, int32 descriptor)
1059:Generated_Source\PSoC4/CyDMA.c **** {
 2429              		.loc 1 1059 0
 2430              		.cfi_startproc
 2431 0000 80B5     		push	{r7, lr}
 2432              		.cfi_def_cfa_offset 8
 2433              		.cfi_offset 7, -8
 2434              		.cfi_offset 14, -4
 2435 0002 84B0     		sub	sp, sp, #16
 2436              		.cfi_def_cfa_offset 24
 2437 0004 00AF     		add	r7, sp, #0
 2438              		.cfi_def_cfa_register 7
 2439 0006 7860     		str	r0, [r7, #4]
 2440 0008 3960     		str	r1, [r7]
1060:Generated_Source\PSoC4/CyDMA.c ****     uint32 numElements;
1061:Generated_Source\PSoC4/CyDMA.c **** 
1062:Generated_Source\PSoC4/CyDMA.c ****     CYASSERT((channel    >= 0) && (channel    < CYDMA_CH_NR));
 2441              		.loc 1 1062 0
 2442 000a 7B68     		ldr	r3, [r7, #4]
 2443 000c 002B     		cmp	r3, #0
 2444 000e 04DB     		blt	.L239
 2445              		.loc 1 1062 0 is_stmt 0 discriminator 1
 2446 0010 7B68     		ldr	r3, [r7, #4]
 2447 0012 072B     		cmp	r3, #7
 2448 0014 01DC     		bgt	.L239
 2449              		.loc 1 1062 0 discriminator 3
 2450 0016 0123     		mov	r3, #1
 2451 0018 00E0     		b	.L240
 2452              	.L239:
 2453              		.loc 1 1062 0 discriminator 4
 2454 001a 0023     		mov	r3, #0
 2455              	.L240:
 2456              		.loc 1 1062 0 discriminator 6
 2457 001c 002B     		cmp	r3, #0
 2458 001e 02D1     		bne	.L241
 2459              		.loc 1 1062 0 discriminator 7
 2460 0020 0020     		mov	r0, #0
 2461 0022 FFF7FEFF 		bl	CyHalt
 2462              	.L241:
ARM GAS  C:\Users\fneves\AppData\Local\Temp\ccoNsDRu.s 			page 63


1063:Generated_Source\PSoC4/CyDMA.c ****     CYASSERT((descriptor >= 0) && (descriptor < CYDMA_DESCR_NR));
 2463              		.loc 1 1063 0 is_stmt 1
 2464 0026 3B68     		ldr	r3, [r7]
 2465 0028 002B     		cmp	r3, #0
 2466 002a 04DB     		blt	.L242
 2467              		.loc 1 1063 0 is_stmt 0 discriminator 1
 2468 002c 3B68     		ldr	r3, [r7]
 2469 002e 012B     		cmp	r3, #1
 2470 0030 01DC     		bgt	.L242
 2471              		.loc 1 1063 0 discriminator 3
 2472 0032 0123     		mov	r3, #1
 2473 0034 00E0     		b	.L243
 2474              	.L242:
 2475              		.loc 1 1063 0 discriminator 4
 2476 0036 0023     		mov	r3, #0
 2477              	.L243:
 2478              		.loc 1 1063 0 discriminator 6
 2479 0038 002B     		cmp	r3, #0
 2480 003a 02D1     		bne	.L244
 2481              		.loc 1 1063 0 discriminator 7
 2482 003c 0020     		mov	r0, #0
 2483 003e FFF7FEFF 		bl	CyHalt
 2484              	.L244:
1064:Generated_Source\PSoC4/CyDMA.c ****     
1065:Generated_Source\PSoC4/CyDMA.c ****     numElements = (CYDMA_DESCR_BASE.descriptor[channel][descriptor].ctl & CYDMA_DATA_NR) + 1u;
 2485              		.loc 1 1065 0 is_stmt 1
 2486 0042 0949     		ldr	r1, .L246
 2487 0044 7B68     		ldr	r3, [r7, #4]
 2488 0046 5A00     		lsl	r2, r3, #1
 2489 0048 3B68     		ldr	r3, [r7]
 2490 004a D318     		add	r3, r2, r3
 2491 004c 1B01     		lsl	r3, r3, #4
 2492 004e CB18     		add	r3, r1, r3
 2493 0050 0833     		add	r3, r3, #8
 2494 0052 1B68     		ldr	r3, [r3]
 2495 0054 1B04     		lsl	r3, r3, #16
 2496 0056 1B0C     		lsr	r3, r3, #16
 2497 0058 0133     		add	r3, r3, #1
 2498 005a FB60     		str	r3, [r7, #12]
1066:Generated_Source\PSoC4/CyDMA.c ****     return ((int32)numElements);
 2499              		.loc 1 1066 0
 2500 005c FB68     		ldr	r3, [r7, #12]
1067:Generated_Source\PSoC4/CyDMA.c **** }
 2501              		.loc 1 1067 0
 2502 005e 181C     		mov	r0, r3
 2503 0060 BD46     		mov	sp, r7
 2504 0062 04B0     		add	sp, sp, #16
 2505              		@ sp needed
 2506 0064 80BD     		pop	{r7, pc}
 2507              	.L247:
 2508 0066 C046     		.align	2
 2509              	.L246:
 2510 0068 00181040 		.word	1074796544
 2511              		.cfi_endproc
 2512              	.LFE36:
 2513              		.size	CyDmaGetNumDataElements, .-CyDmaGetNumDataElements
 2514              		.section	.text.CyDmaSetSrcDstTransferWidth,"ax",%progbits
ARM GAS  C:\Users\fneves\AppData\Local\Temp\ccoNsDRu.s 			page 64


 2515              		.align	2
 2516              		.global	CyDmaSetSrcDstTransferWidth
 2517              		.code	16
 2518              		.thumb_func
 2519              		.type	CyDmaSetSrcDstTransferWidth, %function
 2520              	CyDmaSetSrcDstTransferWidth:
 2521              	.LFB37:
1068:Generated_Source\PSoC4/CyDMA.c **** 
1069:Generated_Source\PSoC4/CyDMA.c **** 
1070:Generated_Source\PSoC4/CyDMA.c **** /*******************************************************************************
1071:Generated_Source\PSoC4/CyDMA.c **** * Function Name: CyDmaSetSrcDstTransferWidth
1072:Generated_Source\PSoC4/CyDMA.c **** ********************************************************************************
1073:Generated_Source\PSoC4/CyDMA.c **** *
1074:Generated_Source\PSoC4/CyDMA.c **** * Summary:
1075:Generated_Source\PSoC4/CyDMA.c **** *  Sets the width of the source and destination. The DMA can either read and
1076:Generated_Source\PSoC4/CyDMA.c **** *  write data from the source and destination at the size specified by
1077:Generated_Source\PSoC4/CyDMA.c **** *  CyDmaSetDataElementSize() or by a word (4bytes). This also determines how
1078:Generated_Source\PSoC4/CyDMA.c **** *  many bytes the addresses are incremented if increment source and destination
1079:Generated_Source\PSoC4/CyDMA.c **** *  address are turned on.
1080:Generated_Source\PSoC4/CyDMA.c **** *
1081:Generated_Source\PSoC4/CyDMA.c **** * Parameters:
1082:Generated_Source\PSoC4/CyDMA.c **** *  channel:       Channel used by this function.
1083:Generated_Source\PSoC4/CyDMA.c **** *  descriptor:    Descriptor (0 or 1) modified by this function.
1084:Generated_Source\PSoC4/CyDMA.c **** *  transferWidth: Specifies the source and destination widths. Refer to 
1085:Generated_Source\PSoC4/CyDMA.c **** *                 the API bit field definitions in CyDMA_P4.h or the API
1086:Generated_Source\PSoC4/CyDMA.c **** *                 description in the DMA channel datasheet for the parameter
1087:Generated_Source\PSoC4/CyDMA.c **** *                 options.
1088:Generated_Source\PSoC4/CyDMA.c **** *                   
1089:Generated_Source\PSoC4/CyDMA.c **** * Return:
1090:Generated_Source\PSoC4/CyDMA.c **** *  None.
1091:Generated_Source\PSoC4/CyDMA.c **** *
1092:Generated_Source\PSoC4/CyDMA.c **** * Side effect:
1093:Generated_Source\PSoC4/CyDMA.c **** *  This function should not be called when the specified descriptor is active
1094:Generated_Source\PSoC4/CyDMA.c **** *  in the DMA transfer engine. This can be checked by calling CyDmaGetStatus(). 
1095:Generated_Source\PSoC4/CyDMA.c **** *
1096:Generated_Source\PSoC4/CyDMA.c **** *******************************************************************************/
1097:Generated_Source\PSoC4/CyDMA.c **** void CyDmaSetSrcDstTransferWidth(int32 channel, int32 descriptor, uint32 transferWidth)
1098:Generated_Source\PSoC4/CyDMA.c **** {
 2522              		.loc 1 1098 0
 2523              		.cfi_startproc
 2524 0000 80B5     		push	{r7, lr}
 2525              		.cfi_def_cfa_offset 8
 2526              		.cfi_offset 7, -8
 2527              		.cfi_offset 14, -4
 2528 0002 86B0     		sub	sp, sp, #24
 2529              		.cfi_def_cfa_offset 32
 2530 0004 00AF     		add	r7, sp, #0
 2531              		.cfi_def_cfa_register 7
 2532 0006 F860     		str	r0, [r7, #12]
 2533 0008 B960     		str	r1, [r7, #8]
 2534 000a 7A60     		str	r2, [r7, #4]
1099:Generated_Source\PSoC4/CyDMA.c ****     uint32 regValue;
1100:Generated_Source\PSoC4/CyDMA.c **** 
1101:Generated_Source\PSoC4/CyDMA.c ****     CYASSERT((channel    >= 0) && (channel    < CYDMA_CH_NR));
 2535              		.loc 1 1101 0
 2536 000c FB68     		ldr	r3, [r7, #12]
 2537 000e 002B     		cmp	r3, #0
ARM GAS  C:\Users\fneves\AppData\Local\Temp\ccoNsDRu.s 			page 65


 2538 0010 04DB     		blt	.L249
 2539              		.loc 1 1101 0 is_stmt 0 discriminator 1
 2540 0012 FB68     		ldr	r3, [r7, #12]
 2541 0014 072B     		cmp	r3, #7
 2542 0016 01DC     		bgt	.L249
 2543              		.loc 1 1101 0 discriminator 3
 2544 0018 0123     		mov	r3, #1
 2545 001a 00E0     		b	.L250
 2546              	.L249:
 2547              		.loc 1 1101 0 discriminator 4
 2548 001c 0023     		mov	r3, #0
 2549              	.L250:
 2550              		.loc 1 1101 0 discriminator 6
 2551 001e 002B     		cmp	r3, #0
 2552 0020 02D1     		bne	.L251
 2553              		.loc 1 1101 0 discriminator 7
 2554 0022 0020     		mov	r0, #0
 2555 0024 FFF7FEFF 		bl	CyHalt
 2556              	.L251:
1102:Generated_Source\PSoC4/CyDMA.c ****     CYASSERT((descriptor >= 0) && (descriptor < CYDMA_DESCR_NR));
 2557              		.loc 1 1102 0 is_stmt 1
 2558 0028 BB68     		ldr	r3, [r7, #8]
 2559 002a 002B     		cmp	r3, #0
 2560 002c 04DB     		blt	.L252
 2561              		.loc 1 1102 0 is_stmt 0 discriminator 1
 2562 002e BB68     		ldr	r3, [r7, #8]
 2563 0030 012B     		cmp	r3, #1
 2564 0032 01DC     		bgt	.L252
 2565              		.loc 1 1102 0 discriminator 3
 2566 0034 0123     		mov	r3, #1
 2567 0036 00E0     		b	.L253
 2568              	.L252:
 2569              		.loc 1 1102 0 discriminator 4
 2570 0038 0023     		mov	r3, #0
 2571              	.L253:
 2572              		.loc 1 1102 0 discriminator 6
 2573 003a 002B     		cmp	r3, #0
 2574 003c 02D1     		bne	.L254
 2575              		.loc 1 1102 0 discriminator 7
 2576 003e 0020     		mov	r0, #0
 2577 0040 FFF7FEFF 		bl	CyHalt
 2578              	.L254:
1103:Generated_Source\PSoC4/CyDMA.c ****     CYASSERT(0u == (transferWidth & (uint32)~CYDMA_TRANSFER_WIDTH));
 2579              		.loc 1 1103 0 is_stmt 1
 2580 0044 7B68     		ldr	r3, [r7, #4]
 2581 0046 104A     		ldr	r2, .L256
 2582 0048 1340     		and	r3, r2
 2583 004a 02D0     		beq	.L255
 2584              		.loc 1 1103 0 is_stmt 0 discriminator 1
 2585 004c 0020     		mov	r0, #0
 2586 004e FFF7FEFF 		bl	CyHalt
 2587              	.L255:
1104:Generated_Source\PSoC4/CyDMA.c **** 
1105:Generated_Source\PSoC4/CyDMA.c ****     regValue = CYDMA_DESCR_BASE.descriptor[channel][descriptor].ctl & (uint32)~CYDMA_TRANSFER_WIDTH
 2588              		.loc 1 1105 0 is_stmt 1
 2589 0052 0E49     		ldr	r1, .L256+4
 2590 0054 FB68     		ldr	r3, [r7, #12]
ARM GAS  C:\Users\fneves\AppData\Local\Temp\ccoNsDRu.s 			page 66


 2591 0056 5A00     		lsl	r2, r3, #1
 2592 0058 BB68     		ldr	r3, [r7, #8]
 2593 005a D318     		add	r3, r2, r3
 2594 005c 1B01     		lsl	r3, r3, #4
 2595 005e CB18     		add	r3, r1, r3
 2596 0060 0833     		add	r3, r3, #8
 2597 0062 1B68     		ldr	r3, [r3]
 2598 0064 084A     		ldr	r2, .L256
 2599 0066 1340     		and	r3, r2
 2600 0068 7B61     		str	r3, [r7, #20]
1106:Generated_Source\PSoC4/CyDMA.c ****     CYDMA_DESCR_BASE.descriptor[channel][descriptor].ctl = regValue | transferWidth;
 2601              		.loc 1 1106 0
 2602 006a 0848     		ldr	r0, .L256+4
 2603 006c 7A69     		ldr	r2, [r7, #20]
 2604 006e 7B68     		ldr	r3, [r7, #4]
 2605 0070 1A43     		orr	r2, r3
 2606 0072 FB68     		ldr	r3, [r7, #12]
 2607 0074 5900     		lsl	r1, r3, #1
 2608 0076 BB68     		ldr	r3, [r7, #8]
 2609 0078 CB18     		add	r3, r1, r3
 2610 007a 1B01     		lsl	r3, r3, #4
 2611 007c C318     		add	r3, r0, r3
 2612 007e 0833     		add	r3, r3, #8
 2613 0080 1A60     		str	r2, [r3]
1107:Generated_Source\PSoC4/CyDMA.c **** }
 2614              		.loc 1 1107 0
 2615 0082 BD46     		mov	sp, r7
 2616 0084 06B0     		add	sp, sp, #24
 2617              		@ sp needed
 2618 0086 80BD     		pop	{r7, pc}
 2619              	.L257:
 2620              		.align	2
 2621              	.L256:
 2622 0088 FFFFAFFF 		.word	-5242881
 2623 008c 00181040 		.word	1074796544
 2624              		.cfi_endproc
 2625              	.LFE37:
 2626              		.size	CyDmaSetSrcDstTransferWidth, .-CyDmaSetSrcDstTransferWidth
 2627              		.section	.text.CyDmaGetSrcDstTransferWidth,"ax",%progbits
 2628              		.align	2
 2629              		.global	CyDmaGetSrcDstTransferWidth
 2630              		.code	16
 2631              		.thumb_func
 2632              		.type	CyDmaGetSrcDstTransferWidth, %function
 2633              	CyDmaGetSrcDstTransferWidth:
 2634              	.LFB38:
1108:Generated_Source\PSoC4/CyDMA.c **** 
1109:Generated_Source\PSoC4/CyDMA.c **** 
1110:Generated_Source\PSoC4/CyDMA.c **** /*******************************************************************************
1111:Generated_Source\PSoC4/CyDMA.c **** * Function Name: CyDmaGetSrcDstTransferWidth
1112:Generated_Source\PSoC4/CyDMA.c **** ********************************************************************************
1113:Generated_Source\PSoC4/CyDMA.c **** *
1114:Generated_Source\PSoC4/CyDMA.c **** * Summary:
1115:Generated_Source\PSoC4/CyDMA.c **** *  Returns the width of the source and destination, as set by 
1116:Generated_Source\PSoC4/CyDMA.c **** *  CyDmaSetSrcDstTransferWidth() or CyDmaSetConfiguration().
1117:Generated_Source\PSoC4/CyDMA.c **** *
1118:Generated_Source\PSoC4/CyDMA.c **** * Parameters:
ARM GAS  C:\Users\fneves\AppData\Local\Temp\ccoNsDRu.s 			page 67


1119:Generated_Source\PSoC4/CyDMA.c **** *  channel:    Channel used by this function.
1120:Generated_Source\PSoC4/CyDMA.c **** *  descriptor: Descriptor (0 or 1) modified by this function.
1121:Generated_Source\PSoC4/CyDMA.c **** *                   
1122:Generated_Source\PSoC4/CyDMA.c **** * Return:
1123:Generated_Source\PSoC4/CyDMA.c **** *  Width of source and destination. Refer to the API bit field definitions in
1124:Generated_Source\PSoC4/CyDMA.c **** *  CyDMA_P4.h or the API description in the DMA channel datasheet for more
1125:Generated_Source\PSoC4/CyDMA.c **** *  information.
1126:Generated_Source\PSoC4/CyDMA.c **** *
1127:Generated_Source\PSoC4/CyDMA.c **** *******************************************************************************/
1128:Generated_Source\PSoC4/CyDMA.c **** uint32 CyDmaGetSrcDstTransferWidth(int32 channel, int32 descriptor)
1129:Generated_Source\PSoC4/CyDMA.c **** {
 2635              		.loc 1 1129 0
 2636              		.cfi_startproc
 2637 0000 80B5     		push	{r7, lr}
 2638              		.cfi_def_cfa_offset 8
 2639              		.cfi_offset 7, -8
 2640              		.cfi_offset 14, -4
 2641 0002 82B0     		sub	sp, sp, #8
 2642              		.cfi_def_cfa_offset 16
 2643 0004 00AF     		add	r7, sp, #0
 2644              		.cfi_def_cfa_register 7
 2645 0006 7860     		str	r0, [r7, #4]
 2646 0008 3960     		str	r1, [r7]
1130:Generated_Source\PSoC4/CyDMA.c ****     CYASSERT((channel    >= 0) && (channel    < CYDMA_CH_NR));
 2647              		.loc 1 1130 0
 2648 000a 7B68     		ldr	r3, [r7, #4]
 2649 000c 002B     		cmp	r3, #0
 2650 000e 04DB     		blt	.L259
 2651              		.loc 1 1130 0 is_stmt 0 discriminator 1
 2652 0010 7B68     		ldr	r3, [r7, #4]
 2653 0012 072B     		cmp	r3, #7
 2654 0014 01DC     		bgt	.L259
 2655              		.loc 1 1130 0 discriminator 3
 2656 0016 0123     		mov	r3, #1
 2657 0018 00E0     		b	.L260
 2658              	.L259:
 2659              		.loc 1 1130 0 discriminator 4
 2660 001a 0023     		mov	r3, #0
 2661              	.L260:
 2662              		.loc 1 1130 0 discriminator 6
 2663 001c 002B     		cmp	r3, #0
 2664 001e 02D1     		bne	.L261
 2665              		.loc 1 1130 0 discriminator 7
 2666 0020 0020     		mov	r0, #0
 2667 0022 FFF7FEFF 		bl	CyHalt
 2668              	.L261:
1131:Generated_Source\PSoC4/CyDMA.c ****     CYASSERT((descriptor >= 0) && (descriptor < CYDMA_DESCR_NR));
 2669              		.loc 1 1131 0 is_stmt 1
 2670 0026 3B68     		ldr	r3, [r7]
 2671 0028 002B     		cmp	r3, #0
 2672 002a 04DB     		blt	.L262
 2673              		.loc 1 1131 0 is_stmt 0 discriminator 1
 2674 002c 3B68     		ldr	r3, [r7]
 2675 002e 012B     		cmp	r3, #1
 2676 0030 01DC     		bgt	.L262
 2677              		.loc 1 1131 0 discriminator 3
 2678 0032 0123     		mov	r3, #1
ARM GAS  C:\Users\fneves\AppData\Local\Temp\ccoNsDRu.s 			page 68


 2679 0034 00E0     		b	.L263
 2680              	.L262:
 2681              		.loc 1 1131 0 discriminator 4
 2682 0036 0023     		mov	r3, #0
 2683              	.L263:
 2684              		.loc 1 1131 0 discriminator 6
 2685 0038 002B     		cmp	r3, #0
 2686 003a 02D1     		bne	.L264
 2687              		.loc 1 1131 0 discriminator 7
 2688 003c 0020     		mov	r0, #0
 2689 003e FFF7FEFF 		bl	CyHalt
 2690              	.L264:
1132:Generated_Source\PSoC4/CyDMA.c ****     return (CYDMA_DESCR_BASE.descriptor[channel][descriptor].ctl & CYDMA_TRANSFER_WIDTH);
 2691              		.loc 1 1132 0 is_stmt 1
 2692 0042 0849     		ldr	r1, .L266
 2693 0044 7B68     		ldr	r3, [r7, #4]
 2694 0046 5A00     		lsl	r2, r3, #1
 2695 0048 3B68     		ldr	r3, [r7]
 2696 004a D318     		add	r3, r2, r3
 2697 004c 1B01     		lsl	r3, r3, #4
 2698 004e CB18     		add	r3, r1, r3
 2699 0050 0833     		add	r3, r3, #8
 2700 0052 1A68     		ldr	r2, [r3]
 2701 0054 A023     		mov	r3, #160
 2702 0056 DB03     		lsl	r3, r3, #15
 2703 0058 1340     		and	r3, r2
1133:Generated_Source\PSoC4/CyDMA.c **** }
 2704              		.loc 1 1133 0
 2705 005a 181C     		mov	r0, r3
 2706 005c BD46     		mov	sp, r7
 2707 005e 02B0     		add	sp, sp, #8
 2708              		@ sp needed
 2709 0060 80BD     		pop	{r7, pc}
 2710              	.L267:
 2711 0062 C046     		.align	2
 2712              	.L266:
 2713 0064 00181040 		.word	1074796544
 2714              		.cfi_endproc
 2715              	.LFE38:
 2716              		.size	CyDmaGetSrcDstTransferWidth, .-CyDmaGetSrcDstTransferWidth
 2717              		.section	.text.CyDmaSetAddressIncrement,"ax",%progbits
 2718              		.align	2
 2719              		.global	CyDmaSetAddressIncrement
 2720              		.code	16
 2721              		.thumb_func
 2722              		.type	CyDmaSetAddressIncrement, %function
 2723              	CyDmaSetAddressIncrement:
 2724              	.LFB39:
1134:Generated_Source\PSoC4/CyDMA.c **** 
1135:Generated_Source\PSoC4/CyDMA.c **** 
1136:Generated_Source\PSoC4/CyDMA.c **** /*******************************************************************************
1137:Generated_Source\PSoC4/CyDMA.c **** * Function Name: CyDmaSetAddressIncrement
1138:Generated_Source\PSoC4/CyDMA.c **** ********************************************************************************
1139:Generated_Source\PSoC4/CyDMA.c **** *
1140:Generated_Source\PSoC4/CyDMA.c **** * Summary:
1141:Generated_Source\PSoC4/CyDMA.c **** *  Sets whether the source or destination addresses are incremented after the
1142:Generated_Source\PSoC4/CyDMA.c **** *  transfer of each data element. The amount that the source and destination
ARM GAS  C:\Users\fneves\AppData\Local\Temp\ccoNsDRu.s 			page 69


1143:Generated_Source\PSoC4/CyDMA.c **** *  address are incremented is determined by the CyDmaSetSrcDstTransferWidth()
1144:Generated_Source\PSoC4/CyDMA.c **** *  function. The addresses will either be incremented by the data element size
1145:Generated_Source\PSoC4/CyDMA.c **** *  or by a word (4 bytes).
1146:Generated_Source\PSoC4/CyDMA.c **** *
1147:Generated_Source\PSoC4/CyDMA.c **** * Parameters:
1148:Generated_Source\PSoC4/CyDMA.c **** *  channel:          Channel used by this function.
1149:Generated_Source\PSoC4/CyDMA.c **** *  descriptor:       Descriptor (0 or 1) modified by this function.
1150:Generated_Source\PSoC4/CyDMA.c **** *  addressIncrement: Address increment settings. Refer to the API bit fields 
1151:Generated_Source\PSoC4/CyDMA.c **** *                    definition in CyDMA_P4.h or the API description in the DMA
1152:Generated_Source\PSoC4/CyDMA.c **** *                    channel datasheet for the parameter options.
1153:Generated_Source\PSoC4/CyDMA.c **** *    
1154:Generated_Source\PSoC4/CyDMA.c **** * Return:
1155:Generated_Source\PSoC4/CyDMA.c **** *  None.
1156:Generated_Source\PSoC4/CyDMA.c **** *
1157:Generated_Source\PSoC4/CyDMA.c **** * Side effect:
1158:Generated_Source\PSoC4/CyDMA.c **** *  This function should not be called when the specified descriptor is active
1159:Generated_Source\PSoC4/CyDMA.c **** *  in the DMA transfer engine. This can be checked by calling CyDmaGetStatus(). 
1160:Generated_Source\PSoC4/CyDMA.c **** *
1161:Generated_Source\PSoC4/CyDMA.c **** *******************************************************************************/
1162:Generated_Source\PSoC4/CyDMA.c **** void CyDmaSetAddressIncrement(int32 channel, int32 descriptor, uint32 addressIncrement)
1163:Generated_Source\PSoC4/CyDMA.c **** {
 2725              		.loc 1 1163 0
 2726              		.cfi_startproc
 2727 0000 80B5     		push	{r7, lr}
 2728              		.cfi_def_cfa_offset 8
 2729              		.cfi_offset 7, -8
 2730              		.cfi_offset 14, -4
 2731 0002 86B0     		sub	sp, sp, #24
 2732              		.cfi_def_cfa_offset 32
 2733 0004 00AF     		add	r7, sp, #0
 2734              		.cfi_def_cfa_register 7
 2735 0006 F860     		str	r0, [r7, #12]
 2736 0008 B960     		str	r1, [r7, #8]
 2737 000a 7A60     		str	r2, [r7, #4]
1164:Generated_Source\PSoC4/CyDMA.c ****     uint32 regValue;
1165:Generated_Source\PSoC4/CyDMA.c **** 
1166:Generated_Source\PSoC4/CyDMA.c ****     CYASSERT((channel    >= 0) && (channel    < CYDMA_CH_NR));
 2738              		.loc 1 1166 0
 2739 000c FB68     		ldr	r3, [r7, #12]
 2740 000e 002B     		cmp	r3, #0
 2741 0010 04DB     		blt	.L269
 2742              		.loc 1 1166 0 is_stmt 0 discriminator 1
 2743 0012 FB68     		ldr	r3, [r7, #12]
 2744 0014 072B     		cmp	r3, #7
 2745 0016 01DC     		bgt	.L269
 2746              		.loc 1 1166 0 discriminator 3
 2747 0018 0123     		mov	r3, #1
 2748 001a 00E0     		b	.L270
 2749              	.L269:
 2750              		.loc 1 1166 0 discriminator 4
 2751 001c 0023     		mov	r3, #0
 2752              	.L270:
 2753              		.loc 1 1166 0 discriminator 6
 2754 001e 002B     		cmp	r3, #0
 2755 0020 02D1     		bne	.L271
 2756              		.loc 1 1166 0 discriminator 7
 2757 0022 0020     		mov	r0, #0
ARM GAS  C:\Users\fneves\AppData\Local\Temp\ccoNsDRu.s 			page 70


 2758 0024 FFF7FEFF 		bl	CyHalt
 2759              	.L271:
1167:Generated_Source\PSoC4/CyDMA.c ****     CYASSERT((descriptor >= 0) && (descriptor < CYDMA_DESCR_NR));
 2760              		.loc 1 1167 0 is_stmt 1
 2761 0028 BB68     		ldr	r3, [r7, #8]
 2762 002a 002B     		cmp	r3, #0
 2763 002c 04DB     		blt	.L272
 2764              		.loc 1 1167 0 is_stmt 0 discriminator 1
 2765 002e BB68     		ldr	r3, [r7, #8]
 2766 0030 012B     		cmp	r3, #1
 2767 0032 01DC     		bgt	.L272
 2768              		.loc 1 1167 0 discriminator 3
 2769 0034 0123     		mov	r3, #1
 2770 0036 00E0     		b	.L273
 2771              	.L272:
 2772              		.loc 1 1167 0 discriminator 4
 2773 0038 0023     		mov	r3, #0
 2774              	.L273:
 2775              		.loc 1 1167 0 discriminator 6
 2776 003a 002B     		cmp	r3, #0
 2777 003c 02D1     		bne	.L274
 2778              		.loc 1 1167 0 discriminator 7
 2779 003e 0020     		mov	r0, #0
 2780 0040 FFF7FEFF 		bl	CyHalt
 2781              	.L274:
1168:Generated_Source\PSoC4/CyDMA.c ****     CYASSERT(0u == (addressIncrement & (uint32)~CYDMA_ADDR_INCR));
 2782              		.loc 1 1168 0 is_stmt 1
 2783 0044 7B68     		ldr	r3, [r7, #4]
 2784 0046 104A     		ldr	r2, .L276
 2785 0048 1340     		and	r3, r2
 2786 004a 02D0     		beq	.L275
 2787              		.loc 1 1168 0 is_stmt 0 discriminator 1
 2788 004c 0020     		mov	r0, #0
 2789 004e FFF7FEFF 		bl	CyHalt
 2790              	.L275:
1169:Generated_Source\PSoC4/CyDMA.c **** 
1170:Generated_Source\PSoC4/CyDMA.c ****     regValue = CYDMA_DESCR_BASE.descriptor[channel][descriptor].ctl & (uint32)~CYDMA_ADDR_INCR;
 2791              		.loc 1 1170 0 is_stmt 1
 2792 0052 0E49     		ldr	r1, .L276+4
 2793 0054 FB68     		ldr	r3, [r7, #12]
 2794 0056 5A00     		lsl	r2, r3, #1
 2795 0058 BB68     		ldr	r3, [r7, #8]
 2796 005a D318     		add	r3, r2, r3
 2797 005c 1B01     		lsl	r3, r3, #4
 2798 005e CB18     		add	r3, r1, r3
 2799 0060 0833     		add	r3, r3, #8
 2800 0062 1B68     		ldr	r3, [r3]
 2801 0064 084A     		ldr	r2, .L276
 2802 0066 1340     		and	r3, r2
 2803 0068 7B61     		str	r3, [r7, #20]
1171:Generated_Source\PSoC4/CyDMA.c ****     CYDMA_DESCR_BASE.descriptor[channel][descriptor].ctl = regValue | addressIncrement;
 2804              		.loc 1 1171 0
 2805 006a 0848     		ldr	r0, .L276+4
 2806 006c 7A69     		ldr	r2, [r7, #20]
 2807 006e 7B68     		ldr	r3, [r7, #4]
 2808 0070 1A43     		orr	r2, r3
 2809 0072 FB68     		ldr	r3, [r7, #12]
ARM GAS  C:\Users\fneves\AppData\Local\Temp\ccoNsDRu.s 			page 71


 2810 0074 5900     		lsl	r1, r3, #1
 2811 0076 BB68     		ldr	r3, [r7, #8]
 2812 0078 CB18     		add	r3, r1, r3
 2813 007a 1B01     		lsl	r3, r3, #4
 2814 007c C318     		add	r3, r0, r3
 2815 007e 0833     		add	r3, r3, #8
 2816 0080 1A60     		str	r2, [r3]
1172:Generated_Source\PSoC4/CyDMA.c **** }
 2817              		.loc 1 1172 0
 2818 0082 BD46     		mov	sp, r7
 2819 0084 06B0     		add	sp, sp, #24
 2820              		@ sp needed
 2821 0086 80BD     		pop	{r7, pc}
 2822              	.L277:
 2823              		.align	2
 2824              	.L276:
 2825 0088 FFFF5FFF 		.word	-10485761
 2826 008c 00181040 		.word	1074796544
 2827              		.cfi_endproc
 2828              	.LFE39:
 2829              		.size	CyDmaSetAddressIncrement, .-CyDmaSetAddressIncrement
 2830              		.section	.text.CyDmaGetAddressIncrement,"ax",%progbits
 2831              		.align	2
 2832              		.global	CyDmaGetAddressIncrement
 2833              		.code	16
 2834              		.thumb_func
 2835              		.type	CyDmaGetAddressIncrement, %function
 2836              	CyDmaGetAddressIncrement:
 2837              	.LFB40:
1173:Generated_Source\PSoC4/CyDMA.c **** 
1174:Generated_Source\PSoC4/CyDMA.c **** 
1175:Generated_Source\PSoC4/CyDMA.c **** /*******************************************************************************
1176:Generated_Source\PSoC4/CyDMA.c **** * Function Name: CyDmaGetAddressIncrement
1177:Generated_Source\PSoC4/CyDMA.c **** ********************************************************************************
1178:Generated_Source\PSoC4/CyDMA.c **** *
1179:Generated_Source\PSoC4/CyDMA.c **** * Summary:
1180:Generated_Source\PSoC4/CyDMA.c **** *  Returns address increment settings as set by CyDmaSetAddressIncrement() or
1181:Generated_Source\PSoC4/CyDMA.c **** *  CyDmaSetConfiguration().
1182:Generated_Source\PSoC4/CyDMA.c **** *
1183:Generated_Source\PSoC4/CyDMA.c **** * Parameters:
1184:Generated_Source\PSoC4/CyDMA.c **** *  channel:    Channel used by this function.
1185:Generated_Source\PSoC4/CyDMA.c **** *  descriptor: Descriptor (0 or 1) modified by this function.
1186:Generated_Source\PSoC4/CyDMA.c **** *                   
1187:Generated_Source\PSoC4/CyDMA.c **** * Return:
1188:Generated_Source\PSoC4/CyDMA.c **** *  Address increment settings. Refer to the API bit field definitions in
1189:Generated_Source\PSoC4/CyDMA.c **** *  CyDMA_P4.h or the API description in the DMA channel datasheet for more
1190:Generated_Source\PSoC4/CyDMA.c **** *  information.
1191:Generated_Source\PSoC4/CyDMA.c **** *
1192:Generated_Source\PSoC4/CyDMA.c **** *******************************************************************************/
1193:Generated_Source\PSoC4/CyDMA.c **** uint32 CyDmaGetAddressIncrement(int32 channel, int32 descriptor)
1194:Generated_Source\PSoC4/CyDMA.c **** {
 2838              		.loc 1 1194 0
 2839              		.cfi_startproc
 2840 0000 80B5     		push	{r7, lr}
 2841              		.cfi_def_cfa_offset 8
 2842              		.cfi_offset 7, -8
 2843              		.cfi_offset 14, -4
ARM GAS  C:\Users\fneves\AppData\Local\Temp\ccoNsDRu.s 			page 72


 2844 0002 82B0     		sub	sp, sp, #8
 2845              		.cfi_def_cfa_offset 16
 2846 0004 00AF     		add	r7, sp, #0
 2847              		.cfi_def_cfa_register 7
 2848 0006 7860     		str	r0, [r7, #4]
 2849 0008 3960     		str	r1, [r7]
1195:Generated_Source\PSoC4/CyDMA.c ****     CYASSERT((channel    >= 0) && (channel    < CYDMA_CH_NR));
 2850              		.loc 1 1195 0
 2851 000a 7B68     		ldr	r3, [r7, #4]
 2852 000c 002B     		cmp	r3, #0
 2853 000e 04DB     		blt	.L279
 2854              		.loc 1 1195 0 is_stmt 0 discriminator 1
 2855 0010 7B68     		ldr	r3, [r7, #4]
 2856 0012 072B     		cmp	r3, #7
 2857 0014 01DC     		bgt	.L279
 2858              		.loc 1 1195 0 discriminator 3
 2859 0016 0123     		mov	r3, #1
 2860 0018 00E0     		b	.L280
 2861              	.L279:
 2862              		.loc 1 1195 0 discriminator 4
 2863 001a 0023     		mov	r3, #0
 2864              	.L280:
 2865              		.loc 1 1195 0 discriminator 6
 2866 001c 002B     		cmp	r3, #0
 2867 001e 02D1     		bne	.L281
 2868              		.loc 1 1195 0 discriminator 7
 2869 0020 0020     		mov	r0, #0
 2870 0022 FFF7FEFF 		bl	CyHalt
 2871              	.L281:
1196:Generated_Source\PSoC4/CyDMA.c ****     CYASSERT((descriptor >= 0) && (descriptor < CYDMA_DESCR_NR));
 2872              		.loc 1 1196 0 is_stmt 1
 2873 0026 3B68     		ldr	r3, [r7]
 2874 0028 002B     		cmp	r3, #0
 2875 002a 04DB     		blt	.L282
 2876              		.loc 1 1196 0 is_stmt 0 discriminator 1
 2877 002c 3B68     		ldr	r3, [r7]
 2878 002e 012B     		cmp	r3, #1
 2879 0030 01DC     		bgt	.L282
 2880              		.loc 1 1196 0 discriminator 3
 2881 0032 0123     		mov	r3, #1
 2882 0034 00E0     		b	.L283
 2883              	.L282:
 2884              		.loc 1 1196 0 discriminator 4
 2885 0036 0023     		mov	r3, #0
 2886              	.L283:
 2887              		.loc 1 1196 0 discriminator 6
 2888 0038 002B     		cmp	r3, #0
 2889 003a 02D1     		bne	.L284
 2890              		.loc 1 1196 0 discriminator 7
 2891 003c 0020     		mov	r0, #0
 2892 003e FFF7FEFF 		bl	CyHalt
 2893              	.L284:
1197:Generated_Source\PSoC4/CyDMA.c **** 
1198:Generated_Source\PSoC4/CyDMA.c ****     return (CYDMA_DESCR_BASE.descriptor[channel][descriptor].ctl & CYDMA_ADDR_INCR);
 2894              		.loc 1 1198 0 is_stmt 1
 2895 0042 0849     		ldr	r1, .L286
 2896 0044 7B68     		ldr	r3, [r7, #4]
ARM GAS  C:\Users\fneves\AppData\Local\Temp\ccoNsDRu.s 			page 73


 2897 0046 5A00     		lsl	r2, r3, #1
 2898 0048 3B68     		ldr	r3, [r7]
 2899 004a D318     		add	r3, r2, r3
 2900 004c 1B01     		lsl	r3, r3, #4
 2901 004e CB18     		add	r3, r1, r3
 2902 0050 0833     		add	r3, r3, #8
 2903 0052 1A68     		ldr	r2, [r3]
 2904 0054 A023     		mov	r3, #160
 2905 0056 1B04     		lsl	r3, r3, #16
 2906 0058 1340     		and	r3, r2
1199:Generated_Source\PSoC4/CyDMA.c **** }
 2907              		.loc 1 1199 0
 2908 005a 181C     		mov	r0, r3
 2909 005c BD46     		mov	sp, r7
 2910 005e 02B0     		add	sp, sp, #8
 2911              		@ sp needed
 2912 0060 80BD     		pop	{r7, pc}
 2913              	.L287:
 2914 0062 C046     		.align	2
 2915              	.L286:
 2916 0064 00181040 		.word	1074796544
 2917              		.cfi_endproc
 2918              	.LFE40:
 2919              		.size	CyDmaGetAddressIncrement, .-CyDmaGetAddressIncrement
 2920              		.section	.text.CyDmaSetTriggerType,"ax",%progbits
 2921              		.align	2
 2922              		.global	CyDmaSetTriggerType
 2923              		.code	16
 2924              		.thumb_func
 2925              		.type	CyDmaSetTriggerType, %function
 2926              	CyDmaSetTriggerType:
 2927              	.LFB41:
1200:Generated_Source\PSoC4/CyDMA.c **** 
1201:Generated_Source\PSoC4/CyDMA.c **** 
1202:Generated_Source\PSoC4/CyDMA.c **** /*******************************************************************************
1203:Generated_Source\PSoC4/CyDMA.c **** * Function Name: CyDmaSetTriggerType
1204:Generated_Source\PSoC4/CyDMA.c **** ********************************************************************************
1205:Generated_Source\PSoC4/CyDMA.c **** *
1206:Generated_Source\PSoC4/CyDMA.c **** * Summary:
1207:Generated_Source\PSoC4/CyDMA.c **** *  Sets the type of input trigger for the DMA For level sensitive triggers sets
1208:Generated_Source\PSoC4/CyDMA.c **** *  how long the DMA waits for the trigger to go low (deactivate) before
1209:Generated_Source\PSoC4/CyDMA.c **** *  triggering the channel again.
1210:Generated_Source\PSoC4/CyDMA.c **** *
1211:Generated_Source\PSoC4/CyDMA.c **** * Parameters:
1212:Generated_Source\PSoC4/CyDMA.c **** *  channel:     Channel used by this function.
1213:Generated_Source\PSoC4/CyDMA.c **** *  descriptor:  Descriptor (0 or 1) modified by this function.
1214:Generated_Source\PSoC4/CyDMA.c **** *  triggerType: Type of DMA trigger. Refer to the API bit field definitions
1215:Generated_Source\PSoC4/CyDMA.c **** *               in CyDMA_P4.h or the API description in the DMA channel
1216:Generated_Source\PSoC4/CyDMA.c **** *               datasheet for the parameter options.
1217:Generated_Source\PSoC4/CyDMA.c **** *                   
1218:Generated_Source\PSoC4/CyDMA.c **** * Return:
1219:Generated_Source\PSoC4/CyDMA.c **** *  None.
1220:Generated_Source\PSoC4/CyDMA.c **** *
1221:Generated_Source\PSoC4/CyDMA.c **** * Side effect:
1222:Generated_Source\PSoC4/CyDMA.c **** *  This function should not be called when the specified descriptor is active
1223:Generated_Source\PSoC4/CyDMA.c **** *  in the DMA transfer engine. This can be checked by calling CyDmaGetStatus(). 
1224:Generated_Source\PSoC4/CyDMA.c **** *
ARM GAS  C:\Users\fneves\AppData\Local\Temp\ccoNsDRu.s 			page 74


1225:Generated_Source\PSoC4/CyDMA.c **** *******************************************************************************/
1226:Generated_Source\PSoC4/CyDMA.c **** void CyDmaSetTriggerType(int32 channel, int32 descriptor, uint32 triggerType)
1227:Generated_Source\PSoC4/CyDMA.c **** {
 2928              		.loc 1 1227 0
 2929              		.cfi_startproc
 2930 0000 80B5     		push	{r7, lr}
 2931              		.cfi_def_cfa_offset 8
 2932              		.cfi_offset 7, -8
 2933              		.cfi_offset 14, -4
 2934 0002 86B0     		sub	sp, sp, #24
 2935              		.cfi_def_cfa_offset 32
 2936 0004 00AF     		add	r7, sp, #0
 2937              		.cfi_def_cfa_register 7
 2938 0006 F860     		str	r0, [r7, #12]
 2939 0008 B960     		str	r1, [r7, #8]
 2940 000a 7A60     		str	r2, [r7, #4]
1228:Generated_Source\PSoC4/CyDMA.c ****     uint32 regValue;
1229:Generated_Source\PSoC4/CyDMA.c **** 
1230:Generated_Source\PSoC4/CyDMA.c ****     CYASSERT((channel    >= 0) && (channel    < CYDMA_CH_NR));
 2941              		.loc 1 1230 0
 2942 000c FB68     		ldr	r3, [r7, #12]
 2943 000e 002B     		cmp	r3, #0
 2944 0010 04DB     		blt	.L289
 2945              		.loc 1 1230 0 is_stmt 0 discriminator 1
 2946 0012 FB68     		ldr	r3, [r7, #12]
 2947 0014 072B     		cmp	r3, #7
 2948 0016 01DC     		bgt	.L289
 2949              		.loc 1 1230 0 discriminator 3
 2950 0018 0123     		mov	r3, #1
 2951 001a 00E0     		b	.L290
 2952              	.L289:
 2953              		.loc 1 1230 0 discriminator 4
 2954 001c 0023     		mov	r3, #0
 2955              	.L290:
 2956              		.loc 1 1230 0 discriminator 6
 2957 001e 002B     		cmp	r3, #0
 2958 0020 02D1     		bne	.L291
 2959              		.loc 1 1230 0 discriminator 7
 2960 0022 0020     		mov	r0, #0
 2961 0024 FFF7FEFF 		bl	CyHalt
 2962              	.L291:
1231:Generated_Source\PSoC4/CyDMA.c ****     CYASSERT((descriptor >= 0) && (descriptor < CYDMA_DESCR_NR));
 2963              		.loc 1 1231 0 is_stmt 1
 2964 0028 BB68     		ldr	r3, [r7, #8]
 2965 002a 002B     		cmp	r3, #0
 2966 002c 04DB     		blt	.L292
 2967              		.loc 1 1231 0 is_stmt 0 discriminator 1
 2968 002e BB68     		ldr	r3, [r7, #8]
 2969 0030 012B     		cmp	r3, #1
 2970 0032 01DC     		bgt	.L292
 2971              		.loc 1 1231 0 discriminator 3
 2972 0034 0123     		mov	r3, #1
 2973 0036 00E0     		b	.L293
 2974              	.L292:
 2975              		.loc 1 1231 0 discriminator 4
 2976 0038 0023     		mov	r3, #0
 2977              	.L293:
ARM GAS  C:\Users\fneves\AppData\Local\Temp\ccoNsDRu.s 			page 75


 2978              		.loc 1 1231 0 discriminator 6
 2979 003a 002B     		cmp	r3, #0
 2980 003c 02D1     		bne	.L294
 2981              		.loc 1 1231 0 discriminator 7
 2982 003e 0020     		mov	r0, #0
 2983 0040 FFF7FEFF 		bl	CyHalt
 2984              	.L294:
1232:Generated_Source\PSoC4/CyDMA.c ****     CYASSERT(0u == (triggerType & (uint32)~CYDMA_TRIGGER_TYPE));
 2985              		.loc 1 1232 0 is_stmt 1
 2986 0044 7B68     		ldr	r3, [r7, #4]
 2987 0046 104A     		ldr	r2, .L296
 2988 0048 1340     		and	r3, r2
 2989 004a 02D0     		beq	.L295
 2990              		.loc 1 1232 0 is_stmt 0 discriminator 1
 2991 004c 0020     		mov	r0, #0
 2992 004e FFF7FEFF 		bl	CyHalt
 2993              	.L295:
1233:Generated_Source\PSoC4/CyDMA.c **** 
1234:Generated_Source\PSoC4/CyDMA.c ****     regValue = CYDMA_DESCR_BASE.descriptor[channel][descriptor].ctl & (uint32)~CYDMA_TRIGGER_TYPE;
 2994              		.loc 1 1234 0 is_stmt 1
 2995 0052 0E49     		ldr	r1, .L296+4
 2996 0054 FB68     		ldr	r3, [r7, #12]
 2997 0056 5A00     		lsl	r2, r3, #1
 2998 0058 BB68     		ldr	r3, [r7, #8]
 2999 005a D318     		add	r3, r2, r3
 3000 005c 1B01     		lsl	r3, r3, #4
 3001 005e CB18     		add	r3, r1, r3
 3002 0060 0833     		add	r3, r3, #8
 3003 0062 1B68     		ldr	r3, [r3]
 3004 0064 084A     		ldr	r2, .L296
 3005 0066 1340     		and	r3, r2
 3006 0068 7B61     		str	r3, [r7, #20]
1235:Generated_Source\PSoC4/CyDMA.c ****     CYDMA_DESCR_BASE.descriptor[channel][descriptor].ctl = regValue | triggerType;
 3007              		.loc 1 1235 0
 3008 006a 0848     		ldr	r0, .L296+4
 3009 006c 7A69     		ldr	r2, [r7, #20]
 3010 006e 7B68     		ldr	r3, [r7, #4]
 3011 0070 1A43     		orr	r2, r3
 3012 0072 FB68     		ldr	r3, [r7, #12]
 3013 0074 5900     		lsl	r1, r3, #1
 3014 0076 BB68     		ldr	r3, [r7, #8]
 3015 0078 CB18     		add	r3, r1, r3
 3016 007a 1B01     		lsl	r3, r3, #4
 3017 007c C318     		add	r3, r0, r3
 3018 007e 0833     		add	r3, r3, #8
 3019 0080 1A60     		str	r2, [r3]
1236:Generated_Source\PSoC4/CyDMA.c **** }
 3020              		.loc 1 1236 0
 3021 0082 BD46     		mov	sp, r7
 3022 0084 06B0     		add	sp, sp, #24
 3023              		@ sp needed
 3024 0086 80BD     		pop	{r7, pc}
 3025              	.L297:
 3026              		.align	2
 3027              	.L296:
 3028 0088 FFFFFFFC 		.word	-50331649
 3029 008c 00181040 		.word	1074796544
ARM GAS  C:\Users\fneves\AppData\Local\Temp\ccoNsDRu.s 			page 76


 3030              		.cfi_endproc
 3031              	.LFE41:
 3032              		.size	CyDmaSetTriggerType, .-CyDmaSetTriggerType
 3033              		.section	.text.CyDmaGetTriggerType,"ax",%progbits
 3034              		.align	2
 3035              		.global	CyDmaGetTriggerType
 3036              		.code	16
 3037              		.thumb_func
 3038              		.type	CyDmaGetTriggerType, %function
 3039              	CyDmaGetTriggerType:
 3040              	.LFB42:
1237:Generated_Source\PSoC4/CyDMA.c **** 
1238:Generated_Source\PSoC4/CyDMA.c **** 
1239:Generated_Source\PSoC4/CyDMA.c **** /*******************************************************************************
1240:Generated_Source\PSoC4/CyDMA.c **** * Function Name: CyDmaGetTriggerType
1241:Generated_Source\PSoC4/CyDMA.c **** ********************************************************************************
1242:Generated_Source\PSoC4/CyDMA.c **** *
1243:Generated_Source\PSoC4/CyDMA.c **** * Summary:
1244:Generated_Source\PSoC4/CyDMA.c **** *  Returns the trigger deactivation settings as set by CyDmaSetTriggerType() or
1245:Generated_Source\PSoC4/CyDMA.c **** *  CyDmaSetConfiguration().
1246:Generated_Source\PSoC4/CyDMA.c **** *
1247:Generated_Source\PSoC4/CyDMA.c **** * Parameters:
1248:Generated_Source\PSoC4/CyDMA.c **** *  channel:    Channel used by this function.
1249:Generated_Source\PSoC4/CyDMA.c **** *  descriptor: Descriptor (0 or 1) modified by this function.
1250:Generated_Source\PSoC4/CyDMA.c **** *                   
1251:Generated_Source\PSoC4/CyDMA.c **** * Return:
1252:Generated_Source\PSoC4/CyDMA.c **** *  Trigger deactivation settings. Refer to the API bit field definitions in
1253:Generated_Source\PSoC4/CyDMA.c **** *  CyDMA_P4.h or the API description in the DMA channel datasheet for more
1254:Generated_Source\PSoC4/CyDMA.c **** *  information.
1255:Generated_Source\PSoC4/CyDMA.c **** *
1256:Generated_Source\PSoC4/CyDMA.c **** *******************************************************************************/
1257:Generated_Source\PSoC4/CyDMA.c **** uint32 CyDmaGetTriggerType(int32 channel, int32 descriptor)
1258:Generated_Source\PSoC4/CyDMA.c **** {
 3041              		.loc 1 1258 0
 3042              		.cfi_startproc
 3043 0000 80B5     		push	{r7, lr}
 3044              		.cfi_def_cfa_offset 8
 3045              		.cfi_offset 7, -8
 3046              		.cfi_offset 14, -4
 3047 0002 82B0     		sub	sp, sp, #8
 3048              		.cfi_def_cfa_offset 16
 3049 0004 00AF     		add	r7, sp, #0
 3050              		.cfi_def_cfa_register 7
 3051 0006 7860     		str	r0, [r7, #4]
 3052 0008 3960     		str	r1, [r7]
1259:Generated_Source\PSoC4/CyDMA.c ****     CYASSERT((channel    >= 0) && (channel    < CYDMA_CH_NR));
 3053              		.loc 1 1259 0
 3054 000a 7B68     		ldr	r3, [r7, #4]
 3055 000c 002B     		cmp	r3, #0
 3056 000e 04DB     		blt	.L299
 3057              		.loc 1 1259 0 is_stmt 0 discriminator 1
 3058 0010 7B68     		ldr	r3, [r7, #4]
 3059 0012 072B     		cmp	r3, #7
 3060 0014 01DC     		bgt	.L299
 3061              		.loc 1 1259 0 discriminator 3
 3062 0016 0123     		mov	r3, #1
 3063 0018 00E0     		b	.L300
ARM GAS  C:\Users\fneves\AppData\Local\Temp\ccoNsDRu.s 			page 77


 3064              	.L299:
 3065              		.loc 1 1259 0 discriminator 4
 3066 001a 0023     		mov	r3, #0
 3067              	.L300:
 3068              		.loc 1 1259 0 discriminator 6
 3069 001c 002B     		cmp	r3, #0
 3070 001e 02D1     		bne	.L301
 3071              		.loc 1 1259 0 discriminator 7
 3072 0020 0020     		mov	r0, #0
 3073 0022 FFF7FEFF 		bl	CyHalt
 3074              	.L301:
1260:Generated_Source\PSoC4/CyDMA.c ****     CYASSERT((descriptor >= 0) && (descriptor < CYDMA_DESCR_NR));
 3075              		.loc 1 1260 0 is_stmt 1
 3076 0026 3B68     		ldr	r3, [r7]
 3077 0028 002B     		cmp	r3, #0
 3078 002a 04DB     		blt	.L302
 3079              		.loc 1 1260 0 is_stmt 0 discriminator 1
 3080 002c 3B68     		ldr	r3, [r7]
 3081 002e 012B     		cmp	r3, #1
 3082 0030 01DC     		bgt	.L302
 3083              		.loc 1 1260 0 discriminator 3
 3084 0032 0123     		mov	r3, #1
 3085 0034 00E0     		b	.L303
 3086              	.L302:
 3087              		.loc 1 1260 0 discriminator 4
 3088 0036 0023     		mov	r3, #0
 3089              	.L303:
 3090              		.loc 1 1260 0 discriminator 6
 3091 0038 002B     		cmp	r3, #0
 3092 003a 02D1     		bne	.L304
 3093              		.loc 1 1260 0 discriminator 7
 3094 003c 0020     		mov	r0, #0
 3095 003e FFF7FEFF 		bl	CyHalt
 3096              	.L304:
1261:Generated_Source\PSoC4/CyDMA.c **** 
1262:Generated_Source\PSoC4/CyDMA.c ****     return (CYDMA_DESCR_BASE.descriptor[channel][descriptor].ctl & CYDMA_TRIGGER_TYPE);
 3097              		.loc 1 1262 0 is_stmt 1
 3098 0042 0849     		ldr	r1, .L306
 3099 0044 7B68     		ldr	r3, [r7, #4]
 3100 0046 5A00     		lsl	r2, r3, #1
 3101 0048 3B68     		ldr	r3, [r7]
 3102 004a D318     		add	r3, r2, r3
 3103 004c 1B01     		lsl	r3, r3, #4
 3104 004e CB18     		add	r3, r1, r3
 3105 0050 0833     		add	r3, r3, #8
 3106 0052 1A68     		ldr	r2, [r3]
 3107 0054 C023     		mov	r3, #192
 3108 0056 9B04     		lsl	r3, r3, #18
 3109 0058 1340     		and	r3, r2
1263:Generated_Source\PSoC4/CyDMA.c **** }
 3110              		.loc 1 1263 0
 3111 005a 181C     		mov	r0, r3
 3112 005c BD46     		mov	sp, r7
 3113 005e 02B0     		add	sp, sp, #8
 3114              		@ sp needed
 3115 0060 80BD     		pop	{r7, pc}
 3116              	.L307:
ARM GAS  C:\Users\fneves\AppData\Local\Temp\ccoNsDRu.s 			page 78


 3117 0062 C046     		.align	2
 3118              	.L306:
 3119 0064 00181040 		.word	1074796544
 3120              		.cfi_endproc
 3121              	.LFE42:
 3122              		.size	CyDmaGetTriggerType, .-CyDmaGetTriggerType
 3123              		.section	.text.CyDmaSetTransferMode,"ax",%progbits
 3124              		.align	2
 3125              		.global	CyDmaSetTransferMode
 3126              		.code	16
 3127              		.thumb_func
 3128              		.type	CyDmaSetTransferMode, %function
 3129              	CyDmaSetTransferMode:
 3130              	.LFB43:
1264:Generated_Source\PSoC4/CyDMA.c **** 
1265:Generated_Source\PSoC4/CyDMA.c **** 
1266:Generated_Source\PSoC4/CyDMA.c **** /*******************************************************************************
1267:Generated_Source\PSoC4/CyDMA.c **** * Function Name: CyDmaSetTransferMode
1268:Generated_Source\PSoC4/CyDMA.c **** ********************************************************************************
1269:Generated_Source\PSoC4/CyDMA.c **** *
1270:Generated_Source\PSoC4/CyDMA.c **** * Summary:
1271:Generated_Source\PSoC4/CyDMA.c **** *  Sets the DMA transfer mode. This determines how the DMA reacts to each trigger
1272:Generated_Source\PSoC4/CyDMA.c **** *  event.
1273:Generated_Source\PSoC4/CyDMA.c **** *
1274:Generated_Source\PSoC4/CyDMA.c **** * Parameters:
1275:Generated_Source\PSoC4/CyDMA.c **** *  channel:      Channel used by this function.
1276:Generated_Source\PSoC4/CyDMA.c **** *  descriptor:   Descriptor (0 or 1) modified by this function.
1277:Generated_Source\PSoC4/CyDMA.c **** *  transferMode: Specifies the DMA transfer mode settings. Refer to the API bit
1278:Generated_Source\PSoC4/CyDMA.c **** *                field definitions in CyDMA_P4.h or the API description in the
1279:Generated_Source\PSoC4/CyDMA.c **** *                DMA channel datasheet for the parameter options.
1280:Generated_Source\PSoC4/CyDMA.c **** *                   
1281:Generated_Source\PSoC4/CyDMA.c **** * Return:
1282:Generated_Source\PSoC4/CyDMA.c **** *  None.
1283:Generated_Source\PSoC4/CyDMA.c **** *
1284:Generated_Source\PSoC4/CyDMA.c **** * Side effect:
1285:Generated_Source\PSoC4/CyDMA.c **** *  This function should not be called when the specified descriptor is active
1286:Generated_Source\PSoC4/CyDMA.c **** *  in the DMA transfer engine. This can be checked by calling CyDmaGetStatus(). 
1287:Generated_Source\PSoC4/CyDMA.c **** *
1288:Generated_Source\PSoC4/CyDMA.c **** *******************************************************************************/
1289:Generated_Source\PSoC4/CyDMA.c **** void CyDmaSetTransferMode(int32 channel, int32 descriptor, uint32 transferMode)
1290:Generated_Source\PSoC4/CyDMA.c **** {
 3131              		.loc 1 1290 0
 3132              		.cfi_startproc
 3133 0000 80B5     		push	{r7, lr}
 3134              		.cfi_def_cfa_offset 8
 3135              		.cfi_offset 7, -8
 3136              		.cfi_offset 14, -4
 3137 0002 86B0     		sub	sp, sp, #24
 3138              		.cfi_def_cfa_offset 32
 3139 0004 00AF     		add	r7, sp, #0
 3140              		.cfi_def_cfa_register 7
 3141 0006 F860     		str	r0, [r7, #12]
 3142 0008 B960     		str	r1, [r7, #8]
 3143 000a 7A60     		str	r2, [r7, #4]
1291:Generated_Source\PSoC4/CyDMA.c ****     uint32 regValue;
1292:Generated_Source\PSoC4/CyDMA.c **** 
1293:Generated_Source\PSoC4/CyDMA.c ****     CYASSERT((channel    >= 0) && (channel    < CYDMA_CH_NR));
ARM GAS  C:\Users\fneves\AppData\Local\Temp\ccoNsDRu.s 			page 79


 3144              		.loc 1 1293 0
 3145 000c FB68     		ldr	r3, [r7, #12]
 3146 000e 002B     		cmp	r3, #0
 3147 0010 04DB     		blt	.L309
 3148              		.loc 1 1293 0 is_stmt 0 discriminator 1
 3149 0012 FB68     		ldr	r3, [r7, #12]
 3150 0014 072B     		cmp	r3, #7
 3151 0016 01DC     		bgt	.L309
 3152              		.loc 1 1293 0 discriminator 3
 3153 0018 0123     		mov	r3, #1
 3154 001a 00E0     		b	.L310
 3155              	.L309:
 3156              		.loc 1 1293 0 discriminator 4
 3157 001c 0023     		mov	r3, #0
 3158              	.L310:
 3159              		.loc 1 1293 0 discriminator 6
 3160 001e 002B     		cmp	r3, #0
 3161 0020 02D1     		bne	.L311
 3162              		.loc 1 1293 0 discriminator 7
 3163 0022 0020     		mov	r0, #0
 3164 0024 FFF7FEFF 		bl	CyHalt
 3165              	.L311:
1294:Generated_Source\PSoC4/CyDMA.c ****     CYASSERT((descriptor >= 0) && (descriptor < CYDMA_DESCR_NR));
 3166              		.loc 1 1294 0 is_stmt 1
 3167 0028 BB68     		ldr	r3, [r7, #8]
 3168 002a 002B     		cmp	r3, #0
 3169 002c 04DB     		blt	.L312
 3170              		.loc 1 1294 0 is_stmt 0 discriminator 1
 3171 002e BB68     		ldr	r3, [r7, #8]
 3172 0030 012B     		cmp	r3, #1
 3173 0032 01DC     		bgt	.L312
 3174              		.loc 1 1294 0 discriminator 3
 3175 0034 0123     		mov	r3, #1
 3176 0036 00E0     		b	.L313
 3177              	.L312:
 3178              		.loc 1 1294 0 discriminator 4
 3179 0038 0023     		mov	r3, #0
 3180              	.L313:
 3181              		.loc 1 1294 0 discriminator 6
 3182 003a 002B     		cmp	r3, #0
 3183 003c 02D1     		bne	.L314
 3184              		.loc 1 1294 0 discriminator 7
 3185 003e 0020     		mov	r0, #0
 3186 0040 FFF7FEFF 		bl	CyHalt
 3187              	.L314:
1295:Generated_Source\PSoC4/CyDMA.c ****     CYASSERT(0u == (transferMode & (uint32)~CYDMA_TRANSFER_MODE));
 3188              		.loc 1 1295 0 is_stmt 1
 3189 0044 7B68     		ldr	r3, [r7, #4]
 3190 0046 9B00     		lsl	r3, r3, #2
 3191 0048 9B08     		lsr	r3, r3, #2
 3192 004a 02D0     		beq	.L315
 3193              		.loc 1 1295 0 is_stmt 0 discriminator 1
 3194 004c 0020     		mov	r0, #0
 3195 004e FFF7FEFF 		bl	CyHalt
 3196              	.L315:
1296:Generated_Source\PSoC4/CyDMA.c **** 
1297:Generated_Source\PSoC4/CyDMA.c ****     regValue = CYDMA_DESCR_BASE.descriptor[channel][descriptor].ctl & (uint32)~CYDMA_TRANSFER_MODE;
ARM GAS  C:\Users\fneves\AppData\Local\Temp\ccoNsDRu.s 			page 80


 3197              		.loc 1 1297 0 is_stmt 1
 3198 0052 0D49     		ldr	r1, .L316
 3199 0054 FB68     		ldr	r3, [r7, #12]
 3200 0056 5A00     		lsl	r2, r3, #1
 3201 0058 BB68     		ldr	r3, [r7, #8]
 3202 005a D318     		add	r3, r2, r3
 3203 005c 1B01     		lsl	r3, r3, #4
 3204 005e CB18     		add	r3, r1, r3
 3205 0060 0833     		add	r3, r3, #8
 3206 0062 1B68     		ldr	r3, [r3]
 3207 0064 9B00     		lsl	r3, r3, #2
 3208 0066 9B08     		lsr	r3, r3, #2
 3209 0068 7B61     		str	r3, [r7, #20]
1298:Generated_Source\PSoC4/CyDMA.c ****     CYDMA_DESCR_BASE.descriptor[channel][descriptor].ctl = regValue | transferMode;
 3210              		.loc 1 1298 0
 3211 006a 0748     		ldr	r0, .L316
 3212 006c 7A69     		ldr	r2, [r7, #20]
 3213 006e 7B68     		ldr	r3, [r7, #4]
 3214 0070 1A43     		orr	r2, r3
 3215 0072 FB68     		ldr	r3, [r7, #12]
 3216 0074 5900     		lsl	r1, r3, #1
 3217 0076 BB68     		ldr	r3, [r7, #8]
 3218 0078 CB18     		add	r3, r1, r3
 3219 007a 1B01     		lsl	r3, r3, #4
 3220 007c C318     		add	r3, r0, r3
 3221 007e 0833     		add	r3, r3, #8
 3222 0080 1A60     		str	r2, [r3]
1299:Generated_Source\PSoC4/CyDMA.c **** }
 3223              		.loc 1 1299 0
 3224 0082 BD46     		mov	sp, r7
 3225 0084 06B0     		add	sp, sp, #24
 3226              		@ sp needed
 3227 0086 80BD     		pop	{r7, pc}
 3228              	.L317:
 3229              		.align	2
 3230              	.L316:
 3231 0088 00181040 		.word	1074796544
 3232              		.cfi_endproc
 3233              	.LFE43:
 3234              		.size	CyDmaSetTransferMode, .-CyDmaSetTransferMode
 3235              		.section	.text.CyDmaGetTransferMode,"ax",%progbits
 3236              		.align	2
 3237              		.global	CyDmaGetTransferMode
 3238              		.code	16
 3239              		.thumb_func
 3240              		.type	CyDmaGetTransferMode, %function
 3241              	CyDmaGetTransferMode:
 3242              	.LFB44:
1300:Generated_Source\PSoC4/CyDMA.c **** 
1301:Generated_Source\PSoC4/CyDMA.c **** 
1302:Generated_Source\PSoC4/CyDMA.c **** /*******************************************************************************
1303:Generated_Source\PSoC4/CyDMA.c **** * Function Name: CyDmaGetTransferMode
1304:Generated_Source\PSoC4/CyDMA.c **** ********************************************************************************
1305:Generated_Source\PSoC4/CyDMA.c **** *
1306:Generated_Source\PSoC4/CyDMA.c **** * Summary:
1307:Generated_Source\PSoC4/CyDMA.c **** *  Returns the transfer mode for the specified descriptor as set by 
1308:Generated_Source\PSoC4/CyDMA.c **** *  CyDmaSetTransferMode() or CyDmaSetConfiguration.
ARM GAS  C:\Users\fneves\AppData\Local\Temp\ccoNsDRu.s 			page 81


1309:Generated_Source\PSoC4/CyDMA.c **** *
1310:Generated_Source\PSoC4/CyDMA.c **** * Parameters:
1311:Generated_Source\PSoC4/CyDMA.c **** *  channel:    Channel used by this function.
1312:Generated_Source\PSoC4/CyDMA.c **** *  descriptor: Descriptor (0 or 1) modified by this function.
1313:Generated_Source\PSoC4/CyDMA.c **** *                   
1314:Generated_Source\PSoC4/CyDMA.c **** * Return:
1315:Generated_Source\PSoC4/CyDMA.c **** *  DMA transfer mode settings. Refer to the API bit field definitions in
1316:Generated_Source\PSoC4/CyDMA.c **** *  CyDMA_P4.h or the API description in the DMA channel datasheet for more
1317:Generated_Source\PSoC4/CyDMA.c **** *  information.
1318:Generated_Source\PSoC4/CyDMA.c **** *
1319:Generated_Source\PSoC4/CyDMA.c **** *******************************************************************************/
1320:Generated_Source\PSoC4/CyDMA.c **** uint32 CyDmaGetTransferMode(int32 channel, int32 descriptor)
1321:Generated_Source\PSoC4/CyDMA.c **** {
 3243              		.loc 1 1321 0
 3244              		.cfi_startproc
 3245 0000 80B5     		push	{r7, lr}
 3246              		.cfi_def_cfa_offset 8
 3247              		.cfi_offset 7, -8
 3248              		.cfi_offset 14, -4
 3249 0002 82B0     		sub	sp, sp, #8
 3250              		.cfi_def_cfa_offset 16
 3251 0004 00AF     		add	r7, sp, #0
 3252              		.cfi_def_cfa_register 7
 3253 0006 7860     		str	r0, [r7, #4]
 3254 0008 3960     		str	r1, [r7]
1322:Generated_Source\PSoC4/CyDMA.c ****     CYASSERT((channel    >= 0) && (channel    < CYDMA_CH_NR));
 3255              		.loc 1 1322 0
 3256 000a 7B68     		ldr	r3, [r7, #4]
 3257 000c 002B     		cmp	r3, #0
 3258 000e 04DB     		blt	.L319
 3259              		.loc 1 1322 0 is_stmt 0 discriminator 1
 3260 0010 7B68     		ldr	r3, [r7, #4]
 3261 0012 072B     		cmp	r3, #7
 3262 0014 01DC     		bgt	.L319
 3263              		.loc 1 1322 0 discriminator 3
 3264 0016 0123     		mov	r3, #1
 3265 0018 00E0     		b	.L320
 3266              	.L319:
 3267              		.loc 1 1322 0 discriminator 4
 3268 001a 0023     		mov	r3, #0
 3269              	.L320:
 3270              		.loc 1 1322 0 discriminator 6
 3271 001c 002B     		cmp	r3, #0
 3272 001e 02D1     		bne	.L321
 3273              		.loc 1 1322 0 discriminator 7
 3274 0020 0020     		mov	r0, #0
 3275 0022 FFF7FEFF 		bl	CyHalt
 3276              	.L321:
1323:Generated_Source\PSoC4/CyDMA.c ****     CYASSERT((descriptor >= 0) && (descriptor < CYDMA_DESCR_NR));
 3277              		.loc 1 1323 0 is_stmt 1
 3278 0026 3B68     		ldr	r3, [r7]
 3279 0028 002B     		cmp	r3, #0
 3280 002a 04DB     		blt	.L322
 3281              		.loc 1 1323 0 is_stmt 0 discriminator 1
 3282 002c 3B68     		ldr	r3, [r7]
 3283 002e 012B     		cmp	r3, #1
 3284 0030 01DC     		bgt	.L322
ARM GAS  C:\Users\fneves\AppData\Local\Temp\ccoNsDRu.s 			page 82


 3285              		.loc 1 1323 0 discriminator 3
 3286 0032 0123     		mov	r3, #1
 3287 0034 00E0     		b	.L323
 3288              	.L322:
 3289              		.loc 1 1323 0 discriminator 4
 3290 0036 0023     		mov	r3, #0
 3291              	.L323:
 3292              		.loc 1 1323 0 discriminator 6
 3293 0038 002B     		cmp	r3, #0
 3294 003a 02D1     		bne	.L324
 3295              		.loc 1 1323 0 discriminator 7
 3296 003c 0020     		mov	r0, #0
 3297 003e FFF7FEFF 		bl	CyHalt
 3298              	.L324:
1324:Generated_Source\PSoC4/CyDMA.c **** 
1325:Generated_Source\PSoC4/CyDMA.c ****     return (CYDMA_DESCR_BASE.descriptor[channel][descriptor].ctl & CYDMA_TRANSFER_MODE);
 3299              		.loc 1 1325 0 is_stmt 1
 3300 0042 0749     		ldr	r1, .L326
 3301 0044 7B68     		ldr	r3, [r7, #4]
 3302 0046 5A00     		lsl	r2, r3, #1
 3303 0048 3B68     		ldr	r3, [r7]
 3304 004a D318     		add	r3, r2, r3
 3305 004c 1B01     		lsl	r3, r3, #4
 3306 004e CB18     		add	r3, r1, r3
 3307 0050 0833     		add	r3, r3, #8
 3308 0052 1B68     		ldr	r3, [r3]
 3309 0054 9B0F     		lsr	r3, r3, #30
 3310 0056 9B07     		lsl	r3, r3, #30
1326:Generated_Source\PSoC4/CyDMA.c **** }
 3311              		.loc 1 1326 0
 3312 0058 181C     		mov	r0, r3
 3313 005a BD46     		mov	sp, r7
 3314 005c 02B0     		add	sp, sp, #8
 3315              		@ sp needed
 3316 005e 80BD     		pop	{r7, pc}
 3317              	.L327:
 3318              		.align	2
 3319              	.L326:
 3320 0060 00181040 		.word	1074796544
 3321              		.cfi_endproc
 3322              	.LFE44:
 3323              		.size	CyDmaGetTransferMode, .-CyDmaGetTransferMode
 3324              		.section	.text.CyDmaSetPreemptable,"ax",%progbits
 3325              		.align	2
 3326              		.global	CyDmaSetPreemptable
 3327              		.code	16
 3328              		.thumb_func
 3329              		.type	CyDmaSetPreemptable, %function
 3330              	CyDmaSetPreemptable:
 3331              	.LFB45:
1327:Generated_Source\PSoC4/CyDMA.c **** 
1328:Generated_Source\PSoC4/CyDMA.c **** 
1329:Generated_Source\PSoC4/CyDMA.c **** /*******************************************************************************
1330:Generated_Source\PSoC4/CyDMA.c **** * Function Name: CyDmaSetPreemptable
1331:Generated_Source\PSoC4/CyDMA.c **** ********************************************************************************
1332:Generated_Source\PSoC4/CyDMA.c **** *
1333:Generated_Source\PSoC4/CyDMA.c **** * Summary:
ARM GAS  C:\Users\fneves\AppData\Local\Temp\ccoNsDRu.s 			page 83


1334:Generated_Source\PSoC4/CyDMA.c **** *  Determines if the descriptor is preemptable.
1335:Generated_Source\PSoC4/CyDMA.c **** *
1336:Generated_Source\PSoC4/CyDMA.c **** * Parameters:
1337:Generated_Source\PSoC4/CyDMA.c **** *  channel:     Channel used by this function.
1338:Generated_Source\PSoC4/CyDMA.c **** *  descriptor:  Descriptor (0 or 1) modified by this function.
1339:Generated_Source\PSoC4/CyDMA.c **** *  preemptable: Descriptor preemption settings. Refer to the API bit fields
1340:Generated_Source\PSoC4/CyDMA.c **** *               definition in CyDMA_P4.h or the API description in the DMA 
1341:Generated_Source\PSoC4/CyDMA.c **** *               channel datasheet for the parameter options.
1342:Generated_Source\PSoC4/CyDMA.c **** *                   
1343:Generated_Source\PSoC4/CyDMA.c **** * Return:
1344:Generated_Source\PSoC4/CyDMA.c **** *  None.
1345:Generated_Source\PSoC4/CyDMA.c **** *
1346:Generated_Source\PSoC4/CyDMA.c **** * Side effect:
1347:Generated_Source\PSoC4/CyDMA.c **** *  This function should not be called when the specified descriptor is active
1348:Generated_Source\PSoC4/CyDMA.c **** *  in the DMA transfer engine. This can be checked by calling CyDmaGetStatus(). 
1349:Generated_Source\PSoC4/CyDMA.c **** *
1350:Generated_Source\PSoC4/CyDMA.c **** *******************************************************************************/
1351:Generated_Source\PSoC4/CyDMA.c **** void CyDmaSetPreemptable(int32 channel, int32 descriptor, uint32 preemptable)
1352:Generated_Source\PSoC4/CyDMA.c **** {
 3332              		.loc 1 1352 0
 3333              		.cfi_startproc
 3334 0000 80B5     		push	{r7, lr}
 3335              		.cfi_def_cfa_offset 8
 3336              		.cfi_offset 7, -8
 3337              		.cfi_offset 14, -4
 3338 0002 86B0     		sub	sp, sp, #24
 3339              		.cfi_def_cfa_offset 32
 3340 0004 00AF     		add	r7, sp, #0
 3341              		.cfi_def_cfa_register 7
 3342 0006 F860     		str	r0, [r7, #12]
 3343 0008 B960     		str	r1, [r7, #8]
 3344 000a 7A60     		str	r2, [r7, #4]
1353:Generated_Source\PSoC4/CyDMA.c ****     uint32 regValue;
1354:Generated_Source\PSoC4/CyDMA.c **** 
1355:Generated_Source\PSoC4/CyDMA.c ****     CYASSERT((channel    >= 0) && (channel    < CYDMA_CH_NR));
 3345              		.loc 1 1355 0
 3346 000c FB68     		ldr	r3, [r7, #12]
 3347 000e 002B     		cmp	r3, #0
 3348 0010 04DB     		blt	.L329
 3349              		.loc 1 1355 0 is_stmt 0 discriminator 1
 3350 0012 FB68     		ldr	r3, [r7, #12]
 3351 0014 072B     		cmp	r3, #7
 3352 0016 01DC     		bgt	.L329
 3353              		.loc 1 1355 0 discriminator 3
 3354 0018 0123     		mov	r3, #1
 3355 001a 00E0     		b	.L330
 3356              	.L329:
 3357              		.loc 1 1355 0 discriminator 4
 3358 001c 0023     		mov	r3, #0
 3359              	.L330:
 3360              		.loc 1 1355 0 discriminator 6
 3361 001e 002B     		cmp	r3, #0
 3362 0020 02D1     		bne	.L331
 3363              		.loc 1 1355 0 discriminator 7
 3364 0022 0020     		mov	r0, #0
 3365 0024 FFF7FEFF 		bl	CyHalt
 3366              	.L331:
ARM GAS  C:\Users\fneves\AppData\Local\Temp\ccoNsDRu.s 			page 84


1356:Generated_Source\PSoC4/CyDMA.c ****     CYASSERT((descriptor >= 0) && (descriptor < CYDMA_DESCR_NR));
 3367              		.loc 1 1356 0 is_stmt 1
 3368 0028 BB68     		ldr	r3, [r7, #8]
 3369 002a 002B     		cmp	r3, #0
 3370 002c 04DB     		blt	.L332
 3371              		.loc 1 1356 0 is_stmt 0 discriminator 1
 3372 002e BB68     		ldr	r3, [r7, #8]
 3373 0030 012B     		cmp	r3, #1
 3374 0032 01DC     		bgt	.L332
 3375              		.loc 1 1356 0 discriminator 3
 3376 0034 0123     		mov	r3, #1
 3377 0036 00E0     		b	.L333
 3378              	.L332:
 3379              		.loc 1 1356 0 discriminator 4
 3380 0038 0023     		mov	r3, #0
 3381              	.L333:
 3382              		.loc 1 1356 0 discriminator 6
 3383 003a 002B     		cmp	r3, #0
 3384 003c 02D1     		bne	.L334
 3385              		.loc 1 1356 0 discriminator 7
 3386 003e 0020     		mov	r0, #0
 3387 0040 FFF7FEFF 		bl	CyHalt
 3388              	.L334:
1357:Generated_Source\PSoC4/CyDMA.c ****     CYASSERT(0u == (preemptable & (uint32)~CYDMA_PREEMPTABLE));
 3389              		.loc 1 1357 0 is_stmt 1
 3390 0044 7B68     		ldr	r3, [r7, #4]
 3391 0046 104A     		ldr	r2, .L336
 3392 0048 1340     		and	r3, r2
 3393 004a 02D0     		beq	.L335
 3394              		.loc 1 1357 0 is_stmt 0 discriminator 1
 3395 004c 0020     		mov	r0, #0
 3396 004e FFF7FEFF 		bl	CyHalt
 3397              	.L335:
1358:Generated_Source\PSoC4/CyDMA.c **** 
1359:Generated_Source\PSoC4/CyDMA.c ****     regValue = CYDMA_DESCR_BASE.descriptor[channel][descriptor].ctl & (uint32)~CYDMA_PREEMPTABLE;
 3398              		.loc 1 1359 0 is_stmt 1
 3399 0052 0E49     		ldr	r1, .L336+4
 3400 0054 FB68     		ldr	r3, [r7, #12]
 3401 0056 5A00     		lsl	r2, r3, #1
 3402 0058 BB68     		ldr	r3, [r7, #8]
 3403 005a D318     		add	r3, r2, r3
 3404 005c 1B01     		lsl	r3, r3, #4
 3405 005e CB18     		add	r3, r1, r3
 3406 0060 0833     		add	r3, r3, #8
 3407 0062 1B68     		ldr	r3, [r3]
 3408 0064 084A     		ldr	r2, .L336
 3409 0066 1340     		and	r3, r2
 3410 0068 7B61     		str	r3, [r7, #20]
1360:Generated_Source\PSoC4/CyDMA.c ****     CYDMA_DESCR_BASE.descriptor[channel][descriptor].ctl = regValue | preemptable;
 3411              		.loc 1 1360 0
 3412 006a 0848     		ldr	r0, .L336+4
 3413 006c 7A69     		ldr	r2, [r7, #20]
 3414 006e 7B68     		ldr	r3, [r7, #4]
 3415 0070 1A43     		orr	r2, r3
 3416 0072 FB68     		ldr	r3, [r7, #12]
 3417 0074 5900     		lsl	r1, r3, #1
 3418 0076 BB68     		ldr	r3, [r7, #8]
ARM GAS  C:\Users\fneves\AppData\Local\Temp\ccoNsDRu.s 			page 85


 3419 0078 CB18     		add	r3, r1, r3
 3420 007a 1B01     		lsl	r3, r3, #4
 3421 007c C318     		add	r3, r0, r3
 3422 007e 0833     		add	r3, r3, #8
 3423 0080 1A60     		str	r2, [r3]
1361:Generated_Source\PSoC4/CyDMA.c **** }
 3424              		.loc 1 1361 0
 3425 0082 BD46     		mov	sp, r7
 3426 0084 06B0     		add	sp, sp, #24
 3427              		@ sp needed
 3428 0086 80BD     		pop	{r7, pc}
 3429              	.L337:
 3430              		.align	2
 3431              	.L336:
 3432 0088 FFFFFFEF 		.word	-268435457
 3433 008c 00181040 		.word	1074796544
 3434              		.cfi_endproc
 3435              	.LFE45:
 3436              		.size	CyDmaSetPreemptable, .-CyDmaSetPreemptable
 3437              		.section	.text.CyDmaGetPreemptable,"ax",%progbits
 3438              		.align	2
 3439              		.global	CyDmaGetPreemptable
 3440              		.code	16
 3441              		.thumb_func
 3442              		.type	CyDmaGetPreemptable, %function
 3443              	CyDmaGetPreemptable:
 3444              	.LFB46:
1362:Generated_Source\PSoC4/CyDMA.c **** 
1363:Generated_Source\PSoC4/CyDMA.c **** 
1364:Generated_Source\PSoC4/CyDMA.c **** /*******************************************************************************
1365:Generated_Source\PSoC4/CyDMA.c **** * Function Name: CyDmaGetPreemptable
1366:Generated_Source\PSoC4/CyDMA.c **** ********************************************************************************
1367:Generated_Source\PSoC4/CyDMA.c **** *
1368:Generated_Source\PSoC4/CyDMA.c **** * Summary:
1369:Generated_Source\PSoC4/CyDMA.c **** *  Returns whether or not the descriptor is preemptable.
1370:Generated_Source\PSoC4/CyDMA.c **** *
1371:Generated_Source\PSoC4/CyDMA.c **** * Parameters:
1372:Generated_Source\PSoC4/CyDMA.c **** *  channel:    Channel used by this function.
1373:Generated_Source\PSoC4/CyDMA.c **** *  descriptor: Descriptor (0 or 1) modified by this function.
1374:Generated_Source\PSoC4/CyDMA.c **** *                   
1375:Generated_Source\PSoC4/CyDMA.c **** * Return:
1376:Generated_Source\PSoC4/CyDMA.c **** *  Descriptor preemption setting. Refer to the API bit field definitions in
1377:Generated_Source\PSoC4/CyDMA.c **** *  CyDMA_P4.h or the API description in the DMA channel datasheet for more
1378:Generated_Source\PSoC4/CyDMA.c **** *  information.
1379:Generated_Source\PSoC4/CyDMA.c **** *
1380:Generated_Source\PSoC4/CyDMA.c **** *******************************************************************************/
1381:Generated_Source\PSoC4/CyDMA.c **** uint32 CyDmaGetPreemptable(int32 channel, int32 descriptor)
1382:Generated_Source\PSoC4/CyDMA.c **** {
 3445              		.loc 1 1382 0
 3446              		.cfi_startproc
 3447 0000 80B5     		push	{r7, lr}
 3448              		.cfi_def_cfa_offset 8
 3449              		.cfi_offset 7, -8
 3450              		.cfi_offset 14, -4
 3451 0002 82B0     		sub	sp, sp, #8
 3452              		.cfi_def_cfa_offset 16
 3453 0004 00AF     		add	r7, sp, #0
ARM GAS  C:\Users\fneves\AppData\Local\Temp\ccoNsDRu.s 			page 86


 3454              		.cfi_def_cfa_register 7
 3455 0006 7860     		str	r0, [r7, #4]
 3456 0008 3960     		str	r1, [r7]
1383:Generated_Source\PSoC4/CyDMA.c ****     CYASSERT((channel    >= 0) && (channel    < CYDMA_CH_NR));
 3457              		.loc 1 1383 0
 3458 000a 7B68     		ldr	r3, [r7, #4]
 3459 000c 002B     		cmp	r3, #0
 3460 000e 04DB     		blt	.L339
 3461              		.loc 1 1383 0 is_stmt 0 discriminator 1
 3462 0010 7B68     		ldr	r3, [r7, #4]
 3463 0012 072B     		cmp	r3, #7
 3464 0014 01DC     		bgt	.L339
 3465              		.loc 1 1383 0 discriminator 3
 3466 0016 0123     		mov	r3, #1
 3467 0018 00E0     		b	.L340
 3468              	.L339:
 3469              		.loc 1 1383 0 discriminator 4
 3470 001a 0023     		mov	r3, #0
 3471              	.L340:
 3472              		.loc 1 1383 0 discriminator 6
 3473 001c 002B     		cmp	r3, #0
 3474 001e 02D1     		bne	.L341
 3475              		.loc 1 1383 0 discriminator 7
 3476 0020 0020     		mov	r0, #0
 3477 0022 FFF7FEFF 		bl	CyHalt
 3478              	.L341:
1384:Generated_Source\PSoC4/CyDMA.c ****     CYASSERT((descriptor >= 0) && (descriptor < CYDMA_DESCR_NR));
 3479              		.loc 1 1384 0 is_stmt 1
 3480 0026 3B68     		ldr	r3, [r7]
 3481 0028 002B     		cmp	r3, #0
 3482 002a 04DB     		blt	.L342
 3483              		.loc 1 1384 0 is_stmt 0 discriminator 1
 3484 002c 3B68     		ldr	r3, [r7]
 3485 002e 012B     		cmp	r3, #1
 3486 0030 01DC     		bgt	.L342
 3487              		.loc 1 1384 0 discriminator 3
 3488 0032 0123     		mov	r3, #1
 3489 0034 00E0     		b	.L343
 3490              	.L342:
 3491              		.loc 1 1384 0 discriminator 4
 3492 0036 0023     		mov	r3, #0
 3493              	.L343:
 3494              		.loc 1 1384 0 discriminator 6
 3495 0038 002B     		cmp	r3, #0
 3496 003a 02D1     		bne	.L344
 3497              		.loc 1 1384 0 discriminator 7
 3498 003c 0020     		mov	r0, #0
 3499 003e FFF7FEFF 		bl	CyHalt
 3500              	.L344:
1385:Generated_Source\PSoC4/CyDMA.c **** 
1386:Generated_Source\PSoC4/CyDMA.c ****     return (CYDMA_DESCR_BASE.descriptor[channel][descriptor].ctl & CYDMA_PREEMPTABLE);
 3501              		.loc 1 1386 0 is_stmt 1
 3502 0042 0849     		ldr	r1, .L346
 3503 0044 7B68     		ldr	r3, [r7, #4]
 3504 0046 5A00     		lsl	r2, r3, #1
 3505 0048 3B68     		ldr	r3, [r7]
 3506 004a D318     		add	r3, r2, r3
ARM GAS  C:\Users\fneves\AppData\Local\Temp\ccoNsDRu.s 			page 87


 3507 004c 1B01     		lsl	r3, r3, #4
 3508 004e CB18     		add	r3, r1, r3
 3509 0050 0833     		add	r3, r3, #8
 3510 0052 1A68     		ldr	r2, [r3]
