ARM GAS  C:\Users\fneves\AppData\Local\Temp\cccs4Sxc.s 			page 1


   1              		.cpu cortex-m0plus
   2              		.fpu softvfp
   3              		.eabi_attribute 20, 1
   4              		.eabi_attribute 21, 1
   5              		.eabi_attribute 23, 3
   6              		.eabi_attribute 24, 1
   7              		.eabi_attribute 25, 1
   8              		.eabi_attribute 26, 1
   9              		.eabi_attribute 30, 6
  10              		.eabi_attribute 34, 0
  11              		.eabi_attribute 18, 4
  12              		.code	16
  13              		.file	"engine_sensor_adc_PM.c"
  14              		.text
  15              	.Ltext0:
  16              		.cfi_sections	.debug_frame
  17              		.bss
  18              		.align	2
  19              	engine_sensor_adc_backup:
  20 0000 00       		.space	1
  21 0001 000000   		.section	.text.engine_sensor_adc_Sleep,"ax",%progbits
  22              		.align	2
  23              		.global	engine_sensor_adc_Sleep
  24              		.code	16
  25              		.thumb_func
  26              		.type	engine_sensor_adc_Sleep, %function
  27              	engine_sensor_adc_Sleep:
  28              	.LFB1:
  29              		.file 1 "Generated_Source\\PSoC4\\engine_sensor_adc_PM.c"
   1:Generated_Source\PSoC4/engine_sensor_adc_PM.c **** /***************************************************************************//**
   2:Generated_Source\PSoC4/engine_sensor_adc_PM.c **** * \file engine_sensor_adc_PM.c  
   3:Generated_Source\PSoC4/engine_sensor_adc_PM.c **** * \version 1.20
   4:Generated_Source\PSoC4/engine_sensor_adc_PM.c **** *
   5:Generated_Source\PSoC4/engine_sensor_adc_PM.c **** * \brief
   6:Generated_Source\PSoC4/engine_sensor_adc_PM.c **** *  This file provides the power manager source code to the API for 
   7:Generated_Source\PSoC4/engine_sensor_adc_PM.c **** *  engine_sensor_adc component.
   8:Generated_Source\PSoC4/engine_sensor_adc_PM.c **** *
   9:Generated_Source\PSoC4/engine_sensor_adc_PM.c **** ********************************************************************************
  10:Generated_Source\PSoC4/engine_sensor_adc_PM.c **** * \copyright
  11:Generated_Source\PSoC4/engine_sensor_adc_PM.c **** * (c) 2015-2016, Cypress Semiconductor Corporation. All rights reserved.
  12:Generated_Source\PSoC4/engine_sensor_adc_PM.c **** * This software, including source code, documentation and related
  13:Generated_Source\PSoC4/engine_sensor_adc_PM.c **** * materials ("Software"), is owned by Cypress Semiconductor
  14:Generated_Source\PSoC4/engine_sensor_adc_PM.c **** * Corporation ("Cypress") and is protected by and subject to worldwide
  15:Generated_Source\PSoC4/engine_sensor_adc_PM.c **** * patent protection (United States and foreign), United States copyright
  16:Generated_Source\PSoC4/engine_sensor_adc_PM.c **** * laws and international treaty provisions. Therefore, you may use this
  17:Generated_Source\PSoC4/engine_sensor_adc_PM.c **** * Software only as provided in the license agreement accompanying the
  18:Generated_Source\PSoC4/engine_sensor_adc_PM.c **** * software package from which you obtained this Software ("EULA").
  19:Generated_Source\PSoC4/engine_sensor_adc_PM.c **** * If no EULA applies, Cypress hereby grants you a personal, nonexclusive,
  20:Generated_Source\PSoC4/engine_sensor_adc_PM.c **** * non-transferable license to copy, modify, and compile the
  21:Generated_Source\PSoC4/engine_sensor_adc_PM.c **** * Software source code solely for use in connection with Cypress's
  22:Generated_Source\PSoC4/engine_sensor_adc_PM.c **** * integrated circuit products. Any reproduction, modification, translation,
  23:Generated_Source\PSoC4/engine_sensor_adc_PM.c **** * compilation, or representation of this Software except as specified
  24:Generated_Source\PSoC4/engine_sensor_adc_PM.c **** * above is prohibited without the express written permission of Cypress.
  25:Generated_Source\PSoC4/engine_sensor_adc_PM.c **** * Disclaimer: THIS SOFTWARE IS PROVIDED AS-IS, WITH NO
  26:Generated_Source\PSoC4/engine_sensor_adc_PM.c **** * WARRANTY OF ANY KIND, EXPRESS OR IMPLIED, INCLUDING,
  27:Generated_Source\PSoC4/engine_sensor_adc_PM.c **** * BUT NOT LIMITED TO, NONINFRINGEMENT, IMPLIED
  28:Generated_Source\PSoC4/engine_sensor_adc_PM.c **** * WARRANTIES OF MERCHANTABILITY AND FITNESS FOR A
ARM GAS  C:\Users\fneves\AppData\Local\Temp\cccs4Sxc.s 			page 2


  29:Generated_Source\PSoC4/engine_sensor_adc_PM.c **** * PARTICULAR PURPOSE. Cypress reserves the right to make
  30:Generated_Source\PSoC4/engine_sensor_adc_PM.c **** * changes to the Software without notice. Cypress does not assume any
  31:Generated_Source\PSoC4/engine_sensor_adc_PM.c **** * liability arising out of the application or use of the Software or any
  32:Generated_Source\PSoC4/engine_sensor_adc_PM.c **** * product or circuit described in the Software. Cypress does not
  33:Generated_Source\PSoC4/engine_sensor_adc_PM.c **** * authorize its products for use in any products where a malfunction or
  34:Generated_Source\PSoC4/engine_sensor_adc_PM.c **** * failure of the Cypress product may reasonably be expected to result in
  35:Generated_Source\PSoC4/engine_sensor_adc_PM.c **** * significant property damage, injury or death ("High Risk Product"). By
  36:Generated_Source\PSoC4/engine_sensor_adc_PM.c **** * including Cypress's product in a High Risk Product, the manufacturer
  37:Generated_Source\PSoC4/engine_sensor_adc_PM.c **** * of such system or application assumes all risk of such use and in doing
  38:Generated_Source\PSoC4/engine_sensor_adc_PM.c **** * so agrees to indemnify Cypress against all liability.
  39:Generated_Source\PSoC4/engine_sensor_adc_PM.c **** *******************************************************************************/
  40:Generated_Source\PSoC4/engine_sensor_adc_PM.c **** 
  41:Generated_Source\PSoC4/engine_sensor_adc_PM.c **** #include "engine_sensor_adc.h"
  42:Generated_Source\PSoC4/engine_sensor_adc_PM.c **** 
  43:Generated_Source\PSoC4/engine_sensor_adc_PM.c **** /**
  44:Generated_Source\PSoC4/engine_sensor_adc_PM.c **** * \addtogroup group_globals
  45:Generated_Source\PSoC4/engine_sensor_adc_PM.c **** * @{
  46:Generated_Source\PSoC4/engine_sensor_adc_PM.c **** */
  47:Generated_Source\PSoC4/engine_sensor_adc_PM.c **** /** Contains configuration of engine_sensor_adc before sleep. Enable state is the
  48:Generated_Source\PSoC4/engine_sensor_adc_PM.c **** *   only data required to be preserved. */
  49:Generated_Source\PSoC4/engine_sensor_adc_PM.c **** static engine_sensor_adc_BACKUP_STRUCT  engine_sensor_adc_backup =
  50:Generated_Source\PSoC4/engine_sensor_adc_PM.c **** {
  51:Generated_Source\PSoC4/engine_sensor_adc_PM.c ****     0u,
  52:Generated_Source\PSoC4/engine_sensor_adc_PM.c **** };
  53:Generated_Source\PSoC4/engine_sensor_adc_PM.c **** /** @} globals */
  54:Generated_Source\PSoC4/engine_sensor_adc_PM.c **** 
  55:Generated_Source\PSoC4/engine_sensor_adc_PM.c **** 
  56:Generated_Source\PSoC4/engine_sensor_adc_PM.c **** /*******************************************************************************   
  57:Generated_Source\PSoC4/engine_sensor_adc_PM.c **** * Function Name: engine_sensor_adc_Sleep
  58:Generated_Source\PSoC4/engine_sensor_adc_PM.c **** ****************************************************************************//**
  59:Generated_Source\PSoC4/engine_sensor_adc_PM.c **** *
  60:Generated_Source\PSoC4/engine_sensor_adc_PM.c **** * \brief This is the preferred routine to prepare the component for sleep. The 
  61:Generated_Source\PSoC4/engine_sensor_adc_PM.c **** * engine_sensor_adc_Sleep() routine saves the current component state. Then it 
  62:Generated_Source\PSoC4/engine_sensor_adc_PM.c **** * calls the engine_sensor_adc_Stop() function and calls 
  63:Generated_Source\PSoC4/engine_sensor_adc_PM.c **** * engine_sensor_adc_SaveConfig() to save the hardware configuration.
  64:Generated_Source\PSoC4/engine_sensor_adc_PM.c **** * 
  65:Generated_Source\PSoC4/engine_sensor_adc_PM.c **** * Call the engine_sensor_adc_Sleep() function before calling the 
  66:Generated_Source\PSoC4/engine_sensor_adc_PM.c **** * CySysPmDeepSleep() or the CySysPmHibernate() function. See the PSoC Creator 
  67:Generated_Source\PSoC4/engine_sensor_adc_PM.c **** * System Reference Guide for more information about power-management functions.
  68:Generated_Source\PSoC4/engine_sensor_adc_PM.c **** * 
  69:Generated_Source\PSoC4/engine_sensor_adc_PM.c **** * \param None
  70:Generated_Source\PSoC4/engine_sensor_adc_PM.c **** * 
  71:Generated_Source\PSoC4/engine_sensor_adc_PM.c **** * \return None
  72:Generated_Source\PSoC4/engine_sensor_adc_PM.c **** *
  73:Generated_Source\PSoC4/engine_sensor_adc_PM.c **** * \sideeffect If this function is called twice in the enable state of the 
  74:Generated_Source\PSoC4/engine_sensor_adc_PM.c **** * component, the disabled state of the component will be stored. So 
  75:Generated_Source\PSoC4/engine_sensor_adc_PM.c **** * engine_sensor_adc_Enable() and engine_sensor_adc_StartConvert() must be called 
  76:Generated_Source\PSoC4/engine_sensor_adc_PM.c **** * after engine_sensor_adc_Wakeup() in this case.
  77:Generated_Source\PSoC4/engine_sensor_adc_PM.c **** *
  78:Generated_Source\PSoC4/engine_sensor_adc_PM.c **** * <b>Code Snippet</b>
  79:Generated_Source\PSoC4/engine_sensor_adc_PM.c **** *  \snippet main.c snippet_engine_sensor_adc_Sleep
  80:Generated_Source\PSoC4/engine_sensor_adc_PM.c **** *
  81:Generated_Source\PSoC4/engine_sensor_adc_PM.c **** * \globalvars
  82:Generated_Source\PSoC4/engine_sensor_adc_PM.c **** *  \ref engine_sensor_adc_backup (W)
  83:Generated_Source\PSoC4/engine_sensor_adc_PM.c **** *
  84:Generated_Source\PSoC4/engine_sensor_adc_PM.c **** * \globalvars
  85:Generated_Source\PSoC4/engine_sensor_adc_PM.c **** *  \ref engine_sensor_adc_backup
ARM GAS  C:\Users\fneves\AppData\Local\Temp\cccs4Sxc.s 			page 3


  86:Generated_Source\PSoC4/engine_sensor_adc_PM.c **** *
  87:Generated_Source\PSoC4/engine_sensor_adc_PM.c **** *******************************************************************************/
  88:Generated_Source\PSoC4/engine_sensor_adc_PM.c **** void engine_sensor_adc_Sleep(void) 
  89:Generated_Source\PSoC4/engine_sensor_adc_PM.c **** {
  30              		.loc 1 89 0
  31              		.cfi_startproc
  32 0000 80B5     		push	{r7, lr}
  33              		.cfi_def_cfa_offset 8
  34              		.cfi_offset 7, -8
  35              		.cfi_offset 14, -4
  36 0002 82B0     		sub	sp, sp, #8
  37              		.cfi_def_cfa_offset 16
  38 0004 00AF     		add	r7, sp, #0
  39              		.cfi_def_cfa_register 7
  90:Generated_Source\PSoC4/engine_sensor_adc_PM.c ****     uint32 dftRegVal = (uint32) engine_sensor_adc_SAR_DFT_CTRL_REG;
  40              		.loc 1 90 0
  41 0006 2B4B     		ldr	r3, .L6
  42 0008 1B68     		ldr	r3, [r3]
  43 000a 7B60     		str	r3, [r7, #4]
  91:Generated_Source\PSoC4/engine_sensor_adc_PM.c **** 
  92:Generated_Source\PSoC4/engine_sensor_adc_PM.c ****     engine_sensor_adc_backup.enableState = 0u;
  44              		.loc 1 92 0
  45 000c 2A4B     		ldr	r3, .L6+4
  46 000e 0022     		mov	r2, #0
  47 0010 1A70     		strb	r2, [r3]
  93:Generated_Source\PSoC4/engine_sensor_adc_PM.c ****     
  94:Generated_Source\PSoC4/engine_sensor_adc_PM.c ****     /* Save nonretention SAR_DFT_CTRL register state. */
  95:Generated_Source\PSoC4/engine_sensor_adc_PM.c ****     if((dftRegVal & engine_sensor_adc_SAR_DFT_CTRL_DCEN_MSK) != 0u)
  48              		.loc 1 95 0
  49 0012 7A68     		ldr	r2, [r7, #4]
  50 0014 8023     		mov	r3, #128
  51 0016 9B05     		lsl	r3, r3, #22
  52 0018 1340     		and	r3, r2
  53 001a 06D0     		beq	.L2
  96:Generated_Source\PSoC4/engine_sensor_adc_PM.c ****     {
  97:Generated_Source\PSoC4/engine_sensor_adc_PM.c ****         engine_sensor_adc_backup.enableState |= engine_sensor_adc_SLEEP_DFT_DCEN;
  54              		.loc 1 97 0
  55 001c 264B     		ldr	r3, .L6+4
  56 001e 1B78     		ldrb	r3, [r3]
  57 0020 0822     		mov	r2, #8
  58 0022 1343     		orr	r3, r2
  59 0024 DAB2     		uxtb	r2, r3
  60 0026 244B     		ldr	r3, .L6+4
  61 0028 1A70     		strb	r2, [r3]
  62              	.L2:
  98:Generated_Source\PSoC4/engine_sensor_adc_PM.c ****     }
  99:Generated_Source\PSoC4/engine_sensor_adc_PM.c ****     if((dftRegVal & engine_sensor_adc_SAR_DFT_CTRL_DLY_INC_MSK) != 0u)
  63              		.loc 1 99 0
  64 002a 7B68     		ldr	r3, [r7, #4]
  65 002c 0122     		mov	r2, #1
  66 002e 1340     		and	r3, r2
  67 0030 06D0     		beq	.L3
 100:Generated_Source\PSoC4/engine_sensor_adc_PM.c ****     {
 101:Generated_Source\PSoC4/engine_sensor_adc_PM.c ****         engine_sensor_adc_backup.enableState |= engine_sensor_adc_SLEEP_DFT_DLY_INC;
  68              		.loc 1 101 0
  69 0032 214B     		ldr	r3, .L6+4
  70 0034 1B78     		ldrb	r3, [r3]
ARM GAS  C:\Users\fneves\AppData\Local\Temp\cccs4Sxc.s 			page 4


  71 0036 1022     		mov	r2, #16
  72 0038 1343     		orr	r3, r2
  73 003a DAB2     		uxtb	r2, r3
  74 003c 1E4B     		ldr	r3, .L6+4
  75 003e 1A70     		strb	r2, [r3]
  76              	.L3:
 102:Generated_Source\PSoC4/engine_sensor_adc_PM.c ****     }
 103:Generated_Source\PSoC4/engine_sensor_adc_PM.c ****     
 104:Generated_Source\PSoC4/engine_sensor_adc_PM.c ****     /* During deepsleep/ hibernate mode keep SARMUX active, i.e. do not open
 105:Generated_Source\PSoC4/engine_sensor_adc_PM.c ****     *   all switches (disconnect), to be used for ADFT
 106:Generated_Source\PSoC4/engine_sensor_adc_PM.c ****     */
 107:Generated_Source\PSoC4/engine_sensor_adc_PM.c ****     engine_sensor_adc_SAR_DFT_CTRL_REG |= engine_sensor_adc_SAR_DFT_CTRL_ADFT_OVERRIDE_MSK;
  77              		.loc 1 107 0
  78 0040 1C4B     		ldr	r3, .L6
  79 0042 1C4A     		ldr	r2, .L6
  80 0044 1268     		ldr	r2, [r2]
  81 0046 8021     		mov	r1, #128
  82 0048 0906     		lsl	r1, r1, #24
  83 004a 0A43     		orr	r2, r1
  84 004c 1A60     		str	r2, [r3]
 108:Generated_Source\PSoC4/engine_sensor_adc_PM.c ****     
 109:Generated_Source\PSoC4/engine_sensor_adc_PM.c ****     if((engine_sensor_adc_SAR_CTRL_REG  & engine_sensor_adc_SAR_CTRL_ENABLED_MSK) != 0u)
  85              		.loc 1 109 0
  86 004e 1B4B     		ldr	r3, .L6+8
  87 0050 1B68     		ldr	r3, [r3]
  88 0052 002B     		cmp	r3, #0
  89 0054 2ADA     		bge	.L1
 110:Generated_Source\PSoC4/engine_sensor_adc_PM.c ****     {
 111:Generated_Source\PSoC4/engine_sensor_adc_PM.c ****         engine_sensor_adc_backup.enableState |= engine_sensor_adc_ENABLED;
  90              		.loc 1 111 0
  91 0056 184B     		ldr	r3, .L6+4
  92 0058 1B78     		ldrb	r3, [r3]
  93 005a 0122     		mov	r2, #1
  94 005c 1343     		orr	r3, r2
  95 005e DAB2     		uxtb	r2, r3
  96 0060 154B     		ldr	r3, .L6+4
  97 0062 1A70     		strb	r2, [r3]
 112:Generated_Source\PSoC4/engine_sensor_adc_PM.c ****         if((engine_sensor_adc_SAR_SAMPLE_CTRL_REG & engine_sensor_adc_SAR_SAMPLE_CTRL_CONTINUOUS_MS
  98              		.loc 1 112 0
  99 0064 164B     		ldr	r3, .L6+12
 100 0066 1A68     		ldr	r2, [r3]
 101 0068 8023     		mov	r3, #128
 102 006a 5B02     		lsl	r3, r3, #9
 103 006c 1340     		and	r3, r2
 104 006e 06D0     		beq	.L5
 113:Generated_Source\PSoC4/engine_sensor_adc_PM.c ****         {
 114:Generated_Source\PSoC4/engine_sensor_adc_PM.c ****             engine_sensor_adc_backup.enableState |= engine_sensor_adc_STARTED;
 105              		.loc 1 114 0
 106 0070 114B     		ldr	r3, .L6+4
 107 0072 1B78     		ldrb	r3, [r3]
 108 0074 0222     		mov	r2, #2
 109 0076 1343     		orr	r3, r2
 110 0078 DAB2     		uxtb	r2, r3
 111 007a 0F4B     		ldr	r3, .L6+4
 112 007c 1A70     		strb	r2, [r3]
 113              	.L5:
 115:Generated_Source\PSoC4/engine_sensor_adc_PM.c ****         }
ARM GAS  C:\Users\fneves\AppData\Local\Temp\cccs4Sxc.s 			page 5


 116:Generated_Source\PSoC4/engine_sensor_adc_PM.c **** 
 117:Generated_Source\PSoC4/engine_sensor_adc_PM.c ****         engine_sensor_adc_StopConvert();
 114              		.loc 1 117 0
 115 007e FFF7FEFF 		bl	engine_sensor_adc_StopConvert
 118:Generated_Source\PSoC4/engine_sensor_adc_PM.c ****         engine_sensor_adc_Stop();
 116              		.loc 1 118 0
 117 0082 FFF7FEFF 		bl	engine_sensor_adc_Stop
 119:Generated_Source\PSoC4/engine_sensor_adc_PM.c ****         
 120:Generated_Source\PSoC4/engine_sensor_adc_PM.c ****         /* Disable the SAR internal pump before entering the chip low power mode */
 121:Generated_Source\PSoC4/engine_sensor_adc_PM.c ****         if((engine_sensor_adc_SAR_CTRL_REG & engine_sensor_adc_SAR_CTRL_BOOSTPUMP_EN_MSK) != 0u)
 118              		.loc 1 121 0
 119 0086 0D4B     		ldr	r3, .L6+8
 120 0088 1A68     		ldr	r2, [r3]
 121 008a 8023     		mov	r3, #128
 122 008c 5B03     		lsl	r3, r3, #13
 123 008e 1340     		and	r3, r2
 124 0090 0CD0     		beq	.L1
 122:Generated_Source\PSoC4/engine_sensor_adc_PM.c ****         {
 123:Generated_Source\PSoC4/engine_sensor_adc_PM.c ****             engine_sensor_adc_SAR_CTRL_REG &= (uint32)~engine_sensor_adc_SAR_CTRL_BOOSTPUMP_EN_MSK;
 125              		.loc 1 123 0
 126 0092 0A4B     		ldr	r3, .L6+8
 127 0094 094A     		ldr	r2, .L6+8
 128 0096 1268     		ldr	r2, [r2]
 129 0098 0A49     		ldr	r1, .L6+16
 130 009a 0A40     		and	r2, r1
 131 009c 1A60     		str	r2, [r3]
 124:Generated_Source\PSoC4/engine_sensor_adc_PM.c ****             engine_sensor_adc_backup.enableState |= engine_sensor_adc_BOOSTPUMP_ENABLED;
 132              		.loc 1 124 0
 133 009e 064B     		ldr	r3, .L6+4
 134 00a0 1B78     		ldrb	r3, [r3]
 135 00a2 0422     		mov	r2, #4
 136 00a4 1343     		orr	r3, r2
 137 00a6 DAB2     		uxtb	r2, r3
 138 00a8 034B     		ldr	r3, .L6+4
 139 00aa 1A70     		strb	r2, [r3]
 140              	.L1:
 125:Generated_Source\PSoC4/engine_sensor_adc_PM.c ****         }
 126:Generated_Source\PSoC4/engine_sensor_adc_PM.c ****     }
 127:Generated_Source\PSoC4/engine_sensor_adc_PM.c **** }
 141              		.loc 1 127 0
 142 00ac BD46     		mov	sp, r7
 143 00ae 02B0     		add	sp, sp, #8
 144              		@ sp needed
 145 00b0 80BD     		pop	{r7, pc}
 146              	.L7:
 147 00b2 C046     		.align	2
 148              	.L6:
 149 00b4 30003A40 		.word	1077542960
 150 00b8 00000000 		.word	engine_sensor_adc_backup
 151 00bc 00003A40 		.word	1077542912
 152 00c0 04003A40 		.word	1077542916
 153 00c4 FFFFEFFF 		.word	-1048577
 154              		.cfi_endproc
 155              	.LFE1:
 156              		.size	engine_sensor_adc_Sleep, .-engine_sensor_adc_Sleep
 157              		.section	.text.engine_sensor_adc_Wakeup,"ax",%progbits
 158              		.align	2
ARM GAS  C:\Users\fneves\AppData\Local\Temp\cccs4Sxc.s 			page 6


 159              		.global	engine_sensor_adc_Wakeup
 160              		.code	16
 161              		.thumb_func
 162              		.type	engine_sensor_adc_Wakeup, %function
 163              	engine_sensor_adc_Wakeup:
 164              	.LFB2:
 128:Generated_Source\PSoC4/engine_sensor_adc_PM.c **** 
 129:Generated_Source\PSoC4/engine_sensor_adc_PM.c **** 
 130:Generated_Source\PSoC4/engine_sensor_adc_PM.c **** /*******************************************************************************
 131:Generated_Source\PSoC4/engine_sensor_adc_PM.c **** * Function Name: engine_sensor_adc_Wakeup
 132:Generated_Source\PSoC4/engine_sensor_adc_PM.c **** ****************************************************************************//**
 133:Generated_Source\PSoC4/engine_sensor_adc_PM.c **** *
 134:Generated_Source\PSoC4/engine_sensor_adc_PM.c **** * \brief This is the preferred routine to restore the component to the state when 
 135:Generated_Source\PSoC4/engine_sensor_adc_PM.c **** * engine_sensor_adc_Sleep() was called. The engine_sensor_adc_Wakeup() function 
 136:Generated_Source\PSoC4/engine_sensor_adc_PM.c **** * calls the engine_sensor_adc_RestoreConfig() function to restore the 
 137:Generated_Source\PSoC4/engine_sensor_adc_PM.c **** * configuration. If the component was enabled before the engine_sensor_adc_Sleep() 
 138:Generated_Source\PSoC4/engine_sensor_adc_PM.c **** * function was called, the engine_sensor_adc_Wakeup() function also re-enables the 
 139:Generated_Source\PSoC4/engine_sensor_adc_PM.c **** * component.
 140:Generated_Source\PSoC4/engine_sensor_adc_PM.c **** *
 141:Generated_Source\PSoC4/engine_sensor_adc_PM.c **** * \param None
 142:Generated_Source\PSoC4/engine_sensor_adc_PM.c **** * 
 143:Generated_Source\PSoC4/engine_sensor_adc_PM.c **** * \return None
 144:Generated_Source\PSoC4/engine_sensor_adc_PM.c **** *
 145:Generated_Source\PSoC4/engine_sensor_adc_PM.c **** * \sideeffect
 146:Generated_Source\PSoC4/engine_sensor_adc_PM.c **** * Calling this function without previously calling engine_sensor_adc_Sleep() may lead to 
 147:Generated_Source\PSoC4/engine_sensor_adc_PM.c **** * unpredictable results.
 148:Generated_Source\PSoC4/engine_sensor_adc_PM.c **** *
 149:Generated_Source\PSoC4/engine_sensor_adc_PM.c **** * <b>Code Snippet</b>
 150:Generated_Source\PSoC4/engine_sensor_adc_PM.c **** *  \snippet main.c snippet_engine_sensor_adc_Wakeup
 151:Generated_Source\PSoC4/engine_sensor_adc_PM.c **** *
 152:Generated_Source\PSoC4/engine_sensor_adc_PM.c **** * \globalvars
 153:Generated_Source\PSoC4/engine_sensor_adc_PM.c **** *  \ref engine_sensor_adc_backup (R)
 154:Generated_Source\PSoC4/engine_sensor_adc_PM.c **** *
 155:Generated_Source\PSoC4/engine_sensor_adc_PM.c **** * \globalvars
 156:Generated_Source\PSoC4/engine_sensor_adc_PM.c **** *  \ref engine_sensor_adc_backup
 157:Generated_Source\PSoC4/engine_sensor_adc_PM.c **** * 
 158:Generated_Source\PSoC4/engine_sensor_adc_PM.c **** *******************************************************************************/
 159:Generated_Source\PSoC4/engine_sensor_adc_PM.c **** void engine_sensor_adc_Wakeup(void)
 160:Generated_Source\PSoC4/engine_sensor_adc_PM.c **** {
 165              		.loc 1 160 0
 166              		.cfi_startproc
 167 0000 80B5     		push	{r7, lr}
 168              		.cfi_def_cfa_offset 8
 169              		.cfi_offset 7, -8
 170              		.cfi_offset 14, -4
 171 0002 82B0     		sub	sp, sp, #8
 172              		.cfi_def_cfa_offset 16
 173 0004 00AF     		add	r7, sp, #0
 174              		.cfi_def_cfa_register 7
 161:Generated_Source\PSoC4/engine_sensor_adc_PM.c ****     uint32 dftRegVal = (uint32)engine_sensor_adc_SAR_DFT_CTRL_HIZ_MSK;
 175              		.loc 1 161 0
 176 0006 0223     		mov	r3, #2
 177 0008 7B60     		str	r3, [r7, #4]
 162:Generated_Source\PSoC4/engine_sensor_adc_PM.c ****     
 163:Generated_Source\PSoC4/engine_sensor_adc_PM.c ****     /* Restore nonretention SAR_DFT_CTRL register state. */
 164:Generated_Source\PSoC4/engine_sensor_adc_PM.c ****     if ((engine_sensor_adc_backup.enableState & engine_sensor_adc_SLEEP_DFT_DCEN) != 0u)
 178              		.loc 1 164 0
ARM GAS  C:\Users\fneves\AppData\Local\Temp\cccs4Sxc.s 			page 7


 179 000a 1C4B     		ldr	r3, .L13
 180 000c 1B78     		ldrb	r3, [r3]
 181 000e 1A1C     		mov	r2, r3
 182 0010 0823     		mov	r3, #8
 183 0012 1340     		and	r3, r2
 184 0014 04D0     		beq	.L9
 165:Generated_Source\PSoC4/engine_sensor_adc_PM.c ****     {
 166:Generated_Source\PSoC4/engine_sensor_adc_PM.c ****         dftRegVal |= engine_sensor_adc_SAR_DFT_CTRL_DCEN_MSK;
 185              		.loc 1 166 0
 186 0016 7B68     		ldr	r3, [r7, #4]
 187 0018 8022     		mov	r2, #128
 188 001a 9205     		lsl	r2, r2, #22
 189 001c 1343     		orr	r3, r2
 190 001e 7B60     		str	r3, [r7, #4]
 191              	.L9:
 167:Generated_Source\PSoC4/engine_sensor_adc_PM.c ****     }
 168:Generated_Source\PSoC4/engine_sensor_adc_PM.c ****     if ((engine_sensor_adc_backup.enableState & engine_sensor_adc_SLEEP_DFT_DLY_INC) != 0u)
 192              		.loc 1 168 0
 193 0020 164B     		ldr	r3, .L13
 194 0022 1B78     		ldrb	r3, [r3]
 195 0024 1A1C     		mov	r2, r3
 196 0026 1023     		mov	r3, #16
 197 0028 1340     		and	r3, r2
 198 002a 03D0     		beq	.L10
 169:Generated_Source\PSoC4/engine_sensor_adc_PM.c ****     {
 170:Generated_Source\PSoC4/engine_sensor_adc_PM.c ****         dftRegVal |= engine_sensor_adc_SAR_DFT_CTRL_DLY_INC_MSK;
 199              		.loc 1 170 0
 200 002c 7B68     		ldr	r3, [r7, #4]
 201 002e 0122     		mov	r2, #1
 202 0030 1343     		orr	r3, r2
 203 0032 7B60     		str	r3, [r7, #4]
 204              	.L10:
 171:Generated_Source\PSoC4/engine_sensor_adc_PM.c ****     }
 172:Generated_Source\PSoC4/engine_sensor_adc_PM.c ****     engine_sensor_adc_SAR_DFT_CTRL_REG = dftRegVal;
 205              		.loc 1 172 0
 206 0034 124B     		ldr	r3, .L13+4
 207 0036 7A68     		ldr	r2, [r7, #4]
 208 0038 1A60     		str	r2, [r3]
 173:Generated_Source\PSoC4/engine_sensor_adc_PM.c ****     
 174:Generated_Source\PSoC4/engine_sensor_adc_PM.c ****     if((engine_sensor_adc_backup.enableState & engine_sensor_adc_ENABLED) != 0u)
 209              		.loc 1 174 0
 210 003a 104B     		ldr	r3, .L13
 211 003c 1B78     		ldrb	r3, [r3]
 212 003e 1A1C     		mov	r2, r3
 213 0040 0123     		mov	r3, #1
 214 0042 1340     		and	r3, r2
 215 0044 16D0     		beq	.L8
 175:Generated_Source\PSoC4/engine_sensor_adc_PM.c ****     {
 176:Generated_Source\PSoC4/engine_sensor_adc_PM.c ****         /* Enable the SAR internal pump  */
 177:Generated_Source\PSoC4/engine_sensor_adc_PM.c ****         if((engine_sensor_adc_backup.enableState & engine_sensor_adc_BOOSTPUMP_ENABLED) != 0u)
 216              		.loc 1 177 0
 217 0046 0D4B     		ldr	r3, .L13
 218 0048 1B78     		ldrb	r3, [r3]
 219 004a 1A1C     		mov	r2, r3
 220 004c 0423     		mov	r3, #4
 221 004e 1340     		and	r3, r2
 222 0050 06D0     		beq	.L12
ARM GAS  C:\Users\fneves\AppData\Local\Temp\cccs4Sxc.s 			page 8


 178:Generated_Source\PSoC4/engine_sensor_adc_PM.c ****         {
 179:Generated_Source\PSoC4/engine_sensor_adc_PM.c ****             engine_sensor_adc_SAR_CTRL_REG |= engine_sensor_adc_SAR_CTRL_BOOSTPUMP_EN_MSK;
 223              		.loc 1 179 0
 224 0052 0C4B     		ldr	r3, .L13+8
 225 0054 0B4A     		ldr	r2, .L13+8
 226 0056 1268     		ldr	r2, [r2]
 227 0058 8021     		mov	r1, #128
 228 005a 4903     		lsl	r1, r1, #13
 229 005c 0A43     		orr	r2, r1
 230 005e 1A60     		str	r2, [r3]
 231              	.L12:
 180:Generated_Source\PSoC4/engine_sensor_adc_PM.c ****         }
 181:Generated_Source\PSoC4/engine_sensor_adc_PM.c ****         
 182:Generated_Source\PSoC4/engine_sensor_adc_PM.c ****         engine_sensor_adc_Enable();
 232              		.loc 1 182 0
 233 0060 FFF7FEFF 		bl	engine_sensor_adc_Enable
 183:Generated_Source\PSoC4/engine_sensor_adc_PM.c ****         
 184:Generated_Source\PSoC4/engine_sensor_adc_PM.c ****         if((engine_sensor_adc_backup.enableState & engine_sensor_adc_STARTED) != 0u)
 234              		.loc 1 184 0
 235 0064 054B     		ldr	r3, .L13
 236 0066 1B78     		ldrb	r3, [r3]
 237 0068 1A1C     		mov	r2, r3
 238 006a 0223     		mov	r3, #2
 239 006c 1340     		and	r3, r2
 240 006e 01D0     		beq	.L8
 185:Generated_Source\PSoC4/engine_sensor_adc_PM.c ****         {
 186:Generated_Source\PSoC4/engine_sensor_adc_PM.c ****             engine_sensor_adc_StartConvert();
 241              		.loc 1 186 0
 242 0070 FFF7FEFF 		bl	engine_sensor_adc_StartConvert
 243              	.L8:
 187:Generated_Source\PSoC4/engine_sensor_adc_PM.c ****         }
 188:Generated_Source\PSoC4/engine_sensor_adc_PM.c ****     }
 189:Generated_Source\PSoC4/engine_sensor_adc_PM.c **** }
 244              		.loc 1 189 0
 245 0074 BD46     		mov	sp, r7
 246 0076 02B0     		add	sp, sp, #8
 247              		@ sp needed
 248 0078 80BD     		pop	{r7, pc}
 249              	.L14:
 250 007a C046     		.align	2
 251              	.L13:
 252 007c 00000000 		.word	engine_sensor_adc_backup
 253 0080 30003A40 		.word	1077542960
 254 0084 00003A40 		.word	1077542912
 255              		.cfi_endproc
 256              	.LFE2:
 257              		.size	engine_sensor_adc_Wakeup, .-engine_sensor_adc_Wakeup
 258              		.section	.text.engine_sensor_adc_SaveConfig,"ax",%progbits
 259              		.align	2
 260              		.global	engine_sensor_adc_SaveConfig
 261              		.code	16
 262              		.thumb_func
 263              		.type	engine_sensor_adc_SaveConfig, %function
 264              	engine_sensor_adc_SaveConfig:
 265              	.LFB3:
 190:Generated_Source\PSoC4/engine_sensor_adc_PM.c **** 
 191:Generated_Source\PSoC4/engine_sensor_adc_PM.c **** /* ****************************************************************************
ARM GAS  C:\Users\fneves\AppData\Local\Temp\cccs4Sxc.s 			page 9


 192:Generated_Source\PSoC4/engine_sensor_adc_PM.c **** * Function Name: engine_sensor_adc_SaveConfig
 193:Generated_Source\PSoC4/engine_sensor_adc_PM.c **** ****************************************************************************//*
 194:Generated_Source\PSoC4/engine_sensor_adc_PM.c **** *
 195:Generated_Source\PSoC4/engine_sensor_adc_PM.c **** * \brief Saves the current configuration of engine_sensor_adc non-retention registers.
 196:Generated_Source\PSoC4/engine_sensor_adc_PM.c **** *
 197:Generated_Source\PSoC4/engine_sensor_adc_PM.c **** * \param None
 198:Generated_Source\PSoC4/engine_sensor_adc_PM.c **** * 
 199:Generated_Source\PSoC4/engine_sensor_adc_PM.c **** * \return None
 200:Generated_Source\PSoC4/engine_sensor_adc_PM.c **** * 
 201:Generated_Source\PSoC4/engine_sensor_adc_PM.c **** * \sideeffect None
 202:Generated_Source\PSoC4/engine_sensor_adc_PM.c **** *
 203:Generated_Source\PSoC4/engine_sensor_adc_PM.c **** * <b>Code Snippet</b>
 204:Generated_Source\PSoC4/engine_sensor_adc_PM.c **** *  \snippet main.c snippet_engine_sensor_adc_SaveConfig
 205:Generated_Source\PSoC4/engine_sensor_adc_PM.c **** *
 206:Generated_Source\PSoC4/engine_sensor_adc_PM.c **** * 
 207:Generated_Source\PSoC4/engine_sensor_adc_PM.c **** *******************************************************************************/
 208:Generated_Source\PSoC4/engine_sensor_adc_PM.c **** void engine_sensor_adc_SaveConfig(void)
 209:Generated_Source\PSoC4/engine_sensor_adc_PM.c **** {
 266              		.loc 1 209 0
 267              		.cfi_startproc
 268 0000 80B5     		push	{r7, lr}
 269              		.cfi_def_cfa_offset 8
 270              		.cfi_offset 7, -8
 271              		.cfi_offset 14, -4
 272 0002 00AF     		add	r7, sp, #0
 273              		.cfi_def_cfa_register 7
 210:Generated_Source\PSoC4/engine_sensor_adc_PM.c ****      /* All configuration registers are marked as [reset_all_retention] */
 211:Generated_Source\PSoC4/engine_sensor_adc_PM.c **** }
 274              		.loc 1 211 0
 275 0004 BD46     		mov	sp, r7
 276              		@ sp needed
 277 0006 80BD     		pop	{r7, pc}
 278              		.cfi_endproc
 279              	.LFE3:
 280              		.size	engine_sensor_adc_SaveConfig, .-engine_sensor_adc_SaveConfig
 281              		.section	.text.engine_sensor_adc_RestoreConfig,"ax",%progbits
 282              		.align	2
 283              		.global	engine_sensor_adc_RestoreConfig
 284              		.code	16
 285              		.thumb_func
 286              		.type	engine_sensor_adc_RestoreConfig, %function
 287              	engine_sensor_adc_RestoreConfig:
 288              	.LFB4:
 212:Generated_Source\PSoC4/engine_sensor_adc_PM.c **** 
 213:Generated_Source\PSoC4/engine_sensor_adc_PM.c **** /* ****************************************************************************
 214:Generated_Source\PSoC4/engine_sensor_adc_PM.c **** * Function Name: engine_sensor_adc_RestoreConfig
 215:Generated_Source\PSoC4/engine_sensor_adc_PM.c **** ****************************************************************************//*
 216:Generated_Source\PSoC4/engine_sensor_adc_PM.c **** *
 217:Generated_Source\PSoC4/engine_sensor_adc_PM.c **** * \brief Restores the configuration of engine_sensor_adc non-retention registers.
 218:Generated_Source\PSoC4/engine_sensor_adc_PM.c **** * 
 219:Generated_Source\PSoC4/engine_sensor_adc_PM.c **** * \param None
 220:Generated_Source\PSoC4/engine_sensor_adc_PM.c **** * 
 221:Generated_Source\PSoC4/engine_sensor_adc_PM.c **** * \return None
 222:Generated_Source\PSoC4/engine_sensor_adc_PM.c **** *
 223:Generated_Source\PSoC4/engine_sensor_adc_PM.c **** * \sideeffect Calling this function without previously calling 
 224:Generated_Source\PSoC4/engine_sensor_adc_PM.c **** * engine_sensor_adc_SaveConfig() or engine_sensor_adc_Sleep will lead to 
 225:Generated_Source\PSoC4/engine_sensor_adc_PM.c **** * unpredictable results.
ARM GAS  C:\Users\fneves\AppData\Local\Temp\cccs4Sxc.s 			page 10


 226:Generated_Source\PSoC4/engine_sensor_adc_PM.c **** *
 227:Generated_Source\PSoC4/engine_sensor_adc_PM.c **** * <b>Code Snippet</b>
 228:Generated_Source\PSoC4/engine_sensor_adc_PM.c **** *  \snippet main.c snippet_engine_sensor_adc_RestoreConfig
 229:Generated_Source\PSoC4/engine_sensor_adc_PM.c **** *
 230:Generated_Source\PSoC4/engine_sensor_adc_PM.c **** * 
 231:Generated_Source\PSoC4/engine_sensor_adc_PM.c **** *******************************************************************************/
 232:Generated_Source\PSoC4/engine_sensor_adc_PM.c **** void engine_sensor_adc_RestoreConfig(void)
 233:Generated_Source\PSoC4/engine_sensor_adc_PM.c **** {
 289              		.loc 1 233 0
 290              		.cfi_startproc
 291 0000 80B5     		push	{r7, lr}
 292              		.cfi_def_cfa_offset 8
 293              		.cfi_offset 7, -8
 294              		.cfi_offset 14, -4
 295 0002 00AF     		add	r7, sp, #0
 296              		.cfi_def_cfa_register 7
 234:Generated_Source\PSoC4/engine_sensor_adc_PM.c ****     /* All configuration registers are marked as [reset_all_retention] */
 235:Generated_Source\PSoC4/engine_sensor_adc_PM.c **** }
 297              		.loc 1 235 0
 298 0004 BD46     		mov	sp, r7
 299              		@ sp needed
 300 0006 80BD     		pop	{r7, pc}
 301              		.cfi_endproc
 302              	.LFE4:
 303              		.size	engine_sensor_adc_RestoreConfig, .-engine_sensor_adc_RestoreConfig
 304              		.text
 305              	.Letext0:
 306              		.file 2 "Generated_Source\\PSoC4\\cytypes.h"
 307              		.file 3 "Generated_Source\\PSoC4\\engine_sensor_adc.h"
 308              		.section	.debug_info,"",%progbits
 309              	.Ldebug_info0:
 310 0000 54010000 		.4byte	0x154
 311 0004 0400     		.2byte	0x4
 312 0006 00000000 		.4byte	.Ldebug_abbrev0
 313 000a 04       		.byte	0x4
 314 000b 01       		.uleb128 0x1
 315 000c 22000000 		.4byte	.LASF24
 316 0010 01       		.byte	0x1
 317 0011 47020000 		.4byte	.LASF25
 318 0015 F1010000 		.4byte	.LASF26
 319 0019 00000000 		.4byte	.Ldebug_ranges0+0
 320 001d 00000000 		.4byte	0
 321 0021 00000000 		.4byte	.Ldebug_line0
 322 0025 02       		.uleb128 0x2
 323 0026 01       		.byte	0x1
 324 0027 06       		.byte	0x6
 325 0028 B4000000 		.4byte	.LASF0
 326 002c 02       		.uleb128 0x2
 327 002d 01       		.byte	0x1
 328 002e 08       		.byte	0x8
 329 002f E3010000 		.4byte	.LASF1
 330 0033 02       		.uleb128 0x2
 331 0034 02       		.byte	0x2
 332 0035 05       		.byte	0x5
 333 0036 3D020000 		.4byte	.LASF2
 334 003a 02       		.uleb128 0x2
 335 003b 02       		.byte	0x2
ARM GAS  C:\Users\fneves\AppData\Local\Temp\cccs4Sxc.s 			page 11


 336 003c 07       		.byte	0x7
 337 003d CA010000 		.4byte	.LASF3
 338 0041 02       		.uleb128 0x2
 339 0042 04       		.byte	0x4
 340 0043 05       		.byte	0x5
 341 0044 71010000 		.4byte	.LASF4
 342 0048 02       		.uleb128 0x2
 343 0049 04       		.byte	0x4
 344 004a 07       		.byte	0x7
 345 004b FF000000 		.4byte	.LASF5
 346 004f 02       		.uleb128 0x2
 347 0050 08       		.byte	0x8
 348 0051 05       		.byte	0x5
 349 0052 00000000 		.4byte	.LASF6
 350 0056 02       		.uleb128 0x2
 351 0057 08       		.byte	0x8
 352 0058 07       		.byte	0x7
 353 0059 11010000 		.4byte	.LASF7
 354 005d 03       		.uleb128 0x3
 355 005e 04       		.byte	0x4
 356 005f 05       		.byte	0x5
 357 0060 696E7400 		.ascii	"int\000"
 358 0064 02       		.uleb128 0x2
 359 0065 04       		.byte	0x4
 360 0066 07       		.byte	0x7
 361 0067 15000000 		.4byte	.LASF8
 362 006b 04       		.uleb128 0x4
 363 006c F9000000 		.4byte	.LASF9
 364 0070 02       		.byte	0x2
 365 0071 B901     		.2byte	0x1b9
 366 0073 2C000000 		.4byte	0x2c
 367 0077 04       		.uleb128 0x4
 368 0078 0E000000 		.4byte	.LASF10
 369 007c 02       		.byte	0x2
 370 007d BB01     		.2byte	0x1bb
 371 007f 48000000 		.4byte	0x48
 372 0083 04       		.uleb128 0x4
 373 0084 75020000 		.4byte	.LASF11
 374 0088 02       		.byte	0x2
 375 0089 BE01     		.2byte	0x1be
 376 008b 41000000 		.4byte	0x41
 377 008f 02       		.uleb128 0x2
 378 0090 04       		.byte	0x4
 379 0091 04       		.byte	0x4
 380 0092 37020000 		.4byte	.LASF12
 381 0096 02       		.uleb128 0x2
 382 0097 08       		.byte	0x8
 383 0098 04       		.byte	0x4
 384 0099 9D010000 		.4byte	.LASF13
 385 009d 02       		.uleb128 0x2
 386 009e 01       		.byte	0x1
 387 009f 08       		.byte	0x8
 388 00a0 6C010000 		.4byte	.LASF14
 389 00a4 04       		.uleb128 0x4
 390 00a5 DD010000 		.4byte	.LASF15
 391 00a9 02       		.byte	0x2
 392 00aa 6502     		.2byte	0x265
ARM GAS  C:\Users\fneves\AppData\Local\Temp\cccs4Sxc.s 			page 12


 393 00ac B0000000 		.4byte	0xb0
 394 00b0 05       		.uleb128 0x5
 395 00b1 77000000 		.4byte	0x77
 396 00b5 02       		.uleb128 0x2
 397 00b6 04       		.byte	0x4
 398 00b7 07       		.byte	0x7
 399 00b8 C1010000 		.4byte	.LASF16
 400 00bc 06       		.uleb128 0x6
 401 00bd 01       		.byte	0x1
 402 00be 03       		.byte	0x3
 403 00bf 58       		.byte	0x58
 404 00c0 D1000000 		.4byte	0xd1
 405 00c4 07       		.uleb128 0x7
 406 00c5 60010000 		.4byte	.LASF27
 407 00c9 03       		.byte	0x3
 408 00ca 5B       		.byte	0x5b
 409 00cb 6B000000 		.4byte	0x6b
 410 00cf 00       		.byte	0
 411 00d0 00       		.byte	0
 412 00d1 08       		.uleb128 0x8
 413 00d2 28010000 		.4byte	.LASF17
 414 00d6 03       		.byte	0x3
 415 00d7 5C       		.byte	0x5c
 416 00d8 BC000000 		.4byte	0xbc
 417 00dc 09       		.uleb128 0x9
 418 00dd 48010000 		.4byte	.LASF18
 419 00e1 01       		.byte	0x1
 420 00e2 58       		.byte	0x58
 421 00e3 00000000 		.4byte	.LFB1
 422 00e7 C8000000 		.4byte	.LFE1-.LFB1
 423 00eb 01       		.uleb128 0x1
 424 00ec 9C       		.byte	0x9c
 425 00ed 00010000 		.4byte	0x100
 426 00f1 0A       		.uleb128 0xa
 427 00f2 7A010000 		.4byte	.LASF20
 428 00f6 01       		.byte	0x1
 429 00f7 5A       		.byte	0x5a
 430 00f8 77000000 		.4byte	0x77
 431 00fc 02       		.uleb128 0x2
 432 00fd 91       		.byte	0x91
 433 00fe 74       		.sleb128 -12
 434 00ff 00       		.byte	0
 435 0100 09       		.uleb128 0x9
 436 0101 84010000 		.4byte	.LASF19
 437 0105 01       		.byte	0x1
 438 0106 9F       		.byte	0x9f
 439 0107 00000000 		.4byte	.LFB2
 440 010b 88000000 		.4byte	.LFE2-.LFB2
 441 010f 01       		.uleb128 0x1
 442 0110 9C       		.byte	0x9c
 443 0111 24010000 		.4byte	0x124
 444 0115 0A       		.uleb128 0xa
 445 0116 7A010000 		.4byte	.LASF20
 446 011a 01       		.byte	0x1
 447 011b A1       		.byte	0xa1
 448 011c 77000000 		.4byte	0x77
 449 0120 02       		.uleb128 0x2
ARM GAS  C:\Users\fneves\AppData\Local\Temp\cccs4Sxc.s 			page 13


 450 0121 91       		.byte	0x91
 451 0122 74       		.sleb128 -12
 452 0123 00       		.byte	0
 453 0124 0B       		.uleb128 0xb
 454 0125 A4010000 		.4byte	.LASF21
 455 0129 01       		.byte	0x1
 456 012a D0       		.byte	0xd0
 457 012b 00000000 		.4byte	.LFB3
 458 012f 08000000 		.4byte	.LFE3-.LFB3
 459 0133 01       		.uleb128 0x1
 460 0134 9C       		.byte	0x9c
 461 0135 0B       		.uleb128 0xb
 462 0136 D9000000 		.4byte	.LASF22
 463 013a 01       		.byte	0x1
 464 013b E8       		.byte	0xe8
 465 013c 00000000 		.4byte	.LFB4
 466 0140 08000000 		.4byte	.LFE4-.LFB4
 467 0144 01       		.uleb128 0x1
 468 0145 9C       		.byte	0x9c
 469 0146 0A       		.uleb128 0xa
 470 0147 C0000000 		.4byte	.LASF23
 471 014b 01       		.byte	0x1
 472 014c 31       		.byte	0x31
 473 014d D1000000 		.4byte	0xd1
 474 0151 05       		.uleb128 0x5
 475 0152 03       		.byte	0x3
 476 0153 00000000 		.4byte	engine_sensor_adc_backup
 477 0157 00       		.byte	0
 478              		.section	.debug_abbrev,"",%progbits
 479              	.Ldebug_abbrev0:
 480 0000 01       		.uleb128 0x1
 481 0001 11       		.uleb128 0x11
 482 0002 01       		.byte	0x1
 483 0003 25       		.uleb128 0x25
 484 0004 0E       		.uleb128 0xe
 485 0005 13       		.uleb128 0x13
 486 0006 0B       		.uleb128 0xb
 487 0007 03       		.uleb128 0x3
 488 0008 0E       		.uleb128 0xe
 489 0009 1B       		.uleb128 0x1b
 490 000a 0E       		.uleb128 0xe
 491 000b 55       		.uleb128 0x55
 492 000c 17       		.uleb128 0x17
 493 000d 11       		.uleb128 0x11
 494 000e 01       		.uleb128 0x1
 495 000f 10       		.uleb128 0x10
 496 0010 17       		.uleb128 0x17
 497 0011 00       		.byte	0
 498 0012 00       		.byte	0
 499 0013 02       		.uleb128 0x2
 500 0014 24       		.uleb128 0x24
 501 0015 00       		.byte	0
 502 0016 0B       		.uleb128 0xb
 503 0017 0B       		.uleb128 0xb
 504 0018 3E       		.uleb128 0x3e
 505 0019 0B       		.uleb128 0xb
 506 001a 03       		.uleb128 0x3
ARM GAS  C:\Users\fneves\AppData\Local\Temp\cccs4Sxc.s 			page 14


 507 001b 0E       		.uleb128 0xe
 508 001c 00       		.byte	0
 509 001d 00       		.byte	0
 510 001e 03       		.uleb128 0x3
 511 001f 24       		.uleb128 0x24
 512 0020 00       		.byte	0
 513 0021 0B       		.uleb128 0xb
 514 0022 0B       		.uleb128 0xb
 515 0023 3E       		.uleb128 0x3e
 516 0024 0B       		.uleb128 0xb
 517 0025 03       		.uleb128 0x3
 518 0026 08       		.uleb128 0x8
 519 0027 00       		.byte	0
 520 0028 00       		.byte	0
 521 0029 04       		.uleb128 0x4
 522 002a 16       		.uleb128 0x16
 523 002b 00       		.byte	0
 524 002c 03       		.uleb128 0x3
 525 002d 0E       		.uleb128 0xe
 526 002e 3A       		.uleb128 0x3a
 527 002f 0B       		.uleb128 0xb
 528 0030 3B       		.uleb128 0x3b
 529 0031 05       		.uleb128 0x5
 530 0032 49       		.uleb128 0x49
 531 0033 13       		.uleb128 0x13
 532 0034 00       		.byte	0
 533 0035 00       		.byte	0
 534 0036 05       		.uleb128 0x5
 535 0037 35       		.uleb128 0x35
 536 0038 00       		.byte	0
 537 0039 49       		.uleb128 0x49
 538 003a 13       		.uleb128 0x13
 539 003b 00       		.byte	0
 540 003c 00       		.byte	0
 541 003d 06       		.uleb128 0x6
 542 003e 13       		.uleb128 0x13
 543 003f 01       		.byte	0x1
 544 0040 0B       		.uleb128 0xb
 545 0041 0B       		.uleb128 0xb
 546 0042 3A       		.uleb128 0x3a
 547 0043 0B       		.uleb128 0xb
 548 0044 3B       		.uleb128 0x3b
 549 0045 0B       		.uleb128 0xb
 550 0046 01       		.uleb128 0x1
 551 0047 13       		.uleb128 0x13
 552 0048 00       		.byte	0
 553 0049 00       		.byte	0
 554 004a 07       		.uleb128 0x7
 555 004b 0D       		.uleb128 0xd
 556 004c 00       		.byte	0
 557 004d 03       		.uleb128 0x3
 558 004e 0E       		.uleb128 0xe
 559 004f 3A       		.uleb128 0x3a
 560 0050 0B       		.uleb128 0xb
 561 0051 3B       		.uleb128 0x3b
 562 0052 0B       		.uleb128 0xb
 563 0053 49       		.uleb128 0x49
ARM GAS  C:\Users\fneves\AppData\Local\Temp\cccs4Sxc.s 			page 15


 564 0054 13       		.uleb128 0x13
 565 0055 38       		.uleb128 0x38
 566 0056 0B       		.uleb128 0xb
 567 0057 00       		.byte	0
 568 0058 00       		.byte	0
 569 0059 08       		.uleb128 0x8
 570 005a 16       		.uleb128 0x16
 571 005b 00       		.byte	0
 572 005c 03       		.uleb128 0x3
 573 005d 0E       		.uleb128 0xe
 574 005e 3A       		.uleb128 0x3a
 575 005f 0B       		.uleb128 0xb
 576 0060 3B       		.uleb128 0x3b
 577 0061 0B       		.uleb128 0xb
 578 0062 49       		.uleb128 0x49
 579 0063 13       		.uleb128 0x13
 580 0064 00       		.byte	0
 581 0065 00       		.byte	0
 582 0066 09       		.uleb128 0x9
 583 0067 2E       		.uleb128 0x2e
 584 0068 01       		.byte	0x1
 585 0069 3F       		.uleb128 0x3f
 586 006a 19       		.uleb128 0x19
 587 006b 03       		.uleb128 0x3
 588 006c 0E       		.uleb128 0xe
 589 006d 3A       		.uleb128 0x3a
 590 006e 0B       		.uleb128 0xb
 591 006f 3B       		.uleb128 0x3b
 592 0070 0B       		.uleb128 0xb
 593 0071 27       		.uleb128 0x27
 594 0072 19       		.uleb128 0x19
 595 0073 11       		.uleb128 0x11
 596 0074 01       		.uleb128 0x1
 597 0075 12       		.uleb128 0x12
 598 0076 06       		.uleb128 0x6
 599 0077 40       		.uleb128 0x40
 600 0078 18       		.uleb128 0x18
 601 0079 9642     		.uleb128 0x2116
 602 007b 19       		.uleb128 0x19
 603 007c 01       		.uleb128 0x1
 604 007d 13       		.uleb128 0x13
 605 007e 00       		.byte	0
 606 007f 00       		.byte	0
 607 0080 0A       		.uleb128 0xa
 608 0081 34       		.uleb128 0x34
 609 0082 00       		.byte	0
 610 0083 03       		.uleb128 0x3
 611 0084 0E       		.uleb128 0xe
 612 0085 3A       		.uleb128 0x3a
 613 0086 0B       		.uleb128 0xb
 614 0087 3B       		.uleb128 0x3b
 615 0088 0B       		.uleb128 0xb
 616 0089 49       		.uleb128 0x49
 617 008a 13       		.uleb128 0x13
 618 008b 02       		.uleb128 0x2
 619 008c 18       		.uleb128 0x18
 620 008d 00       		.byte	0
ARM GAS  C:\Users\fneves\AppData\Local\Temp\cccs4Sxc.s 			page 16


 621 008e 00       		.byte	0
 622 008f 0B       		.uleb128 0xb
 623 0090 2E       		.uleb128 0x2e
 624 0091 00       		.byte	0
 625 0092 3F       		.uleb128 0x3f
 626 0093 19       		.uleb128 0x19
 627 0094 03       		.uleb128 0x3
 628 0095 0E       		.uleb128 0xe
 629 0096 3A       		.uleb128 0x3a
 630 0097 0B       		.uleb128 0xb
 631 0098 3B       		.uleb128 0x3b
 632 0099 0B       		.uleb128 0xb
 633 009a 27       		.uleb128 0x27
 634 009b 19       		.uleb128 0x19
 635 009c 11       		.uleb128 0x11
 636 009d 01       		.uleb128 0x1
 637 009e 12       		.uleb128 0x12
 638 009f 06       		.uleb128 0x6
 639 00a0 40       		.uleb128 0x40
 640 00a1 18       		.uleb128 0x18
 641 00a2 9742     		.uleb128 0x2117
 642 00a4 19       		.uleb128 0x19
 643 00a5 00       		.byte	0
 644 00a6 00       		.byte	0
 645 00a7 00       		.byte	0
 646              		.section	.debug_aranges,"",%progbits
 647 0000 34000000 		.4byte	0x34
 648 0004 0200     		.2byte	0x2
 649 0006 00000000 		.4byte	.Ldebug_info0
 650 000a 04       		.byte	0x4
 651 000b 00       		.byte	0
 652 000c 0000     		.2byte	0
 653 000e 0000     		.2byte	0
 654 0010 00000000 		.4byte	.LFB1
 655 0014 C8000000 		.4byte	.LFE1-.LFB1
 656 0018 00000000 		.4byte	.LFB2
 657 001c 88000000 		.4byte	.LFE2-.LFB2
 658 0020 00000000 		.4byte	.LFB3
 659 0024 08000000 		.4byte	.LFE3-.LFB3
 660 0028 00000000 		.4byte	.LFB4
 661 002c 08000000 		.4byte	.LFE4-.LFB4
 662 0030 00000000 		.4byte	0
 663 0034 00000000 		.4byte	0
 664              		.section	.debug_ranges,"",%progbits
 665              	.Ldebug_ranges0:
 666 0000 00000000 		.4byte	.LFB1
 667 0004 C8000000 		.4byte	.LFE1
 668 0008 00000000 		.4byte	.LFB2
 669 000c 88000000 		.4byte	.LFE2
 670 0010 00000000 		.4byte	.LFB3
 671 0014 08000000 		.4byte	.LFE3
 672 0018 00000000 		.4byte	.LFB4
 673 001c 08000000 		.4byte	.LFE4
 674 0020 00000000 		.4byte	0
 675 0024 00000000 		.4byte	0
 676              		.section	.debug_line,"",%progbits
 677              	.Ldebug_line0:
ARM GAS  C:\Users\fneves\AppData\Local\Temp\cccs4Sxc.s 			page 17


 678 0000 CE000000 		.section	.debug_str,"MS",%progbits,1
 678      02006800 
 678      00000201 
 678      FB0E0D00 
 678      01010101 
 679              	.LASF6:
 680 0000 6C6F6E67 		.ascii	"long long int\000"
 680      206C6F6E 
 680      6720696E 
 680      7400
 681              	.LASF10:
 682 000e 75696E74 		.ascii	"uint32\000"
 682      333200
 683              	.LASF8:
 684 0015 756E7369 		.ascii	"unsigned int\000"
 684      676E6564 
 684      20696E74 
 684      00
 685              	.LASF24:
 686 0022 474E5520 		.ascii	"GNU C 4.9.3 20150303 (release) [ARM/embedded-4_9-br"
 686      4320342E 
 686      392E3320 
 686      32303135 
 686      30333033 
 687 0055 616E6368 		.ascii	"anch revision 221220] -mcpu=cortex-m0plus -mthumb -"
 687      20726576 
 687      6973696F 
 687      6E203232 
 687      31323230 
 688 0088 67202D4F 		.ascii	"g -O0 -ffunction-sections -ffat-lto-objects\000"
 688      30202D66 
 688      66756E63 
 688      74696F6E 
 688      2D736563 
 689              	.LASF0:
 690 00b4 7369676E 		.ascii	"signed char\000"
 690      65642063 
 690      68617200 
 691              	.LASF23:
 692 00c0 656E6769 		.ascii	"engine_sensor_adc_backup\000"
 692      6E655F73 
 692      656E736F 
 692      725F6164 
 692      635F6261 
 693              	.LASF22:
 694 00d9 656E6769 		.ascii	"engine_sensor_adc_RestoreConfig\000"
 694      6E655F73 
 694      656E736F 
 694      725F6164 
 694      635F5265 
 695              	.LASF9:
 696 00f9 75696E74 		.ascii	"uint8\000"
 696      3800
 697              	.LASF5:
 698 00ff 6C6F6E67 		.ascii	"long unsigned int\000"
 698      20756E73 
 698      69676E65 
ARM GAS  C:\Users\fneves\AppData\Local\Temp\cccs4Sxc.s 			page 18


 698      6420696E 
 698      7400
 699              	.LASF7:
 700 0111 6C6F6E67 		.ascii	"long long unsigned int\000"
 700      206C6F6E 
 700      6720756E 
 700      7369676E 
 700      65642069 
 701              	.LASF17:
 702 0128 656E6769 		.ascii	"engine_sensor_adc_BACKUP_STRUCT\000"
 702      6E655F73 
 702      656E736F 
 702      725F6164 
 702      635F4241 
 703              	.LASF18:
 704 0148 656E6769 		.ascii	"engine_sensor_adc_Sleep\000"
 704      6E655F73 
 704      656E736F 
 704      725F6164 
 704      635F536C 
 705              	.LASF27:
 706 0160 656E6162 		.ascii	"enableState\000"
 706      6C655374 
 706      61746500 
 707              	.LASF14:
 708 016c 63686172 		.ascii	"char\000"
 708      00
 709              	.LASF4:
 710 0171 6C6F6E67 		.ascii	"long int\000"
 710      20696E74 
 710      00
 711              	.LASF20:
 712 017a 64667452 		.ascii	"dftRegVal\000"
 712      65675661 
 712      6C00
 713              	.LASF19:
 714 0184 656E6769 		.ascii	"engine_sensor_adc_Wakeup\000"
 714      6E655F73 
 714      656E736F 
 714      725F6164 
 714      635F5761 
 715              	.LASF13:
 716 019d 646F7562 		.ascii	"double\000"
 716      6C6500
 717              	.LASF21:
 718 01a4 656E6769 		.ascii	"engine_sensor_adc_SaveConfig\000"
 718      6E655F73 
 718      656E736F 
 718      725F6164 
 718      635F5361 
 719              	.LASF16:
 720 01c1 73697A65 		.ascii	"sizetype\000"
 720      74797065 
 720      00
 721              	.LASF3:
 722 01ca 73686F72 		.ascii	"short unsigned int\000"
 722      7420756E 
ARM GAS  C:\Users\fneves\AppData\Local\Temp\cccs4Sxc.s 			page 19


 722      7369676E 
 722      65642069 
 722      6E7400
 723              	.LASF15:
 724 01dd 72656733 		.ascii	"reg32\000"
 724      3200
 725              	.LASF1:
 726 01e3 756E7369 		.ascii	"unsigned char\000"
 726      676E6564 
 726      20636861 
 726      7200
 727              	.LASF26:
 728 01f1 433A5C55 		.ascii	"C:\\Users\\fneves\\Documents\\PSoC Creator\\wp_1\\e"
 728      73657273 
 728      5C666E65 
 728      7665735C 
 728      446F6375 
 729 021e 6E67696E 		.ascii	"ngine_speed_sensor.cydsn\000"
 729      655F7370 
 729      6565645F 
 729      73656E73 
 729      6F722E63 
 730              	.LASF12:
 731 0237 666C6F61 		.ascii	"float\000"
 731      7400
 732              	.LASF2:
 733 023d 73686F72 		.ascii	"short int\000"
 733      7420696E 
 733      7400
 734              	.LASF25:
 735 0247 47656E65 		.ascii	"Generated_Source\\PSoC4\\engine_sensor_adc_PM.c\000"
 735      72617465 
 735      645F536F 
 735      75726365 
 735      5C50536F 
 736              	.LASF11:
 737 0275 696E7433 		.ascii	"int32\000"
 737      3200
 738              		.ident	"GCC: (GNU Tools for ARM Embedded Processors) 4.9.3 20150303 (release) [ARM/embedded-4_9-br
