ARM GAS  C:\Users\fneves\AppData\Local\Temp\ccw6KN9V.s 			page 1


   1              		.cpu cortex-m0plus
   2              		.fpu softvfp
   3              		.eabi_attribute 20, 1
   4              		.eabi_attribute 21, 1
   5              		.eabi_attribute 23, 3
   6              		.eabi_attribute 24, 1
   7              		.eabi_attribute 25, 1
   8              		.eabi_attribute 26, 1
   9              		.eabi_attribute 30, 6
  10              		.eabi_attribute 34, 0
  11              		.eabi_attribute 18, 4
  12              		.code	16
  13              		.file	"engine_sensor_ref.c"
  14              		.text
  15              	.Ltext0:
  16              		.cfi_sections	.debug_frame
  17              		.global	engine_sensor_ref_initVar
  18              		.bss
  19              		.type	engine_sensor_ref_initVar, %object
  20              		.size	engine_sensor_ref_initVar, 1
  21              	engine_sensor_ref_initVar:
  22 0000 00       		.space	1
  23              		.section	.text.engine_sensor_ref_Init,"ax",%progbits
  24              		.align	2
  25              		.global	engine_sensor_ref_Init
  26              		.code	16
  27              		.thumb_func
  28              		.type	engine_sensor_ref_Init, %function
  29              	engine_sensor_ref_Init:
  30              	.LFB0:
  31              		.file 1 "Generated_Source\\PSoC4\\engine_sensor_ref.c"
   1:Generated_Source\PSoC4/engine_sensor_ref.c **** /***************************************************************************//**
   2:Generated_Source\PSoC4/engine_sensor_ref.c **** * \file engine_sensor_ref.c
   3:Generated_Source\PSoC4/engine_sensor_ref.c **** * \version 1.0
   4:Generated_Source\PSoC4/engine_sensor_ref.c **** *
   5:Generated_Source\PSoC4/engine_sensor_ref.c **** * \brief
   6:Generated_Source\PSoC4/engine_sensor_ref.c **** *  This file provides the source code to the API for the Programmable
   7:Generated_Source\PSoC4/engine_sensor_ref.c **** *  Voltage Reference component.
   8:Generated_Source\PSoC4/engine_sensor_ref.c **** *
   9:Generated_Source\PSoC4/engine_sensor_ref.c **** * Note:
  10:Generated_Source\PSoC4/engine_sensor_ref.c **** *  None
  11:Generated_Source\PSoC4/engine_sensor_ref.c **** *
  12:Generated_Source\PSoC4/engine_sensor_ref.c **** ********************************************************************************
  13:Generated_Source\PSoC4/engine_sensor_ref.c **** * \copyright
  14:Generated_Source\PSoC4/engine_sensor_ref.c **** * Copyright 2016, Cypress Semiconductor Corporation. All rights reserved.
  15:Generated_Source\PSoC4/engine_sensor_ref.c **** * You may use this file only in accordance with the license, terms, conditions,
  16:Generated_Source\PSoC4/engine_sensor_ref.c **** * disclaimers, and limitations in the end user license agreement accompanying
  17:Generated_Source\PSoC4/engine_sensor_ref.c **** * the software package with which this file was provided.
  18:Generated_Source\PSoC4/engine_sensor_ref.c **** *******************************************************************************/
  19:Generated_Source\PSoC4/engine_sensor_ref.c **** 
  20:Generated_Source\PSoC4/engine_sensor_ref.c **** #include "engine_sensor_ref.h"
  21:Generated_Source\PSoC4/engine_sensor_ref.c **** 
  22:Generated_Source\PSoC4/engine_sensor_ref.c **** uint8 engine_sensor_ref_initVar = 0u;
  23:Generated_Source\PSoC4/engine_sensor_ref.c **** 
  24:Generated_Source\PSoC4/engine_sensor_ref.c **** 
  25:Generated_Source\PSoC4/engine_sensor_ref.c **** /*******************************************************************************
  26:Generated_Source\PSoC4/engine_sensor_ref.c **** * Function Name: engine_sensor_ref_Init
ARM GAS  C:\Users\fneves\AppData\Local\Temp\ccw6KN9V.s 			page 2


  27:Generated_Source\PSoC4/engine_sensor_ref.c **** ****************************************************************************//**
  28:Generated_Source\PSoC4/engine_sensor_ref.c **** *
  29:Generated_Source\PSoC4/engine_sensor_ref.c **** *  Initialize/Restore the default Voltage Reference configuration as defined
  30:Generated_Source\PSoC4/engine_sensor_ref.c **** *  in the customizer. If the reference is set to Vdda, it will enable all
  31:Generated_Source\PSoC4/engine_sensor_ref.c **** *  Vdda-based references.
  32:Generated_Source\PSoC4/engine_sensor_ref.c **** *
  33:Generated_Source\PSoC4/engine_sensor_ref.c **** * \sideeffect
  34:Generated_Source\PSoC4/engine_sensor_ref.c **** *  If the reference is Vdda-based, the function will enable all Vdda-based
  35:Generated_Source\PSoC4/engine_sensor_ref.c **** *  references because they share the same resistor tree.
  36:Generated_Source\PSoC4/engine_sensor_ref.c **** *
  37:Generated_Source\PSoC4/engine_sensor_ref.c **** *******************************************************************************/
  38:Generated_Source\PSoC4/engine_sensor_ref.c **** void engine_sensor_ref_Init(void)
  39:Generated_Source\PSoC4/engine_sensor_ref.c **** {
  32              		.loc 1 39 0
  33              		.cfi_startproc
  34 0000 80B5     		push	{r7, lr}
  35              		.cfi_def_cfa_offset 8
  36              		.cfi_offset 7, -8
  37              		.cfi_offset 14, -4
  38 0002 00AF     		add	r7, sp, #0
  39              		.cfi_def_cfa_register 7
  40:Generated_Source\PSoC4/engine_sensor_ref.c ****     engine_sensor_ref_PRB_CTRL_REG |= engine_sensor_ref_PRB_CTRL_REG_INIT;
  40              		.loc 1 40 0
  41 0004 054B     		ldr	r3, .L2
  42 0006 054A     		ldr	r2, .L2
  43 0008 1268     		ldr	r2, [r2]
  44 000a 0549     		ldr	r1, .L2+4
  45 000c 0A43     		orr	r2, r1
  46 000e 1A60     		str	r2, [r3]
  41:Generated_Source\PSoC4/engine_sensor_ref.c ****     engine_sensor_ref_PRB_REF_REG = engine_sensor_ref_PRB_REF_REG_INIT;
  47              		.loc 1 41 0
  48 0010 044B     		ldr	r3, .L2+8
  49 0012 7222     		mov	r2, #114
  50 0014 1A60     		str	r2, [r3]
  42:Generated_Source\PSoC4/engine_sensor_ref.c **** }
  51              		.loc 1 42 0
  52 0016 BD46     		mov	sp, r7
  53              		@ sp needed
  54 0018 80BD     		pop	{r7, pc}
  55              	.L3:
  56 001a C046     		.align	2
  57              	.L2:
  58 001c 00023F40 		.word	1077871104
  59 0020 10000080 		.word	-2147483632
  60 0024 08023F40 		.word	1077871112
  61              		.cfi_endproc
  62              	.LFE0:
  63              		.size	engine_sensor_ref_Init, .-engine_sensor_ref_Init
  64              		.section	.text.engine_sensor_ref_Enable,"ax",%progbits
  65              		.align	2
  66              		.global	engine_sensor_ref_Enable
  67              		.code	16
  68              		.thumb_func
  69              		.type	engine_sensor_ref_Enable, %function
  70              	engine_sensor_ref_Enable:
  71              	.LFB1:
  43:Generated_Source\PSoC4/engine_sensor_ref.c **** 
ARM GAS  C:\Users\fneves\AppData\Local\Temp\ccw6KN9V.s 			page 3


  44:Generated_Source\PSoC4/engine_sensor_ref.c **** 
  45:Generated_Source\PSoC4/engine_sensor_ref.c **** /*******************************************************************************
  46:Generated_Source\PSoC4/engine_sensor_ref.c **** * Function Name: engine_sensor_ref_Enable
  47:Generated_Source\PSoC4/engine_sensor_ref.c **** ****************************************************************************//**
  48:Generated_Source\PSoC4/engine_sensor_ref.c **** *
  49:Generated_Source\PSoC4/engine_sensor_ref.c **** *  Enables the Voltage Reference.
  50:Generated_Source\PSoC4/engine_sensor_ref.c **** *
  51:Generated_Source\PSoC4/engine_sensor_ref.c **** *******************************************************************************/
  52:Generated_Source\PSoC4/engine_sensor_ref.c **** void engine_sensor_ref_Enable(void)
  53:Generated_Source\PSoC4/engine_sensor_ref.c **** {
  72              		.loc 1 53 0
  73              		.cfi_startproc
  74 0000 80B5     		push	{r7, lr}
  75              		.cfi_def_cfa_offset 8
  76              		.cfi_offset 7, -8
  77              		.cfi_offset 14, -4
  78 0002 00AF     		add	r7, sp, #0
  79              		.cfi_def_cfa_register 7
  54:Generated_Source\PSoC4/engine_sensor_ref.c ****     engine_sensor_ref_PRB_REF_REG |= engine_sensor_ref_VREF_ENABLE;
  80              		.loc 1 54 0
  81 0004 034B     		ldr	r3, .L5
  82 0006 034A     		ldr	r2, .L5
  83 0008 1268     		ldr	r2, [r2]
  84 000a 0121     		mov	r1, #1
  85 000c 0A43     		orr	r2, r1
  86 000e 1A60     		str	r2, [r3]
  55:Generated_Source\PSoC4/engine_sensor_ref.c **** }
  87              		.loc 1 55 0
  88 0010 BD46     		mov	sp, r7
  89              		@ sp needed
  90 0012 80BD     		pop	{r7, pc}
  91              	.L6:
  92              		.align	2
  93              	.L5:
  94 0014 08023F40 		.word	1077871112
  95              		.cfi_endproc
  96              	.LFE1:
  97              		.size	engine_sensor_ref_Enable, .-engine_sensor_ref_Enable
  98              		.section	.text.engine_sensor_ref_Start,"ax",%progbits
  99              		.align	2
 100              		.global	engine_sensor_ref_Start
 101              		.code	16
 102              		.thumb_func
 103              		.type	engine_sensor_ref_Start, %function
 104              	engine_sensor_ref_Start:
 105              	.LFB2:
  56:Generated_Source\PSoC4/engine_sensor_ref.c **** 
  57:Generated_Source\PSoC4/engine_sensor_ref.c **** 
  58:Generated_Source\PSoC4/engine_sensor_ref.c **** /*******************************************************************************
  59:Generated_Source\PSoC4/engine_sensor_ref.c **** * Function Name: engine_sensor_ref_Start
  60:Generated_Source\PSoC4/engine_sensor_ref.c **** ****************************************************************************//**
  61:Generated_Source\PSoC4/engine_sensor_ref.c **** *
  62:Generated_Source\PSoC4/engine_sensor_ref.c **** *  Initializes all parameters required to setup the component as defined in the
  63:Generated_Source\PSoC4/engine_sensor_ref.c **** *  customizer. If the reference is set to Vdda, it will enable all Vdda based
  64:Generated_Source\PSoC4/engine_sensor_ref.c **** *  references.
  65:Generated_Source\PSoC4/engine_sensor_ref.c **** *
  66:Generated_Source\PSoC4/engine_sensor_ref.c **** * \globalvars
ARM GAS  C:\Users\fneves\AppData\Local\Temp\ccw6KN9V.s 			page 4


  67:Generated_Source\PSoC4/engine_sensor_ref.c **** *  \ref engine_sensor_ref_initVar - This variable is used to indicate the initial
  68:Generated_Source\PSoC4/engine_sensor_ref.c **** *  configuration of this component. The variable is initialized to zero and
  69:Generated_Source\PSoC4/engine_sensor_ref.c **** *  set to 1 the first time engine_sensor_ref_Start() is called. This allows
  70:Generated_Source\PSoC4/engine_sensor_ref.c **** *  the component initialization without re-initialization in all subsequent
  71:Generated_Source\PSoC4/engine_sensor_ref.c **** *  calls to the engine_sensor_ref_Start() routine.
  72:Generated_Source\PSoC4/engine_sensor_ref.c **** *
  73:Generated_Source\PSoC4/engine_sensor_ref.c **** * \sideeffect
  74:Generated_Source\PSoC4/engine_sensor_ref.c **** *  If the reference is Vdda-based, the function will enable all Vdda-based
  75:Generated_Source\PSoC4/engine_sensor_ref.c **** *  references because they share the same resistor tree.
  76:Generated_Source\PSoC4/engine_sensor_ref.c **** *
  77:Generated_Source\PSoC4/engine_sensor_ref.c **** *******************************************************************************/
  78:Generated_Source\PSoC4/engine_sensor_ref.c **** void engine_sensor_ref_Start(void)
  79:Generated_Source\PSoC4/engine_sensor_ref.c **** {
 106              		.loc 1 79 0
 107              		.cfi_startproc
 108 0000 80B5     		push	{r7, lr}
 109              		.cfi_def_cfa_offset 8
 110              		.cfi_offset 7, -8
 111              		.cfi_offset 14, -4
 112 0002 00AF     		add	r7, sp, #0
 113              		.cfi_def_cfa_register 7
  80:Generated_Source\PSoC4/engine_sensor_ref.c ****     /* If not Initialized, then initialize all required hardware and software. */
  81:Generated_Source\PSoC4/engine_sensor_ref.c ****     if (engine_sensor_ref_initVar == 0u)
 114              		.loc 1 81 0
 115 0004 064B     		ldr	r3, .L9
 116 0006 1B78     		ldrb	r3, [r3]
 117 0008 002B     		cmp	r3, #0
 118 000a 04D1     		bne	.L8
  82:Generated_Source\PSoC4/engine_sensor_ref.c ****     {
  83:Generated_Source\PSoC4/engine_sensor_ref.c ****         engine_sensor_ref_initVar = 1u;
 119              		.loc 1 83 0
 120 000c 044B     		ldr	r3, .L9
 121 000e 0122     		mov	r2, #1
 122 0010 1A70     		strb	r2, [r3]
  84:Generated_Source\PSoC4/engine_sensor_ref.c ****         engine_sensor_ref_Init();
 123              		.loc 1 84 0
 124 0012 FFF7FEFF 		bl	engine_sensor_ref_Init
 125              	.L8:
  85:Generated_Source\PSoC4/engine_sensor_ref.c ****     }
  86:Generated_Source\PSoC4/engine_sensor_ref.c **** 
  87:Generated_Source\PSoC4/engine_sensor_ref.c ****     engine_sensor_ref_Enable();
 126              		.loc 1 87 0
 127 0016 FFF7FEFF 		bl	engine_sensor_ref_Enable
  88:Generated_Source\PSoC4/engine_sensor_ref.c **** }
 128              		.loc 1 88 0
 129 001a BD46     		mov	sp, r7
 130              		@ sp needed
 131 001c 80BD     		pop	{r7, pc}
 132              	.L10:
 133 001e C046     		.align	2
 134              	.L9:
 135 0020 00000000 		.word	engine_sensor_ref_initVar
 136              		.cfi_endproc
 137              	.LFE2:
 138              		.size	engine_sensor_ref_Start, .-engine_sensor_ref_Start
 139              		.section	.text.engine_sensor_ref_Stop,"ax",%progbits
 140              		.align	2
ARM GAS  C:\Users\fneves\AppData\Local\Temp\ccw6KN9V.s 			page 5


 141              		.global	engine_sensor_ref_Stop
 142              		.code	16
 143              		.thumb_func
 144              		.type	engine_sensor_ref_Stop, %function
 145              	engine_sensor_ref_Stop:
 146              	.LFB3:
  89:Generated_Source\PSoC4/engine_sensor_ref.c **** 
  90:Generated_Source\PSoC4/engine_sensor_ref.c **** 
  91:Generated_Source\PSoC4/engine_sensor_ref.c **** /*******************************************************************************
  92:Generated_Source\PSoC4/engine_sensor_ref.c **** * Function Name: engine_sensor_ref_Stop
  93:Generated_Source\PSoC4/engine_sensor_ref.c **** ****************************************************************************//**
  94:Generated_Source\PSoC4/engine_sensor_ref.c **** *
  95:Generated_Source\PSoC4/engine_sensor_ref.c **** *  Disables the Voltage Reference.
  96:Generated_Source\PSoC4/engine_sensor_ref.c **** *
  97:Generated_Source\PSoC4/engine_sensor_ref.c **** *******************************************************************************/
  98:Generated_Source\PSoC4/engine_sensor_ref.c **** void engine_sensor_ref_Stop(void)
  99:Generated_Source\PSoC4/engine_sensor_ref.c **** {
 147              		.loc 1 99 0
 148              		.cfi_startproc
 149 0000 80B5     		push	{r7, lr}
 150              		.cfi_def_cfa_offset 8
 151              		.cfi_offset 7, -8
 152              		.cfi_offset 14, -4
 153 0002 00AF     		add	r7, sp, #0
 154              		.cfi_def_cfa_register 7
 100:Generated_Source\PSoC4/engine_sensor_ref.c ****     engine_sensor_ref_PRB_REF_REG &= ~engine_sensor_ref_VREF_ENABLE;
 155              		.loc 1 100 0
 156 0004 034B     		ldr	r3, .L12
 157 0006 034A     		ldr	r2, .L12
 158 0008 1268     		ldr	r2, [r2]
 159 000a 0121     		mov	r1, #1
 160 000c 8A43     		bic	r2, r1
 161 000e 1A60     		str	r2, [r3]
 101:Generated_Source\PSoC4/engine_sensor_ref.c **** }
 162              		.loc 1 101 0
 163 0010 BD46     		mov	sp, r7
 164              		@ sp needed
 165 0012 80BD     		pop	{r7, pc}
 166              	.L13:
 167              		.align	2
 168              	.L12:
 169 0014 08023F40 		.word	1077871112
 170              		.cfi_endproc
 171              	.LFE3:
 172              		.size	engine_sensor_ref_Stop, .-engine_sensor_ref_Stop
 173              		.section	.text.engine_sensor_ref_SetTap,"ax",%progbits
 174              		.align	2
 175              		.global	engine_sensor_ref_SetTap
 176              		.code	16
 177              		.thumb_func
 178              		.type	engine_sensor_ref_SetTap, %function
 179              	engine_sensor_ref_SetTap:
 180              	.LFB4:
 102:Generated_Source\PSoC4/engine_sensor_ref.c **** 
 103:Generated_Source\PSoC4/engine_sensor_ref.c **** 
 104:Generated_Source\PSoC4/engine_sensor_ref.c **** /*******************************************************************************
 105:Generated_Source\PSoC4/engine_sensor_ref.c **** * Function Name: engine_sensor_ref_SetTap
ARM GAS  C:\Users\fneves\AppData\Local\Temp\ccw6KN9V.s 			page 6


 106:Generated_Source\PSoC4/engine_sensor_ref.c **** ****************************************************************************//**
 107:Generated_Source\PSoC4/engine_sensor_ref.c **** *
 108:Generated_Source\PSoC4/engine_sensor_ref.c **** *  Selects which of the equally spaced resistor divider taps will be used for
 109:Generated_Source\PSoC4/engine_sensor_ref.c **** *  the reference. The output will range in 1/16th steps between Vref/16 to Vref.
 110:Generated_Source\PSoC4/engine_sensor_ref.c **** *
 111:Generated_Source\PSoC4/engine_sensor_ref.c **** *  \param
 112:Generated_Source\PSoC4/engine_sensor_ref.c **** *  dividerTap:    One of the 16-tap voltage dividers to select a voltage
 113:Generated_Source\PSoC4/engine_sensor_ref.c **** *                 between 1/16 of the reference source to the full reference
 114:Generated_Source\PSoC4/engine_sensor_ref.c **** *                 source in steps of 1/16.
 115:Generated_Source\PSoC4/engine_sensor_ref.c **** * * 1   :    1/16 Vref
 116:Generated_Source\PSoC4/engine_sensor_ref.c **** * * ... :    ...
 117:Generated_Source\PSoC4/engine_sensor_ref.c **** * * 16  :    Vref
 118:Generated_Source\PSoC4/engine_sensor_ref.c **** *
 119:Generated_Source\PSoC4/engine_sensor_ref.c **** *******************************************************************************/
 120:Generated_Source\PSoC4/engine_sensor_ref.c **** void engine_sensor_ref_SetTap(uint32 dividerTap)
 121:Generated_Source\PSoC4/engine_sensor_ref.c **** {
 181              		.loc 1 121 0
 182              		.cfi_startproc
 183 0000 80B5     		push	{r7, lr}
 184              		.cfi_def_cfa_offset 8
 185              		.cfi_offset 7, -8
 186              		.cfi_offset 14, -4
 187 0002 82B0     		sub	sp, sp, #8
 188              		.cfi_def_cfa_offset 16
 189 0004 00AF     		add	r7, sp, #0
 190              		.cfi_def_cfa_register 7
 191 0006 7860     		str	r0, [r7, #4]
 122:Generated_Source\PSoC4/engine_sensor_ref.c ****     engine_sensor_ref_PRB_REF_REG = (engine_sensor_ref_PRB_REF_REG & ~engine_sensor_ref_VREF_LEVEL_
 192              		.loc 1 122 0
 193 0008 074B     		ldr	r3, .L15
 194 000a 074A     		ldr	r2, .L15
 195 000c 1268     		ldr	r2, [r2]
 196 000e F021     		mov	r1, #240
 197 0010 8A43     		bic	r2, r1
 198 0012 111C     		mov	r1, r2
 123:Generated_Source\PSoC4/engine_sensor_ref.c ****         (((dividerTap - 1u) << engine_sensor_ref_VREF_LEVEL_SEL_MASK_POS) & engine_sensor_ref_VREF_
 199              		.loc 1 123 0
 200 0014 7A68     		ldr	r2, [r7, #4]
 201 0016 013A     		sub	r2, r2, #1
 202 0018 1201     		lsl	r2, r2, #4
 203 001a FF20     		mov	r0, #255
 204 001c 0240     		and	r2, r0
 122:Generated_Source\PSoC4/engine_sensor_ref.c ****     engine_sensor_ref_PRB_REF_REG = (engine_sensor_ref_PRB_REF_REG & ~engine_sensor_ref_VREF_LEVEL_
 205              		.loc 1 122 0
 206 001e 0A43     		orr	r2, r1
 207 0020 1A60     		str	r2, [r3]
 124:Generated_Source\PSoC4/engine_sensor_ref.c **** }
 208              		.loc 1 124 0
 209 0022 BD46     		mov	sp, r7
 210 0024 02B0     		add	sp, sp, #8
 211              		@ sp needed
 212 0026 80BD     		pop	{r7, pc}
 213              	.L16:
 214              		.align	2
 215              	.L15:
 216 0028 08023F40 		.word	1077871112
 217              		.cfi_endproc
ARM GAS  C:\Users\fneves\AppData\Local\Temp\ccw6KN9V.s 			page 7


 218              	.LFE4:
 219              		.size	engine_sensor_ref_SetTap, .-engine_sensor_ref_SetTap
 220              		.section	.text.engine_sensor_ref_SetVRefSrc,"ax",%progbits
 221              		.align	2
 222              		.global	engine_sensor_ref_SetVRefSrc
 223              		.code	16
 224              		.thumb_func
 225              		.type	engine_sensor_ref_SetVRefSrc, %function
 226              	engine_sensor_ref_SetVRefSrc:
 227              	.LFB5:
 125:Generated_Source\PSoC4/engine_sensor_ref.c **** 
 126:Generated_Source\PSoC4/engine_sensor_ref.c **** 
 127:Generated_Source\PSoC4/engine_sensor_ref.c **** /*******************************************************************************
 128:Generated_Source\PSoC4/engine_sensor_ref.c **** * Function Name: engine_sensor_ref_SetVRefSrc
 129:Generated_Source\PSoC4/engine_sensor_ref.c **** ****************************************************************************//**
 130:Generated_Source\PSoC4/engine_sensor_ref.c **** *
 131:Generated_Source\PSoC4/engine_sensor_ref.c **** *  Selects whether the reference at the top of the resistor divider is based
 132:Generated_Source\PSoC4/engine_sensor_ref.c **** *  on the bandgap or Vdda.
 133:Generated_Source\PSoC4/engine_sensor_ref.c **** *
 134:Generated_Source\PSoC4/engine_sensor_ref.c **** *  \param
 135:Generated_Source\PSoC4/engine_sensor_ref.c **** *  reference:    The reference source.
 136:Generated_Source\PSoC4/engine_sensor_ref.c **** * * engine_sensor_ref_BANDGAP_REFERENCE :    Bandgap reference
 137:Generated_Source\PSoC4/engine_sensor_ref.c **** * * engine_sensor_ref_VDDA_REFERENCE    :    Vdda reference
 138:Generated_Source\PSoC4/engine_sensor_ref.c **** *
 139:Generated_Source\PSoC4/engine_sensor_ref.c **** * \sideeffect
 140:Generated_Source\PSoC4/engine_sensor_ref.c **** *  If the reference is based on Vdda, it will affect all Vdda-based references
 141:Generated_Source\PSoC4/engine_sensor_ref.c **** *  because they share the same resistor tree.
 142:Generated_Source\PSoC4/engine_sensor_ref.c **** *
 143:Generated_Source\PSoC4/engine_sensor_ref.c **** *******************************************************************************/
 144:Generated_Source\PSoC4/engine_sensor_ref.c **** void engine_sensor_ref_SetVRefSrc(uint32 reference)
 145:Generated_Source\PSoC4/engine_sensor_ref.c **** {
 228              		.loc 1 145 0
 229              		.cfi_startproc
 230 0000 80B5     		push	{r7, lr}
 231              		.cfi_def_cfa_offset 8
 232              		.cfi_offset 7, -8
 233              		.cfi_offset 14, -4
 234 0002 82B0     		sub	sp, sp, #8
 235              		.cfi_def_cfa_offset 16
 236 0004 00AF     		add	r7, sp, #0
 237              		.cfi_def_cfa_register 7
 238 0006 7860     		str	r0, [r7, #4]
 146:Generated_Source\PSoC4/engine_sensor_ref.c ****     if (engine_sensor_ref_BANDGAP_REFERENCE == reference)
 239              		.loc 1 146 0
 240 0008 7B68     		ldr	r3, [r7, #4]
 241 000a 002B     		cmp	r3, #0
 242 000c 06D1     		bne	.L18
 147:Generated_Source\PSoC4/engine_sensor_ref.c ****     {
 148:Generated_Source\PSoC4/engine_sensor_ref.c ****         engine_sensor_ref_PRB_REF_REG &= ~engine_sensor_ref_VREF_SUPPLY_SEL;
 243              		.loc 1 148 0
 244 000e 0B4B     		ldr	r3, .L20
 245 0010 0A4A     		ldr	r2, .L20
 246 0012 1268     		ldr	r2, [r2]
 247 0014 0221     		mov	r1, #2
 248 0016 8A43     		bic	r2, r1
 249 0018 1A60     		str	r2, [r3]
 250 001a 0BE0     		b	.L17
ARM GAS  C:\Users\fneves\AppData\Local\Temp\ccw6KN9V.s 			page 8


 251              	.L18:
 149:Generated_Source\PSoC4/engine_sensor_ref.c ****     }
 150:Generated_Source\PSoC4/engine_sensor_ref.c ****     else /* Vdda reference source */
 151:Generated_Source\PSoC4/engine_sensor_ref.c ****     {
 152:Generated_Source\PSoC4/engine_sensor_ref.c ****         engine_sensor_ref_PRB_CTRL_REG |= engine_sensor_ref_VDDA_ENABLE;
 252              		.loc 1 152 0
 253 001c 084B     		ldr	r3, .L20+4
 254 001e 084A     		ldr	r2, .L20+4
 255 0020 1268     		ldr	r2, [r2]
 256 0022 1021     		mov	r1, #16
 257 0024 0A43     		orr	r2, r1
 258 0026 1A60     		str	r2, [r3]
 153:Generated_Source\PSoC4/engine_sensor_ref.c ****         engine_sensor_ref_PRB_REF_REG |= engine_sensor_ref_VREF_SUPPLY_SEL;
 259              		.loc 1 153 0
 260 0028 044B     		ldr	r3, .L20
 261 002a 044A     		ldr	r2, .L20
 262 002c 1268     		ldr	r2, [r2]
 263 002e 0221     		mov	r1, #2
 264 0030 0A43     		orr	r2, r1
 265 0032 1A60     		str	r2, [r3]
 266              	.L17:
 154:Generated_Source\PSoC4/engine_sensor_ref.c ****     }
 155:Generated_Source\PSoC4/engine_sensor_ref.c **** }
 267              		.loc 1 155 0
 268 0034 BD46     		mov	sp, r7
 269 0036 02B0     		add	sp, sp, #8
 270              		@ sp needed
 271 0038 80BD     		pop	{r7, pc}
 272              	.L21:
 273 003a C046     		.align	2
 274              	.L20:
 275 003c 08023F40 		.word	1077871112
 276 0040 00023F40 		.word	1077871104
 277              		.cfi_endproc
 278              	.LFE5:
 279              		.size	engine_sensor_ref_SetVRefSrc, .-engine_sensor_ref_SetVRefSrc
 280              		.text
 281              	.Letext0:
 282              		.file 2 "Generated_Source\\PSoC4\\cytypes.h"