ARM GAS  C:\Users\fneves\AppData\Local\Temp\ccxv2AnS.s 			page 1


   1              		.cpu cortex-m0plus
   2              		.fpu softvfp
   3              		.eabi_attribute 20, 1
   4              		.eabi_attribute 21, 1
   5              		.eabi_attribute 23, 3
   6              		.eabi_attribute 24, 1
   7              		.eabi_attribute 25, 1
   8              		.eabi_attribute 26, 1
   9              		.eabi_attribute 30, 6
  10              		.eabi_attribute 34, 0
  11              		.eabi_attribute 18, 4
  12              		.code	16
  13              		.file	"engine_sensor_adc_filterVinMux.c"
  14              		.text
  15              	.Ltext0:
  16              		.cfi_sections	.debug_frame
  17              		.data
  18              		.type	engine_sensor_adc_filterVinMux_lastChannel, %object
  19              		.size	engine_sensor_adc_filterVinMux_lastChannel, 1
  20              	engine_sensor_adc_filterVinMux_lastChannel:
  21 0000 FF       		.byte	-1
  22              		.section	.text.engine_sensor_adc_filterVinMux_Start,"ax",%progbits
  23              		.align	2
  24              		.global	engine_sensor_adc_filterVinMux_Start
  25              		.code	16
  26              		.thumb_func
  27              		.type	engine_sensor_adc_filterVinMux_Start, %function
  28              	engine_sensor_adc_filterVinMux_Start:
  29              	.LFB0:
  30              		.file 1 "Generated_Source\\PSoC4\\engine_sensor_adc_filterVinMux.c"
   1:Generated_Source\PSoC4/engine_sensor_adc_filterVinMux.c **** /*******************************************************************************
   2:Generated_Source\PSoC4/engine_sensor_adc_filterVinMux.c **** * File Name: engine_sensor_adc_filterVinMux.c
   3:Generated_Source\PSoC4/engine_sensor_adc_filterVinMux.c **** * Version 1.80
   4:Generated_Source\PSoC4/engine_sensor_adc_filterVinMux.c **** *
   5:Generated_Source\PSoC4/engine_sensor_adc_filterVinMux.c **** *  Description:
   6:Generated_Source\PSoC4/engine_sensor_adc_filterVinMux.c **** *    This file contains all functions required for the analog multiplexer
   7:Generated_Source\PSoC4/engine_sensor_adc_filterVinMux.c **** *    AMux User Module.
   8:Generated_Source\PSoC4/engine_sensor_adc_filterVinMux.c **** *
   9:Generated_Source\PSoC4/engine_sensor_adc_filterVinMux.c **** *   Note:
  10:Generated_Source\PSoC4/engine_sensor_adc_filterVinMux.c **** *
  11:Generated_Source\PSoC4/engine_sensor_adc_filterVinMux.c **** *******************************************************************************
  12:Generated_Source\PSoC4/engine_sensor_adc_filterVinMux.c **** * Copyright 2008-2010, Cypress Semiconductor Corporation.  All rights reserved.
  13:Generated_Source\PSoC4/engine_sensor_adc_filterVinMux.c **** * You may use this file only in accordance with the license, terms, conditions, 
  14:Generated_Source\PSoC4/engine_sensor_adc_filterVinMux.c **** * disclaimers, and limitations in the end user license agreement accompanying 
  15:Generated_Source\PSoC4/engine_sensor_adc_filterVinMux.c **** * the software package with which this file was provided.
  16:Generated_Source\PSoC4/engine_sensor_adc_filterVinMux.c **** ********************************************************************************/
  17:Generated_Source\PSoC4/engine_sensor_adc_filterVinMux.c **** 
  18:Generated_Source\PSoC4/engine_sensor_adc_filterVinMux.c **** #include "engine_sensor_adc_filterVinMux.h"
  19:Generated_Source\PSoC4/engine_sensor_adc_filterVinMux.c **** 
  20:Generated_Source\PSoC4/engine_sensor_adc_filterVinMux.c **** static uint8 engine_sensor_adc_filterVinMux_lastChannel = engine_sensor_adc_filterVinMux_NULL_CHANN
  21:Generated_Source\PSoC4/engine_sensor_adc_filterVinMux.c **** 
  22:Generated_Source\PSoC4/engine_sensor_adc_filterVinMux.c **** 
  23:Generated_Source\PSoC4/engine_sensor_adc_filterVinMux.c **** /*******************************************************************************
  24:Generated_Source\PSoC4/engine_sensor_adc_filterVinMux.c **** * Function Name: engine_sensor_adc_filterVinMux_Start
  25:Generated_Source\PSoC4/engine_sensor_adc_filterVinMux.c **** ********************************************************************************
  26:Generated_Source\PSoC4/engine_sensor_adc_filterVinMux.c **** * Summary:
  27:Generated_Source\PSoC4/engine_sensor_adc_filterVinMux.c **** *  Disconnect all channels.
ARM GAS  C:\Users\fneves\AppData\Local\Temp\ccxv2AnS.s 			page 2


  28:Generated_Source\PSoC4/engine_sensor_adc_filterVinMux.c **** *
  29:Generated_Source\PSoC4/engine_sensor_adc_filterVinMux.c **** * Parameters:
  30:Generated_Source\PSoC4/engine_sensor_adc_filterVinMux.c **** *  void
  31:Generated_Source\PSoC4/engine_sensor_adc_filterVinMux.c **** *
  32:Generated_Source\PSoC4/engine_sensor_adc_filterVinMux.c **** * Return:
  33:Generated_Source\PSoC4/engine_sensor_adc_filterVinMux.c **** *  void
  34:Generated_Source\PSoC4/engine_sensor_adc_filterVinMux.c **** *
  35:Generated_Source\PSoC4/engine_sensor_adc_filterVinMux.c **** *******************************************************************************/
  36:Generated_Source\PSoC4/engine_sensor_adc_filterVinMux.c **** void engine_sensor_adc_filterVinMux_Start(void) 
  37:Generated_Source\PSoC4/engine_sensor_adc_filterVinMux.c **** {
  31              		.loc 1 37 0
  32              		.cfi_startproc
  33 0000 80B5     		push	{r7, lr}
  34              		.cfi_def_cfa_offset 8
  35              		.cfi_offset 7, -8
  36              		.cfi_offset 14, -4
  37 0002 82B0     		sub	sp, sp, #8
  38              		.cfi_def_cfa_offset 16
  39 0004 00AF     		add	r7, sp, #0
  40              		.cfi_def_cfa_register 7
  38:Generated_Source\PSoC4/engine_sensor_adc_filterVinMux.c ****     uint8 chan;
  39:Generated_Source\PSoC4/engine_sensor_adc_filterVinMux.c **** 
  40:Generated_Source\PSoC4/engine_sensor_adc_filterVinMux.c ****     for(chan = 0u; chan < engine_sensor_adc_filterVinMux_CHANNELS ; chan++)
  41              		.loc 1 40 0
  42 0006 FB1D     		add	r3, r7, #7
  43 0008 0022     		mov	r2, #0
  44 000a 1A70     		strb	r2, [r3]
  45 000c 09E0     		b	.L2
  46              	.L3:
  41:Generated_Source\PSoC4/engine_sensor_adc_filterVinMux.c ****     {
  42:Generated_Source\PSoC4/engine_sensor_adc_filterVinMux.c **** #if (engine_sensor_adc_filterVinMux_MUXTYPE == engine_sensor_adc_filterVinMux_MUX_SINGLE)
  43:Generated_Source\PSoC4/engine_sensor_adc_filterVinMux.c ****         engine_sensor_adc_filterVinMux_Unset(chan);
  47              		.loc 1 43 0 discriminator 3
  48 000e FB1D     		add	r3, r7, #7
  49 0010 1B78     		ldrb	r3, [r3]
  50 0012 181C     		mov	r0, r3
  51 0014 FFF7FEFF 		bl	engine_sensor_adc_filterVinMux_Unset
  40:Generated_Source\PSoC4/engine_sensor_adc_filterVinMux.c ****     {
  52              		.loc 1 40 0 discriminator 3
  53 0018 FB1D     		add	r3, r7, #7
  54 001a 1A78     		ldrb	r2, [r3]
  55 001c FB1D     		add	r3, r7, #7
  56 001e 0132     		add	r2, r2, #1
  57 0020 1A70     		strb	r2, [r3]
  58              	.L2:
  40:Generated_Source\PSoC4/engine_sensor_adc_filterVinMux.c ****     {
  59              		.loc 1 40 0 is_stmt 0 discriminator 1
  60 0022 FB1D     		add	r3, r7, #7
  61 0024 1B78     		ldrb	r3, [r3]
  62 0026 032B     		cmp	r3, #3
  63 0028 F1D9     		bls	.L3
  44:Generated_Source\PSoC4/engine_sensor_adc_filterVinMux.c **** #else
  45:Generated_Source\PSoC4/engine_sensor_adc_filterVinMux.c ****         engine_sensor_adc_filterVinMux_CYAMUXSIDE_A_Unset(chan);
  46:Generated_Source\PSoC4/engine_sensor_adc_filterVinMux.c ****         engine_sensor_adc_filterVinMux_CYAMUXSIDE_B_Unset(chan);
  47:Generated_Source\PSoC4/engine_sensor_adc_filterVinMux.c **** #endif
  48:Generated_Source\PSoC4/engine_sensor_adc_filterVinMux.c ****     }
  49:Generated_Source\PSoC4/engine_sensor_adc_filterVinMux.c **** 
ARM GAS  C:\Users\fneves\AppData\Local\Temp\ccxv2AnS.s 			page 3


  50:Generated_Source\PSoC4/engine_sensor_adc_filterVinMux.c ****     engine_sensor_adc_filterVinMux_lastChannel = engine_sensor_adc_filterVinMux_NULL_CHANNEL;
  64              		.loc 1 50 0 is_stmt 1
  65 002a 034B     		ldr	r3, .L4
  66 002c FF22     		mov	r2, #255
  67 002e 1A70     		strb	r2, [r3]
  51:Generated_Source\PSoC4/engine_sensor_adc_filterVinMux.c **** }
  68              		.loc 1 51 0
  69 0030 BD46     		mov	sp, r7
  70 0032 02B0     		add	sp, sp, #8
  71              		@ sp needed
  72 0034 80BD     		pop	{r7, pc}
  73              	.L5:
  74 0036 C046     		.align	2
  75              	.L4:
  76 0038 00000000 		.word	engine_sensor_adc_filterVinMux_lastChannel
  77              		.cfi_endproc
  78              	.LFE0:
  79              		.size	engine_sensor_adc_filterVinMux_Start, .-engine_sensor_adc_filterVinMux_Start
  80              		.section	.text.engine_sensor_adc_filterVinMux_Select,"ax",%progbits
  81              		.align	2
  82              		.global	engine_sensor_adc_filterVinMux_Select
  83              		.code	16
  84              		.thumb_func
  85              		.type	engine_sensor_adc_filterVinMux_Select, %function
  86              	engine_sensor_adc_filterVinMux_Select:
  87              	.LFB1:
  52:Generated_Source\PSoC4/engine_sensor_adc_filterVinMux.c **** 
  53:Generated_Source\PSoC4/engine_sensor_adc_filterVinMux.c **** 
  54:Generated_Source\PSoC4/engine_sensor_adc_filterVinMux.c **** #if (!engine_sensor_adc_filterVinMux_ATMOSTONE)
  55:Generated_Source\PSoC4/engine_sensor_adc_filterVinMux.c **** /*******************************************************************************
  56:Generated_Source\PSoC4/engine_sensor_adc_filterVinMux.c **** * Function Name: engine_sensor_adc_filterVinMux_Select
  57:Generated_Source\PSoC4/engine_sensor_adc_filterVinMux.c **** ********************************************************************************
  58:Generated_Source\PSoC4/engine_sensor_adc_filterVinMux.c **** * Summary:
  59:Generated_Source\PSoC4/engine_sensor_adc_filterVinMux.c **** *  This functions first disconnects all channels then connects the given
  60:Generated_Source\PSoC4/engine_sensor_adc_filterVinMux.c **** *  channel.
  61:Generated_Source\PSoC4/engine_sensor_adc_filterVinMux.c **** *
  62:Generated_Source\PSoC4/engine_sensor_adc_filterVinMux.c **** * Parameters:
  63:Generated_Source\PSoC4/engine_sensor_adc_filterVinMux.c **** *  channel:  The channel to connect to the common terminal.
  64:Generated_Source\PSoC4/engine_sensor_adc_filterVinMux.c **** *
  65:Generated_Source\PSoC4/engine_sensor_adc_filterVinMux.c **** * Return:
  66:Generated_Source\PSoC4/engine_sensor_adc_filterVinMux.c **** *  void
  67:Generated_Source\PSoC4/engine_sensor_adc_filterVinMux.c **** *
  68:Generated_Source\PSoC4/engine_sensor_adc_filterVinMux.c **** *******************************************************************************/
  69:Generated_Source\PSoC4/engine_sensor_adc_filterVinMux.c **** void engine_sensor_adc_filterVinMux_Select(uint8 channel) 
  70:Generated_Source\PSoC4/engine_sensor_adc_filterVinMux.c **** {
  88              		.loc 1 70 0
  89              		.cfi_startproc
  90 0000 80B5     		push	{r7, lr}
  91              		.cfi_def_cfa_offset 8
  92              		.cfi_offset 7, -8
  93              		.cfi_offset 14, -4
  94 0002 82B0     		sub	sp, sp, #8
  95              		.cfi_def_cfa_offset 16
  96 0004 00AF     		add	r7, sp, #0
  97              		.cfi_def_cfa_register 7
  98 0006 021C     		mov	r2, r0
  99 0008 FB1D     		add	r3, r7, #7
ARM GAS  C:\Users\fneves\AppData\Local\Temp\ccxv2AnS.s 			page 4


 100 000a 1A70     		strb	r2, [r3]
  71:Generated_Source\PSoC4/engine_sensor_adc_filterVinMux.c ****     engine_sensor_adc_filterVinMux_DisconnectAll();        /* Disconnect all previous connections *
 101              		.loc 1 71 0
 102 000c FFF7FEFF 		bl	engine_sensor_adc_filterVinMux_Start
  72:Generated_Source\PSoC4/engine_sensor_adc_filterVinMux.c ****     engine_sensor_adc_filterVinMux_Connect(channel);       /* Make the given selection */
 103              		.loc 1 72 0
 104 0010 FB1D     		add	r3, r7, #7
 105 0012 1B78     		ldrb	r3, [r3]
 106 0014 181C     		mov	r0, r3
 107 0016 FFF7FEFF 		bl	engine_sensor_adc_filterVinMux_Set
  73:Generated_Source\PSoC4/engine_sensor_adc_filterVinMux.c ****     engine_sensor_adc_filterVinMux_lastChannel = channel;  /* Update last channel */
 108              		.loc 1 73 0
 109 001a 034B     		ldr	r3, .L7
 110 001c FA1D     		add	r2, r7, #7
 111 001e 1278     		ldrb	r2, [r2]
 112 0020 1A70     		strb	r2, [r3]
  74:Generated_Source\PSoC4/engine_sensor_adc_filterVinMux.c **** }
 113              		.loc 1 74 0
 114 0022 BD46     		mov	sp, r7
 115 0024 02B0     		add	sp, sp, #8
 116              		@ sp needed
 117 0026 80BD     		pop	{r7, pc}
 118              	.L8:
 119              		.align	2
 120              	.L7:
 121 0028 00000000 		.word	engine_sensor_adc_filterVinMux_lastChannel
 122              		.cfi_endproc
 123              	.LFE1:
 124              		.size	engine_sensor_adc_filterVinMux_Select, .-engine_sensor_adc_filterVinMux_Select
 125              		.section	.text.engine_sensor_adc_filterVinMux_FastSelect,"ax",%progbits
 126              		.align	2
 127              		.global	engine_sensor_adc_filterVinMux_FastSelect
 128              		.code	16
 129              		.thumb_func
 130              		.type	engine_sensor_adc_filterVinMux_FastSelect, %function
 131              	engine_sensor_adc_filterVinMux_FastSelect:
 132              	.LFB2:
  75:Generated_Source\PSoC4/engine_sensor_adc_filterVinMux.c **** #endif
  76:Generated_Source\PSoC4/engine_sensor_adc_filterVinMux.c **** 
  77:Generated_Source\PSoC4/engine_sensor_adc_filterVinMux.c **** 
  78:Generated_Source\PSoC4/engine_sensor_adc_filterVinMux.c **** /*******************************************************************************
  79:Generated_Source\PSoC4/engine_sensor_adc_filterVinMux.c **** * Function Name: engine_sensor_adc_filterVinMux_FastSelect
  80:Generated_Source\PSoC4/engine_sensor_adc_filterVinMux.c **** ********************************************************************************
  81:Generated_Source\PSoC4/engine_sensor_adc_filterVinMux.c **** * Summary:
  82:Generated_Source\PSoC4/engine_sensor_adc_filterVinMux.c **** *  This function first disconnects the last connection made with FastSelect or
  83:Generated_Source\PSoC4/engine_sensor_adc_filterVinMux.c **** *  Select, then connects the given channel. The FastSelect function is similar
  84:Generated_Source\PSoC4/engine_sensor_adc_filterVinMux.c **** *  to the Select function, except it is faster since it only disconnects the
  85:Generated_Source\PSoC4/engine_sensor_adc_filterVinMux.c **** *  last channel selected rather than all channels.
  86:Generated_Source\PSoC4/engine_sensor_adc_filterVinMux.c **** *
  87:Generated_Source\PSoC4/engine_sensor_adc_filterVinMux.c **** * Parameters:
  88:Generated_Source\PSoC4/engine_sensor_adc_filterVinMux.c **** *  channel:  The channel to connect to the common terminal.
  89:Generated_Source\PSoC4/engine_sensor_adc_filterVinMux.c **** *
  90:Generated_Source\PSoC4/engine_sensor_adc_filterVinMux.c **** * Return:
  91:Generated_Source\PSoC4/engine_sensor_adc_filterVinMux.c **** *  void
  92:Generated_Source\PSoC4/engine_sensor_adc_filterVinMux.c **** *
  93:Generated_Source\PSoC4/engine_sensor_adc_filterVinMux.c **** *******************************************************************************/
  94:Generated_Source\PSoC4/engine_sensor_adc_filterVinMux.c **** void engine_sensor_adc_filterVinMux_FastSelect(uint8 channel) 
ARM GAS  C:\Users\fneves\AppData\Local\Temp\ccxv2AnS.s 			page 5


  95:Generated_Source\PSoC4/engine_sensor_adc_filterVinMux.c **** {
 133              		.loc 1 95 0
 134              		.cfi_startproc
 135 0000 80B5     		push	{r7, lr}
 136              		.cfi_def_cfa_offset 8
 137              		.cfi_offset 7, -8
 138              		.cfi_offset 14, -4
 139 0002 82B0     		sub	sp, sp, #8
 140              		.cfi_def_cfa_offset 16
 141 0004 00AF     		add	r7, sp, #0
 142              		.cfi_def_cfa_register 7
 143 0006 021C     		mov	r2, r0
 144 0008 FB1D     		add	r3, r7, #7
 145 000a 1A70     		strb	r2, [r3]
  96:Generated_Source\PSoC4/engine_sensor_adc_filterVinMux.c ****     /* Disconnect the last valid channel */
  97:Generated_Source\PSoC4/engine_sensor_adc_filterVinMux.c ****     if( engine_sensor_adc_filterVinMux_lastChannel != engine_sensor_adc_filterVinMux_NULL_CHANNEL)
 146              		.loc 1 97 0
 147 000c 0A4B     		ldr	r3, .L11
 148 000e 1B78     		ldrb	r3, [r3]
 149 0010 FF2B     		cmp	r3, #255
 150 0012 04D0     		beq	.L10
  98:Generated_Source\PSoC4/engine_sensor_adc_filterVinMux.c ****     {
  99:Generated_Source\PSoC4/engine_sensor_adc_filterVinMux.c ****         engine_sensor_adc_filterVinMux_Disconnect(engine_sensor_adc_filterVinMux_lastChannel);
 151              		.loc 1 99 0
 152 0014 084B     		ldr	r3, .L11
 153 0016 1B78     		ldrb	r3, [r3]
 154 0018 181C     		mov	r0, r3
 155 001a FFF7FEFF 		bl	engine_sensor_adc_filterVinMux_Unset
 156              	.L10:
 100:Generated_Source\PSoC4/engine_sensor_adc_filterVinMux.c ****     }
 101:Generated_Source\PSoC4/engine_sensor_adc_filterVinMux.c **** 
 102:Generated_Source\PSoC4/engine_sensor_adc_filterVinMux.c ****     /* Make the new channel connection */
 103:Generated_Source\PSoC4/engine_sensor_adc_filterVinMux.c **** #if (engine_sensor_adc_filterVinMux_MUXTYPE == engine_sensor_adc_filterVinMux_MUX_SINGLE)
 104:Generated_Source\PSoC4/engine_sensor_adc_filterVinMux.c ****     engine_sensor_adc_filterVinMux_Set(channel);
 157              		.loc 1 104 0
 158 001e FB1D     		add	r3, r7, #7
 159 0020 1B78     		ldrb	r3, [r3]
 160 0022 181C     		mov	r0, r3
 161 0024 FFF7FEFF 		bl	engine_sensor_adc_filterVinMux_Set
 105:Generated_Source\PSoC4/engine_sensor_adc_filterVinMux.c **** #else
 106:Generated_Source\PSoC4/engine_sensor_adc_filterVinMux.c ****     engine_sensor_adc_filterVinMux_CYAMUXSIDE_A_Set(channel);
 107:Generated_Source\PSoC4/engine_sensor_adc_filterVinMux.c ****     engine_sensor_adc_filterVinMux_CYAMUXSIDE_B_Set(channel);
 108:Generated_Source\PSoC4/engine_sensor_adc_filterVinMux.c **** #endif
 109:Generated_Source\PSoC4/engine_sensor_adc_filterVinMux.c **** 
 110:Generated_Source\PSoC4/engine_sensor_adc_filterVinMux.c **** 
 111:Generated_Source\PSoC4/engine_sensor_adc_filterVinMux.c ****     engine_sensor_adc_filterVinMux_lastChannel = channel;   /* Update last channel */
 162              		.loc 1 111 0
 163 0028 034B     		ldr	r3, .L11
 164 002a FA1D     		add	r2, r7, #7
 165 002c 1278     		ldrb	r2, [r2]
 166 002e 1A70     		strb	r2, [r3]
 112:Generated_Source\PSoC4/engine_sensor_adc_filterVinMux.c **** }
 167              		.loc 1 112 0
 168 0030 BD46     		mov	sp, r7
 169 0032 02B0     		add	sp, sp, #8
 170              		@ sp needed
 171 0034 80BD     		pop	{r7, pc}
ARM GAS  C:\Users\fneves\AppData\Local\Temp\ccxv2AnS.s 			page 6


 172              	.L12:
 173 0036 C046     		.align	2
 174              	.L11:
 175 0038 00000000 		.word	engine_sensor_adc_filterVinMux_lastChannel
 176              		.cfi_endproc
 177              	.LFE2:
 178              		.size	engine_sensor_adc_filterVinMux_FastSelect, .-engine_sensor_adc_filterVinMux_FastSelect
 179              		.text
 180              	.Letext0:
 181              		.file 2 "Generated_Source\\PSoC4\\cytypes.h"