ARM GAS  C:\Users\fneves\AppData\Local\Temp\ccLktVPo.s 			page 1


   1              		.cpu cortex-m0plus
   2              		.fpu softvfp
   3              		.eabi_attribute 20, 1
   4              		.eabi_attribute 21, 1
   5              		.eabi_attribute 23, 3
   6              		.eabi_attribute 24, 1
   7              		.eabi_attribute 25, 1
   8              		.eabi_attribute 26, 1
   9              		.eabi_attribute 30, 6
  10              		.eabi_attribute 34, 0
  11              		.eabi_attribute 18, 4
  12              		.code	16
  13              		.file	"engine_sensor_adc_UABH_A_CyUAB.c"
  14              		.text
  15              	.Ltext0:
  16              		.cfi_sections	.debug_frame
  17              		.section	.text.CyUAB_SetClock,"ax",%progbits
  18              		.align	2
  19              		.global	CyUAB_SetClock
  20              		.code	16
  21              		.thumb_func
  22              		.type	CyUAB_SetClock, %function
  23              	CyUAB_SetClock:
  24              	.LFB1:
  25              		.file 1 "Generated_Source\\PSoC4\\engine_sensor_adc_UABH_A_CyUAB.c"
   1:Generated_Source\PSoC4/engine_sensor_adc_UABH_A_CyUAB.c **** /*!*****************************************************************************
   2:Generated_Source\PSoC4/engine_sensor_adc_UABH_A_CyUAB.c **** * \file engine_sensor_adc_UABH_A_CyUAB.c
   3:Generated_Source\PSoC4/engine_sensor_adc_UABH_A_CyUAB.c **** * \version 1.10
   4:Generated_Source\PSoC4/engine_sensor_adc_UABH_A_CyUAB.c **** *
   5:Generated_Source\PSoC4/engine_sensor_adc_UABH_A_CyUAB.c **** * \brief 
   6:Generated_Source\PSoC4/engine_sensor_adc_UABH_A_CyUAB.c **** *   API for Universal Analog Block (UAB)
   7:Generated_Source\PSoC4/engine_sensor_adc_UABH_A_CyUAB.c **** *
   8:Generated_Source\PSoC4/engine_sensor_adc_UABH_A_CyUAB.c **** ********************************************************************************
   9:Generated_Source\PSoC4/engine_sensor_adc_UABH_A_CyUAB.c **** * \copyright
  10:Generated_Source\PSoC4/engine_sensor_adc_UABH_A_CyUAB.c **** * (c) 2014-2016, Cypress Semiconductor Corporation. All rights reserved.
  11:Generated_Source\PSoC4/engine_sensor_adc_UABH_A_CyUAB.c **** * This software, including source code, documentation and related
  12:Generated_Source\PSoC4/engine_sensor_adc_UABH_A_CyUAB.c **** * materials ("Software"), is owned by Cypress Semiconductor
  13:Generated_Source\PSoC4/engine_sensor_adc_UABH_A_CyUAB.c **** * Corporation ("Cypress") and is protected by and subject to worldwide
  14:Generated_Source\PSoC4/engine_sensor_adc_UABH_A_CyUAB.c **** * patent protection (United States and foreign), United States copyright
  15:Generated_Source\PSoC4/engine_sensor_adc_UABH_A_CyUAB.c **** * laws and international treaty provisions. Therefore, you may use this
  16:Generated_Source\PSoC4/engine_sensor_adc_UABH_A_CyUAB.c **** * Software only as provided in the license agreement accompanying the
  17:Generated_Source\PSoC4/engine_sensor_adc_UABH_A_CyUAB.c **** * software package from which you obtained this Software ("EULA").
  18:Generated_Source\PSoC4/engine_sensor_adc_UABH_A_CyUAB.c **** * If no EULA applies, Cypress hereby grants you a personal, nonexclusive,
  19:Generated_Source\PSoC4/engine_sensor_adc_UABH_A_CyUAB.c **** * non-transferable license to copy, modify, and compile the
  20:Generated_Source\PSoC4/engine_sensor_adc_UABH_A_CyUAB.c **** * Software source code solely for use in connection with Cypress's
  21:Generated_Source\PSoC4/engine_sensor_adc_UABH_A_CyUAB.c **** * integrated circuit products. Any reproduction, modification, translation,
  22:Generated_Source\PSoC4/engine_sensor_adc_UABH_A_CyUAB.c **** * compilation, or representation of this Software except as specified
  23:Generated_Source\PSoC4/engine_sensor_adc_UABH_A_CyUAB.c **** * above is prohibited without the express written permission of Cypress.
  24:Generated_Source\PSoC4/engine_sensor_adc_UABH_A_CyUAB.c **** * Disclaimer: THIS SOFTWARE IS PROVIDED AS-IS, WITH NO
  25:Generated_Source\PSoC4/engine_sensor_adc_UABH_A_CyUAB.c **** * WARRANTY OF ANY KIND, EXPRESS OR IMPLIED, INCLUDING,
  26:Generated_Source\PSoC4/engine_sensor_adc_UABH_A_CyUAB.c **** * BUT NOT LIMITED TO, NONINFRINGEMENT, IMPLIED
  27:Generated_Source\PSoC4/engine_sensor_adc_UABH_A_CyUAB.c **** * WARRANTIES OF MERCHANTABILITY AND FITNESS FOR A
  28:Generated_Source\PSoC4/engine_sensor_adc_UABH_A_CyUAB.c **** * PARTICULAR PURPOSE. Cypress reserves the right to make
  29:Generated_Source\PSoC4/engine_sensor_adc_UABH_A_CyUAB.c **** * changes to the Software without notice. Cypress does not assume any
  30:Generated_Source\PSoC4/engine_sensor_adc_UABH_A_CyUAB.c **** * liability arising out of the application or use of the Software or any
  31:Generated_Source\PSoC4/engine_sensor_adc_UABH_A_CyUAB.c **** * product or circuit described in the Software. Cypress does not
  32:Generated_Source\PSoC4/engine_sensor_adc_UABH_A_CyUAB.c **** * authorize its products for use in any products where a malfunction or
ARM GAS  C:\Users\fneves\AppData\Local\Temp\ccLktVPo.s 			page 2


  33:Generated_Source\PSoC4/engine_sensor_adc_UABH_A_CyUAB.c **** * failure of the Cypress product may reasonably be expected to result in
  34:Generated_Source\PSoC4/engine_sensor_adc_UABH_A_CyUAB.c **** * significant property damage, injury or death ("High Risk Product"). By
  35:Generated_Source\PSoC4/engine_sensor_adc_UABH_A_CyUAB.c **** * including Cypress's product in a High Risk Product, the manufacturer
  36:Generated_Source\PSoC4/engine_sensor_adc_UABH_A_CyUAB.c **** * of such system or application assumes all risk of such use and in doing
  37:Generated_Source\PSoC4/engine_sensor_adc_UABH_A_CyUAB.c **** * so agrees to indemnify Cypress against all liability.
  38:Generated_Source\PSoC4/engine_sensor_adc_UABH_A_CyUAB.c **** *******************************************************************************/
  39:Generated_Source\PSoC4/engine_sensor_adc_UABH_A_CyUAB.c **** 
  40:Generated_Source\PSoC4/engine_sensor_adc_UABH_A_CyUAB.c **** #if !defined(CyUAB_C)
  41:Generated_Source\PSoC4/engine_sensor_adc_UABH_A_CyUAB.c **** #define CyUAB_C
  42:Generated_Source\PSoC4/engine_sensor_adc_UABH_A_CyUAB.c **** 
  43:Generated_Source\PSoC4/engine_sensor_adc_UABH_A_CyUAB.c **** #include "engine_sensor_adc_UABH_A_CyUAB.h"    
  44:Generated_Source\PSoC4/engine_sensor_adc_UABH_A_CyUAB.c **** 
  45:Generated_Source\PSoC4/engine_sensor_adc_UABH_A_CyUAB.c **** /******************* CyUAB_SetClock() *****************************************/
  46:Generated_Source\PSoC4/engine_sensor_adc_UABH_A_CyUAB.c **** /*!
  47:Generated_Source\PSoC4/engine_sensor_adc_UABH_A_CyUAB.c **** * @brief Write clock - handles filling a bit column that spans multiple memory locations.
  48:Generated_Source\PSoC4/engine_sensor_adc_UABH_A_CyUAB.c **** * 
  49:Generated_Source\PSoC4/engine_sensor_adc_UABH_A_CyUAB.c **** * @details There are 8 non-modbit clocks (pattern only) and 
  50:Generated_Source\PSoC4/engine_sensor_adc_UABH_A_CyUAB.c **** * 4 modbit clocks (pattern and modbit) - this functions can set either type.
  51:Generated_Source\PSoC4/engine_sensor_adc_UABH_A_CyUAB.c **** * Set the pattern and modbit pattern of a modbit clock and just the pattern for a non-modbit clock.
  52:Generated_Source\PSoC4/engine_sensor_adc_UABH_A_CyUAB.c **** * Returns @c void.
  53:Generated_Source\PSoC4/engine_sensor_adc_UABH_A_CyUAB.c **** * clocks fill columns that span multiple RAM locations.
  54:Generated_Source\PSoC4/engine_sensor_adc_UABH_A_CyUAB.c **** *
  55:Generated_Source\PSoC4/engine_sensor_adc_UABH_A_CyUAB.c **** * @c modbit is only used for modbit clocks (PHI9-PHI12)
  56:Generated_Source\PSoC4/engine_sensor_adc_UABH_A_CyUAB.c **** * @c modbit is ignored for non-modbit clocks (PHI1-PHI8)
  57:Generated_Source\PSoC4/engine_sensor_adc_UABH_A_CyUAB.c **** *
  58:Generated_Source\PSoC4/engine_sensor_adc_UABH_A_CyUAB.c **** * Always write all 16 steps, because you don't know what was set previously 
  59:Generated_Source\PSoC4/engine_sensor_adc_UABH_A_CyUAB.c **** * (and keeps the parameter list down to 4 - threshold for function calling method)
  60:Generated_Source\PSoC4/engine_sensor_adc_UABH_A_CyUAB.c **** *
  61:Generated_Source\PSoC4/engine_sensor_adc_UABH_A_CyUAB.c **** * A call to this function must be preceded by Start(), Init(), or ClearAllClocks()
  62:Generated_Source\PSoC4/engine_sensor_adc_UABH_A_CyUAB.c **** * to initialize the wavestep SRAM.
  63:Generated_Source\PSoC4/engine_sensor_adc_UABH_A_CyUAB.c **** * The UAB clocking must be presently stopped.
  64:Generated_Source\PSoC4/engine_sensor_adc_UABH_A_CyUAB.c **** * Before enabling UAB clocking, as needed, modify lastStep with SetLastStep()
  65:Generated_Source\PSoC4/engine_sensor_adc_UABH_A_CyUAB.c **** *   
  66:Generated_Source\PSoC4/engine_sensor_adc_UABH_A_CyUAB.c **** * @internal
  67:Generated_Source\PSoC4/engine_sensor_adc_UABH_A_CyUAB.c **** * @reglist @reg engine_sensor_adc_UABH_A_SRAM<tt>xx</tt>_REG<, where <tt>xx</tt> 
  68:Generated_Source\PSoC4/engine_sensor_adc_UABH_A_CyUAB.c **** * spans 00 to 15.
  69:Generated_Source\PSoC4/engine_sensor_adc_UABH_A_CyUAB.c **** *
  70:Generated_Source\PSoC4/engine_sensor_adc_UABH_A_CyUAB.c **** * This function relies on several assumptions/definitions:
  71:Generated_Source\PSoC4/engine_sensor_adc_UABH_A_CyUAB.c **** * @li The SRAM clocks are all stored contiguously in memory.
  72:Generated_Source\PSoC4/engine_sensor_adc_UABH_A_CyUAB.c **** * @li The lowest address is engine_sensor_adc_UABH_A_UAB0_SRAM00.
  73:Generated_Source\PSoC4/engine_sensor_adc_UABH_A_CyUAB.c **** * @li The modbit clocks start at phi_m1 = 9
  74:Generated_Source\PSoC4/engine_sensor_adc_UABH_A_CyUAB.c **** * @li The modbit clocks take two consecutive bit fields within a step 
  75:Generated_Source\PSoC4/engine_sensor_adc_UABH_A_CyUAB.c **** *
  76:Generated_Source\PSoC4/engine_sensor_adc_UABH_A_CyUAB.c **** * The expression (8 + 2*(phi - 9)) This expression 
  77:Generated_Source\PSoC4/engine_sensor_adc_UABH_A_CyUAB.c **** * simplifies to the one used for field shifting
  78:Generated_Source\PSoC4/engine_sensor_adc_UABH_A_CyUAB.c **** *
  79:Generated_Source\PSoC4/engine_sensor_adc_UABH_A_CyUAB.c **** * @endinternal
  80:Generated_Source\PSoC4/engine_sensor_adc_UABH_A_CyUAB.c **** *
  81:Generated_Source\PSoC4/engine_sensor_adc_UABH_A_CyUAB.c **** * @param uabSram starting address of UAB half waveform SRAM; ie engine_sensor_adc_UABH_A_SRAM1_PTR
  82:Generated_Source\PSoC4/engine_sensor_adc_UABH_A_CyUAB.c **** * @param pattern clocking in LSbit to MSbit ordering for step 0 to step 15.
  83:Generated_Source\PSoC4/engine_sensor_adc_UABH_A_CyUAB.c **** * When the @p modbitPattern is high, the
  84:Generated_Source\PSoC4/engine_sensor_adc_UABH_A_CyUAB.c **** * modbit waveform (chosen by engine_sensor_adc_UABH_A_SetModbitSource()) is used as
  85:Generated_Source\PSoC4/engine_sensor_adc_UABH_A_CyUAB.c **** * this clock.  @p pattern inverts the modbit waveform when high, doesn’t invert
  86:Generated_Source\PSoC4/engine_sensor_adc_UABH_A_CyUAB.c **** * it when low.  When the @p modbitPattern is low, this clock simply follows
  87:Generated_Source\PSoC4/engine_sensor_adc_UABH_A_CyUAB.c **** * @p pattern as it would for the non-modbit clocks.
  88:Generated_Source\PSoC4/engine_sensor_adc_UABH_A_CyUAB.c **** * @param modbitPattern A pattern which describes when to use the modbit
  89:Generated_Source\PSoC4/engine_sensor_adc_UABH_A_CyUAB.c **** * waveform as this clock. When @p modbitPattern is high, the
ARM GAS  C:\Users\fneves\AppData\Local\Temp\ccLktVPo.s 			page 3


  90:Generated_Source\PSoC4/engine_sensor_adc_UABH_A_CyUAB.c **** * modbit waveform (chosen by engine_sensor_adc_UABH_A_SetModbitSource()) is used as
  91:Generated_Source\PSoC4/engine_sensor_adc_UABH_A_CyUAB.c **** * this clock.  @p pattern inverts the modbit waveform when high, doesn’t invert
  92:Generated_Source\PSoC4/engine_sensor_adc_UABH_A_CyUAB.c **** * it when low.  When the @p modbitPattern is low, this clock simply follows
  93:Generated_Source\PSoC4/engine_sensor_adc_UABH_A_CyUAB.c **** * @p pattern as it would for the non-modbit clocks.
  94:Generated_Source\PSoC4/engine_sensor_adc_UABH_A_CyUAB.c **** *
  95:Generated_Source\PSoC4/engine_sensor_adc_UABH_A_CyUAB.c **** * @param phi The clock to configure.  Function ignores all other values besides valid:
  96:Generated_Source\PSoC4/engine_sensor_adc_UABH_A_CyUAB.c **** * @arg @c CyUAB_CLK_PHI1
  97:Generated_Source\PSoC4/engine_sensor_adc_UABH_A_CyUAB.c **** * @arg @c CyUAB_CLK_PHI2
  98:Generated_Source\PSoC4/engine_sensor_adc_UABH_A_CyUAB.c **** * @arg @c CyUAB_CLK_PHI3
  99:Generated_Source\PSoC4/engine_sensor_adc_UABH_A_CyUAB.c **** * @arg @c CyUAB_CLK_PHI4
 100:Generated_Source\PSoC4/engine_sensor_adc_UABH_A_CyUAB.c **** * @arg @c CyUAB_CLK_PHI5
 101:Generated_Source\PSoC4/engine_sensor_adc_UABH_A_CyUAB.c **** * @arg @c CyUAB_CLK_PHI6
 102:Generated_Source\PSoC4/engine_sensor_adc_UABH_A_CyUAB.c **** * @arg @c CyUAB_CLK_PHI7
 103:Generated_Source\PSoC4/engine_sensor_adc_UABH_A_CyUAB.c **** * @arg @c CyUAB_CLK_PHI8
 104:Generated_Source\PSoC4/engine_sensor_adc_UABH_A_CyUAB.c **** * @arg @c CyUAB_CLK_PHI9
 105:Generated_Source\PSoC4/engine_sensor_adc_UABH_A_CyUAB.c **** * @arg @c CyUAB_CLK_PHI10
 106:Generated_Source\PSoC4/engine_sensor_adc_UABH_A_CyUAB.c **** * @arg @c CyUAB_CLK_PHI11
 107:Generated_Source\PSoC4/engine_sensor_adc_UABH_A_CyUAB.c **** * @arg @c CyUAB_CLK_PHI12
 108:Generated_Source\PSoC4/engine_sensor_adc_UABH_A_CyUAB.c **** *
 109:Generated_Source\PSoC4/engine_sensor_adc_UABH_A_CyUAB.c **** * @see
 110:Generated_Source\PSoC4/engine_sensor_adc_UABH_A_CyUAB.c **** * 
 111:Generated_Source\PSoC4/engine_sensor_adc_UABH_A_CyUAB.c **** * @sideeffect None
 112:Generated_Source\PSoC4/engine_sensor_adc_UABH_A_CyUAB.c **** *******************************************************************************/
 113:Generated_Source\PSoC4/engine_sensor_adc_UABH_A_CyUAB.c **** void CyUAB_SetClock( reg32 uabSram[], CyUAB_clk_enum phi, uint16 pattern, uint16 modbitPattern )
 114:Generated_Source\PSoC4/engine_sensor_adc_UABH_A_CyUAB.c **** {
  26              		.loc 1 114 0
  27              		.cfi_startproc
  28 0000 90B5     		push	{r4, r7, lr}
  29              		.cfi_def_cfa_offset 12
  30              		.cfi_offset 4, -12
  31              		.cfi_offset 7, -8
  32              		.cfi_offset 14, -4
  33 0002 8FB0     		sub	sp, sp, #60
  34              		.cfi_def_cfa_offset 72
  35 0004 00AF     		add	r7, sp, #0
  36              		.cfi_def_cfa_register 7
  37 0006 F860     		str	r0, [r7, #12]
  38 0008 0C1C     		mov	r4, r1
  39 000a 101C     		mov	r0, r2
  40 000c 191C     		mov	r1, r3
  41 000e 0B23     		mov	r3, #11
  42 0010 FB18     		add	r3, r7, r3
  43 0012 221C     		add	r2, r4, #0
  44 0014 1A70     		strb	r2, [r3]
  45 0016 0823     		mov	r3, #8
  46 0018 FB18     		add	r3, r7, r3
  47 001a 021C     		add	r2, r0, #0
  48 001c 1A80     		strh	r2, [r3]
  49 001e BB1D     		add	r3, r7, #6
  50 0020 0A1C     		add	r2, r1, #0
  51 0022 1A80     		strh	r2, [r3]
 115:Generated_Source\PSoC4/engine_sensor_adc_UABH_A_CyUAB.c ****     const uint32 PATTERN_SHIFT = 0UL;
  52              		.loc 1 115 0
  53 0024 0023     		mov	r3, #0
  54 0026 7B62     		str	r3, [r7, #36]
 116:Generated_Source\PSoC4/engine_sensor_adc_UABH_A_CyUAB.c ****     const uint32 MODBIT_SHIFT = 1UL;
  55              		.loc 1 116 0
ARM GAS  C:\Users\fneves\AppData\Local\Temp\ccLktVPo.s 			page 4


  56 0028 0123     		mov	r3, #1
  57 002a 3B62     		str	r3, [r7, #32]
 117:Generated_Source\PSoC4/engine_sensor_adc_UABH_A_CyUAB.c ****     const uint32 PATTERN_MASK = 1UL<<PATTERN_SHIFT;
  58              		.loc 1 117 0
  59 002c 7B6A     		ldr	r3, [r7, #36]
  60 002e 0122     		mov	r2, #1
  61 0030 9A40     		lsl	r2, r2, r3
  62 0032 131C     		mov	r3, r2
  63 0034 FB61     		str	r3, [r7, #28]
 118:Generated_Source\PSoC4/engine_sensor_adc_UABH_A_CyUAB.c ****     const uint32 MODBIT_MASK  = 1UL<<MODBIT_SHIFT;
  64              		.loc 1 118 0
  65 0036 3B6A     		ldr	r3, [r7, #32]
  66 0038 0122     		mov	r2, #1
  67 003a 9A40     		lsl	r2, r2, r3
  68 003c 131C     		mov	r3, r2
  69 003e BB61     		str	r3, [r7, #24]
 119:Generated_Source\PSoC4/engine_sensor_adc_UABH_A_CyUAB.c ****     const uint32 BOTH_MASK = PATTERN_MASK | MODBIT_MASK;
  70              		.loc 1 119 0
  71 0040 FA69     		ldr	r2, [r7, #28]
  72 0042 BB69     		ldr	r3, [r7, #24]
  73 0044 1343     		orr	r3, r2
  74 0046 7B61     		str	r3, [r7, #20]
 120:Generated_Source\PSoC4/engine_sensor_adc_UABH_A_CyUAB.c ****     const int32 PHI9_SHIFT = ((int32)CyUAB_CLK_PHI9)-1;
  75              		.loc 1 120 0
  76 0048 0823     		mov	r3, #8
  77 004a 3B61     		str	r3, [r7, #16]
 121:Generated_Source\PSoC4/engine_sensor_adc_UABH_A_CyUAB.c ****     
 122:Generated_Source\PSoC4/engine_sensor_adc_UABH_A_CyUAB.c ****     uint32 i;
 123:Generated_Source\PSoC4/engine_sensor_adc_UABH_A_CyUAB.c ****     int32 shift;
 124:Generated_Source\PSoC4/engine_sensor_adc_UABH_A_CyUAB.c ****     uint32 mask;
 125:Generated_Source\PSoC4/engine_sensor_adc_UABH_A_CyUAB.c ****     uint32 modbitCopy;
 126:Generated_Source\PSoC4/engine_sensor_adc_UABH_A_CyUAB.c ****     
 127:Generated_Source\PSoC4/engine_sensor_adc_UABH_A_CyUAB.c ****     if( ( ((int32)CyUAB_CLK_PHI1) <= ((int32)phi) ) && ( ((int32)phi) <= ((int32)CyUAB_CLK_PHI12) )
  78              		.loc 1 127 0
  79 004c 0B23     		mov	r3, #11
  80 004e FB18     		add	r3, r7, r3
  81 0050 1B78     		ldrb	r3, [r3]
  82 0052 002B     		cmp	r3, #0
  83 0054 54D0     		beq	.L1
  84              		.loc 1 127 0 is_stmt 0 discriminator 1
  85 0056 0B23     		mov	r3, #11
  86 0058 FB18     		add	r3, r7, r3
  87 005a 1B78     		ldrb	r3, [r3]
  88 005c 0C2B     		cmp	r3, #12
  89 005e 4FD8     		bhi	.L1
 128:Generated_Source\PSoC4/engine_sensor_adc_UABH_A_CyUAB.c ****     {
 129:Generated_Source\PSoC4/engine_sensor_adc_UABH_A_CyUAB.c ****         if( ((int32)phi) > ((int32)CyUAB_CLK_PHI8) )
  90              		.loc 1 129 0 is_stmt 1
  91 0060 0B23     		mov	r3, #11
  92 0062 FB18     		add	r3, r7, r3
  93 0064 1B78     		ldrb	r3, [r3]
  94 0066 082B     		cmp	r3, #8
  95 0068 13D9     		bls	.L3
 130:Generated_Source\PSoC4/engine_sensor_adc_UABH_A_CyUAB.c ****         {
 131:Generated_Source\PSoC4/engine_sensor_adc_UABH_A_CyUAB.c ****             shift = (2*((int32)phi))+(PHI9_SHIFT-(2*((int32)CyUAB_CLK_PHI9) ) ); /* ==2*phi-10==(2*
  96              		.loc 1 131 0
  97 006a 0B23     		mov	r3, #11
ARM GAS  C:\Users\fneves\AppData\Local\Temp\ccLktVPo.s 			page 5


  98 006c FB18     		add	r3, r7, r3
  99 006e 1B78     		ldrb	r3, [r3]
 100 0070 5A00     		lsl	r2, r3, #1
 101 0072 3B69     		ldr	r3, [r7, #16]
 102 0074 123B     		sub	r3, r3, #18
 103 0076 D318     		add	r3, r2, r3
 104 0078 3B63     		str	r3, [r7, #48]
 132:Generated_Source\PSoC4/engine_sensor_adc_UABH_A_CyUAB.c ****             mask  = BOTH_MASK<<shift;
 105              		.loc 1 132 0
 106 007a 7A69     		ldr	r2, [r7, #20]
 107 007c 3B6B     		ldr	r3, [r7, #48]
 108 007e 9A40     		lsl	r2, r2, r3
 109 0080 131C     		mov	r3, r2
 110 0082 FB62     		str	r3, [r7, #44]
 133:Generated_Source\PSoC4/engine_sensor_adc_UABH_A_CyUAB.c ****             modbitCopy = ((uint32)modbitPattern)<<MODBIT_SHIFT; /* pre-shift, so correct for right 
 111              		.loc 1 133 0
 112 0084 BB1D     		add	r3, r7, #6
 113 0086 1A88     		ldrh	r2, [r3]
 114 0088 3B6A     		ldr	r3, [r7, #32]
 115 008a 9A40     		lsl	r2, r2, r3
 116 008c 131C     		mov	r3, r2
 117 008e BB62     		str	r3, [r7, #40]
 118 0090 0BE0     		b	.L4
 119              	.L3:
 134:Generated_Source\PSoC4/engine_sensor_adc_UABH_A_CyUAB.c ****         }
 135:Generated_Source\PSoC4/engine_sensor_adc_UABH_A_CyUAB.c ****         else
 136:Generated_Source\PSoC4/engine_sensor_adc_UABH_A_CyUAB.c ****         {
 137:Generated_Source\PSoC4/engine_sensor_adc_UABH_A_CyUAB.c ****             shift = phi-CyUAB_CLK_PHI1;
 120              		.loc 1 137 0
 121 0092 0B23     		mov	r3, #11
 122 0094 FB18     		add	r3, r7, r3
 123 0096 1B78     		ldrb	r3, [r3]
 124 0098 013B     		sub	r3, r3, #1
 125 009a 3B63     		str	r3, [r7, #48]
 138:Generated_Source\PSoC4/engine_sensor_adc_UABH_A_CyUAB.c ****             mask = 1UL<<shift;
 126              		.loc 1 138 0
 127 009c 0122     		mov	r2, #1
 128 009e 3B6B     		ldr	r3, [r7, #48]
 129 00a0 9A40     		lsl	r2, r2, r3
 130 00a2 131C     		mov	r3, r2
 131 00a4 FB62     		str	r3, [r7, #44]
 139:Generated_Source\PSoC4/engine_sensor_adc_UABH_A_CyUAB.c ****             modbitCopy = 0UL;
 132              		.loc 1 139 0
 133 00a6 0023     		mov	r3, #0
 134 00a8 BB62     		str	r3, [r7, #40]
 135              	.L4:
 140:Generated_Source\PSoC4/engine_sensor_adc_UABH_A_CyUAB.c ****         }
 141:Generated_Source\PSoC4/engine_sensor_adc_UABH_A_CyUAB.c ****         
 142:Generated_Source\PSoC4/engine_sensor_adc_UABH_A_CyUAB.c ****         for( i=0UL; i<CyUAB_STEPS_LEN_MAX; ++i )
 136              		.loc 1 142 0
 137 00aa 0023     		mov	r3, #0
 138 00ac 7B63     		str	r3, [r7, #52]
 139 00ae 24E0     		b	.L5
 140              	.L6:
 143:Generated_Source\PSoC4/engine_sensor_adc_UABH_A_CyUAB.c ****         {
 144:Generated_Source\PSoC4/engine_sensor_adc_UABH_A_CyUAB.c ****             uabSram[i] = (uabSram[i]&(~mask)) | (((((modbitCopy>>i)&MODBIT_MASK)|((((uint32)pattern
 141              		.loc 1 144 0 discriminator 3
ARM GAS  C:\Users\fneves\AppData\Local\Temp\ccLktVPo.s 			page 6


 142 00b0 7B6B     		ldr	r3, [r7, #52]
 143 00b2 9B00     		lsl	r3, r3, #2
 144 00b4 FA68     		ldr	r2, [r7, #12]
 145 00b6 D318     		add	r3, r2, r3
 146 00b8 7A6B     		ldr	r2, [r7, #52]
 147 00ba 9200     		lsl	r2, r2, #2
 148 00bc F968     		ldr	r1, [r7, #12]
 149 00be 8A18     		add	r2, r1, r2
 150 00c0 1268     		ldr	r2, [r2]
 151 00c2 F96A     		ldr	r1, [r7, #44]
 152 00c4 C943     		mvn	r1, r1
 153 00c6 1140     		and	r1, r2
 154 00c8 7A6B     		ldr	r2, [r7, #52]
 155 00ca B86A     		ldr	r0, [r7, #40]
 156 00cc D040     		lsr	r0, r0, r2
 157 00ce 021C     		mov	r2, r0
 158 00d0 B869     		ldr	r0, [r7, #24]
 159 00d2 1040     		and	r0, r2
 160 00d4 0822     		mov	r2, #8
 161 00d6 BA18     		add	r2, r7, r2
 162 00d8 1488     		ldrh	r4, [r2]
 163 00da 7A6B     		ldr	r2, [r7, #52]
 164 00dc D440     		lsr	r4, r4, r2
 165 00de 221C     		mov	r2, r4
 166 00e0 FC69     		ldr	r4, [r7, #28]
 167 00e2 2240     		and	r2, r4
 168 00e4 1043     		orr	r0, r2
 169 00e6 3A6B     		ldr	r2, [r7, #48]
 170 00e8 9040     		lsl	r0, r0, r2
 171 00ea 021C     		mov	r2, r0
 172 00ec F86A     		ldr	r0, [r7, #44]
 173 00ee 0240     		and	r2, r0
 174 00f0 0A43     		orr	r2, r1
 175 00f2 1A60     		str	r2, [r3]
 142:Generated_Source\PSoC4/engine_sensor_adc_UABH_A_CyUAB.c ****         {
 176              		.loc 1 142 0 discriminator 3
 177 00f4 7B6B     		ldr	r3, [r7, #52]
 178 00f6 0133     		add	r3, r3, #1
 179 00f8 7B63     		str	r3, [r7, #52]
 180              	.L5:
 142:Generated_Source\PSoC4/engine_sensor_adc_UABH_A_CyUAB.c ****         {
 181              		.loc 1 142 0 is_stmt 0 discriminator 1
 182 00fa 7B6B     		ldr	r3, [r7, #52]
 183 00fc 0F2B     		cmp	r3, #15
 184 00fe D7D9     		bls	.L6
 185              	.L1:
 145:Generated_Source\PSoC4/engine_sensor_adc_UABH_A_CyUAB.c ****         }
 146:Generated_Source\PSoC4/engine_sensor_adc_UABH_A_CyUAB.c ****     }
 147:Generated_Source\PSoC4/engine_sensor_adc_UABH_A_CyUAB.c **** }
 186              		.loc 1 147 0 is_stmt 1
 187 0100 BD46     		mov	sp, r7
 188 0102 0FB0     		add	sp, sp, #60
 189              		@ sp needed
 190 0104 90BD     		pop	{r4, r7, pc}
 191              		.cfi_endproc
 192              	.LFE1:
 193              		.size	CyUAB_SetClock, .-CyUAB_SetClock
ARM GAS  C:\Users\fneves\AppData\Local\Temp\ccLktVPo.s 			page 7


 194 0106 C046     		.section	.text.CyUAB_SetNSteps,"ax",%progbits
 195              		.align	2
 196              		.global	CyUAB_SetNSteps
 197              		.code	16
 198              		.thumb_func
 199              		.type	CyUAB_SetNSteps, %function
 200              	CyUAB_SetNSteps:
 201              	.LFB2:
 148:Generated_Source\PSoC4/engine_sensor_adc_UABH_A_CyUAB.c **** 
 149:Generated_Source\PSoC4/engine_sensor_adc_UABH_A_CyUAB.c **** 
 150:Generated_Source\PSoC4/engine_sensor_adc_UABH_A_CyUAB.c **** /******************* CyUAB_SetNSteps() ****************************************/
 151:Generated_Source\PSoC4/engine_sensor_adc_UABH_A_CyUAB.c **** /*!
 152:Generated_Source\PSoC4/engine_sensor_adc_UABH_A_CyUAB.c **** * @brief Write all clocks as a series of steps 
 153:Generated_Source\PSoC4/engine_sensor_adc_UABH_A_CyUAB.c **** * 
 154:Generated_Source\PSoC4/engine_sensor_adc_UABH_A_CyUAB.c **** * @details Writes stepArray of size @c n steps to memory.
 155:Generated_Source\PSoC4/engine_sensor_adc_UABH_A_CyUAB.c **** *
 156:Generated_Source\PSoC4/engine_sensor_adc_UABH_A_CyUAB.c **** * @param uabSram starting address of UAB half waveform SRAM; ie engine_sensor_adc_UABH_A_SRAM1_PTR
 157:Generated_Source\PSoC4/engine_sensor_adc_UABH_A_CyUAB.c **** * @param n number of steps to write (starting at step0)
 158:Generated_Source\PSoC4/engine_sensor_adc_UABH_A_CyUAB.c **** * @param stepArray of size @c n - each elements represents a single step
 159:Generated_Source\PSoC4/engine_sensor_adc_UABH_A_CyUAB.c **** * specification for all clocks
 160:Generated_Source\PSoC4/engine_sensor_adc_UABH_A_CyUAB.c **** *
 161:Generated_Source\PSoC4/engine_sensor_adc_UABH_A_CyUAB.c **** * @internal
 162:Generated_Source\PSoC4/engine_sensor_adc_UABH_A_CyUAB.c **** * @reglist @reg 
 163:Generated_Source\PSoC4/engine_sensor_adc_UABH_A_CyUAB.c **** * @image html _.png 
 164:Generated_Source\PSoC4/engine_sensor_adc_UABH_A_CyUAB.c **** * UAB SRAM locations are 32-bits in size with only the first 16 bytes populated
 165:Generated_Source\PSoC4/engine_sensor_adc_UABH_A_CyUAB.c **** * Only lower 16 bits of stepArray elements used
 166:Generated_Source\PSoC4/engine_sensor_adc_UABH_A_CyUAB.c **** * @endinternal
 167:Generated_Source\PSoC4/engine_sensor_adc_UABH_A_CyUAB.c **** * 
 168:Generated_Source\PSoC4/engine_sensor_adc_UABH_A_CyUAB.c **** * @sideeffect None
 169:Generated_Source\PSoC4/engine_sensor_adc_UABH_A_CyUAB.c **** *******************************************************************************/
 170:Generated_Source\PSoC4/engine_sensor_adc_UABH_A_CyUAB.c **** void CyUAB_SetNSteps( reg32 uabSram[], size_t n, const uint16 stepArray[] )
 171:Generated_Source\PSoC4/engine_sensor_adc_UABH_A_CyUAB.c **** {
 202              		.loc 1 171 0
 203              		.cfi_startproc
 204 0000 80B5     		push	{r7, lr}
 205              		.cfi_def_cfa_offset 8
 206              		.cfi_offset 7, -8
 207              		.cfi_offset 14, -4
 208 0002 86B0     		sub	sp, sp, #24
 209              		.cfi_def_cfa_offset 32
 210 0004 00AF     		add	r7, sp, #0
 211              		.cfi_def_cfa_register 7
 212 0006 F860     		str	r0, [r7, #12]
 213 0008 B960     		str	r1, [r7, #8]
 214 000a 7A60     		str	r2, [r7, #4]
 172:Generated_Source\PSoC4/engine_sensor_adc_UABH_A_CyUAB.c ****     uint32 i;
 173:Generated_Source\PSoC4/engine_sensor_adc_UABH_A_CyUAB.c ****     if( n<=CyUAB_STEPS_LEN_MAX )
 215              		.loc 1 173 0
 216 000c BB68     		ldr	r3, [r7, #8]
 217 000e 102B     		cmp	r3, #16
 218 0010 13D8     		bhi	.L7
 174:Generated_Source\PSoC4/engine_sensor_adc_UABH_A_CyUAB.c ****     {
 175:Generated_Source\PSoC4/engine_sensor_adc_UABH_A_CyUAB.c ****         for( i=0UL; i<n; i++ )
 219              		.loc 1 175 0
 220 0012 0023     		mov	r3, #0
 221 0014 7B61     		str	r3, [r7, #20]
 222 0016 0CE0     		b	.L9
ARM GAS  C:\Users\fneves\AppData\Local\Temp\ccLktVPo.s 			page 8


 223              	.L10:
 176:Generated_Source\PSoC4/engine_sensor_adc_UABH_A_CyUAB.c ****         {
 177:Generated_Source\PSoC4/engine_sensor_adc_UABH_A_CyUAB.c ****             uabSram[i] = stepArray[i];
 224              		.loc 1 177 0 discriminator 3
 225 0018 7B69     		ldr	r3, [r7, #20]
 226 001a 9B00     		lsl	r3, r3, #2
 227 001c FA68     		ldr	r2, [r7, #12]
 228 001e D318     		add	r3, r2, r3
 229 0020 7A69     		ldr	r2, [r7, #20]
 230 0022 5200     		lsl	r2, r2, #1
 231 0024 7968     		ldr	r1, [r7, #4]
 232 0026 8A18     		add	r2, r1, r2
 233 0028 1288     		ldrh	r2, [r2]
 234 002a 1A60     		str	r2, [r3]
 175:Generated_Source\PSoC4/engine_sensor_adc_UABH_A_CyUAB.c ****         {
 235              		.loc 1 175 0 discriminator 3
 236 002c 7B69     		ldr	r3, [r7, #20]
 237 002e 0133     		add	r3, r3, #1
 238 0030 7B61     		str	r3, [r7, #20]
 239              	.L9:
 175:Generated_Source\PSoC4/engine_sensor_adc_UABH_A_CyUAB.c ****         {
 240              		.loc 1 175 0 is_stmt 0 discriminator 1
 241 0032 7A69     		ldr	r2, [r7, #20]
 242 0034 BB68     		ldr	r3, [r7, #8]
 243 0036 9A42     		cmp	r2, r3
 244 0038 EED3     		bcc	.L10
 245              	.L7:
 178:Generated_Source\PSoC4/engine_sensor_adc_UABH_A_CyUAB.c ****         }
 179:Generated_Source\PSoC4/engine_sensor_adc_UABH_A_CyUAB.c ****     }
 180:Generated_Source\PSoC4/engine_sensor_adc_UABH_A_CyUAB.c **** }
 246              		.loc 1 180 0 is_stmt 1
 247 003a BD46     		mov	sp, r7
 248 003c 06B0     		add	sp, sp, #24
 249              		@ sp needed
 250 003e 80BD     		pop	{r7, pc}
 251              		.cfi_endproc
 252              	.LFE2:
 253              		.size	CyUAB_SetNSteps, .-CyUAB_SetNSteps
 254              		.section	.text.CyUAB_SetSingleStep,"ax",%progbits
 255              		.align	2
 256              		.global	CyUAB_SetSingleStep
 257              		.code	16
 258              		.thumb_func
 259              		.type	CyUAB_SetSingleStep, %function
 260              	CyUAB_SetSingleStep:
 261              	.LFB3:
 181:Generated_Source\PSoC4/engine_sensor_adc_UABH_A_CyUAB.c **** 
 182:Generated_Source\PSoC4/engine_sensor_adc_UABH_A_CyUAB.c **** /***************** CyUAB_SetSingleStep() **************************************/
 183:Generated_Source\PSoC4/engine_sensor_adc_UABH_A_CyUAB.c **** /*!
 184:Generated_Source\PSoC4/engine_sensor_adc_UABH_A_CyUAB.c **** * @brief Write all clocks for a single step 
 185:Generated_Source\PSoC4/engine_sensor_adc_UABH_A_CyUAB.c **** * 
 186:Generated_Source\PSoC4/engine_sensor_adc_UABH_A_CyUAB.c **** * @details Allows patching specific steps (can use for dynamic reconfig)
 187:Generated_Source\PSoC4/engine_sensor_adc_UABH_A_CyUAB.c **** *
 188:Generated_Source\PSoC4/engine_sensor_adc_UABH_A_CyUAB.c **** * @param uabSram starting address of UAB half waveform SRAM; ie engine_sensor_adc_UABH_A_SRAM1_PTR
 189:Generated_Source\PSoC4/engine_sensor_adc_UABH_A_CyUAB.c **** * @param idx index of the targeted step
 190:Generated_Source\PSoC4/engine_sensor_adc_UABH_A_CyUAB.c **** * @param stepValue all clocks specified for a single step
 191:Generated_Source\PSoC4/engine_sensor_adc_UABH_A_CyUAB.c **** *
ARM GAS  C:\Users\fneves\AppData\Local\Temp\ccLktVPo.s 			page 9


 192:Generated_Source\PSoC4/engine_sensor_adc_UABH_A_CyUAB.c **** * @internal
 193:Generated_Source\PSoC4/engine_sensor_adc_UABH_A_CyUAB.c **** * @reglist @reg 
 194:Generated_Source\PSoC4/engine_sensor_adc_UABH_A_CyUAB.c **** * @image html _.png 
 195:Generated_Source\PSoC4/engine_sensor_adc_UABH_A_CyUAB.c **** * UAB SRAM locations are 32-bits in size with only the first 16 bytes populated
 196:Generated_Source\PSoC4/engine_sensor_adc_UABH_A_CyUAB.c **** * Only lower 16 bits of stepArray elements used
 197:Generated_Source\PSoC4/engine_sensor_adc_UABH_A_CyUAB.c **** * @endinternal
 198:Generated_Source\PSoC4/engine_sensor_adc_UABH_A_CyUAB.c **** * 
 199:Generated_Source\PSoC4/engine_sensor_adc_UABH_A_CyUAB.c **** * @sideeffect None
 200:Generated_Source\PSoC4/engine_sensor_adc_UABH_A_CyUAB.c **** *******************************************************************************/
 201:Generated_Source\PSoC4/engine_sensor_adc_UABH_A_CyUAB.c **** void CyUAB_SetSingleStep(reg32 uabSram[], size_t idx, const uint16 stepValue )
 202:Generated_Source\PSoC4/engine_sensor_adc_UABH_A_CyUAB.c **** {
 262              		.loc 1 202 0
 263              		.cfi_startproc
 264 0000 80B5     		push	{r7, lr}
 265              		.cfi_def_cfa_offset 8
 266              		.cfi_offset 7, -8
 267              		.cfi_offset 14, -4
 268 0002 84B0     		sub	sp, sp, #16
 269              		.cfi_def_cfa_offset 24
 270 0004 00AF     		add	r7, sp, #0
 271              		.cfi_def_cfa_register 7
 272 0006 F860     		str	r0, [r7, #12]
 273 0008 B960     		str	r1, [r7, #8]
 274 000a BB1D     		add	r3, r7, #6
 275 000c 1A80     		strh	r2, [r3]
 203:Generated_Source\PSoC4/engine_sensor_adc_UABH_A_CyUAB.c ****     if( idx<=CyUAB_STEPS_IDX_MAX )
 276              		.loc 1 203 0
 277 000e BB68     		ldr	r3, [r7, #8]
 278 0010 0F2B     		cmp	r3, #15
 279 0012 06D8     		bhi	.L11
 204:Generated_Source\PSoC4/engine_sensor_adc_UABH_A_CyUAB.c ****     {
 205:Generated_Source\PSoC4/engine_sensor_adc_UABH_A_CyUAB.c ****         uabSram[idx] = ((uint32)stepValue);
 280              		.loc 1 205 0
 281 0014 BB68     		ldr	r3, [r7, #8]
 282 0016 9B00     		lsl	r3, r3, #2
 283 0018 FA68     		ldr	r2, [r7, #12]
 284 001a D318     		add	r3, r2, r3
 285 001c BA1D     		add	r2, r7, #6
 286 001e 1288     		ldrh	r2, [r2]
 287 0020 1A60     		str	r2, [r3]
 288              	.L11:
 206:Generated_Source\PSoC4/engine_sensor_adc_UABH_A_CyUAB.c ****     } 
 207:Generated_Source\PSoC4/engine_sensor_adc_UABH_A_CyUAB.c **** }
 289              		.loc 1 207 0
 290 0022 BD46     		mov	sp, r7
 291 0024 04B0     		add	sp, sp, #16
 292              		@ sp needed
 293 0026 80BD     		pop	{r7, pc}
 294              		.cfi_endproc
 295              	.LFE3:
 296              		.size	CyUAB_SetSingleStep, .-CyUAB_SetSingleStep
 297              		.section	.text.CyUAB_wordset,"ax",%progbits
 298              		.align	2
 299              		.global	CyUAB_wordset
 300              		.code	16
 301              		.thumb_func
 302              		.type	CyUAB_wordset, %function
ARM GAS  C:\Users\fneves\AppData\Local\Temp\ccLktVPo.s 			page 10


 303              	CyUAB_wordset:
 304              	.LFB4:
 208:Generated_Source\PSoC4/engine_sensor_adc_UABH_A_CyUAB.c **** 
 209:Generated_Source\PSoC4/engine_sensor_adc_UABH_A_CyUAB.c **** /*! 
 210:Generated_Source\PSoC4/engine_sensor_adc_UABH_A_CyUAB.c **** * @brief wordset is like a 32-bit aligned memset()
 211:Generated_Source\PSoC4/engine_sensor_adc_UABH_A_CyUAB.c **** *
 212:Generated_Source\PSoC4/engine_sensor_adc_UABH_A_CyUAB.c **** * @param s pointer to memory block of 32-bit words
 213:Generated_Source\PSoC4/engine_sensor_adc_UABH_A_CyUAB.c **** * @param c value to overwrite words
 214:Generated_Source\PSoC4/engine_sensor_adc_UABH_A_CyUAB.c **** * @param size length of memory block in bytes 
 215:Generated_Source\PSoC4/engine_sensor_adc_UABH_A_CyUAB.c **** */
 216:Generated_Source\PSoC4/engine_sensor_adc_UABH_A_CyUAB.c **** reg32* CyUAB_wordset( reg32 s[], uint32 c, size_t size )
 217:Generated_Source\PSoC4/engine_sensor_adc_UABH_A_CyUAB.c **** {
 305              		.loc 1 217 0
 306              		.cfi_startproc
 307 0000 80B5     		push	{r7, lr}
 308              		.cfi_def_cfa_offset 8
 309              		.cfi_offset 7, -8
 310              		.cfi_offset 14, -4
 311 0002 86B0     		sub	sp, sp, #24
 312              		.cfi_def_cfa_offset 32
 313 0004 00AF     		add	r7, sp, #0
 314              		.cfi_def_cfa_register 7
 315 0006 F860     		str	r0, [r7, #12]
 316 0008 B960     		str	r1, [r7, #8]
 317 000a 7A60     		str	r2, [r7, #4]
 218:Generated_Source\PSoC4/engine_sensor_adc_UABH_A_CyUAB.c ****     size_t n = size/sizeof(c);
 318              		.loc 1 218 0
 319 000c 7B68     		ldr	r3, [r7, #4]
 320 000e 9B08     		lsr	r3, r3, #2
 321 0010 7B61     		str	r3, [r7, #20]
 219:Generated_Source\PSoC4/engine_sensor_adc_UABH_A_CyUAB.c ****     while( 0UL != n )
 322              		.loc 1 219 0
 323 0012 08E0     		b	.L14
 324              	.L15:
 220:Generated_Source\PSoC4/engine_sensor_adc_UABH_A_CyUAB.c ****     {
 221:Generated_Source\PSoC4/engine_sensor_adc_UABH_A_CyUAB.c ****         --n;
 325              		.loc 1 221 0
 326 0014 7B69     		ldr	r3, [r7, #20]
 327 0016 013B     		sub	r3, r3, #1
 328 0018 7B61     		str	r3, [r7, #20]
 222:Generated_Source\PSoC4/engine_sensor_adc_UABH_A_CyUAB.c ****         s[n] = c;
 329              		.loc 1 222 0
 330 001a 7B69     		ldr	r3, [r7, #20]
 331 001c 9B00     		lsl	r3, r3, #2
 332 001e FA68     		ldr	r2, [r7, #12]
 333 0020 D318     		add	r3, r2, r3
 334 0022 BA68     		ldr	r2, [r7, #8]
 335 0024 1A60     		str	r2, [r3]
 336              	.L14:
 219:Generated_Source\PSoC4/engine_sensor_adc_UABH_A_CyUAB.c ****     while( 0UL != n )
 337              		.loc 1 219 0
 338 0026 7B69     		ldr	r3, [r7, #20]
 339 0028 002B     		cmp	r3, #0
 340 002a F3D1     		bne	.L15
 223:Generated_Source\PSoC4/engine_sensor_adc_UABH_A_CyUAB.c ****     }
 224:Generated_Source\PSoC4/engine_sensor_adc_UABH_A_CyUAB.c ****     return s;
 341              		.loc 1 224 0
ARM GAS  C:\Users\fneves\AppData\Local\Temp\ccLktVPo.s 			page 11


 342 002c FB68     		ldr	r3, [r7, #12]
 225:Generated_Source\PSoC4/engine_sensor_adc_UABH_A_CyUAB.c **** }
 343              		.loc 1 225 0
 344 002e 181C     		mov	r0, r3
 345 0030 BD46     		mov	sp, r7
 346 0032 06B0     		add	sp, sp, #24
 347              		@ sp needed
 348 0034 80BD     		pop	{r7, pc}
 349              		.cfi_endproc
 350              	.LFE4:
 351              		.size	CyUAB_wordset, .-CyUAB_wordset
 352 0036 C046     		.text
 353              	.Letext0:
 354              		.file 2 "Generated_Source\\PSoC4\\cytypes.h"
 355              		.file 3 "c:\\program files (x86)\\cypress\\psoc creator\\4.0\\psoc creator\\import\\gnu\\arm\\4.9.
 356              		.file 4 "Generated_Source\\PSoC4\\engine_sensor_adc_UABH_A_CyUAB_types.h"