ARM GAS  C:\Users\fneves\AppData\Local\Temp\ccFk0uFz.s 			page 1


   1              		.cpu cortex-m0plus
   2              		.fpu softvfp
   3              		.eabi_attribute 20, 1
   4              		.eabi_attribute 21, 1
   5              		.eabi_attribute 23, 3
   6              		.eabi_attribute 24, 1
   7              		.eabi_attribute 25, 1
   8              		.eabi_attribute 26, 1
   9              		.eabi_attribute 30, 6
  10              		.eabi_attribute 34, 0
  11              		.eabi_attribute 18, 4
  12              		.code	16
  13              		.file	"engine_sensor_pga.c"
  14              		.text
  15              	.Ltext0:
  16              		.cfi_sections	.debug_frame
  17              		.global	engine_sensor_pga_initVar
  18              		.bss
  19              		.type	engine_sensor_pga_initVar, %object
  20              		.size	engine_sensor_pga_initVar, 1
  21              	engine_sensor_pga_initVar:
  22 0000 00       		.space	1
  23              		.global	engine_sensor_pga_internalGainPower
  24 0001 000000   		.align	2
  25              		.type	engine_sensor_pga_internalGainPower, %object
  26              		.size	engine_sensor_pga_internalGainPower, 4
  27              	engine_sensor_pga_internalGainPower:
  28 0004 00000000 		.space	4
  29              		.global	engine_sensor_pga_compTab
  30              		.section	.rodata
  31              		.align	2
  32              		.type	engine_sensor_pga_compTab, %object
  33              		.size	engine_sensor_pga_compTab, 72
  34              	engine_sensor_pga_compTab:
  35 0000 0200000F 		.word	251658242
  36 0004 0200000F 		.word	251658242
  37 0008 0200000F 		.word	251658242
  38 000c 02000007 		.word	117440514
  39 0010 02000009 		.word	150994946
  40 0014 02000009 		.word	150994946
  41 0018 02000004 		.word	67108866
  42 001c 02000004 		.word	67108866
  43 0020 02000004 		.word	67108866
  44 0024 01000003 		.word	50331649
  45 0028 02000002 		.word	33554434
  46 002c 02000003 		.word	50331650
  47 0030 01000001 		.word	16777217
  48 0034 02000000 		.word	2
  49 0038 02000000 		.word	2
  50 003c 01000001 		.word	16777217
  51 0040 01000001 		.word	16777217
  52 0044 01000002 		.word	33554433
  53              		.section	.text.engine_sensor_pga_Init,"ax",%progbits
  54              		.align	2
  55              		.global	engine_sensor_pga_Init
  56              		.code	16
  57              		.thumb_func
ARM GAS  C:\Users\fneves\AppData\Local\Temp\ccFk0uFz.s 			page 2


  58              		.type	engine_sensor_pga_Init, %function
  59              	engine_sensor_pga_Init:
  60              	.LFB0:
  61              		.file 1 "Generated_Source\\PSoC4\\engine_sensor_pga.c"
   1:Generated_Source\PSoC4/engine_sensor_pga.c **** /***************************************************************************//**
   2:Generated_Source\PSoC4/engine_sensor_pga.c **** * \file     engine_sensor_pga.c
   3:Generated_Source\PSoC4/engine_sensor_pga.c **** * \version  1.0
   4:Generated_Source\PSoC4/engine_sensor_pga.c **** *
   5:Generated_Source\PSoC4/engine_sensor_pga.c **** * \brief
   6:Generated_Source\PSoC4/engine_sensor_pga.c **** *  This file provides the source code to the API for the PGA_P4 Component
   7:Generated_Source\PSoC4/engine_sensor_pga.c **** *
   8:Generated_Source\PSoC4/engine_sensor_pga.c **** ********************************************************************************
   9:Generated_Source\PSoC4/engine_sensor_pga.c **** * \copyright
  10:Generated_Source\PSoC4/engine_sensor_pga.c **** * Copyright 2016, Cypress Semiconductor Corporation.  All rights reserved.
  11:Generated_Source\PSoC4/engine_sensor_pga.c **** * You may use this file only in accordance with the license, terms, conditions,
  12:Generated_Source\PSoC4/engine_sensor_pga.c **** * disclaimers, and limitations in the end user license agreement accompanying
  13:Generated_Source\PSoC4/engine_sensor_pga.c **** * the software package with which this file was provided.
  14:Generated_Source\PSoC4/engine_sensor_pga.c **** *******************************************************************************/
  15:Generated_Source\PSoC4/engine_sensor_pga.c **** 
  16:Generated_Source\PSoC4/engine_sensor_pga.c **** #include "engine_sensor_pga_PVT.h"
  17:Generated_Source\PSoC4/engine_sensor_pga.c **** 
  18:Generated_Source\PSoC4/engine_sensor_pga.c **** 
  19:Generated_Source\PSoC4/engine_sensor_pga.c **** uint8 engine_sensor_pga_initVar = 0u; /**< Describes the init state of the component */
  20:Generated_Source\PSoC4/engine_sensor_pga.c **** 
  21:Generated_Source\PSoC4/engine_sensor_pga.c **** uint32 engine_sensor_pga_internalGainPower = 0u; /**< Stores component Gain, Power and Enable value
  22:Generated_Source\PSoC4/engine_sensor_pga.c **** 
  23:Generated_Source\PSoC4/engine_sensor_pga.c **** /***************************************************************************//**
  24:Generated_Source\PSoC4/engine_sensor_pga.c **** * Compensation table 
  25:Generated_Source\PSoC4/engine_sensor_pga.c **** *
  26:Generated_Source\PSoC4/engine_sensor_pga.c **** * There is a feedback compensation capacitor recomended setting (for certain 
  27:Generated_Source\PSoC4/engine_sensor_pga.c **** * gain and power setting) under the mask 0x0F000000u
  28:Generated_Source\PSoC4/engine_sensor_pga.c **** * or (engine_sensor_pga_C_FB_MASK)
  29:Generated_Source\PSoC4/engine_sensor_pga.c **** *
  30:Generated_Source\PSoC4/engine_sensor_pga.c **** * Also there is an OpAmp compensation recomended setting (for certain 
  31:Generated_Source\PSoC4/engine_sensor_pga.c **** * gain and power setting) under the mask 0x00000003u
  32:Generated_Source\PSoC4/engine_sensor_pga.c **** * or (engine_sensor_pga_GET_OA_COMP_TRIM)
  33:Generated_Source\PSoC4/engine_sensor_pga.c **** *
  34:Generated_Source\PSoC4/engine_sensor_pga.c **** * There is only 6 values for whole gain range because the recommended 
  35:Generated_Source\PSoC4/engine_sensor_pga.c **** * values are for each pair of adjacent gain values, e.g.:
  36:Generated_Source\PSoC4/engine_sensor_pga.c **** * the first (index = 0) value is for gain = 1 and 1.4,
  37:Generated_Source\PSoC4/engine_sensor_pga.c **** * the second (index = 1) value is for gain = 2 and 2.8,and so on,
  38:Generated_Source\PSoC4/engine_sensor_pga.c **** * and the sixth (index = 5) value is for gain = 32 only.
  39:Generated_Source\PSoC4/engine_sensor_pga.c **** *******************************************************************************/
  40:Generated_Source\PSoC4/engine_sensor_pga.c **** const uint32 engine_sensor_pga_compTab[engine_sensor_pga_COMP_TAB_HEIGHT][engine_sensor_pga_COMP_TA
  41:Generated_Source\PSoC4/engine_sensor_pga.c **** {
  42:Generated_Source\PSoC4/engine_sensor_pga.c **** #if (engine_sensor_pga_CHECK_OUTPUT_MODE) /* Class AB */
  43:Generated_Source\PSoC4/engine_sensor_pga.c ****     {0x0F000002u, 0x0F000002u, 0x0F000002u},
  44:Generated_Source\PSoC4/engine_sensor_pga.c ****     {0x07000002u, 0x09000002u, 0x09000002u},
  45:Generated_Source\PSoC4/engine_sensor_pga.c ****     {0x04000002u, 0x04000002u, 0x04000002u},
  46:Generated_Source\PSoC4/engine_sensor_pga.c ****     {0x03000001u, 0x02000002u, 0x03000002u},
  47:Generated_Source\PSoC4/engine_sensor_pga.c ****     {0x01000001u, 0x00000002u, 0x00000002u},
  48:Generated_Source\PSoC4/engine_sensor_pga.c ****     {0x01000001u, 0x01000001u, 0x02000001u}
  49:Generated_Source\PSoC4/engine_sensor_pga.c **** #else /* Class A */
  50:Generated_Source\PSoC4/engine_sensor_pga.c ****     {0x0F000002u, 0x0F000002u, 0x0F000002u},
  51:Generated_Source\PSoC4/engine_sensor_pga.c ****     {0x08000002u, 0x09000002u, 0x09000002u},
  52:Generated_Source\PSoC4/engine_sensor_pga.c ****     {0x03000001u, 0x05000002u, 0x04000002u},
  53:Generated_Source\PSoC4/engine_sensor_pga.c ****     {0x00000001u, 0x02000002u, 0x03000002u},
ARM GAS  C:\Users\fneves\AppData\Local\Temp\ccFk0uFz.s 			page 3


  54:Generated_Source\PSoC4/engine_sensor_pga.c ****     {0x00000001u, 0x00000002u, 0x01000002u},
  55:Generated_Source\PSoC4/engine_sensor_pga.c ****     {0x00000001u, 0x00000001u, 0x00000001u}
  56:Generated_Source\PSoC4/engine_sensor_pga.c **** #endif /* engine_sensor_pga_OUTPUT_MODE */
  57:Generated_Source\PSoC4/engine_sensor_pga.c **** };
  58:Generated_Source\PSoC4/engine_sensor_pga.c **** 
  59:Generated_Source\PSoC4/engine_sensor_pga.c **** 
  60:Generated_Source\PSoC4/engine_sensor_pga.c **** /*******************************************************************************   
  61:Generated_Source\PSoC4/engine_sensor_pga.c **** * Function Name: engine_sensor_pga_Init
  62:Generated_Source\PSoC4/engine_sensor_pga.c **** ****************************************************************************//**
  63:Generated_Source\PSoC4/engine_sensor_pga.c **** *
  64:Generated_Source\PSoC4/engine_sensor_pga.c **** *  Initializes component's parameters to the values set by user in the 
  65:Generated_Source\PSoC4/engine_sensor_pga.c **** *  customizer of the component placed onto schematic. Usually it is called in 
  66:Generated_Source\PSoC4/engine_sensor_pga.c **** *  engine_sensor_pga_Start().
  67:Generated_Source\PSoC4/engine_sensor_pga.c **** *
  68:Generated_Source\PSoC4/engine_sensor_pga.c **** *******************************************************************************/
  69:Generated_Source\PSoC4/engine_sensor_pga.c **** void engine_sensor_pga_Init(void)
  70:Generated_Source\PSoC4/engine_sensor_pga.c **** {
  62              		.loc 1 70 0
  63              		.cfi_startproc
  64 0000 80B5     		push	{r7, lr}
  65              		.cfi_def_cfa_offset 8
  66              		.cfi_offset 7, -8
  67              		.cfi_offset 14, -4
  68 0002 00AF     		add	r7, sp, #0
  69              		.cfi_def_cfa_register 7
  71:Generated_Source\PSoC4/engine_sensor_pga.c ****     /* Set default internal variable value */
  72:Generated_Source\PSoC4/engine_sensor_pga.c ****     engine_sensor_pga_internalGainPower = engine_sensor_pga_DEFAULT_GAIN_POWER;
  70              		.loc 1 72 0
  71 0004 104B     		ldr	r3, .L3
  72 0006 114A     		ldr	r2, .L3+4
  73 0008 1A60     		str	r2, [r3]
  73:Generated_Source\PSoC4/engine_sensor_pga.c ****     
  74:Generated_Source\PSoC4/engine_sensor_pga.c ****     /* Set default register values */
  75:Generated_Source\PSoC4/engine_sensor_pga.c ****     engine_sensor_pga_CTB_CTRL_REG |= engine_sensor_pga_DEFAULT_CTB_CTRL;
  74              		.loc 1 75 0
  75 000a 114B     		ldr	r3, .L3+8
  76 000c 104A     		ldr	r2, .L3+8
  77 000e 1268     		ldr	r2, [r2]
  78 0010 8021     		mov	r1, #128
  79 0012 0906     		lsl	r1, r1, #24
  80 0014 0A43     		orr	r2, r1
  81 0016 1A60     		str	r2, [r3]
  76:Generated_Source\PSoC4/engine_sensor_pga.c ****     engine_sensor_pga_OA_RES_CTRL_REG &= (uint32) ~engine_sensor_pga_DEFAULT_OA_RES_CTRL_MASK;
  82              		.loc 1 76 0
  83 0018 0E4B     		ldr	r3, .L3+12
  84 001a 0E4A     		ldr	r2, .L3+12
  85 001c 1268     		ldr	r2, [r2]
  86 001e 0E49     		ldr	r1, .L3+16
  87 0020 0A40     		and	r2, r1
  88 0022 1A60     		str	r2, [r3]
  77:Generated_Source\PSoC4/engine_sensor_pga.c ****     engine_sensor_pga_OA_RES_CTRL_REG |= engine_sensor_pga_DEFAULT_OA_RES_CTRL;
  89              		.loc 1 77 0
  90 0024 0B4B     		ldr	r3, .L3+12
  91 0026 0B4A     		ldr	r2, .L3+12
  92 0028 1268     		ldr	r2, [r2]
  93 002a 0C49     		ldr	r1, .L3+20
  94 002c 0A43     		orr	r2, r1
ARM GAS  C:\Users\fneves\AppData\Local\Temp\ccFk0uFz.s 			page 4


  95 002e 1A60     		str	r2, [r3]
  78:Generated_Source\PSoC4/engine_sensor_pga.c ****     
  79:Generated_Source\PSoC4/engine_sensor_pga.c ****     #if (engine_sensor_pga_VREF_MODE == engine_sensor_pga_VREF_INTERNAL)
  80:Generated_Source\PSoC4/engine_sensor_pga.c ****         /* Configure resistor matrix bottom to the internal Vss */
  81:Generated_Source\PSoC4/engine_sensor_pga.c ****         engine_sensor_pga_OA_SW_REG |= engine_sensor_pga_RBOT_TO_VSSA;
  82:Generated_Source\PSoC4/engine_sensor_pga.c ****     #endif /* Vref Internal */
  83:Generated_Source\PSoC4/engine_sensor_pga.c ****     
  84:Generated_Source\PSoC4/engine_sensor_pga.c ****     /* Check if component has been enabled */
  85:Generated_Source\PSoC4/engine_sensor_pga.c ****     if((engine_sensor_pga_OA_RES_CTRL_REG & engine_sensor_pga_OA_PWR_MODE_MASK) != 0u)
  96              		.loc 1 85 0
  97 0030 084B     		ldr	r3, .L3+12
  98 0032 1B68     		ldr	r3, [r3]
  99 0034 0322     		mov	r2, #3
 100 0036 1340     		and	r3, r2
 101 0038 01D0     		beq	.L2
  86:Generated_Source\PSoC4/engine_sensor_pga.c ****     {
  87:Generated_Source\PSoC4/engine_sensor_pga.c ****         /* Set the default power level */
  88:Generated_Source\PSoC4/engine_sensor_pga.c ****         engine_sensor_pga_Enable();
 102              		.loc 1 88 0
 103 003a FFF7FEFF 		bl	engine_sensor_pga_Enable
 104              	.L2:
  89:Generated_Source\PSoC4/engine_sensor_pga.c ****     }
  90:Generated_Source\PSoC4/engine_sensor_pga.c ****     
  91:Generated_Source\PSoC4/engine_sensor_pga.c ****     /* Set default gain and correspondent Cfb and OA_trim values */
  92:Generated_Source\PSoC4/engine_sensor_pga.c ****     engine_sensor_pga_SetGain(engine_sensor_pga_GAIN);
 105              		.loc 1 92 0
 106 003e 0820     		mov	r0, #8
 107 0040 FFF7FEFF 		bl	engine_sensor_pga_SetGain
  93:Generated_Source\PSoC4/engine_sensor_pga.c **** }
 108              		.loc 1 93 0
 109 0044 BD46     		mov	sp, r7
 110              		@ sp needed
 111 0046 80BD     		pop	{r7, pc}
 112              	.L4:
 113              		.align	2
 114              	.L3:
 115 0048 00000000 		.word	engine_sensor_pga_internalGainPower
 116 004c 03000800 		.word	524291
 117 0050 00003140 		.word	1076953088
 118 0054 04003140 		.word	1076953092
 119 0058 FBF7FFFF 		.word	-2053
 120 005c 04080000 		.word	2052
 121              		.cfi_endproc
 122              	.LFE0:
 123              		.size	engine_sensor_pga_Init, .-engine_sensor_pga_Init
 124              		.section	.text.engine_sensor_pga_Enable,"ax",%progbits
 125              		.align	2
 126              		.global	engine_sensor_pga_Enable
 127              		.code	16
 128              		.thumb_func
 129              		.type	engine_sensor_pga_Enable, %function
 130              	engine_sensor_pga_Enable:
 131              	.LFB1:
  94:Generated_Source\PSoC4/engine_sensor_pga.c **** 
  95:Generated_Source\PSoC4/engine_sensor_pga.c **** 
  96:Generated_Source\PSoC4/engine_sensor_pga.c **** /*******************************************************************************   
  97:Generated_Source\PSoC4/engine_sensor_pga.c **** * Function Name: engine_sensor_pga_Enable
ARM GAS  C:\Users\fneves\AppData\Local\Temp\ccFk0uFz.s 			page 5


  98:Generated_Source\PSoC4/engine_sensor_pga.c **** ****************************************************************************//**
  99:Generated_Source\PSoC4/engine_sensor_pga.c **** *
 100:Generated_Source\PSoC4/engine_sensor_pga.c **** *  Powers up amplifier (to default power level or restored after 
 101:Generated_Source\PSoC4/engine_sensor_pga.c **** *  previous engine_sensor_pga_Stop() call).
 102:Generated_Source\PSoC4/engine_sensor_pga.c **** *  Usually it is called in engine_sensor_pga_Start().
 103:Generated_Source\PSoC4/engine_sensor_pga.c **** *  
 104:Generated_Source\PSoC4/engine_sensor_pga.c **** *******************************************************************************/
 105:Generated_Source\PSoC4/engine_sensor_pga.c **** void engine_sensor_pga_Enable(void)
 106:Generated_Source\PSoC4/engine_sensor_pga.c **** {
 132              		.loc 1 106 0
 133              		.cfi_startproc
 134 0000 80B5     		push	{r7, lr}
 135              		.cfi_def_cfa_offset 8
 136              		.cfi_offset 7, -8
 137              		.cfi_offset 14, -4
 138 0002 00AF     		add	r7, sp, #0
 139              		.cfi_def_cfa_register 7
 107:Generated_Source\PSoC4/engine_sensor_pga.c ****     engine_sensor_pga_OA_RES_CTRL_REG |= engine_sensor_pga_GET_POWER;
 140              		.loc 1 107 0
 141 0004 054A     		ldr	r2, .L6
 142 0006 054B     		ldr	r3, .L6
 143 0008 1968     		ldr	r1, [r3]
 144 000a 054B     		ldr	r3, .L6+4
 145 000c 1B68     		ldr	r3, [r3]
 146 000e 0320     		mov	r0, #3
 147 0010 0340     		and	r3, r0
 148 0012 0B43     		orr	r3, r1
 149 0014 1360     		str	r3, [r2]
 108:Generated_Source\PSoC4/engine_sensor_pga.c **** }
 150              		.loc 1 108 0
 151 0016 BD46     		mov	sp, r7
 152              		@ sp needed
 153 0018 80BD     		pop	{r7, pc}
 154              	.L7:
 155 001a C046     		.align	2
 156              	.L6:
 157 001c 04003140 		.word	1076953092
 158 0020 00000000 		.word	engine_sensor_pga_internalGainPower
 159              		.cfi_endproc
 160              	.LFE1:
 161              		.size	engine_sensor_pga_Enable, .-engine_sensor_pga_Enable
 162              		.section	.text.engine_sensor_pga_Start,"ax",%progbits
 163              		.align	2
 164              		.global	engine_sensor_pga_Start
 165              		.code	16
 166              		.thumb_func
 167              		.type	engine_sensor_pga_Start, %function
 168              	engine_sensor_pga_Start:
 169              	.LFB2:
 109:Generated_Source\PSoC4/engine_sensor_pga.c **** 
 110:Generated_Source\PSoC4/engine_sensor_pga.c **** 
 111:Generated_Source\PSoC4/engine_sensor_pga.c **** /*******************************************************************************
 112:Generated_Source\PSoC4/engine_sensor_pga.c **** * Function Name: engine_sensor_pga_Start
 113:Generated_Source\PSoC4/engine_sensor_pga.c **** ****************************************************************************//**
 114:Generated_Source\PSoC4/engine_sensor_pga.c **** *
 115:Generated_Source\PSoC4/engine_sensor_pga.c **** *  Enables the amplifier operation (calls engine_sensor_pga_Enable).
 116:Generated_Source\PSoC4/engine_sensor_pga.c **** *  Also on the first call (after the system reset) initializes all the component
ARM GAS  C:\Users\fneves\AppData\Local\Temp\ccFk0uFz.s 			page 6


 117:Generated_Source\PSoC4/engine_sensor_pga.c **** *  related registers with default values (calls engine_sensor_pga_Init).
 118:Generated_Source\PSoC4/engine_sensor_pga.c **** *
 119:Generated_Source\PSoC4/engine_sensor_pga.c **** *  \globalvars
 120:Generated_Source\PSoC4/engine_sensor_pga.c **** *   The engine_sensor_pga_initVar variable is used to indicate initial
 121:Generated_Source\PSoC4/engine_sensor_pga.c **** *   configuration of this component. The variable is initialized to zero (0u)
 122:Generated_Source\PSoC4/engine_sensor_pga.c **** *   and set to one (1u) at the first time engine_sensor_pga_Start() is called.
 123:Generated_Source\PSoC4/engine_sensor_pga.c **** *   This allows to enable the component without re-initialization in all
 124:Generated_Source\PSoC4/engine_sensor_pga.c **** *   subsequent calls of the engine_sensor_pga_Start() routine.
 125:Generated_Source\PSoC4/engine_sensor_pga.c **** *
 126:Generated_Source\PSoC4/engine_sensor_pga.c **** *******************************************************************************/
 127:Generated_Source\PSoC4/engine_sensor_pga.c **** void engine_sensor_pga_Start(void)
 128:Generated_Source\PSoC4/engine_sensor_pga.c **** {
 170              		.loc 1 128 0
 171              		.cfi_startproc
 172 0000 80B5     		push	{r7, lr}
 173              		.cfi_def_cfa_offset 8
 174              		.cfi_offset 7, -8
 175              		.cfi_offset 14, -4
 176 0002 00AF     		add	r7, sp, #0
 177              		.cfi_def_cfa_register 7
 129:Generated_Source\PSoC4/engine_sensor_pga.c ****     if(engine_sensor_pga_initVar == 0u)
 178              		.loc 1 129 0
 179 0004 064B     		ldr	r3, .L10
 180 0006 1B78     		ldrb	r3, [r3]
 181 0008 002B     		cmp	r3, #0
 182 000a 04D1     		bne	.L9
 130:Generated_Source\PSoC4/engine_sensor_pga.c ****     {
 131:Generated_Source\PSoC4/engine_sensor_pga.c ****         engine_sensor_pga_Init();
 183              		.loc 1 131 0
 184 000c FFF7FEFF 		bl	engine_sensor_pga_Init
 132:Generated_Source\PSoC4/engine_sensor_pga.c ****         engine_sensor_pga_initVar = 1u;
 185              		.loc 1 132 0
 186 0010 034B     		ldr	r3, .L10
 187 0012 0122     		mov	r2, #1
 188 0014 1A70     		strb	r2, [r3]
 189              	.L9:
 133:Generated_Source\PSoC4/engine_sensor_pga.c ****     }
 134:Generated_Source\PSoC4/engine_sensor_pga.c **** 
 135:Generated_Source\PSoC4/engine_sensor_pga.c ****     engine_sensor_pga_Enable();
 190              		.loc 1 135 0
 191 0016 FFF7FEFF 		bl	engine_sensor_pga_Enable
 136:Generated_Source\PSoC4/engine_sensor_pga.c **** }
 192              		.loc 1 136 0
 193 001a BD46     		mov	sp, r7
 194              		@ sp needed
 195 001c 80BD     		pop	{r7, pc}
 196              	.L11:
 197 001e C046     		.align	2
 198              	.L10:
 199 0020 00000000 		.word	engine_sensor_pga_initVar
 200              		.cfi_endproc
 201              	.LFE2:
 202              		.size	engine_sensor_pga_Start, .-engine_sensor_pga_Start
 203              		.section	.text.engine_sensor_pga_Stop,"ax",%progbits
 204              		.align	2
 205              		.global	engine_sensor_pga_Stop
 206              		.code	16
ARM GAS  C:\Users\fneves\AppData\Local\Temp\ccFk0uFz.s 			page 7


 207              		.thumb_func
 208              		.type	engine_sensor_pga_Stop, %function
 209              	engine_sensor_pga_Stop:
 210              	.LFB3:
 137:Generated_Source\PSoC4/engine_sensor_pga.c **** 
 138:Generated_Source\PSoC4/engine_sensor_pga.c **** 
 139:Generated_Source\PSoC4/engine_sensor_pga.c **** /*******************************************************************************
 140:Generated_Source\PSoC4/engine_sensor_pga.c **** * Function Name: engine_sensor_pga_Stop
 141:Generated_Source\PSoC4/engine_sensor_pga.c **** ****************************************************************************//**
 142:Generated_Source\PSoC4/engine_sensor_pga.c **** *
 143:Generated_Source\PSoC4/engine_sensor_pga.c **** *  Powers down the amplifier.
 144:Generated_Source\PSoC4/engine_sensor_pga.c **** *
 145:Generated_Source\PSoC4/engine_sensor_pga.c **** *******************************************************************************/
 146:Generated_Source\PSoC4/engine_sensor_pga.c **** void engine_sensor_pga_Stop(void)
 147:Generated_Source\PSoC4/engine_sensor_pga.c **** { 
 211              		.loc 1 147 0
 212              		.cfi_startproc
 213 0000 80B5     		push	{r7, lr}
 214              		.cfi_def_cfa_offset 8
 215              		.cfi_offset 7, -8
 216              		.cfi_offset 14, -4
 217 0002 00AF     		add	r7, sp, #0
 218              		.cfi_def_cfa_register 7
 148:Generated_Source\PSoC4/engine_sensor_pga.c ****     engine_sensor_pga_OA_RES_CTRL_REG &= (uint32)~engine_sensor_pga_OA_PWR_MODE_MASK;
 219              		.loc 1 148 0
 220 0004 034B     		ldr	r3, .L13
 221 0006 034A     		ldr	r2, .L13
 222 0008 1268     		ldr	r2, [r2]
 223 000a 0321     		mov	r1, #3
 224 000c 8A43     		bic	r2, r1
 225 000e 1A60     		str	r2, [r3]
 149:Generated_Source\PSoC4/engine_sensor_pga.c **** }
 226              		.loc 1 149 0
 227 0010 BD46     		mov	sp, r7
 228              		@ sp needed
 229 0012 80BD     		pop	{r7, pc}
 230              	.L14:
 231              		.align	2
 232              	.L13:
 233 0014 04003140 		.word	1076953092
 234              		.cfi_endproc
 235              	.LFE3:
 236              		.size	engine_sensor_pga_Stop, .-engine_sensor_pga_Stop
 237              		.section	.text.engine_sensor_pga_SetPower,"ax",%progbits
 238              		.align	2
 239              		.global	engine_sensor_pga_SetPower
 240              		.code	16
 241              		.thumb_func
 242              		.type	engine_sensor_pga_SetPower, %function
 243              	engine_sensor_pga_SetPower:
 244              	.LFB4:
 150:Generated_Source\PSoC4/engine_sensor_pga.c **** 
 151:Generated_Source\PSoC4/engine_sensor_pga.c **** 
 152:Generated_Source\PSoC4/engine_sensor_pga.c **** /*******************************************************************************
 153:Generated_Source\PSoC4/engine_sensor_pga.c **** * Function Name: engine_sensor_pga_SetPower
 154:Generated_Source\PSoC4/engine_sensor_pga.c **** ****************************************************************************//**
 155:Generated_Source\PSoC4/engine_sensor_pga.c **** *
ARM GAS  C:\Users\fneves\AppData\Local\Temp\ccFk0uFz.s 			page 8


 156:Generated_Source\PSoC4/engine_sensor_pga.c **** *  Sets the power level of amplifier.
 157:Generated_Source\PSoC4/engine_sensor_pga.c **** *
 158:Generated_Source\PSoC4/engine_sensor_pga.c **** * \param powerLevel
 159:Generated_Source\PSoC4/engine_sensor_pga.c **** *  The power level setting of amplifier. Possible values:
 160:Generated_Source\PSoC4/engine_sensor_pga.c **** *   * engine_sensor_pga_LOW - The lowest power consumption.
 161:Generated_Source\PSoC4/engine_sensor_pga.c **** *   * engine_sensor_pga_MED - The middle setting.
 162:Generated_Source\PSoC4/engine_sensor_pga.c **** *   * engine_sensor_pga_HIGH - The highest amplifier bandwidth.
 163:Generated_Source\PSoC4/engine_sensor_pga.c **** *
 164:Generated_Source\PSoC4/engine_sensor_pga.c **** *  \internal
 165:Generated_Source\PSoC4/engine_sensor_pga.c **** *   The engine_sensor_pga_internalGainPower variable is used to store the
 166:Generated_Source\PSoC4/engine_sensor_pga.c **** *   current gain and power level to set appropriate compensation settings.
 167:Generated_Source\PSoC4/engine_sensor_pga.c **** *
 168:Generated_Source\PSoC4/engine_sensor_pga.c **** *******************************************************************************/
 169:Generated_Source\PSoC4/engine_sensor_pga.c **** void engine_sensor_pga_SetPower(uint32 powerLevel)
 170:Generated_Source\PSoC4/engine_sensor_pga.c **** {
 245              		.loc 1 170 0
 246              		.cfi_startproc
 247 0000 B0B5     		push	{r4, r5, r7, lr}
 248              		.cfi_def_cfa_offset 16
 249              		.cfi_offset 4, -16
 250              		.cfi_offset 5, -12
 251              		.cfi_offset 7, -8
 252              		.cfi_offset 14, -4
 253 0002 84B0     		sub	sp, sp, #16
 254              		.cfi_def_cfa_offset 32
 255 0004 00AF     		add	r7, sp, #0
 256              		.cfi_def_cfa_register 7
 257 0006 7860     		str	r0, [r7, #4]
 171:Generated_Source\PSoC4/engine_sensor_pga.c ****     uint32 locTmp;
 172:Generated_Source\PSoC4/engine_sensor_pga.c ****     
 173:Generated_Source\PSoC4/engine_sensor_pga.c ****     /* Save the powerLevel */
 174:Generated_Source\PSoC4/engine_sensor_pga.c ****     engine_sensor_pga_internalGainPower &= (uint32) ~engine_sensor_pga_OA_PWR_MODE_MASK;
 258              		.loc 1 174 0
 259 0008 244B     		ldr	r3, .L16
 260 000a 1B68     		ldr	r3, [r3]
 261 000c 0322     		mov	r2, #3
 262 000e 9343     		bic	r3, r2
 263 0010 1A1C     		mov	r2, r3
 264 0012 224B     		ldr	r3, .L16
 265 0014 1A60     		str	r2, [r3]
 175:Generated_Source\PSoC4/engine_sensor_pga.c ****     engine_sensor_pga_internalGainPower |= powerLevel & engine_sensor_pga_OA_PWR_MODE_MASK;
 266              		.loc 1 175 0
 267 0016 7B68     		ldr	r3, [r7, #4]
 268 0018 0322     		mov	r2, #3
 269 001a 1A40     		and	r2, r3
 270 001c 1F4B     		ldr	r3, .L16
 271 001e 1B68     		ldr	r3, [r3]
 272 0020 1A43     		orr	r2, r3
 273 0022 1E4B     		ldr	r3, .L16
 274 0024 1A60     		str	r2, [r3]
 176:Generated_Source\PSoC4/engine_sensor_pga.c ****     
 177:Generated_Source\PSoC4/engine_sensor_pga.c ****     /* Save the rest of register bitfields */
 178:Generated_Source\PSoC4/engine_sensor_pga.c ****     locTmp = engine_sensor_pga_OA_RES_CTRL_REG &
 275              		.loc 1 178 0
 276 0026 1E4B     		ldr	r3, .L16+4
 277 0028 1B68     		ldr	r3, [r3]
 278 002a 1E4A     		ldr	r2, .L16+8
ARM GAS  C:\Users\fneves\AppData\Local\Temp\ccFk0uFz.s 			page 9


 279 002c 1340     		and	r3, r2
 280 002e FB60     		str	r3, [r7, #12]
 179:Generated_Source\PSoC4/engine_sensor_pga.c ****         (uint32)~(engine_sensor_pga_OA_PWR_MODE_MASK | engine_sensor_pga_C_FB_MASK);
 180:Generated_Source\PSoC4/engine_sensor_pga.c ****            
 181:Generated_Source\PSoC4/engine_sensor_pga.c ****     /* Set the power and the feedback capacitor values into the control register */
 182:Generated_Source\PSoC4/engine_sensor_pga.c ****     engine_sensor_pga_OA_RES_CTRL_REG  = locTmp | engine_sensor_pga_GET_POWER | engine_sensor_pga_G
 281              		.loc 1 182 0
 282 0030 1B4A     		ldr	r2, .L16+4
 283 0032 1A4B     		ldr	r3, .L16
 284 0034 1B68     		ldr	r3, [r3]
 285 0036 0321     		mov	r1, #3
 286 0038 1940     		and	r1, r3
 287 003a FB68     		ldr	r3, [r7, #12]
 288 003c 1943     		orr	r1, r3
 289 003e 081C     		mov	r0, r1
 290 0040 164B     		ldr	r3, .L16
 291 0042 1B68     		ldr	r3, [r3]
 292 0044 5B0C     		lsr	r3, r3, #17
 293 0046 0721     		mov	r1, #7
 294 0048 1940     		and	r1, r3
 295 004a 144B     		ldr	r3, .L16
 296 004c 1B68     		ldr	r3, [r3]
 297 004e 0324     		mov	r4, #3
 298 0050 2340     		and	r3, r4
 299 0052 5D1E     		sub	r5, r3, #1
 300 0054 144C     		ldr	r4, .L16+12
 301 0056 0B1C     		mov	r3, r1
 302 0058 5B00     		lsl	r3, r3, #1
 303 005a 5B18     		add	r3, r3, r1
 304 005c 5B19     		add	r3, r3, r5
 305 005e 9B00     		lsl	r3, r3, #2
 306 0060 1959     		ldr	r1, [r3, r4]
 307 0062 F023     		mov	r3, #240
 308 0064 1B05     		lsl	r3, r3, #20
 309 0066 0B40     		and	r3, r1
 310 0068 0343     		orr	r3, r0
 311 006a 1360     		str	r3, [r2]
 183:Generated_Source\PSoC4/engine_sensor_pga.c ****     
 184:Generated_Source\PSoC4/engine_sensor_pga.c ****     /* Set the OA compensation capacitor value */
 185:Generated_Source\PSoC4/engine_sensor_pga.c ****     engine_sensor_pga_OA_COMP_TRIM_REG = engine_sensor_pga_GET_OA_COMP_TRIM;
 312              		.loc 1 185 0
 313 006c 0F4A     		ldr	r2, .L16+16
 314 006e 0B4B     		ldr	r3, .L16
 315 0070 1B68     		ldr	r3, [r3]
 316 0072 5B0C     		lsr	r3, r3, #17
 317 0074 0721     		mov	r1, #7
 318 0076 1940     		and	r1, r3
 319 0078 084B     		ldr	r3, .L16
 320 007a 1B68     		ldr	r3, [r3]
 321 007c 0320     		mov	r0, #3
 322 007e 0340     		and	r3, r0
 323 0080 5C1E     		sub	r4, r3, #1
 324 0082 0948     		ldr	r0, .L16+12
 325 0084 0B1C     		mov	r3, r1
 326 0086 5B00     		lsl	r3, r3, #1
 327 0088 5B18     		add	r3, r3, r1
 328 008a 1B19     		add	r3, r3, r4
ARM GAS  C:\Users\fneves\AppData\Local\Temp\ccFk0uFz.s 			page 10


 329 008c 9B00     		lsl	r3, r3, #2
 330 008e 1B58     		ldr	r3, [r3, r0]
 331 0090 0321     		mov	r1, #3
 332 0092 0B40     		and	r3, r1
 333 0094 1360     		str	r3, [r2]
 186:Generated_Source\PSoC4/engine_sensor_pga.c **** }
 334              		.loc 1 186 0
 335 0096 BD46     		mov	sp, r7
 336 0098 04B0     		add	sp, sp, #16
 337              		@ sp needed
 338 009a B0BD     		pop	{r4, r5, r7, pc}
 339              	.L17:
 340              		.align	2
 341              	.L16:
 342 009c 00000000 		.word	engine_sensor_pga_internalGainPower
 343 00a0 04003140 		.word	1076953092
 344 00a4 FCFFFFF0 		.word	-251658244
 345 00a8 00000000 		.word	engine_sensor_pga_compTab
 346 00ac 080F3140 		.word	1076956936
 347              		.cfi_endproc
 348              	.LFE4:
 349              		.size	engine_sensor_pga_SetPower, .-engine_sensor_pga_SetPower
 350              		.section	.text.engine_sensor_pga_SetGain,"ax",%progbits
 351              		.align	2
 352              		.global	engine_sensor_pga_SetGain
 353              		.code	16
 354              		.thumb_func
 355              		.type	engine_sensor_pga_SetGain, %function
 356              	engine_sensor_pga_SetGain:
 357              	.LFB5:
 187:Generated_Source\PSoC4/engine_sensor_pga.c **** 
 188:Generated_Source\PSoC4/engine_sensor_pga.c **** 
 189:Generated_Source\PSoC4/engine_sensor_pga.c **** /*******************************************************************************
 190:Generated_Source\PSoC4/engine_sensor_pga.c **** * Function Name: engine_sensor_pga_SetGain
 191:Generated_Source\PSoC4/engine_sensor_pga.c **** ****************************************************************************//**
 192:Generated_Source\PSoC4/engine_sensor_pga.c **** *
 193:Generated_Source\PSoC4/engine_sensor_pga.c **** *  Sets values of the input and feedback resistors to set a 
 194:Generated_Source\PSoC4/engine_sensor_pga.c **** *  specific gain of the amplifier.
 195:Generated_Source\PSoC4/engine_sensor_pga.c **** *
 196:Generated_Source\PSoC4/engine_sensor_pga.c **** * \param gainLevel
 197:Generated_Source\PSoC4/engine_sensor_pga.c **** *  The gain setting of amplifier. Possible values:
 198:Generated_Source\PSoC4/engine_sensor_pga.c **** *   * engine_sensor_pga_GAIN_1    - gain 1.0.
 199:Generated_Source\PSoC4/engine_sensor_pga.c **** *   * engine_sensor_pga_GAIN_1_4  - gain 1.4.
 200:Generated_Source\PSoC4/engine_sensor_pga.c **** *   * engine_sensor_pga_GAIN_2    - gain 2.0.
 201:Generated_Source\PSoC4/engine_sensor_pga.c **** *   * engine_sensor_pga_GAIN_2_8  - gain 2.8.
 202:Generated_Source\PSoC4/engine_sensor_pga.c **** *   * engine_sensor_pga_GAIN_4    - gain 4.0.
 203:Generated_Source\PSoC4/engine_sensor_pga.c **** *   * engine_sensor_pga_GAIN_5_8  - gain 5.8.
 204:Generated_Source\PSoC4/engine_sensor_pga.c **** *   * engine_sensor_pga_GAIN_8    - gain 8.0.
 205:Generated_Source\PSoC4/engine_sensor_pga.c **** *   * engine_sensor_pga_GAIN_10_7 - gain 10.7.
 206:Generated_Source\PSoC4/engine_sensor_pga.c **** *   * engine_sensor_pga_GAIN_16   - gain 16.0
 207:Generated_Source\PSoC4/engine_sensor_pga.c **** *   * engine_sensor_pga_GAIN_21_3 - gain 21.3.
 208:Generated_Source\PSoC4/engine_sensor_pga.c **** *   * engine_sensor_pga_GAIN_32   - gain 32.0.
 209:Generated_Source\PSoC4/engine_sensor_pga.c **** *
 210:Generated_Source\PSoC4/engine_sensor_pga.c **** *  \internal
 211:Generated_Source\PSoC4/engine_sensor_pga.c **** *   The engine_sensor_pga_internalGainPower variable is used to store the
 212:Generated_Source\PSoC4/engine_sensor_pga.c **** *   current gain and power level to set appropriate compensation settings.
 213:Generated_Source\PSoC4/engine_sensor_pga.c **** *
ARM GAS  C:\Users\fneves\AppData\Local\Temp\ccFk0uFz.s 			page 11


 214:Generated_Source\PSoC4/engine_sensor_pga.c **** *******************************************************************************/
 215:Generated_Source\PSoC4/engine_sensor_pga.c **** void engine_sensor_pga_SetGain(uint32 gainLevel)
 216:Generated_Source\PSoC4/engine_sensor_pga.c **** {
 358              		.loc 1 216 0
 359              		.cfi_startproc
 360 0000 B0B5     		push	{r4, r5, r7, lr}
 361              		.cfi_def_cfa_offset 16
 362              		.cfi_offset 4, -16
 363              		.cfi_offset 5, -12
 364              		.cfi_offset 7, -8
 365              		.cfi_offset 14, -4
 366 0002 84B0     		sub	sp, sp, #16
 367              		.cfi_def_cfa_offset 32
 368 0004 00AF     		add	r7, sp, #0
 369              		.cfi_def_cfa_register 7
 370 0006 7860     		str	r0, [r7, #4]
 217:Generated_Source\PSoC4/engine_sensor_pga.c ****     uint32 locTmp;
 218:Generated_Source\PSoC4/engine_sensor_pga.c ****     
 219:Generated_Source\PSoC4/engine_sensor_pga.c ****     /* Save the gainLevel */
 220:Generated_Source\PSoC4/engine_sensor_pga.c ****     engine_sensor_pga_internalGainPower &= (uint32) ~engine_sensor_pga_RES_TAP_MASK;
 371              		.loc 1 220 0
 372 0008 254B     		ldr	r3, .L19
 373 000a 1B68     		ldr	r3, [r3]
 374 000c 254A     		ldr	r2, .L19+4
 375 000e 1A40     		and	r2, r3
 376 0010 234B     		ldr	r3, .L19
 377 0012 1A60     		str	r2, [r3]
 221:Generated_Source\PSoC4/engine_sensor_pga.c ****     engine_sensor_pga_internalGainPower |= ((uint32)(gainLevel << engine_sensor_pga_RES_TAP_SHIFT))
 378              		.loc 1 221 0
 379 0014 7B68     		ldr	r3, [r7, #4]
 380 0016 1A04     		lsl	r2, r3, #16
 381 0018 F023     		mov	r3, #240
 382 001a 1B03     		lsl	r3, r3, #12
 383 001c 1A40     		and	r2, r3
 384 001e 204B     		ldr	r3, .L19
 385 0020 1B68     		ldr	r3, [r3]
 386 0022 1A43     		orr	r2, r3
 387 0024 1E4B     		ldr	r3, .L19
 388 0026 1A60     		str	r2, [r3]
 222:Generated_Source\PSoC4/engine_sensor_pga.c ****                                                                  engine_sensor_pga_RES_TAP_MASK;
 223:Generated_Source\PSoC4/engine_sensor_pga.c ****     /* Save the rest of register bitfields */
 224:Generated_Source\PSoC4/engine_sensor_pga.c ****     locTmp = engine_sensor_pga_OA_RES_CTRL_REG &
 389              		.loc 1 224 0
 390 0028 1F4B     		ldr	r3, .L19+8
 391 002a 1B68     		ldr	r3, [r3]
 392 002c 1F4A     		ldr	r2, .L19+12
 393 002e 1340     		and	r3, r2
 394 0030 FB60     		str	r3, [r7, #12]
 225:Generated_Source\PSoC4/engine_sensor_pga.c ****         (uint32)~(engine_sensor_pga_RES_TAP_MASK | engine_sensor_pga_C_FB_MASK);
 226:Generated_Source\PSoC4/engine_sensor_pga.c ****     
 227:Generated_Source\PSoC4/engine_sensor_pga.c ****     /* Set the gain and the feedback capacitor values into the control register */
 228:Generated_Source\PSoC4/engine_sensor_pga.c ****     engine_sensor_pga_OA_RES_CTRL_REG = locTmp | (engine_sensor_pga_internalGainPower &
 395              		.loc 1 228 0
 396 0032 1D4A     		ldr	r2, .L19+8
 397 0034 1A4B     		ldr	r3, .L19
 398 0036 1968     		ldr	r1, [r3]
 399 0038 F023     		mov	r3, #240
ARM GAS  C:\Users\fneves\AppData\Local\Temp\ccFk0uFz.s 			page 12


 400 003a 1B03     		lsl	r3, r3, #12
 401 003c 1940     		and	r1, r3
 402 003e FB68     		ldr	r3, [r7, #12]
 403 0040 1943     		orr	r1, r3
 404 0042 081C     		mov	r0, r1
 229:Generated_Source\PSoC4/engine_sensor_pga.c ****         engine_sensor_pga_RES_TAP_MASK) | engine_sensor_pga_GET_C_FB;
 405              		.loc 1 229 0
 406 0044 164B     		ldr	r3, .L19
 407 0046 1B68     		ldr	r3, [r3]
 408 0048 5B0C     		lsr	r3, r3, #17
 409 004a 0721     		mov	r1, #7
 410 004c 1940     		and	r1, r3
 411 004e 144B     		ldr	r3, .L19
 412 0050 1B68     		ldr	r3, [r3]
 413 0052 0324     		mov	r4, #3
 414 0054 2340     		and	r3, r4
 415 0056 5D1E     		sub	r5, r3, #1
 416 0058 154C     		ldr	r4, .L19+16
 417 005a 0B1C     		mov	r3, r1
 418 005c 5B00     		lsl	r3, r3, #1
 419 005e 5B18     		add	r3, r3, r1
 420 0060 5B19     		add	r3, r3, r5
 421 0062 9B00     		lsl	r3, r3, #2
 422 0064 1959     		ldr	r1, [r3, r4]
 423 0066 F023     		mov	r3, #240
 424 0068 1B05     		lsl	r3, r3, #20
 425 006a 0B40     		and	r3, r1
 426 006c 0343     		orr	r3, r0
 228:Generated_Source\PSoC4/engine_sensor_pga.c ****         engine_sensor_pga_RES_TAP_MASK) | engine_sensor_pga_GET_C_FB;
 427              		.loc 1 228 0
 428 006e 1360     		str	r3, [r2]
 230:Generated_Source\PSoC4/engine_sensor_pga.c ****     
 231:Generated_Source\PSoC4/engine_sensor_pga.c ****     /* Set the OA compensation capacitor value */
 232:Generated_Source\PSoC4/engine_sensor_pga.c ****     engine_sensor_pga_OA_COMP_TRIM_REG = engine_sensor_pga_GET_OA_COMP_TRIM;
 429              		.loc 1 232 0
 430 0070 104A     		ldr	r2, .L19+20
 431 0072 0B4B     		ldr	r3, .L19
 432 0074 1B68     		ldr	r3, [r3]
 433 0076 5B0C     		lsr	r3, r3, #17
 434 0078 0721     		mov	r1, #7
 435 007a 1940     		and	r1, r3
 436 007c 084B     		ldr	r3, .L19
 437 007e 1B68     		ldr	r3, [r3]
 438 0080 0320     		mov	r0, #3
 439 0082 0340     		and	r3, r0
 440 0084 5C1E     		sub	r4, r3, #1
 441 0086 0A48     		ldr	r0, .L19+16
 442 0088 0B1C     		mov	r3, r1
 443 008a 5B00     		lsl	r3, r3, #1
 444 008c 5B18     		add	r3, r3, r1
 445 008e 1B19     		add	r3, r3, r4
 446 0090 9B00     		lsl	r3, r3, #2
 447 0092 1B58     		ldr	r3, [r3, r0]
 448 0094 0321     		mov	r1, #3
 449 0096 0B40     		and	r3, r1
 450 0098 1360     		str	r3, [r2]
 233:Generated_Source\PSoC4/engine_sensor_pga.c **** }
ARM GAS  C:\Users\fneves\AppData\Local\Temp\ccFk0uFz.s 			page 13


 451              		.loc 1 233 0
 452 009a BD46     		mov	sp, r7
 453 009c 04B0     		add	sp, sp, #16
 454              		@ sp needed
 455 009e B0BD     		pop	{r4, r5, r7, pc}
 456              	.L20:
 457              		.align	2
 458              	.L19:
 459 00a0 00000000 		.word	engine_sensor_pga_internalGainPower
 460 00a4 FFFFF0FF 		.word	-983041
 461 00a8 04003140 		.word	1076953092
 462 00ac FFFFF0F0 		.word	-252641281
 463 00b0 00000000 		.word	engine_sensor_pga_compTab
 464 00b4 080F3140 		.word	1076956936
 465              		.cfi_endproc
 466              	.LFE5:
 467              		.size	engine_sensor_pga_SetGain, .-engine_sensor_pga_SetGain
 468              		.section	.text.engine_sensor_pga_PumpControl,"ax",%progbits
 469              		.align	2
 470              		.global	engine_sensor_pga_PumpControl
 471              		.code	16
 472              		.thumb_func
 473              		.type	engine_sensor_pga_PumpControl, %function
 474              	engine_sensor_pga_PumpControl:
 475              	.LFB6:
 234:Generated_Source\PSoC4/engine_sensor_pga.c **** 
 235:Generated_Source\PSoC4/engine_sensor_pga.c **** 
 236:Generated_Source\PSoC4/engine_sensor_pga.c **** /*******************************************************************************
 237:Generated_Source\PSoC4/engine_sensor_pga.c **** * Function Name: engine_sensor_pga_PumpControl
 238:Generated_Source\PSoC4/engine_sensor_pga.c **** ****************************************************************************//**
 239:Generated_Source\PSoC4/engine_sensor_pga.c **** *
 240:Generated_Source\PSoC4/engine_sensor_pga.c **** *  Allows the user to turn the amplifier's boost pump on or off.
 241:Generated_Source\PSoC4/engine_sensor_pga.c **** *  By Default the engine_sensor_pga_Init() function turns the pump on.
 242:Generated_Source\PSoC4/engine_sensor_pga.c **** *  
 243:Generated_Source\PSoC4/engine_sensor_pga.c **** * \param onOff
 244:Generated_Source\PSoC4/engine_sensor_pga.c **** *  The boost pump setting. Possible values:
 245:Generated_Source\PSoC4/engine_sensor_pga.c **** *   * engine_sensor_pga_BOOST_OFF - Turn off the pump.
 246:Generated_Source\PSoC4/engine_sensor_pga.c **** *   * engine_sensor_pga_BOOST_ON  - Turn on the pump.
 247:Generated_Source\PSoC4/engine_sensor_pga.c **** *
 248:Generated_Source\PSoC4/engine_sensor_pga.c **** **********************************************************************************/
 249:Generated_Source\PSoC4/engine_sensor_pga.c **** void engine_sensor_pga_PumpControl(uint32 onOff)
 250:Generated_Source\PSoC4/engine_sensor_pga.c **** {
 476              		.loc 1 250 0
 477              		.cfi_startproc
 478 0000 80B5     		push	{r7, lr}
 479              		.cfi_def_cfa_offset 8
 480              		.cfi_offset 7, -8
 481              		.cfi_offset 14, -4
 482 0002 82B0     		sub	sp, sp, #8
 483              		.cfi_def_cfa_offset 16
 484 0004 00AF     		add	r7, sp, #0
 485              		.cfi_def_cfa_register 7
 486 0006 7860     		str	r0, [r7, #4]
 251:Generated_Source\PSoC4/engine_sensor_pga.c ****     if(onOff == engine_sensor_pga_BOOST_ON)
 487              		.loc 1 251 0
 488 0008 7B68     		ldr	r3, [r7, #4]
 489 000a 012B     		cmp	r3, #1
ARM GAS  C:\Users\fneves\AppData\Local\Temp\ccFk0uFz.s 			page 14


 490 000c 07D1     		bne	.L22
 252:Generated_Source\PSoC4/engine_sensor_pga.c ****     {
 253:Generated_Source\PSoC4/engine_sensor_pga.c ****         engine_sensor_pga_OA_RES_CTRL_REG |= engine_sensor_pga_OA_PUMP_EN;
 491              		.loc 1 253 0
 492 000e 084B     		ldr	r3, .L24
 493 0010 074A     		ldr	r2, .L24
 494 0012 1268     		ldr	r2, [r2]
 495 0014 8021     		mov	r1, #128
 496 0016 0901     		lsl	r1, r1, #4
 497 0018 0A43     		orr	r2, r1
 498 001a 1A60     		str	r2, [r3]
 499 001c 05E0     		b	.L21
 500              	.L22:
 254:Generated_Source\PSoC4/engine_sensor_pga.c ****     }
 255:Generated_Source\PSoC4/engine_sensor_pga.c ****     else
 256:Generated_Source\PSoC4/engine_sensor_pga.c ****     {
 257:Generated_Source\PSoC4/engine_sensor_pga.c ****         engine_sensor_pga_OA_RES_CTRL_REG &= (uint32)~engine_sensor_pga_OA_PUMP_EN;
 501              		.loc 1 257 0
 502 001e 044B     		ldr	r3, .L24
 503 0020 034A     		ldr	r2, .L24
 504 0022 1268     		ldr	r2, [r2]
 505 0024 0349     		ldr	r1, .L24+4
 506 0026 0A40     		and	r2, r1
 507 0028 1A60     		str	r2, [r3]
 508              	.L21:
 258:Generated_Source\PSoC4/engine_sensor_pga.c ****     }
 259:Generated_Source\PSoC4/engine_sensor_pga.c **** }
 509              		.loc 1 259 0
 510 002a BD46     		mov	sp, r7
 511 002c 02B0     		add	sp, sp, #8
 512              		@ sp needed
 513 002e 80BD     		pop	{r7, pc}
 514              	.L25:
 515              		.align	2
 516              	.L24:
 517 0030 04003140 		.word	1076953092
 518 0034 FFF7FFFF 		.word	-2049
 519              		.cfi_endproc
 520              	.LFE6:
 521              		.size	engine_sensor_pga_PumpControl, .-engine_sensor_pga_PumpControl
 522              		.text
 523              	.Letext0:
 524              		.file 2 "Generated_Source\\PSoC4\\cytypes.h"
 525              		.section	.debug_info,"",%progbits
 526              	.Ldebug_info0:
 527 0000 C7010000 		.4byte	0x1c7
 528 0004 0400     		.2byte	0x4
 529 0006 00000000 		.4byte	.Ldebug_abbrev0
 530 000a 04       		.byte	0x4
 531 000b 01       		.uleb128 0x1
 532 000c 5C010000 		.4byte	.LASF30
 533 0010 01       		.byte	0x1
 534 0011 89020000 		.4byte	.LASF31
 535 0015 20000000 		.4byte	.LASF32
 536 0019 00000000 		.4byte	.Ldebug_ranges0+0
 537 001d 00000000 		.4byte	0
 538 0021 00000000 		.4byte	.Ldebug_line0
ARM GAS  C:\Users\fneves\AppData\Local\Temp\ccFk0uFz.s 			page 15


 539 0025 02       		.uleb128 0x2
 540 0026 01       		.byte	0x1
 541 0027 06       		.byte	0x6
 542 0028 D5020000 		.4byte	.LASF0
 543 002c 02       		.uleb128 0x2
 544 002d 01       		.byte	0x1
 545 002e 08       		.byte	0x8
 546 002f C5000000 		.4byte	.LASF1
 547 0033 02       		.uleb128 0x2
 548 0034 02       		.byte	0x2
 549 0035 05       		.byte	0x5
 550 0036 72020000 		.4byte	.LASF2
 551 003a 02       		.uleb128 0x2
 552 003b 02       		.byte	0x2
 553 003c 07       		.byte	0x7
 554 003d F6000000 		.4byte	.LASF3
 555 0041 02       		.uleb128 0x2
 556 0042 04       		.byte	0x4
 557 0043 05       		.byte	0x5
 558 0044 B4020000 		.4byte	.LASF4
 559 0048 02       		.uleb128 0x2
 560 0049 04       		.byte	0x4
 561 004a 07       		.byte	0x7
 562 004b E4000000 		.4byte	.LASF5
 563 004f 02       		.uleb128 0x2
 564 0050 08       		.byte	0x8
 565 0051 05       		.byte	0x5
 566 0052 45020000 		.4byte	.LASF6
 567 0056 02       		.uleb128 0x2
 568 0057 08       		.byte	0x8
 569 0058 07       		.byte	0x7
 570 0059 45010000 		.4byte	.LASF7
 571 005d 03       		.uleb128 0x3
 572 005e 04       		.byte	0x4
 573 005f 05       		.byte	0x5
 574 0060 696E7400 		.ascii	"int\000"
 575 0064 02       		.uleb128 0x2
 576 0065 04       		.byte	0x4
 577 0066 07       		.byte	0x7
 578 0067 38010000 		.4byte	.LASF8
 579 006b 04       		.uleb128 0x4
 580 006c 7C020000 		.4byte	.LASF9
 581 0070 02       		.byte	0x2
 582 0071 B901     		.2byte	0x1b9
 583 0073 2C000000 		.4byte	0x2c
 584 0077 04       		.uleb128 0x4
 585 0078 1A010000 		.4byte	.LASF10
 586 007c 02       		.byte	0x2
 587 007d BB01     		.2byte	0x1bb
 588 007f 48000000 		.4byte	0x48
 589 0083 02       		.uleb128 0x2
 590 0084 04       		.byte	0x4
 591 0085 04       		.byte	0x4
 592 0086 A1000000 		.4byte	.LASF11
 593 008a 02       		.uleb128 0x2
 594 008b 08       		.byte	0x8
 595 008c 04       		.byte	0x4
ARM GAS  C:\Users\fneves\AppData\Local\Temp\ccFk0uFz.s 			page 16


 596 008d 13010000 		.4byte	.LASF12
 597 0091 02       		.uleb128 0x2
 598 0092 01       		.byte	0x1
 599 0093 08       		.byte	0x8
 600 0094 53020000 		.4byte	.LASF13
 601 0098 04       		.uleb128 0x4
 602 0099 1A000000 		.4byte	.LASF14
 603 009d 02       		.byte	0x2
 604 009e 6502     		.2byte	0x265
 605 00a0 A4000000 		.4byte	0xa4
 606 00a4 05       		.uleb128 0x5
 607 00a5 77000000 		.4byte	0x77
 608 00a9 06       		.uleb128 0x6
 609 00aa 8A000000 		.4byte	.LASF15
 610 00ae 01       		.byte	0x1
 611 00af 45       		.byte	0x45
 612 00b0 00000000 		.4byte	.LFB0
 613 00b4 60000000 		.4byte	.LFE0-.LFB0
 614 00b8 01       		.uleb128 0x1
 615 00b9 9C       		.byte	0x9c
 616 00ba 07       		.uleb128 0x7
 617 00bb 08020000 		.4byte	.LASF16
 618 00bf 01       		.byte	0x1
 619 00c0 69       		.byte	0x69
 620 00c1 00000000 		.4byte	.LFB1
 621 00c5 24000000 		.4byte	.LFE1-.LFB1
 622 00c9 01       		.uleb128 0x1
 623 00ca 9C       		.byte	0x9c
 624 00cb 06       		.uleb128 0x6
 625 00cc BD020000 		.4byte	.LASF17
 626 00d0 01       		.byte	0x1
 627 00d1 7F       		.byte	0x7f
 628 00d2 00000000 		.4byte	.LFB2
 629 00d6 24000000 		.4byte	.LFE2-.LFB2
 630 00da 01       		.uleb128 0x1
 631 00db 9C       		.byte	0x9c
 632 00dc 07       		.uleb128 0x7
 633 00dd 21010000 		.4byte	.LASF18
 634 00e1 01       		.byte	0x1
 635 00e2 92       		.byte	0x92
 636 00e3 00000000 		.4byte	.LFB3
 637 00e7 18000000 		.4byte	.LFE3-.LFB3
 638 00eb 01       		.uleb128 0x1
 639 00ec 9C       		.byte	0x9c
 640 00ed 08       		.uleb128 0x8
 641 00ee 2A020000 		.4byte	.LASF19
 642 00f2 01       		.byte	0x1
 643 00f3 A9       		.byte	0xa9
 644 00f4 00000000 		.4byte	.LFB4
 645 00f8 B0000000 		.4byte	.LFE4-.LFB4
 646 00fc 01       		.uleb128 0x1
 647 00fd 9C       		.byte	0x9c
 648 00fe 1F010000 		.4byte	0x11f
 649 0102 09       		.uleb128 0x9
 650 0103 D9000000 		.4byte	.LASF21
 651 0107 01       		.byte	0x1
 652 0108 A9       		.byte	0xa9
ARM GAS  C:\Users\fneves\AppData\Local\Temp\ccFk0uFz.s 			page 17


 653 0109 77000000 		.4byte	0x77
 654 010d 02       		.uleb128 0x2
 655 010e 91       		.byte	0x91
 656 010f 64       		.sleb128 -28
 657 0110 0A       		.uleb128 0xa
 658 0111 82020000 		.4byte	.LASF23
 659 0115 01       		.byte	0x1
 660 0116 AB       		.byte	0xab
 661 0117 77000000 		.4byte	0x77
 662 011b 02       		.uleb128 0x2
 663 011c 91       		.byte	0x91
 664 011d 6C       		.sleb128 -20
 665 011e 00       		.byte	0
 666 011f 08       		.uleb128 0x8
 667 0120 00000000 		.4byte	.LASF20
 668 0124 01       		.byte	0x1
 669 0125 D7       		.byte	0xd7
 670 0126 00000000 		.4byte	.LFB5
 671 012a B8000000 		.4byte	.LFE5-.LFB5
 672 012e 01       		.uleb128 0x1
 673 012f 9C       		.byte	0x9c
 674 0130 51010000 		.4byte	0x151
 675 0134 09       		.uleb128 0x9
 676 0135 09010000 		.4byte	.LASF22
 677 0139 01       		.byte	0x1
 678 013a D7       		.byte	0xd7
 679 013b 77000000 		.4byte	0x77
 680 013f 02       		.uleb128 0x2
 681 0140 91       		.byte	0x91
 682 0141 64       		.sleb128 -28
 683 0142 0A       		.uleb128 0xa
 684 0143 82020000 		.4byte	.LASF23
 685 0147 01       		.byte	0x1
 686 0148 D9       		.byte	0xd9
 687 0149 77000000 		.4byte	0x77
 688 014d 02       		.uleb128 0x2
 689 014e 91       		.byte	0x91
 690 014f 6C       		.sleb128 -20
 691 0150 00       		.byte	0
 692 0151 08       		.uleb128 0x8
 693 0152 A7000000 		.4byte	.LASF24
 694 0156 01       		.byte	0x1
 695 0157 F9       		.byte	0xf9
 696 0158 00000000 		.4byte	.LFB6
 697 015c 38000000 		.4byte	.LFE6-.LFB6
 698 0160 01       		.uleb128 0x1
 699 0161 9C       		.byte	0x9c
 700 0162 75010000 		.4byte	0x175
 701 0166 09       		.uleb128 0x9
 702 0167 D3000000 		.4byte	.LASF25
 703 016b 01       		.byte	0x1
 704 016c F9       		.byte	0xf9
 705 016d 77000000 		.4byte	0x77
 706 0171 02       		.uleb128 0x2
 707 0172 91       		.byte	0x91
 708 0173 74       		.sleb128 -12
 709 0174 00       		.byte	0
ARM GAS  C:\Users\fneves\AppData\Local\Temp\ccFk0uFz.s 			page 18


 710 0175 0B       		.uleb128 0xb
 711 0176 EE010000 		.4byte	.LASF26
 712 017a 01       		.byte	0x1
 713 017b 13       		.byte	0x13
 714 017c 6B000000 		.4byte	0x6b
 715 0180 05       		.uleb128 0x5
 716 0181 03       		.byte	0x3
 717 0182 00000000 		.4byte	engine_sensor_pga_initVar
 718 0186 0B       		.uleb128 0xb
 719 0187 66000000 		.4byte	.LASF27
 720 018b 01       		.byte	0x1
 721 018c 15       		.byte	0x15
 722 018d 77000000 		.4byte	0x77
 723 0191 05       		.uleb128 0x5
 724 0192 03       		.byte	0x3
 725 0193 00000000 		.4byte	engine_sensor_pga_internalGainPower
 726 0197 0C       		.uleb128 0xc
 727 0198 77000000 		.4byte	0x77
 728 019c AD010000 		.4byte	0x1ad
 729 01a0 0D       		.uleb128 0xd
 730 01a1 AD010000 		.4byte	0x1ad
 731 01a5 05       		.byte	0x5
 732 01a6 0D       		.uleb128 0xd
 733 01a7 AD010000 		.4byte	0x1ad
 734 01ab 02       		.byte	0x2
 735 01ac 00       		.byte	0
 736 01ad 02       		.uleb128 0x2
 737 01ae 04       		.byte	0x4
 738 01af 07       		.byte	0x7
 739 01b0 21020000 		.4byte	.LASF28
 740 01b4 0B       		.uleb128 0xb
 741 01b5 58020000 		.4byte	.LASF29
 742 01b9 01       		.byte	0x1
 743 01ba 28       		.byte	0x28
 744 01bb C5010000 		.4byte	0x1c5
 745 01bf 05       		.uleb128 0x5
 746 01c0 03       		.byte	0x3
 747 01c1 00000000 		.4byte	engine_sensor_pga_compTab
 748 01c5 0E       		.uleb128 0xe
 749 01c6 97010000 		.4byte	0x197
 750 01ca 00       		.byte	0
 751              		.section	.debug_abbrev,"",%progbits
 752              	.Ldebug_abbrev0:
 753 0000 01       		.uleb128 0x1
 754 0001 11       		.uleb128 0x11
 755 0002 01       		.byte	0x1
 756 0003 25       		.uleb128 0x25
 757 0004 0E       		.uleb128 0xe
 758 0005 13       		.uleb128 0x13
 759 0006 0B       		.uleb128 0xb
 760 0007 03       		.uleb128 0x3
 761 0008 0E       		.uleb128 0xe
 762 0009 1B       		.uleb128 0x1b
 763 000a 0E       		.uleb128 0xe
 764 000b 55       		.uleb128 0x55
 765 000c 17       		.uleb128 0x17
 766 000d 11       		.uleb128 0x11
ARM GAS  C:\Users\fneves\AppData\Local\Temp\ccFk0uFz.s 			page 19


 767 000e 01       		.uleb128 0x1
 768 000f 10       		.uleb128 0x10
 769 0010 17       		.uleb128 0x17
 770 0011 00       		.byte	0
 771 0012 00       		.byte	0
 772 0013 02       		.uleb128 0x2
 773 0014 24       		.uleb128 0x24
 774 0015 00       		.byte	0
 775 0016 0B       		.uleb128 0xb
 776 0017 0B       		.uleb128 0xb
 777 0018 3E       		.uleb128 0x3e
 778 0019 0B       		.uleb128 0xb
 779 001a 03       		.uleb128 0x3
 780 001b 0E       		.uleb128 0xe
 781 001c 00       		.byte	0
 782 001d 00       		.byte	0
 783 001e 03       		.uleb128 0x3
 784 001f 24       		.uleb128 0x24
 785 0020 00       		.byte	0
 786 0021 0B       		.uleb128 0xb
 787 0022 0B       		.uleb128 0xb
 788 0023 3E       		.uleb128 0x3e
 789 0024 0B       		.uleb128 0xb
 790 0025 03       		.uleb128 0x3
 791 0026 08       		.uleb128 0x8
 792 0027 00       		.byte	0
 793 0028 00       		.byte	0
 794 0029 04       		.uleb128 0x4
 795 002a 16       		.uleb128 0x16
 796 002b 00       		.byte	0
 797 002c 03       		.uleb128 0x3
 798 002d 0E       		.uleb128 0xe
 799 002e 3A       		.uleb128 0x3a
 800 002f 0B       		.uleb128 0xb
 801 0030 3B       		.uleb128 0x3b
 802 0031 05       		.uleb128 0x5
 803 0032 49       		.uleb128 0x49
 804 0033 13       		.uleb128 0x13
 805 0034 00       		.byte	0
 806 0035 00       		.byte	0
 807 0036 05       		.uleb128 0x5
 808 0037 35       		.uleb128 0x35
 809 0038 00       		.byte	0
 810 0039 49       		.uleb128 0x49
 811 003a 13       		.uleb128 0x13
 812 003b 00       		.byte	0
 813 003c 00       		.byte	0
 814 003d 06       		.uleb128 0x6
 815 003e 2E       		.uleb128 0x2e
 816 003f 00       		.byte	0
 817 0040 3F       		.uleb128 0x3f
 818 0041 19       		.uleb128 0x19
 819 0042 03       		.uleb128 0x3
 820 0043 0E       		.uleb128 0xe
 821 0044 3A       		.uleb128 0x3a
 822 0045 0B       		.uleb128 0xb
 823 0046 3B       		.uleb128 0x3b
ARM GAS  C:\Users\fneves\AppData\Local\Temp\ccFk0uFz.s 			page 20


 824 0047 0B       		.uleb128 0xb
 825 0048 27       		.uleb128 0x27
 826 0049 19       		.uleb128 0x19
 827 004a 11       		.uleb128 0x11
 828 004b 01       		.uleb128 0x1
 829 004c 12       		.uleb128 0x12
 830 004d 06       		.uleb128 0x6
 831 004e 40       		.uleb128 0x40
 832 004f 18       		.uleb128 0x18
 833 0050 9642     		.uleb128 0x2116
 834 0052 19       		.uleb128 0x19
 835 0053 00       		.byte	0
 836 0054 00       		.byte	0
 837 0055 07       		.uleb128 0x7
 838 0056 2E       		.uleb128 0x2e
 839 0057 00       		.byte	0
 840 0058 3F       		.uleb128 0x3f
 841 0059 19       		.uleb128 0x19
 842 005a 03       		.uleb128 0x3
 843 005b 0E       		.uleb128 0xe
 844 005c 3A       		.uleb128 0x3a
 845 005d 0B       		.uleb128 0xb
 846 005e 3B       		.uleb128 0x3b
 847 005f 0B       		.uleb128 0xb
 848 0060 27       		.uleb128 0x27
 849 0061 19       		.uleb128 0x19
 850 0062 11       		.uleb128 0x11
 851 0063 01       		.uleb128 0x1
 852 0064 12       		.uleb128 0x12
 853 0065 06       		.uleb128 0x6
 854 0066 40       		.uleb128 0x40
 855 0067 18       		.uleb128 0x18
 856 0068 9742     		.uleb128 0x2117
 857 006a 19       		.uleb128 0x19
 858 006b 00       		.byte	0
 859 006c 00       		.byte	0
 860 006d 08       		.uleb128 0x8
 861 006e 2E       		.uleb128 0x2e
 862 006f 01       		.byte	0x1
 863 0070 3F       		.uleb128 0x3f
 864 0071 19       		.uleb128 0x19
 865 0072 03       		.uleb128 0x3
 866 0073 0E       		.uleb128 0xe
 867 0074 3A       		.uleb128 0x3a
 868 0075 0B       		.uleb128 0xb
 869 0076 3B       		.uleb128 0x3b
 870 0077 0B       		.uleb128 0xb
 871 0078 27       		.uleb128 0x27
 872 0079 19       		.uleb128 0x19
 873 007a 11       		.uleb128 0x11
 874 007b 01       		.uleb128 0x1
 875 007c 12       		.uleb128 0x12
 876 007d 06       		.uleb128 0x6
 877 007e 40       		.uleb128 0x40
 878 007f 18       		.uleb128 0x18
 879 0080 9742     		.uleb128 0x2117
 880 0082 19       		.uleb128 0x19
ARM GAS  C:\Users\fneves\AppData\Local\Temp\ccFk0uFz.s 			page 21


 881 0083 01       		.uleb128 0x1
 882 0084 13       		.uleb128 0x13
 883 0085 00       		.byte	0
 884 0086 00       		.byte	0
 885 0087 09       		.uleb128 0x9
 886 0088 05       		.uleb128 0x5
 887 0089 00       		.byte	0
 888 008a 03       		.uleb128 0x3
 889 008b 0E       		.uleb128 0xe
 890 008c 3A       		.uleb128 0x3a
 891 008d 0B       		.uleb128 0xb
 892 008e 3B       		.uleb128 0x3b
 893 008f 0B       		.uleb128 0xb
 894 0090 49       		.uleb128 0x49
 895 0091 13       		.uleb128 0x13
 896 0092 02       		.uleb128 0x2
 897 0093 18       		.uleb128 0x18
 898 0094 00       		.byte	0
 899 0095 00       		.byte	0
 900 0096 0A       		.uleb128 0xa
 901 0097 34       		.uleb128 0x34
 902 0098 00       		.byte	0
 903 0099 03       		.uleb128 0x3
 904 009a 0E       		.uleb128 0xe
 905 009b 3A       		.uleb128 0x3a
 906 009c 0B       		.uleb128 0xb
 907 009d 3B       		.uleb128 0x3b
 908 009e 0B       		.uleb128 0xb
 909 009f 49       		.uleb128 0x49
 910 00a0 13       		.uleb128 0x13
 911 00a1 02       		.uleb128 0x2
 912 00a2 18       		.uleb128 0x18
 913 00a3 00       		.byte	0
 914 00a4 00       		.byte	0
 915 00a5 0B       		.uleb128 0xb
 916 00a6 34       		.uleb128 0x34
 917 00a7 00       		.byte	0
 918 00a8 03       		.uleb128 0x3
 919 00a9 0E       		.uleb128 0xe
 920 00aa 3A       		.uleb128 0x3a
 921 00ab 0B       		.uleb128 0xb
 922 00ac 3B       		.uleb128 0x3b
 923 00ad 0B       		.uleb128 0xb
 924 00ae 49       		.uleb128 0x49
 925 00af 13       		.uleb128 0x13
 926 00b0 3F       		.uleb128 0x3f
 927 00b1 19       		.uleb128 0x19
 928 00b2 02       		.uleb128 0x2
 929 00b3 18       		.uleb128 0x18
 930 00b4 00       		.byte	0
 931 00b5 00       		.byte	0
 932 00b6 0C       		.uleb128 0xc
 933 00b7 01       		.uleb128 0x1
 934 00b8 01       		.byte	0x1
 935 00b9 49       		.uleb128 0x49
 936 00ba 13       		.uleb128 0x13
 937 00bb 01       		.uleb128 0x1
ARM GAS  C:\Users\fneves\AppData\Local\Temp\ccFk0uFz.s 			page 22


 938 00bc 13       		.uleb128 0x13
 939 00bd 00       		.byte	0
 940 00be 00       		.byte	0
 941 00bf 0D       		.uleb128 0xd
 942 00c0 21       		.uleb128 0x21
 943 00c1 00       		.byte	0
 944 00c2 49       		.uleb128 0x49
 945 00c3 13       		.uleb128 0x13
 946 00c4 2F       		.uleb128 0x2f
 947 00c5 0B       		.uleb128 0xb
 948 00c6 00       		.byte	0
 949 00c7 00       		.byte	0
 950 00c8 0E       		.uleb128 0xe
 951 00c9 26       		.uleb128 0x26
 952 00ca 00       		.byte	0
 953 00cb 49       		.uleb128 0x49
 954 00cc 13       		.uleb128 0x13
 955 00cd 00       		.byte	0
 956 00ce 00       		.byte	0
 957 00cf 00       		.byte	0
 958              		.section	.debug_aranges,"",%progbits
 959 0000 4C000000 		.4byte	0x4c
 960 0004 0200     		.2byte	0x2
 961 0006 00000000 		.4byte	.Ldebug_info0
 962 000a 04       		.byte	0x4
 963 000b 00       		.byte	0
 964 000c 0000     		.2byte	0
 965 000e 0000     		.2byte	0
 966 0010 00000000 		.4byte	.LFB0
 967 0014 60000000 		.4byte	.LFE0-.LFB0
 968 0018 00000000 		.4byte	.LFB1
 969 001c 24000000 		.4byte	.LFE1-.LFB1
 970 0020 00000000 		.4byte	.LFB2
 971 0024 24000000 		.4byte	.LFE2-.LFB2
 972 0028 00000000 		.4byte	.LFB3
 973 002c 18000000 		.4byte	.LFE3-.LFB3
 974 0030 00000000 		.4byte	.LFB4
 975 0034 B0000000 		.4byte	.LFE4-.LFB4
 976 0038 00000000 		.4byte	.LFB5
 977 003c B8000000 		.4byte	.LFE5-.LFB5
 978 0040 00000000 		.4byte	.LFB6
 979 0044 38000000 		.4byte	.LFE6-.LFB6
 980 0048 00000000 		.4byte	0
 981 004c 00000000 		.4byte	0
 982              		.section	.debug_ranges,"",%progbits
 983              	.Ldebug_ranges0:
 984 0000 00000000 		.4byte	.LFB0
 985 0004 60000000 		.4byte	.LFE0
 986 0008 00000000 		.4byte	.LFB1
 987 000c 24000000 		.4byte	.LFE1
 988 0010 00000000 		.4byte	.LFB2
 989 0014 24000000 		.4byte	.LFE2
 990 0018 00000000 		.4byte	.LFB3
 991 001c 18000000 		.4byte	.LFE3
 992 0020 00000000 		.4byte	.LFB4
 993 0024 B0000000 		.4byte	.LFE4
 994 0028 00000000 		.4byte	.LFB5
ARM GAS  C:\Users\fneves\AppData\Local\Temp\ccFk0uFz.s 			page 23


 995 002c B8000000 		.4byte	.LFE5
 996 0030 00000000 		.4byte	.LFB6
 997 0034 38000000 		.4byte	.LFE6
 998 0038 00000000 		.4byte	0
 999 003c 00000000 		.4byte	0
 1000              		.section	.debug_line,"",%progbits
 1001              	.Ldebug_line0:
 1002 0000 EB000000 		.section	.debug_str,"MS",%progbits,1
 1002      02004E00 
 1002      00000201 
 1002      FB0E0D00 
 1002      01010101 
 1003              	.LASF20:
 1004 0000 656E6769 		.ascii	"engine_sensor_pga_SetGain\000"
 1004      6E655F73 
 1004      656E736F 
 1004      725F7067 
 1004      615F5365 
 1005              	.LASF14:
 1006 001a 72656733 		.ascii	"reg32\000"
 1006      3200
 1007              	.LASF32:
 1008 0020 433A5C55 		.ascii	"C:\\Users\\fneves\\Documents\\PSoC Creator\\wp_1\\e"
 1008      73657273 
 1008      5C666E65 
 1008      7665735C 
 1008      446F6375 
 1009 004d 6E67696E 		.ascii	"ngine_speed_sensor.cydsn\000"
 1009      655F7370 
 1009      6565645F 
 1009      73656E73 
 1009      6F722E63 
 1010              	.LASF27:
 1011 0066 656E6769 		.ascii	"engine_sensor_pga_internalGainPower\000"
 1011      6E655F73 
 1011      656E736F 
 1011      725F7067 
 1011      615F696E 
 1012              	.LASF15:
 1013 008a 656E6769 		.ascii	"engine_sensor_pga_Init\000"
 1013      6E655F73 
 1013      656E736F 
 1013      725F7067 
 1013      615F496E 
 1014              	.LASF11:
 1015 00a1 666C6F61 		.ascii	"float\000"
 1015      7400
 1016              	.LASF24:
 1017 00a7 656E6769 		.ascii	"engine_sensor_pga_PumpControl\000"
 1017      6E655F73 
 1017      656E736F 
 1017      725F7067 
 1017      615F5075 
 1018              	.LASF1:
 1019 00c5 756E7369 		.ascii	"unsigned char\000"
 1019      676E6564 
 1019      20636861 
ARM GAS  C:\Users\fneves\AppData\Local\Temp\ccFk0uFz.s 			page 24


 1019      7200
 1020              	.LASF25:
 1021 00d3 6F6E4F66 		.ascii	"onOff\000"
 1021      6600
 1022              	.LASF21:
 1023 00d9 706F7765 		.ascii	"powerLevel\000"
 1023      724C6576 
 1023      656C00
 1024              	.LASF5:
 1025 00e4 6C6F6E67 		.ascii	"long unsigned int\000"
 1025      20756E73 
 1025      69676E65 
 1025      6420696E 
 1025      7400
 1026              	.LASF3:
 1027 00f6 73686F72 		.ascii	"short unsigned int\000"
 1027      7420756E 
 1027      7369676E 
 1027      65642069 
 1027      6E7400
 1028              	.LASF22:
 1029 0109 6761696E 		.ascii	"gainLevel\000"
 1029      4C657665 
 1029      6C00
 1030              	.LASF12:
 1031 0113 646F7562 		.ascii	"double\000"
 1031      6C6500
 1032              	.LASF10:
 1033 011a 75696E74 		.ascii	"uint32\000"
 1033      333200
 1034              	.LASF18:
 1035 0121 656E6769 		.ascii	"engine_sensor_pga_Stop\000"
 1035      6E655F73 
 1035      656E736F 
 1035      725F7067 
 1035      615F5374 
 1036              	.LASF8:
 1037 0138 756E7369 		.ascii	"unsigned int\000"
 1037      676E6564 
 1037      20696E74 
 1037      00
 1038              	.LASF7:
 1039 0145 6C6F6E67 		.ascii	"long long unsigned int\000"
 1039      206C6F6E 
 1039      6720756E 
 1039      7369676E 
 1039      65642069 
 1040              	.LASF30:
 1041 015c 474E5520 		.ascii	"GNU C 4.9.3 20150303 (release) [ARM/embedded-4_9-br"
 1041      4320342E 
 1041      392E3320 
 1041      32303135 
 1041      30333033 
 1042 018f 616E6368 		.ascii	"anch revision 221220] -mcpu=cortex-m0plus -mthumb -"
 1042      20726576 
 1042      6973696F 
 1042      6E203232 
ARM GAS  C:\Users\fneves\AppData\Local\Temp\ccFk0uFz.s 			page 25


 1042      31323230 
 1043 01c2 67202D4F 		.ascii	"g -O0 -ffunction-sections -ffat-lto-objects\000"
 1043      30202D66 
 1043      66756E63 
 1043      74696F6E 
 1043      2D736563 
 1044              	.LASF26:
 1045 01ee 656E6769 		.ascii	"engine_sensor_pga_initVar\000"
 1045      6E655F73 
 1045      656E736F 
 1045      725F7067 
 1045      615F696E 
 1046              	.LASF16:
 1047 0208 656E6769 		.ascii	"engine_sensor_pga_Enable\000"
 1047      6E655F73 
 1047      656E736F 
 1047      725F7067 
 1047      615F456E 
 1048              	.LASF28:
 1049 0221 73697A65 		.ascii	"sizetype\000"
 1049      74797065 
 1049      00
 1050              	.LASF19:
 1051 022a 656E6769 		.ascii	"engine_sensor_pga_SetPower\000"
 1051      6E655F73 
 1051      656E736F 
 1051      725F7067 
 1051      615F5365 
 1052              	.LASF6:
 1053 0245 6C6F6E67 		.ascii	"long long int\000"
 1053      206C6F6E 
 1053      6720696E 
 1053      7400
 1054              	.LASF13:
 1055 0253 63686172 		.ascii	"char\000"
 1055      00
 1056              	.LASF29:
 1057 0258 656E6769 		.ascii	"engine_sensor_pga_compTab\000"
 1057      6E655F73 
 1057      656E736F 
 1057      725F7067 
 1057      615F636F 
 1058              	.LASF2:
 1059 0272 73686F72 		.ascii	"short int\000"
 1059      7420696E 
 1059      7400
 1060              	.LASF9:
 1061 027c 75696E74 		.ascii	"uint8\000"
 1061      3800
 1062              	.LASF23:
 1063 0282 6C6F6354 		.ascii	"locTmp\000"
 1063      6D7000
 1064              	.LASF31:
 1065 0289 47656E65 		.ascii	"Generated_Source\\PSoC4\\engine_sensor_pga.c\000"
 1065      72617465 
 1065      645F536F 
 1065      75726365 
ARM GAS  C:\Users\fneves\AppData\Local\Temp\ccFk0uFz.s 			page 26


 1065      5C50536F 
 1066              	.LASF4:
 1067 02b4 6C6F6E67 		.ascii	"long int\000"
 1067      20696E74 
 1067      00
 1068              	.LASF17:
 1069 02bd 656E6769 		.ascii	"engine_sensor_pga_Start\000"
 1069      6E655F73 
 1069      656E736F 
 1069      725F7067 
 1069      615F5374 
 1070              	.LASF0:
 1071 02d5 7369676E 		.ascii	"signed char\000"
 1071      65642063 
 1071      68617200 
 1072              		.ident	"GCC: (GNU Tools for ARM Embedded Processors) 4.9.3 20150303 (release) [ARM/embedded-4_9-br
