ARM GAS  C:\Users\fneves\AppData\Local\Temp\ccFk0uFz.s 			page 1


   1              		.cpu cortex-m0plus
   2              		.fpu softvfp
   3              		.eabi_attribute 20, 1
   4              		.eabi_attribute 21, 1
   5              		.eabi_attribute 23, 3
   6              		.eabi_attribute 24, 1
   7              		.eabi_attribute 25, 1
   8              		.eabi_attribute 26, 1
   9              		.eabi_attribute 30, 6
  10              		.eabi_attribute 34, 0
  11              		.eabi_attribute 18, 4
  12              		.code	16
  13              		.file	"engine_sensor_pga.c"
  14              		.text
  15              	.Ltext0:
  16              		.cfi_sections	.debug_frame
  17              		.global	engine_sensor_pga_initVar
  18              		.bss
  19              		.type	engine_sensor_pga_initVar, %object
  20              		.size	engine_sensor_pga_initVar, 1
  21              	engine_sensor_pga_initVar:
  22 0000 00       		.space	1
  23              		.global	engine_sensor_pga_internalGainPower
  24 0001 000000   		.align	2
  25              		.type	engine_sensor_pga_internalGainPower, %object
  26              		.size	engine_sensor_pga_internalGainPower, 4
  27              	engine_sensor_pga_internalGainPower:
  28 0004 00000000 		.space	4
  29              		.global	engine_sensor_pga_compTab
  30              		.section	.rodata
  31              		.align	2
  32              		.type	engine_sensor_pga_compTab, %object
  33              		.size	engine_sensor_pga_compTab, 72
  34              	engine_sensor_pga_compTab:
  35 0000 0200000F 		.word	251658242
  36 0004 0200000F 		.word	251658242
  37 0008 0200000F 		.word	251658242
  38 000c 02000007 		.word	117440514
  39 0010 02000009 		.word	150994946
  40 0014 02000009 		.word	150994946
  41 0018 02000004 		.word	67108866
  42 001c 02000004 		.word	67108866
  43 0020 02000004 		.word	67108866
  44 0024 01000003 		.word	50331649
  45 0028 02000002 		.word	33554434
  46 002c 02000003 		.word	50331650
  47 0030 01000001 		.word	16777217
  48 0034 02000000 		.word	2
  49 0038 02000000 		.word	2
  50 003c 01000001 		.word	16777217
  51 0040 01000001 		.word	16777217
  52 0044 01000002 		.word	33554433
  53              		.section	.text.engine_sensor_pga_Init,"ax",%progbits
  54              		.align	2
  55              		.global	engine_sensor_pga_Init
  56              		.code	16
  57              		.thumb_func
ARM GAS  C:\Users\fneves\AppData\Local\Temp\ccFk0uFz.s 			page 2


  58              		.type	engine_sensor_pga_Init, %function
  59              	engine_sensor_pga_Init:
  60              	.LFB0:
  61              		.file 1 "Generated_Source\\PSoC4\\engine_sensor_pga.c"
   1:Generated_Source\PSoC4/engine_sensor_pga.c **** /***************************************************************************//**
   2:Generated_Source\PSoC4/engine_sensor_pga.c **** * \file     engine_sensor_pga.c
   3:Generated_Source\PSoC4/engine_sensor_pga.c **** * \version  1.0
   4:Generated_Source\PSoC4/engine_sensor_pga.c **** *
   5:Generated_Source\PSoC4/engine_sensor_pga.c **** * \brief
   6:Generated_Source\PSoC4/engine_sensor_pga.c **** *  This file provides the source code to the API for the PGA_P4 Component
   7:Generated_Source\PSoC4/engine_sensor_pga.c **** *
   8:Generated_Source\PSoC4/engine_sensor_pga.c **** ********************************************************************************
   9:Generated_Source\PSoC4/engine_sensor_pga.c **** * \copyright
  10:Generated_Source\PSoC4/engine_sensor_pga.c **** * Copyright 2016, Cypress Semiconductor Corporation.  All rights reserved.
  11:Generated_Source\PSoC4/engine_sensor_pga.c **** * You may use this file only in accordance with the license, terms, conditions,
  12:Generated_Source\PSoC4/engine_sensor_pga.c **** * disclaimers, and limitations in the end user license agreement accompanying
  13:Generated_Source\PSoC4/engine_sensor_pga.c **** * the software package with which this file was provided.
  14:Generated_Source\PSoC4/engine_sensor_pga.c **** *******************************************************************************/
  15:Generated_Source\PSoC4/engine_sensor_pga.c **** 
  16:Generated_Source\PSoC4/engine_sensor_pga.c **** #include "engine_sensor_pga_PVT.h"
  17:Generated_Source\PSoC4/engine_sensor_pga.c **** 
  18:Generated_Source\PSoC4/engine_sensor_pga.c **** 
  19:Generated_Source\PSoC4/engine_sensor_pga.c **** uint8 engine_sensor_pga_initVar = 0u; /**< Describes the init state of the component */
  20:Generated_Source\PSoC4/engine_sensor_pga.c **** 
  21:Generated_Source\PSoC4/engine_sensor_pga.c **** uint32 engine_sensor_pga_internalGainPower = 0u; /**< Stores component Gain, Power and Enable value
  22:Generated_Source\PSoC4/engine_sensor_pga.c **** 
  23:Generated_Source\PSoC4/engine_sensor_pga.c **** /***************************************************************************//**
  24:Generated_Source\PSoC4/engine_sensor_pga.c **** * Compensation table 
  25:Generated_Source\PSoC4/engine_sensor_pga.c **** *
  26:Generated_Source\PSoC4/engine_sensor_pga.c **** * There is a feedback compensation capacitor recomended setting (for certain 
  27:Generated_Source\PSoC4/engine_sensor_pga.c **** * gain and power setting) under the mask 0x0F000000u
  28:Generated_Source\PSoC4/engine_sensor_pga.c **** * or (engine_sensor_pga_C_FB_MASK)
  29:Generated_Source\PSoC4/engine_sensor_pga.c **** *
  30:Generated_Source\PSoC4/engine_sensor_pga.c **** * Also there is an OpAmp compensation recomended setting (for certain 
  31:Generated_Source\PSoC4/engine_sensor_pga.c **** * gain and power setting) under the mask 0x00000003u
  32:Generated_Source\PSoC4/engine_sensor_pga.c **** * or (engine_sensor_pga_GET_OA_COMP_TRIM)
  33:Generated_Source\PSoC4/engine_sensor_pga.c **** *
  34:Generated_Source\PSoC4/engine_sensor_pga.c **** * There is only 6 values for whole gain range because the recommended 
  35:Generated_Source\PSoC4/engine_sensor_pga.c **** * values are for each pair of adjacent gain values, e.g.:
  36:Generated_Source\PSoC4/engine_sensor_pga.c **** * the first (index = 0) value is for gain = 1 and 1.4,
  37:Generated_Source\PSoC4/engine_sensor_pga.c **** * the second (index = 1) value is for gain = 2 and 2.8,and so on,
  38:Generated_Source\PSoC4/engine_sensor_pga.c **** * and the sixth (index = 5) value is for gain = 32 only.
  39:Generated_Source\PSoC4/engine_sensor_pga.c **** *******************************************************************************/
  40:Generated_Source\PSoC4/engine_sensor_pga.c **** const uint32 engine_sensor_pga_compTab[engine_sensor_pga_COMP_TAB_HEIGHT][engine_sensor_pga_COMP_TA
  41:Generated_Source\PSoC4/engine_sensor_pga.c **** {
  42:Generated_Source\PSoC4/engine_sensor_pga.c **** #if (engine_sensor_pga_CHECK_OUTPUT_MODE) /* Class AB */
  43:Generated_Source\PSoC4/engine_sensor_pga.c ****     {0x0F000002u, 0x0F000002u, 0x0F000002u},
  44:Generated_Source\PSoC4/engine_sensor_pga.c ****     {0x07000002u, 0x09000002u, 0x09000002u},
  45:Generated_Source\PSoC4/engine_sensor_pga.c ****     {0x04000002u, 0x04000002u, 0x04000002u},
  46:Generated_Source\PSoC4/engine_sensor_pga.c ****     {0x03000001u, 0x02000002u, 0x03000002u},
  47:Generated_Source\PSoC4/engine_sensor_pga.c ****     {0x01000001u, 0x00000002u, 0x00000002u},
  48:Generated_Source\PSoC4/engine_sensor_pga.c ****     {0x01000001u, 0x01000001u, 0x02000001u}
  49:Generated_Source\PSoC4/engine_sensor_pga.c **** #else /* Class A */
  50:Generated_Source\PSoC4/engine_sensor_pga.c ****     {0x0F000002u, 0x0F000002u, 0x0F000002u},
  51:Generated_Source\PSoC4/engine_sensor_pga.c ****     {0x08000002u, 0x09000002u, 0x09000002u},
  52:Generated_Source\PSoC4/engine_sensor_pga.c ****     {0x03000001u, 0x05000002u, 0x04000002u},
  53:Generated_Source\PSoC4/engine_sensor_pga.c ****     {0x00000001u, 0x02000002u, 0x03000002u},
ARM GAS  C:\Users\fneves\AppData\Local\Temp\ccFk0uFz.s 			page 3


  54:Generated_Source\PSoC4/engine_sensor_pga.c ****     {0x00000001u, 0x00000002u, 0x01000002u},
  55:Generated_Source\PSoC4/engine_sensor_pga.c ****     {0x00000001u, 0x00000001u, 0x00000001u}
  56:Generated_Source\PSoC4/engine_sensor_pga.c **** #endif /* engine_sensor_pga_OUTPUT_MODE */
  57:Generated_Source\PSoC4/engine_sensor_pga.c **** };
  58:Generated_Source\PSoC4/engine_sensor_pga.c **** 
  59:Generated_Source\PSoC4/engine_sensor_pga.c **** 
  60:Generated_Source\PSoC4/engine_sensor_pga.c **** /*******************************************************************************   
  61:Generated_Source\PSoC4/engine_sensor_pga.c **** * Function Name: engine_sensor_pga_Init
  62:Generated_Source\PSoC4/engine_sensor_pga.c **** ****************************************************************************//**
  63:Generated_Source\PSoC4/engine_sensor_pga.c **** *
  64:Generated_Source\PSoC4/engine_sensor_pga.c **** *  Initializes component's parameters to the values set by user in the 
  65:Generated_Source\PSoC4/engine_sensor_pga.c **** *  customizer of the component placed onto schematic. Usually it is called in 
  66:Generated_Source\PSoC4/engine_sensor_pga.c **** *  engine_sensor_pga_Start().
  67:Generated_Source\PSoC4/engine_sensor_pga.c **** *
  68:Generated_Source\PSoC4/engine_sensor_pga.c **** *******************************************************************************/
  69:Generated_Source\PSoC4/engine_sensor_pga.c **** void engine_sensor_pga_Init(void)
  70:Generated_Source\PSoC4/engine_sensor_pga.c **** {
  62              		.loc 1 70 0
  63              		.cfi_startproc
  64 0000 80B5     		push	{r7, lr}
  65              		.cfi_def_cfa_offset 8
  66              		.cfi_offset 7, -8
  67              		.cfi_offset 14, -4
  68 0002 00AF     		add	r7, sp, #0
  69              		.cfi_def_cfa_register 7
  71:Generated_Source\PSoC4/engine_sensor_pga.c ****     /* Set default internal variable value */
  72:Generated_Source\PSoC4/engine_sensor_pga.c ****     engine_sensor_pga_internalGainPower = engine_sensor_pga_DEFAULT_GAIN_POWER;
  70              		.loc 1 72 0
  71 0004 104B     		ldr	r3, .L3
  72 0006 114A     		ldr	r2, .L3+4
  73 0008 1A60     		str	r2, [r3]
  73:Generated_Source\PSoC4/engine_sensor_pga.c ****     
  74:Generated_Source\PSoC4/engine_sensor_pga.c ****     /* Set default register values */
  75:Generated_Source\PSoC4/engine_sensor_pga.c ****     engine_sensor_pga_CTB_CTRL_REG |= engine_sensor_pga_DEFAULT_CTB_CTRL;
  74              		.loc 1 75 0
  75 000a 114B     		ldr	r3, .L3+8
  76 000c 104A     		ldr	r2, .L3+8
  77 000e 1268     		ldr	r2, [r2]
  78 0010 8021     		mov	r1, #128
  79 0012 0906     		lsl	r1, r1, #24
  80 0014 0A43     		orr	r2, r1
  81 0016 1A60     		str	r2, [r3]
  76:Generated_Source\PSoC4/engine_sensor_pga.c ****     engine_sensor_pga_OA_RES_CTRL_REG &= (uint32) ~engine_sensor_pga_DEFAULT_OA_RES_CTRL_MASK;
  82              		.loc 1 76 0
  83 0018 0E4B     		ldr	r3, .L3+12
  84 001a 0E4A     		ldr	r2, .L3+12
  85 001c 1268     		ldr	r2, [r2]
  86 001e 0E49     		ldr	r1, .L3+16
  87 0020 0A40     		and	r2, r1
  88 0022 1A60     		str	r2, [r3]
  77:Generated_Source\PSoC4/engine_sensor_pga.c ****     engine_sensor_pga_OA_RES_CTRL_REG |= engine_sensor_pga_DEFAULT_OA_RES_CTRL;
  89              		.loc 1 77 0
  90 0024 0B4B     		ldr	r3, .L3+12
  91 0026 0B4A     		ldr	r2, .L3+12
  92 0028 1268     		ldr	r2, [r2]
  93 002a 0C49     		ldr	r1, .L3+20
  94 002c 0A43     		orr	r2, r1
ARM GAS  C:\Users\fneves\AppData\Local\Temp\ccFk0uFz.s 			page 4


  95 002e 1A60     		str	r2, [r3]
  78:Generated_Source\PSoC4/engine_sensor_pga.c ****     
  79:Generated_Source\PSoC4/engine_sensor_pga.c ****     #if (engine_sensor_pga_VREF_MODE == engine_sensor_pga_VREF_INTERNAL)
  80:Generated_Source\PSoC4/engine_sensor_pga.c ****         /* Configure resistor matrix bottom to the internal Vss */
  81:Generated_Source\PSoC4/engine_sensor_pga.c ****         engine_sensor_pga_OA_SW_REG |= engine_sensor_pga_RBOT_TO_VSSA;
  82:Generated_Source\PSoC4/engine_sensor_pga.c ****     #endif /* Vref Internal */
  83:Generated_Source\PSoC4/engine_sensor_pga.c ****     
  84:Generated_Source\PSoC4/engine_sensor_pga.c ****     /* Check if component has been enabled */
  85:Generated_Source\PSoC4/engine_sensor_pga.c ****     if((engine_sensor_pga_OA_RES_CTRL_REG & engine_sensor_pga_OA_PWR_MODE_MASK) != 0u)
  96              		.loc 1 85 0
  97 0030 084B     		ldr	r3, .L3+12
  98 0032 1B68     		ldr	r3, [r3]
  99 0034 0322     		mov	r2, #3
 100 0036 1340     		and	r3, r2
 101 0038 01D0     		beq	.L2
  86:Generated_Source\PSoC4/engine_sensor_pga.c ****     {
  87:Generated_Source\PSoC4/engine_sensor_pga.c ****         /* Set the default power level */
  88:Generated_Source\PSoC4/engine_sensor_pga.c ****         engine_sensor_pga_Enable();
 102              		.loc 1 88 0
 103 003a FFF7FEFF 		bl	engine_sensor_pga_Enable
 104              	.L2:
  89:Generated_Source\PSoC4/engine_sensor_pga.c ****     }
  90:Generated_Source\PSoC4/engine_sensor_pga.c ****     
  91:Generated_Source\PSoC4/engine_sensor_pga.c ****     /* Set default gain and correspondent Cfb and OA_trim values */
  92:Generated_Source\PSoC4/engine_sensor_pga.c ****     engine_sensor_pga_SetGain(engine_sensor_pga_GAIN);
 105              		.loc 1 92 0
 106 003e 0820     		mov	r0, #8
 107 0040 FFF7FEFF 		bl	engine_sensor_pga_SetGain
  93:Generated_Source\PSoC4/engine_sensor_pga.c **** }
 108              		.loc 1 93 0
 109 0044 BD46     		mov	sp, r7
 110              		@ sp needed
 111 0046 80BD     		pop	{r7, pc}
 112              	.L4:
 113              		.align	2
 114              	.L3:
 115 0048 00000000 		.word	engine_sensor_pga_internalGainPower
 116 004c 03000800 		.word	524291
 117 0050 00003140 		.word	1076953088
 118 0054 04003140 		.word	1076953092
 119 0058 FBF7FFFF 		.word	-2053
 120 005c 04080000 		.word	2052
 121              		.cfi_endproc
 122              	.LFE0:
 123              		.size	engine_sensor_pga_Init, .-engine_sensor_pga_Init
 124              		.section	.text.engine_sensor_pga_Enable,"ax",%progbits
 125              		.align	2
 126              		.global	engine_sensor_pga_Enable
 127              		.code	16
 128              		.thumb_func
 129              		.type	engine_sensor_pga_Enable, %function
 130              	engine_sensor_pga_Enable:
 131              	.LFB1:
  94:Generated_Source\PSoC4/engine_sensor_pga.c **** 
  95:Generated_Source\PSoC4/engine_sensor_pga.c **** 
  96:Generated_Source\PSoC4/engine_sensor_pga.c **** /*******************************************************************************   
  97:Generated_Source\PSoC4/engine_sensor_pga.c **** * Function Name: engine_sensor_pga_Enable
ARM GAS  C:\Users\fneves\AppData\Local\Temp\ccFk0uFz.s 			page 5


  98:Generated_Source\PSoC4/engine_sensor_pga.c **** ****************************************************************************//**
  99:Generated_Source\PSoC4/engine_sensor_pga.c **** *
 100:Generated_Source\PSoC4/engine_sensor_pga.c **** *  Powers up amplifier (to default power level or restored after 
 101:Generated_Source\PSoC4/engine_sensor_pga.c **** *  previous engine_sensor_pga_Stop() call).
 102:Generated_Source\PSoC4/engine_sensor_pga.c **** *  Usually it is called in engine_sensor_pga_Start().
 103:Generated_Source\PSoC4/engine_sensor_pga.c **** *  
 104:Generated_Source\PSoC4/engine_sensor_pga.c **** *******************************************************************************/
 105:Generated_Source\PSoC4/engine_sensor_pga.c **** void engine_sensor_pga_Enable(void)
 106:Generated_Source\PSoC4/engine_sensor_pga.c **** {
 132              		.loc 1 106 0
 133              		.cfi_startproc
 134 0000 80B5     		push	{r7, lr}
 135              		.cfi_def_cfa_offset 8
 136              		.cfi_offset 7, -8
 137              		.cfi_offset 14, -4
 138 0002 00AF     		add	r7, sp, #0
 139              		.cfi_def_cfa_register 7
 107:Generated_Source\PSoC4/engine_sensor_pga.c ****     engine_sensor_pga_OA_RES_CTRL_REG |= engine_sensor_pga_GET_POWER;
 140              		.loc 1 107 0
 141 0004 054A     		ldr	r2, .L6
 142 0006 054B     		ldr	r3, .L6
 143 0008 1968     		ldr	r1, [r3]
 144 000a 054B     		ldr	r3, .L6+4
 145 000c 1B68     		ldr	r3, [r3]
 146 000e 0320     		mov	r0, #3
 147 0010 0340     		and	r3, r0
 148 0012 0B43     		orr	r3, r1
 149 0014 1360     		str	r3, [r2]
 108:Generated_Source\PSoC4/engine_sensor_pga.c **** }
 150              		.loc 1 108 0
 151 0016 BD46     		mov	sp, r7
 152              		@ sp needed
 153 0018 80BD     		pop	{r7, pc}
 154              	.L7:
 155 001a C046     		.align	2
 156              	.L6:
 157 001c 04003140 		.word	1076953092
 158 0020 00000000 		.word	engine_sensor_pga_internalGainPower
 159              		.cfi_endproc
 160              	.LFE1:
 161              		.size	engine_sensor_pga_Enable, .-engine_sensor_pga_Enable
 162              		.section	.text.engine_sensor_pga_Start,"ax",%progbits
 163              		.align	2
 164              		.global	engine_sensor_pga_Start
 165              		.code	16
 166              		.thumb_func
 167              		.type	engine_sensor_pga_Start, %function
 168              	engine_sensor_pga_Start:
 169              	.LFB2:
 109:Generated_Source\PSoC4/engine_sensor_pga.c **** 
 110:Generated_Source\PSoC4/engine_sensor_pga.c **** 
 111:Generated_Source\PSoC4/engine_sensor_pga.c **** /*******************************************************************************
 112:Generated_Source\PSoC4/engine_sensor_pga.c **** * Function Name: engine_sensor_pga_Start
 113:Generated_Source\PSoC4/engine_sensor_pga.c **** ****************************************************************************//**
 114:Generated_Source\PSoC4/engine_sensor_pga.c **** *
 115:Generated_Source\PSoC4/engine_sensor_pga.c **** *  Enables the amplifier operation (calls engine_sensor_pga_Enable).
 116:Generated_Source\PSoC4/engine_sensor_pga.c **** *  Also on the first call (after the system reset) initializes all the component
ARM GAS  C:\Users\fneves\AppData\Local\Temp\ccFk0uFz.s 			page 6


 117:Generated_Source\PSoC4/engine_sensor_pga.c **** *  related registers with default values (calls engine_sensor_pga_Init).
 118:Generated_Source\PSoC4/engine_sensor_pga.c **** *
 119:Generated_Source\PSoC4/engine_sensor_pga.c **** *  \globalvars
 120:Generated_Source\PSoC4/engine_sensor_pga.c **** *   The engine_sensor_pga_initVar variable is used to indicate initial
 121:Generated_Source\PSoC4/engine_sensor_pga.c **** *   configuration of this component. The variable is initialized to zero (0u)
 122:Generated_Source\PSoC4/engine_sensor_pga.c **** *   and set to one (1u) at the first time engine_sensor_pga_Start() is called.
 123:Generated_Source\PSoC4/engine_sensor_pga.c **** *   This allows to enable the component without re-initialization in all
 124:Generated_Source\PSoC4/engine_sensor_pga.c **** *   subsequent calls of the engine_sensor_pga_Start() routine.
 125:Generated_Source\PSoC4/engine_sensor_pga.c **** *
 126:Generated_Source\PSoC4/engine_sensor_pga.c **** *******************************************************************************/
 127:Generated_Source\PSoC4/engine_sensor_pga.c **** void engine_sensor_pga_Start(void)
 128:Generated_Source\PSoC4/engine_sensor_pga.c **** {
 170              		.loc 1 128 0
 171              		.cfi_startproc
 172 0000 80B5     		push	{r7, lr}
 173              		.cfi_def_cfa_offset 8
 174              		.cfi_offset 7, -8
 175              		.cfi_offset 14, -4
 176 0002 00AF     		add	r7, sp, #0
 177              		.cfi_def_cfa_register 7
 129:Generated_Source\PSoC4/engine_sensor_pga.c ****     if(engine_sensor_pga_initVar == 0u)
 178              		.loc 1 129 0
 179 0004 064B     		ldr	r3, .L10
 180 0006 1B78     		ldrb	r3, [r3]
 181 0008 002B     		cmp	r3, #0
 182 000a 04D1     		bne	.L9
 130:Generated_Source\PSoC4/engine_sensor_pga.c ****     {
 131:Generated_Source\PSoC4/engine_sensor_pga.c ****         engine_sensor_pga_Init();
 183              		.loc 1 131 0
 184 000c FFF7FEFF 		bl	engine_sensor_pga_Init
 132:Generated_Source\PSoC4/engine_sensor_pga.c ****         engine_sensor_pga_initVar = 1u;
 185              		.loc 1 132 0
 186 0010 034B     		ldr	r3, .L10
 187 0012 0122     		mov	r2, #1
 188 0014 1A70     		strb	r2, [r3]
 189              	.L9:
 133:Generated_Source\PSoC4/engine_sensor_pga.c ****     }
 134:Generated_Source\PSoC4/engine_sensor_pga.c **** 
 135:Generated_Source\PSoC4/engine_sensor_pga.c ****     engine_sensor_pga_Enable();
 190              		.loc 1 135 0
 191 0016 FFF7FEFF 		bl	engine_sensor_pga_Enable
 136:Generated_Source\PSoC4/engine_sensor_pga.c **** }
 192              		.loc 1 136 0
 193 001a BD46     		mov	sp, r7
 194              		@ sp needed
 195 001c 80BD     		pop	{r7, pc}
 196              	.L11:
 197 001e C046     		.align	2
 198              	.L10:
 199 0020 00000000 		.word	engine_sensor_pga_initVar
 200              		.cfi_endproc
 201              	.LFE2:
 202              		.size	engine_sensor_pga_Start, .-engine_sensor_pga_Start
 203              		.section	.text.engine_sensor_pga_Stop,"ax",%progbits
 204              		.align	2
 205              		.global	engine_sensor_pga_Stop
 206              		.code	16
ARM GAS  C:\Users\fneves\AppData\Local\Temp\ccFk0uFz.s 			page 7


 207              		.thumb_func
 208              		.type	engine_sensor_pga_Stop, %function
 209              	engine_sensor_pga_Stop:
 210              	.LFB3:
 137:Generated_Source\PSoC4/engine_sensor_pga.c **** 
 138:Generated_Source\PSoC4/engine_sensor_pga.c **** 
 139:Generated_Source\PSoC4/engine_sensor_pga.c **** /*******************************************************************************
 140:Generated_Source\PSoC4/engine_sensor_pga.c **** * Function Name: engine_sensor_pga_Stop
 141:Generated_Source\PSoC4/engine_sensor_pga.c **** ****************************************************************************//**
 142:Generated_Source\PSoC4/engine_sensor_pga.c **** *
 143:Generated_Source\PSoC4/engine_sensor_pga.c **** *  Powers down the amplifier.
 144:Generated_Source\PSoC4/engine_sensor_pga.c **** *
 145:Generated_Source\PSoC4/engine_sensor_pga.c **** *******************************************************************************/
 146:Generated_Source\PSoC4/engine_sensor_pga.c **** void engine_sensor_pga_Stop(void)
 147:Generated_Source\PSoC4/engine_sensor_pga.c **** { 
 211              		.loc 1 147 0
 212              		.cfi_startproc
 213 0000 80B5     		push	{r7, lr}
 214              		.cfi_def_cfa_offset 8
 215              		.cfi_offset 7, -8
 216              		.cfi_offset 14, -4
 217 0002 00AF     		add	r7, sp, #0
 218              		.cfi_def_cfa_register 7
 148:Generated_Source\PSoC4/engine_sensor_pga.c ****     engine_sensor_pga_OA_RES_CTRL_REG &= (uint32)~engine_sensor_pga_OA_PWR_MODE_MASK;
 219              		.loc 1 148 0
 220 0004 034B     		ldr	r3, .L13
 221 0006 034A     		ldr	r2, .L13
 222 0008 1268     		ldr	r2, [r2]
 223 000a 0321     		mov	r1, #3
 224 000c 8A43     		bic	r2, r1
 225 000e 1A60     		str	r2, [r3]
 149:Generated_Source\PSoC4/engine_sensor_pga.c **** }
 226              		.loc 1 149 0
 227 0010 BD46     		mov	sp, r7
 228              		@ sp needed
 229 0012 80BD     		pop	{r7, pc}
 230              	.L14:
 231              		.align	2
 232              	.L13:
 233 0014 04003140 		.word	1076953092
 234              		.cfi_endproc
 235              	.LFE3:
 236              		.size	engine_sensor_pga_Stop, .-engine_sensor_pga_Stop
 237              		.section	.text.engine_sensor_pga_SetPower,"ax",%progbits
 238              		.align	2
 239              		.global	engine_sensor_pga_SetPower
 240              		.code	16
 241              		.thumb_func
 242              		.type	engine_sensor_pga_SetPower, %function
 243              	engine_sensor_pga_SetPower:
 244              	.LFB4:
 150:Generated_Source\PSoC4/engine_sensor_pga.c **** 
 151:Generated_Source\PSoC4/engine_sensor_pga.c **** 
 152:Generated_Source\PSoC4/engine_sensor_pga.c **** /*******************************************************************************
 153:Generated_Source\PSoC4/engine_sensor_pga.c **** * Function Name: engine_sensor_pga_SetPower
 154:Generated_Source\PSoC4/engine_sensor_pga.c **** ****************************************************************************//**
 155:Generated_Source\PSoC4/engine_sensor_pga.c **** *
ARM GAS  C:\Users\fneves\AppData\Local\Temp\ccFk0uFz.s 			page 8


 156:Generated_Source\PSoC4/engine_sensor_pga.c **** *  Sets the power level of amplifier.
 157:Generated_Source\PSoC4/engine_sensor_pga.c **** *
 158:Generated_Source\PSoC4/engine_sensor_pga.c **** * \param powerLevel
 159:Generated_Source\PSoC4/engine_sensor_pga.c **** *  The power level setting of amplifier. Possible values:
 160:Generated_Source\PSoC4/engine_sensor_pga.c **** *   * engine_sensor_pga_LOW - The lowest power consumption.
 161:Generated_Source\PSoC4/engine_sensor_pga.c **** *   * engine_sensor_pga_MED - The middle setting.
 162:Generated_Source\PSoC4/engine_sensor_pga.c **** *   * engine_sensor_pga_HIGH - The highest amplifier bandwidth.
 163:Generated_Source\PSoC4/engine_sensor_pga.c **** *
 164:Generated_Source\PSoC4/engine_sensor_pga.c **** *  \internal
 165:Generated_Source\PSoC4/engine_sensor_pga.c **** *   The engine_sensor_pga_internalGainPower variable is used to store the
 166:Generated_Source\PSoC4/engine_sensor_pga.c **** *   current gain and power level to set appropriate compensation settings.
 167:Generated_Source\PSoC4/engine_sensor_pga.c **** *
 168:Generated_Source\PSoC4/engine_sensor_pga.c **** *******************************************************************************/
 169:Generated_Source\PSoC4/engine_sensor_pga.c **** void engine_sensor_pga_SetPower(uint32 powerLevel)
 170:Generated_Source\PSoC4/engine_sensor_pga.c **** {
 245              		.loc 1 170 0
 246              		.cfi_startproc
 247 0000 B0B5     		push	{r4, r5, r7, lr}
 248              		.cfi_def_cfa_offset 16
 249              		.cfi_offset 4, -16
 250              		.cfi_offset 5, -12
 251              		.cfi_offset 7, -8
 252              		.cfi_offset 14, -4
 253 0002 84B0     		sub	sp, sp, #16
 254              		.cfi_def_cfa_offset 32
 255 0004 00AF     		add	r7, sp, #0
 256              		.cfi_def_cfa_register 7
 257 0006 7860     		str	r0, [r7, #4]
 171:Generated_Source\PSoC4/engine_sensor_pga.c ****     uint32 locTmp;
 172:Generated_Source\PSoC4/engine_sensor_pga.c ****     
 173:Generated_Source\PSoC4/engine_sensor_pga.c ****     /* Save the powerLevel */
 174:Generated_Source\PSoC4/engine_sensor_pga.c ****     engine_sensor_pga_internalGainPower &= (uint32) ~engine_sensor_pga_OA_PWR_MODE_MASK;
 258              		.loc 1 174 0
 259 0008 244B     		ldr	r3, .L16
 260 000a 1B68     		ldr	r3, [r3]
 261 000c 0322     		mov	r2, #3
 262 000e 9343     		bic	r3, r2
 263 0010 1A1C     		mov	r2, r3
 264 0012 224B     		ldr	r3, .L16
 265 0014 1A60     		str	r2, [r3]
 175:Generated_Source\PSoC4/engine_sensor_pga.c ****     engine_sensor_pga_internalGainPower |= powerLevel & engine_sensor_pga_OA_PWR_MODE_MASK;
 266              		.loc 1 175 0
 267 0016 7B68     		ldr	r3, [r7, #4]
 268 0018 0322     		mov	r2, #3
 269 001a 1A40     		and	r2, r3
 270 001c 1F4B     		ldr	r3, .L16
 271 001e 1B68     		ldr	r3, [r3]
 272 0020 1A43     		orr	r2, r3
 273 0022 1E4B     		ldr	r3, .L16
 274 0024 1A60     		str	r2, [r3]
 176:Generated_Source\PSoC4/engine_sensor_pga.c ****     
 177:Generated_Source\PSoC4/engine_sensor_pga.c ****     /* Save the rest of register bitfields */
 178:Generated_Source\PSoC4/engine_sensor_pga.c ****     locTmp = engine_sensor_pga_OA_RES_CTRL_REG &
 275              		.loc 1 178 0
 276 0026 1E4B     		ldr	r3, .L16+4
 277 0028 1B68     		ldr	r3, [r3]
 278 002a 1E4A     		ldr	r2, .L16+8
ARM GAS  C:\Users\fneves\AppData\Local\Temp\ccFk0uFz.s 			page 9


 279 002c 1340     		and	r3, r2
 280 002e FB60     		str	r3, [r7, #12]
 179:Generated_Source\PSoC4/engine_sensor_pga.c ****         (uint32)~(engine_sensor_pga_OA_PWR_MODE_MASK | engine_sensor_pga_C_FB_MASK);
 180:Generated_Source\PSoC4/engine_sensor_pga.c ****            
 181:Generated_Source\PSoC4/engine_sensor_pga.c ****     /* Set the power and the feedback capacitor values into the control register */
 182:Generated_Source\PSoC4/engine_sensor_pga.c ****     engine_sensor_pga_OA_RES_CTRL_REG  = locTmp | engine_sensor_pga_GET_POWER | engine_sensor_pga_G
 281              		.loc 1 182 0
 282 0030 1B4A     		ldr	r2, .L16+4
 283 0032 1A4B     		ldr	r3, .L16
 284 0034 1B68     		ldr	r3, [r3]
 285 0036 0321     		mov	r1, #3
 286 0038 1940     		and	r1, r3
 287 003a FB68     		ldr	r3, [r7, #12]
 288 003c 1943     		orr	r1, r3
 289 003e 081C     		mov	r0, r1
 290 0040 164B     		ldr	r3, .L16
 291 0042 1B68     		ldr	r3, [r3]
 292 0044 5B0C     		lsr	r3, r3, #17
 293 0046 0721     		mov	r1, #7
 294 0048 1940     		and	r1, r3
 295 004a 144B     		ldr	r3, .L16
 296 004c 1B68     		ldr	r3, [r3]
 297 004e 0324     		mov	r4, #3
 298 0050 2340     		and	r3, r4
 299 0052 5D1E     		sub	r5, r3, #1
 300 0054 144C     		ldr	r4, .L16+12
 301 0056 0B1C     		mov	r3, r1
 302 0058 5B00     		lsl	r3, r3, #1
 303 005a 5B18     		add	r3, r3, r1
 304 005c 5B19     		add	r3, r3, r5
 305 005e 9B00     		lsl	r3, r3, #2
 306 0060 1959     		ldr	r1, [r3, r4]
 307 0062 F023     		mov	r3, #240
 308 0064 1B05     		lsl	r3, r3, #20
 309 0066 0B40     		and	r3, r1
 310 0068 0343     		orr	r3, r0
 311 006a 1360     		str	r3, [r2]
 183:Generated_Source\PSoC4/engine_sensor_pga.c ****     
 184:Generated_Source\PSoC4/engine_sensor_pga.c ****     /* Set the OA compensation capacitor value */
 185:Generated_Source\PSoC4/engine_sensor_pga.c ****     engine_sensor_pga_OA_COMP_TRIM_REG = engine_sensor_pga_GET_OA_COMP_TRIM;
 312              		.loc 1 185 0
 313 006c 0F4A     		ldr	r2, .L16+16
 314 006e 0B4B     		ldr	r3, .L16
 315 0070 1B68     		ldr	r3, [r3]
 316 0072 5B0C     		lsr	r3, r3, #17
 317 0074 0721     		mov	r1, #7
 318 0076 1940     		and	r1, r3
 319 0078 084B     		ldr	r3, .L16
 320 007a 1B68     		ldr	r3, [r3]
 321 007c 0320     		mov	r0, #3
 322 007e 0340     		and	r3, r0
 323 0080 5C1E     		sub	r4, r3, #1
 324 0082 0948     		ldr	r0, .L16+12
 325 0084 0B1C     		mov	r3, r1
 326 0086 5B00     		lsl	r3, r3, #1
 327 0088 5B18     		add	r3, r3, r1
 328 008a 1B19     		add	r3, r3, r4
ARM GAS  C:\Users\fneves\AppData\Local\Temp\ccFk0uFz.s 			page 10


 329 008c 9B00     		lsl	r3, r3, #2
 330 008e 1B58     		ldr	r3, [r3, r0]
 331 0090 0321     		mov	r1, #3
 332 0092 0B40     		and	r3, r1
 333 0094 1360     		str	r3, [r2]
 186:Generated_Source\PSoC4/engine_sensor_pga.c **** }
 334              		.loc 1 186 0
 335 0096 BD46     		mov	sp, r7
 336 0098 04B0     		add	sp, sp, #16
 337              		@ sp needed
 338 009a B0BD     		pop	{r4, r5, r7, pc}
 339              	.L17:
 340              		.align	2
 341              	.L16:
 342 009c 00000000 		.word	engine_sensor_pga_internalGainPower
 343 00a0 04003140 		.word	1076953092
 344 00a4 FCFFFFF0 		.word	-251658244
 345 00a8 00000000 		.word	engine_sensor_pga_compTab
 346 00ac 080F3140 		.word	1076956936
 347              		.cfi_endproc
 348              	.LFE4:
 349              		.size	engine_sensor_pga_SetPower, .-engine_sensor_pga_SetPower
 350              		.section	.text.engine_sensor_pga_SetGain,"ax",%progbits
 351              		.align	2
 352              		.global	engine_sensor_pga_SetGain
 353              		.code	16
 354              		.thumb_func
 355              		.type	engine_sensor_pga_SetGain, %function
 356              	engine_sensor_pga_SetGain:
 357              	.LFB5:
 187:Generated_Source\PSoC4/engine_sensor_pga.c **** 
 188:Generated_Source\PSoC4/engine_sensor_pga.c **** 
 189:Generated_Source\PSoC4/engine_sensor_pga.c **** /*******************************************************************************
 190:Generated_Source\PSoC4/engine_sensor_pga.c **** * Function Name: engine_sensor_pga_SetGain
 191:Generated_Source\PSoC4/engine_sensor_pga.c **** ****************************************************************************//**
 192:Generated_Source\PSoC4/engine_sensor_pga.c **** *
 193:Generated_Source\PSoC4/engine_sensor_pga.c **** *  Sets values of the input and feedback resistors to set a 
 194:Generated_Source\PSoC4/engine_sensor_pga.c **** *  specific gain of the amplifier.
 195:Generated_Source\PSoC4/engine_sensor_pga.c **** *
 196:Generated_Source\PSoC4/engine_sensor_pga.c **** * \param gainLevel
 197:Generated_Source\PSoC4/engine_sensor_pga.c **** *  The gain setting of amplifier. Possible values:
 198:Generated_Source\PSoC4/engine_sensor_pga.c **** *   * engine_sensor_pga_GAIN_1    - gain 1.0.
 199:Generated_Source\PSoC4/engine_sensor_pga.c **** *   * engine_sensor_pga_GAIN_1_4  - gain 1.4.
 200:Generated_Source\PSoC4/engine_sensor_pga.c **** *   * engine_sensor_pga_GAIN_2    - gain 2.0.
 201:Generated_Source\PSoC4/engine_sensor_pga.c **** *   * engine_sensor_pga_GAIN_2_8  - gain 2.8.
 202:Generated_Source\PSoC4/engine_sensor_pga.c **** *   * engine_sensor_pga_GAIN_4    - gain 4.0.
 203:Generated_Source\PSoC4/engine_sensor_pga.c **** *   * engine_sensor_pga_GAIN_5_8  - gain 5.8.
 204:Generated_Source\PSoC4/engine_sensor_pga.c **** *   * engine_sensor_pga_GAIN_8    - gain 8.0.
 205:Generated_Source\PSoC4/engine_sensor_pga.c **** *   * engine_sensor_pga_GAIN_10_7 - gain 10.7.
 206:Generated_Source\PSoC4/engine_sensor_pga.c **** *   * engine_sensor_pga_GAIN_16   - gain 16.0
 207:Generated_Source\PSoC4/engine_sensor_pga.c **** *   * engine_sensor_pga_GAIN_21_3 - gain 21.3.
 208:Generated_Source\PSoC4/engine_sensor_pga.c **** *   * engine_sensor_pga_GAIN_32   - gain 32.0.
 209:Generated_Source\PSoC4/engine_sensor_pga.c **** *
 210:Generated_Source\PSoC4/engine_sensor_pga.c **** *  \internal
 211:Generated_Source\PSoC4/engine_sensor_pga.c **** *   The engine_sensor_pga_internalGainPower variable is used to store the
 212:Generated_Source\PSoC4/engine_sensor_pga.c **** *   current gain and power level to set appropriate compensation settings.
 213:Generated_Source\PSoC4/engine_sensor_pga.c **** *
ARM GAS  C:\Users\fneves\AppData\Local\Temp\ccFk0uFz.s 			page 11


 214:Generated_Source\PSoC4/engine_sensor_pga.c **** *******************************************************************************/
 215:Generated_Source\PSoC4/engine_sensor_pga.c **** void engine_sensor_pga_SetGain(uint32 gainLevel)
 216:Generated_Source\PSoC4/engine_sensor_pga.c **** {
 358              		.loc 1 216 0
 359              		.cfi_startproc
 360 0000 B0B5     		push	{r4, r5, r7, lr}
 361              		.cfi_def_cfa_offset 16
 362              		.cfi_offset 4, -16
 363              		.cfi_offset 5, -12
 364              		.cfi_offset 7, -8
 365              		.cfi_offset 14, -4
 366 0002 84B0     		sub	sp, sp, #16
 367              		.cfi_def_cfa_offset 32
 368 0004 00AF     		add	r7, sp, #0
 369              		.cfi_def_cfa_register 7
 370 0006 7860     		str	r0, [r7, #4]
 217:Generated_Source\PSoC4/engine_sensor_pga.c ****     uint32 locTmp;
 218:Generated_Source\PSoC4/engine_sensor_pga.c ****     
 219:Generated_Source\PSoC4/engine_sensor_pga.c ****     /* Save the gainLevel */
 220:Generated_Source\PSoC4/engine_sensor_pga.c ****     engine_sensor_pga_internalGainPower &= (uint32) ~engine_sensor_pga_RES_TAP_MASK;
 371              		.loc 1 220 0
 372 0008 254B     		ldr	r3, .L19
 373 000a 1B68     		ldr	r3, [r3]
 374 000c 254A     		ldr	r2, .L19+4
 375 000e 1A40     		and	r2, r3
 376 0010 234B     		ldr	r3, .L19
 377 0012 1A60     		str	r2, [r3]
 221:Generated_Source\PSoC4/engine_sensor_pga.c ****     engine_sensor_pga_internalGainPower |= ((uint32)(gainLevel << engine_sensor_pga_RES_TAP_SHIFT))
 378              		.loc 1 221 0
 379 0014 7B68     		ldr	r3, [r7, #4]
 380 0016 1A04     		lsl	r2, r3, #16
 381 0018 F023     		mov	r3, #240
 382 001a 1B03     		lsl	r3, r3, #12
 383 001c 1A40     		and	r2, r3
 384 001e 204B     		ldr	r3, .L19
 385 0020 1B68     		ldr	r3, [r3]
 386 0022 1A43     		orr	r2, r3
 387 0024 1E4B     		ldr	r3, .L19
 388 0026 1A60     		str	r2, [r3]
 222:Generated_Source\PSoC4/engine_sensor_pga.c ****                                                                  engine_sensor_pga_RES_TAP_MASK;
 223:Generated_Source\PSoC4/engine_sensor_pga.c ****     /* Save the rest of register bitfields */
 224:Generated_Source\PSoC4/engine_sensor_pga.c ****     locTmp = engine_sensor_pga_OA_RES_CTRL_REG &
 389              		.loc 1 224 0
 390 0028 1F4B     		ldr	r3, .L19+8
 391 002a 1B68     		ldr	r3, [r3]
 392 002c 1F4A     		ldr	r2, .L19+12
 393 002e 1340     		and	r3, r2
 394 0030 FB60     		str	r3, [r7, #12]
 225:Generated_Source\PSoC4/engine_sensor_pga.c ****         (uint32)~(engine_sensor_pga_RES_TAP_MASK | engine_sensor_pga_C_FB_MASK);
 226:Generated_Source\PSoC4/engine_sensor_pga.c ****     
 227:Generated_Source\PSoC4/engine_sensor_pga.c ****     /* Set the gain and the feedback capacitor values into the control register */
 228:Generated_Source\PSoC4/engine_sensor_pga.c ****     engine_sensor_pga_OA_RES_CTRL_REG = locTmp | (engine_sensor_pga_internalGainPower &
 395              		.loc 1 228 0
 396 0032 1D4A     		ldr	r2, .L19+8
 397 0034 1A4B     		ldr	r3, .L19
 398 0036 1968     		ldr	r1, [r3]
 399 0038 F023     		mov	r3, #240
ARM GAS  C:\Users\fneves\AppData\Local\Temp\ccFk0uFz.s 			page 12


 400 003a 1B03     		lsl	r3, r3, #12
 401 003c 1940     		and	r1, r3
 402 003e FB68     		ldr	r3, [r7, #12]
 403 0040 1943     		orr	r1, r3
 404 0042 081C     		mov	r0, r1
 229:Generated_Source\PSoC4/engine_sensor_pga.c ****         engine_sensor_pga_RES_TAP_MASK) | engine_sensor_pga_GET_C_FB;
 405              		.loc 1 229 0
 406 0044 164B     		ldr	r3, .L19
 407 0046 1B68     		ldr	r3, [r3]
 408 0048 5B0C     		lsr	r3, r3, #17
 409 004a 0721     		mov	r1, #7
 410 004c 1940     		and	r1, r3
 411 004e 144B     		ldr	r3, .L19
 412 0050 1B68     		ldr	r3, [r3]
 413 0052 0324     		mov	r4, #3
 414 0054 2340     		and	r3, r4
 415 0056 5D1E     		sub	r5, r3, #1
 416 0058 154C     		ldr	r4, .L19+16
 417 005a 0B1C     		mov	r3, r1
 418 005c 5B00     		lsl	r3, r3, #1
 419 005e 5B18     		add	r3, r3, r1
 420 0060 5B19     		add	r3, r3, r5
 421 0062 9B00     		lsl	r3, r3, #2
 422 0064 1959     		ldr	r1, [r3, r4]
 423 0066 F023     		mov	r3, #240
 424 0068 1B05     		lsl	r3, r3, #20
 425 006a 0B40     		and	r3, r1
 426 006c 0343     		orr	r3, r0
 228:Generated_Source\PSoC4/engine_sensor_pga.c ****         engine_sensor_pga_RES_TAP_MASK) | engine_sensor_pga_GET_C_FB;
 427              		.loc 1 228 0
 428 006e 1360     		str	r3, [r2]
 230:Generated_Source\PSoC4/engine_sensor_pga.c ****     
 231:Generated_Source\PSoC4/engine_sensor_pga.c ****     /* Set the OA compensation capacitor value */
 232:Generated_Source\PSoC4/engine_sensor_pga.c ****     engine_sensor_pga_OA_COMP_TRIM_REG = engine_sensor_pga_GET_OA_COMP_TRIM;
 429              		.loc 1 232 0
 430 0070 104A     		ldr	r2, .L19+20
 431 0072 0B4B     		ldr	r3, .L19
 432 0074 1B68     		ldr	r3, [r3]
 433 0076 5B0C     		lsr	r3, r3, #17
 434 0078 0721     		mov	r1, #7
 435 007a 1940     		and	r1, r3
 436 007c 084B     		ldr	r3, .L19
 437 007e 1B68     		ldr	r3, [r3]
 438 0080 0320     		mov	r0, #3
 439 0082 0340     		and	r3, r0
 440 0084 5C1E     		sub	r4, r3, #1
 441 0086 0A48     		ldr	r0, .L19+16
 442 0088 0B1C     		mov	r3, r1
 443 008a 5B00     		lsl	r3, r3, #1
 444 008c 5B18     		add	r3, r3, r1
 445 008e 1B19     		add	r3, r3, r4
 446 0090 9B00     		lsl	r3, r3, #2
 447 0092 1B58     		ldr	r3, [r3, r0]
 448 0094 0321     		mov	r1, #3
 449 0096 0B40     		and	r3, r1
 450 0098 1360     		str	r3, [r2]
 233:Generated_Source\PSoC4/engine_sensor_pga.c **** }
ARM GAS  C:\Users\fneves\AppData\Local\Temp\ccFk0uFz.s 			page 13


 451              		.loc 1 233 0
 452 009a BD46     		mov	sp, r7
 453 009c 04B0     		add	sp, sp, #16
 454              		@ sp needed
 455 009e B0BD     		pop	{r4, r5, r7, pc}
 456              	.L20:
 457              		.align	2
 458              	.L19:
 459 00a0 00000000 		.word	engine_sensor_pga_internalGainPower
 460 00a4 FFFFF0FF 		.word	-983041
 461 00a8 04003140 		.word	1076953092
 462 00ac FFFFF0F0 		.word	-252641281
 463 00b0 00000000 		.word	engine_sensor_pga_compTab
 464 00b4 080F3140 		.word	1076956936
 465              		.cfi_endproc
 466              	.LFE5:
 467              		.size	engine_sensor_pga_SetGain, .-engine_sensor_pga_SetGain
 468              		.section	.text.engine_sensor_pga_PumpControl,"ax",%progbits
 469              		.align	2
 470              		.global	engine_sensor_pga_PumpControl
 471              		.code	16
 472              		.thumb_func
 473              		.type	engine_sensor_pga_PumpControl, %function
 474              	engine_sensor_pga_PumpControl:
 475              	.LFB6:
 234:Generated_Source\PSoC4/engine_sensor_pga.c **** 
 235:Generated_Source\PSoC4/engine_sensor_pga.c **** 
 236:Generated_Source\PSoC4/engine_sensor_pga.c **** /*******************************************************************************
 237:Generated_Source\PSoC4/engine_sensor_pga.c **** * Function Name: engine_sensor_pga_PumpControl
 238:Generated_Source\PSoC4/engine_sensor_pga.c **** ****************************************************************************//**
 239:Generated_Source\PSoC4/engine_sensor_pga.c **** *
 240:Generated_Source\PSoC4/engine_sensor_pga.c **** *  Allows the user to turn the amplifier's boost pump on or off.
 241:Generated_Source\PSoC4/engine_sensor_pga.c **** *  By Default the engine_sensor_pga_Init() function turns the pump on.
 242:Generated_Source\PSoC4/engine_sensor_pga.c **** *  
 243:Generated_Source\PSoC4/engine_sensor_pga.c **** * \param onOff
 244:Generated_Source\PSoC4/engine_sensor_pga.c **** *  The boost pump setting. Possible values:
 245:Generated_Source\PSoC4/engine_sensor_pga.c **** *   * engine_sensor_pga_BOOST_OFF - Turn off the pump.
 246:Generated_Source\PSoC4/engine_sensor_pga.c **** *   * engine_sensor_pga_BOOST_ON  - Turn on the pump.
 247:Generated_Source\PSoC4/engine_sensor_pga.c **** *
 248:Generated_Source\PSoC4/engine_sensor_pga.c **** **********************************************************************************/
 249:Generated_Source\PSoC4/engine_sensor_pga.c **** void engine_sensor_pga_PumpControl(uint32 onOff)
 250:Generated_Source\PSoC4/engine_sensor_pga.c **** {
 476              		.loc 1 250 0
 477              		.cfi_startproc
 478 0000 80B5     		push	{r7, lr}
 479              		.cfi_def_cfa_offset 8
 480              		.cfi_offset 7, -8
 481              		.cfi_offset 14, -4
 482 0002 82B0     		sub	sp, sp, #8
 483              		.cfi_def_cfa_offset 16
 484 0004 00AF     		add	r7, sp, #0
 485              		.cfi_def_cfa_register 7
 486 0006 7860     		str	r0, [r7, #4]
 251:Generated_Source\PSoC4/engine_sensor_pga.c ****     if(onOff == engine_sensor_pga_BOOST_ON)
 487              		.loc 1 251 0
 488 0008 7B68     		ldr	r3, [r7, #4]
 489 000a 012B     		cmp	r3, #1
ARM GAS  C:\Users\fneves\AppData\Local\Temp\ccFk0uFz.s 			page 14


 490 000c 07D1     		bne	.L22
 252:Generated_Source\PSoC4/engine_sensor_pga.c ****     {
 253:Generated_Source\PSoC4/engine_sensor_pga.c ****         engine_sensor_pga_OA_RES_CTRL_REG |= engine_sensor_pga_OA_PUMP_EN;
 491              		.loc 1 253 0
 492 000e 084B     		ldr	r3, .L24
 493 0010 074A     		ldr	r2, .L24
 494 0012 1268     		ldr	r2, [r2]
 495 0014 8021     		mov	r1, #128
 496 0016 0901     		lsl	r1, r1, #4
 497 0018 0A43     		orr	r2, r1
 498 001a 1A60     		str	r2, [r3]
 499 001c 05E0     		b	.L21
 500              	.L22:
 254:Generated_Source\PSoC4/engine_sensor_pga.c ****     }
 255:Generated_Source\PSoC4/engine_sensor_pga.c ****     else
 256:Generated_Source\PSoC4/engine_sensor_pga.c ****     {
 257:Generated_Source\PSoC4/engine_sensor_pga.c ****         engine_sensor_pga_OA_RES_CTRL_REG &= (uint32)~engine_sensor_pga_OA_PUMP_EN;
 501              		.loc 1 257 0
 502 001e 044B     		ldr	r3, .L24
 503 0020 034A     		ldr	r2, .L24
 504 0022 1268     		ldr	r2, [r2]
 505 0024 0349     		ldr	r1, .L24+4
 506 0026 0A40     		and	r2, r1
 507 0028 1A60     		str	r2, [r3]
 508              	.L21:
 258:Generated_Source\PSoC4/engine_sensor_pga.c ****     }
 259:Generated_Source\PSoC4/engine_sensor_pga.c **** }
 509              		.loc 1 259 0
 510 002a BD46     		mov	sp, r7
 511 002c 02B0     		add	sp, sp, #8
 512              		@ sp needed
 513 002e 80BD     		pop	{r7, pc}
 514              	.L25:
 515              		.align	2
 516              	.L24:
 517 0030 04003140 		.word	1076953092
 518 0034 FFF7FFFF 		.word	-2049
 519              		.cfi_endproc
 520              	.LFE6:
 521              		.size	engine_sensor_pga_PumpControl, .-engine_sensor_pga_PumpControl
 522              		.text
 523              	.Letext0:
 524              		.file 2 "Generated_Source\\PSoC4\\cytypes.h"