ARM GAS  C:\Users\fneves\AppData\Local\Temp\ccV5UskS.s 			page 1


   1              		.cpu cortex-m0plus
   2              		.fpu softvfp
   3              		.eabi_attribute 20, 1
   4              		.eabi_attribute 21, 1
   5              		.eabi_attribute 23, 3
   6              		.eabi_attribute 24, 1
   7              		.eabi_attribute 25, 1
   8              		.eabi_attribute 26, 1
   9              		.eabi_attribute 30, 6
  10              		.eabi_attribute 34, 0
  11              		.eabi_attribute 18, 4
  12              		.code	16
  13              		.file	"engine_sensor_adc.c"
  14              		.text
  15              	.Ltext0:
  16              		.cfi_sections	.debug_frame
  17              		.global	engine_sensor_adc_initVar
  18              		.bss
  19              		.type	engine_sensor_adc_initVar, %object
  20              		.size	engine_sensor_adc_initVar, 1
  21              	engine_sensor_adc_initVar:
  22 0000 00       		.space	1
  23              		.global	engine_sensor_adc_selected
  24              		.type	engine_sensor_adc_selected, %object
  25              		.size	engine_sensor_adc_selected, 1
  26              	engine_sensor_adc_selected:
  27 0001 00       		.space	1
  28              		.comm	engine_sensor_adc_offset,2,4
  29              		.comm	engine_sensor_adc_countsPer10Volt,4,4
  30 0002 0000     		.align	2
  31              	engine_sensor_adc_currentConfig:
  32 0004 00000000 		.space	4
  33              		.section	.rodata
  34              		.align	2
  35              		.type	engine_sensor_adc_channelsConfig, %object
  36              		.size	engine_sensor_adc_channelsConfig, 4
  37              	engine_sensor_adc_channelsConfig:
  38 0000 00010000 		.word	256
  39              		.data
  40              		.align	2
  41              		.type	engine_sensor_adc_CFG0_UABH_A_FILTER_initPairs, %object
  42              		.size	engine_sensor_adc_CFG0_UABH_A_FILTER_initPairs, 144
  43              	engine_sensor_adc_CFG0_UABH_A_FILTER_initPairs:
  44 0000 00033440 		.word	1077150464
  45 0004 07007080 		.word	-2140143609
  46 0008 30033440 		.word	1077150512
  47 000c 20200000 		.word	8224
  48 0010 34033440 		.word	1077150516
  49 0014 1F1F0000 		.word	7967
  50 0018 78033440 		.word	1077150584
  51 001c 0100003F 		.word	1056964609
  52 0020 20033440 		.word	1077150496
  53 0024 6D000000 		.word	109
  54 0028 74033440 		.word	1077150580
  55 002c 11111100 		.word	1118481
  56 0030 70033440 		.word	1077150576
  57 0034 0000000F 		.word	251658240
ARM GAS  C:\Users\fneves\AppData\Local\Temp\ccV5UskS.s 			page 2


  58 0038 40033440 		.word	1077150528
  59 003c 0000F000 		.word	15728640
  60 0040 48033440 		.word	1077150536
  61 0044 00000F00 		.word	983040
  62 0048 50033440 		.word	1077150544
  63 004c 00001000 		.word	1048576
  64 0050 54033440 		.word	1077150548
  65 0054 00020000 		.word	512
  66 0058 60033440 		.word	1077150560
  67 005c 0C000000 		.word	12
  68 0060 64033440 		.word	1077150564
  69 0064 000B0000 		.word	2816
  70 0068 68033440 		.word	1077150568
  71 006c 00F00F00 		.word	1044480
  72 0070 6C033440 		.word	1077150572
  73 0074 F0000000 		.word	240
  74 0078 04033440 		.word	1077150468
  75 007c 00000000 		.word	0
  76 0080 58033440 		.word	1077150552
  77 0084 20F00100 		.word	127008
  78 0088 08033440 		.word	1077150472
  79 008c 05040C1C 		.word	470549509
  80              		.align	2
  81              		.type	engine_sensor_adc_CFG0_UABH_B_FILTER_initPairs, %object
  82              		.size	engine_sensor_adc_CFG0_UABH_B_FILTER_initPairs, 152
  83              	engine_sensor_adc_CFG0_UABH_B_FILTER_initPairs:
  84 0090 00023440 		.word	1077150208
  85 0094 07000080 		.word	-2147483641
  86 0098 30023440 		.word	1077150256
  87 009c 20200000 		.word	8224
  88 00a0 34023440 		.word	1077150260
  89 00a4 1F1F0000 		.word	7967
  90 00a8 78023440 		.word	1077150328
  91 00ac 0100003F 		.word	1056964609
  92 00b0 20023440 		.word	1077150240
  93 00b4 6D000000 		.word	109
  94 00b8 74023440 		.word	1077150324
  95 00bc 11111100 		.word	1118481
  96 00c0 70023440 		.word	1077150320
  97 00c4 1000000F 		.word	251658256
  98 00c8 40023440 		.word	1077150272
  99 00cc 00001000 		.word	1048576
 100 00d0 44023440 		.word	1077150276
 101 00d4 00020000 		.word	512
 102 00d8 48023440 		.word	1077150280
 103 00dc 10000200 		.word	131088
 104 00e0 50023440 		.word	1077150288
 105 00e4 00C00000 		.word	49152
 106 00e8 54023440 		.word	1077150292
 107 00ec 000B0000 		.word	2816
 108 00f0 60023440 		.word	1077150304
 109 00f4 00A00000 		.word	40960
 110 00f8 64023440 		.word	1077150308
 111 00fc 00090000 		.word	2304
 112 0100 6C023440 		.word	1077150316
 113 0104 F0300000 		.word	12528
 114 0108 04023440 		.word	1077150212
ARM GAS  C:\Users\fneves\AppData\Local\Temp\ccV5UskS.s 			page 3


 115 010c 00000000 		.word	0
 116 0110 58023440 		.word	1077150296
 117 0114 00F00F00 		.word	1044480
 118 0118 68023440 		.word	1077150312
 119 011c 20F01000 		.word	1110048
 120 0120 08023440 		.word	1077150216
 121 0124 8102001A 		.word	436208257
 122              		.align	2
 123              		.type	engine_sensor_adc_CFG0_UABH_A_FILTER_config, %object
 124              		.size	engine_sensor_adc_CFG0_UABH_A_FILTER_config, 12
 125              	engine_sensor_adc_CFG0_UABH_A_FILTER_config:
 126 0128 00000000 		.word	engine_sensor_adc_UABH_A_waveConfig
 127 012c 00000000 		.word	engine_sensor_adc_CFG0_UABH_A_FILTER_initPairs
 128 0130 0010     		.short	4096
 129 0132 02       		.byte	2
 130 0133 12       		.byte	18
 131              		.align	2
 132              		.type	engine_sensor_adc_CFG0_UABH_B_FILTER_config, %object
 133              		.size	engine_sensor_adc_CFG0_UABH_B_FILTER_config, 12
 134              	engine_sensor_adc_CFG0_UABH_B_FILTER_config:
 135 0134 00000000 		.word	engine_sensor_adc_UABH_B_waveConfig
 136 0138 90000000 		.word	engine_sensor_adc_CFG0_UABH_B_FILTER_initPairs
 137 013c 0010     		.short	4096
 138 013e 02       		.byte	2
 139 013f 13       		.byte	19
 140              		.section	.text.engine_sensor_adc_Start,"ax",%progbits
 141              		.align	2
 142              		.global	engine_sensor_adc_Start
 143              		.code	16
 144              		.thumb_func
 145              		.type	engine_sensor_adc_Start, %function
 146              	engine_sensor_adc_Start:
 147              	.LFB1:
 148              		.file 1 "Generated_Source\\PSoC4\\engine_sensor_adc.c"
   1:Generated_Source\PSoC4/engine_sensor_adc.c **** /***************************************************************************//**
   2:Generated_Source\PSoC4/engine_sensor_adc.c **** * \file     engine_sensor_adc.c
   3:Generated_Source\PSoC4/engine_sensor_adc.c **** * \version  1.20
   4:Generated_Source\PSoC4/engine_sensor_adc.c **** *
   5:Generated_Source\PSoC4/engine_sensor_adc.c **** * \brief
   6:Generated_Source\PSoC4/engine_sensor_adc.c **** * Provides the source code to the API for the engine_sensor_adc Component.
   7:Generated_Source\PSoC4/engine_sensor_adc.c **** *
   8:Generated_Source\PSoC4/engine_sensor_adc.c **** ********************************************************************************
   9:Generated_Source\PSoC4/engine_sensor_adc.c **** * \copyright
  10:Generated_Source\PSoC4/engine_sensor_adc.c **** * (c) 2015-2016, Cypress Semiconductor Corporation. All rights reserved.
  11:Generated_Source\PSoC4/engine_sensor_adc.c **** * This software, including source code, documentation and related
  12:Generated_Source\PSoC4/engine_sensor_adc.c **** * materials ("Software"), is owned by Cypress Semiconductor
  13:Generated_Source\PSoC4/engine_sensor_adc.c **** * Corporation ("Cypress") and is protected by and subject to worldwide
  14:Generated_Source\PSoC4/engine_sensor_adc.c **** * patent protection (United States and foreign), United States copyright
  15:Generated_Source\PSoC4/engine_sensor_adc.c **** * laws and international treaty provisions. Therefore, you may use this
  16:Generated_Source\PSoC4/engine_sensor_adc.c **** * Software only as provided in the license agreement accompanying the
  17:Generated_Source\PSoC4/engine_sensor_adc.c **** * software package from which you obtained this Software ("EULA").
  18:Generated_Source\PSoC4/engine_sensor_adc.c **** * If no EULA applies, Cypress hereby grants you a personal, nonexclusive,
  19:Generated_Source\PSoC4/engine_sensor_adc.c **** * non-transferable license to copy, modify, and compile the
  20:Generated_Source\PSoC4/engine_sensor_adc.c **** * Software source code solely for use in connection with Cypress's
  21:Generated_Source\PSoC4/engine_sensor_adc.c **** * integrated circuit products. Any reproduction, modification, translation,
  22:Generated_Source\PSoC4/engine_sensor_adc.c **** * compilation, or representation of this Software except as specified
  23:Generated_Source\PSoC4/engine_sensor_adc.c **** * above is prohibited without the express written permission of Cypress.
ARM GAS  C:\Users\fneves\AppData\Local\Temp\ccV5UskS.s 			page 4


  24:Generated_Source\PSoC4/engine_sensor_adc.c **** * Disclaimer: THIS SOFTWARE IS PROVIDED AS-IS, WITH NO
  25:Generated_Source\PSoC4/engine_sensor_adc.c **** * WARRANTY OF ANY KIND, EXPRESS OR IMPLIED, INCLUDING,
  26:Generated_Source\PSoC4/engine_sensor_adc.c **** * BUT NOT LIMITED TO, NONINFRINGEMENT, IMPLIED
  27:Generated_Source\PSoC4/engine_sensor_adc.c **** * WARRANTIES OF MERCHANTABILITY AND FITNESS FOR A
  28:Generated_Source\PSoC4/engine_sensor_adc.c **** * PARTICULAR PURPOSE. Cypress reserves the right to make
  29:Generated_Source\PSoC4/engine_sensor_adc.c **** * changes to the Software without notice. Cypress does not assume any
  30:Generated_Source\PSoC4/engine_sensor_adc.c **** * liability arising out of the application or use of the Software or any
  31:Generated_Source\PSoC4/engine_sensor_adc.c **** * product or circuit described in the Software. Cypress does not
  32:Generated_Source\PSoC4/engine_sensor_adc.c **** * authorize its products for use in any products where a malfunction or
  33:Generated_Source\PSoC4/engine_sensor_adc.c **** * failure of the Cypress product may reasonably be expected to result in
  34:Generated_Source\PSoC4/engine_sensor_adc.c **** * significant property damage, injury or death ("High Risk Product"). By
  35:Generated_Source\PSoC4/engine_sensor_adc.c **** * including Cypress's product in a High Risk Product, the manufacturer
  36:Generated_Source\PSoC4/engine_sensor_adc.c **** * of such system or application assumes all risk of such use and in doing
  37:Generated_Source\PSoC4/engine_sensor_adc.c **** * so agrees to indemnify Cypress against all liability.
  38:Generated_Source\PSoC4/engine_sensor_adc.c **** *******************************************************************************/
  39:Generated_Source\PSoC4/engine_sensor_adc.c **** #include "engine_sensor_adc.h"
  40:Generated_Source\PSoC4/engine_sensor_adc.c **** 
  41:Generated_Source\PSoC4/engine_sensor_adc.c **** #include <stdlib.h>
  42:Generated_Source\PSoC4/engine_sensor_adc.c **** 
  43:Generated_Source\PSoC4/engine_sensor_adc.c **** static int32 engine_sensor_adc_IsChannelSigned(uint32 chan);
  44:Generated_Source\PSoC4/engine_sensor_adc.c **** #if(engine_sensor_adc_ANY_CONFIG_USES_FILTER	!= 0u)
  45:Generated_Source\PSoC4/engine_sensor_adc.c **** static void engine_sensor_adc_SetupComparatorTrim(void);
  46:Generated_Source\PSoC4/engine_sensor_adc.c **** static void engine_sensor_adc_UndoComparatorTrimSetup(void);
  47:Generated_Source\PSoC4/engine_sensor_adc.c **** static uint32 engine_sensor_adc_RaiseOpampTrimToCrossing(uint32 startTrim);
  48:Generated_Source\PSoC4/engine_sensor_adc.c **** static uint32 engine_sensor_adc_LowerOpampTrimToCrossing(uint32 startTrim);
  49:Generated_Source\PSoC4/engine_sensor_adc.c **** static uint32 engine_sensor_adc_RaiseAgndTrimToCrossing(uint32 startTrim);
  50:Generated_Source\PSoC4/engine_sensor_adc.c **** static uint32 engine_sensor_adc_LowerAgndTrimToCrossing(uint32 startTrim);
  51:Generated_Source\PSoC4/engine_sensor_adc.c **** static uint32 engine_sensor_adc_SetOpampAndAgndTrim(uint32 opampTrim, uint32 agndTrim);
  52:Generated_Source\PSoC4/engine_sensor_adc.c **** static uint32 engine_sensor_adc_SetOpampTrim(uint32 opampTrim);
  53:Generated_Source\PSoC4/engine_sensor_adc.c **** static uint32 engine_sensor_adc_SetAgndTrim(uint32 agndTrim);
  54:Generated_Source\PSoC4/engine_sensor_adc.c **** static uint32 engine_sensor_adc_IncOpampTrim(uint32 trim);
  55:Generated_Source\PSoC4/engine_sensor_adc.c **** static uint32 engine_sensor_adc_DecOpampTrim(uint32 trim);
  56:Generated_Source\PSoC4/engine_sensor_adc.c **** static uint32 engine_sensor_adc_IncAgndTrim(uint32 trim);
  57:Generated_Source\PSoC4/engine_sensor_adc.c **** static uint32 engine_sensor_adc_DecAgndTrim(uint32 trim);
  58:Generated_Source\PSoC4/engine_sensor_adc.c **** #define OFFSET_SAMPLES (30)
  59:Generated_Source\PSoC4/engine_sensor_adc.c **** #endif
  60:Generated_Source\PSoC4/engine_sensor_adc.c **** 
  61:Generated_Source\PSoC4/engine_sensor_adc.c **** uint8 engine_sensor_adc_initVar = 0u; 
  62:Generated_Source\PSoC4/engine_sensor_adc.c **** 
  63:Generated_Source\PSoC4/engine_sensor_adc.c **** uint8 engine_sensor_adc_selected = 0u; /* 0 if no configuration selected. 1 otherwise. */
  64:Generated_Source\PSoC4/engine_sensor_adc.c **** volatile int16 engine_sensor_adc_offset[engine_sensor_adc_TOTAL_CHANNELS_NUM]; 
  65:Generated_Source\PSoC4/engine_sensor_adc.c **** volatile int32 engine_sensor_adc_countsPer10Volt[engine_sensor_adc_TOTAL_CHANNELS_NUM]; 
  66:Generated_Source\PSoC4/engine_sensor_adc.c **** 
  67:Generated_Source\PSoC4/engine_sensor_adc.c **** static uint32 engine_sensor_adc_currentConfig = 0u; /* Currently active configuration */
  68:Generated_Source\PSoC4/engine_sensor_adc.c **** 
  69:Generated_Source\PSoC4/engine_sensor_adc.c **** /*******************************************************************************
  70:Generated_Source\PSoC4/engine_sensor_adc.c **** * Local data allocation
  71:Generated_Source\PSoC4/engine_sensor_adc.c **** *******************************************************************************/
  72:Generated_Source\PSoC4/engine_sensor_adc.c **** /* Channels configuration generated by customiser */
  73:Generated_Source\PSoC4/engine_sensor_adc.c **** static const uint32 CYCODE engine_sensor_adc_channelsConfig[] = { 0x00000100UL,  };
  74:Generated_Source\PSoC4/engine_sensor_adc.c **** 
  75:Generated_Source\PSoC4/engine_sensor_adc.c **** /* Filter init */
  76:Generated_Source\PSoC4/engine_sensor_adc.c **** #if(engine_sensor_adc_ANY_CONFIG_USES_FILTER	!= 0u)
  77:Generated_Source\PSoC4/engine_sensor_adc.c ****     #if (0u != engine_sensor_adc_CFG0_FILTER_PRESENT)
  78:Generated_Source\PSoC4/engine_sensor_adc.c ****         #define engine_sensor_adc_CFG0_UABH_A_FILTER_INITPAIRSSIZE ((engine_sensor_adc_CFG0_FILTERT
  79:Generated_Source\PSoC4/engine_sensor_adc.c ****                                                              ? 18u \
  80:Generated_Source\PSoC4/engine_sensor_adc.c ****                                                              : 18u)
ARM GAS  C:\Users\fneves\AppData\Local\Temp\ccV5UskS.s 			page 5


  81:Generated_Source\PSoC4/engine_sensor_adc.c ****         static CyUAB_reg_pair engine_sensor_adc_CFG0_UABH_A_FILTER_initPairs[engine_sensor_adc_CFG0
  82:Generated_Source\PSoC4/engine_sensor_adc.c ****         {
  83:Generated_Source\PSoC4/engine_sensor_adc.c ****         	/*OA_CTRL default always first element in initPairs*/
  84:Generated_Source\PSoC4/engine_sensor_adc.c ****             /* Topology-invariant registers */
  85:Generated_Source\PSoC4/engine_sensor_adc.c ****              {engine_sensor_adc_UABH_A_OA_CTRL_PTR        , ((uint32)engine_sensor_adc_UABH_A_DEFAU
  86:Generated_Source\PSoC4/engine_sensor_adc.c ****             ,{engine_sensor_adc_UABH_A_SW_STATIC_PTR      , ((uint32)engine_sensor_adc_UABH_A_DEFAU
  87:Generated_Source\PSoC4/engine_sensor_adc.c ****             ,{engine_sensor_adc_UABH_A_SW_MODBIT_SRC_PTR      , ((uint32)engine_sensor_adc_UABH_A_I
  88:Generated_Source\PSoC4/engine_sensor_adc.c ****             ,{engine_sensor_adc_UABH_A_SRAM_CTRL_PTR      , ((uint32)engine_sensor_adc_UABH_A_INVAR
  89:Generated_Source\PSoC4/engine_sensor_adc.c ****             ,{engine_sensor_adc_UABH_A_STARTUP_DELAY_PTR  , ((uint32)engine_sensor_adc_CFG0_UABH_A_
  90:Generated_Source\PSoC4/engine_sensor_adc.c ****             ,{engine_sensor_adc_UABH_A_SW_BOOST_CTRL_PTR  , ((uint32)engine_sensor_adc_UABH_A_DEFAU
  91:Generated_Source\PSoC4/engine_sensor_adc.c ****             ,{engine_sensor_adc_UABH_A_SW_OTHER_PTR  , ((uint32)engine_sensor_adc_UABH_A_DEFAULT_SW
  92:Generated_Source\PSoC4/engine_sensor_adc.c ****             
  93:Generated_Source\PSoC4/engine_sensor_adc.c ****             #if (engine_sensor_adc_CFG0_FILTERTYPE_USED == engine_sensor_adc_FILTERTOPOLOGY_LOW_Q)
  94:Generated_Source\PSoC4/engine_sensor_adc.c ****                 /* Filter-invariant registers */
  95:Generated_Source\PSoC4/engine_sensor_adc.c ****                 ,{engine_sensor_adc_UABH_A_SW_CA_IN0_PTR      , ((uint32)engine_sensor_adc_UABH_A_L
  96:Generated_Source\PSoC4/engine_sensor_adc.c ****                 ,{engine_sensor_adc_UABH_A_SW_CA_TOP_PTR      , ((uint32)engine_sensor_adc_UABH_A_L
  97:Generated_Source\PSoC4/engine_sensor_adc.c ****                 ,{engine_sensor_adc_UABH_A_SW_CC_IN0_PTR      , ((uint32)engine_sensor_adc_UABH_A_L
  98:Generated_Source\PSoC4/engine_sensor_adc.c ****                 ,{engine_sensor_adc_UABH_A_SW_CC_IN1_PTR      , ((uint32)engine_sensor_adc_UABH_A_L
  99:Generated_Source\PSoC4/engine_sensor_adc.c ****                 ,{engine_sensor_adc_UABH_A_SW_CF_BOT_PTR      , ((uint32)engine_sensor_adc_UABH_A_L
 100:Generated_Source\PSoC4/engine_sensor_adc.c **** 
 101:Generated_Source\PSoC4/engine_sensor_adc.c ****                 /* Parameter-based registers */
 102:Generated_Source\PSoC4/engine_sensor_adc.c ****                 ,{engine_sensor_adc_UABH_A_CAP_CTRL_PTR       , ((uint32)engine_sensor_adc_CFG0_UAB
 103:Generated_Source\PSoC4/engine_sensor_adc.c ****                 ,{engine_sensor_adc_UABH_A_SW_CB_IN0_PTR      , ((uint32)engine_sensor_adc_CFG0_UAB
 104:Generated_Source\PSoC4/engine_sensor_adc.c ****                 ,{engine_sensor_adc_UABH_A_SW_CB_IN1_PTR      , ((uint32)engine_sensor_adc_CFG0_UAB
 105:Generated_Source\PSoC4/engine_sensor_adc.c ****                 ,{engine_sensor_adc_UABH_A_SW_CB_TOP_PTR      , ((uint32)engine_sensor_adc_CFG0_UAB
 106:Generated_Source\PSoC4/engine_sensor_adc.c ****                 ,{engine_sensor_adc_UABH_A_SW_CC_TOP_PTR      , ((uint32)engine_sensor_adc_CFG0_UAB
 107:Generated_Source\PSoC4/engine_sensor_adc.c ****                 ,{engine_sensor_adc_UABH_A_CAP_ABCF_VAL_PTR   , ((uint32)engine_sensor_adc_CFG0_UAB
 108:Generated_Source\PSoC4/engine_sensor_adc.c ****             #elif (engine_sensor_adc_CFG0_FILTERTYPE_USED == engine_sensor_adc_FILTERTOPOLOGY_HIGH_
 109:Generated_Source\PSoC4/engine_sensor_adc.c ****                 /* Filter-invariant registers */
 110:Generated_Source\PSoC4/engine_sensor_adc.c ****                 ,{engine_sensor_adc_UABH_A_SW_CA_IN0_PTR      , ((uint32)engine_sensor_adc_UABH_A_H
 111:Generated_Source\PSoC4/engine_sensor_adc.c ****                 ,{engine_sensor_adc_UABH_A_SW_CA_TOP_PTR      , ((uint32)engine_sensor_adc_UABH_A_H
 112:Generated_Source\PSoC4/engine_sensor_adc.c ****                 ,{engine_sensor_adc_UABH_A_SW_CB_IN0_PTR      , ((uint32)engine_sensor_adc_UABH_A_H
 113:Generated_Source\PSoC4/engine_sensor_adc.c ****                 ,{engine_sensor_adc_UABH_A_SW_CB_IN1_PTR      , ((uint32)engine_sensor_adc_UABH_A_H
 114:Generated_Source\PSoC4/engine_sensor_adc.c ****                 ,{engine_sensor_adc_UABH_A_SW_CC_IN0_PTR      , ((uint32)engine_sensor_adc_UABH_A_H
 115:Generated_Source\PSoC4/engine_sensor_adc.c ****                 ,{engine_sensor_adc_UABH_A_SW_CC_IN1_PTR      , ((uint32)engine_sensor_adc_UABH_A_H
 116:Generated_Source\PSoC4/engine_sensor_adc.c ****                 ,{engine_sensor_adc_UABH_A_SW_CC_TOP_PTR      , ((uint32)engine_sensor_adc_UABH_A_H
 117:Generated_Source\PSoC4/engine_sensor_adc.c ****                 ,{engine_sensor_adc_UABH_A_SW_CF_BOT_PTR      , ((uint32)engine_sensor_adc_UABH_A_H
 118:Generated_Source\PSoC4/engine_sensor_adc.c **** 
 119:Generated_Source\PSoC4/engine_sensor_adc.c ****                 /* Parameter-based registers */
 120:Generated_Source\PSoC4/engine_sensor_adc.c ****                 ,{engine_sensor_adc_UABH_A_CAP_CTRL_PTR       , ((uint32)engine_sensor_adc_CFG0_UAB
 121:Generated_Source\PSoC4/engine_sensor_adc.c ****                 ,{engine_sensor_adc_UABH_A_SW_CB_TOP_PTR      , ((uint32)engine_sensor_adc_CFG0_UAB
 122:Generated_Source\PSoC4/engine_sensor_adc.c ****                 ,{engine_sensor_adc_UABH_A_CAP_ABCF_VAL_PTR   , ((uint32)engine_sensor_adc_CFG0_UAB
 123:Generated_Source\PSoC4/engine_sensor_adc.c ****             #endif /* (engine_sensor_adc_CFG0_FILTERTYPE_USED == engine_sensor_adc_FILTERTOPOLOGY_L
 124:Generated_Source\PSoC4/engine_sensor_adc.c ****         };
 125:Generated_Source\PSoC4/engine_sensor_adc.c **** 
 126:Generated_Source\PSoC4/engine_sensor_adc.c ****         #define engine_sensor_adc_CFG0_UABH_B_FILTER_INITPAIRSSIZE ((engine_sensor_adc_CFG0_FILTERT
 127:Generated_Source\PSoC4/engine_sensor_adc.c ****                                                              ? 19u \
 128:Generated_Source\PSoC4/engine_sensor_adc.c ****                                                              : 19u)
 129:Generated_Source\PSoC4/engine_sensor_adc.c ****         static CyUAB_reg_pair engine_sensor_adc_CFG0_UABH_B_FILTER_initPairs[engine_sensor_adc_CFG0
 130:Generated_Source\PSoC4/engine_sensor_adc.c ****         {
 131:Generated_Source\PSoC4/engine_sensor_adc.c ****             /*OA_CTRL default always first element in initPairs*/
 132:Generated_Source\PSoC4/engine_sensor_adc.c ****             /* Topology-invariant registers */
 133:Generated_Source\PSoC4/engine_sensor_adc.c ****              {engine_sensor_adc_UABH_B_OA_CTRL_PTR        , ((uint32)engine_sensor_adc_UABH_B_DEFAU
 134:Generated_Source\PSoC4/engine_sensor_adc.c ****             ,{engine_sensor_adc_UABH_B_SW_STATIC_PTR      , ((uint32)engine_sensor_adc_UABH_B_DEFAU
 135:Generated_Source\PSoC4/engine_sensor_adc.c ****             ,{engine_sensor_adc_UABH_B_SW_MODBIT_SRC_PTR  , ((uint32)engine_sensor_adc_UABH_B_INVAR
 136:Generated_Source\PSoC4/engine_sensor_adc.c ****             ,{engine_sensor_adc_UABH_B_SRAM_CTRL_PTR      , ((uint32)engine_sensor_adc_UABH_B_INVAR
 137:Generated_Source\PSoC4/engine_sensor_adc.c ****             ,{engine_sensor_adc_UABH_B_STARTUP_DELAY_PTR  , ((uint32)engine_sensor_adc_CFG0_UABH_B_
ARM GAS  C:\Users\fneves\AppData\Local\Temp\ccV5UskS.s 			page 6


 138:Generated_Source\PSoC4/engine_sensor_adc.c ****             ,{engine_sensor_adc_UABH_B_SW_BOOST_CTRL_PTR  , ((uint32)engine_sensor_adc_UABH_B_DEFAU
 139:Generated_Source\PSoC4/engine_sensor_adc.c ****             ,{engine_sensor_adc_UABH_B_SW_OTHER_PTR  , ((uint32)engine_sensor_adc_UABH_B_DEFAULT_SW
 140:Generated_Source\PSoC4/engine_sensor_adc.c ****             
 141:Generated_Source\PSoC4/engine_sensor_adc.c ****             #if (engine_sensor_adc_CFG0_FILTERTYPE_USED == engine_sensor_adc_FILTERTOPOLOGY_LOW_Q)
 142:Generated_Source\PSoC4/engine_sensor_adc.c ****                     	/* Filter-invariant registers */
 143:Generated_Source\PSoC4/engine_sensor_adc.c ****                 ,{engine_sensor_adc_UABH_B_SW_CA_IN0_PTR      , ((uint32)engine_sensor_adc_UABH_B_L
 144:Generated_Source\PSoC4/engine_sensor_adc.c ****                 ,{engine_sensor_adc_UABH_B_SW_CA_IN1_PTR      , ((uint32)engine_sensor_adc_UABH_B_L
 145:Generated_Source\PSoC4/engine_sensor_adc.c ****                 ,{engine_sensor_adc_UABH_B_SW_CA_TOP_PTR      , ((uint32)engine_sensor_adc_UABH_B_L
 146:Generated_Source\PSoC4/engine_sensor_adc.c ****                 ,{engine_sensor_adc_UABH_B_SW_CB_IN0_PTR      , ((uint32)engine_sensor_adc_UABH_B_L
 147:Generated_Source\PSoC4/engine_sensor_adc.c ****                 ,{engine_sensor_adc_UABH_B_SW_CB_IN1_PTR      , ((uint32)engine_sensor_adc_UABH_B_L
 148:Generated_Source\PSoC4/engine_sensor_adc.c ****                 ,{engine_sensor_adc_UABH_B_SW_CB_TOP_PTR      , ((uint32)engine_sensor_adc_UABH_B_L
 149:Generated_Source\PSoC4/engine_sensor_adc.c ****                 ,{engine_sensor_adc_UABH_B_SW_CC_IN0_PTR      , ((uint32)engine_sensor_adc_UABH_B_L
 150:Generated_Source\PSoC4/engine_sensor_adc.c ****                 ,{engine_sensor_adc_UABH_B_SW_CC_IN1_PTR      , ((uint32)engine_sensor_adc_UABH_B_L
 151:Generated_Source\PSoC4/engine_sensor_adc.c ****                 ,{engine_sensor_adc_UABH_B_SW_CF_BOT_PTR      , ((uint32)engine_sensor_adc_UABH_B_L
 152:Generated_Source\PSoC4/engine_sensor_adc.c ****                 
 153:Generated_Source\PSoC4/engine_sensor_adc.c ****                 /* Parameter-based registers */
 154:Generated_Source\PSoC4/engine_sensor_adc.c ****                 ,{engine_sensor_adc_UABH_B_CAP_CTRL_PTR       , ((uint32)engine_sensor_adc_CFG0_UAB
 155:Generated_Source\PSoC4/engine_sensor_adc.c ****                 ,{engine_sensor_adc_UABH_B_SW_CC_TOP_PTR      , ((uint32)engine_sensor_adc_CFG0_UAB
 156:Generated_Source\PSoC4/engine_sensor_adc.c ****                 ,{engine_sensor_adc_UABH_B_CAP_ABCF_VAL_PTR   , ((uint32)engine_sensor_adc_CFG0_UAB
 157:Generated_Source\PSoC4/engine_sensor_adc.c ****             #elif (engine_sensor_adc_CFG0_FILTERTYPE_USED == engine_sensor_adc_FILTERTOPOLOGY_HIGH_
 158:Generated_Source\PSoC4/engine_sensor_adc.c ****             	/* Filter-invariant registers */
 159:Generated_Source\PSoC4/engine_sensor_adc.c ****                 ,{engine_sensor_adc_UABH_B_SW_CA_IN0_PTR      , ((uint32)engine_sensor_adc_UABH_B_H
 160:Generated_Source\PSoC4/engine_sensor_adc.c ****                 ,{engine_sensor_adc_UABH_B_SW_CA_IN1_PTR      , ((uint32)engine_sensor_adc_UABH_B_H
 161:Generated_Source\PSoC4/engine_sensor_adc.c ****                 ,{engine_sensor_adc_UABH_B_SW_CA_TOP_PTR      , ((uint32)engine_sensor_adc_UABH_B_H
 162:Generated_Source\PSoC4/engine_sensor_adc.c ****                 ,{engine_sensor_adc_UABH_B_SW_CB_IN0_PTR      , ((uint32)engine_sensor_adc_UABH_B_H
 163:Generated_Source\PSoC4/engine_sensor_adc.c ****                 ,{engine_sensor_adc_UABH_B_SW_CB_IN1_PTR      , ((uint32)engine_sensor_adc_UABH_B_H
 164:Generated_Source\PSoC4/engine_sensor_adc.c ****                 ,{engine_sensor_adc_UABH_B_SW_CC_IN0_PTR      , ((uint32)engine_sensor_adc_UABH_B_H
 165:Generated_Source\PSoC4/engine_sensor_adc.c ****                 ,{engine_sensor_adc_UABH_B_SW_CC_IN1_PTR      , ((uint32)engine_sensor_adc_UABH_B_H
 166:Generated_Source\PSoC4/engine_sensor_adc.c ****                 ,{engine_sensor_adc_UABH_B_SW_CF_BOT_PTR      , ((uint32)engine_sensor_adc_UABH_B_H
 167:Generated_Source\PSoC4/engine_sensor_adc.c ****                 
 168:Generated_Source\PSoC4/engine_sensor_adc.c ****                 /* Parameter-based registers */
 169:Generated_Source\PSoC4/engine_sensor_adc.c ****                 ,{engine_sensor_adc_UABH_B_CAP_CTRL_PTR       , ((uint32)engine_sensor_adc_CFG0_UAB
 170:Generated_Source\PSoC4/engine_sensor_adc.c ****                 ,{engine_sensor_adc_UABH_B_SW_CB_TOP_PTR      , ((uint32)engine_sensor_adc_CFG0_UAB
 171:Generated_Source\PSoC4/engine_sensor_adc.c ****                 ,{engine_sensor_adc_UABH_B_SW_CC_TOP_PTR      , ((uint32)engine_sensor_adc_CFG0_UAB
 172:Generated_Source\PSoC4/engine_sensor_adc.c ****                 ,{engine_sensor_adc_UABH_B_CAP_ABCF_VAL_PTR   , ((uint32)engine_sensor_adc_CFG0_UAB
 173:Generated_Source\PSoC4/engine_sensor_adc.c ****             #endif /* #if (engine_sensor_adc_CFG0_FILTERTYPE_USED == engine_sensor_adc_FILTERTOPOLO
 174:Generated_Source\PSoC4/engine_sensor_adc.c ****         };
 175:Generated_Source\PSoC4/engine_sensor_adc.c **** 
 176:Generated_Source\PSoC4/engine_sensor_adc.c ****         static CyUAB_config engine_sensor_adc_CFG0_UABH_A_FILTER_config = {
 177:Generated_Source\PSoC4/engine_sensor_adc.c ****             engine_sensor_adc_UABH_A_waveConfig,
 178:Generated_Source\PSoC4/engine_sensor_adc.c ****             engine_sensor_adc_CFG0_UABH_A_FILTER_initPairs,
 179:Generated_Source\PSoC4/engine_sensor_adc.c ****             CyUAB_SHARED_SW_CFG(engine_sensor_adc_UABH_A_PARAM_REF_TIED,engine_sensor_adc_UABH_A_PA
 180:Generated_Source\PSoC4/engine_sensor_adc.c ****                 engine_sensor_adc_UABH_A_PARAM_SW_CC,engine_sensor_adc_UABH_A_PARAM_SW_BB,engine_se
 181:Generated_Source\PSoC4/engine_sensor_adc.c ****             engine_sensor_adc_UABH_A_NUM_STEPS,
 182:Generated_Source\PSoC4/engine_sensor_adc.c ****             (uint8)(engine_sensor_adc_UABH_A_ELEMENT_COUNT(engine_sensor_adc_CFG0_UABH_A_FILTER_ini
 183:Generated_Source\PSoC4/engine_sensor_adc.c ****         };
 184:Generated_Source\PSoC4/engine_sensor_adc.c **** 
 185:Generated_Source\PSoC4/engine_sensor_adc.c ****         static CyUAB_config engine_sensor_adc_CFG0_UABH_B_FILTER_config = {
 186:Generated_Source\PSoC4/engine_sensor_adc.c ****         engine_sensor_adc_UABH_B_waveConfig,
 187:Generated_Source\PSoC4/engine_sensor_adc.c ****         engine_sensor_adc_CFG0_UABH_B_FILTER_initPairs,
 188:Generated_Source\PSoC4/engine_sensor_adc.c ****         CyUAB_SHARED_SW_CFG(engine_sensor_adc_UABH_B_PARAM_REF_TIED,engine_sensor_adc_UABH_B_PARAM_
 189:Generated_Source\PSoC4/engine_sensor_adc.c ****             engine_sensor_adc_UABH_B_PARAM_SW_CC,engine_sensor_adc_UABH_B_PARAM_SW_BB,engine_sensor
 190:Generated_Source\PSoC4/engine_sensor_adc.c ****         engine_sensor_adc_UABH_B_NUM_STEPS,
 191:Generated_Source\PSoC4/engine_sensor_adc.c ****         (uint8)(engine_sensor_adc_UABH_B_ELEMENT_COUNT(engine_sensor_adc_CFG0_UABH_B_FILTER_initPai
 192:Generated_Source\PSoC4/engine_sensor_adc.c ****     };
 193:Generated_Source\PSoC4/engine_sensor_adc.c ****     #endif /* (0u != engine_sensor_adc_CFG0_FILTER_PRESENT) */
 194:Generated_Source\PSoC4/engine_sensor_adc.c ****     #if (0u != engine_sensor_adc_CFG1_FILTER_PRESENT)
ARM GAS  C:\Users\fneves\AppData\Local\Temp\ccV5UskS.s 			page 7


 195:Generated_Source\PSoC4/engine_sensor_adc.c ****         #define engine_sensor_adc_CFG1_UABH_A_FILTER_INITPAIRSSIZE ((engine_sensor_adc_CFG1_FILTERT
 196:Generated_Source\PSoC4/engine_sensor_adc.c ****                                                              ? 18u \
 197:Generated_Source\PSoC4/engine_sensor_adc.c ****                                                              : 18u)
 198:Generated_Source\PSoC4/engine_sensor_adc.c ****         static CyUAB_reg_pair engine_sensor_adc_CFG1_UABH_A_FILTER_initPairs[engine_sensor_adc_CFG1
 199:Generated_Source\PSoC4/engine_sensor_adc.c ****         {
 200:Generated_Source\PSoC4/engine_sensor_adc.c ****         	/*OA_CTRL default always first element in initPairs*/
 201:Generated_Source\PSoC4/engine_sensor_adc.c ****             /* Topology-invariant registers */
 202:Generated_Source\PSoC4/engine_sensor_adc.c ****              {engine_sensor_adc_UABH_A_OA_CTRL_PTR        , ((uint32)engine_sensor_adc_UABH_A_DEFAU
 203:Generated_Source\PSoC4/engine_sensor_adc.c ****             ,{engine_sensor_adc_UABH_A_SW_STATIC_PTR      , ((uint32)engine_sensor_adc_UABH_A_DEFAU
 204:Generated_Source\PSoC4/engine_sensor_adc.c ****             ,{engine_sensor_adc_UABH_A_SW_MODBIT_SRC_PTR      , ((uint32)engine_sensor_adc_UABH_A_I
 205:Generated_Source\PSoC4/engine_sensor_adc.c ****             ,{engine_sensor_adc_UABH_A_SRAM_CTRL_PTR      , ((uint32)engine_sensor_adc_UABH_A_INVAR
 206:Generated_Source\PSoC4/engine_sensor_adc.c ****             ,{engine_sensor_adc_UABH_A_STARTUP_DELAY_PTR  , ((uint32)engine_sensor_adc_CFG1_UABH_A_
 207:Generated_Source\PSoC4/engine_sensor_adc.c ****             ,{engine_sensor_adc_UABH_A_SW_BOOST_CTRL_PTR  , ((uint32)engine_sensor_adc_UABH_A_DEFAU
 208:Generated_Source\PSoC4/engine_sensor_adc.c ****             ,{engine_sensor_adc_UABH_A_SW_OTHER_PTR  , ((uint32)engine_sensor_adc_UABH_A_DEFAULT_SW
 209:Generated_Source\PSoC4/engine_sensor_adc.c ****             
 210:Generated_Source\PSoC4/engine_sensor_adc.c ****             #if (engine_sensor_adc_CFG1_FILTERTYPE_USED == engine_sensor_adc_FILTERTOPOLOGY_LOW_Q)
 211:Generated_Source\PSoC4/engine_sensor_adc.c ****                 /* Filter-invariant registers */
 212:Generated_Source\PSoC4/engine_sensor_adc.c ****                 ,{engine_sensor_adc_UABH_A_SW_CA_IN0_PTR      , ((uint32)engine_sensor_adc_UABH_A_L
 213:Generated_Source\PSoC4/engine_sensor_adc.c ****                 ,{engine_sensor_adc_UABH_A_SW_CA_TOP_PTR      , ((uint32)engine_sensor_adc_UABH_A_L
 214:Generated_Source\PSoC4/engine_sensor_adc.c ****                 ,{engine_sensor_adc_UABH_A_SW_CC_IN0_PTR      , ((uint32)engine_sensor_adc_UABH_A_L
 215:Generated_Source\PSoC4/engine_sensor_adc.c ****                 ,{engine_sensor_adc_UABH_A_SW_CC_IN1_PTR      , ((uint32)engine_sensor_adc_UABH_A_L
 216:Generated_Source\PSoC4/engine_sensor_adc.c ****                 ,{engine_sensor_adc_UABH_A_SW_CF_BOT_PTR      , ((uint32)engine_sensor_adc_UABH_A_L
 217:Generated_Source\PSoC4/engine_sensor_adc.c **** 
 218:Generated_Source\PSoC4/engine_sensor_adc.c ****                 /* Parameter-based registers */
 219:Generated_Source\PSoC4/engine_sensor_adc.c ****                 ,{engine_sensor_adc_UABH_A_CAP_CTRL_PTR       , ((uint32)engine_sensor_adc_CFG1_UAB
 220:Generated_Source\PSoC4/engine_sensor_adc.c ****                 ,{engine_sensor_adc_UABH_A_SW_CB_IN0_PTR      , ((uint32)engine_sensor_adc_CFG1_UAB
 221:Generated_Source\PSoC4/engine_sensor_adc.c ****                 ,{engine_sensor_adc_UABH_A_SW_CB_IN1_PTR      , ((uint32)engine_sensor_adc_CFG1_UAB
 222:Generated_Source\PSoC4/engine_sensor_adc.c ****                 ,{engine_sensor_adc_UABH_A_SW_CB_TOP_PTR      , ((uint32)engine_sensor_adc_CFG1_UAB
 223:Generated_Source\PSoC4/engine_sensor_adc.c ****                 ,{engine_sensor_adc_UABH_A_SW_CC_TOP_PTR      , ((uint32)engine_sensor_adc_CFG1_UAB
 224:Generated_Source\PSoC4/engine_sensor_adc.c ****                 ,{engine_sensor_adc_UABH_A_CAP_ABCF_VAL_PTR   , ((uint32)engine_sensor_adc_CFG1_UAB
 225:Generated_Source\PSoC4/engine_sensor_adc.c ****             #elif (engine_sensor_adc_CFG1_FILTERTYPE_USED == engine_sensor_adc_FILTERTOPOLOGY_HIGH_
 226:Generated_Source\PSoC4/engine_sensor_adc.c ****                 /* Filter-invariant registers */
 227:Generated_Source\PSoC4/engine_sensor_adc.c ****                 ,{engine_sensor_adc_UABH_A_SW_CA_IN0_PTR      , ((uint32)engine_sensor_adc_UABH_A_H
 228:Generated_Source\PSoC4/engine_sensor_adc.c ****                 ,{engine_sensor_adc_UABH_A_SW_CA_TOP_PTR      , ((uint32)engine_sensor_adc_UABH_A_H
 229:Generated_Source\PSoC4/engine_sensor_adc.c ****                 ,{engine_sensor_adc_UABH_A_SW_CB_IN0_PTR      , ((uint32)engine_sensor_adc_UABH_A_H
 230:Generated_Source\PSoC4/engine_sensor_adc.c ****                 ,{engine_sensor_adc_UABH_A_SW_CB_IN1_PTR      , ((uint32)engine_sensor_adc_UABH_A_H
 231:Generated_Source\PSoC4/engine_sensor_adc.c ****                 ,{engine_sensor_adc_UABH_A_SW_CC_IN0_PTR      , ((uint32)engine_sensor_adc_UABH_A_H
 232:Generated_Source\PSoC4/engine_sensor_adc.c ****                 ,{engine_sensor_adc_UABH_A_SW_CC_IN1_PTR      , ((uint32)engine_sensor_adc_UABH_A_H
 233:Generated_Source\PSoC4/engine_sensor_adc.c ****                 ,{engine_sensor_adc_UABH_A_SW_CC_TOP_PTR      , ((uint32)engine_sensor_adc_UABH_A_H
 234:Generated_Source\PSoC4/engine_sensor_adc.c ****                 ,{engine_sensor_adc_UABH_A_SW_CF_BOT_PTR      , ((uint32)engine_sensor_adc_UABH_A_H
 235:Generated_Source\PSoC4/engine_sensor_adc.c **** 
 236:Generated_Source\PSoC4/engine_sensor_adc.c ****                 /* Parameter-based registers */
 237:Generated_Source\PSoC4/engine_sensor_adc.c ****                 ,{engine_sensor_adc_UABH_A_CAP_CTRL_PTR       , ((uint32)engine_sensor_adc_CFG1_UAB
 238:Generated_Source\PSoC4/engine_sensor_adc.c ****                 ,{engine_sensor_adc_UABH_A_SW_CB_TOP_PTR      , ((uint32)engine_sensor_adc_CFG1_UAB
 239:Generated_Source\PSoC4/engine_sensor_adc.c ****                 ,{engine_sensor_adc_UABH_A_CAP_ABCF_VAL_PTR   , ((uint32)engine_sensor_adc_CFG1_UAB
 240:Generated_Source\PSoC4/engine_sensor_adc.c ****             #endif /* (engine_sensor_adc_CFG1_FILTERTYPE_USED == engine_sensor_adc_FILTERTOPOLOGY_L
 241:Generated_Source\PSoC4/engine_sensor_adc.c ****         };
 242:Generated_Source\PSoC4/engine_sensor_adc.c **** 
 243:Generated_Source\PSoC4/engine_sensor_adc.c ****         #define engine_sensor_adc_CFG1_UABH_B_FILTER_INITPAIRSSIZE ((engine_sensor_adc_CFG1_FILTERT
 244:Generated_Source\PSoC4/engine_sensor_adc.c ****                                                              ? 19u \
 245:Generated_Source\PSoC4/engine_sensor_adc.c ****                                                              : 19u)
 246:Generated_Source\PSoC4/engine_sensor_adc.c ****         static CyUAB_reg_pair engine_sensor_adc_CFG1_UABH_B_FILTER_initPairs[engine_sensor_adc_CFG1
 247:Generated_Source\PSoC4/engine_sensor_adc.c ****         {
 248:Generated_Source\PSoC4/engine_sensor_adc.c ****             /*OA_CTRL default always first element in initPairs*/
 249:Generated_Source\PSoC4/engine_sensor_adc.c ****             /* Topology-invariant registers */
 250:Generated_Source\PSoC4/engine_sensor_adc.c ****              {engine_sensor_adc_UABH_B_OA_CTRL_PTR        , ((uint32)engine_sensor_adc_UABH_B_DEFAU
 251:Generated_Source\PSoC4/engine_sensor_adc.c ****             ,{engine_sensor_adc_UABH_B_SW_STATIC_PTR      , ((uint32)engine_sensor_adc_UABH_B_DEFAU
ARM GAS  C:\Users\fneves\AppData\Local\Temp\ccV5UskS.s 			page 8


 252:Generated_Source\PSoC4/engine_sensor_adc.c ****             ,{engine_sensor_adc_UABH_B_SW_MODBIT_SRC_PTR  , ((uint32)engine_sensor_adc_UABH_B_INVAR
 253:Generated_Source\PSoC4/engine_sensor_adc.c ****             ,{engine_sensor_adc_UABH_B_SRAM_CTRL_PTR      , ((uint32)engine_sensor_adc_UABH_B_INVAR
 254:Generated_Source\PSoC4/engine_sensor_adc.c ****             ,{engine_sensor_adc_UABH_B_STARTUP_DELAY_PTR  , ((uint32)engine_sensor_adc_CFG1_UABH_B_
 255:Generated_Source\PSoC4/engine_sensor_adc.c ****             ,{engine_sensor_adc_UABH_B_SW_BOOST_CTRL_PTR  , ((uint32)engine_sensor_adc_UABH_B_DEFAU
 256:Generated_Source\PSoC4/engine_sensor_adc.c ****             ,{engine_sensor_adc_UABH_B_SW_OTHER_PTR  , ((uint32)engine_sensor_adc_UABH_B_DEFAULT_SW
 257:Generated_Source\PSoC4/engine_sensor_adc.c ****             
 258:Generated_Source\PSoC4/engine_sensor_adc.c ****             #if (engine_sensor_adc_CFG1_FILTERTYPE_USED == engine_sensor_adc_FILTERTOPOLOGY_LOW_Q)
 259:Generated_Source\PSoC4/engine_sensor_adc.c ****                     	/* Filter-invariant registers */
 260:Generated_Source\PSoC4/engine_sensor_adc.c ****                 ,{engine_sensor_adc_UABH_B_SW_CA_IN0_PTR      , ((uint32)engine_sensor_adc_UABH_B_L
 261:Generated_Source\PSoC4/engine_sensor_adc.c ****                 ,{engine_sensor_adc_UABH_B_SW_CA_IN1_PTR      , ((uint32)engine_sensor_adc_UABH_B_L
 262:Generated_Source\PSoC4/engine_sensor_adc.c ****                 ,{engine_sensor_adc_UABH_B_SW_CA_TOP_PTR      , ((uint32)engine_sensor_adc_UABH_B_L
 263:Generated_Source\PSoC4/engine_sensor_adc.c ****                 ,{engine_sensor_adc_UABH_B_SW_CB_IN0_PTR      , ((uint32)engine_sensor_adc_UABH_B_L
 264:Generated_Source\PSoC4/engine_sensor_adc.c ****                 ,{engine_sensor_adc_UABH_B_SW_CB_IN1_PTR      , ((uint32)engine_sensor_adc_UABH_B_L
 265:Generated_Source\PSoC4/engine_sensor_adc.c ****                 ,{engine_sensor_adc_UABH_B_SW_CB_TOP_PTR      , ((uint32)engine_sensor_adc_UABH_B_L
 266:Generated_Source\PSoC4/engine_sensor_adc.c ****                 ,{engine_sensor_adc_UABH_B_SW_CC_IN0_PTR      , ((uint32)engine_sensor_adc_UABH_B_L
 267:Generated_Source\PSoC4/engine_sensor_adc.c ****                 ,{engine_sensor_adc_UABH_B_SW_CC_IN1_PTR      , ((uint32)engine_sensor_adc_UABH_B_L
 268:Generated_Source\PSoC4/engine_sensor_adc.c ****                 ,{engine_sensor_adc_UABH_B_SW_CF_BOT_PTR      , ((uint32)engine_sensor_adc_UABH_B_L
 269:Generated_Source\PSoC4/engine_sensor_adc.c ****                 
 270:Generated_Source\PSoC4/engine_sensor_adc.c ****                 /* Parameter-based registers */
 271:Generated_Source\PSoC4/engine_sensor_adc.c ****                 ,{engine_sensor_adc_UABH_B_CAP_CTRL_PTR       , ((uint32)engine_sensor_adc_CFG1_UAB
 272:Generated_Source\PSoC4/engine_sensor_adc.c ****                 ,{engine_sensor_adc_UABH_B_SW_CC_TOP_PTR      , ((uint32)engine_sensor_adc_CFG1_UAB
 273:Generated_Source\PSoC4/engine_sensor_adc.c ****                 ,{engine_sensor_adc_UABH_B_CAP_ABCF_VAL_PTR   , ((uint32)engine_sensor_adc_CFG1_UAB
 274:Generated_Source\PSoC4/engine_sensor_adc.c ****             #elif (engine_sensor_adc_CFG1_FILTERTYPE_USED == engine_sensor_adc_FILTERTOPOLOGY_HIGH_
 275:Generated_Source\PSoC4/engine_sensor_adc.c ****             	/* Filter-invariant registers */
 276:Generated_Source\PSoC4/engine_sensor_adc.c ****                 ,{engine_sensor_adc_UABH_B_SW_CA_IN0_PTR      , ((uint32)engine_sensor_adc_UABH_B_H
 277:Generated_Source\PSoC4/engine_sensor_adc.c ****                 ,{engine_sensor_adc_UABH_B_SW_CA_IN1_PTR      , ((uint32)engine_sensor_adc_UABH_B_H
 278:Generated_Source\PSoC4/engine_sensor_adc.c ****                 ,{engine_sensor_adc_UABH_B_SW_CA_TOP_PTR      , ((uint32)engine_sensor_adc_UABH_B_H
 279:Generated_Source\PSoC4/engine_sensor_adc.c ****                 ,{engine_sensor_adc_UABH_B_SW_CB_IN0_PTR      , ((uint32)engine_sensor_adc_UABH_B_H
 280:Generated_Source\PSoC4/engine_sensor_adc.c ****                 ,{engine_sensor_adc_UABH_B_SW_CB_IN1_PTR      , ((uint32)engine_sensor_adc_UABH_B_H
 281:Generated_Source\PSoC4/engine_sensor_adc.c ****                 ,{engine_sensor_adc_UABH_B_SW_CC_IN0_PTR      , ((uint32)engine_sensor_adc_UABH_B_H
 282:Generated_Source\PSoC4/engine_sensor_adc.c ****                 ,{engine_sensor_adc_UABH_B_SW_CC_IN1_PTR      , ((uint32)engine_sensor_adc_UABH_B_H
 283:Generated_Source\PSoC4/engine_sensor_adc.c ****                 ,{engine_sensor_adc_UABH_B_SW_CF_BOT_PTR      , ((uint32)engine_sensor_adc_UABH_B_H
 284:Generated_Source\PSoC4/engine_sensor_adc.c ****                 
 285:Generated_Source\PSoC4/engine_sensor_adc.c ****                 /* Parameter-based registers */
 286:Generated_Source\PSoC4/engine_sensor_adc.c ****                 ,{engine_sensor_adc_UABH_B_CAP_CTRL_PTR       , ((uint32)engine_sensor_adc_CFG1_UAB
 287:Generated_Source\PSoC4/engine_sensor_adc.c ****                 ,{engine_sensor_adc_UABH_B_SW_CB_TOP_PTR      , ((uint32)engine_sensor_adc_CFG1_UAB
 288:Generated_Source\PSoC4/engine_sensor_adc.c ****                 ,{engine_sensor_adc_UABH_B_SW_CC_TOP_PTR      , ((uint32)engine_sensor_adc_CFG1_UAB
 289:Generated_Source\PSoC4/engine_sensor_adc.c ****                 ,{engine_sensor_adc_UABH_B_CAP_ABCF_VAL_PTR   , ((uint32)engine_sensor_adc_CFG1_UAB
 290:Generated_Source\PSoC4/engine_sensor_adc.c ****             #endif /* #if (engine_sensor_adc_CFG1_FILTERTYPE_USED == engine_sensor_adc_FILTERTOPOLO
 291:Generated_Source\PSoC4/engine_sensor_adc.c ****         };
 292:Generated_Source\PSoC4/engine_sensor_adc.c **** 
 293:Generated_Source\PSoC4/engine_sensor_adc.c ****         static CyUAB_config engine_sensor_adc_CFG1_UABH_A_FILTER_config = {
 294:Generated_Source\PSoC4/engine_sensor_adc.c ****             engine_sensor_adc_UABH_A_waveConfig,
 295:Generated_Source\PSoC4/engine_sensor_adc.c ****             engine_sensor_adc_CFG1_UABH_A_FILTER_initPairs,
 296:Generated_Source\PSoC4/engine_sensor_adc.c ****             CyUAB_SHARED_SW_CFG(engine_sensor_adc_UABH_A_PARAM_REF_TIED,engine_sensor_adc_UABH_A_PA
 297:Generated_Source\PSoC4/engine_sensor_adc.c ****                 engine_sensor_adc_UABH_A_PARAM_SW_CC,engine_sensor_adc_UABH_A_PARAM_SW_BB,engine_se
 298:Generated_Source\PSoC4/engine_sensor_adc.c ****             engine_sensor_adc_UABH_A_NUM_STEPS,
 299:Generated_Source\PSoC4/engine_sensor_adc.c ****             (uint8)(engine_sensor_adc_UABH_A_ELEMENT_COUNT(engine_sensor_adc_CFG1_UABH_A_FILTER_ini
 300:Generated_Source\PSoC4/engine_sensor_adc.c ****         };
 301:Generated_Source\PSoC4/engine_sensor_adc.c **** 
 302:Generated_Source\PSoC4/engine_sensor_adc.c ****         static CyUAB_config engine_sensor_adc_CFG1_UABH_B_FILTER_config = {
 303:Generated_Source\PSoC4/engine_sensor_adc.c ****         engine_sensor_adc_UABH_B_waveConfig,
 304:Generated_Source\PSoC4/engine_sensor_adc.c ****         engine_sensor_adc_CFG1_UABH_B_FILTER_initPairs,
 305:Generated_Source\PSoC4/engine_sensor_adc.c ****         CyUAB_SHARED_SW_CFG(engine_sensor_adc_UABH_B_PARAM_REF_TIED,engine_sensor_adc_UABH_B_PARAM_
 306:Generated_Source\PSoC4/engine_sensor_adc.c ****             engine_sensor_adc_UABH_B_PARAM_SW_CC,engine_sensor_adc_UABH_B_PARAM_SW_BB,engine_sensor
 307:Generated_Source\PSoC4/engine_sensor_adc.c ****         engine_sensor_adc_UABH_B_NUM_STEPS,
 308:Generated_Source\PSoC4/engine_sensor_adc.c ****         (uint8)(engine_sensor_adc_UABH_B_ELEMENT_COUNT(engine_sensor_adc_CFG1_UABH_B_FILTER_initPai
ARM GAS  C:\Users\fneves\AppData\Local\Temp\ccV5UskS.s 			page 9


 309:Generated_Source\PSoC4/engine_sensor_adc.c ****     };
 310:Generated_Source\PSoC4/engine_sensor_adc.c ****     #endif /* (0u != engine_sensor_adc_CFG1_FILTER_PRESENT) */
 311:Generated_Source\PSoC4/engine_sensor_adc.c ****     #if (0u != engine_sensor_adc_CFG2_FILTER_PRESENT)
 312:Generated_Source\PSoC4/engine_sensor_adc.c ****         #define engine_sensor_adc_CFG2_UABH_A_FILTER_INITPAIRSSIZE ((engine_sensor_adc_CFG2_FILTERT
 313:Generated_Source\PSoC4/engine_sensor_adc.c ****                                                              ? 18u \
 314:Generated_Source\PSoC4/engine_sensor_adc.c ****                                                              : 18u)
 315:Generated_Source\PSoC4/engine_sensor_adc.c ****         static CyUAB_reg_pair engine_sensor_adc_CFG2_UABH_A_FILTER_initPairs[engine_sensor_adc_CFG2
 316:Generated_Source\PSoC4/engine_sensor_adc.c ****         {
 317:Generated_Source\PSoC4/engine_sensor_adc.c ****         	/*OA_CTRL default always first element in initPairs*/
 318:Generated_Source\PSoC4/engine_sensor_adc.c ****             /* Topology-invariant registers */
 319:Generated_Source\PSoC4/engine_sensor_adc.c ****              {engine_sensor_adc_UABH_A_OA_CTRL_PTR        , ((uint32)engine_sensor_adc_UABH_A_DEFAU
 320:Generated_Source\PSoC4/engine_sensor_adc.c ****             ,{engine_sensor_adc_UABH_A_SW_STATIC_PTR      , ((uint32)engine_sensor_adc_UABH_A_DEFAU
 321:Generated_Source\PSoC4/engine_sensor_adc.c ****             ,{engine_sensor_adc_UABH_A_SW_MODBIT_SRC_PTR      , ((uint32)engine_sensor_adc_UABH_A_I
 322:Generated_Source\PSoC4/engine_sensor_adc.c ****             ,{engine_sensor_adc_UABH_A_SRAM_CTRL_PTR      , ((uint32)engine_sensor_adc_UABH_A_INVAR
 323:Generated_Source\PSoC4/engine_sensor_adc.c ****             ,{engine_sensor_adc_UABH_A_STARTUP_DELAY_PTR  , ((uint32)engine_sensor_adc_CFG2_UABH_A_
 324:Generated_Source\PSoC4/engine_sensor_adc.c ****             ,{engine_sensor_adc_UABH_A_SW_BOOST_CTRL_PTR  , ((uint32)engine_sensor_adc_UABH_A_DEFAU
 325:Generated_Source\PSoC4/engine_sensor_adc.c ****             ,{engine_sensor_adc_UABH_A_SW_OTHER_PTR  , ((uint32)engine_sensor_adc_UABH_A_DEFAULT_SW
 326:Generated_Source\PSoC4/engine_sensor_adc.c ****             
 327:Generated_Source\PSoC4/engine_sensor_adc.c ****             #if (engine_sensor_adc_CFG2_FILTERTYPE_USED == engine_sensor_adc_FILTERTOPOLOGY_LOW_Q)
 328:Generated_Source\PSoC4/engine_sensor_adc.c ****                 /* Filter-invariant registers */
 329:Generated_Source\PSoC4/engine_sensor_adc.c ****                 ,{engine_sensor_adc_UABH_A_SW_CA_IN0_PTR      , ((uint32)engine_sensor_adc_UABH_A_L
 330:Generated_Source\PSoC4/engine_sensor_adc.c ****                 ,{engine_sensor_adc_UABH_A_SW_CA_TOP_PTR      , ((uint32)engine_sensor_adc_UABH_A_L
 331:Generated_Source\PSoC4/engine_sensor_adc.c ****                 ,{engine_sensor_adc_UABH_A_SW_CC_IN0_PTR      , ((uint32)engine_sensor_adc_UABH_A_L
 332:Generated_Source\PSoC4/engine_sensor_adc.c ****                 ,{engine_sensor_adc_UABH_A_SW_CC_IN1_PTR      , ((uint32)engine_sensor_adc_UABH_A_L
 333:Generated_Source\PSoC4/engine_sensor_adc.c ****                 ,{engine_sensor_adc_UABH_A_SW_CF_BOT_PTR      , ((uint32)engine_sensor_adc_UABH_A_L
 334:Generated_Source\PSoC4/engine_sensor_adc.c **** 
 335:Generated_Source\PSoC4/engine_sensor_adc.c ****                 /* Parameter-based registers */
 336:Generated_Source\PSoC4/engine_sensor_adc.c ****                 ,{engine_sensor_adc_UABH_A_CAP_CTRL_PTR       , ((uint32)engine_sensor_adc_CFG2_UAB
 337:Generated_Source\PSoC4/engine_sensor_adc.c ****                 ,{engine_sensor_adc_UABH_A_SW_CB_IN0_PTR      , ((uint32)engine_sensor_adc_CFG2_UAB
 338:Generated_Source\PSoC4/engine_sensor_adc.c ****                 ,{engine_sensor_adc_UABH_A_SW_CB_IN1_PTR      , ((uint32)engine_sensor_adc_CFG2_UAB
 339:Generated_Source\PSoC4/engine_sensor_adc.c ****                 ,{engine_sensor_adc_UABH_A_SW_CB_TOP_PTR      , ((uint32)engine_sensor_adc_CFG2_UAB
 340:Generated_Source\PSoC4/engine_sensor_adc.c ****                 ,{engine_sensor_adc_UABH_A_SW_CC_TOP_PTR      , ((uint32)engine_sensor_adc_CFG2_UAB
 341:Generated_Source\PSoC4/engine_sensor_adc.c ****                 ,{engine_sensor_adc_UABH_A_CAP_ABCF_VAL_PTR   , ((uint32)engine_sensor_adc_CFG2_UAB
 342:Generated_Source\PSoC4/engine_sensor_adc.c ****             #elif (engine_sensor_adc_CFG2_FILTERTYPE_USED == engine_sensor_adc_FILTERTOPOLOGY_HIGH_
 343:Generated_Source\PSoC4/engine_sensor_adc.c ****                 /* Filter-invariant registers */
 344:Generated_Source\PSoC4/engine_sensor_adc.c ****                 ,{engine_sensor_adc_UABH_A_SW_CA_IN0_PTR      , ((uint32)engine_sensor_adc_UABH_A_H
 345:Generated_Source\PSoC4/engine_sensor_adc.c ****                 ,{engine_sensor_adc_UABH_A_SW_CA_TOP_PTR      , ((uint32)engine_sensor_adc_UABH_A_H
 346:Generated_Source\PSoC4/engine_sensor_adc.c ****                 ,{engine_sensor_adc_UABH_A_SW_CB_IN0_PTR      , ((uint32)engine_sensor_adc_UABH_A_H
 347:Generated_Source\PSoC4/engine_sensor_adc.c ****                 ,{engine_sensor_adc_UABH_A_SW_CB_IN1_PTR      , ((uint32)engine_sensor_adc_UABH_A_H
 348:Generated_Source\PSoC4/engine_sensor_adc.c ****                 ,{engine_sensor_adc_UABH_A_SW_CC_IN0_PTR      , ((uint32)engine_sensor_adc_UABH_A_H
 349:Generated_Source\PSoC4/engine_sensor_adc.c ****                 ,{engine_sensor_adc_UABH_A_SW_CC_IN1_PTR      , ((uint32)engine_sensor_adc_UABH_A_H
 350:Generated_Source\PSoC4/engine_sensor_adc.c ****                 ,{engine_sensor_adc_UABH_A_SW_CC_TOP_PTR      , ((uint32)engine_sensor_adc_UABH_A_H
 351:Generated_Source\PSoC4/engine_sensor_adc.c ****                 ,{engine_sensor_adc_UABH_A_SW_CF_BOT_PTR      , ((uint32)engine_sensor_adc_UABH_A_H
 352:Generated_Source\PSoC4/engine_sensor_adc.c **** 
 353:Generated_Source\PSoC4/engine_sensor_adc.c ****                 /* Parameter-based registers */
 354:Generated_Source\PSoC4/engine_sensor_adc.c ****                 ,{engine_sensor_adc_UABH_A_CAP_CTRL_PTR       , ((uint32)engine_sensor_adc_CFG2_UAB
 355:Generated_Source\PSoC4/engine_sensor_adc.c ****                 ,{engine_sensor_adc_UABH_A_SW_CB_TOP_PTR      , ((uint32)engine_sensor_adc_CFG2_UAB
 356:Generated_Source\PSoC4/engine_sensor_adc.c ****                 ,{engine_sensor_adc_UABH_A_CAP_ABCF_VAL_PTR   , ((uint32)engine_sensor_adc_CFG2_UAB
 357:Generated_Source\PSoC4/engine_sensor_adc.c ****             #endif /* (engine_sensor_adc_CFG2_FILTERTYPE_USED == engine_sensor_adc_FILTERTOPOLOGY_L
 358:Generated_Source\PSoC4/engine_sensor_adc.c ****         };
 359:Generated_Source\PSoC4/engine_sensor_adc.c **** 
 360:Generated_Source\PSoC4/engine_sensor_adc.c ****         #define engine_sensor_adc_CFG2_UABH_B_FILTER_INITPAIRSSIZE ((engine_sensor_adc_CFG2_FILTERT
 361:Generated_Source\PSoC4/engine_sensor_adc.c ****                                                              ? 19u \
 362:Generated_Source\PSoC4/engine_sensor_adc.c ****                                                              : 19u)
 363:Generated_Source\PSoC4/engine_sensor_adc.c ****         static CyUAB_reg_pair engine_sensor_adc_CFG2_UABH_B_FILTER_initPairs[engine_sensor_adc_CFG2
 364:Generated_Source\PSoC4/engine_sensor_adc.c ****         {
 365:Generated_Source\PSoC4/engine_sensor_adc.c ****             /*OA_CTRL default always first element in initPairs*/
ARM GAS  C:\Users\fneves\AppData\Local\Temp\ccV5UskS.s 			page 10


 366:Generated_Source\PSoC4/engine_sensor_adc.c ****             /* Topology-invariant registers */
 367:Generated_Source\PSoC4/engine_sensor_adc.c ****              {engine_sensor_adc_UABH_B_OA_CTRL_PTR        , ((uint32)engine_sensor_adc_UABH_B_DEFAU
 368:Generated_Source\PSoC4/engine_sensor_adc.c ****             ,{engine_sensor_adc_UABH_B_SW_STATIC_PTR      , ((uint32)engine_sensor_adc_UABH_B_DEFAU
 369:Generated_Source\PSoC4/engine_sensor_adc.c ****             ,{engine_sensor_adc_UABH_B_SW_MODBIT_SRC_PTR  , ((uint32)engine_sensor_adc_UABH_B_INVAR
 370:Generated_Source\PSoC4/engine_sensor_adc.c ****             ,{engine_sensor_adc_UABH_B_SRAM_CTRL_PTR      , ((uint32)engine_sensor_adc_UABH_B_INVAR
 371:Generated_Source\PSoC4/engine_sensor_adc.c ****             ,{engine_sensor_adc_UABH_B_STARTUP_DELAY_PTR  , ((uint32)engine_sensor_adc_CFG2_UABH_B_
 372:Generated_Source\PSoC4/engine_sensor_adc.c ****             ,{engine_sensor_adc_UABH_B_SW_BOOST_CTRL_PTR  , ((uint32)engine_sensor_adc_UABH_B_DEFAU
 373:Generated_Source\PSoC4/engine_sensor_adc.c ****             ,{engine_sensor_adc_UABH_B_SW_OTHER_PTR  , ((uint32)engine_sensor_adc_UABH_B_DEFAULT_SW
 374:Generated_Source\PSoC4/engine_sensor_adc.c ****             
 375:Generated_Source\PSoC4/engine_sensor_adc.c ****             #if (engine_sensor_adc_CFG2_FILTERTYPE_USED == engine_sensor_adc_FILTERTOPOLOGY_LOW_Q)
 376:Generated_Source\PSoC4/engine_sensor_adc.c ****                     	/* Filter-invariant registers */
 377:Generated_Source\PSoC4/engine_sensor_adc.c ****                 ,{engine_sensor_adc_UABH_B_SW_CA_IN0_PTR      , ((uint32)engine_sensor_adc_UABH_B_L
 378:Generated_Source\PSoC4/engine_sensor_adc.c ****                 ,{engine_sensor_adc_UABH_B_SW_CA_IN1_PTR      , ((uint32)engine_sensor_adc_UABH_B_L
 379:Generated_Source\PSoC4/engine_sensor_adc.c ****                 ,{engine_sensor_adc_UABH_B_SW_CA_TOP_PTR      , ((uint32)engine_sensor_adc_UABH_B_L
 380:Generated_Source\PSoC4/engine_sensor_adc.c ****                 ,{engine_sensor_adc_UABH_B_SW_CB_IN0_PTR      , ((uint32)engine_sensor_adc_UABH_B_L
 381:Generated_Source\PSoC4/engine_sensor_adc.c ****                 ,{engine_sensor_adc_UABH_B_SW_CB_IN1_PTR      , ((uint32)engine_sensor_adc_UABH_B_L
 382:Generated_Source\PSoC4/engine_sensor_adc.c ****                 ,{engine_sensor_adc_UABH_B_SW_CB_TOP_PTR      , ((uint32)engine_sensor_adc_UABH_B_L
 383:Generated_Source\PSoC4/engine_sensor_adc.c ****                 ,{engine_sensor_adc_UABH_B_SW_CC_IN0_PTR      , ((uint32)engine_sensor_adc_UABH_B_L
 384:Generated_Source\PSoC4/engine_sensor_adc.c ****                 ,{engine_sensor_adc_UABH_B_SW_CC_IN1_PTR      , ((uint32)engine_sensor_adc_UABH_B_L
 385:Generated_Source\PSoC4/engine_sensor_adc.c ****                 ,{engine_sensor_adc_UABH_B_SW_CF_BOT_PTR      , ((uint32)engine_sensor_adc_UABH_B_L
 386:Generated_Source\PSoC4/engine_sensor_adc.c ****                 
 387:Generated_Source\PSoC4/engine_sensor_adc.c ****                 /* Parameter-based registers */
 388:Generated_Source\PSoC4/engine_sensor_adc.c ****                 ,{engine_sensor_adc_UABH_B_CAP_CTRL_PTR       , ((uint32)engine_sensor_adc_CFG2_UAB
 389:Generated_Source\PSoC4/engine_sensor_adc.c ****                 ,{engine_sensor_adc_UABH_B_SW_CC_TOP_PTR      , ((uint32)engine_sensor_adc_CFG2_UAB
 390:Generated_Source\PSoC4/engine_sensor_adc.c ****                 ,{engine_sensor_adc_UABH_B_CAP_ABCF_VAL_PTR   , ((uint32)engine_sensor_adc_CFG2_UAB
 391:Generated_Source\PSoC4/engine_sensor_adc.c ****             #elif (engine_sensor_adc_CFG2_FILTERTYPE_USED == engine_sensor_adc_FILTERTOPOLOGY_HIGH_
 392:Generated_Source\PSoC4/engine_sensor_adc.c ****             	/* Filter-invariant registers */
 393:Generated_Source\PSoC4/engine_sensor_adc.c ****                 ,{engine_sensor_adc_UABH_B_SW_CA_IN0_PTR      , ((uint32)engine_sensor_adc_UABH_B_H
 394:Generated_Source\PSoC4/engine_sensor_adc.c ****                 ,{engine_sensor_adc_UABH_B_SW_CA_IN1_PTR      , ((uint32)engine_sensor_adc_UABH_B_H
 395:Generated_Source\PSoC4/engine_sensor_adc.c ****                 ,{engine_sensor_adc_UABH_B_SW_CA_TOP_PTR      , ((uint32)engine_sensor_adc_UABH_B_H
 396:Generated_Source\PSoC4/engine_sensor_adc.c ****                 ,{engine_sensor_adc_UABH_B_SW_CB_IN0_PTR      , ((uint32)engine_sensor_adc_UABH_B_H
 397:Generated_Source\PSoC4/engine_sensor_adc.c ****                 ,{engine_sensor_adc_UABH_B_SW_CB_IN1_PTR      , ((uint32)engine_sensor_adc_UABH_B_H
 398:Generated_Source\PSoC4/engine_sensor_adc.c ****                 ,{engine_sensor_adc_UABH_B_SW_CC_IN0_PTR      , ((uint32)engine_sensor_adc_UABH_B_H
 399:Generated_Source\PSoC4/engine_sensor_adc.c ****                 ,{engine_sensor_adc_UABH_B_SW_CC_IN1_PTR      , ((uint32)engine_sensor_adc_UABH_B_H
 400:Generated_Source\PSoC4/engine_sensor_adc.c ****                 ,{engine_sensor_adc_UABH_B_SW_CF_BOT_PTR      , ((uint32)engine_sensor_adc_UABH_B_H
 401:Generated_Source\PSoC4/engine_sensor_adc.c ****                 
 402:Generated_Source\PSoC4/engine_sensor_adc.c ****                 /* Parameter-based registers */
 403:Generated_Source\PSoC4/engine_sensor_adc.c ****                 ,{engine_sensor_adc_UABH_B_CAP_CTRL_PTR       , ((uint32)engine_sensor_adc_CFG2_UAB
 404:Generated_Source\PSoC4/engine_sensor_adc.c ****                 ,{engine_sensor_adc_UABH_B_SW_CB_TOP_PTR      , ((uint32)engine_sensor_adc_CFG2_UAB
 405:Generated_Source\PSoC4/engine_sensor_adc.c ****                 ,{engine_sensor_adc_UABH_B_SW_CC_TOP_PTR      , ((uint32)engine_sensor_adc_CFG2_UAB
 406:Generated_Source\PSoC4/engine_sensor_adc.c ****                 ,{engine_sensor_adc_UABH_B_CAP_ABCF_VAL_PTR   , ((uint32)engine_sensor_adc_CFG2_UAB
 407:Generated_Source\PSoC4/engine_sensor_adc.c ****             #endif /* #if (engine_sensor_adc_CFG2_FILTERTYPE_USED == engine_sensor_adc_FILTERTOPOLO
 408:Generated_Source\PSoC4/engine_sensor_adc.c ****         };
 409:Generated_Source\PSoC4/engine_sensor_adc.c **** 
 410:Generated_Source\PSoC4/engine_sensor_adc.c ****         static CyUAB_config engine_sensor_adc_CFG2_UABH_A_FILTER_config = {
 411:Generated_Source\PSoC4/engine_sensor_adc.c ****             engine_sensor_adc_UABH_A_waveConfig,
 412:Generated_Source\PSoC4/engine_sensor_adc.c ****             engine_sensor_adc_CFG2_UABH_A_FILTER_initPairs,
 413:Generated_Source\PSoC4/engine_sensor_adc.c ****             CyUAB_SHARED_SW_CFG(engine_sensor_adc_UABH_A_PARAM_REF_TIED,engine_sensor_adc_UABH_A_PA
 414:Generated_Source\PSoC4/engine_sensor_adc.c ****                 engine_sensor_adc_UABH_A_PARAM_SW_CC,engine_sensor_adc_UABH_A_PARAM_SW_BB,engine_se
 415:Generated_Source\PSoC4/engine_sensor_adc.c ****             engine_sensor_adc_UABH_A_NUM_STEPS,
 416:Generated_Source\PSoC4/engine_sensor_adc.c ****             (uint8)(engine_sensor_adc_UABH_A_ELEMENT_COUNT(engine_sensor_adc_CFG2_UABH_A_FILTER_ini
 417:Generated_Source\PSoC4/engine_sensor_adc.c ****         };
 418:Generated_Source\PSoC4/engine_sensor_adc.c **** 
 419:Generated_Source\PSoC4/engine_sensor_adc.c ****         static CyUAB_config engine_sensor_adc_CFG2_UABH_B_FILTER_config = {
 420:Generated_Source\PSoC4/engine_sensor_adc.c ****         engine_sensor_adc_UABH_B_waveConfig,
 421:Generated_Source\PSoC4/engine_sensor_adc.c ****         engine_sensor_adc_CFG2_UABH_B_FILTER_initPairs,
 422:Generated_Source\PSoC4/engine_sensor_adc.c ****         CyUAB_SHARED_SW_CFG(engine_sensor_adc_UABH_B_PARAM_REF_TIED,engine_sensor_adc_UABH_B_PARAM_
ARM GAS  C:\Users\fneves\AppData\Local\Temp\ccV5UskS.s 			page 11


 423:Generated_Source\PSoC4/engine_sensor_adc.c ****             engine_sensor_adc_UABH_B_PARAM_SW_CC,engine_sensor_adc_UABH_B_PARAM_SW_BB,engine_sensor
 424:Generated_Source\PSoC4/engine_sensor_adc.c ****         engine_sensor_adc_UABH_B_NUM_STEPS,
 425:Generated_Source\PSoC4/engine_sensor_adc.c ****         (uint8)(engine_sensor_adc_UABH_B_ELEMENT_COUNT(engine_sensor_adc_CFG2_UABH_B_FILTER_initPai
 426:Generated_Source\PSoC4/engine_sensor_adc.c ****     };
 427:Generated_Source\PSoC4/engine_sensor_adc.c ****     #endif /* (0u != engine_sensor_adc_CFG2_FILTER_PRESENT) */
 428:Generated_Source\PSoC4/engine_sensor_adc.c ****     #if (0u != engine_sensor_adc_CFG3_FILTER_PRESENT)
 429:Generated_Source\PSoC4/engine_sensor_adc.c ****         #define engine_sensor_adc_CFG3_UABH_A_FILTER_INITPAIRSSIZE ((engine_sensor_adc_CFG3_FILTERT
 430:Generated_Source\PSoC4/engine_sensor_adc.c ****                                                              ? 18u \
 431:Generated_Source\PSoC4/engine_sensor_adc.c ****                                                              : 18u)
 432:Generated_Source\PSoC4/engine_sensor_adc.c ****         static CyUAB_reg_pair engine_sensor_adc_CFG3_UABH_A_FILTER_initPairs[engine_sensor_adc_CFG3
 433:Generated_Source\PSoC4/engine_sensor_adc.c ****         {
 434:Generated_Source\PSoC4/engine_sensor_adc.c ****         	/*OA_CTRL default always first element in initPairs*/
 435:Generated_Source\PSoC4/engine_sensor_adc.c ****             /* Topology-invariant registers */
 436:Generated_Source\PSoC4/engine_sensor_adc.c ****              {engine_sensor_adc_UABH_A_OA_CTRL_PTR        , ((uint32)engine_sensor_adc_UABH_A_DEFAU
 437:Generated_Source\PSoC4/engine_sensor_adc.c ****             ,{engine_sensor_adc_UABH_A_SW_STATIC_PTR      , ((uint32)engine_sensor_adc_UABH_A_DEFAU
 438:Generated_Source\PSoC4/engine_sensor_adc.c ****             ,{engine_sensor_adc_UABH_A_SW_MODBIT_SRC_PTR      , ((uint32)engine_sensor_adc_UABH_A_I
 439:Generated_Source\PSoC4/engine_sensor_adc.c ****             ,{engine_sensor_adc_UABH_A_SRAM_CTRL_PTR      , ((uint32)engine_sensor_adc_UABH_A_INVAR
 440:Generated_Source\PSoC4/engine_sensor_adc.c ****             ,{engine_sensor_adc_UABH_A_STARTUP_DELAY_PTR  , ((uint32)engine_sensor_adc_CFG3_UABH_A_
 441:Generated_Source\PSoC4/engine_sensor_adc.c ****             ,{engine_sensor_adc_UABH_A_SW_BOOST_CTRL_PTR  , ((uint32)engine_sensor_adc_UABH_A_DEFAU
 442:Generated_Source\PSoC4/engine_sensor_adc.c ****             ,{engine_sensor_adc_UABH_A_SW_OTHER_PTR  , ((uint32)engine_sensor_adc_UABH_A_DEFAULT_SW
 443:Generated_Source\PSoC4/engine_sensor_adc.c ****             
 444:Generated_Source\PSoC4/engine_sensor_adc.c ****             #if (engine_sensor_adc_CFG3_FILTERTYPE_USED == engine_sensor_adc_FILTERTOPOLOGY_LOW_Q)
 445:Generated_Source\PSoC4/engine_sensor_adc.c ****                 /* Filter-invariant registers */
 446:Generated_Source\PSoC4/engine_sensor_adc.c ****                 ,{engine_sensor_adc_UABH_A_SW_CA_IN0_PTR      , ((uint32)engine_sensor_adc_UABH_A_L
 447:Generated_Source\PSoC4/engine_sensor_adc.c ****                 ,{engine_sensor_adc_UABH_A_SW_CA_TOP_PTR      , ((uint32)engine_sensor_adc_UABH_A_L
 448:Generated_Source\PSoC4/engine_sensor_adc.c ****                 ,{engine_sensor_adc_UABH_A_SW_CC_IN0_PTR      , ((uint32)engine_sensor_adc_UABH_A_L
 449:Generated_Source\PSoC4/engine_sensor_adc.c ****                 ,{engine_sensor_adc_UABH_A_SW_CC_IN1_PTR      , ((uint32)engine_sensor_adc_UABH_A_L
 450:Generated_Source\PSoC4/engine_sensor_adc.c ****                 ,{engine_sensor_adc_UABH_A_SW_CF_BOT_PTR      , ((uint32)engine_sensor_adc_UABH_A_L
 451:Generated_Source\PSoC4/engine_sensor_adc.c **** 
 452:Generated_Source\PSoC4/engine_sensor_adc.c ****                 /* Parameter-based registers */
 453:Generated_Source\PSoC4/engine_sensor_adc.c ****                 ,{engine_sensor_adc_UABH_A_CAP_CTRL_PTR       , ((uint32)engine_sensor_adc_CFG3_UAB
 454:Generated_Source\PSoC4/engine_sensor_adc.c ****                 ,{engine_sensor_adc_UABH_A_SW_CB_IN0_PTR      , ((uint32)engine_sensor_adc_CFG3_UAB
 455:Generated_Source\PSoC4/engine_sensor_adc.c ****                 ,{engine_sensor_adc_UABH_A_SW_CB_IN1_PTR      , ((uint32)engine_sensor_adc_CFG3_UAB
 456:Generated_Source\PSoC4/engine_sensor_adc.c ****                 ,{engine_sensor_adc_UABH_A_SW_CB_TOP_PTR      , ((uint32)engine_sensor_adc_CFG3_UAB
 457:Generated_Source\PSoC4/engine_sensor_adc.c ****                 ,{engine_sensor_adc_UABH_A_SW_CC_TOP_PTR      , ((uint32)engine_sensor_adc_CFG3_UAB
 458:Generated_Source\PSoC4/engine_sensor_adc.c ****                 ,{engine_sensor_adc_UABH_A_CAP_ABCF_VAL_PTR   , ((uint32)engine_sensor_adc_CFG3_UAB
 459:Generated_Source\PSoC4/engine_sensor_adc.c ****             #elif (engine_sensor_adc_CFG3_FILTERTYPE_USED == engine_sensor_adc_FILTERTOPOLOGY_HIGH_
 460:Generated_Source\PSoC4/engine_sensor_adc.c ****                 /* Filter-invariant registers */
 461:Generated_Source\PSoC4/engine_sensor_adc.c ****                 ,{engine_sensor_adc_UABH_A_SW_CA_IN0_PTR      , ((uint32)engine_sensor_adc_UABH_A_H
 462:Generated_Source\PSoC4/engine_sensor_adc.c ****                 ,{engine_sensor_adc_UABH_A_SW_CA_TOP_PTR      , ((uint32)engine_sensor_adc_UABH_A_H
 463:Generated_Source\PSoC4/engine_sensor_adc.c ****                 ,{engine_sensor_adc_UABH_A_SW_CB_IN0_PTR      , ((uint32)engine_sensor_adc_UABH_A_H
 464:Generated_Source\PSoC4/engine_sensor_adc.c ****                 ,{engine_sensor_adc_UABH_A_SW_CB_IN1_PTR      , ((uint32)engine_sensor_adc_UABH_A_H
 465:Generated_Source\PSoC4/engine_sensor_adc.c ****                 ,{engine_sensor_adc_UABH_A_SW_CC_IN0_PTR      , ((uint32)engine_sensor_adc_UABH_A_H
 466:Generated_Source\PSoC4/engine_sensor_adc.c ****                 ,{engine_sensor_adc_UABH_A_SW_CC_IN1_PTR      , ((uint32)engine_sensor_adc_UABH_A_H
 467:Generated_Source\PSoC4/engine_sensor_adc.c ****                 ,{engine_sensor_adc_UABH_A_SW_CC_TOP_PTR      , ((uint32)engine_sensor_adc_UABH_A_H
 468:Generated_Source\PSoC4/engine_sensor_adc.c ****                 ,{engine_sensor_adc_UABH_A_SW_CF_BOT_PTR      , ((uint32)engine_sensor_adc_UABH_A_H
 469:Generated_Source\PSoC4/engine_sensor_adc.c **** 
 470:Generated_Source\PSoC4/engine_sensor_adc.c ****                 /* Parameter-based registers */
 471:Generated_Source\PSoC4/engine_sensor_adc.c ****                 ,{engine_sensor_adc_UABH_A_CAP_CTRL_PTR       , ((uint32)engine_sensor_adc_CFG3_UAB
 472:Generated_Source\PSoC4/engine_sensor_adc.c ****                 ,{engine_sensor_adc_UABH_A_SW_CB_TOP_PTR      , ((uint32)engine_sensor_adc_CFG3_UAB
 473:Generated_Source\PSoC4/engine_sensor_adc.c ****                 ,{engine_sensor_adc_UABH_A_CAP_ABCF_VAL_PTR   , ((uint32)engine_sensor_adc_CFG3_UAB
 474:Generated_Source\PSoC4/engine_sensor_adc.c ****             #endif /* (engine_sensor_adc_CFG3_FILTERTYPE_USED == engine_sensor_adc_FILTERTOPOLOGY_L
 475:Generated_Source\PSoC4/engine_sensor_adc.c ****         };
 476:Generated_Source\PSoC4/engine_sensor_adc.c **** 
 477:Generated_Source\PSoC4/engine_sensor_adc.c ****         #define engine_sensor_adc_CFG3_UABH_B_FILTER_INITPAIRSSIZE ((engine_sensor_adc_CFG3_FILTERT
 478:Generated_Source\PSoC4/engine_sensor_adc.c ****                                                              ? 19u \
 479:Generated_Source\PSoC4/engine_sensor_adc.c ****                                                              : 19u)
ARM GAS  C:\Users\fneves\AppData\Local\Temp\ccV5UskS.s 			page 12


 480:Generated_Source\PSoC4/engine_sensor_adc.c ****         static CyUAB_reg_pair engine_sensor_adc_CFG3_UABH_B_FILTER_initPairs[engine_sensor_adc_CFG3
 481:Generated_Source\PSoC4/engine_sensor_adc.c ****         {
 482:Generated_Source\PSoC4/engine_sensor_adc.c ****             /*OA_CTRL default always first element in initPairs*/
 483:Generated_Source\PSoC4/engine_sensor_adc.c ****             /* Topology-invariant registers */
 484:Generated_Source\PSoC4/engine_sensor_adc.c ****              {engine_sensor_adc_UABH_B_OA_CTRL_PTR        , ((uint32)engine_sensor_adc_UABH_B_DEFAU
 485:Generated_Source\PSoC4/engine_sensor_adc.c ****             ,{engine_sensor_adc_UABH_B_SW_STATIC_PTR      , ((uint32)engine_sensor_adc_UABH_B_DEFAU
 486:Generated_Source\PSoC4/engine_sensor_adc.c ****             ,{engine_sensor_adc_UABH_B_SW_MODBIT_SRC_PTR  , ((uint32)engine_sensor_adc_UABH_B_INVAR
 487:Generated_Source\PSoC4/engine_sensor_adc.c ****             ,{engine_sensor_adc_UABH_B_SRAM_CTRL_PTR      , ((uint32)engine_sensor_adc_UABH_B_INVAR
 488:Generated_Source\PSoC4/engine_sensor_adc.c ****             ,{engine_sensor_adc_UABH_B_STARTUP_DELAY_PTR  , ((uint32)engine_sensor_adc_CFG3_UABH_B_
 489:Generated_Source\PSoC4/engine_sensor_adc.c ****             ,{engine_sensor_adc_UABH_B_SW_BOOST_CTRL_PTR  , ((uint32)engine_sensor_adc_UABH_B_DEFAU
 490:Generated_Source\PSoC4/engine_sensor_adc.c ****             ,{engine_sensor_adc_UABH_B_SW_OTHER_PTR  , ((uint32)engine_sensor_adc_UABH_B_DEFAULT_SW
 491:Generated_Source\PSoC4/engine_sensor_adc.c ****             
 492:Generated_Source\PSoC4/engine_sensor_adc.c ****             #if (engine_sensor_adc_CFG3_FILTERTYPE_USED == engine_sensor_adc_FILTERTOPOLOGY_LOW_Q)
 493:Generated_Source\PSoC4/engine_sensor_adc.c ****                     	/* Filter-invariant registers */
 494:Generated_Source\PSoC4/engine_sensor_adc.c ****                 ,{engine_sensor_adc_UABH_B_SW_CA_IN0_PTR      , ((uint32)engine_sensor_adc_UABH_B_L
 495:Generated_Source\PSoC4/engine_sensor_adc.c ****                 ,{engine_sensor_adc_UABH_B_SW_CA_IN1_PTR      , ((uint32)engine_sensor_adc_UABH_B_L
 496:Generated_Source\PSoC4/engine_sensor_adc.c ****                 ,{engine_sensor_adc_UABH_B_SW_CA_TOP_PTR      , ((uint32)engine_sensor_adc_UABH_B_L
 497:Generated_Source\PSoC4/engine_sensor_adc.c ****                 ,{engine_sensor_adc_UABH_B_SW_CB_IN0_PTR      , ((uint32)engine_sensor_adc_UABH_B_L
 498:Generated_Source\PSoC4/engine_sensor_adc.c ****                 ,{engine_sensor_adc_UABH_B_SW_CB_IN1_PTR      , ((uint32)engine_sensor_adc_UABH_B_L
 499:Generated_Source\PSoC4/engine_sensor_adc.c ****                 ,{engine_sensor_adc_UABH_B_SW_CB_TOP_PTR      , ((uint32)engine_sensor_adc_UABH_B_L
 500:Generated_Source\PSoC4/engine_sensor_adc.c ****                 ,{engine_sensor_adc_UABH_B_SW_CC_IN0_PTR      , ((uint32)engine_sensor_adc_UABH_B_L
 501:Generated_Source\PSoC4/engine_sensor_adc.c ****                 ,{engine_sensor_adc_UABH_B_SW_CC_IN1_PTR      , ((uint32)engine_sensor_adc_UABH_B_L
 502:Generated_Source\PSoC4/engine_sensor_adc.c ****                 ,{engine_sensor_adc_UABH_B_SW_CF_BOT_PTR      , ((uint32)engine_sensor_adc_UABH_B_L
 503:Generated_Source\PSoC4/engine_sensor_adc.c ****                 
 504:Generated_Source\PSoC4/engine_sensor_adc.c ****                 /* Parameter-based registers */
 505:Generated_Source\PSoC4/engine_sensor_adc.c ****                 ,{engine_sensor_adc_UABH_B_CAP_CTRL_PTR       , ((uint32)engine_sensor_adc_CFG3_UAB
 506:Generated_Source\PSoC4/engine_sensor_adc.c ****                 ,{engine_sensor_adc_UABH_B_SW_CC_TOP_PTR      , ((uint32)engine_sensor_adc_CFG3_UAB
 507:Generated_Source\PSoC4/engine_sensor_adc.c ****                 ,{engine_sensor_adc_UABH_B_CAP_ABCF_VAL_PTR   , ((uint32)engine_sensor_adc_CFG3_UAB
 508:Generated_Source\PSoC4/engine_sensor_adc.c ****             #elif (engine_sensor_adc_CFG3_FILTERTYPE_USED == engine_sensor_adc_FILTERTOPOLOGY_HIGH_
 509:Generated_Source\PSoC4/engine_sensor_adc.c ****             	/* Filter-invariant registers */
 510:Generated_Source\PSoC4/engine_sensor_adc.c ****                 ,{engine_sensor_adc_UABH_B_SW_CA_IN0_PTR      , ((uint32)engine_sensor_adc_UABH_B_H
 511:Generated_Source\PSoC4/engine_sensor_adc.c ****                 ,{engine_sensor_adc_UABH_B_SW_CA_IN1_PTR      , ((uint32)engine_sensor_adc_UABH_B_H
 512:Generated_Source\PSoC4/engine_sensor_adc.c ****                 ,{engine_sensor_adc_UABH_B_SW_CA_TOP_PTR      , ((uint32)engine_sensor_adc_UABH_B_H
 513:Generated_Source\PSoC4/engine_sensor_adc.c ****                 ,{engine_sensor_adc_UABH_B_SW_CB_IN0_PTR      , ((uint32)engine_sensor_adc_UABH_B_H
 514:Generated_Source\PSoC4/engine_sensor_adc.c ****                 ,{engine_sensor_adc_UABH_B_SW_CB_IN1_PTR      , ((uint32)engine_sensor_adc_UABH_B_H
 515:Generated_Source\PSoC4/engine_sensor_adc.c ****                 ,{engine_sensor_adc_UABH_B_SW_CC_IN0_PTR      , ((uint32)engine_sensor_adc_UABH_B_H
 516:Generated_Source\PSoC4/engine_sensor_adc.c ****                 ,{engine_sensor_adc_UABH_B_SW_CC_IN1_PTR      , ((uint32)engine_sensor_adc_UABH_B_H
 517:Generated_Source\PSoC4/engine_sensor_adc.c ****                 ,{engine_sensor_adc_UABH_B_SW_CF_BOT_PTR      , ((uint32)engine_sensor_adc_UABH_B_H
 518:Generated_Source\PSoC4/engine_sensor_adc.c ****                 
 519:Generated_Source\PSoC4/engine_sensor_adc.c ****                 /* Parameter-based registers */
 520:Generated_Source\PSoC4/engine_sensor_adc.c ****                 ,{engine_sensor_adc_UABH_B_CAP_CTRL_PTR       , ((uint32)engine_sensor_adc_CFG3_UAB
 521:Generated_Source\PSoC4/engine_sensor_adc.c ****                 ,{engine_sensor_adc_UABH_B_SW_CB_TOP_PTR      , ((uint32)engine_sensor_adc_CFG3_UAB
 522:Generated_Source\PSoC4/engine_sensor_adc.c ****                 ,{engine_sensor_adc_UABH_B_SW_CC_TOP_PTR      , ((uint32)engine_sensor_adc_CFG3_UAB
 523:Generated_Source\PSoC4/engine_sensor_adc.c ****                 ,{engine_sensor_adc_UABH_B_CAP_ABCF_VAL_PTR   , ((uint32)engine_sensor_adc_CFG3_UAB
 524:Generated_Source\PSoC4/engine_sensor_adc.c ****             #endif /* #if (engine_sensor_adc_CFG3_FILTERTYPE_USED == engine_sensor_adc_FILTERTOPOLO
 525:Generated_Source\PSoC4/engine_sensor_adc.c ****         };
 526:Generated_Source\PSoC4/engine_sensor_adc.c **** 
 527:Generated_Source\PSoC4/engine_sensor_adc.c ****         static CyUAB_config engine_sensor_adc_CFG3_UABH_A_FILTER_config = {
 528:Generated_Source\PSoC4/engine_sensor_adc.c ****             engine_sensor_adc_UABH_A_waveConfig,
 529:Generated_Source\PSoC4/engine_sensor_adc.c ****             engine_sensor_adc_CFG3_UABH_A_FILTER_initPairs,
 530:Generated_Source\PSoC4/engine_sensor_adc.c ****             CyUAB_SHARED_SW_CFG(engine_sensor_adc_UABH_A_PARAM_REF_TIED,engine_sensor_adc_UABH_A_PA
 531:Generated_Source\PSoC4/engine_sensor_adc.c ****                 engine_sensor_adc_UABH_A_PARAM_SW_CC,engine_sensor_adc_UABH_A_PARAM_SW_BB,engine_se
 532:Generated_Source\PSoC4/engine_sensor_adc.c ****             engine_sensor_adc_UABH_A_NUM_STEPS,
 533:Generated_Source\PSoC4/engine_sensor_adc.c ****             (uint8)(engine_sensor_adc_UABH_A_ELEMENT_COUNT(engine_sensor_adc_CFG3_UABH_A_FILTER_ini
 534:Generated_Source\PSoC4/engine_sensor_adc.c ****         };
 535:Generated_Source\PSoC4/engine_sensor_adc.c **** 
 536:Generated_Source\PSoC4/engine_sensor_adc.c ****         static CyUAB_config engine_sensor_adc_CFG3_UABH_B_FILTER_config = {
ARM GAS  C:\Users\fneves\AppData\Local\Temp\ccV5UskS.s 			page 13


 537:Generated_Source\PSoC4/engine_sensor_adc.c ****         engine_sensor_adc_UABH_B_waveConfig,
 538:Generated_Source\PSoC4/engine_sensor_adc.c ****         engine_sensor_adc_CFG3_UABH_B_FILTER_initPairs,
 539:Generated_Source\PSoC4/engine_sensor_adc.c ****         CyUAB_SHARED_SW_CFG(engine_sensor_adc_UABH_B_PARAM_REF_TIED,engine_sensor_adc_UABH_B_PARAM_
 540:Generated_Source\PSoC4/engine_sensor_adc.c ****             engine_sensor_adc_UABH_B_PARAM_SW_CC,engine_sensor_adc_UABH_B_PARAM_SW_BB,engine_sensor
 541:Generated_Source\PSoC4/engine_sensor_adc.c ****         engine_sensor_adc_UABH_B_NUM_STEPS,
 542:Generated_Source\PSoC4/engine_sensor_adc.c ****         (uint8)(engine_sensor_adc_UABH_B_ELEMENT_COUNT(engine_sensor_adc_CFG3_UABH_B_FILTER_initPai
 543:Generated_Source\PSoC4/engine_sensor_adc.c ****     };
 544:Generated_Source\PSoC4/engine_sensor_adc.c ****     #endif /* (0u != engine_sensor_adc_CFG3_FILTER_PRESENT) */
 545:Generated_Source\PSoC4/engine_sensor_adc.c ****     
 546:Generated_Source\PSoC4/engine_sensor_adc.c ****     
 547:Generated_Source\PSoC4/engine_sensor_adc.c **** #endif /* (engine_sensor_adc_ANY_CONFIG_USES_FILTER	!= 0u)	*/
 548:Generated_Source\PSoC4/engine_sensor_adc.c **** 
 549:Generated_Source\PSoC4/engine_sensor_adc.c **** /*******************************************************************************
 550:Generated_Source\PSoC4/engine_sensor_adc.c **** * Function Name: engine_sensor_adc_Start
 551:Generated_Source\PSoC4/engine_sensor_adc.c **** ****************************************************************************//**
 552:Generated_Source\PSoC4/engine_sensor_adc.c **** *
 553:Generated_Source\PSoC4/engine_sensor_adc.c **** * \brief Performs all required initialization for this component and enables the 
 554:Generated_Source\PSoC4/engine_sensor_adc.c **** *  power. The power will be set to the appropriate power based on the clock 
 555:Generated_Source\PSoC4/engine_sensor_adc.c **** *  frequency.
 556:Generated_Source\PSoC4/engine_sensor_adc.c **** * 
 557:Generated_Source\PSoC4/engine_sensor_adc.c **** * \param None
 558:Generated_Source\PSoC4/engine_sensor_adc.c **** * 
 559:Generated_Source\PSoC4/engine_sensor_adc.c **** * \return None
 560:Generated_Source\PSoC4/engine_sensor_adc.c **** * 
 561:Generated_Source\PSoC4/engine_sensor_adc.c **** * \sideeffect None
 562:Generated_Source\PSoC4/engine_sensor_adc.c **** *
 563:Generated_Source\PSoC4/engine_sensor_adc.c **** * \globalvars
 564:Generated_Source\PSoC4/engine_sensor_adc.c **** *  \ref engine_sensor_adc_initVar (RW)
 565:Generated_Source\PSoC4/engine_sensor_adc.c **** *
 566:Generated_Source\PSoC4/engine_sensor_adc.c **** * <b>Code Snippet</b>
 567:Generated_Source\PSoC4/engine_sensor_adc.c **** *  \snippet main.c snippet_engine_sensor_adc_Start
 568:Generated_Source\PSoC4/engine_sensor_adc.c **** *
 569:Generated_Source\PSoC4/engine_sensor_adc.c **** *******************************************************************************/
 570:Generated_Source\PSoC4/engine_sensor_adc.c **** void engine_sensor_adc_Start(void)
 571:Generated_Source\PSoC4/engine_sensor_adc.c **** {
 149              		.loc 1 571 0
 150              		.cfi_startproc
 151 0000 80B5     		push	{r7, lr}
 152              		.cfi_def_cfa_offset 8
 153              		.cfi_offset 7, -8
 154              		.cfi_offset 14, -4
 155 0002 00AF     		add	r7, sp, #0
 156              		.cfi_def_cfa_register 7
 572:Generated_Source\PSoC4/engine_sensor_adc.c ****     if (engine_sensor_adc_INIT_VAR_INIT_FLAG != (engine_sensor_adc_INIT_VAR_INIT_FLAG & engine_sens
 157              		.loc 1 572 0
 158 0004 0A4B     		ldr	r3, .L4
 159 0006 1B78     		ldrb	r3, [r3]
 160 0008 0122     		mov	r2, #1
 161 000a 1340     		and	r3, r2
 162 000c DBB2     		uxtb	r3, r3
 163 000e 002B     		cmp	r3, #0
 164 0010 08D1     		bne	.L2
 573:Generated_Source\PSoC4/engine_sensor_adc.c ****     {
 574:Generated_Source\PSoC4/engine_sensor_adc.c ****         engine_sensor_adc_Init();
 165              		.loc 1 574 0
 166 0012 FFF7FEFF 		bl	engine_sensor_adc_Init
 575:Generated_Source\PSoC4/engine_sensor_adc.c ****         engine_sensor_adc_initVar |= engine_sensor_adc_INIT_VAR_INIT_FLAG;
ARM GAS  C:\Users\fneves\AppData\Local\Temp\ccV5UskS.s 			page 14


 167              		.loc 1 575 0
 168 0016 064B     		ldr	r3, .L4
 169 0018 1B78     		ldrb	r3, [r3]
 170 001a 0122     		mov	r2, #1
 171 001c 1343     		orr	r3, r2
 172 001e DAB2     		uxtb	r2, r3
 173 0020 034B     		ldr	r3, .L4
 174 0022 1A70     		strb	r2, [r3]
 175              	.L2:
 576:Generated_Source\PSoC4/engine_sensor_adc.c ****     }
 577:Generated_Source\PSoC4/engine_sensor_adc.c ****     
 578:Generated_Source\PSoC4/engine_sensor_adc.c ****     engine_sensor_adc_Enable();
 176              		.loc 1 578 0
 177 0024 FFF7FEFF 		bl	engine_sensor_adc_Enable
 579:Generated_Source\PSoC4/engine_sensor_adc.c ****     
 580:Generated_Source\PSoC4/engine_sensor_adc.c ****     return;
 178              		.loc 1 580 0
 179 0028 C046     		mov	r8, r8
 581:Generated_Source\PSoC4/engine_sensor_adc.c **** }
 180              		.loc 1 581 0
 181 002a BD46     		mov	sp, r7
 182              		@ sp needed
 183 002c 80BD     		pop	{r7, pc}
 184              	.L5:
 185 002e C046     		.align	2
 186              	.L4:
 187 0030 00000000 		.word	engine_sensor_adc_initVar
 188              		.cfi_endproc
 189              	.LFE1:
 190              		.size	engine_sensor_adc_Start, .-engine_sensor_adc_Start
 191              		.section	.text.engine_sensor_adc_StartEx,"ax",%progbits
 192              		.align	2
 193              		.global	engine_sensor_adc_StartEx
 194              		.code	16
 195              		.thumb_func
 196              		.type	engine_sensor_adc_StartEx, %function
 197              	engine_sensor_adc_StartEx:
 198              	.LFB2:
 582:Generated_Source\PSoC4/engine_sensor_adc.c **** 
 583:Generated_Source\PSoC4/engine_sensor_adc.c **** /*******************************************************************************
 584:Generated_Source\PSoC4/engine_sensor_adc.c **** * Function Name: engine_sensor_adc_StartEx
 585:Generated_Source\PSoC4/engine_sensor_adc.c **** ****************************************************************************//**
 586:Generated_Source\PSoC4/engine_sensor_adc.c **** *
 587:Generated_Source\PSoC4/engine_sensor_adc.c **** * \brief This function starts the engine_sensor_adc and sets the Interrupt 
 588:Generated_Source\PSoC4/engine_sensor_adc.c **** * Service Routine to the provided address using the 
 589:Generated_Source\PSoC4/engine_sensor_adc.c **** * engine_sensor_adc_IRQ_StartEx() function. Refer to the Interrupt component 
 590:Generated_Source\PSoC4/engine_sensor_adc.c **** * datasheet for more information on the engine_sensor_adc_IRQ_StartEx() function.
 591:Generated_Source\PSoC4/engine_sensor_adc.c **** * 
 592:Generated_Source\PSoC4/engine_sensor_adc.c **** * \param address This is the address of a user defined function for the ISR.
 593:Generated_Source\PSoC4/engine_sensor_adc.c **** * 
 594:Generated_Source\PSoC4/engine_sensor_adc.c **** * \return None
 595:Generated_Source\PSoC4/engine_sensor_adc.c **** * 
 596:Generated_Source\PSoC4/engine_sensor_adc.c **** * \sideeffect None
 597:Generated_Source\PSoC4/engine_sensor_adc.c **** *
 598:Generated_Source\PSoC4/engine_sensor_adc.c **** * <b>Code Snippet</b>
 599:Generated_Source\PSoC4/engine_sensor_adc.c **** *  \snippet main.c snippet_engine_sensor_adc_StartEx
 600:Generated_Source\PSoC4/engine_sensor_adc.c **** *
ARM GAS  C:\Users\fneves\AppData\Local\Temp\ccV5UskS.s 			page 15


 601:Generated_Source\PSoC4/engine_sensor_adc.c **** *******************************************************************************/
 602:Generated_Source\PSoC4/engine_sensor_adc.c **** void engine_sensor_adc_StartEx(cyisraddress address)
 603:Generated_Source\PSoC4/engine_sensor_adc.c **** {
 199              		.loc 1 603 0
 200              		.cfi_startproc
 201 0000 80B5     		push	{r7, lr}
 202              		.cfi_def_cfa_offset 8
 203              		.cfi_offset 7, -8
 204              		.cfi_offset 14, -4
 205 0002 82B0     		sub	sp, sp, #8
 206              		.cfi_def_cfa_offset 16
 207 0004 00AF     		add	r7, sp, #0
 208              		.cfi_def_cfa_register 7
 209 0006 7860     		str	r0, [r7, #4]
 604:Generated_Source\PSoC4/engine_sensor_adc.c ****     engine_sensor_adc_Start();
 210              		.loc 1 604 0
 211 0008 FFF7FEFF 		bl	engine_sensor_adc_Start
 605:Generated_Source\PSoC4/engine_sensor_adc.c ****     engine_sensor_adc_IRQ_StartEx(address);
 212              		.loc 1 605 0
 213 000c 7B68     		ldr	r3, [r7, #4]
 214 000e 181C     		mov	r0, r3
 215 0010 FFF7FEFF 		bl	engine_sensor_adc_IRQ_StartEx
 606:Generated_Source\PSoC4/engine_sensor_adc.c ****     return;
 216              		.loc 1 606 0
 217 0014 C046     		mov	r8, r8
 607:Generated_Source\PSoC4/engine_sensor_adc.c **** }
 218              		.loc 1 607 0
 219 0016 BD46     		mov	sp, r7
 220 0018 02B0     		add	sp, sp, #8
 221              		@ sp needed
 222 001a 80BD     		pop	{r7, pc}
 223              		.cfi_endproc
 224              	.LFE2:
 225              		.size	engine_sensor_adc_StartEx, .-engine_sensor_adc_StartEx
 226              		.section	.text.engine_sensor_adc_Stop,"ax",%progbits
 227              		.align	2
 228              		.global	engine_sensor_adc_Stop
 229              		.code	16
 230              		.thumb_func
 231              		.type	engine_sensor_adc_Stop, %function
 232              	engine_sensor_adc_Stop:
 233              	.LFB3:
 608:Generated_Source\PSoC4/engine_sensor_adc.c **** 
 609:Generated_Source\PSoC4/engine_sensor_adc.c **** /*******************************************************************************
 610:Generated_Source\PSoC4/engine_sensor_adc.c **** * Function Name: engine_sensor_adc_Stop
 611:Generated_Source\PSoC4/engine_sensor_adc.c **** ****************************************************************************//**
 612:Generated_Source\PSoC4/engine_sensor_adc.c **** *
 613:Generated_Source\PSoC4/engine_sensor_adc.c **** * \brief This function stops ADC conversions and puts the ADC into its lowest 
 614:Generated_Source\PSoC4/engine_sensor_adc.c **** * power mode.
 615:Generated_Source\PSoC4/engine_sensor_adc.c **** * 
 616:Generated_Source\PSoC4/engine_sensor_adc.c **** * \param None
 617:Generated_Source\PSoC4/engine_sensor_adc.c **** * 
 618:Generated_Source\PSoC4/engine_sensor_adc.c **** * \return None
 619:Generated_Source\PSoC4/engine_sensor_adc.c **** * 
 620:Generated_Source\PSoC4/engine_sensor_adc.c **** * \sideeffect
 621:Generated_Source\PSoC4/engine_sensor_adc.c **** * Do not use the engine_sensor_adc_Stop() API to halt conversions. Instead use the 
 622:Generated_Source\PSoC4/engine_sensor_adc.c **** * engine_sensor_adc_StopConvert() API. If you use the engine_sensor_adc_Stop() API 
ARM GAS  C:\Users\fneves\AppData\Local\Temp\ccV5UskS.s 			page 16


 623:Generated_Source\PSoC4/engine_sensor_adc.c **** * to halt conversions then later use the engine_sensor_adc_Start() and 
 624:Generated_Source\PSoC4/engine_sensor_adc.c **** * engine_sensor_adc_StartConvert() APIs to resume conversions, the first channel 
 625:Generated_Source\PSoC4/engine_sensor_adc.c **** * of the scan may be corrupt. The engine_sensor_adc_StopConvert() API will enable 
 626:Generated_Source\PSoC4/engine_sensor_adc.c **** * the engine_sensor_adc to complete the current scan of channels. After the 
 627:Generated_Source\PSoC4/engine_sensor_adc.c **** * channel scan is complete, the engine_sensor_adc will stop all conversions, which 
 628:Generated_Source\PSoC4/engine_sensor_adc.c **** * can be detected by the use of an ISR or the engine_sensor_adc_IsEndConversion() 
 629:Generated_Source\PSoC4/engine_sensor_adc.c **** * flag.
 630:Generated_Source\PSoC4/engine_sensor_adc.c **** *
 631:Generated_Source\PSoC4/engine_sensor_adc.c **** * <b>Code Snippet</b>
 632:Generated_Source\PSoC4/engine_sensor_adc.c **** *  \snippet main.c snippet_engine_sensor_adc_Stop
 633:Generated_Source\PSoC4/engine_sensor_adc.c **** *
 634:Generated_Source\PSoC4/engine_sensor_adc.c **** *******************************************************************************/
 635:Generated_Source\PSoC4/engine_sensor_adc.c **** void engine_sensor_adc_Stop(void)
 636:Generated_Source\PSoC4/engine_sensor_adc.c **** {	
 234              		.loc 1 636 0
 235              		.cfi_startproc
 236 0000 80B5     		push	{r7, lr}
 237              		.cfi_def_cfa_offset 8
 238              		.cfi_offset 7, -8
 239              		.cfi_offset 14, -4
 240 0002 00AF     		add	r7, sp, #0
 241              		.cfi_def_cfa_register 7
 637:Generated_Source\PSoC4/engine_sensor_adc.c ****     #if(0u != engine_sensor_adc_ANY_CONFIG_USES_FILTER)	
 638:Generated_Source\PSoC4/engine_sensor_adc.c ****     	if((engine_sensor_adc_allConfigs[engine_sensor_adc_currentConfig].miscConfig 
 242              		.loc 1 638 0
 243 0004 0D4B     		ldr	r3, .L11
 244 0006 1A68     		ldr	r2, [r3]
 245 0008 0D49     		ldr	r1, .L11+4
 246 000a 131C     		mov	r3, r2
 247 000c DB00     		lsl	r3, r3, #3
 248 000e 9B1A     		sub	r3, r3, r2
 249 0010 DB00     		lsl	r3, r3, #3
 250 0012 CB18     		add	r3, r1, r3
 251 0014 3033     		add	r3, r3, #48
 252 0016 1B68     		ldr	r3, [r3]
 639:Generated_Source\PSoC4/engine_sensor_adc.c ****     	   & engine_sensor_adc_MISC_CONFIG_FILTER_PRESENT_MSK) 
 253              		.loc 1 639 0
 254 0018 0222     		mov	r2, #2
 255 001a 1340     		and	r3, r2
 638:Generated_Source\PSoC4/engine_sensor_adc.c ****     	   & engine_sensor_adc_MISC_CONFIG_FILTER_PRESENT_MSK) 
 256              		.loc 1 638 0
 257 001c 05D0     		beq	.L9
 640:Generated_Source\PSoC4/engine_sensor_adc.c ****     	   == engine_sensor_adc_MISC_CONFIG_FILTER_PRESENT_MSK)
 641:Generated_Source\PSoC4/engine_sensor_adc.c ****     	{
 642:Generated_Source\PSoC4/engine_sensor_adc.c ****     		engine_sensor_adc_UABH_A_Stop();
 258              		.loc 1 642 0
 259 001e FFF7FEFF 		bl	engine_sensor_adc_UABH_A_Stop
 643:Generated_Source\PSoC4/engine_sensor_adc.c ****     		engine_sensor_adc_UABH_B_Stop();
 260              		.loc 1 643 0
 261 0022 FFF7FEFF 		bl	engine_sensor_adc_UABH_B_Stop
 644:Generated_Source\PSoC4/engine_sensor_adc.c ****             engine_sensor_adc_FILTERAGND2SAR_BUFFER_Stop();
 262              		.loc 1 644 0
 263 0026 FFF7FEFF 		bl	engine_sensor_adc_FILTERAGND2SAR_BUFFER_Stop
 264              	.L9:
 645:Generated_Source\PSoC4/engine_sensor_adc.c ****     	}
 646:Generated_Source\PSoC4/engine_sensor_adc.c ****     #endif /* engine_sensor_adc_ANY_CONFIG_USES_FILTER != 0u */
 647:Generated_Source\PSoC4/engine_sensor_adc.c ****     engine_sensor_adc_SAR_CTRL_REG &= (uint32)~engine_sensor_adc_SAR_CTRL_ENABLED_MSK;
ARM GAS  C:\Users\fneves\AppData\Local\Temp\ccV5UskS.s 			page 17


 265              		.loc 1 647 0
 266 002a 064B     		ldr	r3, .L11+8
 267 002c 054A     		ldr	r2, .L11+8
 268 002e 1268     		ldr	r2, [r2]
 269 0030 5200     		lsl	r2, r2, #1
 270 0032 5208     		lsr	r2, r2, #1
 271 0034 1A60     		str	r2, [r3]
 648:Generated_Source\PSoC4/engine_sensor_adc.c ****     return;
 272              		.loc 1 648 0
 273 0036 C046     		mov	r8, r8
 649:Generated_Source\PSoC4/engine_sensor_adc.c **** }
 274              		.loc 1 649 0
 275 0038 BD46     		mov	sp, r7
 276              		@ sp needed
 277 003a 80BD     		pop	{r7, pc}
 278              	.L12:
 279              		.align	2
 280              	.L11:
 281 003c 04000000 		.word	engine_sensor_adc_currentConfig
 282 0040 00000000 		.word	engine_sensor_adc_allConfigs
 283 0044 00003A40 		.word	1077542912
 284              		.cfi_endproc
 285              	.LFE3:
 286              		.size	engine_sensor_adc_Stop, .-engine_sensor_adc_Stop
 287              		.section	.text.engine_sensor_adc_InitConfig,"ax",%progbits
 288              		.align	2
 289              		.global	engine_sensor_adc_InitConfig
 290              		.code	16
 291              		.thumb_func
 292              		.type	engine_sensor_adc_InitConfig, %function
 293              	engine_sensor_adc_InitConfig:
 294              	.LFB4:
 650:Generated_Source\PSoC4/engine_sensor_adc.c **** 
 651:Generated_Source\PSoC4/engine_sensor_adc.c **** /* ****************************************************************************
 652:Generated_Source\PSoC4/engine_sensor_adc.c **** * Function Name: engine_sensor_adc_InitConfig
 653:Generated_Source\PSoC4/engine_sensor_adc.c **** ****************************************************************************//*
 654:Generated_Source\PSoC4/engine_sensor_adc.c **** *
 655:Generated_Source\PSoC4/engine_sensor_adc.c **** * \brief Configures all of the registers for a given configuration for scanning.
 656:Generated_Source\PSoC4/engine_sensor_adc.c **** *
 657:Generated_Source\PSoC4/engine_sensor_adc.c **** * \param scan Number of scan defined in the engine_sensor_adc.
 658:Generated_Source\PSoC4/engine_sensor_adc.c **** *
 659:Generated_Source\PSoC4/engine_sensor_adc.c **** * \return None
 660:Generated_Source\PSoC4/engine_sensor_adc.c **** *
 661:Generated_Source\PSoC4/engine_sensor_adc.c **** * \sideeffect None
 662:Generated_Source\PSoC4/engine_sensor_adc.c **** *
 663:Generated_Source\PSoC4/engine_sensor_adc.c **** * <b>Code Snippet</b>
 664:Generated_Source\PSoC4/engine_sensor_adc.c **** *  \snippet main.c snippet_engine_sensor_adc_InitConfig
 665:Generated_Source\PSoC4/engine_sensor_adc.c **** *
 666:Generated_Source\PSoC4/engine_sensor_adc.c **** *******************************************************************************/
 667:Generated_Source\PSoC4/engine_sensor_adc.c **** void engine_sensor_adc_InitConfig(const engine_sensor_adc_CONFIG_STRUCT *config)
 668:Generated_Source\PSoC4/engine_sensor_adc.c **** {
 295              		.loc 1 668 0
 296              		.cfi_startproc
 297 0000 80B5     		push	{r7, lr}
 298              		.cfi_def_cfa_offset 8
 299              		.cfi_offset 7, -8
 300              		.cfi_offset 14, -4
ARM GAS  C:\Users\fneves\AppData\Local\Temp\ccV5UskS.s 			page 18


 301 0002 84B0     		sub	sp, sp, #16
 302              		.cfi_def_cfa_offset 24
 303 0004 00AF     		add	r7, sp, #0
 304              		.cfi_def_cfa_register 7
 305 0006 7860     		str	r0, [r7, #4]
 669:Generated_Source\PSoC4/engine_sensor_adc.c **** 	uint32 chNum;
 670:Generated_Source\PSoC4/engine_sensor_adc.c ****     uint32 tmpRegVal;
 671:Generated_Source\PSoC4/engine_sensor_adc.c **** 	
 672:Generated_Source\PSoC4/engine_sensor_adc.c ****     #if(0u != engine_sensor_adc_ANY_CONFIG_USES_FILTER)	        
 673:Generated_Source\PSoC4/engine_sensor_adc.c ****     	if((config->miscConfig & engine_sensor_adc_MISC_CONFIG_FILTER_PRESENT_MSK) 
 306              		.loc 1 673 0
 307 0008 7B68     		ldr	r3, [r7, #4]
 308 000a 1B6B     		ldr	r3, [r3, #48]
 309 000c 0222     		mov	r2, #2
 310 000e 1340     		and	r3, r2
 311 0010 05D0     		beq	.L14
 674:Generated_Source\PSoC4/engine_sensor_adc.c ****     	    == engine_sensor_adc_MISC_CONFIG_FILTER_PRESENT_MSK)
 675:Generated_Source\PSoC4/engine_sensor_adc.c ****     	{
 676:Generated_Source\PSoC4/engine_sensor_adc.c ****             engine_sensor_adc_intUabClock_SetFractionalDividerRegister(config->filterClkDivider, 0u
 312              		.loc 1 676 0
 313 0012 7B68     		ldr	r3, [r7, #4]
 314 0014 DB8E     		ldrh	r3, [r3, #54]
 315 0016 181C     		mov	r0, r3
 316 0018 0021     		mov	r1, #0
 317 001a FFF7FEFF 		bl	engine_sensor_adc_intUabClock_SetFractionalDividerRegister
 318              	.L14:
 677:Generated_Source\PSoC4/engine_sensor_adc.c ****             
 678:Generated_Source\PSoC4/engine_sensor_adc.c ****     	}
 679:Generated_Source\PSoC4/engine_sensor_adc.c ****     #endif /* engine_sensor_adc_ANY_CONFIG_USES_FILTER != 0u */
 680:Generated_Source\PSoC4/engine_sensor_adc.c ****     #if (engine_sensor_adc_CLOCK_INTERNAL)
 681:Generated_Source\PSoC4/engine_sensor_adc.c ****         engine_sensor_adc_intSarClock_SetFractionalDividerRegister(config->clkDivider, 0u);
 319              		.loc 1 681 0
 320 001e 7B68     		ldr	r3, [r7, #4]
 321 0020 9B8E     		ldrh	r3, [r3, #52]
 322 0022 181C     		mov	r0, r3
 323 0024 0021     		mov	r1, #0
 324 0026 FFF7FEFF 		bl	engine_sensor_adc_intSarClock_SetFractionalDividerRegister
 682:Generated_Source\PSoC4/engine_sensor_adc.c ****         
 683:Generated_Source\PSoC4/engine_sensor_adc.c ****     #endif /* engine_sensor_adc_CLOCK_INTERNAL */
 684:Generated_Source\PSoC4/engine_sensor_adc.c ****     /* Init SAR and MUX registers */
 685:Generated_Source\PSoC4/engine_sensor_adc.c **** 	engine_sensor_adc_SAR_CTRL_REG = config->ctrl
 325              		.loc 1 685 0
 326 002a 384A     		ldr	r2, .L23
 327 002c 7B68     		ldr	r3, [r7, #4]
 328 002e 9968     		ldr	r1, [r3, #8]
 686:Generated_Source\PSoC4/engine_sensor_adc.c ****    
 687:Generated_Source\PSoC4/engine_sensor_adc.c **** 	/* Enable the SAR internal pump when global pump is enabled */
 688:Generated_Source\PSoC4/engine_sensor_adc.c ****     | (((engine_sensor_adc_PUMP_CTRL_REG & engine_sensor_adc_PUMP_CTRL_ENABLED) != 0u) 
 329              		.loc 1 688 0
 330 0030 374B     		ldr	r3, .L23+4
 331 0032 1B68     		ldr	r3, [r3]
 332 0034 002B     		cmp	r3, #0
 333 0036 02DA     		bge	.L15
 334              		.loc 1 688 0 is_stmt 0 discriminator 1
 335 0038 8023     		mov	r3, #128
 336 003a 5B03     		lsl	r3, r3, #13
 337 003c 00E0     		b	.L16
ARM GAS  C:\Users\fneves\AppData\Local\Temp\ccV5UskS.s 			page 19


 338              	.L15:
 339              		.loc 1 688 0 discriminator 2
 340 003e 0023     		mov	r3, #0
 341              	.L16:
 342              		.loc 1 688 0 discriminator 4
 343 0040 0B43     		orr	r3, r1
 685:Generated_Source\PSoC4/engine_sensor_adc.c ****    
 344              		.loc 1 685 0 is_stmt 1 discriminator 4
 345 0042 1360     		str	r3, [r2]
 689:Generated_Source\PSoC4/engine_sensor_adc.c ****     ? engine_sensor_adc_SAR_CTRL_BOOSTPUMP_EN_MSK : 0u);
 690:Generated_Source\PSoC4/engine_sensor_adc.c **** 	
 691:Generated_Source\PSoC4/engine_sensor_adc.c **** 	engine_sensor_adc_SAR_SAMPLE_CTRL_REG = config->sampleCtrl;
 346              		.loc 1 691 0 discriminator 4
 347 0044 334A     		ldr	r2, .L23+8
 348 0046 7B68     		ldr	r3, [r7, #4]
 349 0048 DB68     		ldr	r3, [r3, #12]
 350 004a 1360     		str	r3, [r2]
 692:Generated_Source\PSoC4/engine_sensor_adc.c **** 	engine_sensor_adc_SAR_RANGE_THRES_REG = config->rangeThres;	
 351              		.loc 1 692 0 discriminator 4
 352 004c 324A     		ldr	r2, .L23+12
 353 004e 7B68     		ldr	r3, [r7, #4]
 354 0050 9B69     		ldr	r3, [r3, #24]
 355 0052 1360     		str	r3, [r2]
 693:Generated_Source\PSoC4/engine_sensor_adc.c **** 	engine_sensor_adc_SAR_RANGE_COND_REG = config->rangeCond;
 356              		.loc 1 693 0 discriminator 4
 357 0054 314A     		ldr	r2, .L23+16
 358 0056 7B68     		ldr	r3, [r7, #4]
 359 0058 DB69     		ldr	r3, [r3, #28]
 360 005a 1360     		str	r3, [r2]
 694:Generated_Source\PSoC4/engine_sensor_adc.c **** 	engine_sensor_adc_SAR_SAMPLE_TIME01_REG = config->sampleTime01;
 361              		.loc 1 694 0 discriminator 4
 362 005c 304A     		ldr	r2, .L23+20
 363 005e 7B68     		ldr	r3, [r7, #4]
 364 0060 1B69     		ldr	r3, [r3, #16]
 365 0062 1360     		str	r3, [r2]
 695:Generated_Source\PSoC4/engine_sensor_adc.c **** 	engine_sensor_adc_SAR_SAMPLE_TIME23_REG = config->sampleTime23;
 366              		.loc 1 695 0 discriminator 4
 367 0064 2F4A     		ldr	r2, .L23+24
 368 0066 7B68     		ldr	r3, [r7, #4]
 369 0068 5B69     		ldr	r3, [r3, #20]
 370 006a 1360     		str	r3, [r2]
 696:Generated_Source\PSoC4/engine_sensor_adc.c ****     
 697:Generated_Source\PSoC4/engine_sensor_adc.c **** 	/* Connect Vminus to VSSA when even one channel is single-ended or multiple channels configured */
 698:Generated_Source\PSoC4/engine_sensor_adc.c **** 	if(1u == engine_sensor_adc_MUX_SWITCH0_INIT)
 699:Generated_Source\PSoC4/engine_sensor_adc.c **** 	{
 700:Generated_Source\PSoC4/engine_sensor_adc.c **** 		engine_sensor_adc_MUX_SWITCH0_REG |= engine_sensor_adc_MUX_FW_VSSA_VMINUS;
 701:Generated_Source\PSoC4/engine_sensor_adc.c **** 		/* Set MUX_HW_CTRL_VSSA in MUX_SWITCH_HW_CTRL when multiple channels enabled */
 702:Generated_Source\PSoC4/engine_sensor_adc.c **** 		if(1ul < config->numChannels)
 703:Generated_Source\PSoC4/engine_sensor_adc.c **** 		{
 704:Generated_Source\PSoC4/engine_sensor_adc.c **** 			engine_sensor_adc_MUX_SWITCH_HW_CTRL_REG |= engine_sensor_adc_MUX_FW_VSSA_VMINUS;
 705:Generated_Source\PSoC4/engine_sensor_adc.c **** 		}
 706:Generated_Source\PSoC4/engine_sensor_adc.c **** 	}
 707:Generated_Source\PSoC4/engine_sensor_adc.c ****     
 708:Generated_Source\PSoC4/engine_sensor_adc.c **** 	/* Clear and set interrupt masks */
 709:Generated_Source\PSoC4/engine_sensor_adc.c **** 	engine_sensor_adc_SAR_SATURATE_INTR_MASK_REG = 0u;
 371              		.loc 1 709 0 discriminator 4
 372 006c 2E4B     		ldr	r3, .L23+28
ARM GAS  C:\Users\fneves\AppData\Local\Temp\ccV5UskS.s 			page 20


 373 006e 0022     		mov	r2, #0
 374 0070 1A60     		str	r2, [r3]
 710:Generated_Source\PSoC4/engine_sensor_adc.c ****     engine_sensor_adc_SAR_RANGE_INTR_MASK_REG = 0u;	
 375              		.loc 1 710 0 discriminator 4
 376 0072 2E4B     		ldr	r3, .L23+32
 377 0074 0022     		mov	r2, #0
 378 0076 1A60     		str	r2, [r3]
 711:Generated_Source\PSoC4/engine_sensor_adc.c **** 	engine_sensor_adc_SAR_SATURATE_INTR_MASK_REG = config->satIntMask;
 379              		.loc 1 711 0 discriminator 4
 380 0078 2B4A     		ldr	r2, .L23+28
 381 007a 7B68     		ldr	r3, [r7, #4]
 382 007c 9B6A     		ldr	r3, [r3, #40]
 383 007e 1360     		str	r3, [r2]
 712:Generated_Source\PSoC4/engine_sensor_adc.c **** 	engine_sensor_adc_SAR_RANGE_INTR_MASK_REG = config->rangeIntMask;
 384              		.loc 1 712 0 discriminator 4
 385 0080 2A4A     		ldr	r2, .L23+32
 386 0082 7B68     		ldr	r3, [r7, #4]
 387 0084 5B6A     		ldr	r3, [r3, #36]
 388 0086 1360     		str	r3, [r2]
 713:Generated_Source\PSoC4/engine_sensor_adc.c **** 	engine_sensor_adc_SAR_INTR_MASK_REG = engine_sensor_adc_EOS_MASK;
 389              		.loc 1 713 0 discriminator 4
 390 0088 294B     		ldr	r3, .L23+36
 391 008a 0122     		mov	r2, #1
 392 008c 1A60     		str	r2, [r3]
 714:Generated_Source\PSoC4/engine_sensor_adc.c ****     
 715:Generated_Source\PSoC4/engine_sensor_adc.c **** 	/* Double the non-overlap delay and latch enable time when using */
 716:Generated_Source\PSoC4/engine_sensor_adc.c ****     /* internal reference without bypass cap */
 717:Generated_Source\PSoC4/engine_sensor_adc.c ****     tmpRegVal = engine_sensor_adc_SAR_DFT_CTRL_REG;
 393              		.loc 1 717 0 discriminator 4
 394 008e 294B     		ldr	r3, .L23+40
 395 0090 1B68     		ldr	r3, [r3]
 396 0092 BB60     		str	r3, [r7, #8]
 718:Generated_Source\PSoC4/engine_sensor_adc.c **** 	if(((config->ctrl & engine_sensor_adc__SAR_CTRL_VREF_BYP_AND_SEL_MSK) 
 397              		.loc 1 718 0 discriminator 4
 398 0094 7B68     		ldr	r3, [r7, #4]
 399 0096 9B68     		ldr	r3, [r3, #8]
 400 0098 F022     		mov	r2, #240
 401 009a 1340     		and	r3, r2
 402 009c 402B     		cmp	r3, #64
 403 009e 04D0     		beq	.L17
 719:Generated_Source\PSoC4/engine_sensor_adc.c **** 	    == engine_sensor_adc__INTERNAL1024) 
 720:Generated_Source\PSoC4/engine_sensor_adc.c **** 	    || ((config->ctrl & engine_sensor_adc__SAR_CTRL_VREF_BYP_AND_SEL_MSK) 
 404              		.loc 1 720 0
 405 00a0 7B68     		ldr	r3, [r7, #4]
 406 00a2 9B68     		ldr	r3, [r3, #8]
 407 00a4 F022     		mov	r2, #240
 408 00a6 1340     		and	r3, r2
 409 00a8 08D1     		bne	.L18
 410              	.L17:
 721:Generated_Source\PSoC4/engine_sensor_adc.c **** 	    == engine_sensor_adc__INTERNALVREF))
 722:Generated_Source\PSoC4/engine_sensor_adc.c **** 	{
 723:Generated_Source\PSoC4/engine_sensor_adc.c ****         tmpRegVal &= ~engine_sensor_adc_SAR_DFT_CTRL_DCEN_MSK;
 411              		.loc 1 723 0
 412 00aa BB68     		ldr	r3, [r7, #8]
 413 00ac 224A     		ldr	r2, .L23+44
 414 00ae 1340     		and	r3, r2
 415 00b0 BB60     		str	r3, [r7, #8]
ARM GAS  C:\Users\fneves\AppData\Local\Temp\ccV5UskS.s 			page 21


 724:Generated_Source\PSoC4/engine_sensor_adc.c **** 		tmpRegVal |= engine_sensor_adc_SAR_DFT_CTRL_DLY_INC_MSK;
 416              		.loc 1 724 0
 417 00b2 BB68     		ldr	r3, [r7, #8]
 418 00b4 0122     		mov	r2, #1
 419 00b6 1343     		orr	r3, r2
 420 00b8 BB60     		str	r3, [r7, #8]
 421 00ba 08E0     		b	.L19
 422              	.L18:
 725:Generated_Source\PSoC4/engine_sensor_adc.c **** 	}
 726:Generated_Source\PSoC4/engine_sensor_adc.c **** 	else
 727:Generated_Source\PSoC4/engine_sensor_adc.c **** 	{
 728:Generated_Source\PSoC4/engine_sensor_adc.c **** 		tmpRegVal |= engine_sensor_adc_SAR_DFT_CTRL_DCEN_MSK;
 423              		.loc 1 728 0
 424 00bc BB68     		ldr	r3, [r7, #8]
 425 00be 8022     		mov	r2, #128
 426 00c0 9205     		lsl	r2, r2, #22
 427 00c2 1343     		orr	r3, r2
 428 00c4 BB60     		str	r3, [r7, #8]
 729:Generated_Source\PSoC4/engine_sensor_adc.c ****         tmpRegVal &= (uint32)~engine_sensor_adc_SAR_DFT_CTRL_DLY_INC_MSK;
 429              		.loc 1 729 0
 430 00c6 BB68     		ldr	r3, [r7, #8]
 431 00c8 0122     		mov	r2, #1
 432 00ca 9343     		bic	r3, r2
 433 00cc BB60     		str	r3, [r7, #8]
 434              	.L19:
 730:Generated_Source\PSoC4/engine_sensor_adc.c **** 	}	
 731:Generated_Source\PSoC4/engine_sensor_adc.c **** 	engine_sensor_adc_SAR_DFT_CTRL_REG = tmpRegVal;
 435              		.loc 1 731 0
 436 00ce 194B     		ldr	r3, .L23+40
 437 00d0 BA68     		ldr	r2, [r7, #8]
 438 00d2 1A60     		str	r2, [r3]
 732:Generated_Source\PSoC4/engine_sensor_adc.c **** 	
 733:Generated_Source\PSoC4/engine_sensor_adc.c **** 	for(chNum = 0u; chNum < config->numChannels; chNum++)
 439              		.loc 1 733 0
 440 00d4 0023     		mov	r3, #0
 441 00d6 FB60     		str	r3, [r7, #12]
 442 00d8 0EE0     		b	.L20
 443              	.L21:
 734:Generated_Source\PSoC4/engine_sensor_adc.c ****     {
 735:Generated_Source\PSoC4/engine_sensor_adc.c **** 		tmpRegVal = (engine_sensor_adc_channelsConfig[config->channelBase + chNum] 
 444              		.loc 1 735 0 discriminator 3
 445 00da 8023     		mov	r3, #128
 446 00dc 5B00     		lsl	r3, r3, #1
 447 00de 174A     		ldr	r2, .L23+48
 448 00e0 1340     		and	r3, r2
 449 00e2 BB60     		str	r3, [r7, #8]
 736:Generated_Source\PSoC4/engine_sensor_adc.c **** 		& engine_sensor_adc_CHANNEL_CONFIG_MASK);
 737:Generated_Source\PSoC4/engine_sensor_adc.c ****         
 738:Generated_Source\PSoC4/engine_sensor_adc.c ****         #if(engine_sensor_adc_TOTAL_CHANNELS_NUM > 1)
 739:Generated_Source\PSoC4/engine_sensor_adc.c ****             tmpRegVal |= engine_sensor_adc_InputsPlacement[config->channelBase + chNum];
 740:Generated_Source\PSoC4/engine_sensor_adc.c ****             /*Non-paired differential channels set NEG_ADDR_EN and clear DIFFERENTIAL_EN */
 741:Generated_Source\PSoC4/engine_sensor_adc.c ****             if(0u != (engine_sensor_adc_InputsPlacement[config->channelBase + chNum] & engine_senso
 742:Generated_Source\PSoC4/engine_sensor_adc.c ****             {
 743:Generated_Source\PSoC4/engine_sensor_adc.c ****                 tmpRegVal &= ~engine_sensor_adc_SAR_CHAN_CONFIG_DIFFERENTIAL_EN_MSK;
 744:Generated_Source\PSoC4/engine_sensor_adc.c ****             }
 745:Generated_Source\PSoC4/engine_sensor_adc.c ****         #endif
 746:Generated_Source\PSoC4/engine_sensor_adc.c ****         
ARM GAS  C:\Users\fneves\AppData\Local\Temp\ccV5UskS.s 			page 22


 747:Generated_Source\PSoC4/engine_sensor_adc.c **** 		CY_SET_REG32((reg32 *)(engine_sensor_adc_SAR_CHAN_CONFIG_IND + (uint32)(chNum << 2)), tmpRegVal);
 450              		.loc 1 747 0 discriminator 3
 451 00e4 FB68     		ldr	r3, [r7, #12]
 452 00e6 9B00     		lsl	r3, r3, #2
 453 00e8 154A     		ldr	r2, .L23+52
 454 00ea 9446     		mov	ip, r2
 455 00ec 6344     		add	r3, r3, ip
 456 00ee BA68     		ldr	r2, [r7, #8]
 457 00f0 1A60     		str	r2, [r3]
 733:Generated_Source\PSoC4/engine_sensor_adc.c ****     {
 458              		.loc 1 733 0 discriminator 3
 459 00f2 FB68     		ldr	r3, [r7, #12]
 460 00f4 0133     		add	r3, r3, #1
 461 00f6 FB60     		str	r3, [r7, #12]
 462              	.L20:
 733:Generated_Source\PSoC4/engine_sensor_adc.c ****     {
 463              		.loc 1 733 0 is_stmt 0 discriminator 1
 464 00f8 7B68     		ldr	r3, [r7, #4]
 465 00fa 5A68     		ldr	r2, [r3, #4]
 466 00fc FB68     		ldr	r3, [r7, #12]
 467 00fe 9A42     		cmp	r2, r3
 468 0100 EBD8     		bhi	.L21
 748:Generated_Source\PSoC4/engine_sensor_adc.c **** 	}
 749:Generated_Source\PSoC4/engine_sensor_adc.c **** 	
 750:Generated_Source\PSoC4/engine_sensor_adc.c ****     return;
 469              		.loc 1 750 0 is_stmt 1
 470 0102 C046     		mov	r8, r8
 751:Generated_Source\PSoC4/engine_sensor_adc.c **** }
 471              		.loc 1 751 0
 472 0104 BD46     		mov	sp, r7
 473 0106 04B0     		add	sp, sp, #16
 474              		@ sp needed
 475 0108 80BD     		pop	{r7, pc}
 476              	.L24:
 477 010a C046     		.align	2
 478              	.L23:
 479 010c 00003A40 		.word	1077542912
 480 0110 80033A40 		.word	1077543808
 481 0114 04003A40 		.word	1077542916
 482 0118 18003A40 		.word	1077542936
 483 011c 1C003A40 		.word	1077542940
 484 0120 10003A40 		.word	1077542928
 485 0124 14003A40 		.word	1077542932
 486 0128 28023A40 		.word	1077543464
 487 012c 38023A40 		.word	1077543480
 488 0130 18023A40 		.word	1077543448
 489 0134 30003A40 		.word	1077542960
 490 0138 FFFFFFDF 		.word	-536870913
 491 013c 00370080 		.word	-2147469568
 492 0140 80003A40 		.word	1077543040
 493              		.cfi_endproc
 494              	.LFE4:
 495              		.size	engine_sensor_adc_InitConfig, .-engine_sensor_adc_InitConfig
 496              		.section	.text.engine_sensor_adc_SelectConfig,"ax",%progbits
 497              		.align	2
 498              		.global	engine_sensor_adc_SelectConfig
 499              		.code	16
ARM GAS  C:\Users\fneves\AppData\Local\Temp\ccV5UskS.s 			page 23


 500              		.thumb_func
 501              		.type	engine_sensor_adc_SelectConfig, %function
 502              	engine_sensor_adc_SelectConfig:
 503              	.LFB5:
 752:Generated_Source\PSoC4/engine_sensor_adc.c **** 
 753:Generated_Source\PSoC4/engine_sensor_adc.c **** /* ****************************************************************************
 754:Generated_Source\PSoC4/engine_sensor_adc.c **** * Function Name: engine_sensor_adc_SelectConfig
 755:Generated_Source\PSoC4/engine_sensor_adc.c **** ****************************************************************************//* 
 756:Generated_Source\PSoC4/engine_sensor_adc.c **** *
 757:Generated_Source\PSoC4/engine_sensor_adc.c **** * \brief Selects the predefined configuration for scanning. Disables
 758:Generated_Source\PSoC4/engine_sensor_adc.c **** * and re-enables the SAR and filter (if filter used).
 759:Generated_Source\PSoC4/engine_sensor_adc.c **** * 
 760:Generated_Source\PSoC4/engine_sensor_adc.c **** * \param config Number of configuration  in the engine_sensor_adc.
 761:Generated_Source\PSoC4/engine_sensor_adc.c **** * 
 762:Generated_Source\PSoC4/engine_sensor_adc.c **** * \param restart Determines if the engine_sensor_adc should be  restarted after 
 763:Generated_Source\PSoC4/engine_sensor_adc.c **** * selecting the configuration.
 764:Generated_Source\PSoC4/engine_sensor_adc.c **** **
 765:Generated_Source\PSoC4/engine_sensor_adc.c **** * <b>Code Snippet</b>
 766:Generated_Source\PSoC4/engine_sensor_adc.c **** *  \snippet main.c snippet_engine_sensor_adc_SelectConfig
 767:Generated_Source\PSoC4/engine_sensor_adc.c **** *
 768:Generated_Source\PSoC4/engine_sensor_adc.c **** *******************************************************************************/
 769:Generated_Source\PSoC4/engine_sensor_adc.c **** void engine_sensor_adc_SelectConfig(uint32 config, uint32 restart)
 770:Generated_Source\PSoC4/engine_sensor_adc.c **** {
 504              		.loc 1 770 0
 505              		.cfi_startproc
 506 0000 80B5     		push	{r7, lr}
 507              		.cfi_def_cfa_offset 8
 508              		.cfi_offset 7, -8
 509              		.cfi_offset 14, -4
 510 0002 82B0     		sub	sp, sp, #8
 511              		.cfi_def_cfa_offset 16
 512 0004 00AF     		add	r7, sp, #0
 513              		.cfi_def_cfa_register 7
 514 0006 7860     		str	r0, [r7, #4]
 515 0008 3960     		str	r1, [r7]
 771:Generated_Source\PSoC4/engine_sensor_adc.c ****     /* Check whether the configuration number is valid or not */
 772:Generated_Source\PSoC4/engine_sensor_adc.c ****     if(engine_sensor_adc_TOTAL_CONFIGS > config)
 516              		.loc 1 772 0
 517 000a 7B68     		ldr	r3, [r7, #4]
 518 000c 002B     		cmp	r3, #0
 519 000e 4FD1     		bne	.L26
 773:Generated_Source\PSoC4/engine_sensor_adc.c ****     {        
 774:Generated_Source\PSoC4/engine_sensor_adc.c ****         /* Stop the ADC before changing configurations */
 775:Generated_Source\PSoC4/engine_sensor_adc.c **** 	    engine_sensor_adc_Stop();
 520              		.loc 1 775 0
 521 0010 FFF7FEFF 		bl	engine_sensor_adc_Stop
 776:Generated_Source\PSoC4/engine_sensor_adc.c ****         engine_sensor_adc_selected = 1u;
 522              		.loc 1 776 0
 523 0014 284B     		ldr	r3, .L29
 524 0016 0122     		mov	r2, #1
 525 0018 1A70     		strb	r2, [r3]
 777:Generated_Source\PSoC4/engine_sensor_adc.c ****         
 778:Generated_Source\PSoC4/engine_sensor_adc.c ****     	if(0u == engine_sensor_adc_initVar)
 526              		.loc 1 778 0
 527 001a 284B     		ldr	r3, .L29+4
 528 001c 1B78     		ldrb	r3, [r3]
 529 001e 002B     		cmp	r3, #0
ARM GAS  C:\Users\fneves\AppData\Local\Temp\ccV5UskS.s 			page 24


 530 0020 08D1     		bne	.L27
 779:Generated_Source\PSoC4/engine_sensor_adc.c ****     	{
 780:Generated_Source\PSoC4/engine_sensor_adc.c ****             engine_sensor_adc_Init();
 531              		.loc 1 780 0
 532 0022 FFF7FEFF 		bl	engine_sensor_adc_Init
 781:Generated_Source\PSoC4/engine_sensor_adc.c ****             engine_sensor_adc_initVar |= engine_sensor_adc_INIT_VAR_INIT_FLAG;
 533              		.loc 1 781 0
 534 0026 254B     		ldr	r3, .L29+4
 535 0028 1B78     		ldrb	r3, [r3]
 536 002a 0122     		mov	r2, #1
 537 002c 1343     		orr	r3, r2
 538 002e DAB2     		uxtb	r2, r3
 539 0030 224B     		ldr	r3, .L29+4
 540 0032 1A70     		strb	r2, [r3]
 541              	.L27:
 782:Generated_Source\PSoC4/engine_sensor_adc.c ****     	}
 783:Generated_Source\PSoC4/engine_sensor_adc.c ****         #if (engine_sensor_adc_VREF_ROUTED)
 784:Generated_Source\PSoC4/engine_sensor_adc.c ****             engine_sensor_adc_vrefAMux_DisconnectAll();
 785:Generated_Source\PSoC4/engine_sensor_adc.c ****         #endif
 786:Generated_Source\PSoC4/engine_sensor_adc.c ****     	engine_sensor_adc_InitConfig(&engine_sensor_adc_allConfigs[config]);
 542              		.loc 1 786 0
 543 0034 7A68     		ldr	r2, [r7, #4]
 544 0036 131C     		mov	r3, r2
 545 0038 DB00     		lsl	r3, r3, #3
 546 003a 9B1A     		sub	r3, r3, r2
 547 003c DB00     		lsl	r3, r3, #3
 548 003e 204A     		ldr	r2, .L29+8
 549 0040 9B18     		add	r3, r3, r2
 550 0042 181C     		mov	r0, r3
 551 0044 FFF7FEFF 		bl	engine_sensor_adc_InitConfig
 787:Generated_Source\PSoC4/engine_sensor_adc.c ****         #if (engine_sensor_adc_VREF_ROUTED)
 788:Generated_Source\PSoC4/engine_sensor_adc.c ****             engine_sensor_adc_vrefAMux_Select((uint8)config);
 789:Generated_Source\PSoC4/engine_sensor_adc.c ****         #endif
 790:Generated_Source\PSoC4/engine_sensor_adc.c ****         #if(0u != engine_sensor_adc_ANY_CONFIG_USES_FILTER)
 791:Generated_Source\PSoC4/engine_sensor_adc.c ****             engine_sensor_adc_filterVinMux_Select((uint8)config);
 552              		.loc 1 791 0
 553 0048 7B68     		ldr	r3, [r7, #4]
 554 004a DBB2     		uxtb	r3, r3
 555 004c 181C     		mov	r0, r3
 556 004e FFF7FEFF 		bl	engine_sensor_adc_filterVinMux_Select
 792:Generated_Source\PSoC4/engine_sensor_adc.c ****             engine_sensor_adc_filterInit(config);
 557              		.loc 1 792 0
 558 0052 7B68     		ldr	r3, [r7, #4]
 559 0054 181C     		mov	r0, r3
 560 0056 FFF7FEFF 		bl	engine_sensor_adc_filterInit
 793:Generated_Source\PSoC4/engine_sensor_adc.c ****         #endif
 794:Generated_Source\PSoC4/engine_sensor_adc.c ****     	engine_sensor_adc_SAR_CHAN_EN_REG = engine_sensor_adc_allConfigs[config].chanEn;
 561              		.loc 1 794 0
 562 005a 1A4A     		ldr	r2, .L29+12
 563 005c 1848     		ldr	r0, .L29+8
 564 005e 7968     		ldr	r1, [r7, #4]
 565 0060 0B1C     		mov	r3, r1
 566 0062 DB00     		lsl	r3, r3, #3
 567 0064 5B1A     		sub	r3, r3, r1
 568 0066 DB00     		lsl	r3, r3, #3
 569 0068 C318     		add	r3, r0, r3
 570 006a 2033     		add	r3, r3, #32
ARM GAS  C:\Users\fneves\AppData\Local\Temp\ccV5UskS.s 			page 25


 571 006c 1B68     		ldr	r3, [r3]
 572 006e 1360     		str	r3, [r2]
 795:Generated_Source\PSoC4/engine_sensor_adc.c ****     	engine_sensor_adc_SAR_RANGE_INTR_MASK_REG = engine_sensor_adc_allConfigs[config].rangeIntMask;
 573              		.loc 1 795 0
 574 0070 154A     		ldr	r2, .L29+16
 575 0072 1348     		ldr	r0, .L29+8
 576 0074 7968     		ldr	r1, [r7, #4]
 577 0076 0B1C     		mov	r3, r1
 578 0078 DB00     		lsl	r3, r3, #3
 579 007a 5B1A     		sub	r3, r3, r1
 580 007c DB00     		lsl	r3, r3, #3
 581 007e C318     		add	r3, r0, r3
 582 0080 2033     		add	r3, r3, #32
 583 0082 5B68     		ldr	r3, [r3, #4]
 584 0084 1360     		str	r3, [r2]
 796:Generated_Source\PSoC4/engine_sensor_adc.c ****     	engine_sensor_adc_SAR_SATURATE_INTR_MASK_REG = engine_sensor_adc_allConfigs[config].satIntMask
 585              		.loc 1 796 0
 586 0086 114A     		ldr	r2, .L29+20
 587 0088 0D48     		ldr	r0, .L29+8
 588 008a 7968     		ldr	r1, [r7, #4]
 589 008c 0B1C     		mov	r3, r1
 590 008e DB00     		lsl	r3, r3, #3
 591 0090 5B1A     		sub	r3, r3, r1
 592 0092 DB00     		lsl	r3, r3, #3
 593 0094 C318     		add	r3, r0, r3
 594 0096 2833     		add	r3, r3, #40
 595 0098 1B68     		ldr	r3, [r3]
 596 009a 1360     		str	r3, [r2]
 797:Generated_Source\PSoC4/engine_sensor_adc.c ****     	engine_sensor_adc_currentConfig = config;
 597              		.loc 1 797 0
 598 009c 0C4B     		ldr	r3, .L29+24
 599 009e 7A68     		ldr	r2, [r7, #4]
 600 00a0 1A60     		str	r2, [r3]
 798:Generated_Source\PSoC4/engine_sensor_adc.c ****         
 799:Generated_Source\PSoC4/engine_sensor_adc.c ****         if(1u == restart)
 601              		.loc 1 799 0
 602 00a2 3B68     		ldr	r3, [r7]
 603 00a4 012B     		cmp	r3, #1
 604 00a6 03D1     		bne	.L26
 800:Generated_Source\PSoC4/engine_sensor_adc.c ****         {
 801:Generated_Source\PSoC4/engine_sensor_adc.c ****             /* Restart the ADC */    
 802:Generated_Source\PSoC4/engine_sensor_adc.c ****             engine_sensor_adc_Start();
 605              		.loc 1 802 0
 606 00a8 FFF7FEFF 		bl	engine_sensor_adc_Start
 803:Generated_Source\PSoC4/engine_sensor_adc.c ****             
 804:Generated_Source\PSoC4/engine_sensor_adc.c ****             /* Restart the scan */
 805:Generated_Source\PSoC4/engine_sensor_adc.c ****             engine_sensor_adc_StartConvert();
 607              		.loc 1 805 0
 608 00ac FFF7FEFF 		bl	engine_sensor_adc_StartConvert
 609              	.L26:
 806:Generated_Source\PSoC4/engine_sensor_adc.c ****         }
 807:Generated_Source\PSoC4/engine_sensor_adc.c ****     }
 808:Generated_Source\PSoC4/engine_sensor_adc.c ****     return;
 610              		.loc 1 808 0
 611 00b0 C046     		mov	r8, r8
 809:Generated_Source\PSoC4/engine_sensor_adc.c **** }
 612              		.loc 1 809 0
ARM GAS  C:\Users\fneves\AppData\Local\Temp\ccV5UskS.s 			page 26


 613 00b2 BD46     		mov	sp, r7
 614 00b4 02B0     		add	sp, sp, #8
 615              		@ sp needed
 616 00b6 80BD     		pop	{r7, pc}
 617              	.L30:
 618              		.align	2
 619              	.L29:
 620 00b8 00000000 		.word	engine_sensor_adc_selected
 621 00bc 00000000 		.word	engine_sensor_adc_initVar
 622 00c0 00000000 		.word	engine_sensor_adc_allConfigs
 623 00c4 20003A40 		.word	1077542944
 624 00c8 38023A40 		.word	1077543480
 625 00cc 28023A40 		.word	1077543464
 626 00d0 04000000 		.word	engine_sensor_adc_currentConfig
 627              		.cfi_endproc
 628              	.LFE5:
 629              		.size	engine_sensor_adc_SelectConfig, .-engine_sensor_adc_SelectConfig
 630              		.section	.text.engine_sensor_adc_StartConvert,"ax",%progbits
 631              		.align	2
 632              		.global	engine_sensor_adc_StartConvert
 633              		.code	16
 634              		.thumb_func
 635              		.type	engine_sensor_adc_StartConvert, %function
 636              	engine_sensor_adc_StartConvert:
 637              	.LFB6:
 810:Generated_Source\PSoC4/engine_sensor_adc.c **** 
 811:Generated_Source\PSoC4/engine_sensor_adc.c **** /*******************************************************************************
 812:Generated_Source\PSoC4/engine_sensor_adc.c **** * Function Name: engine_sensor_adc_StartConvert
 813:Generated_Source\PSoC4/engine_sensor_adc.c **** ****************************************************************************//**
 814:Generated_Source\PSoC4/engine_sensor_adc.c **** *
 815:Generated_Source\PSoC4/engine_sensor_adc.c **** * \brief In continuous mode, this API starts the conversion process and it runs 
 816:Generated_Source\PSoC4/engine_sensor_adc.c **** * continuously. 
 817:Generated_Source\PSoC4/engine_sensor_adc.c **** 
 818:Generated_Source\PSoC4/engine_sensor_adc.c **** * In Single Shot mode, the function triggers a single scan and 
 819:Generated_Source\PSoC4/engine_sensor_adc.c **** * every scan requires a call of this function. The mode is set with the 
 820:Generated_Source\PSoC4/engine_sensor_adc.c **** * Sample Mode parameter in the customizer. The customizer setting can be 
 821:Generated_Source\PSoC4/engine_sensor_adc.c **** * overridden at run time with the engine_sensor_adc_SetConvertMode() function.
 822:Generated_Source\PSoC4/engine_sensor_adc.c **** * 
 823:Generated_Source\PSoC4/engine_sensor_adc.c **** * \param None
 824:Generated_Source\PSoC4/engine_sensor_adc.c **** * 
 825:Generated_Source\PSoC4/engine_sensor_adc.c **** * \return None
 826:Generated_Source\PSoC4/engine_sensor_adc.c **** * 
 827:Generated_Source\PSoC4/engine_sensor_adc.c **** * \sideeffect None
 828:Generated_Source\PSoC4/engine_sensor_adc.c **** *
 829:Generated_Source\PSoC4/engine_sensor_adc.c **** * <b>Code Snippet</b>
 830:Generated_Source\PSoC4/engine_sensor_adc.c **** *  \snippet main.c snippet_engine_sensor_adc_StartConvert
 831:Generated_Source\PSoC4/engine_sensor_adc.c **** *
 832:Generated_Source\PSoC4/engine_sensor_adc.c **** *******************************************************************************/
 833:Generated_Source\PSoC4/engine_sensor_adc.c **** void engine_sensor_adc_StartConvert(void)
 834:Generated_Source\PSoC4/engine_sensor_adc.c **** {
 638              		.loc 1 834 0
 639              		.cfi_startproc
 640 0000 80B5     		push	{r7, lr}
 641              		.cfi_def_cfa_offset 8
 642              		.cfi_offset 7, -8
 643              		.cfi_offset 14, -4
 644 0002 00AF     		add	r7, sp, #0
ARM GAS  C:\Users\fneves\AppData\Local\Temp\ccV5UskS.s 			page 27


 645              		.cfi_def_cfa_register 7
 835:Generated_Source\PSoC4/engine_sensor_adc.c ****     /* CDT 243358 */
 836:Generated_Source\PSoC4/engine_sensor_adc.c ****     #if(0u != engine_sensor_adc_ANY_CONFIG_USES_FILTER)
 837:Generated_Source\PSoC4/engine_sensor_adc.c ****         engine_sensor_adc_Stop();
 646              		.loc 1 837 0
 647 0004 FFF7FEFF 		bl	engine_sensor_adc_Stop
 838:Generated_Source\PSoC4/engine_sensor_adc.c ****         engine_sensor_adc_Start();
 648              		.loc 1 838 0
 649 0008 FFF7FEFF 		bl	engine_sensor_adc_Start
 839:Generated_Source\PSoC4/engine_sensor_adc.c ****     #endif
 840:Generated_Source\PSoC4/engine_sensor_adc.c ****     
 841:Generated_Source\PSoC4/engine_sensor_adc.c **** 	/* Freerunning mode */
 842:Generated_Source\PSoC4/engine_sensor_adc.c **** 	if((engine_sensor_adc_SAR_SAMPLE_CTRL_REG 
 650              		.loc 1 842 0
 651 000c 094B     		ldr	r3, .L35
 652 000e 1A68     		ldr	r2, [r3]
 843:Generated_Source\PSoC4/engine_sensor_adc.c **** 		& engine_sensor_adc_SAR_SAMPLE_CTRL_DSI_TRIGGER_LEVEL_MSK) 
 653              		.loc 1 843 0
 654 0010 8023     		mov	r3, #128
 655 0012 DB02     		lsl	r3, r3, #11
 656 0014 1340     		and	r3, r2
 842:Generated_Source\PSoC4/engine_sensor_adc.c **** 		& engine_sensor_adc_SAR_SAMPLE_CTRL_DSI_TRIGGER_LEVEL_MSK) 
 657              		.loc 1 842 0
 658 0016 07D0     		beq	.L32
 844:Generated_Source\PSoC4/engine_sensor_adc.c **** 		== engine_sensor_adc_SAR_SAMPLE_CTRL_DSI_TRIGGER_LEVEL_MSK)
 845:Generated_Source\PSoC4/engine_sensor_adc.c ****     {
 846:Generated_Source\PSoC4/engine_sensor_adc.c **** 		engine_sensor_adc_SAR_SAMPLE_CTRL_REG |= engine_sensor_adc_SAR_SAMPLE_CTRL_CONTINUOUS_MSK ;
 659              		.loc 1 846 0
 660 0018 064B     		ldr	r3, .L35
 661 001a 064A     		ldr	r2, .L35
 662 001c 1268     		ldr	r2, [r2]
 663 001e 8021     		mov	r1, #128
 664 0020 4902     		lsl	r1, r1, #9
 665 0022 0A43     		orr	r2, r1
 666 0024 1A60     		str	r2, [r3]
 667 0026 02E0     		b	.L33
 668              	.L32:
 847:Generated_Source\PSoC4/engine_sensor_adc.c **** 	}
 848:Generated_Source\PSoC4/engine_sensor_adc.c **** 	else /* Firmware trigger */
 849:Generated_Source\PSoC4/engine_sensor_adc.c **** 	{
 850:Generated_Source\PSoC4/engine_sensor_adc.c **** 		engine_sensor_adc_SAR_START_CTRL_REG = engine_sensor_adc_SAR_START_CTRL_FW_TRIGGER_MSK;
 669              		.loc 1 850 0
 670 0028 034B     		ldr	r3, .L35+4
 671 002a 0122     		mov	r2, #1
 672 002c 1A60     		str	r2, [r3]
 673              	.L33:
 851:Generated_Source\PSoC4/engine_sensor_adc.c **** 	}
 852:Generated_Source\PSoC4/engine_sensor_adc.c ****     
 853:Generated_Source\PSoC4/engine_sensor_adc.c ****     return;
 674              		.loc 1 853 0
 675 002e C046     		mov	r8, r8
 854:Generated_Source\PSoC4/engine_sensor_adc.c **** }
 676              		.loc 1 854 0
 677 0030 BD46     		mov	sp, r7
 678              		@ sp needed
 679 0032 80BD     		pop	{r7, pc}
 680              	.L36:
ARM GAS  C:\Users\fneves\AppData\Local\Temp\ccV5UskS.s 			page 28


 681              		.align	2
 682              	.L35:
 683 0034 04003A40 		.word	1077542916
 684 0038 24003A40 		.word	1077542948
 685              		.cfi_endproc
 686              	.LFE6:
 687              		.size	engine_sensor_adc_StartConvert, .-engine_sensor_adc_StartConvert
 688              		.section	.text.engine_sensor_adc_StopConvert,"ax",%progbits
 689              		.align	2
 690              		.global	engine_sensor_adc_StopConvert
 691              		.code	16
 692              		.thumb_func
 693              		.type	engine_sensor_adc_StopConvert, %function
 694              	engine_sensor_adc_StopConvert:
 695              	.LFB7:
 855:Generated_Source\PSoC4/engine_sensor_adc.c **** 
 856:Generated_Source\PSoC4/engine_sensor_adc.c **** /*******************************************************************************
 857:Generated_Source\PSoC4/engine_sensor_adc.c **** * Function Name: engine_sensor_adc_StopConvert
 858:Generated_Source\PSoC4/engine_sensor_adc.c **** ****************************************************************************//**
 859:Generated_Source\PSoC4/engine_sensor_adc.c **** *
 860:Generated_Source\PSoC4/engine_sensor_adc.c **** * \brief Forces the engine_sensor_adc to stop conversions. If a conversion is 
 861:Generated_Source\PSoC4/engine_sensor_adc.c **** * currently executing, that conversion will complete, but no further conversions 
 862:Generated_Source\PSoC4/engine_sensor_adc.c **** * will occur.
 863:Generated_Source\PSoC4/engine_sensor_adc.c **** * 
 864:Generated_Source\PSoC4/engine_sensor_adc.c **** * \param None
 865:Generated_Source\PSoC4/engine_sensor_adc.c **** *
 866:Generated_Source\PSoC4/engine_sensor_adc.c **** * \return None
 867:Generated_Source\PSoC4/engine_sensor_adc.c **** *
 868:Generated_Source\PSoC4/engine_sensor_adc.c **** * \sideeffect None
 869:Generated_Source\PSoC4/engine_sensor_adc.c **** *
 870:Generated_Source\PSoC4/engine_sensor_adc.c **** * <b>Code Snippet</b>
 871:Generated_Source\PSoC4/engine_sensor_adc.c **** *  \snippet main.c snippet_engine_sensor_adc_StopConvert
 872:Generated_Source\PSoC4/engine_sensor_adc.c **** *
 873:Generated_Source\PSoC4/engine_sensor_adc.c **** *******************************************************************************/
 874:Generated_Source\PSoC4/engine_sensor_adc.c **** void engine_sensor_adc_StopConvert(void)
 875:Generated_Source\PSoC4/engine_sensor_adc.c **** {
 696              		.loc 1 875 0
 697              		.cfi_startproc
 698 0000 80B5     		push	{r7, lr}
 699              		.cfi_def_cfa_offset 8
 700              		.cfi_offset 7, -8
 701              		.cfi_offset 14, -4
 702 0002 00AF     		add	r7, sp, #0
 703              		.cfi_def_cfa_register 7
 876:Generated_Source\PSoC4/engine_sensor_adc.c ****     if((engine_sensor_adc_SAR_SAMPLE_CTRL_REG  
 704              		.loc 1 876 0
 705 0004 0F4B     		ldr	r3, .L40
 706 0006 1A68     		ldr	r2, [r3]
 877:Generated_Source\PSoC4/engine_sensor_adc.c **** 		& engine_sensor_adc_SAR_SAMPLE_CTRL_DSI_TRIGGER_LEVEL_MSK) 
 707              		.loc 1 877 0
 708 0008 8023     		mov	r3, #128
 709 000a DB02     		lsl	r3, r3, #11
 710 000c 1340     		and	r3, r2
 876:Generated_Source\PSoC4/engine_sensor_adc.c ****     if((engine_sensor_adc_SAR_SAMPLE_CTRL_REG  
 711              		.loc 1 876 0
 712 000e 16D0     		beq	.L38
 878:Generated_Source\PSoC4/engine_sensor_adc.c **** 		== engine_sensor_adc_SAR_SAMPLE_CTRL_DSI_TRIGGER_LEVEL_MSK)
ARM GAS  C:\Users\fneves\AppData\Local\Temp\ccV5UskS.s 			page 29


 879:Generated_Source\PSoC4/engine_sensor_adc.c **** 	{
 880:Generated_Source\PSoC4/engine_sensor_adc.c ****         engine_sensor_adc_SAR_SAMPLE_CTRL_REG &= ~engine_sensor_adc_SAR_SAMPLE_CTRL_CONTINUOUS_MSK;
 713              		.loc 1 880 0
 714 0010 0C4B     		ldr	r3, .L40
 715 0012 0C4A     		ldr	r2, .L40
 716 0014 1268     		ldr	r2, [r2]
 717 0016 0C49     		ldr	r1, .L40+4
 718 0018 0A40     		and	r2, r1
 719 001a 1A60     		str	r2, [r3]
 881:Generated_Source\PSoC4/engine_sensor_adc.c ****         
 882:Generated_Source\PSoC4/engine_sensor_adc.c ****         if((engine_sensor_adc_allConfigs[engine_sensor_adc_currentConfig].miscConfig 
 720              		.loc 1 882 0
 721 001c 0B4B     		ldr	r3, .L40+8
 722 001e 1A68     		ldr	r2, [r3]
 723 0020 0B49     		ldr	r1, .L40+12
 724 0022 131C     		mov	r3, r2
 725 0024 DB00     		lsl	r3, r3, #3
 726 0026 9B1A     		sub	r3, r3, r2
 727 0028 DB00     		lsl	r3, r3, #3
 728 002a CB18     		add	r3, r1, r3
 729 002c 3033     		add	r3, r3, #48
 730 002e 1B68     		ldr	r3, [r3]
 883:Generated_Source\PSoC4/engine_sensor_adc.c ****             & engine_sensor_adc_MISC_CONFIG_FILTER_PRESENT_MSK) 
 731              		.loc 1 883 0
 732 0030 0222     		mov	r2, #2
 733 0032 1340     		and	r3, r2
 882:Generated_Source\PSoC4/engine_sensor_adc.c ****             & engine_sensor_adc_MISC_CONFIG_FILTER_PRESENT_MSK) 
 734              		.loc 1 882 0
 735 0034 03D0     		beq	.L38
 884:Generated_Source\PSoC4/engine_sensor_adc.c ****     	    == engine_sensor_adc_MISC_CONFIG_FILTER_PRESENT_MSK)
 885:Generated_Source\PSoC4/engine_sensor_adc.c ****         {
 886:Generated_Source\PSoC4/engine_sensor_adc.c ****             /* Re-synchronize the Filter if a filter is present */
 887:Generated_Source\PSoC4/engine_sensor_adc.c ****             engine_sensor_adc_Stop();
 736              		.loc 1 887 0
 737 0036 FFF7FEFF 		bl	engine_sensor_adc_Stop
 888:Generated_Source\PSoC4/engine_sensor_adc.c ****             engine_sensor_adc_Start();
 738              		.loc 1 888 0
 739 003a FFF7FEFF 		bl	engine_sensor_adc_Start
 740              	.L38:
 889:Generated_Source\PSoC4/engine_sensor_adc.c ****         }
 890:Generated_Source\PSoC4/engine_sensor_adc.c **** 	}
 891:Generated_Source\PSoC4/engine_sensor_adc.c ****     
 892:Generated_Source\PSoC4/engine_sensor_adc.c ****     return;
 741              		.loc 1 892 0
 742 003e C046     		mov	r8, r8
 893:Generated_Source\PSoC4/engine_sensor_adc.c **** }
 743              		.loc 1 893 0
 744 0040 BD46     		mov	sp, r7
 745              		@ sp needed
 746 0042 80BD     		pop	{r7, pc}
 747              	.L41:
 748              		.align	2
 749              	.L40:
 750 0044 04003A40 		.word	1077542916
 751 0048 FFFFFEFF 		.word	-65537
 752 004c 04000000 		.word	engine_sensor_adc_currentConfig
 753 0050 00000000 		.word	engine_sensor_adc_allConfigs
ARM GAS  C:\Users\fneves\AppData\Local\Temp\ccV5UskS.s 			page 30


 754              		.cfi_endproc
 755              	.LFE7:
 756              		.size	engine_sensor_adc_StopConvert, .-engine_sensor_adc_StopConvert
 757              		.section	.text.engine_sensor_adc_SetConvertMode,"ax",%progbits
 758              		.align	2
 759              		.global	engine_sensor_adc_SetConvertMode
 760              		.code	16
 761              		.thumb_func
 762              		.type	engine_sensor_adc_SetConvertMode, %function
 763              	engine_sensor_adc_SetConvertMode:
 764              	.LFB8:
 894:Generated_Source\PSoC4/engine_sensor_adc.c **** /*******************************************************************************
 895:Generated_Source\PSoC4/engine_sensor_adc.c **** * Function Name: engine_sensor_adc_SetConvertMode
 896:Generated_Source\PSoC4/engine_sensor_adc.c **** ****************************************************************************//**
 897:Generated_Source\PSoC4/engine_sensor_adc.c **** *
 898:Generated_Source\PSoC4/engine_sensor_adc.c **** * \brief Sets the conversion mode to either Single-Shot or continuous. This 
 899:Generated_Source\PSoC4/engine_sensor_adc.c **** * function overrides the settings applied in the customizer. Changing 
 900:Generated_Source\PSoC4/engine_sensor_adc.c **** * configurations will restore the values set in the customizer.
 901:Generated_Source\PSoC4/engine_sensor_adc.c **** *
 902:Generated_Source\PSoC4/engine_sensor_adc.c **** * \param mode Sets the conversion mode. See table below for details.
 903:Generated_Source\PSoC4/engine_sensor_adc.c **** * | Options                          | Description                             |
 904:Generated_Source\PSoC4/engine_sensor_adc.c **** * | :------------------------------- | :-------------------------------------- |
 905:Generated_Source\PSoC4/engine_sensor_adc.c **** * | engine_sensor_adc_SINGLE_SHOT     | Calling the engine_sensor_adc_StartConvert() function after
 906:Generated_Source\PSoC4/engine_sensor_adc.c **** * | engine_sensor_adc_CONTINUOUS      | Calling the engine_sensor_adc_StartConvert() function after
 907:Generated_Source\PSoC4/engine_sensor_adc.c **** *
 908:Generated_Source\PSoC4/engine_sensor_adc.c **** * \return None
 909:Generated_Source\PSoC4/engine_sensor_adc.c **** * 
 910:Generated_Source\PSoC4/engine_sensor_adc.c **** * \sideeffect None
 911:Generated_Source\PSoC4/engine_sensor_adc.c **** *
 912:Generated_Source\PSoC4/engine_sensor_adc.c **** * <b>Code Snippet</b>
 913:Generated_Source\PSoC4/engine_sensor_adc.c **** *  \snippet main.c snippet_engine_sensor_adc_SetConvertMode
 914:Generated_Source\PSoC4/engine_sensor_adc.c **** *
 915:Generated_Source\PSoC4/engine_sensor_adc.c **** *******************************************************************************/
 916:Generated_Source\PSoC4/engine_sensor_adc.c **** void engine_sensor_adc_SetConvertMode(uint32 mode)
 917:Generated_Source\PSoC4/engine_sensor_adc.c **** {
 765              		.loc 1 917 0
 766              		.cfi_startproc
 767 0000 80B5     		push	{r7, lr}
 768              		.cfi_def_cfa_offset 8
 769              		.cfi_offset 7, -8
 770              		.cfi_offset 14, -4
 771 0002 82B0     		sub	sp, sp, #8
 772              		.cfi_def_cfa_offset 16
 773 0004 00AF     		add	r7, sp, #0
 774              		.cfi_def_cfa_register 7
 775 0006 7860     		str	r0, [r7, #4]
 918:Generated_Source\PSoC4/engine_sensor_adc.c ****     if(engine_sensor_adc_CONTINUOUS == mode)
 776              		.loc 1 918 0
 777 0008 7B68     		ldr	r3, [r7, #4]
 778 000a 012B     		cmp	r3, #1
 779 000c 07D1     		bne	.L43
 919:Generated_Source\PSoC4/engine_sensor_adc.c ****     {
 920:Generated_Source\PSoC4/engine_sensor_adc.c ****         engine_sensor_adc_SAR_SAMPLE_CTRL_REG |= engine_sensor_adc_SAR_SAMPLE_CTRL_DSI_TRIGGER_LEVE
 780              		.loc 1 920 0
 781 000e 084B     		ldr	r3, .L45
 782 0010 074A     		ldr	r2, .L45
 783 0012 1268     		ldr	r2, [r2]
ARM GAS  C:\Users\fneves\AppData\Local\Temp\ccV5UskS.s 			page 31


 784 0014 8021     		mov	r1, #128
 785 0016 C902     		lsl	r1, r1, #11
 786 0018 0A43     		orr	r2, r1
 787 001a 1A60     		str	r2, [r3]
 788 001c 05E0     		b	.L42
 789              	.L43:
 921:Generated_Source\PSoC4/engine_sensor_adc.c ****     }
 922:Generated_Source\PSoC4/engine_sensor_adc.c ****     else
 923:Generated_Source\PSoC4/engine_sensor_adc.c ****     {
 924:Generated_Source\PSoC4/engine_sensor_adc.c ****         engine_sensor_adc_SAR_SAMPLE_CTRL_REG &= ~engine_sensor_adc_SAR_SAMPLE_CTRL_DSI_TRIGGER_LEV
 790              		.loc 1 924 0
 791 001e 044B     		ldr	r3, .L45
 792 0020 034A     		ldr	r2, .L45
 793 0022 1268     		ldr	r2, [r2]
 794 0024 0349     		ldr	r1, .L45+4
 795 0026 0A40     		and	r2, r1
 796 0028 1A60     		str	r2, [r3]
 797              	.L42:
 925:Generated_Source\PSoC4/engine_sensor_adc.c ****     }
 926:Generated_Source\PSoC4/engine_sensor_adc.c **** }
 798              		.loc 1 926 0
 799 002a BD46     		mov	sp, r7
 800 002c 02B0     		add	sp, sp, #8
 801              		@ sp needed
 802 002e 80BD     		pop	{r7, pc}
 803              	.L46:
 804              		.align	2
 805              	.L45:
 806 0030 04003A40 		.word	1077542916
 807 0034 FFFFFBFF 		.word	-262145
 808              		.cfi_endproc
 809              	.LFE8:
 810              		.size	engine_sensor_adc_SetConvertMode, .-engine_sensor_adc_SetConvertMode
 811              		.section	.text.engine_sensor_adc_SetEosMask,"ax",%progbits
 812              		.align	2
 813              		.global	engine_sensor_adc_SetEosMask
 814              		.code	16
 815              		.thumb_func
 816              		.type	engine_sensor_adc_SetEosMask, %function
 817              	engine_sensor_adc_SetEosMask:
 818              	.LFB9:
 927:Generated_Source\PSoC4/engine_sensor_adc.c **** /* ****************************************************************************
 928:Generated_Source\PSoC4/engine_sensor_adc.c **** * Function Name: engine_sensor_adc_IRQ_Enable
 929:Generated_Source\PSoC4/engine_sensor_adc.c **** ****************************************************************************//*
 930:Generated_Source\PSoC4/engine_sensor_adc.c **** *
 931:Generated_Source\PSoC4/engine_sensor_adc.c **** * \brief Enables interrupts to occur at the end of a conversion. Global 
 932:Generated_Source\PSoC4/engine_sensor_adc.c **** * interrupts must also be enabled for the engine_sensor_adc interrupts to occur.
 933:Generated_Source\PSoC4/engine_sensor_adc.c **** *
 934:Generated_Source\PSoC4/engine_sensor_adc.c **** * \param None
 935:Generated_Source\PSoC4/engine_sensor_adc.c **** *
 936:Generated_Source\PSoC4/engine_sensor_adc.c **** * \return None
 937:Generated_Source\PSoC4/engine_sensor_adc.c **** *
 938:Generated_Source\PSoC4/engine_sensor_adc.c **** * \sideeffect None
 939:Generated_Source\PSoC4/engine_sensor_adc.c **** *
 940:Generated_Source\PSoC4/engine_sensor_adc.c **** * <b>Code Snippet</b>
 941:Generated_Source\PSoC4/engine_sensor_adc.c **** *  \snippet main.c snippet_engine_sensor_adc_IRQ_Enable
 942:Generated_Source\PSoC4/engine_sensor_adc.c **** *
ARM GAS  C:\Users\fneves\AppData\Local\Temp\ccV5UskS.s 			page 32


 943:Generated_Source\PSoC4/engine_sensor_adc.c **** *******************************************************************************/
 944:Generated_Source\PSoC4/engine_sensor_adc.c **** 
 945:Generated_Source\PSoC4/engine_sensor_adc.c **** 
 946:Generated_Source\PSoC4/engine_sensor_adc.c **** /* ****************************************************************************
 947:Generated_Source\PSoC4/engine_sensor_adc.c **** * Function Name: engine_sensor_adc_IRQ_Disable
 948:Generated_Source\PSoC4/engine_sensor_adc.c **** ****************************************************************************//* 
 949:Generated_Source\PSoC4/engine_sensor_adc.c **** *
 950:Generated_Source\PSoC4/engine_sensor_adc.c **** * \brief Disables end of conversion interrupts. 
 951:Generated_Source\PSoC4/engine_sensor_adc.c **** *
 952:Generated_Source\PSoC4/engine_sensor_adc.c **** * \param None
 953:Generated_Source\PSoC4/engine_sensor_adc.c **** * 
 954:Generated_Source\PSoC4/engine_sensor_adc.c **** * \return None
 955:Generated_Source\PSoC4/engine_sensor_adc.c **** * 
 956:Generated_Source\PSoC4/engine_sensor_adc.c **** * \sideeffect None
 957:Generated_Source\PSoC4/engine_sensor_adc.c **** *
 958:Generated_Source\PSoC4/engine_sensor_adc.c **** * <b>Code Snippet</b>
 959:Generated_Source\PSoC4/engine_sensor_adc.c **** *  \snippet main.c snippet_engine_sensor_adc_IRQ_Disable
 960:Generated_Source\PSoC4/engine_sensor_adc.c **** *
 961:Generated_Source\PSoC4/engine_sensor_adc.c **** *******************************************************************************/
 962:Generated_Source\PSoC4/engine_sensor_adc.c **** 
 963:Generated_Source\PSoC4/engine_sensor_adc.c **** 
 964:Generated_Source\PSoC4/engine_sensor_adc.c **** /*******************************************************************************
 965:Generated_Source\PSoC4/engine_sensor_adc.c **** * Function Name: engine_sensor_adc_SetEosMask
 966:Generated_Source\PSoC4/engine_sensor_adc.c **** ****************************************************************************//**
 967:Generated_Source\PSoC4/engine_sensor_adc.c **** *
 968:Generated_Source\PSoC4/engine_sensor_adc.c **** * \brief Sets of clears the End of Scan (EOS) interrupt mask. 
 969:Generated_Source\PSoC4/engine_sensor_adc.c **** *
 970:Generated_Source\PSoC4/engine_sensor_adc.c **** * \param mask 1 to set the mask, 0 to clear the mask.
 971:Generated_Source\PSoC4/engine_sensor_adc.c **** *
 972:Generated_Source\PSoC4/engine_sensor_adc.c **** * \return None
 973:Generated_Source\PSoC4/engine_sensor_adc.c **** * 
 974:Generated_Source\PSoC4/engine_sensor_adc.c **** * \sideeffect All other bits in the INTR register are cleared by this function.
 975:Generated_Source\PSoC4/engine_sensor_adc.c **** *
 976:Generated_Source\PSoC4/engine_sensor_adc.c **** * <b>Code Snippet</b>
 977:Generated_Source\PSoC4/engine_sensor_adc.c **** *  \snippet main.c snippet_engine_sensor_adc_SetEosMask
 978:Generated_Source\PSoC4/engine_sensor_adc.c **** *
 979:Generated_Source\PSoC4/engine_sensor_adc.c **** *******************************************************************************/
 980:Generated_Source\PSoC4/engine_sensor_adc.c **** void engine_sensor_adc_SetEosMask(uint32 mask)
 981:Generated_Source\PSoC4/engine_sensor_adc.c **** {
 819              		.loc 1 981 0
 820              		.cfi_startproc
 821 0000 80B5     		push	{r7, lr}
 822              		.cfi_def_cfa_offset 8
 823              		.cfi_offset 7, -8
 824              		.cfi_offset 14, -4
 825 0002 82B0     		sub	sp, sp, #8
 826              		.cfi_def_cfa_offset 16
 827 0004 00AF     		add	r7, sp, #0
 828              		.cfi_def_cfa_register 7
 829 0006 7860     		str	r0, [r7, #4]
 982:Generated_Source\PSoC4/engine_sensor_adc.c ****     engine_sensor_adc_SAR_INTR_MASK_REG = mask & engine_sensor_adc_EOS_MASK;
 830              		.loc 1 982 0
 831 0008 044B     		ldr	r3, .L49
 832 000a 7A68     		ldr	r2, [r7, #4]
 833 000c 0121     		mov	r1, #1
 834 000e 0A40     		and	r2, r1
 835 0010 1A60     		str	r2, [r3]
ARM GAS  C:\Users\fneves\AppData\Local\Temp\ccV5UskS.s 			page 33


 983:Generated_Source\PSoC4/engine_sensor_adc.c ****     
 984:Generated_Source\PSoC4/engine_sensor_adc.c ****     return;
 836              		.loc 1 984 0
 837 0012 C046     		mov	r8, r8
 985:Generated_Source\PSoC4/engine_sensor_adc.c **** }
 838              		.loc 1 985 0
 839 0014 BD46     		mov	sp, r7
 840 0016 02B0     		add	sp, sp, #8
 841              		@ sp needed
 842 0018 80BD     		pop	{r7, pc}
 843              	.L50:
 844 001a C046     		.align	2
 845              	.L49:
 846 001c 18023A40 		.word	1077543448
 847              		.cfi_endproc
 848              	.LFE9:
 849              		.size	engine_sensor_adc_SetEosMask, .-engine_sensor_adc_SetEosMask
 850              		.section	.text.engine_sensor_adc_SetChanMask,"ax",%progbits
 851              		.align	2
 852              		.global	engine_sensor_adc_SetChanMask
 853              		.code	16
 854              		.thumb_func
 855              		.type	engine_sensor_adc_SetChanMask, %function
 856              	engine_sensor_adc_SetChanMask:
 857              	.LFB10:
 986:Generated_Source\PSoC4/engine_sensor_adc.c **** 
 987:Generated_Source\PSoC4/engine_sensor_adc.c **** /* ****************************************************************************
 988:Generated_Source\PSoC4/engine_sensor_adc.c **** * Function Name: engine_sensor_adc_SetChanMask
 989:Generated_Source\PSoC4/engine_sensor_adc.c **** ****************************************************************************//*
 990:Generated_Source\PSoC4/engine_sensor_adc.c **** *
 991:Generated_Source\PSoC4/engine_sensor_adc.c **** * \brief Sets enable/disable mask for all channels in current configuration.
 992:Generated_Source\PSoC4/engine_sensor_adc.c **** *
 993:Generated_Source\PSoC4/engine_sensor_adc.c **** *
 994:Generated_Source\PSoC4/engine_sensor_adc.c **** * \param enableMask
 995:Generated_Source\PSoC4/engine_sensor_adc.c **** *  Channel enable/disable mask.
 996:Generated_Source\PSoC4/engine_sensor_adc.c **** *
 997:Generated_Source\PSoC4/engine_sensor_adc.c **** * \sideeffect
 998:Generated_Source\PSoC4/engine_sensor_adc.c **** *  None.
 999:Generated_Source\PSoC4/engine_sensor_adc.c **** *
1000:Generated_Source\PSoC4/engine_sensor_adc.c **** * <b>Code Snippet</b>
1001:Generated_Source\PSoC4/engine_sensor_adc.c **** *  \snippet main.c snippet_engine_sensor_adc_SetChanMask
1002:Generated_Source\PSoC4/engine_sensor_adc.c **** *
1003:Generated_Source\PSoC4/engine_sensor_adc.c **** *******************************************************************************/
1004:Generated_Source\PSoC4/engine_sensor_adc.c **** void engine_sensor_adc_SetChanMask(uint32 enableMask)
1005:Generated_Source\PSoC4/engine_sensor_adc.c **** {
 858              		.loc 1 1005 0
 859              		.cfi_startproc
 860 0000 80B5     		push	{r7, lr}
 861              		.cfi_def_cfa_offset 8
 862              		.cfi_offset 7, -8
 863              		.cfi_offset 14, -4
 864 0002 84B0     		sub	sp, sp, #16
 865              		.cfi_def_cfa_offset 24
 866 0004 00AF     		add	r7, sp, #0
 867              		.cfi_def_cfa_register 7
 868 0006 7860     		str	r0, [r7, #4]
1006:Generated_Source\PSoC4/engine_sensor_adc.c ****     uint32 chanCount = engine_sensor_adc_allConfigs[engine_sensor_adc_currentConfig].numChannels;
ARM GAS  C:\Users\fneves\AppData\Local\Temp\ccV5UskS.s 			page 34


 869              		.loc 1 1006 0
 870 0008 0C4B     		ldr	r3, .L53
 871 000a 1A68     		ldr	r2, [r3]
 872 000c 0C49     		ldr	r1, .L53+4
 873 000e 131C     		mov	r3, r2
 874 0010 DB00     		lsl	r3, r3, #3
 875 0012 9B1A     		sub	r3, r3, r2
 876 0014 DB00     		lsl	r3, r3, #3
 877 0016 CB18     		add	r3, r1, r3
 878 0018 5B68     		ldr	r3, [r3, #4]
 879 001a FB60     		str	r3, [r7, #12]
1007:Generated_Source\PSoC4/engine_sensor_adc.c ****     enableMask &= (uint32)((uint32)(1ul << chanCount) - 1ul);
 880              		.loc 1 1007 0
 881 001c FB68     		ldr	r3, [r7, #12]
 882 001e 0122     		mov	r2, #1
 883 0020 9A40     		lsl	r2, r2, r3
 884 0022 131C     		mov	r3, r2
 885 0024 5A1E     		sub	r2, r3, #1
 886 0026 7B68     		ldr	r3, [r7, #4]
 887 0028 1340     		and	r3, r2
 888 002a 7B60     		str	r3, [r7, #4]
1008:Generated_Source\PSoC4/engine_sensor_adc.c ****     engine_sensor_adc_SAR_CHAN_EN_REG = enableMask;
 889              		.loc 1 1008 0
 890 002c 054B     		ldr	r3, .L53+8
 891 002e 7A68     		ldr	r2, [r7, #4]
 892 0030 1A60     		str	r2, [r3]
1009:Generated_Source\PSoC4/engine_sensor_adc.c ****     return;
 893              		.loc 1 1009 0
 894 0032 C046     		mov	r8, r8
1010:Generated_Source\PSoC4/engine_sensor_adc.c **** }
 895              		.loc 1 1010 0
 896 0034 BD46     		mov	sp, r7
 897 0036 04B0     		add	sp, sp, #16
 898              		@ sp needed
 899 0038 80BD     		pop	{r7, pc}
 900              	.L54:
 901 003a C046     		.align	2
 902              	.L53:
 903 003c 04000000 		.word	engine_sensor_adc_currentConfig
 904 0040 00000000 		.word	engine_sensor_adc_allConfigs
 905 0044 20003A40 		.word	1077542944
 906              		.cfi_endproc
 907              	.LFE10:
 908              		.size	engine_sensor_adc_SetChanMask, .-engine_sensor_adc_SetChanMask
 909              		.section	.text.engine_sensor_adc_IsEndConversion,"ax",%progbits
 910              		.align	2
 911              		.global	engine_sensor_adc_IsEndConversion
 912              		.code	16
 913              		.thumb_func
 914              		.type	engine_sensor_adc_IsEndConversion, %function
 915              	engine_sensor_adc_IsEndConversion:
 916              	.LFB11:
1011:Generated_Source\PSoC4/engine_sensor_adc.c **** 
1012:Generated_Source\PSoC4/engine_sensor_adc.c **** /*******************************************************************************
1013:Generated_Source\PSoC4/engine_sensor_adc.c **** * Function Name: engine_sensor_adc_IsEndConversion
1014:Generated_Source\PSoC4/engine_sensor_adc.c **** ****************************************************************************//**
1015:Generated_Source\PSoC4/engine_sensor_adc.c **** *
ARM GAS  C:\Users\fneves\AppData\Local\Temp\ccV5UskS.s 			page 35


1016:Generated_Source\PSoC4/engine_sensor_adc.c **** * \brief Immediately returns the status of the conversion or does not return 
1017:Generated_Source\PSoC4/engine_sensor_adc.c **** * (blocking) until the conversion completes, depending on the retMode parameter.
1018:Generated_Source\PSoC4/engine_sensor_adc.c **** *
1019:Generated_Source\PSoC4/engine_sensor_adc.c **** * \param retMode Check conversion return mode. See the following table for 
1020:Generated_Source\PSoC4/engine_sensor_adc.c **** * options.
1021:Generated_Source\PSoC4/engine_sensor_adc.c **** * | Options                              | Description                             |
1022:Generated_Source\PSoC4/engine_sensor_adc.c **** * | :-------------------------------     | :-------------------------------------- |
1023:Generated_Source\PSoC4/engine_sensor_adc.c **** * | engine_sensor_adc_RETURN_STATUS       | Immediately returns the conversion status for sequentia
1024:Generated_Source\PSoC4/engine_sensor_adc.c **** * | engine_sensor_adc_WAIT_FOR_RESULT     | Does not return a result until the engine_sensor_adc co
1025:Generated_Source\PSoC4/engine_sensor_adc.c **** * | engine_sensor_adc_RETURN_STATUS_INJ   | Immediately returns the conversion status for the injec
1026:Generated_Source\PSoC4/engine_sensor_adc.c **** * | engine_sensor_adc_WAIT_FOR_RESULT_INJ | Does not return a result until the engine_sensor_adc co
1027:Generated_Source\PSoC4/engine_sensor_adc.c **** * 
1028:Generated_Source\PSoC4/engine_sensor_adc.c **** * \return uint8: If a nonzero value is returned, the last conversion is complete. 
1029:Generated_Source\PSoC4/engine_sensor_adc.c **** * If the returned value is zero, the engine_sensor_adc is still calculating the last result.
1030:Generated_Source\PSoC4/engine_sensor_adc.c **** *
1031:Generated_Source\PSoC4/engine_sensor_adc.c **** * \sideeffect This function reads the end of conversion status, and clears it afterward.
1032:Generated_Source\PSoC4/engine_sensor_adc.c **** * 
1033:Generated_Source\PSoC4/engine_sensor_adc.c **** * <b>Code Snippet</b>
1034:Generated_Source\PSoC4/engine_sensor_adc.c **** *  \snippet main.c snippet_engine_sensor_adc_IsEndConversion
1035:Generated_Source\PSoC4/engine_sensor_adc.c **** *
1036:Generated_Source\PSoC4/engine_sensor_adc.c **** *******************************************************************************/
1037:Generated_Source\PSoC4/engine_sensor_adc.c **** uint32 engine_sensor_adc_IsEndConversion(uint32 retMode)
1038:Generated_Source\PSoC4/engine_sensor_adc.c **** {
 917              		.loc 1 1038 0
 918              		.cfi_startproc
 919 0000 80B5     		push	{r7, lr}
 920              		.cfi_def_cfa_offset 8
 921              		.cfi_offset 7, -8
 922              		.cfi_offset 14, -4
 923 0002 84B0     		sub	sp, sp, #16
 924              		.cfi_def_cfa_offset 24
 925 0004 00AF     		add	r7, sp, #0
 926              		.cfi_def_cfa_register 7
 927 0006 7860     		str	r0, [r7, #4]
1039:Generated_Source\PSoC4/engine_sensor_adc.c ****     uint32 endOfConversion = 0u;
 928              		.loc 1 1039 0
 929 0008 0023     		mov	r3, #0
 930 000a FB60     		str	r3, [r7, #12]
1040:Generated_Source\PSoC4/engine_sensor_adc.c ****     uint32 wdt = 0x3FFFFFFuL; /* Watchdog timer for blocking while loop */
 931              		.loc 1 1040 0
 932 000c 124B     		ldr	r3, .L60
 933 000e BB60     		str	r3, [r7, #8]
1041:Generated_Source\PSoC4/engine_sensor_adc.c ****     if((engine_sensor_adc_RETURN_STATUS == retMode) || (engine_sensor_adc_WAIT_FOR_RESULT == retMod
 934              		.loc 1 1041 0
 935 0010 7B68     		ldr	r3, [r7, #4]
 936 0012 012B     		cmp	r3, #1
 937 0014 02D0     		beq	.L56
 938              		.loc 1 1041 0 is_stmt 0 discriminator 1
 939 0016 7B68     		ldr	r3, [r7, #4]
 940 0018 022B     		cmp	r3, #2
 941 001a 17D1     		bne	.L57
 942              	.L56:
1042:Generated_Source\PSoC4/engine_sensor_adc.c ****     {
1043:Generated_Source\PSoC4/engine_sensor_adc.c ****         do
1044:Generated_Source\PSoC4/engine_sensor_adc.c ****         {
1045:Generated_Source\PSoC4/engine_sensor_adc.c ****             endOfConversion = engine_sensor_adc_SAR_INTR_REG & engine_sensor_adc_EOS_MASK;
 943              		.loc 1 1045 0 is_stmt 1 discriminator 1
ARM GAS  C:\Users\fneves\AppData\Local\Temp\ccV5UskS.s 			page 36


 944 001c 0F4B     		ldr	r3, .L60+4
 945 001e 1B68     		ldr	r3, [r3]
 946 0020 0122     		mov	r2, #1
 947 0022 1340     		and	r3, r2
 948 0024 FB60     		str	r3, [r7, #12]
1046:Generated_Source\PSoC4/engine_sensor_adc.c ****             wdt--;
 949              		.loc 1 1046 0 discriminator 1
 950 0026 BB68     		ldr	r3, [r7, #8]
 951 0028 013B     		sub	r3, r3, #1
 952 002a BB60     		str	r3, [r7, #8]
1047:Generated_Source\PSoC4/engine_sensor_adc.c ****         }while(((0u == endOfConversion) 
1048:Generated_Source\PSoC4/engine_sensor_adc.c ****             && (((uint32) retMode & engine_sensor_adc_WAIT_FOR_RESULT) != 0u))
1049:Generated_Source\PSoC4/engine_sensor_adc.c ****             && (0uL != wdt));
 953              		.loc 1 1049 0 discriminator 1
 954 002c FB68     		ldr	r3, [r7, #12]
 955 002e 002B     		cmp	r3, #0
 956 0030 06D1     		bne	.L58
1048:Generated_Source\PSoC4/engine_sensor_adc.c ****             && (0uL != wdt));
 957              		.loc 1 1048 0
 958 0032 7B68     		ldr	r3, [r7, #4]
 959 0034 0222     		mov	r2, #2
 960 0036 1340     		and	r3, r2
 961 0038 02D0     		beq	.L58
 962              		.loc 1 1049 0
 963 003a BB68     		ldr	r3, [r7, #8]
 964 003c 002B     		cmp	r3, #0
 965 003e EDD1     		bne	.L56
 966              	.L58:
1050:Generated_Source\PSoC4/engine_sensor_adc.c **** 
1051:Generated_Source\PSoC4/engine_sensor_adc.c ****         if(0u != endOfConversion)
 967              		.loc 1 1051 0
 968 0040 FB68     		ldr	r3, [r7, #12]
 969 0042 002B     		cmp	r3, #0
 970 0044 02D0     		beq	.L57
1052:Generated_Source\PSoC4/engine_sensor_adc.c ****         {
1053:Generated_Source\PSoC4/engine_sensor_adc.c ****             /* Clear EOS bit */
1054:Generated_Source\PSoC4/engine_sensor_adc.c ****             engine_sensor_adc_SAR_INTR_REG = engine_sensor_adc_EOS_MASK;
 971              		.loc 1 1054 0
 972 0046 054B     		ldr	r3, .L60+4
 973 0048 0122     		mov	r2, #1
 974 004a 1A60     		str	r2, [r3]
 975              	.L57:
1055:Generated_Source\PSoC4/engine_sensor_adc.c ****         }
1056:Generated_Source\PSoC4/engine_sensor_adc.c ****     }
1057:Generated_Source\PSoC4/engine_sensor_adc.c ****     
1058:Generated_Source\PSoC4/engine_sensor_adc.c ****     return endOfConversion;
 976              		.loc 1 1058 0
 977 004c FB68     		ldr	r3, [r7, #12]
1059:Generated_Source\PSoC4/engine_sensor_adc.c **** }
 978              		.loc 1 1059 0
 979 004e 181C     		mov	r0, r3
 980 0050 BD46     		mov	sp, r7
 981 0052 04B0     		add	sp, sp, #16
 982              		@ sp needed
 983 0054 80BD     		pop	{r7, pc}
 984              	.L61:
 985 0056 C046     		.align	2
ARM GAS  C:\Users\fneves\AppData\Local\Temp\ccV5UskS.s 			page 37


 986              	.L60:
 987 0058 FFFFFF03 		.word	67108863
 988 005c 10023A40 		.word	1077543440
 989              		.cfi_endproc
 990              	.LFE11:
 991              		.size	engine_sensor_adc_IsEndConversion, .-engine_sensor_adc_IsEndConversion
 992              		.section	.text.engine_sensor_adc_IsChannelSigned,"ax",%progbits
 993              		.align	2
 994              		.code	16
 995              		.thumb_func
 996              		.type	engine_sensor_adc_IsChannelSigned, %function
 997              	engine_sensor_adc_IsChannelSigned:
 998              	.LFB12:
1060:Generated_Source\PSoC4/engine_sensor_adc.c ****  
1061:Generated_Source\PSoC4/engine_sensor_adc.c **** /* ****************************************************************************
1062:Generated_Source\PSoC4/engine_sensor_adc.c **** * Function Name: engine_sensor_adc_IsChannelSigned(uint32 chan)
1063:Generated_Source\PSoC4/engine_sensor_adc.c **** ****************************************************************************//*
1064:Generated_Source\PSoC4/engine_sensor_adc.c **** *
1065:Generated_Source\PSoC4/engine_sensor_adc.c **** * Determines if the provided channel is in signed format. 
1066:Generated_Source\PSoC4/engine_sensor_adc.c **** *
1067:Generated_Source\PSoC4/engine_sensor_adc.c **** * \param chan The engine_sensor_adc channel to check. 
1068:Generated_Source\PSoC4/engine_sensor_adc.c **** *
1069:Generated_Source\PSoC4/engine_sensor_adc.c **** * \return None
1070:Generated_Source\PSoC4/engine_sensor_adc.c **** * 
1071:Generated_Source\PSoC4/engine_sensor_adc.c **** * \sideeffect None
1072:Generated_Source\PSoC4/engine_sensor_adc.c **** *
1073:Generated_Source\PSoC4/engine_sensor_adc.c **** *
1074:Generated_Source\PSoC4/engine_sensor_adc.c **** *******************************************************************************/
1075:Generated_Source\PSoC4/engine_sensor_adc.c **** static int32 engine_sensor_adc_IsChannelSigned(uint32 chan)
1076:Generated_Source\PSoC4/engine_sensor_adc.c **** {
 999              		.loc 1 1076 0
 1000              		.cfi_startproc
 1001 0000 80B5     		push	{r7, lr}
 1002              		.cfi_def_cfa_offset 8
 1003              		.cfi_offset 7, -8
 1004              		.cfi_offset 14, -4
 1005 0002 84B0     		sub	sp, sp, #16
 1006              		.cfi_def_cfa_offset 24
 1007 0004 00AF     		add	r7, sp, #0
 1008              		.cfi_def_cfa_register 7
 1009 0006 7860     		str	r0, [r7, #4]
1077:Generated_Source\PSoC4/engine_sensor_adc.c ****     int32 isSigned = 0;
 1010              		.loc 1 1077 0
 1011 0008 0023     		mov	r3, #0
 1012 000a FB60     		str	r3, [r7, #12]
1078:Generated_Source\PSoC4/engine_sensor_adc.c ****     uint32 chanConfig;
1079:Generated_Source\PSoC4/engine_sensor_adc.c ****     
1080:Generated_Source\PSoC4/engine_sensor_adc.c ****     chanConfig = CY_GET_REG32((reg32 *)(engine_sensor_adc_SAR_CHAN_CONFIG_IND + (uint32)(chan << 2u
 1013              		.loc 1 1080 0
 1014 000c 7B68     		ldr	r3, [r7, #4]
 1015 000e 9B00     		lsl	r3, r3, #2
 1016 0010 164A     		ldr	r2, .L67
 1017 0012 9446     		mov	ip, r2
 1018 0014 6344     		add	r3, r3, ip
 1019 0016 1B68     		ldr	r3, [r3]
 1020 0018 BB60     		str	r3, [r7, #8]
1081:Generated_Source\PSoC4/engine_sensor_adc.c ****     /* If differential mode */
ARM GAS  C:\Users\fneves\AppData\Local\Temp\ccV5UskS.s 			page 38


1082:Generated_Source\PSoC4/engine_sensor_adc.c ****     if(0u != (chanConfig & engine_sensor_adc_CHANNEL_CONFIG_DIFF_ALL_MSK))
 1021              		.loc 1 1082 0
 1022 001a BB68     		ldr	r3, [r7, #8]
 1023 001c 144A     		ldr	r2, .L67+4
 1024 001e 1340     		and	r3, r2
 1025 0020 0FD0     		beq	.L63
1083:Generated_Source\PSoC4/engine_sensor_adc.c ****     {
1084:Generated_Source\PSoC4/engine_sensor_adc.c ****         /*If signed differential */
1085:Generated_Source\PSoC4/engine_sensor_adc.c ****         if((engine_sensor_adc_allConfigs[engine_sensor_adc_currentConfig].sampleCtrl 
 1026              		.loc 1 1085 0
 1027 0022 144B     		ldr	r3, .L67+8
 1028 0024 1A68     		ldr	r2, [r3]
 1029 0026 1449     		ldr	r1, .L67+12
 1030 0028 131C     		mov	r3, r2
 1031 002a DB00     		lsl	r3, r3, #3
 1032 002c 9B1A     		sub	r3, r3, r2
 1033 002e DB00     		lsl	r3, r3, #3
 1034 0030 CB18     		add	r3, r1, r3
 1035 0032 0833     		add	r3, r3, #8
 1036 0034 5B68     		ldr	r3, [r3, #4]
1086:Generated_Source\PSoC4/engine_sensor_adc.c ****             & engine_sensor_adc_SAR_SAMPLE_CTRL_DIFFERENTIAL_SIGNED_MSK) != 0u)
 1037              		.loc 1 1086 0
 1038 0036 0822     		mov	r2, #8
 1039 0038 1340     		and	r3, r2
1085:Generated_Source\PSoC4/engine_sensor_adc.c ****             & engine_sensor_adc_SAR_SAMPLE_CTRL_DIFFERENTIAL_SIGNED_MSK) != 0u)
 1040              		.loc 1 1085 0
 1041 003a 11D0     		beq	.L65
1087:Generated_Source\PSoC4/engine_sensor_adc.c ****         {
1088:Generated_Source\PSoC4/engine_sensor_adc.c ****             isSigned = 1;
 1042              		.loc 1 1088 0
 1043 003c 0123     		mov	r3, #1
 1044 003e FB60     		str	r3, [r7, #12]
 1045 0040 0EE0     		b	.L65
 1046              	.L63:
1089:Generated_Source\PSoC4/engine_sensor_adc.c ****         }
1090:Generated_Source\PSoC4/engine_sensor_adc.c ****     }
1091:Generated_Source\PSoC4/engine_sensor_adc.c ****     else
1092:Generated_Source\PSoC4/engine_sensor_adc.c ****     {
1093:Generated_Source\PSoC4/engine_sensor_adc.c ****         if((engine_sensor_adc_allConfigs[engine_sensor_adc_currentConfig].sampleCtrl
 1047              		.loc 1 1093 0
 1048 0042 0C4B     		ldr	r3, .L67+8
 1049 0044 1A68     		ldr	r2, [r3]
 1050 0046 0C49     		ldr	r1, .L67+12
 1051 0048 131C     		mov	r3, r2
 1052 004a DB00     		lsl	r3, r3, #3
 1053 004c 9B1A     		sub	r3, r3, r2
 1054 004e DB00     		lsl	r3, r3, #3
 1055 0050 CB18     		add	r3, r1, r3
 1056 0052 0833     		add	r3, r3, #8
 1057 0054 5B68     		ldr	r3, [r3, #4]
1094:Generated_Source\PSoC4/engine_sensor_adc.c ****             & engine_sensor_adc_SAR_SAMPLE_CTRL_SINGLE_ENDED_SIGNED_MSK) != 0u)
 1058              		.loc 1 1094 0
 1059 0056 0422     		mov	r2, #4
 1060 0058 1340     		and	r3, r2
1093:Generated_Source\PSoC4/engine_sensor_adc.c ****             & engine_sensor_adc_SAR_SAMPLE_CTRL_SINGLE_ENDED_SIGNED_MSK) != 0u)
 1061              		.loc 1 1093 0
 1062 005a 01D0     		beq	.L65
ARM GAS  C:\Users\fneves\AppData\Local\Temp\ccV5UskS.s 			page 39


1095:Generated_Source\PSoC4/engine_sensor_adc.c ****         {
1096:Generated_Source\PSoC4/engine_sensor_adc.c ****             isSigned = 1;
 1063              		.loc 1 1096 0
 1064 005c 0123     		mov	r3, #1
 1065 005e FB60     		str	r3, [r7, #12]
 1066              	.L65:
1097:Generated_Source\PSoC4/engine_sensor_adc.c ****         }
1098:Generated_Source\PSoC4/engine_sensor_adc.c ****     }
1099:Generated_Source\PSoC4/engine_sensor_adc.c ****     return isSigned;
 1067              		.loc 1 1099 0
 1068 0060 FB68     		ldr	r3, [r7, #12]
1100:Generated_Source\PSoC4/engine_sensor_adc.c **** }
 1069              		.loc 1 1100 0
 1070 0062 181C     		mov	r0, r3
 1071 0064 BD46     		mov	sp, r7
 1072 0066 04B0     		add	sp, sp, #16
 1073              		@ sp needed
 1074 0068 80BD     		pop	{r7, pc}
 1075              	.L68:
 1076 006a C046     		.align	2
 1077              	.L67:
 1078 006c 80003A40 		.word	1077543040
 1079 0070 00010001 		.word	16777472
 1080 0074 04000000 		.word	engine_sensor_adc_currentConfig
 1081 0078 00000000 		.word	engine_sensor_adc_allConfigs
 1082              		.cfi_endproc
 1083              	.LFE12:
 1084              		.size	engine_sensor_adc_IsChannelSigned, .-engine_sensor_adc_IsChannelSigned
 1085              		.section	.text.engine_sensor_adc_GetResult16,"ax",%progbits
 1086              		.align	2
 1087              		.global	engine_sensor_adc_GetResult16
 1088              		.code	16
 1089              		.thumb_func
 1090              		.type	engine_sensor_adc_GetResult16, %function
 1091              	engine_sensor_adc_GetResult16:
 1092              	.LFB13:
1101:Generated_Source\PSoC4/engine_sensor_adc.c **** /*******************************************************************************
1102:Generated_Source\PSoC4/engine_sensor_adc.c **** * Function Name: engine_sensor_adc_GetResult16
1103:Generated_Source\PSoC4/engine_sensor_adc.c **** ****************************************************************************//**
1104:Generated_Source\PSoC4/engine_sensor_adc.c **** *
1105:Generated_Source\PSoC4/engine_sensor_adc.c **** * \brief Gets the data available in the channel result data register
1106:Generated_Source\PSoC4/engine_sensor_adc.c **** *
1107:Generated_Source\PSoC4/engine_sensor_adc.c **** * \param chan The engine_sensor_adc channel to read the result from. The first 
1108:Generated_Source\PSoC4/engine_sensor_adc.c **** * channel is 0 and the injection channel if enabled is the number of valid 
1109:Generated_Source\PSoC4/engine_sensor_adc.c **** * channels.
1110:Generated_Source\PSoC4/engine_sensor_adc.c **** *
1111:Generated_Source\PSoC4/engine_sensor_adc.c **** * \return Returns converted data as a signed 16-bit integer.
1112:Generated_Source\PSoC4/engine_sensor_adc.c **** * 
1113:Generated_Source\PSoC4/engine_sensor_adc.c **** * \sideeffect None
1114:Generated_Source\PSoC4/engine_sensor_adc.c **** * 
1115:Generated_Source\PSoC4/engine_sensor_adc.c **** * <b>Code Snippet</b>
1116:Generated_Source\PSoC4/engine_sensor_adc.c **** *  \snippet main.c snippet_engine_sensor_adc_GetResult16
1117:Generated_Source\PSoC4/engine_sensor_adc.c **** *
1118:Generated_Source\PSoC4/engine_sensor_adc.c **** *******************************************************************************/
1119:Generated_Source\PSoC4/engine_sensor_adc.c **** int16 engine_sensor_adc_GetResult16(uint32 chan)
1120:Generated_Source\PSoC4/engine_sensor_adc.c **** {
 1093              		.loc 1 1120 0
ARM GAS  C:\Users\fneves\AppData\Local\Temp\ccV5UskS.s 			page 40


 1094              		.cfi_startproc
 1095 0000 80B5     		push	{r7, lr}
 1096              		.cfi_def_cfa_offset 8
 1097              		.cfi_offset 7, -8
 1098              		.cfi_offset 14, -4
 1099 0002 84B0     		sub	sp, sp, #16
 1100              		.cfi_def_cfa_offset 24
 1101 0004 00AF     		add	r7, sp, #0
 1102              		.cfi_def_cfa_register 7
 1103 0006 7860     		str	r0, [r7, #4]
1121:Generated_Source\PSoC4/engine_sensor_adc.c ****     uint32 adcResult;
1122:Generated_Source\PSoC4/engine_sensor_adc.c ****     
1123:Generated_Source\PSoC4/engine_sensor_adc.c ****     /* Halt CPU in debug mode if channel is out of valid range */
1124:Generated_Source\PSoC4/engine_sensor_adc.c ****     CYASSERT(chan < engine_sensor_adc_allConfigs[engine_sensor_adc_currentConfig].numChannels);
 1104              		.loc 1 1124 0
 1105 0008 164B     		ldr	r3, .L74
 1106 000a 1A68     		ldr	r2, [r3]
 1107 000c 1649     		ldr	r1, .L74+4
 1108 000e 131C     		mov	r3, r2
 1109 0010 DB00     		lsl	r3, r3, #3
 1110 0012 9B1A     		sub	r3, r3, r2
 1111 0014 DB00     		lsl	r3, r3, #3
 1112 0016 CB18     		add	r3, r1, r3
 1113 0018 5A68     		ldr	r2, [r3, #4]
 1114 001a 7B68     		ldr	r3, [r7, #4]
 1115 001c 9A42     		cmp	r2, r3
 1116 001e 02D8     		bhi	.L70
 1117              		.loc 1 1124 0 is_stmt 0 discriminator 1
 1118 0020 0020     		mov	r0, #0
 1119 0022 FFF7FEFF 		bl	CyHalt
 1120              	.L70:
1125:Generated_Source\PSoC4/engine_sensor_adc.c **** 
1126:Generated_Source\PSoC4/engine_sensor_adc.c ****     if(engine_sensor_adc_allConfigs[engine_sensor_adc_currentConfig].numChannels > chan)
 1121              		.loc 1 1126 0 is_stmt 1
 1122 0026 0F4B     		ldr	r3, .L74
 1123 0028 1A68     		ldr	r2, [r3]
 1124 002a 0F49     		ldr	r1, .L74+4
 1125 002c 131C     		mov	r3, r2
 1126 002e DB00     		lsl	r3, r3, #3
 1127 0030 9B1A     		sub	r3, r3, r2
 1128 0032 DB00     		lsl	r3, r3, #3
 1129 0034 CB18     		add	r3, r1, r3
 1130 0036 5A68     		ldr	r2, [r3, #4]
 1131 0038 7B68     		ldr	r3, [r7, #4]
 1132 003a 9A42     		cmp	r2, r3
 1133 003c 09D9     		bls	.L71
1127:Generated_Source\PSoC4/engine_sensor_adc.c ****     {   
1128:Generated_Source\PSoC4/engine_sensor_adc.c ****         adcResult = CY_GET_REG32((reg32 *)(engine_sensor_adc_SAR_CHAN_RESULT_IND + (uint32)(chan <<
 1134              		.loc 1 1128 0
 1135 003e 7B68     		ldr	r3, [r7, #4]
 1136 0040 9B00     		lsl	r3, r3, #2
 1137 0042 0A4A     		ldr	r2, .L74+8
 1138 0044 9446     		mov	ip, r2
 1139 0046 6344     		add	r3, r3, ip
 1140 0048 1B68     		ldr	r3, [r3]
 1141 004a 1B04     		lsl	r3, r3, #16
 1142 004c 1B0C     		lsr	r3, r3, #16
ARM GAS  C:\Users\fneves\AppData\Local\Temp\ccV5UskS.s 			page 41


 1143 004e FB60     		str	r3, [r7, #12]
 1144 0050 01E0     		b	.L72
 1145              	.L71:
1129:Generated_Source\PSoC4/engine_sensor_adc.c ****             engine_sensor_adc_RESULT_MASK; 
1130:Generated_Source\PSoC4/engine_sensor_adc.c ****     }
1131:Generated_Source\PSoC4/engine_sensor_adc.c ****     else
1132:Generated_Source\PSoC4/engine_sensor_adc.c ****     {
1133:Generated_Source\PSoC4/engine_sensor_adc.c **** 		adcResult = 0u;
 1146              		.loc 1 1133 0
 1147 0052 0023     		mov	r3, #0
 1148 0054 FB60     		str	r3, [r7, #12]
 1149              	.L72:
1134:Generated_Source\PSoC4/engine_sensor_adc.c ****     }
1135:Generated_Source\PSoC4/engine_sensor_adc.c ****     
1136:Generated_Source\PSoC4/engine_sensor_adc.c ****     return (int16) adcResult;
 1150              		.loc 1 1136 0
 1151 0056 FB68     		ldr	r3, [r7, #12]
 1152 0058 9BB2     		uxth	r3, r3
 1153 005a 1BB2     		sxth	r3, r3
1137:Generated_Source\PSoC4/engine_sensor_adc.c **** }
 1154              		.loc 1 1137 0
 1155 005c 181C     		mov	r0, r3
 1156 005e BD46     		mov	sp, r7
 1157 0060 04B0     		add	sp, sp, #16
 1158              		@ sp needed
 1159 0062 80BD     		pop	{r7, pc}
 1160              	.L75:
 1161              		.align	2
 1162              	.L74:
 1163 0064 04000000 		.word	engine_sensor_adc_currentConfig
 1164 0068 00000000 		.word	engine_sensor_adc_allConfigs
 1165 006c 80013A40 		.word	1077543296
 1166              		.cfi_endproc
 1167              	.LFE13:
 1168              		.size	engine_sensor_adc_GetResult16, .-engine_sensor_adc_GetResult16
 1169              		.section	.text.engine_sensor_adc_GetResult32,"ax",%progbits
 1170              		.align	2
 1171              		.global	engine_sensor_adc_GetResult32
 1172              		.code	16
 1173              		.thumb_func
 1174              		.type	engine_sensor_adc_GetResult32, %function
 1175              	engine_sensor_adc_GetResult32:
 1176              	.LFB14:
1138:Generated_Source\PSoC4/engine_sensor_adc.c **** 
1139:Generated_Source\PSoC4/engine_sensor_adc.c **** /*******************************************************************************
1140:Generated_Source\PSoC4/engine_sensor_adc.c **** * Function Name: engine_sensor_adc_GetResult32
1141:Generated_Source\PSoC4/engine_sensor_adc.c **** ****************************************************************************//**
1142:Generated_Source\PSoC4/engine_sensor_adc.c **** *
1143:Generated_Source\PSoC4/engine_sensor_adc.c **** * \brief Gets the data available in the channel result data register. 
1144:Generated_Source\PSoC4/engine_sensor_adc.c **** *
1145:Generated_Source\PSoC4/engine_sensor_adc.c **** * \param chan The engine_sensor_adc channel to read the result from. The first 
1146:Generated_Source\PSoC4/engine_sensor_adc.c **** * channel is 0 and the injection channel if enabled is the number of valid 
1147:Generated_Source\PSoC4/engine_sensor_adc.c **** * channels.
1148:Generated_Source\PSoC4/engine_sensor_adc.c **** *
1149:Generated_Source\PSoC4/engine_sensor_adc.c **** * \return Returns converted data as a signed 32-bit integer.
1150:Generated_Source\PSoC4/engine_sensor_adc.c **** * 
1151:Generated_Source\PSoC4/engine_sensor_adc.c **** * \sideeffect None
ARM GAS  C:\Users\fneves\AppData\Local\Temp\ccV5UskS.s 			page 42


1152:Generated_Source\PSoC4/engine_sensor_adc.c **** *
1153:Generated_Source\PSoC4/engine_sensor_adc.c **** * <b>Code Snippet</b>
1154:Generated_Source\PSoC4/engine_sensor_adc.c **** *  \snippet main.c snippet_engine_sensor_adc_GetResult32
1155:Generated_Source\PSoC4/engine_sensor_adc.c **** *
1156:Generated_Source\PSoC4/engine_sensor_adc.c **** *******************************************************************************/
1157:Generated_Source\PSoC4/engine_sensor_adc.c **** int32 engine_sensor_adc_GetResult32(uint32 chan)
1158:Generated_Source\PSoC4/engine_sensor_adc.c **** {
 1177              		.loc 1 1158 0
 1178              		.cfi_startproc
 1179 0000 80B5     		push	{r7, lr}
 1180              		.cfi_def_cfa_offset 8
 1181              		.cfi_offset 7, -8
 1182              		.cfi_offset 14, -4
 1183 0002 86B0     		sub	sp, sp, #24
 1184              		.cfi_def_cfa_offset 32
 1185 0004 00AF     		add	r7, sp, #0
 1186              		.cfi_def_cfa_register 7
 1187 0006 7860     		str	r0, [r7, #4]
1159:Generated_Source\PSoC4/engine_sensor_adc.c ****     uint32 adcResult;
1160:Generated_Source\PSoC4/engine_sensor_adc.c ****     int16 adcResult16;
1161:Generated_Source\PSoC4/engine_sensor_adc.c ****     int32 finalResult;
1162:Generated_Source\PSoC4/engine_sensor_adc.c ****     
1163:Generated_Source\PSoC4/engine_sensor_adc.c ****     /* Halt CPU in debug mode if channel is out of valid range */
1164:Generated_Source\PSoC4/engine_sensor_adc.c ****     CYASSERT(chan < engine_sensor_adc_allConfigs[engine_sensor_adc_currentConfig].numChannels);
 1188              		.loc 1 1164 0
 1189 0008 1F4B     		ldr	r3, .L83
 1190 000a 1A68     		ldr	r2, [r3]
 1191 000c 1F49     		ldr	r1, .L83+4
 1192 000e 131C     		mov	r3, r2
 1193 0010 DB00     		lsl	r3, r3, #3
 1194 0012 9B1A     		sub	r3, r3, r2
 1195 0014 DB00     		lsl	r3, r3, #3
 1196 0016 CB18     		add	r3, r1, r3
 1197 0018 5A68     		ldr	r2, [r3, #4]
 1198 001a 7B68     		ldr	r3, [r7, #4]
 1199 001c 9A42     		cmp	r2, r3
 1200 001e 02D8     		bhi	.L77
 1201              		.loc 1 1164 0 is_stmt 0 discriminator 1
 1202 0020 0020     		mov	r0, #0
 1203 0022 FFF7FEFF 		bl	CyHalt
 1204              	.L77:
1165:Generated_Source\PSoC4/engine_sensor_adc.c **** 
1166:Generated_Source\PSoC4/engine_sensor_adc.c ****     if(engine_sensor_adc_allConfigs[engine_sensor_adc_currentConfig].numChannels > chan)
 1205              		.loc 1 1166 0 is_stmt 1
 1206 0026 184B     		ldr	r3, .L83
 1207 0028 1A68     		ldr	r2, [r3]
 1208 002a 1849     		ldr	r1, .L83+4
 1209 002c 131C     		mov	r3, r2
 1210 002e DB00     		lsl	r3, r3, #3
 1211 0030 9B1A     		sub	r3, r3, r2
 1212 0032 DB00     		lsl	r3, r3, #3
 1213 0034 CB18     		add	r3, r1, r3
 1214 0036 5A68     		ldr	r2, [r3, #4]
 1215 0038 7B68     		ldr	r3, [r7, #4]
 1216 003a 9A42     		cmp	r2, r3
 1217 003c 09D9     		bls	.L78
1167:Generated_Source\PSoC4/engine_sensor_adc.c ****     {
ARM GAS  C:\Users\fneves\AppData\Local\Temp\ccV5UskS.s 			page 43


1168:Generated_Source\PSoC4/engine_sensor_adc.c ****         adcResult = CY_GET_REG32((reg32 *)(engine_sensor_adc_SAR_CHAN_RESULT_IND + (uint32)(chan <<
 1218              		.loc 1 1168 0
 1219 003e 7B68     		ldr	r3, [r7, #4]
 1220 0040 9B00     		lsl	r3, r3, #2
 1221 0042 134A     		ldr	r2, .L83+8
 1222 0044 9446     		mov	ip, r2
 1223 0046 6344     		add	r3, r3, ip
 1224 0048 1B68     		ldr	r3, [r3]
 1225 004a 1B04     		lsl	r3, r3, #16
 1226 004c 1B0C     		lsr	r3, r3, #16
 1227 004e 7B61     		str	r3, [r7, #20]
 1228 0050 01E0     		b	.L79
 1229              	.L78:
1169:Generated_Source\PSoC4/engine_sensor_adc.c ****             engine_sensor_adc_RESULT_MASK;
1170:Generated_Source\PSoC4/engine_sensor_adc.c ****     }
1171:Generated_Source\PSoC4/engine_sensor_adc.c ****     else
1172:Generated_Source\PSoC4/engine_sensor_adc.c ****     {
1173:Generated_Source\PSoC4/engine_sensor_adc.c ****         adcResult = 0u;
 1230              		.loc 1 1173 0
 1231 0052 0023     		mov	r3, #0
 1232 0054 7B61     		str	r3, [r7, #20]
 1233              	.L79:
1174:Generated_Source\PSoC4/engine_sensor_adc.c ****     }
1175:Generated_Source\PSoC4/engine_sensor_adc.c ****     /* Sign extend if channel is signed format */
1176:Generated_Source\PSoC4/engine_sensor_adc.c ****     if(engine_sensor_adc_IsChannelSigned(chan) == 1)
 1234              		.loc 1 1176 0
 1235 0056 7B68     		ldr	r3, [r7, #4]
 1236 0058 181C     		mov	r0, r3
 1237 005a FFF7FEFF 		bl	engine_sensor_adc_IsChannelSigned
 1238 005e 031E     		sub	r3, r0, #0
 1239 0060 012B     		cmp	r3, #1
 1240 0062 09D1     		bne	.L80
1177:Generated_Source\PSoC4/engine_sensor_adc.c ****     {
1178:Generated_Source\PSoC4/engine_sensor_adc.c ****         adcResult16 = (int16) adcResult;
 1241              		.loc 1 1178 0
 1242 0064 0E23     		mov	r3, #14
 1243 0066 FB18     		add	r3, r7, r3
 1244 0068 7A69     		ldr	r2, [r7, #20]
 1245 006a 1A80     		strh	r2, [r3]
1179:Generated_Source\PSoC4/engine_sensor_adc.c ****         finalResult = (int32) adcResult16;
 1246              		.loc 1 1179 0
 1247 006c 0E23     		mov	r3, #14
 1248 006e FB18     		add	r3, r7, r3
 1249 0070 0022     		mov	r2, #0
 1250 0072 9B5E     		ldrsh	r3, [r3, r2]
 1251 0074 3B61     		str	r3, [r7, #16]
 1252 0076 01E0     		b	.L81
 1253              	.L80:
1180:Generated_Source\PSoC4/engine_sensor_adc.c ****     }
1181:Generated_Source\PSoC4/engine_sensor_adc.c ****     else
1182:Generated_Source\PSoC4/engine_sensor_adc.c ****     {
1183:Generated_Source\PSoC4/engine_sensor_adc.c ****         finalResult = (int32) adcResult;
 1254              		.loc 1 1183 0
 1255 0078 7B69     		ldr	r3, [r7, #20]
 1256 007a 3B61     		str	r3, [r7, #16]
 1257              	.L81:
1184:Generated_Source\PSoC4/engine_sensor_adc.c ****     }
ARM GAS  C:\Users\fneves\AppData\Local\Temp\ccV5UskS.s 			page 44


1185:Generated_Source\PSoC4/engine_sensor_adc.c ****     return finalResult;
 1258              		.loc 1 1185 0
 1259 007c 3B69     		ldr	r3, [r7, #16]
1186:Generated_Source\PSoC4/engine_sensor_adc.c **** }
 1260              		.loc 1 1186 0
 1261 007e 181C     		mov	r0, r3
 1262 0080 BD46     		mov	sp, r7
 1263 0082 06B0     		add	sp, sp, #24
 1264              		@ sp needed
 1265 0084 80BD     		pop	{r7, pc}
 1266              	.L84:
 1267 0086 C046     		.align	2
 1268              	.L83:
 1269 0088 04000000 		.word	engine_sensor_adc_currentConfig
 1270 008c 00000000 		.word	engine_sensor_adc_allConfigs
 1271 0090 80013A40 		.word	1077543296
 1272              		.cfi_endproc
 1273              	.LFE14:
 1274              		.size	engine_sensor_adc_GetResult32, .-engine_sensor_adc_GetResult32
 1275              		.section	.text.engine_sensor_adc_SetLowLimit,"ax",%progbits
 1276              		.align	2
 1277              		.global	engine_sensor_adc_SetLowLimit
 1278              		.code	16
 1279              		.thumb_func
 1280              		.type	engine_sensor_adc_SetLowLimit, %function
 1281              	engine_sensor_adc_SetLowLimit:
 1282              	.LFB15:
1187:Generated_Source\PSoC4/engine_sensor_adc.c **** 
1188:Generated_Source\PSoC4/engine_sensor_adc.c **** /*******************************************************************************
1189:Generated_Source\PSoC4/engine_sensor_adc.c **** * Function Name: engine_sensor_adc_SetLowLimit
1190:Generated_Source\PSoC4/engine_sensor_adc.c **** ****************************************************************************//**
1191:Generated_Source\PSoC4/engine_sensor_adc.c **** *
1192:Generated_Source\PSoC4/engine_sensor_adc.c **** * \brief Sets the low limit parameter for a limit condition.
1193:Generated_Source\PSoC4/engine_sensor_adc.c **** *
1194:Generated_Source\PSoC4/engine_sensor_adc.c **** * \param lowLimit The low limit for a limit condition.
1195:Generated_Source\PSoC4/engine_sensor_adc.c **** *
1196:Generated_Source\PSoC4/engine_sensor_adc.c **** * \return None
1197:Generated_Source\PSoC4/engine_sensor_adc.c **** * 
1198:Generated_Source\PSoC4/engine_sensor_adc.c **** * \sideeffect None
1199:Generated_Source\PSoC4/engine_sensor_adc.c **** *
1200:Generated_Source\PSoC4/engine_sensor_adc.c **** * <b>Code Snippet</b>
1201:Generated_Source\PSoC4/engine_sensor_adc.c **** *  \snippet main.c snippet_engine_sensor_adc_SetLowLimit
1202:Generated_Source\PSoC4/engine_sensor_adc.c **** *
1203:Generated_Source\PSoC4/engine_sensor_adc.c **** *******************************************************************************/
1204:Generated_Source\PSoC4/engine_sensor_adc.c **** void engine_sensor_adc_SetLowLimit(uint32 lowLimit)
1205:Generated_Source\PSoC4/engine_sensor_adc.c **** {   
 1283              		.loc 1 1205 0
 1284              		.cfi_startproc
 1285 0000 80B5     		push	{r7, lr}
 1286              		.cfi_def_cfa_offset 8
 1287              		.cfi_offset 7, -8
 1288              		.cfi_offset 14, -4
 1289 0002 82B0     		sub	sp, sp, #8
 1290              		.cfi_def_cfa_offset 16
 1291 0004 00AF     		add	r7, sp, #0
 1292              		.cfi_def_cfa_register 7
 1293 0006 7860     		str	r0, [r7, #4]
ARM GAS  C:\Users\fneves\AppData\Local\Temp\ccV5UskS.s 			page 45


1206:Generated_Source\PSoC4/engine_sensor_adc.c ****     engine_sensor_adc_SAR_RANGE_THRES_REG &= ~(uint32)(engine_sensor_adc_SAR_RANGE_THRES_RANGE_LOW_
 1294              		.loc 1 1206 0
 1295 0008 084B     		ldr	r3, .L87
 1296 000a 084A     		ldr	r2, .L87
 1297 000c 1268     		ldr	r2, [r2]
 1298 000e 120C     		lsr	r2, r2, #16
 1299 0010 1204     		lsl	r2, r2, #16
 1300 0012 1A60     		str	r2, [r3]
1207:Generated_Source\PSoC4/engine_sensor_adc.c ****     engine_sensor_adc_SAR_RANGE_THRES_REG |= lowLimit & engine_sensor_adc_SAR_RANGE_THRES_RANGE_LOW
 1301              		.loc 1 1207 0
 1302 0014 054B     		ldr	r3, .L87
 1303 0016 054A     		ldr	r2, .L87
 1304 0018 1168     		ldr	r1, [r2]
 1305 001a 7A68     		ldr	r2, [r7, #4]
 1306 001c 1204     		lsl	r2, r2, #16
 1307 001e 120C     		lsr	r2, r2, #16
 1308 0020 0A43     		orr	r2, r1
 1309 0022 1A60     		str	r2, [r3]
1208:Generated_Source\PSoC4/engine_sensor_adc.c ****     return;
 1310              		.loc 1 1208 0
 1311 0024 C046     		mov	r8, r8
1209:Generated_Source\PSoC4/engine_sensor_adc.c **** }
 1312              		.loc 1 1209 0
 1313 0026 BD46     		mov	sp, r7
 1314 0028 02B0     		add	sp, sp, #8
 1315              		@ sp needed
 1316 002a 80BD     		pop	{r7, pc}
 1317              	.L88:
 1318              		.align	2
 1319              	.L87:
 1320 002c 18003A40 		.word	1077542936
 1321              		.cfi_endproc
 1322              	.LFE15:
 1323              		.size	engine_sensor_adc_SetLowLimit, .-engine_sensor_adc_SetLowLimit
 1324              		.section	.text.engine_sensor_adc_SetHighLimit,"ax",%progbits
 1325              		.align	2
 1326              		.global	engine_sensor_adc_SetHighLimit
 1327              		.code	16
 1328              		.thumb_func
 1329              		.type	engine_sensor_adc_SetHighLimit, %function
 1330              	engine_sensor_adc_SetHighLimit:
 1331              	.LFB16:
1210:Generated_Source\PSoC4/engine_sensor_adc.c **** 
1211:Generated_Source\PSoC4/engine_sensor_adc.c **** /*******************************************************************************
1212:Generated_Source\PSoC4/engine_sensor_adc.c **** * Function Name: engine_sensor_adc_SetHighLimit
1213:Generated_Source\PSoC4/engine_sensor_adc.c **** ****************************************************************************//**
1214:Generated_Source\PSoC4/engine_sensor_adc.c **** *
1215:Generated_Source\PSoC4/engine_sensor_adc.c **** * \brief Sets the high limit parameter for a limit condition.
1216:Generated_Source\PSoC4/engine_sensor_adc.c **** *
1217:Generated_Source\PSoC4/engine_sensor_adc.c **** * \param highLimit The high limit for a limit condition.
1218:Generated_Source\PSoC4/engine_sensor_adc.c **** *
1219:Generated_Source\PSoC4/engine_sensor_adc.c **** * \return None
1220:Generated_Source\PSoC4/engine_sensor_adc.c **** * 
1221:Generated_Source\PSoC4/engine_sensor_adc.c **** * \sideeffect None
1222:Generated_Source\PSoC4/engine_sensor_adc.c **** * 
1223:Generated_Source\PSoC4/engine_sensor_adc.c **** * <b>Code Snippet</b>
1224:Generated_Source\PSoC4/engine_sensor_adc.c **** *  \snippet main.c snippet_engine_sensor_adc_SetHighLimit
ARM GAS  C:\Users\fneves\AppData\Local\Temp\ccV5UskS.s 			page 46


1225:Generated_Source\PSoC4/engine_sensor_adc.c **** *
1226:Generated_Source\PSoC4/engine_sensor_adc.c **** *******************************************************************************/
1227:Generated_Source\PSoC4/engine_sensor_adc.c **** void engine_sensor_adc_SetHighLimit(uint32 highLimit)
1228:Generated_Source\PSoC4/engine_sensor_adc.c **** {   
 1332              		.loc 1 1228 0
 1333              		.cfi_startproc
 1334 0000 80B5     		push	{r7, lr}
 1335              		.cfi_def_cfa_offset 8
 1336              		.cfi_offset 7, -8
 1337              		.cfi_offset 14, -4
 1338 0002 82B0     		sub	sp, sp, #8
 1339              		.cfi_def_cfa_offset 16
 1340 0004 00AF     		add	r7, sp, #0
 1341              		.cfi_def_cfa_register 7
 1342 0006 7860     		str	r0, [r7, #4]
1229:Generated_Source\PSoC4/engine_sensor_adc.c ****     engine_sensor_adc_SAR_RANGE_THRES_REG &= ~(uint32)(engine_sensor_adc_SAR_RANGE_THRES_RANGE_HIGH
 1343              		.loc 1 1229 0
 1344 0008 084B     		ldr	r3, .L91
 1345 000a 084A     		ldr	r2, .L91
 1346 000c 1268     		ldr	r2, [r2]
 1347 000e 1204     		lsl	r2, r2, #16
 1348 0010 120C     		lsr	r2, r2, #16
 1349 0012 1A60     		str	r2, [r3]
1230:Generated_Source\PSoC4/engine_sensor_adc.c ****     engine_sensor_adc_SAR_RANGE_THRES_REG |= (uint32)(highLimit << engine_sensor_adc_SAR_RANGE_THRE
 1350              		.loc 1 1230 0
 1351 0014 054B     		ldr	r3, .L91
 1352 0016 054A     		ldr	r2, .L91
 1353 0018 1168     		ldr	r1, [r2]
 1354 001a 7A68     		ldr	r2, [r7, #4]
 1355 001c 1204     		lsl	r2, r2, #16
 1356 001e 0A43     		orr	r2, r1
 1357 0020 1A60     		str	r2, [r3]
1231:Generated_Source\PSoC4/engine_sensor_adc.c ****     return;
 1358              		.loc 1 1231 0
 1359 0022 C046     		mov	r8, r8
1232:Generated_Source\PSoC4/engine_sensor_adc.c **** }
 1360              		.loc 1 1232 0
 1361 0024 BD46     		mov	sp, r7
 1362 0026 02B0     		add	sp, sp, #8
 1363              		@ sp needed
 1364 0028 80BD     		pop	{r7, pc}
 1365              	.L92:
 1366 002a C046     		.align	2
 1367              	.L91:
 1368 002c 18003A40 		.word	1077542936
 1369              		.cfi_endproc
 1370              	.LFE16:
 1371              		.size	engine_sensor_adc_SetHighLimit, .-engine_sensor_adc_SetHighLimit
 1372              		.section	.text.engine_sensor_adc_SetLimitMask,"ax",%progbits
 1373              		.align	2
 1374              		.global	engine_sensor_adc_SetLimitMask
 1375              		.code	16
 1376              		.thumb_func
 1377              		.type	engine_sensor_adc_SetLimitMask, %function
 1378              	engine_sensor_adc_SetLimitMask:
 1379              	.LFB17:
1233:Generated_Source\PSoC4/engine_sensor_adc.c **** 
ARM GAS  C:\Users\fneves\AppData\Local\Temp\ccV5UskS.s 			page 47


1234:Generated_Source\PSoC4/engine_sensor_adc.c **** /*******************************************************************************
1235:Generated_Source\PSoC4/engine_sensor_adc.c **** * Function Name: engine_sensor_adc_SetLimitMask
1236:Generated_Source\PSoC4/engine_sensor_adc.c **** ****************************************************************************//**
1237:Generated_Source\PSoC4/engine_sensor_adc.c **** *
1238:Generated_Source\PSoC4/engine_sensor_adc.c **** * \brief Sets the channel limit condition mask.
1239:Generated_Source\PSoC4/engine_sensor_adc.c **** *
1240:Generated_Source\PSoC4/engine_sensor_adc.c **** *
1241:Generated_Source\PSoC4/engine_sensor_adc.c **** * \param limitMask Sets which channels that may cause a limit condition interrupt. 
1242:Generated_Source\PSoC4/engine_sensor_adc.c **** * Setting bits for channels that do not exist will have no effect. For example, 
1243:Generated_Source\PSoC4/engine_sensor_adc.c **** * if only 6  channels were enabled, setting a mask of 0x0103 would only enable 
1244:Generated_Source\PSoC4/engine_sensor_adc.c **** * the last two channels (0 and 1).
1245:Generated_Source\PSoC4/engine_sensor_adc.c **** *
1246:Generated_Source\PSoC4/engine_sensor_adc.c **** * \return None
1247:Generated_Source\PSoC4/engine_sensor_adc.c **** * 
1248:Generated_Source\PSoC4/engine_sensor_adc.c **** * \sideeffect None
1249:Generated_Source\PSoC4/engine_sensor_adc.c **** *
1250:Generated_Source\PSoC4/engine_sensor_adc.c **** * <b>Code Snippet</b>
1251:Generated_Source\PSoC4/engine_sensor_adc.c **** *  \snippet main.c snippet_engine_sensor_adc_SetLimitMask
1252:Generated_Source\PSoC4/engine_sensor_adc.c **** *
1253:Generated_Source\PSoC4/engine_sensor_adc.c **** *******************************************************************************/
1254:Generated_Source\PSoC4/engine_sensor_adc.c **** void engine_sensor_adc_SetLimitMask(uint32 limitMask)
1255:Generated_Source\PSoC4/engine_sensor_adc.c **** {   
 1380              		.loc 1 1255 0
 1381              		.cfi_startproc
 1382 0000 80B5     		push	{r7, lr}
 1383              		.cfi_def_cfa_offset 8
 1384              		.cfi_offset 7, -8
 1385              		.cfi_offset 14, -4
 1386 0002 84B0     		sub	sp, sp, #16
 1387              		.cfi_def_cfa_offset 24
 1388 0004 00AF     		add	r7, sp, #0
 1389              		.cfi_def_cfa_register 7
 1390 0006 7860     		str	r0, [r7, #4]
1256:Generated_Source\PSoC4/engine_sensor_adc.c ****     uint32 chanCount = engine_sensor_adc_allConfigs[engine_sensor_adc_currentConfig].numChannels;
 1391              		.loc 1 1256 0
 1392 0008 0C4B     		ldr	r3, .L95
 1393 000a 1A68     		ldr	r2, [r3]
 1394 000c 0C49     		ldr	r1, .L95+4
 1395 000e 131C     		mov	r3, r2
 1396 0010 DB00     		lsl	r3, r3, #3
 1397 0012 9B1A     		sub	r3, r3, r2
 1398 0014 DB00     		lsl	r3, r3, #3
 1399 0016 CB18     		add	r3, r1, r3
 1400 0018 5B68     		ldr	r3, [r3, #4]
 1401 001a FB60     		str	r3, [r7, #12]
1257:Generated_Source\PSoC4/engine_sensor_adc.c ****     limitMask &= (uint32)((uint32)(1ul << chanCount) - 1ul);
 1402              		.loc 1 1257 0
 1403 001c FB68     		ldr	r3, [r7, #12]
 1404 001e 0122     		mov	r2, #1
 1405 0020 9A40     		lsl	r2, r2, r3
 1406 0022 131C     		mov	r3, r2
 1407 0024 5A1E     		sub	r2, r3, #1
 1408 0026 7B68     		ldr	r3, [r7, #4]
 1409 0028 1340     		and	r3, r2
 1410 002a 7B60     		str	r3, [r7, #4]
1258:Generated_Source\PSoC4/engine_sensor_adc.c ****     engine_sensor_adc_SAR_RANGE_INTR_MASK_REG = limitMask;
 1411              		.loc 1 1258 0
ARM GAS  C:\Users\fneves\AppData\Local\Temp\ccV5UskS.s 			page 48


 1412 002c 054B     		ldr	r3, .L95+8
 1413 002e 7A68     		ldr	r2, [r7, #4]
 1414 0030 1A60     		str	r2, [r3]
1259:Generated_Source\PSoC4/engine_sensor_adc.c ****     return;
 1415              		.loc 1 1259 0
 1416 0032 C046     		mov	r8, r8
1260:Generated_Source\PSoC4/engine_sensor_adc.c **** }
 1417              		.loc 1 1260 0
 1418 0034 BD46     		mov	sp, r7
 1419 0036 04B0     		add	sp, sp, #16
 1420              		@ sp needed
 1421 0038 80BD     		pop	{r7, pc}
 1422              	.L96:
 1423 003a C046     		.align	2
 1424              	.L95:
 1425 003c 04000000 		.word	engine_sensor_adc_currentConfig
 1426 0040 00000000 		.word	engine_sensor_adc_allConfigs
 1427 0044 38023A40 		.word	1077543480
 1428              		.cfi_endproc
 1429              	.LFE17:
 1430              		.size	engine_sensor_adc_SetLimitMask, .-engine_sensor_adc_SetLimitMask
 1431              		.section	.text.engine_sensor_adc_SetSatMask,"ax",%progbits
 1432              		.align	2
 1433              		.global	engine_sensor_adc_SetSatMask
 1434              		.code	16
 1435              		.thumb_func
 1436              		.type	engine_sensor_adc_SetSatMask, %function
 1437              	engine_sensor_adc_SetSatMask:
 1438              	.LFB18:
1261:Generated_Source\PSoC4/engine_sensor_adc.c **** 
1262:Generated_Source\PSoC4/engine_sensor_adc.c **** /*******************************************************************************
1263:Generated_Source\PSoC4/engine_sensor_adc.c **** * Function Name: engine_sensor_adc_SetSatMask
1264:Generated_Source\PSoC4/engine_sensor_adc.c **** ****************************************************************************//**
1265:Generated_Source\PSoC4/engine_sensor_adc.c **** *
1266:Generated_Source\PSoC4/engine_sensor_adc.c **** * \brief Sets the channel saturation event mask.
1267:Generated_Source\PSoC4/engine_sensor_adc.c **** *
1268:Generated_Source\PSoC4/engine_sensor_adc.c **** * \param satMask Sets which channels that may cause a saturation event interrupt. 
1269:Generated_Source\PSoC4/engine_sensor_adc.c **** * Setting bits for channels that do not exist will have no effect. For example, 
1270:Generated_Source\PSoC4/engine_sensor_adc.c **** * if only 8 channels were enabled, setting a mask of 0x01C0 would only enable two 
1271:Generated_Source\PSoC4/engine_sensor_adc.c **** * channels (6 and 7).
1272:Generated_Source\PSoC4/engine_sensor_adc.c **** *
1273:Generated_Source\PSoC4/engine_sensor_adc.c **** * \return None
1274:Generated_Source\PSoC4/engine_sensor_adc.c **** * 
1275:Generated_Source\PSoC4/engine_sensor_adc.c **** * \sideeffect None
1276:Generated_Source\PSoC4/engine_sensor_adc.c **** *
1277:Generated_Source\PSoC4/engine_sensor_adc.c **** * <b>Code Snippet</b>
1278:Generated_Source\PSoC4/engine_sensor_adc.c **** *  \snippet main.c snippet_engine_sensor_adc_SetSatMask
1279:Generated_Source\PSoC4/engine_sensor_adc.c **** *
1280:Generated_Source\PSoC4/engine_sensor_adc.c **** *******************************************************************************/
1281:Generated_Source\PSoC4/engine_sensor_adc.c **** void engine_sensor_adc_SetSatMask(uint32 satMask)
1282:Generated_Source\PSoC4/engine_sensor_adc.c **** {   
 1439              		.loc 1 1282 0
 1440              		.cfi_startproc
 1441 0000 80B5     		push	{r7, lr}
 1442              		.cfi_def_cfa_offset 8
 1443              		.cfi_offset 7, -8
 1444              		.cfi_offset 14, -4
ARM GAS  C:\Users\fneves\AppData\Local\Temp\ccV5UskS.s 			page 49


 1445 0002 84B0     		sub	sp, sp, #16
 1446              		.cfi_def_cfa_offset 24
 1447 0004 00AF     		add	r7, sp, #0
 1448              		.cfi_def_cfa_register 7
 1449 0006 7860     		str	r0, [r7, #4]
1283:Generated_Source\PSoC4/engine_sensor_adc.c ****     uint32 chanCount = engine_sensor_adc_allConfigs[engine_sensor_adc_currentConfig].numChannels;
 1450              		.loc 1 1283 0
 1451 0008 0C4B     		ldr	r3, .L99
 1452 000a 1A68     		ldr	r2, [r3]
 1453 000c 0C49     		ldr	r1, .L99+4
 1454 000e 131C     		mov	r3, r2
 1455 0010 DB00     		lsl	r3, r3, #3
 1456 0012 9B1A     		sub	r3, r3, r2
 1457 0014 DB00     		lsl	r3, r3, #3
 1458 0016 CB18     		add	r3, r1, r3
 1459 0018 5B68     		ldr	r3, [r3, #4]
 1460 001a FB60     		str	r3, [r7, #12]
1284:Generated_Source\PSoC4/engine_sensor_adc.c ****     satMask &= (uint32)((uint32)(1ul << chanCount) - 1ul);
 1461              		.loc 1 1284 0
 1462 001c FB68     		ldr	r3, [r7, #12]
 1463 001e 0122     		mov	r2, #1
 1464 0020 9A40     		lsl	r2, r2, r3
 1465 0022 131C     		mov	r3, r2
 1466 0024 5A1E     		sub	r2, r3, #1
 1467 0026 7B68     		ldr	r3, [r7, #4]
 1468 0028 1340     		and	r3, r2
 1469 002a 7B60     		str	r3, [r7, #4]
1285:Generated_Source\PSoC4/engine_sensor_adc.c ****     engine_sensor_adc_SAR_SATURATE_INTR_MASK_REG = satMask;    
 1470              		.loc 1 1285 0
 1471 002c 054B     		ldr	r3, .L99+8
 1472 002e 7A68     		ldr	r2, [r7, #4]
 1473 0030 1A60     		str	r2, [r3]
1286:Generated_Source\PSoC4/engine_sensor_adc.c ****     return;
 1474              		.loc 1 1286 0
 1475 0032 C046     		mov	r8, r8
1287:Generated_Source\PSoC4/engine_sensor_adc.c **** }
 1476              		.loc 1 1287 0
 1477 0034 BD46     		mov	sp, r7
 1478 0036 04B0     		add	sp, sp, #16
 1479              		@ sp needed
 1480 0038 80BD     		pop	{r7, pc}
 1481              	.L100:
 1482 003a C046     		.align	2
 1483              	.L99:
 1484 003c 04000000 		.word	engine_sensor_adc_currentConfig
 1485 0040 00000000 		.word	engine_sensor_adc_allConfigs
 1486 0044 28023A40 		.word	1077543464
 1487              		.cfi_endproc
 1488              	.LFE18:
 1489              		.size	engine_sensor_adc_SetSatMask, .-engine_sensor_adc_SetSatMask
 1490              		.section	.text.engine_sensor_adc_SetOffset,"ax",%progbits
 1491              		.align	2
 1492              		.global	engine_sensor_adc_SetOffset
 1493              		.code	16
 1494              		.thumb_func
 1495              		.type	engine_sensor_adc_SetOffset, %function
 1496              	engine_sensor_adc_SetOffset:
ARM GAS  C:\Users\fneves\AppData\Local\Temp\ccV5UskS.s 			page 50


 1497              	.LFB19:
1288:Generated_Source\PSoC4/engine_sensor_adc.c **** 
1289:Generated_Source\PSoC4/engine_sensor_adc.c **** /*******************************************************************************
1290:Generated_Source\PSoC4/engine_sensor_adc.c **** * Function Name: engine_sensor_adc_SetOffset
1291:Generated_Source\PSoC4/engine_sensor_adc.c **** ****************************************************************************//**
1292:Generated_Source\PSoC4/engine_sensor_adc.c **** *
1293:Generated_Source\PSoC4/engine_sensor_adc.c **** * \brief Sets the ADC offset that is used by the functions engine_sensor_adc_CountsTo_uVolts, 
1294:Generated_Source\PSoC4/engine_sensor_adc.c **** * engine_sensor_adc_CountsTo_mVolts, and engine_sensor_adc_CountsTo_Volts.
1295:Generated_Source\PSoC4/engine_sensor_adc.c **** * 
1296:Generated_Source\PSoC4/engine_sensor_adc.c **** * Offset is applied to counts before unit scaling and gain.  All CountsTo_[mV, uV, V]olts()
1297:Generated_Source\PSoC4/engine_sensor_adc.c **** * functions use the following equation:
1298:Generated_Source\PSoC4/engine_sensor_adc.c **** *     V = (Counts/AvgDivider - Offset)*TEN_VOLT/Gain
1299:Generated_Source\PSoC4/engine_sensor_adc.c **** * See CountsTo_Volts() for more about this formula.
1300:Generated_Source\PSoC4/engine_sensor_adc.c **** * 
1301:Generated_Source\PSoC4/engine_sensor_adc.c **** * To set channel 0's offset based on known V_offset_mV, use:
1302:Generated_Source\PSoC4/engine_sensor_adc.c **** *     engine_sensor_adc_SetOffset(0uL, -1 * V_offset_mV * (1uL << (Resolution - 1)) / V_ref_mV);
1303:Generated_Source\PSoC4/engine_sensor_adc.c **** *
1304:Generated_Source\PSoC4/engine_sensor_adc.c **** * \param chan engine_sensor_adc channel number. 
1305:Generated_Source\PSoC4/engine_sensor_adc.c **** * 
1306:Generated_Source\PSoC4/engine_sensor_adc.c **** * \param offset This value is a measured value when the inputs are shorted or 
1307:Generated_Source\PSoC4/engine_sensor_adc.c **** * connected to the same input voltage.
1308:Generated_Source\PSoC4/engine_sensor_adc.c **** *
1309:Generated_Source\PSoC4/engine_sensor_adc.c **** * \return None
1310:Generated_Source\PSoC4/engine_sensor_adc.c **** * 
1311:Generated_Source\PSoC4/engine_sensor_adc.c **** * \sideeffect None
1312:Generated_Source\PSoC4/engine_sensor_adc.c **** *
1313:Generated_Source\PSoC4/engine_sensor_adc.c **** * <b>Code Snippet</b>
1314:Generated_Source\PSoC4/engine_sensor_adc.c **** *  \snippet main.c snippet_engine_sensor_adc_SetOffset
1315:Generated_Source\PSoC4/engine_sensor_adc.c **** *
1316:Generated_Source\PSoC4/engine_sensor_adc.c **** *******************************************************************************/
1317:Generated_Source\PSoC4/engine_sensor_adc.c **** void engine_sensor_adc_SetOffset(uint32 chan, int16 offset)
1318:Generated_Source\PSoC4/engine_sensor_adc.c **** {   
 1498              		.loc 1 1318 0
 1499              		.cfi_startproc
 1500 0000 80B5     		push	{r7, lr}
 1501              		.cfi_def_cfa_offset 8
 1502              		.cfi_offset 7, -8
 1503              		.cfi_offset 14, -4
 1504 0002 82B0     		sub	sp, sp, #8
 1505              		.cfi_def_cfa_offset 16
 1506 0004 00AF     		add	r7, sp, #0
 1507              		.cfi_def_cfa_register 7
 1508 0006 7860     		str	r0, [r7, #4]
 1509 0008 0A1C     		mov	r2, r1
 1510 000a BB1C     		add	r3, r7, #2
 1511 000c 1A80     		strh	r2, [r3]
1319:Generated_Source\PSoC4/engine_sensor_adc.c ****     /* Halt CPU in debug mode if channel is out of valid range */
1320:Generated_Source\PSoC4/engine_sensor_adc.c ****     CYASSERT(chan < engine_sensor_adc_allConfigs[engine_sensor_adc_currentConfig].numChannels);
 1512              		.loc 1 1320 0
 1513 000e 114B     		ldr	r3, .L104
 1514 0010 1A68     		ldr	r2, [r3]
 1515 0012 1149     		ldr	r1, .L104+4
 1516 0014 131C     		mov	r3, r2
 1517 0016 DB00     		lsl	r3, r3, #3
 1518 0018 9B1A     		sub	r3, r3, r2
 1519 001a DB00     		lsl	r3, r3, #3
 1520 001c CB18     		add	r3, r1, r3
ARM GAS  C:\Users\fneves\AppData\Local\Temp\ccV5UskS.s 			page 51


 1521 001e 5A68     		ldr	r2, [r3, #4]
 1522 0020 7B68     		ldr	r3, [r7, #4]
 1523 0022 9A42     		cmp	r2, r3
 1524 0024 02D8     		bhi	.L102
 1525              		.loc 1 1320 0 is_stmt 0 discriminator 1
 1526 0026 0020     		mov	r0, #0
 1527 0028 FFF7FEFF 		bl	CyHalt
 1528              	.L102:
1321:Generated_Source\PSoC4/engine_sensor_adc.c **** 
1322:Generated_Source\PSoC4/engine_sensor_adc.c ****     engine_sensor_adc_offset[engine_sensor_adc_allConfigs[engine_sensor_adc_currentConfig].channelB
 1529              		.loc 1 1322 0 is_stmt 1
 1530 002c 094B     		ldr	r3, .L104
 1531 002e 1A68     		ldr	r2, [r3]
 1532 0030 0949     		ldr	r1, .L104+4
 1533 0032 131C     		mov	r3, r2
 1534 0034 DB00     		lsl	r3, r3, #3
 1535 0036 9B1A     		sub	r3, r3, r2
 1536 0038 DB00     		lsl	r3, r3, #3
 1537 003a 5A58     		ldr	r2, [r3, r1]
 1538 003c 7B68     		ldr	r3, [r7, #4]
 1539 003e D218     		add	r2, r2, r3
 1540 0040 064B     		ldr	r3, .L104+8
 1541 0042 5200     		lsl	r2, r2, #1
 1542 0044 B91C     		add	r1, r7, #2
 1543 0046 0988     		ldrh	r1, [r1]
 1544 0048 D152     		strh	r1, [r2, r3]
1323:Generated_Source\PSoC4/engine_sensor_adc.c ****     return;
 1545              		.loc 1 1323 0
 1546 004a C046     		mov	r8, r8
1324:Generated_Source\PSoC4/engine_sensor_adc.c **** }
 1547              		.loc 1 1324 0
 1548 004c BD46     		mov	sp, r7
 1549 004e 02B0     		add	sp, sp, #8
 1550              		@ sp needed
 1551 0050 80BD     		pop	{r7, pc}
 1552              	.L105:
 1553 0052 C046     		.align	2
 1554              	.L104:
 1555 0054 04000000 		.word	engine_sensor_adc_currentConfig
 1556 0058 00000000 		.word	engine_sensor_adc_allConfigs
 1557 005c 00000000 		.word	engine_sensor_adc_offset
 1558              		.cfi_endproc
 1559              	.LFE19:
 1560              		.size	engine_sensor_adc_SetOffset, .-engine_sensor_adc_SetOffset
 1561              		.section	.text.engine_sensor_adc_SetGain,"ax",%progbits
 1562              		.align	2
 1563              		.global	engine_sensor_adc_SetGain
 1564              		.code	16
 1565              		.thumb_func
 1566              		.type	engine_sensor_adc_SetGain, %function
 1567              	engine_sensor_adc_SetGain:
 1568              	.LFB20:
1325:Generated_Source\PSoC4/engine_sensor_adc.c **** 
1326:Generated_Source\PSoC4/engine_sensor_adc.c **** /*******************************************************************************
1327:Generated_Source\PSoC4/engine_sensor_adc.c **** * Function Name: engine_sensor_adc_SetGain
1328:Generated_Source\PSoC4/engine_sensor_adc.c **** ****************************************************************************//**
1329:Generated_Source\PSoC4/engine_sensor_adc.c **** *
ARM GAS  C:\Users\fneves\AppData\Local\Temp\ccV5UskS.s 			page 52


1330:Generated_Source\PSoC4/engine_sensor_adc.c **** * \brief Sets the engine_sensor_adc gain in counts per 10 volt for the voltage 
1331:Generated_Source\PSoC4/engine_sensor_adc.c **** * conversion functions. This value is set by default by the reference and 
1332:Generated_Source\PSoC4/engine_sensor_adc.c **** * input range settings. Gain is applied after offset and unit scaling.  All 
1333:Generated_Source\PSoC4/engine_sensor_adc.c **** * CountsTo_[mV, uV, V]olts() functions use the following equation:
1334:Generated_Source\PSoC4/engine_sensor_adc.c **** *     V = (Counts/AvgDivider - Offset)*TEN_VOLT/Gain
1335:Generated_Source\PSoC4/engine_sensor_adc.c **** * See CountsTo_Volts() for more about this formula.
1336:Generated_Source\PSoC4/engine_sensor_adc.c **** * 
1337:Generated_Source\PSoC4/engine_sensor_adc.c **** * To set channel 0's gain based on known V_ref_mV, use:
1338:Generated_Source\PSoC4/engine_sensor_adc.c **** *     engine_sensor_adc_SetGain(0uL, 10000 * (1uL << (Resolution - 1)) / V_ref_mV);
1339:Generated_Source\PSoC4/engine_sensor_adc.c **** *  
1340:Generated_Source\PSoC4/engine_sensor_adc.c **** * \param chan engine_sensor_adc channel number.
1341:Generated_Source\PSoC4/engine_sensor_adc.c **** * 
1342:Generated_Source\PSoC4/engine_sensor_adc.c **** * \param adcGain engine_sensor_adc gain in counts per 10 volt.
1343:Generated_Source\PSoC4/engine_sensor_adc.c **** *
1344:Generated_Source\PSoC4/engine_sensor_adc.c **** * \return None
1345:Generated_Source\PSoC4/engine_sensor_adc.c **** * 
1346:Generated_Source\PSoC4/engine_sensor_adc.c **** * \sideeffect None
1347:Generated_Source\PSoC4/engine_sensor_adc.c **** *
1348:Generated_Source\PSoC4/engine_sensor_adc.c **** * <b>Code Snippet</b>
1349:Generated_Source\PSoC4/engine_sensor_adc.c **** *  \snippet main.c snippet_engine_sensor_adc_SetGain
1350:Generated_Source\PSoC4/engine_sensor_adc.c **** *
1351:Generated_Source\PSoC4/engine_sensor_adc.c **** *******************************************************************************/
1352:Generated_Source\PSoC4/engine_sensor_adc.c **** void engine_sensor_adc_SetGain(uint32 chan, int32 adcGain)
1353:Generated_Source\PSoC4/engine_sensor_adc.c **** {   
 1569              		.loc 1 1353 0
 1570              		.cfi_startproc
 1571 0000 80B5     		push	{r7, lr}
 1572              		.cfi_def_cfa_offset 8
 1573              		.cfi_offset 7, -8
 1574              		.cfi_offset 14, -4
 1575 0002 82B0     		sub	sp, sp, #8
 1576              		.cfi_def_cfa_offset 16
 1577 0004 00AF     		add	r7, sp, #0
 1578              		.cfi_def_cfa_register 7
 1579 0006 7860     		str	r0, [r7, #4]
 1580 0008 3960     		str	r1, [r7]
1354:Generated_Source\PSoC4/engine_sensor_adc.c ****     /* Halt CPU in debug mode if channel is out of valid range */
1355:Generated_Source\PSoC4/engine_sensor_adc.c ****     CYASSERT(chan < engine_sensor_adc_allConfigs[engine_sensor_adc_currentConfig].numChannels);
 1581              		.loc 1 1355 0
 1582 000a 104B     		ldr	r3, .L109
 1583 000c 1A68     		ldr	r2, [r3]
 1584 000e 1049     		ldr	r1, .L109+4
 1585 0010 131C     		mov	r3, r2
 1586 0012 DB00     		lsl	r3, r3, #3
 1587 0014 9B1A     		sub	r3, r3, r2
 1588 0016 DB00     		lsl	r3, r3, #3
 1589 0018 CB18     		add	r3, r1, r3
 1590 001a 5A68     		ldr	r2, [r3, #4]
 1591 001c 7B68     		ldr	r3, [r7, #4]
 1592 001e 9A42     		cmp	r2, r3
 1593 0020 02D8     		bhi	.L107
 1594              		.loc 1 1355 0 is_stmt 0 discriminator 1
 1595 0022 0020     		mov	r0, #0
 1596 0024 FFF7FEFF 		bl	CyHalt
 1597              	.L107:
1356:Generated_Source\PSoC4/engine_sensor_adc.c **** 
1357:Generated_Source\PSoC4/engine_sensor_adc.c ****     engine_sensor_adc_countsPer10Volt[engine_sensor_adc_allConfigs[engine_sensor_adc_currentConfig]
ARM GAS  C:\Users\fneves\AppData\Local\Temp\ccV5UskS.s 			page 53


 1598              		.loc 1 1357 0 is_stmt 1
 1599 0028 084B     		ldr	r3, .L109
 1600 002a 1A68     		ldr	r2, [r3]
 1601 002c 0849     		ldr	r1, .L109+4
 1602 002e 131C     		mov	r3, r2
 1603 0030 DB00     		lsl	r3, r3, #3
 1604 0032 9B1A     		sub	r3, r3, r2
 1605 0034 DB00     		lsl	r3, r3, #3
 1606 0036 5A58     		ldr	r2, [r3, r1]
 1607 0038 7B68     		ldr	r3, [r7, #4]
 1608 003a D218     		add	r2, r2, r3
1358:Generated_Source\PSoC4/engine_sensor_adc.c **** 	= adcGain;
 1609              		.loc 1 1358 0
 1610 003c 054B     		ldr	r3, .L109+8
 1611 003e 9200     		lsl	r2, r2, #2
 1612 0040 3968     		ldr	r1, [r7]
 1613 0042 D150     		str	r1, [r2, r3]
1359:Generated_Source\PSoC4/engine_sensor_adc.c ****     return;
 1614              		.loc 1 1359 0
 1615 0044 C046     		mov	r8, r8
1360:Generated_Source\PSoC4/engine_sensor_adc.c **** }
 1616              		.loc 1 1360 0
 1617 0046 BD46     		mov	sp, r7
 1618 0048 02B0     		add	sp, sp, #8
 1619              		@ sp needed
 1620 004a 80BD     		pop	{r7, pc}
 1621              	.L110:
 1622              		.align	2
 1623              	.L109:
 1624 004c 04000000 		.word	engine_sensor_adc_currentConfig
 1625 0050 00000000 		.word	engine_sensor_adc_allConfigs
 1626 0054 00000000 		.word	engine_sensor_adc_countsPer10Volt
 1627              		.cfi_endproc
 1628              	.LFE20:
 1629              		.size	engine_sensor_adc_SetGain, .-engine_sensor_adc_SetGain
 1630              		.global	__aeabi_uidiv
 1631              		.global	__aeabi_idiv
 1632              		.section	.text.engine_sensor_adc_RawCounts2Counts,"ax",%progbits
 1633              		.align	2
 1634              		.global	engine_sensor_adc_RawCounts2Counts
 1635              		.code	16
 1636              		.thumb_func
 1637              		.type	engine_sensor_adc_RawCounts2Counts, %function
 1638              	engine_sensor_adc_RawCounts2Counts:
 1639              	.LFB21:
1361:Generated_Source\PSoC4/engine_sensor_adc.c **** /*******************************************************************************
1362:Generated_Source\PSoC4/engine_sensor_adc.c **** * Function Name: engine_sensor_adc_RawCounts2Counts
1363:Generated_Source\PSoC4/engine_sensor_adc.c **** ****************************************************************************//**
1364:Generated_Source\PSoC4/engine_sensor_adc.c **** *
1365:Generated_Source\PSoC4/engine_sensor_adc.c **** * \brief Converts the output of the SAR to an idealized count value.
1366:Generated_Source\PSoC4/engine_sensor_adc.c **** *
1367:Generated_Source\PSoC4/engine_sensor_adc.c **** * Divides by averaging amount, if needed, and subtracts offset.
1368:Generated_Source\PSoC4/engine_sensor_adc.c **** *
1369:Generated_Source\PSoC4/engine_sensor_adc.c **** * \param chan engine_sensor_adc channel number.   
1370:Generated_Source\PSoC4/engine_sensor_adc.c **** *
1371:Generated_Source\PSoC4/engine_sensor_adc.c **** * \param adcCounts Result from the engine_sensor_adc conversion.
1372:Generated_Source\PSoC4/engine_sensor_adc.c **** *
ARM GAS  C:\Users\fneves\AppData\Local\Temp\ccV5UskS.s 			page 54


1373:Generated_Source\PSoC4/engine_sensor_adc.c **** * \return Averaged and offset counts.
1374:Generated_Source\PSoC4/engine_sensor_adc.c **** * 
1375:Generated_Source\PSoC4/engine_sensor_adc.c **** * \sideeffect None
1376:Generated_Source\PSoC4/engine_sensor_adc.c **** *******************************************************************************/
1377:Generated_Source\PSoC4/engine_sensor_adc.c **** int16 engine_sensor_adc_RawCounts2Counts(uint32 chan, int16 adcCounts)
1378:Generated_Source\PSoC4/engine_sensor_adc.c **** {
 1640              		.loc 1 1378 0
 1641              		.cfi_startproc
 1642 0000 80B5     		push	{r7, lr}
 1643              		.cfi_def_cfa_offset 8
 1644              		.cfi_offset 7, -8
 1645              		.cfi_offset 14, -4
 1646 0002 86B0     		sub	sp, sp, #24
 1647              		.cfi_def_cfa_offset 32
 1648 0004 00AF     		add	r7, sp, #0
 1649              		.cfi_def_cfa_register 7
 1650 0006 7860     		str	r0, [r7, #4]
 1651 0008 0A1C     		mov	r2, r1
 1652 000a BB1C     		add	r3, r7, #2
 1653 000c 1A80     		strh	r2, [r3]
1379:Generated_Source\PSoC4/engine_sensor_adc.c ****     uint32 temp;
1380:Generated_Source\PSoC4/engine_sensor_adc.c **** 	uint32 averageAdcSamplesDiv;
1381:Generated_Source\PSoC4/engine_sensor_adc.c **** 	uint32 rawChannel;
1382:Generated_Source\PSoC4/engine_sensor_adc.c **** 	rawChannel = engine_sensor_adc_allConfigs[engine_sensor_adc_currentConfig].channelBase + chan;
 1654              		.loc 1 1382 0
 1655 000e 434B     		ldr	r3, .L117
 1656 0010 1A68     		ldr	r2, [r3]
 1657 0012 4349     		ldr	r1, .L117+4
 1658 0014 131C     		mov	r3, r2
 1659 0016 DB00     		lsl	r3, r3, #3
 1660 0018 9B1A     		sub	r3, r3, r2
 1661 001a DB00     		lsl	r3, r3, #3
 1662 001c 5A58     		ldr	r2, [r3, r1]
 1663 001e 7B68     		ldr	r3, [r7, #4]
 1664 0020 D318     		add	r3, r2, r3
 1665 0022 3B61     		str	r3, [r7, #16]
1383:Generated_Source\PSoC4/engine_sensor_adc.c **** 	
1384:Generated_Source\PSoC4/engine_sensor_adc.c ****     /* Halt CPU in debug mode if channel is out of valid range */
1385:Generated_Source\PSoC4/engine_sensor_adc.c ****     CYASSERT(chan < engine_sensor_adc_allConfigs[engine_sensor_adc_currentConfig].numChannels);
 1666              		.loc 1 1385 0
 1667 0024 3D4B     		ldr	r3, .L117
 1668 0026 1A68     		ldr	r2, [r3]
 1669 0028 3D49     		ldr	r1, .L117+4
 1670 002a 131C     		mov	r3, r2
 1671 002c DB00     		lsl	r3, r3, #3
 1672 002e 9B1A     		sub	r3, r3, r2
 1673 0030 DB00     		lsl	r3, r3, #3
 1674 0032 CB18     		add	r3, r1, r3
 1675 0034 5A68     		ldr	r2, [r3, #4]
 1676 0036 7B68     		ldr	r3, [r7, #4]
 1677 0038 9A42     		cmp	r2, r3
 1678 003a 02D8     		bhi	.L112
 1679              		.loc 1 1385 0 is_stmt 0 discriminator 1
 1680 003c 0020     		mov	r0, #0
 1681 003e FFF7FEFF 		bl	CyHalt
 1682              	.L112:
1386:Generated_Source\PSoC4/engine_sensor_adc.c **** 
ARM GAS  C:\Users\fneves\AppData\Local\Temp\ccV5UskS.s 			page 55


1387:Generated_Source\PSoC4/engine_sensor_adc.c ****     /* Divide the adcCount when accumulate averaging mode selected */
1388:Generated_Source\PSoC4/engine_sensor_adc.c ****     /* If Average mode != fixed */
1389:Generated_Source\PSoC4/engine_sensor_adc.c **** 	if((engine_sensor_adc_allConfigs[engine_sensor_adc_currentConfig].sampleCtrl 
 1683              		.loc 1 1389 0 is_stmt 1
 1684 0042 364B     		ldr	r3, .L117
 1685 0044 1A68     		ldr	r2, [r3]
 1686 0046 3649     		ldr	r1, .L117+4
 1687 0048 131C     		mov	r3, r2
 1688 004a DB00     		lsl	r3, r3, #3
 1689 004c 9B1A     		sub	r3, r3, r2
 1690 004e DB00     		lsl	r3, r3, #3
 1691 0050 CB18     		add	r3, r1, r3
 1692 0052 0833     		add	r3, r3, #8
 1693 0054 5B68     		ldr	r3, [r3, #4]
1390:Generated_Source\PSoC4/engine_sensor_adc.c **** 		& engine_sensor_adc_SAR_SAMPLE_CTRL_AVG_SHIFT_MSK) 
 1694              		.loc 1 1390 0
 1695 0056 8022     		mov	r2, #128
 1696 0058 1340     		and	r3, r2
1389:Generated_Source\PSoC4/engine_sensor_adc.c **** 		& engine_sensor_adc_SAR_SAMPLE_CTRL_AVG_SHIFT_MSK) 
 1697              		.loc 1 1389 0
 1698 005a 4CD1     		bne	.L113
1391:Generated_Source\PSoC4/engine_sensor_adc.c **** 		!= engine_sensor_adc_SAR_SAMPLE_CTRL_AVG_SHIFT_MSK)
1392:Generated_Source\PSoC4/engine_sensor_adc.c **** 	{
1393:Generated_Source\PSoC4/engine_sensor_adc.c ****         /* If Channel uses averaging */
1394:Generated_Source\PSoC4/engine_sensor_adc.c ****         if((engine_sensor_adc_channelsConfig[rawChannel] & engine_sensor_adc_SAR_CHAN_CONFIG_AVG_EN
 1699              		.loc 1 1394 0
 1700 005c 8023     		mov	r3, #128
 1701 005e 5A00     		lsl	r2, r3, #1
 1702 0060 8023     		mov	r3, #128
 1703 0062 DB00     		lsl	r3, r3, #3
 1704 0064 1340     		and	r3, r2
 1705 0066 46D0     		beq	.L113
1395:Generated_Source\PSoC4/engine_sensor_adc.c ****         {
1396:Generated_Source\PSoC4/engine_sensor_adc.c ****             /* Divide by 2^(AVG_CNT + 1) */
1397:Generated_Source\PSoC4/engine_sensor_adc.c **** 			averageAdcSamplesDiv = ((engine_sensor_adc_allConfigs[engine_sensor_adc_currentConfig].sampleCtr
 1706              		.loc 1 1397 0
 1707 0068 2C4B     		ldr	r3, .L117
 1708 006a 1A68     		ldr	r2, [r3]
 1709 006c 2C49     		ldr	r1, .L117+4
 1710 006e 131C     		mov	r3, r2
 1711 0070 DB00     		lsl	r3, r3, #3
 1712 0072 9B1A     		sub	r3, r3, r2
 1713 0074 DB00     		lsl	r3, r3, #3
 1714 0076 CB18     		add	r3, r1, r3
 1715 0078 0833     		add	r3, r3, #8
 1716 007a 5B68     		ldr	r3, [r3, #4]
1398:Generated_Source\PSoC4/engine_sensor_adc.c **** 				& engine_sensor_adc_SAR_SAMPLE_CTRL_AVG_CNT_MSK) 
 1717              		.loc 1 1398 0
 1718 007c 7022     		mov	r2, #112
 1719 007e 1340     		and	r3, r2
1397:Generated_Source\PSoC4/engine_sensor_adc.c **** 				& engine_sensor_adc_SAR_SAMPLE_CTRL_AVG_CNT_MSK) 
 1720              		.loc 1 1397 0
 1721 0080 1B09     		lsr	r3, r3, #4
 1722 0082 7B61     		str	r3, [r7, #20]
1399:Generated_Source\PSoC4/engine_sensor_adc.c **** 				>> engine_sensor_adc_SAR_SAMPLE_CTRL_AVG_CNT_SHFT);
1400:Generated_Source\PSoC4/engine_sensor_adc.c ****             averageAdcSamplesDiv = (1uL << (averageAdcSamplesDiv + 1uL));
 1723              		.loc 1 1400 0
ARM GAS  C:\Users\fneves\AppData\Local\Temp\ccV5UskS.s 			page 56


 1724 0084 7B69     		ldr	r3, [r7, #20]
 1725 0086 0133     		add	r3, r3, #1
 1726 0088 1A1C     		mov	r2, r3
 1727 008a 0123     		mov	r3, #1
 1728 008c 9340     		lsl	r3, r3, r2
 1729 008e 7B61     		str	r3, [r7, #20]
1401:Generated_Source\PSoC4/engine_sensor_adc.c ****                         /* When it's "Sequential, Sum", divider limit is 16 */
1402:Generated_Source\PSoC4/engine_sensor_adc.c ****             /* If Mode is ACCUNDUMP */
1403:Generated_Source\PSoC4/engine_sensor_adc.c ****             if((engine_sensor_adc_allConfigs[engine_sensor_adc_currentConfig].sampleCtrl 
 1730              		.loc 1 1403 0
 1731 0090 224B     		ldr	r3, .L117
 1732 0092 1A68     		ldr	r2, [r3]
 1733 0094 2249     		ldr	r1, .L117+4
 1734 0096 131C     		mov	r3, r2
 1735 0098 DB00     		lsl	r3, r3, #3
 1736 009a 9B1A     		sub	r3, r3, r2
 1737 009c DB00     		lsl	r3, r3, #3
 1738 009e CB18     		add	r3, r1, r3
 1739 00a0 0833     		add	r3, r3, #8
 1740 00a2 5A68     		ldr	r2, [r3, #4]
1404:Generated_Source\PSoC4/engine_sensor_adc.c ****     			& engine_sensor_adc_SAR_SAMPLE_CTRL_AVG_MODE_MSK) 
 1741              		.loc 1 1404 0
 1742 00a4 8023     		mov	r3, #128
 1743 00a6 5B00     		lsl	r3, r3, #1
 1744 00a8 1340     		and	r3, r2
1403:Generated_Source\PSoC4/engine_sensor_adc.c ****     			& engine_sensor_adc_SAR_SAMPLE_CTRL_AVG_MODE_MSK) 
 1745              		.loc 1 1403 0
 1746 00aa 04D1     		bne	.L114
1405:Generated_Source\PSoC4/engine_sensor_adc.c ****     			!= engine_sensor_adc_SAR_SAMPLE_CTRL_AVG_MODE_MSK)
1406:Generated_Source\PSoC4/engine_sensor_adc.c ****     		{
1407:Generated_Source\PSoC4/engine_sensor_adc.c ****                 if (averageAdcSamplesDiv > 16uL)
 1747              		.loc 1 1407 0
 1748 00ac 7B69     		ldr	r3, [r7, #20]
 1749 00ae 102B     		cmp	r3, #16
 1750 00b0 01D9     		bls	.L114
1408:Generated_Source\PSoC4/engine_sensor_adc.c ****                 {
1409:Generated_Source\PSoC4/engine_sensor_adc.c ****                     averageAdcSamplesDiv = 16uL;
 1751              		.loc 1 1409 0
 1752 00b2 1023     		mov	r3, #16
 1753 00b4 7B61     		str	r3, [r7, #20]
 1754              	.L114:
1410:Generated_Source\PSoC4/engine_sensor_adc.c ****                 }
1411:Generated_Source\PSoC4/engine_sensor_adc.c ****             }
1412:Generated_Source\PSoC4/engine_sensor_adc.c ****             /* If unsigned format, prevent sign extension */
1413:Generated_Source\PSoC4/engine_sensor_adc.c ****             if(0 == engine_sensor_adc_IsChannelSigned(chan))
 1755              		.loc 1 1413 0
 1756 00b6 7B68     		ldr	r3, [r7, #4]
 1757 00b8 181C     		mov	r0, r3
 1758 00ba FFF7FEFF 		bl	engine_sensor_adc_IsChannelSigned
 1759 00be 031E     		sub	r3, r0, #0
 1760 00c0 0BD1     		bne	.L115
1414:Generated_Source\PSoC4/engine_sensor_adc.c ****             {
1415:Generated_Source\PSoC4/engine_sensor_adc.c **** 				temp = ((uint16) adcCounts / averageAdcSamplesDiv);
 1761              		.loc 1 1415 0
 1762 00c2 BB1C     		add	r3, r7, #2
 1763 00c4 1B88     		ldrh	r3, [r3]
 1764 00c6 181C     		mov	r0, r3
ARM GAS  C:\Users\fneves\AppData\Local\Temp\ccV5UskS.s 			page 57


 1765 00c8 7969     		ldr	r1, [r7, #20]
 1766 00ca FFF7FEFF 		bl	__aeabi_uidiv
 1767 00ce 031C     		mov	r3, r0
 1768 00d0 FB60     		str	r3, [r7, #12]
1416:Generated_Source\PSoC4/engine_sensor_adc.c ****                 adcCounts = (int16) temp;
 1769              		.loc 1 1416 0
 1770 00d2 BB1C     		add	r3, r7, #2
 1771 00d4 FA68     		ldr	r2, [r7, #12]
 1772 00d6 1A80     		strh	r2, [r3]
 1773 00d8 0DE0     		b	.L113
 1774              	.L115:
1417:Generated_Source\PSoC4/engine_sensor_adc.c ****             }
1418:Generated_Source\PSoC4/engine_sensor_adc.c ****             else
1419:Generated_Source\PSoC4/engine_sensor_adc.c ****             {
1420:Generated_Source\PSoC4/engine_sensor_adc.c ****                 adcCounts /= (int16) averageAdcSamplesDiv;
 1775              		.loc 1 1420 0
 1776 00da BB1C     		add	r3, r7, #2
 1777 00dc 0022     		mov	r2, #0
 1778 00de 9A5E     		ldrsh	r2, [r3, r2]
 1779 00e0 7B69     		ldr	r3, [r7, #20]
 1780 00e2 9BB2     		uxth	r3, r3
 1781 00e4 1BB2     		sxth	r3, r3
 1782 00e6 101C     		mov	r0, r2
 1783 00e8 191C     		mov	r1, r3
 1784 00ea FFF7FEFF 		bl	__aeabi_idiv
 1785 00ee 031C     		mov	r3, r0
 1786 00f0 1A1C     		mov	r2, r3
 1787 00f2 BB1C     		add	r3, r7, #2
 1788 00f4 1A80     		strh	r2, [r3]
 1789              	.L113:
1421:Generated_Source\PSoC4/engine_sensor_adc.c ****             }
1422:Generated_Source\PSoC4/engine_sensor_adc.c ****         }
1423:Generated_Source\PSoC4/engine_sensor_adc.c ****     }
1424:Generated_Source\PSoC4/engine_sensor_adc.c ****     /* Subtract ADC offset */
1425:Generated_Source\PSoC4/engine_sensor_adc.c ****     adcCounts -= engine_sensor_adc_offset[rawChannel];
 1790              		.loc 1 1425 0
 1791 00f6 0B4B     		ldr	r3, .L117+8
 1792 00f8 3A69     		ldr	r2, [r7, #16]
 1793 00fa 5200     		lsl	r2, r2, #1
 1794 00fc D35A     		ldrh	r3, [r2, r3]
 1795 00fe 99B2     		uxth	r1, r3
 1796 0100 BB1C     		add	r3, r7, #2
 1797 0102 1A88     		ldrh	r2, [r3]
 1798 0104 8BB2     		uxth	r3, r1
 1799 0106 D31A     		sub	r3, r2, r3
 1800 0108 9AB2     		uxth	r2, r3
 1801 010a BB1C     		add	r3, r7, #2
 1802 010c 1A80     		strh	r2, [r3]
1426:Generated_Source\PSoC4/engine_sensor_adc.c ****     return adcCounts;
 1803              		.loc 1 1426 0
 1804 010e BB1C     		add	r3, r7, #2
 1805 0110 1B88     		ldrh	r3, [r3]
 1806 0112 1BB2     		sxth	r3, r3
1427:Generated_Source\PSoC4/engine_sensor_adc.c **** }
 1807              		.loc 1 1427 0
 1808 0114 181C     		mov	r0, r3
 1809 0116 BD46     		mov	sp, r7
ARM GAS  C:\Users\fneves\AppData\Local\Temp\ccV5UskS.s 			page 58


 1810 0118 06B0     		add	sp, sp, #24
 1811              		@ sp needed
 1812 011a 80BD     		pop	{r7, pc}
 1813              	.L118:
 1814              		.align	2
 1815              	.L117:
 1816 011c 04000000 		.word	engine_sensor_adc_currentConfig
 1817 0120 00000000 		.word	engine_sensor_adc_allConfigs
 1818 0124 00000000 		.word	engine_sensor_adc_offset
 1819              		.cfi_endproc
 1820              	.LFE21:
 1821              		.size	engine_sensor_adc_RawCounts2Counts, .-engine_sensor_adc_RawCounts2Counts
 1822              		.global	__aeabi_i2f
 1823              		.global	__aeabi_fmul
 1824              		.global	__aeabi_fdiv
 1825              		.section	.text.engine_sensor_adc_CountsTo_Volts,"ax",%progbits
 1826              		.align	2
 1827              		.global	engine_sensor_adc_CountsTo_Volts
 1828              		.code	16
 1829              		.thumb_func
 1830              		.type	engine_sensor_adc_CountsTo_Volts, %function
 1831              	engine_sensor_adc_CountsTo_Volts:
 1832              	.LFB22:
1428:Generated_Source\PSoC4/engine_sensor_adc.c **** 
1429:Generated_Source\PSoC4/engine_sensor_adc.c **** /*******************************************************************************
1430:Generated_Source\PSoC4/engine_sensor_adc.c **** * Function Name: engine_sensor_adc_CountsTo_Volts
1431:Generated_Source\PSoC4/engine_sensor_adc.c **** ****************************************************************************//**
1432:Generated_Source\PSoC4/engine_sensor_adc.c **** *
1433:Generated_Source\PSoC4/engine_sensor_adc.c **** * \brief Converts the ADC output to Volts as a float32. For example, if the ADC 
1434:Generated_Source\PSoC4/engine_sensor_adc.c **** * measured 0.534 volts, the return value would be 0.534.
1435:Generated_Source\PSoC4/engine_sensor_adc.c **** * The calculation of voltage depends on the contents of engine_sensor_adc_offset[],
1436:Generated_Source\PSoC4/engine_sensor_adc.c **** * engine_sensor_adc_countsPer10Volt[], and other parameters.  The equation used is:
1437:Generated_Source\PSoC4/engine_sensor_adc.c **** * 
1438:Generated_Source\PSoC4/engine_sensor_adc.c **** *     V = (Counts/AvgDivider - Offset)*TEN_VOLT/Gain
1439:Generated_Source\PSoC4/engine_sensor_adc.c **** * -Counts = Raw Counts from SAR register
1440:Generated_Source\PSoC4/engine_sensor_adc.c **** * -AvgDivider = divider based on averaging mode
1441:Generated_Source\PSoC4/engine_sensor_adc.c **** *     -Sequential, Sum: AvgDivider = number averaged
1442:Generated_Source\PSoC4/engine_sensor_adc.c **** *         Note: The divider should be a maximum of 16. If using more averages, 
1443:Generated_Source\PSoC4/engine_sensor_adc.c **** *         pre-scale Counts by (number averaged / 16)
1444:Generated_Source\PSoC4/engine_sensor_adc.c **** *     -Interleaved, Sum: AvgDivider = number averaged
1445:Generated_Source\PSoC4/engine_sensor_adc.c **** *     -Sequential, Fixed: AvgDivider = 1
1446:Generated_Source\PSoC4/engine_sensor_adc.c **** * -Offset = engine_sensor_adc_offset[]
1447:Generated_Source\PSoC4/engine_sensor_adc.c **** * -TEN_VOLT = 10V constant and unit scalar.
1448:Generated_Source\PSoC4/engine_sensor_adc.c **** * -Gain = engine_sensor_adc_countsPer10Volt[]
1449:Generated_Source\PSoC4/engine_sensor_adc.c **** * 
1450:Generated_Source\PSoC4/engine_sensor_adc.c **** * When the Vref is based on Vdda, the value used for Vdda is set for the project
1451:Generated_Source\PSoC4/engine_sensor_adc.c **** * in the System tab of the DWR.
1452:Generated_Source\PSoC4/engine_sensor_adc.c **** *
1453:Generated_Source\PSoC4/engine_sensor_adc.c **** * \param chan engine_sensor_adc channel number.   
1454:Generated_Source\PSoC4/engine_sensor_adc.c **** *
1455:Generated_Source\PSoC4/engine_sensor_adc.c **** * \param adcCounts Result from the engine_sensor_adc conversion.
1456:Generated_Source\PSoC4/engine_sensor_adc.c **** *
1457:Generated_Source\PSoC4/engine_sensor_adc.c **** * \return Result in Volts.
1458:Generated_Source\PSoC4/engine_sensor_adc.c **** * 
1459:Generated_Source\PSoC4/engine_sensor_adc.c **** * \sideeffect None
1460:Generated_Source\PSoC4/engine_sensor_adc.c **** *
1461:Generated_Source\PSoC4/engine_sensor_adc.c **** * <b>Code Snippet</b>
ARM GAS  C:\Users\fneves\AppData\Local\Temp\ccV5UskS.s 			page 59


1462:Generated_Source\PSoC4/engine_sensor_adc.c **** *  \snippet main.c snippet_engine_sensor_adc_CountsTo_Volts
1463:Generated_Source\PSoC4/engine_sensor_adc.c **** *
1464:Generated_Source\PSoC4/engine_sensor_adc.c **** *******************************************************************************/
1465:Generated_Source\PSoC4/engine_sensor_adc.c **** float32 engine_sensor_adc_CountsTo_Volts(uint32 chan, int16 adcCounts)
1466:Generated_Source\PSoC4/engine_sensor_adc.c **** {   
 1833              		.loc 1 1466 0
 1834              		.cfi_startproc
 1835 0000 90B5     		push	{r4, r7, lr}
 1836              		.cfi_def_cfa_offset 12
 1837              		.cfi_offset 4, -12
 1838              		.cfi_offset 7, -8
 1839              		.cfi_offset 14, -4
 1840 0002 85B0     		sub	sp, sp, #20
 1841              		.cfi_def_cfa_offset 32
 1842 0004 00AF     		add	r7, sp, #0
 1843              		.cfi_def_cfa_register 7
 1844 0006 7860     		str	r0, [r7, #4]
 1845 0008 0A1C     		mov	r2, r1
 1846 000a BB1C     		add	r3, r7, #2
 1847 000c 1A80     		strh	r2, [r3]
1467:Generated_Source\PSoC4/engine_sensor_adc.c ****     float32 result_Volts = 0.0f;
 1848              		.loc 1 1467 0
 1849 000e 0023     		mov	r3, #0
 1850 0010 FB60     		str	r3, [r7, #12]
1468:Generated_Source\PSoC4/engine_sensor_adc.c **** 	uint32 rawChannel;
1469:Generated_Source\PSoC4/engine_sensor_adc.c **** 	rawChannel = engine_sensor_adc_allConfigs[engine_sensor_adc_currentConfig].channelBase + chan;
 1851              		.loc 1 1469 0
 1852 0012 214B     		ldr	r3, .L122
 1853 0014 1A68     		ldr	r2, [r3]
 1854 0016 2149     		ldr	r1, .L122+4
 1855 0018 131C     		mov	r3, r2
 1856 001a DB00     		lsl	r3, r3, #3
 1857 001c 9B1A     		sub	r3, r3, r2
 1858 001e DB00     		lsl	r3, r3, #3
 1859 0020 5A58     		ldr	r2, [r3, r1]
 1860 0022 7B68     		ldr	r3, [r7, #4]
 1861 0024 D318     		add	r3, r2, r3
 1862 0026 BB60     		str	r3, [r7, #8]
1470:Generated_Source\PSoC4/engine_sensor_adc.c **** 	
1471:Generated_Source\PSoC4/engine_sensor_adc.c **** 	if((engine_sensor_adc_allConfigs[engine_sensor_adc_currentConfig].sampleCtrl 
 1863              		.loc 1 1471 0
 1864 0028 1B4B     		ldr	r3, .L122
 1865 002a 1A68     		ldr	r2, [r3]
 1866 002c 1B49     		ldr	r1, .L122+4
 1867 002e 131C     		mov	r3, r2
 1868 0030 DB00     		lsl	r3, r3, #3
 1869 0032 9B1A     		sub	r3, r3, r2
 1870 0034 DB00     		lsl	r3, r3, #3
 1871 0036 CB18     		add	r3, r1, r3
 1872 0038 0833     		add	r3, r3, #8
 1873 003a 5B68     		ldr	r3, [r3, #4]
1472:Generated_Source\PSoC4/engine_sensor_adc.c **** 		& engine_sensor_adc_SAR_SAMPLE_CTRL_LEFT_ALIGN_MSK) 
 1874              		.loc 1 1472 0
 1875 003c 0222     		mov	r2, #2
 1876 003e 1340     		and	r3, r2
1471:Generated_Source\PSoC4/engine_sensor_adc.c **** 		& engine_sensor_adc_SAR_SAMPLE_CTRL_LEFT_ALIGN_MSK) 
 1877              		.loc 1 1471 0
ARM GAS  C:\Users\fneves\AppData\Local\Temp\ccV5UskS.s 			page 60


 1878 0040 25D1     		bne	.L120
1473:Generated_Source\PSoC4/engine_sensor_adc.c **** 		!= engine_sensor_adc_SAR_SAMPLE_CTRL_LEFT_ALIGN_MSK)
1474:Generated_Source\PSoC4/engine_sensor_adc.c **** 	{
1475:Generated_Source\PSoC4/engine_sensor_adc.c ****         adcCounts = engine_sensor_adc_RawCounts2Counts(chan, adcCounts);
 1879              		.loc 1 1475 0
 1880 0042 BC1C     		add	r4, r7, #2
 1881 0044 7A68     		ldr	r2, [r7, #4]
 1882 0046 BB1C     		add	r3, r7, #2
 1883 0048 0021     		mov	r1, #0
 1884 004a 5B5E     		ldrsh	r3, [r3, r1]
 1885 004c 101C     		mov	r0, r2
 1886 004e 191C     		mov	r1, r3
 1887 0050 FFF7FEFF 		bl	engine_sensor_adc_RawCounts2Counts
 1888 0054 031C     		mov	r3, r0
 1889 0056 2380     		strh	r3, [r4]
1476:Generated_Source\PSoC4/engine_sensor_adc.c **** 
1477:Generated_Source\PSoC4/engine_sensor_adc.c ****         result_Volts = ((float32)adcCounts * engine_sensor_adc_10V_COUNTS) 
 1890              		.loc 1 1477 0
 1891 0058 BB1C     		add	r3, r7, #2
 1892 005a 0022     		mov	r2, #0
 1893 005c 9B5E     		ldrsh	r3, [r3, r2]
 1894 005e 181C     		mov	r0, r3
 1895 0060 FFF7FEFF 		bl	__aeabi_i2f
 1896 0064 031C     		add	r3, r0, #0
 1897 0066 181C     		add	r0, r3, #0
 1898 0068 0D49     		ldr	r1, .L122+8
 1899 006a FFF7FEFF 		bl	__aeabi_fmul
 1900 006e 031C     		add	r3, r0, #0
 1901 0070 1C1C     		add	r4, r3, #0
1478:Generated_Source\PSoC4/engine_sensor_adc.c **** 			/ (float32)engine_sensor_adc_countsPer10Volt[rawChannel];
 1902              		.loc 1 1478 0
 1903 0072 0C4B     		ldr	r3, .L122+12
 1904 0074 BA68     		ldr	r2, [r7, #8]
 1905 0076 9200     		lsl	r2, r2, #2
 1906 0078 D358     		ldr	r3, [r2, r3]
 1907 007a 181C     		mov	r0, r3
 1908 007c FFF7FEFF 		bl	__aeabi_i2f
 1909 0080 031C     		add	r3, r0, #0
1477:Generated_Source\PSoC4/engine_sensor_adc.c **** 			/ (float32)engine_sensor_adc_countsPer10Volt[rawChannel];
 1910              		.loc 1 1477 0
 1911 0082 201C     		add	r0, r4, #0
 1912 0084 191C     		add	r1, r3, #0
 1913 0086 FFF7FEFF 		bl	__aeabi_fdiv
 1914 008a 031C     		add	r3, r0, #0
 1915 008c FB60     		str	r3, [r7, #12]
 1916              	.L120:
1479:Generated_Source\PSoC4/engine_sensor_adc.c **** 	}
1480:Generated_Source\PSoC4/engine_sensor_adc.c **** 	return result_Volts;
 1917              		.loc 1 1480 0
 1918 008e FB68     		ldr	r3, [r7, #12]
1481:Generated_Source\PSoC4/engine_sensor_adc.c **** }
 1919              		.loc 1 1481 0
 1920 0090 181C     		add	r0, r3, #0
 1921 0092 BD46     		mov	sp, r7
 1922 0094 05B0     		add	sp, sp, #20
 1923              		@ sp needed
 1924 0096 90BD     		pop	{r4, r7, pc}
ARM GAS  C:\Users\fneves\AppData\Local\Temp\ccV5UskS.s 			page 61


 1925              	.L123:
 1926              		.align	2
 1927              	.L122:
 1928 0098 04000000 		.word	engine_sensor_adc_currentConfig
 1929 009c 00000000 		.word	engine_sensor_adc_allConfigs
 1930 00a0 00002041 		.word	1092616192
 1931 00a4 00000000 		.word	engine_sensor_adc_countsPer10Volt
 1932              		.cfi_endproc
 1933              	.LFE22:
 1934              		.size	engine_sensor_adc_CountsTo_Volts, .-engine_sensor_adc_CountsTo_Volts
 1935              		.section	.text.engine_sensor_adc_CountsTo_mVolts,"ax",%progbits
 1936              		.align	2
 1937              		.global	engine_sensor_adc_CountsTo_mVolts
 1938              		.code	16
 1939              		.thumb_func
 1940              		.type	engine_sensor_adc_CountsTo_mVolts, %function
 1941              	engine_sensor_adc_CountsTo_mVolts:
 1942              	.LFB23:
1482:Generated_Source\PSoC4/engine_sensor_adc.c **** 
1483:Generated_Source\PSoC4/engine_sensor_adc.c **** /*******************************************************************************
1484:Generated_Source\PSoC4/engine_sensor_adc.c **** * Function Name: engine_sensor_adc_CountsTo_mVolts
1485:Generated_Source\PSoC4/engine_sensor_adc.c **** ****************************************************************************//**
1486:Generated_Source\PSoC4/engine_sensor_adc.c **** *
1487:Generated_Source\PSoC4/engine_sensor_adc.c **** * \brief Converts the ADC output to millivolts as an int16. For example, if the ADC 
1488:Generated_Source\PSoC4/engine_sensor_adc.c **** * measured 0.534 volts, the return value would be 534.
1489:Generated_Source\PSoC4/engine_sensor_adc.c **** * The calculation of voltage depends on the contents of engine_sensor_adc_offset[],
1490:Generated_Source\PSoC4/engine_sensor_adc.c **** * engine_sensor_adc_countsPer10Volt[], and other parameters.  The equation used is:
1491:Generated_Source\PSoC4/engine_sensor_adc.c **** * 
1492:Generated_Source\PSoC4/engine_sensor_adc.c **** *     V = (Counts/AvgDivider - Offset)*TEN_VOLT/Gain
1493:Generated_Source\PSoC4/engine_sensor_adc.c **** * -Counts = Raw Counts from SAR register
1494:Generated_Source\PSoC4/engine_sensor_adc.c **** * -AvgDivider = divider based on averaging mode
1495:Generated_Source\PSoC4/engine_sensor_adc.c **** *     -Sequential, Sum: AvgDivider = number averaged
1496:Generated_Source\PSoC4/engine_sensor_adc.c **** *         Note: The divider should be a maximum of 16. If using more averages, 
1497:Generated_Source\PSoC4/engine_sensor_adc.c **** *         pre-scale Counts by (number averaged / 16)
1498:Generated_Source\PSoC4/engine_sensor_adc.c **** *     -Interleaved, Sum: AvgDivider = number averaged
1499:Generated_Source\PSoC4/engine_sensor_adc.c **** *     -Sequential, Fixed: AvgDivider = 1
1500:Generated_Source\PSoC4/engine_sensor_adc.c **** * -Offset = engine_sensor_adc_offset[]
1501:Generated_Source\PSoC4/engine_sensor_adc.c **** * -TEN_VOLT = 10V constant and unit scalar.
1502:Generated_Source\PSoC4/engine_sensor_adc.c **** * -Gain = engine_sensor_adc_countsPer10Volt[]
1503:Generated_Source\PSoC4/engine_sensor_adc.c **** * 
1504:Generated_Source\PSoC4/engine_sensor_adc.c **** * When the Vref is based on Vdda, the value used for Vdda is set for the project
1505:Generated_Source\PSoC4/engine_sensor_adc.c **** * in the System tab of the DWR.
1506:Generated_Source\PSoC4/engine_sensor_adc.c **** *
1507:Generated_Source\PSoC4/engine_sensor_adc.c **** * \param chan engine_sensor_adc channel number. 
1508:Generated_Source\PSoC4/engine_sensor_adc.c **** *
1509:Generated_Source\PSoC4/engine_sensor_adc.c **** * \param adcCounts Result from the engine_sensor_adc conversion.
1510:Generated_Source\PSoC4/engine_sensor_adc.c **** * 
1511:Generated_Source\PSoC4/engine_sensor_adc.c **** * \return Result in mV.
1512:Generated_Source\PSoC4/engine_sensor_adc.c **** * 
1513:Generated_Source\PSoC4/engine_sensor_adc.c **** * \sideeffect None.
1514:Generated_Source\PSoC4/engine_sensor_adc.c **** *
1515:Generated_Source\PSoC4/engine_sensor_adc.c **** * <b>Code Snippet</b>
1516:Generated_Source\PSoC4/engine_sensor_adc.c **** *  \snippet main.c snippet_engine_sensor_adc_CountsTo_mVolts
1517:Generated_Source\PSoC4/engine_sensor_adc.c **** *
1518:Generated_Source\PSoC4/engine_sensor_adc.c **** *******************************************************************************/
1519:Generated_Source\PSoC4/engine_sensor_adc.c **** int16 engine_sensor_adc_CountsTo_mVolts(uint32 chan, int16 adcCounts)
1520:Generated_Source\PSoC4/engine_sensor_adc.c **** {   
ARM GAS  C:\Users\fneves\AppData\Local\Temp\ccV5UskS.s 			page 62


 1943              		.loc 1 1520 0
 1944              		.cfi_startproc
 1945 0000 90B5     		push	{r4, r7, lr}
 1946              		.cfi_def_cfa_offset 12
 1947              		.cfi_offset 4, -12
 1948              		.cfi_offset 7, -8
 1949              		.cfi_offset 14, -4
 1950 0002 85B0     		sub	sp, sp, #20
 1951              		.cfi_def_cfa_offset 32
 1952 0004 00AF     		add	r7, sp, #0
 1953              		.cfi_def_cfa_register 7
 1954 0006 7860     		str	r0, [r7, #4]
 1955 0008 0A1C     		mov	r2, r1
 1956 000a BB1C     		add	r3, r7, #2
 1957 000c 1A80     		strh	r2, [r3]
1521:Generated_Source\PSoC4/engine_sensor_adc.c ****     int16 result_mVolts = 0;
 1958              		.loc 1 1521 0
 1959 000e 0E23     		mov	r3, #14
 1960 0010 FB18     		add	r3, r7, r3
 1961 0012 0022     		mov	r2, #0
 1962 0014 1A80     		strh	r2, [r3]
1522:Generated_Source\PSoC4/engine_sensor_adc.c **** 	uint32 rawChannel;
1523:Generated_Source\PSoC4/engine_sensor_adc.c ****     
1524:Generated_Source\PSoC4/engine_sensor_adc.c **** 	rawChannel = engine_sensor_adc_allConfigs[engine_sensor_adc_currentConfig].channelBase + chan;
 1963              		.loc 1 1524 0
 1964 0016 2A4B     		ldr	r3, .L131
 1965 0018 1A68     		ldr	r2, [r3]
 1966 001a 2A49     		ldr	r1, .L131+4
 1967 001c 131C     		mov	r3, r2
 1968 001e DB00     		lsl	r3, r3, #3
 1969 0020 9B1A     		sub	r3, r3, r2
 1970 0022 DB00     		lsl	r3, r3, #3
 1971 0024 5A58     		ldr	r2, [r3, r1]
 1972 0026 7B68     		ldr	r3, [r7, #4]
 1973 0028 D318     		add	r3, r2, r3
 1974 002a BB60     		str	r3, [r7, #8]
1525:Generated_Source\PSoC4/engine_sensor_adc.c **** 	
1526:Generated_Source\PSoC4/engine_sensor_adc.c **** 	if((engine_sensor_adc_allConfigs[engine_sensor_adc_currentConfig].sampleCtrl 
 1975              		.loc 1 1526 0
 1976 002c 244B     		ldr	r3, .L131
 1977 002e 1A68     		ldr	r2, [r3]
 1978 0030 2449     		ldr	r1, .L131+4
 1979 0032 131C     		mov	r3, r2
 1980 0034 DB00     		lsl	r3, r3, #3
 1981 0036 9B1A     		sub	r3, r3, r2
 1982 0038 DB00     		lsl	r3, r3, #3
 1983 003a CB18     		add	r3, r1, r3
 1984 003c 0833     		add	r3, r3, #8
 1985 003e 5B68     		ldr	r3, [r3, #4]
1527:Generated_Source\PSoC4/engine_sensor_adc.c **** 		& engine_sensor_adc_SAR_SAMPLE_CTRL_LEFT_ALIGN_MSK) 
 1986              		.loc 1 1527 0
 1987 0040 0222     		mov	r2, #2
 1988 0042 1340     		and	r3, r2
1526:Generated_Source\PSoC4/engine_sensor_adc.c **** 		& engine_sensor_adc_SAR_SAMPLE_CTRL_LEFT_ALIGN_MSK) 
 1989              		.loc 1 1526 0
 1990 0044 34D1     		bne	.L125
1528:Generated_Source\PSoC4/engine_sensor_adc.c **** 		!= engine_sensor_adc_SAR_SAMPLE_CTRL_LEFT_ALIGN_MSK)
ARM GAS  C:\Users\fneves\AppData\Local\Temp\ccV5UskS.s 			page 63


1529:Generated_Source\PSoC4/engine_sensor_adc.c **** 	{
1530:Generated_Source\PSoC4/engine_sensor_adc.c ****         adcCounts = engine_sensor_adc_RawCounts2Counts(chan, adcCounts);
 1991              		.loc 1 1530 0
 1992 0046 BC1C     		add	r4, r7, #2
 1993 0048 7A68     		ldr	r2, [r7, #4]
 1994 004a BB1C     		add	r3, r7, #2
 1995 004c 0021     		mov	r1, #0
 1996 004e 5B5E     		ldrsh	r3, [r3, r1]
 1997 0050 101C     		mov	r0, r2
 1998 0052 191C     		mov	r1, r3
 1999 0054 FFF7FEFF 		bl	engine_sensor_adc_RawCounts2Counts
 2000 0058 031C     		mov	r3, r0
 2001 005a 2380     		strh	r3, [r4]
1531:Generated_Source\PSoC4/engine_sensor_adc.c **** 
1532:Generated_Source\PSoC4/engine_sensor_adc.c **** 	    result_mVolts = (int16)((((int32)adcCounts * engine_sensor_adc_10MV_COUNTS) + ( (adcCounts > 0
 2002              		.loc 1 1532 0
 2003 005c BB1C     		add	r3, r7, #2
 2004 005e 0022     		mov	r2, #0
 2005 0060 9B5E     		ldrsh	r3, [r3, r2]
 2006 0062 194A     		ldr	r2, .L131+8
 2007 0064 5A43     		mul	r2, r3
1533:Generated_Source\PSoC4/engine_sensor_adc.c **** 	             (engine_sensor_adc_countsPer10Volt[rawChannel] / 2) 
1534:Generated_Source\PSoC4/engine_sensor_adc.c **** 				: (-(engine_sensor_adc_countsPer10Volt[rawChannel] / 2)) )) 
 2008              		.loc 1 1534 0
 2009 0066 BB1C     		add	r3, r7, #2
 2010 0068 0021     		mov	r1, #0
 2011 006a 5B5E     		ldrsh	r3, [r3, r1]
 2012 006c 002B     		cmp	r3, #0
 2013 006e 08DD     		ble	.L126
1533:Generated_Source\PSoC4/engine_sensor_adc.c **** 	             (engine_sensor_adc_countsPer10Volt[rawChannel] / 2) 
 2014              		.loc 1 1533 0 discriminator 1
 2015 0070 164B     		ldr	r3, .L131+12
 2016 0072 B968     		ldr	r1, [r7, #8]
 2017 0074 8900     		lsl	r1, r1, #2
 2018 0076 CB58     		ldr	r3, [r1, r3]
 2019              		.loc 1 1534 0 discriminator 1
 2020 0078 002B     		cmp	r3, #0
 2021 007a 00DA     		bge	.L127
 2022 007c 0133     		add	r3, r3, #1
 2023              	.L127:
 2024 007e 5B10     		asr	r3, r3, #1
 2025 0080 08E0     		b	.L128
 2026              	.L126:
 2027              		.loc 1 1534 0 is_stmt 0 discriminator 2
 2028 0082 124B     		ldr	r3, .L131+12
 2029 0084 B968     		ldr	r1, [r7, #8]
 2030 0086 8900     		lsl	r1, r1, #2
 2031 0088 CB58     		ldr	r3, [r1, r3]
 2032 008a 002B     		cmp	r3, #0
 2033 008c 00DA     		bge	.L129
 2034 008e 0133     		add	r3, r3, #1
 2035              	.L129:
 2036 0090 5B10     		asr	r3, r3, #1
 2037 0092 5B42     		neg	r3, r3
 2038              	.L128:
1532:Generated_Source\PSoC4/engine_sensor_adc.c **** 	             (engine_sensor_adc_countsPer10Volt[rawChannel] / 2) 
 2039              		.loc 1 1532 0 is_stmt 1
ARM GAS  C:\Users\fneves\AppData\Local\Temp\ccV5UskS.s 			page 64


 2040 0094 D118     		add	r1, r2, r3
1535:Generated_Source\PSoC4/engine_sensor_adc.c **** 	             / engine_sensor_adc_countsPer10Volt[rawChannel]);
 2041              		.loc 1 1535 0
 2042 0096 0D4B     		ldr	r3, .L131+12
 2043 0098 BA68     		ldr	r2, [r7, #8]
 2044 009a 9200     		lsl	r2, r2, #2
 2045 009c D358     		ldr	r3, [r2, r3]
 2046 009e 081C     		mov	r0, r1
 2047 00a0 191C     		mov	r1, r3
 2048 00a2 FFF7FEFF 		bl	__aeabi_idiv
 2049 00a6 031C     		mov	r3, r0
 2050 00a8 1A1C     		mov	r2, r3
1532:Generated_Source\PSoC4/engine_sensor_adc.c **** 	             (engine_sensor_adc_countsPer10Volt[rawChannel] / 2) 
 2051              		.loc 1 1532 0
 2052 00aa 0E23     		mov	r3, #14
 2053 00ac FB18     		add	r3, r7, r3
 2054 00ae 1A80     		strh	r2, [r3]
 2055              	.L125:
1536:Generated_Source\PSoC4/engine_sensor_adc.c **** 	}
1537:Generated_Source\PSoC4/engine_sensor_adc.c ****     return result_mVolts;
 2056              		.loc 1 1537 0
 2057 00b0 0E23     		mov	r3, #14
 2058 00b2 FB18     		add	r3, r7, r3
 2059 00b4 1B88     		ldrh	r3, [r3]
 2060 00b6 1BB2     		sxth	r3, r3
1538:Generated_Source\PSoC4/engine_sensor_adc.c **** }
 2061              		.loc 1 1538 0
 2062 00b8 181C     		mov	r0, r3
 2063 00ba BD46     		mov	sp, r7
 2064 00bc 05B0     		add	sp, sp, #20
 2065              		@ sp needed
 2066 00be 90BD     		pop	{r4, r7, pc}
 2067              	.L132:
 2068              		.align	2
 2069              	.L131:
 2070 00c0 04000000 		.word	engine_sensor_adc_currentConfig
 2071 00c4 00000000 		.word	engine_sensor_adc_allConfigs
 2072 00c8 10270000 		.word	10000
 2073 00cc 00000000 		.word	engine_sensor_adc_countsPer10Volt
 2074              		.cfi_endproc
 2075              	.LFE23:
 2076              		.size	engine_sensor_adc_CountsTo_mVolts, .-engine_sensor_adc_CountsTo_mVolts
 2077              		.global	__aeabi_lmul
 2078              		.global	__aeabi_ldivmod
 2079              		.section	.text.engine_sensor_adc_CountsTo_uVolts,"ax",%progbits
 2080              		.align	2
 2081              		.global	engine_sensor_adc_CountsTo_uVolts
 2082              		.code	16
 2083              		.thumb_func
 2084              		.type	engine_sensor_adc_CountsTo_uVolts, %function
 2085              	engine_sensor_adc_CountsTo_uVolts:
 2086              	.LFB24:
1539:Generated_Source\PSoC4/engine_sensor_adc.c **** 
1540:Generated_Source\PSoC4/engine_sensor_adc.c **** /*******************************************************************************
1541:Generated_Source\PSoC4/engine_sensor_adc.c **** * Function Name: engine_sensor_adc_CountsTo_uVolts
1542:Generated_Source\PSoC4/engine_sensor_adc.c **** ****************************************************************************//**
1543:Generated_Source\PSoC4/engine_sensor_adc.c **** *
ARM GAS  C:\Users\fneves\AppData\Local\Temp\ccV5UskS.s 			page 65


1544:Generated_Source\PSoC4/engine_sensor_adc.c **** * \brief Converts the ADC output to microvolts as an int32. For example, if the ADC 
1545:Generated_Source\PSoC4/engine_sensor_adc.c **** * measured 0.534 volts, the return value would be 534000.
1546:Generated_Source\PSoC4/engine_sensor_adc.c **** * The calculation of voltage depends on the contents of engine_sensor_adc_offset[],
1547:Generated_Source\PSoC4/engine_sensor_adc.c **** * engine_sensor_adc_countsPer10Volt[], and other parameters.  The equation used is:
1548:Generated_Source\PSoC4/engine_sensor_adc.c **** * 
1549:Generated_Source\PSoC4/engine_sensor_adc.c **** *     V = (Counts/AvgDivider - Offset)*TEN_VOLT/Gain
1550:Generated_Source\PSoC4/engine_sensor_adc.c **** * -Counts = Raw Counts from SAR register
1551:Generated_Source\PSoC4/engine_sensor_adc.c **** * -AvgDivider = divider based on averaging mode
1552:Generated_Source\PSoC4/engine_sensor_adc.c **** *     -Sequential, Sum: AvgDivider = number averaged
1553:Generated_Source\PSoC4/engine_sensor_adc.c **** *         Note: The divider should be a maximum of 16. If using more averages, 
1554:Generated_Source\PSoC4/engine_sensor_adc.c **** *         pre-scale Counts by (number averaged / 16)
1555:Generated_Source\PSoC4/engine_sensor_adc.c **** *     -Interleaved, Sum: AvgDivider = number averaged
1556:Generated_Source\PSoC4/engine_sensor_adc.c **** *     -Sequential, Fixed: AvgDivider = 1
1557:Generated_Source\PSoC4/engine_sensor_adc.c **** * -Offset = engine_sensor_adc_offset[]
1558:Generated_Source\PSoC4/engine_sensor_adc.c **** * -TEN_VOLT = 10V constant and unit scalar.
1559:Generated_Source\PSoC4/engine_sensor_adc.c **** * -Gain = engine_sensor_adc_countsPer10Volt[]
1560:Generated_Source\PSoC4/engine_sensor_adc.c **** * 
1561:Generated_Source\PSoC4/engine_sensor_adc.c **** * When the Vref is based on Vdda, the value used for Vdda is set for the project
1562:Generated_Source\PSoC4/engine_sensor_adc.c **** * in the System tab of the DWR.
1563:Generated_Source\PSoC4/engine_sensor_adc.c **** *
1564:Generated_Source\PSoC4/engine_sensor_adc.c **** * \param chan engine_sensor_adc channel number.   
1565:Generated_Source\PSoC4/engine_sensor_adc.c **** *
1566:Generated_Source\PSoC4/engine_sensor_adc.c **** * \param adcCounts Result from the engine_sensor_adc conversion.
1567:Generated_Source\PSoC4/engine_sensor_adc.c **** *
1568:Generated_Source\PSoC4/engine_sensor_adc.c **** * \return Result in microvolts.
1569:Generated_Source\PSoC4/engine_sensor_adc.c **** * 
1570:Generated_Source\PSoC4/engine_sensor_adc.c **** * \sideeffect None
1571:Generated_Source\PSoC4/engine_sensor_adc.c **** *
1572:Generated_Source\PSoC4/engine_sensor_adc.c **** * <b>Code Snippet</b>
1573:Generated_Source\PSoC4/engine_sensor_adc.c **** *  \snippet main.c snippet_engine_sensor_adc_CountsTo_uVolts
1574:Generated_Source\PSoC4/engine_sensor_adc.c **** *
1575:Generated_Source\PSoC4/engine_sensor_adc.c **** *******************************************************************************/
1576:Generated_Source\PSoC4/engine_sensor_adc.c **** int32 engine_sensor_adc_CountsTo_uVolts(uint32 chan, int16 adcCounts)
1577:Generated_Source\PSoC4/engine_sensor_adc.c **** {   
 2087              		.loc 1 1577 0
 2088              		.cfi_startproc
 2089 0000 F0B5     		push	{r4, r5, r6, r7, lr}
 2090              		.cfi_def_cfa_offset 20
 2091              		.cfi_offset 4, -20
 2092              		.cfi_offset 5, -16
 2093              		.cfi_offset 6, -12
 2094              		.cfi_offset 7, -8
 2095              		.cfi_offset 14, -4
 2096 0002 89B0     		sub	sp, sp, #36
 2097              		.cfi_def_cfa_offset 56
 2098 0004 00AF     		add	r7, sp, #0
 2099              		.cfi_def_cfa_register 7
 2100 0006 F860     		str	r0, [r7, #12]
 2101 0008 0A1C     		mov	r2, r1
 2102 000a 0A23     		mov	r3, #10
 2103 000c FB18     		add	r3, r7, r3
 2104 000e 1A80     		strh	r2, [r3]
1578:Generated_Source\PSoC4/engine_sensor_adc.c ****     int64 result_uVolts = 0;
 2105              		.loc 1 1578 0
 2106 0010 0023     		mov	r3, #0
 2107 0012 0024     		mov	r4, #0
 2108 0014 BB61     		str	r3, [r7, #24]
ARM GAS  C:\Users\fneves\AppData\Local\Temp\ccV5UskS.s 			page 66


 2109 0016 FC61     		str	r4, [r7, #28]
1579:Generated_Source\PSoC4/engine_sensor_adc.c **** 	uint32 rawChannel;
1580:Generated_Source\PSoC4/engine_sensor_adc.c **** 	rawChannel = engine_sensor_adc_allConfigs[engine_sensor_adc_currentConfig].channelBase + chan;
 2110              		.loc 1 1580 0
 2111 0018 244B     		ldr	r3, .L136
 2112 001a 1A68     		ldr	r2, [r3]
 2113 001c 2449     		ldr	r1, .L136+4
 2114 001e 131C     		mov	r3, r2
 2115 0020 DB00     		lsl	r3, r3, #3
 2116 0022 9B1A     		sub	r3, r3, r2
 2117 0024 DB00     		lsl	r3, r3, #3
 2118 0026 5A58     		ldr	r2, [r3, r1]
 2119 0028 FB68     		ldr	r3, [r7, #12]
 2120 002a D318     		add	r3, r2, r3
 2121 002c 7B61     		str	r3, [r7, #20]
1581:Generated_Source\PSoC4/engine_sensor_adc.c **** 
1582:Generated_Source\PSoC4/engine_sensor_adc.c **** 	if((engine_sensor_adc_allConfigs[engine_sensor_adc_currentConfig].sampleCtrl 
 2122              		.loc 1 1582 0
 2123 002e 1F4B     		ldr	r3, .L136
 2124 0030 1A68     		ldr	r2, [r3]
 2125 0032 1F49     		ldr	r1, .L136+4
 2126 0034 131C     		mov	r3, r2
 2127 0036 DB00     		lsl	r3, r3, #3
 2128 0038 9B1A     		sub	r3, r3, r2
 2129 003a DB00     		lsl	r3, r3, #3
 2130 003c CB18     		add	r3, r1, r3
 2131 003e 0833     		add	r3, r3, #8
 2132 0040 5B68     		ldr	r3, [r3, #4]
1583:Generated_Source\PSoC4/engine_sensor_adc.c **** 		& engine_sensor_adc_SAR_SAMPLE_CTRL_LEFT_ALIGN_MSK) 
 2133              		.loc 1 1583 0
 2134 0042 0222     		mov	r2, #2
 2135 0044 1340     		and	r3, r2
1582:Generated_Source\PSoC4/engine_sensor_adc.c **** 		& engine_sensor_adc_SAR_SAMPLE_CTRL_LEFT_ALIGN_MSK) 
 2136              		.loc 1 1582 0
 2137 0046 2CD1     		bne	.L134
1584:Generated_Source\PSoC4/engine_sensor_adc.c **** 		!= engine_sensor_adc_SAR_SAMPLE_CTRL_LEFT_ALIGN_MSK)
1585:Generated_Source\PSoC4/engine_sensor_adc.c **** 	{
1586:Generated_Source\PSoC4/engine_sensor_adc.c ****         adcCounts = engine_sensor_adc_RawCounts2Counts(chan, adcCounts);
 2138              		.loc 1 1586 0
 2139 0048 0A23     		mov	r3, #10
 2140 004a FC18     		add	r4, r7, r3
 2141 004c FA68     		ldr	r2, [r7, #12]
 2142 004e 0A23     		mov	r3, #10
 2143 0050 FB18     		add	r3, r7, r3
 2144 0052 0021     		mov	r1, #0
 2145 0054 5B5E     		ldrsh	r3, [r3, r1]
 2146 0056 101C     		mov	r0, r2
 2147 0058 191C     		mov	r1, r3
 2148 005a FFF7FEFF 		bl	engine_sensor_adc_RawCounts2Counts
 2149 005e 031C     		mov	r3, r0
 2150 0060 2380     		strh	r3, [r4]
1587:Generated_Source\PSoC4/engine_sensor_adc.c **** 
1588:Generated_Source\PSoC4/engine_sensor_adc.c ****         result_uVolts = ((int64)adcCounts * engine_sensor_adc_10UV_COUNTS) 
 2151              		.loc 1 1588 0
 2152 0062 0A23     		mov	r3, #10
 2153 0064 FB18     		add	r3, r7, r3
 2154 0066 1B88     		ldrh	r3, [r3]
ARM GAS  C:\Users\fneves\AppData\Local\Temp\ccV5UskS.s 			page 67


 2155 0068 1BB2     		sxth	r3, r3
 2156 006a 3B60     		str	r3, [r7]
 2157 006c DB17     		asr	r3, r3, #31
 2158 006e 7B60     		str	r3, [r7, #4]
 2159 0070 3868     		ldr	r0, [r7]
 2160 0072 7968     		ldr	r1, [r7, #4]
 2161 0074 0F4A     		ldr	r2, .L136+8
 2162 0076 0023     		mov	r3, #0
 2163 0078 FFF7FEFF 		bl	__aeabi_lmul
 2164 007c 031C     		mov	r3, r0
 2165 007e 0C1C     		mov	r4, r1
 2166 0080 181C     		mov	r0, r3
 2167 0082 211C     		mov	r1, r4
1589:Generated_Source\PSoC4/engine_sensor_adc.c **** 			/ engine_sensor_adc_countsPer10Volt[rawChannel];
 2168              		.loc 1 1589 0
 2169 0084 0C4B     		ldr	r3, .L136+12
 2170 0086 7A69     		ldr	r2, [r7, #20]
 2171 0088 9200     		lsl	r2, r2, #2
 2172 008a D358     		ldr	r3, [r2, r3]
 2173 008c 1D1C     		mov	r5, r3
 2174 008e DB17     		asr	r3, r3, #31
 2175 0090 1E1C     		mov	r6, r3
1588:Generated_Source\PSoC4/engine_sensor_adc.c **** 			/ engine_sensor_adc_countsPer10Volt[rawChannel];
 2176              		.loc 1 1588 0
 2177 0092 2A1C     		mov	r2, r5
 2178 0094 331C     		mov	r3, r6
 2179 0096 FFF7FEFF 		bl	__aeabi_ldivmod
 2180 009a 031C     		mov	r3, r0
 2181 009c 0C1C     		mov	r4, r1
 2182 009e BB61     		str	r3, [r7, #24]
 2183 00a0 FC61     		str	r4, [r7, #28]
 2184              	.L134:
1590:Generated_Source\PSoC4/engine_sensor_adc.c **** 	}
1591:Generated_Source\PSoC4/engine_sensor_adc.c **** 	return ( (int32)result_uVolts );
 2185              		.loc 1 1591 0
 2186 00a2 BB69     		ldr	r3, [r7, #24]
1592:Generated_Source\PSoC4/engine_sensor_adc.c **** }
 2187              		.loc 1 1592 0
 2188 00a4 181C     		mov	r0, r3
 2189 00a6 BD46     		mov	sp, r7
 2190 00a8 09B0     		add	sp, sp, #36
 2191              		@ sp needed
 2192 00aa F0BD     		pop	{r4, r5, r6, r7, pc}
 2193              	.L137:
 2194              		.align	2
 2195              	.L136:
 2196 00ac 04000000 		.word	engine_sensor_adc_currentConfig
 2197 00b0 00000000 		.word	engine_sensor_adc_allConfigs
 2198 00b4 80969800 		.word	10000000
 2199 00b8 00000000 		.word	engine_sensor_adc_countsPer10Volt
 2200              		.cfi_endproc
 2201              	.LFE24:
 2202              		.size	engine_sensor_adc_CountsTo_uVolts, .-engine_sensor_adc_CountsTo_uVolts
 2203              		.section	.text.engine_sensor_adc_TrimFilterVos,"ax",%progbits
 2204              		.align	2
 2205              		.global	engine_sensor_adc_TrimFilterVos
 2206              		.code	16
ARM GAS  C:\Users\fneves\AppData\Local\Temp\ccV5UskS.s 			page 68


 2207              		.thumb_func
 2208              		.type	engine_sensor_adc_TrimFilterVos, %function
 2209              	engine_sensor_adc_TrimFilterVos:
 2210              	.LFB25:
1593:Generated_Source\PSoC4/engine_sensor_adc.c **** 
1594:Generated_Source\PSoC4/engine_sensor_adc.c **** #if(0u != engine_sensor_adc_ANY_CONFIG_USES_FILTER)
1595:Generated_Source\PSoC4/engine_sensor_adc.c ****     
1596:Generated_Source\PSoC4/engine_sensor_adc.c ****     /* ****************************************************************************
1597:Generated_Source\PSoC4/engine_sensor_adc.c ****     * Function Name: engine_sensor_adc_TrimFilterVos
1598:Generated_Source\PSoC4/engine_sensor_adc.c ****     ****************************************************************************//*
1599:Generated_Source\PSoC4/engine_sensor_adc.c ****     *
1600:Generated_Source\PSoC4/engine_sensor_adc.c ****     * \brief Runs an algorithm to reduce voltage offset using the UAB's opamp trim.
1601:Generated_Source\PSoC4/engine_sensor_adc.c ****     *
1602:Generated_Source\PSoC4/engine_sensor_adc.c ****     * \param None
1603:Generated_Source\PSoC4/engine_sensor_adc.c ****     * 
1604:Generated_Source\PSoC4/engine_sensor_adc.c ****     * \return None
1605:Generated_Source\PSoC4/engine_sensor_adc.c ****     *
1606:Generated_Source\PSoC4/engine_sensor_adc.c ****     * \sideeffect None
1607:Generated_Source\PSoC4/engine_sensor_adc.c ****     *
1608:Generated_Source\PSoC4/engine_sensor_adc.c ****     * <b>Code Snippet</b>
1609:Generated_Source\PSoC4/engine_sensor_adc.c ****     *  \snippet main.c snippet_engine_sensor_adc_TrimFilterVos
1610:Generated_Source\PSoC4/engine_sensor_adc.c ****     *
1611:Generated_Source\PSoC4/engine_sensor_adc.c ****     *******************************************************************************/
1612:Generated_Source\PSoC4/engine_sensor_adc.c ****     void engine_sensor_adc_TrimFilterVos(void)
1613:Generated_Source\PSoC4/engine_sensor_adc.c ****     {
 2211              		.loc 1 1613 0
 2212              		.cfi_startproc
 2213 0000 80B5     		push	{r7, lr}
 2214              		.cfi_def_cfa_offset 8
 2215              		.cfi_offset 7, -8
 2216              		.cfi_offset 14, -4
 2217 0002 84B0     		sub	sp, sp, #16
 2218              		.cfi_def_cfa_offset 24
 2219 0004 00AF     		add	r7, sp, #0
 2220              		.cfi_def_cfa_register 7
1614:Generated_Source\PSoC4/engine_sensor_adc.c ****         uint32 opampTrim = 0uL;
 2221              		.loc 1 1614 0
 2222 0006 0023     		mov	r3, #0
 2223 0008 FB60     		str	r3, [r7, #12]
1615:Generated_Source\PSoC4/engine_sensor_adc.c ****         uint32 agndTrim = 0uL;
 2224              		.loc 1 1615 0
 2225 000a 0023     		mov	r3, #0
 2226 000c BB60     		str	r3, [r7, #8]
1616:Generated_Source\PSoC4/engine_sensor_adc.c ****         uint32 compStatus = 0uL;
 2227              		.loc 1 1616 0
 2228 000e 0023     		mov	r3, #0
 2229 0010 7B60     		str	r3, [r7, #4]
1617:Generated_Source\PSoC4/engine_sensor_adc.c ****         
1618:Generated_Source\PSoC4/engine_sensor_adc.c ****         engine_sensor_adc_SetupComparatorTrim();
 2230              		.loc 1 1618 0
 2231 0012 FFF7FEFF 		bl	engine_sensor_adc_SetupComparatorTrim
1619:Generated_Source\PSoC4/engine_sensor_adc.c ****         
1620:Generated_Source\PSoC4/engine_sensor_adc.c ****         /* Sweep from center to crossing */
1621:Generated_Source\PSoC4/engine_sensor_adc.c ****         compStatus = engine_sensor_adc_SetOpampAndAgndTrim(engine_sensor_adc_OPAMP_TRIM_POS_BASE, e
 2232              		.loc 1 1621 0
 2233 0016 0020     		mov	r0, #0
 2234 0018 0021     		mov	r1, #0
ARM GAS  C:\Users\fneves\AppData\Local\Temp\ccV5UskS.s 			page 69


 2235 001a FFF7FEFF 		bl	engine_sensor_adc_SetOpampAndAgndTrim
 2236 001e 031C     		mov	r3, r0
 2237 0020 7B60     		str	r3, [r7, #4]
1622:Generated_Source\PSoC4/engine_sensor_adc.c ****         if (0uL == compStatus)
 2238              		.loc 1 1622 0
 2239 0022 7B68     		ldr	r3, [r7, #4]
 2240 0024 002B     		cmp	r3, #0
 2241 0026 1ED1     		bne	.L139
1623:Generated_Source\PSoC4/engine_sensor_adc.c ****         {
1624:Generated_Source\PSoC4/engine_sensor_adc.c ****             opampTrim = engine_sensor_adc_RaiseOpampTrimToCrossing(engine_sensor_adc_OPAMP_TRIM_POS
 2242              		.loc 1 1624 0
 2243 0028 0020     		mov	r0, #0
 2244 002a FFF7FEFF 		bl	engine_sensor_adc_RaiseOpampTrimToCrossing
 2245 002e 031C     		mov	r3, r0
 2246 0030 FB60     		str	r3, [r7, #12]
1625:Generated_Source\PSoC4/engine_sensor_adc.c ****             agndTrim = engine_sensor_adc_RaiseAgndTrimToCrossing(engine_sensor_adc_AGND_TRIM_POS_BA
 2247              		.loc 1 1625 0
 2248 0032 0020     		mov	r0, #0
 2249 0034 FFF7FEFF 		bl	engine_sensor_adc_RaiseAgndTrimToCrossing
 2250 0038 031C     		mov	r3, r0
 2251 003a BB60     		str	r3, [r7, #8]
1626:Generated_Source\PSoC4/engine_sensor_adc.c ****             if ((agndTrim == (engine_sensor_adc_AGND_TRIM_POS_LIMIT - 1uL))
 2252              		.loc 1 1626 0
 2253 003c BB68     		ldr	r3, [r7, #8]
 2254 003e 0F2B     		cmp	r3, #15
 2255 0040 2FD1     		bne	.L141
1627:Generated_Source\PSoC4/engine_sensor_adc.c ****                 && (opampTrim != (engine_sensor_adc_OPAMP_TRIM_POS_LIMIT - 1uL)))
 2256              		.loc 1 1627 0
 2257 0042 FB68     		ldr	r3, [r7, #12]
 2258 0044 072B     		cmp	r3, #7
 2259 0046 2CD0     		beq	.L141
1628:Generated_Source\PSoC4/engine_sensor_adc.c ****             {
1629:Generated_Source\PSoC4/engine_sensor_adc.c ****                 opampTrim = engine_sensor_adc_IncOpampTrim(opampTrim);
 2260              		.loc 1 1629 0
 2261 0048 FB68     		ldr	r3, [r7, #12]
 2262 004a 181C     		mov	r0, r3
 2263 004c FFF7FEFF 		bl	engine_sensor_adc_IncOpampTrim
 2264 0050 031C     		mov	r3, r0
 2265 0052 FB60     		str	r3, [r7, #12]
1630:Generated_Source\PSoC4/engine_sensor_adc.c ****                 (void) engine_sensor_adc_SetOpampAndAgndTrim(opampTrim, engine_sensor_adc_AGND_TRIM
 2266              		.loc 1 1630 0
 2267 0054 FB68     		ldr	r3, [r7, #12]
 2268 0056 181C     		mov	r0, r3
 2269 0058 0021     		mov	r1, #0
 2270 005a FFF7FEFF 		bl	engine_sensor_adc_SetOpampAndAgndTrim
1631:Generated_Source\PSoC4/engine_sensor_adc.c ****                 (void) engine_sensor_adc_LowerAgndTrimToCrossing(engine_sensor_adc_AGND_TRIM_POS_BA
 2271              		.loc 1 1631 0
 2272 005e 0020     		mov	r0, #0
 2273 0060 FFF7FEFF 		bl	engine_sensor_adc_LowerAgndTrimToCrossing
 2274 0064 1DE0     		b	.L141
 2275              	.L139:
1632:Generated_Source\PSoC4/engine_sensor_adc.c ****             }
1633:Generated_Source\PSoC4/engine_sensor_adc.c ****         }
1634:Generated_Source\PSoC4/engine_sensor_adc.c ****         else
1635:Generated_Source\PSoC4/engine_sensor_adc.c ****         {
1636:Generated_Source\PSoC4/engine_sensor_adc.c ****             opampTrim = engine_sensor_adc_LowerOpampTrimToCrossing(engine_sensor_adc_OPAMP_TRIM_POS
 2276              		.loc 1 1636 0
ARM GAS  C:\Users\fneves\AppData\Local\Temp\ccV5UskS.s 			page 70


 2277 0066 0020     		mov	r0, #0
 2278 0068 FFF7FEFF 		bl	engine_sensor_adc_LowerOpampTrimToCrossing
 2279 006c 031C     		mov	r3, r0
 2280 006e FB60     		str	r3, [r7, #12]
1637:Generated_Source\PSoC4/engine_sensor_adc.c ****             agndTrim = engine_sensor_adc_LowerAgndTrimToCrossing(engine_sensor_adc_AGND_TRIM_POS_BA
 2281              		.loc 1 1637 0
 2282 0070 0020     		mov	r0, #0
 2283 0072 FFF7FEFF 		bl	engine_sensor_adc_LowerAgndTrimToCrossing
 2284 0076 031C     		mov	r3, r0
 2285 0078 BB60     		str	r3, [r7, #8]
1638:Generated_Source\PSoC4/engine_sensor_adc.c ****             if ((agndTrim == (engine_sensor_adc_AGND_TRIM_NEG_LIMIT - 1uL))
 2286              		.loc 1 1638 0
 2287 007a BB68     		ldr	r3, [r7, #8]
 2288 007c 1F2B     		cmp	r3, #31
 2289 007e 10D1     		bne	.L141
1639:Generated_Source\PSoC4/engine_sensor_adc.c ****                 && (opampTrim != (engine_sensor_adc_OPAMP_TRIM_NEG_LIMIT - 1uL)))
 2290              		.loc 1 1639 0
 2291 0080 FB68     		ldr	r3, [r7, #12]
 2292 0082 0F2B     		cmp	r3, #15
 2293 0084 0DD0     		beq	.L141
1640:Generated_Source\PSoC4/engine_sensor_adc.c ****             {
1641:Generated_Source\PSoC4/engine_sensor_adc.c ****                 opampTrim = engine_sensor_adc_DecOpampTrim(opampTrim);
 2294              		.loc 1 1641 0
 2295 0086 FB68     		ldr	r3, [r7, #12]
 2296 0088 181C     		mov	r0, r3
 2297 008a FFF7FEFF 		bl	engine_sensor_adc_DecOpampTrim
 2298 008e 031C     		mov	r3, r0
 2299 0090 FB60     		str	r3, [r7, #12]
1642:Generated_Source\PSoC4/engine_sensor_adc.c ****                 (void) engine_sensor_adc_SetOpampAndAgndTrim(opampTrim, engine_sensor_adc_AGND_TRIM
 2300              		.loc 1 1642 0
 2301 0092 FB68     		ldr	r3, [r7, #12]
 2302 0094 181C     		mov	r0, r3
 2303 0096 0021     		mov	r1, #0
 2304 0098 FFF7FEFF 		bl	engine_sensor_adc_SetOpampAndAgndTrim
1643:Generated_Source\PSoC4/engine_sensor_adc.c ****                 (void) engine_sensor_adc_RaiseAgndTrimToCrossing(engine_sensor_adc_AGND_TRIM_POS_BA
 2305              		.loc 1 1643 0
 2306 009c 0020     		mov	r0, #0
 2307 009e FFF7FEFF 		bl	engine_sensor_adc_RaiseAgndTrimToCrossing
 2308              	.L141:
1644:Generated_Source\PSoC4/engine_sensor_adc.c ****             }
1645:Generated_Source\PSoC4/engine_sensor_adc.c ****         }
1646:Generated_Source\PSoC4/engine_sensor_adc.c ****         
1647:Generated_Source\PSoC4/engine_sensor_adc.c ****         engine_sensor_adc_UndoComparatorTrimSetup();
 2309              		.loc 1 1647 0
 2310 00a2 FFF7FEFF 		bl	engine_sensor_adc_UndoComparatorTrimSetup
1648:Generated_Source\PSoC4/engine_sensor_adc.c ****     }
 2311              		.loc 1 1648 0
 2312 00a6 BD46     		mov	sp, r7
 2313 00a8 04B0     		add	sp, sp, #16
 2314              		@ sp needed
 2315 00aa 80BD     		pop	{r7, pc}
 2316              		.cfi_endproc
 2317              	.LFE25:
 2318              		.size	engine_sensor_adc_TrimFilterVos, .-engine_sensor_adc_TrimFilterVos
 2319              		.section	.text.engine_sensor_adc_SetupComparatorTrim,"ax",%progbits
 2320              		.align	2
 2321              		.code	16
ARM GAS  C:\Users\fneves\AppData\Local\Temp\ccV5UskS.s 			page 71


 2322              		.thumb_func
 2323              		.type	engine_sensor_adc_SetupComparatorTrim, %function
 2324              	engine_sensor_adc_SetupComparatorTrim:
 2325              	.LFB26:
1649:Generated_Source\PSoC4/engine_sensor_adc.c ****     
1650:Generated_Source\PSoC4/engine_sensor_adc.c ****     
1651:Generated_Source\PSoC4/engine_sensor_adc.c ****     static void engine_sensor_adc_SetupComparatorTrim(void)
1652:Generated_Source\PSoC4/engine_sensor_adc.c ****     {
 2326              		.loc 1 1652 0
 2327              		.cfi_startproc
 2328 0000 80B5     		push	{r7, lr}
 2329              		.cfi_def_cfa_offset 8
 2330              		.cfi_offset 7, -8
 2331              		.cfi_offset 14, -4
 2332 0002 00AF     		add	r7, sp, #0
 2333              		.cfi_def_cfa_register 7
1653:Generated_Source\PSoC4/engine_sensor_adc.c ****         /* Set firmware modbit. */
1654:Generated_Source\PSoC4/engine_sensor_adc.c ****         engine_sensor_adc_UABH_A_CAP_ABCF_VAL_REG |= (0x1uL << CyUAB_SIGN_VAL_SHIFT);
 2334              		.loc 1 1654 0
 2335 0004 1B4B     		ldr	r3, .L143
 2336 0006 1B4A     		ldr	r2, .L143
 2337 0008 1268     		ldr	r2, [r2]
 2338 000a 8021     		mov	r1, #128
 2339 000c 4901     		lsl	r1, r1, #5
 2340 000e 0A43     		orr	r2, r1
 2341 0010 1A60     		str	r2, [r3]
1655:Generated_Source\PSoC4/engine_sensor_adc.c ****         engine_sensor_adc_UABH_B_CAP_ABCF_VAL_REG |= (0x1uL << CyUAB_SIGN_VAL_SHIFT);
 2342              		.loc 1 1655 0
 2343 0012 194B     		ldr	r3, .L143+4
 2344 0014 184A     		ldr	r2, .L143+4
 2345 0016 1268     		ldr	r2, [r2]
 2346 0018 8021     		mov	r1, #128
 2347 001a 4901     		lsl	r1, r1, #5
 2348 001c 0A43     		orr	r2, r1
 2349 001e 1A60     		str	r2, [r3]
1656:Generated_Source\PSoC4/engine_sensor_adc.c ****         
1657:Generated_Source\PSoC4/engine_sensor_adc.c ****         /* Open filter output switch to isolate filter during trim. */
1658:Generated_Source\PSoC4/engine_sensor_adc.c ****         engine_sensor_adc_UABH_B_SW_CF_BOT_REG &= ~(uint32)(engine_sensor_adc_UABH_B_SW_PO_MASK);
 2350              		.loc 1 1658 0
 2351 0020 164B     		ldr	r3, .L143+8
 2352 0022 164A     		ldr	r2, .L143+8
 2353 0024 1268     		ldr	r2, [r2]
 2354 0026 1649     		ldr	r1, .L143+12
 2355 0028 0A40     		and	r2, r1
 2356 002a 1A60     		str	r2, [r3]
1659:Generated_Source\PSoC4/engine_sensor_adc.c ****         
1660:Generated_Source\PSoC4/engine_sensor_adc.c ****         /* Power on the UAB half B reference buffer. */
1661:Generated_Source\PSoC4/engine_sensor_adc.c ****         engine_sensor_adc_UABH_B_OA_CTRL_REG |= (uint32)engine_sensor_adc_UABH_B_REF_PWR_MASK;
 2357              		.loc 1 1661 0
 2358 002c 154B     		ldr	r3, .L143+16
 2359 002e 154A     		ldr	r2, .L143+16
 2360 0030 1268     		ldr	r2, [r2]
 2361 0032 E021     		mov	r1, #224
 2362 0034 C902     		lsl	r1, r1, #11
 2363 0036 0A43     		orr	r2, r1
 2364 0038 1A60     		str	r2, [r3]
1662:Generated_Source\PSoC4/engine_sensor_adc.c ****         
ARM GAS  C:\Users\fneves\AppData\Local\Temp\ccV5UskS.s 			page 72


1663:Generated_Source\PSoC4/engine_sensor_adc.c ****         /* Connect the UAB half B reference buffer to the comparator. */
1664:Generated_Source\PSoC4/engine_sensor_adc.c ****         engine_sensor_adc_UABH_B_SW_STATIC_REG |= (uint32)engine_sensor_adc_UABH_B_SW_RT_MASK;
 2365              		.loc 1 1664 0
 2366 003a 134B     		ldr	r3, .L143+20
 2367 003c 124A     		ldr	r2, .L143+20
 2368 003e 1268     		ldr	r2, [r2]
 2369 0040 8021     		mov	r1, #128
 2370 0042 4900     		lsl	r1, r1, #1
 2371 0044 0A43     		orr	r2, r1
 2372 0046 1A60     		str	r2, [r3]
1665:Generated_Source\PSoC4/engine_sensor_adc.c ****                         
1666:Generated_Source\PSoC4/engine_sensor_adc.c ****         /* Clock the UAB half B comparator with phi1. */
1667:Generated_Source\PSoC4/engine_sensor_adc.c ****         engine_sensor_adc_UABH_B_SW_OTHER_REG &= ~(uint32)engine_sensor_adc_UABH_B_CMP_FF_MASK;
 2373              		.loc 1 1667 0
 2374 0048 104B     		ldr	r3, .L143+24
 2375 004a 104A     		ldr	r2, .L143+24
 2376 004c 1268     		ldr	r2, [r2]
 2377 004e 0F21     		mov	r1, #15
 2378 0050 8A43     		bic	r2, r1
 2379 0052 1A60     		str	r2, [r3]
1668:Generated_Source\PSoC4/engine_sensor_adc.c ****         engine_sensor_adc_UABH_B_SW_OTHER_REG |= (uint32)((uint32)CyUAB_CLK_PHI1 << engine_sensor_a
 2380              		.loc 1 1668 0
 2381 0054 0D4B     		ldr	r3, .L143+24
 2382 0056 0D4A     		ldr	r2, .L143+24
 2383 0058 1268     		ldr	r2, [r2]
 2384 005a 0121     		mov	r1, #1
 2385 005c 0A43     		orr	r2, r1
 2386 005e 1A60     		str	r2, [r3]
1669:Generated_Source\PSoC4/engine_sensor_adc.c ****         
1670:Generated_Source\PSoC4/engine_sensor_adc.c ****         /* Power on the UAB half B comparator. */
1671:Generated_Source\PSoC4/engine_sensor_adc.c ****         engine_sensor_adc_UABH_B_OA_CTRL_REG |= (uint32)engine_sensor_adc_UABH_B_CMP_PWR_MASK;
 2387              		.loc 1 1671 0
 2388 0060 084B     		ldr	r3, .L143+16
 2389 0062 084A     		ldr	r2, .L143+16
 2390 0064 1268     		ldr	r2, [r2]
 2391 0066 E021     		mov	r1, #224
 2392 0068 C900     		lsl	r1, r1, #3
 2393 006a 0A43     		orr	r2, r1
 2394 006c 1A60     		str	r2, [r3]
1672:Generated_Source\PSoC4/engine_sensor_adc.c ****     }
 2395              		.loc 1 1672 0
 2396 006e BD46     		mov	sp, r7
 2397              		@ sp needed
 2398 0070 80BD     		pop	{r7, pc}
 2399              	.L144:
 2400 0072 C046     		.align	2
 2401              	.L143:
 2402 0074 08033440 		.word	1077150472
 2403 0078 08023440 		.word	1077150216
 2404 007c 6C023440 		.word	1077150316
 2405 0080 FF0FFFFF 		.word	-61441
 2406 0084 00023440 		.word	1077150208
 2407 0088 30023440 		.word	1077150256
 2408 008c 70023440 		.word	1077150320
 2409              		.cfi_endproc
 2410              	.LFE26:
 2411              		.size	engine_sensor_adc_SetupComparatorTrim, .-engine_sensor_adc_SetupComparatorTrim
ARM GAS  C:\Users\fneves\AppData\Local\Temp\ccV5UskS.s 			page 73


 2412              		.section	.text.engine_sensor_adc_UndoComparatorTrimSetup,"ax",%progbits
 2413              		.align	2
 2414              		.code	16
 2415              		.thumb_func
 2416              		.type	engine_sensor_adc_UndoComparatorTrimSetup, %function
 2417              	engine_sensor_adc_UndoComparatorTrimSetup:
 2418              	.LFB27:
1673:Generated_Source\PSoC4/engine_sensor_adc.c ****     
1674:Generated_Source\PSoC4/engine_sensor_adc.c ****     
1675:Generated_Source\PSoC4/engine_sensor_adc.c ****     static void engine_sensor_adc_UndoComparatorTrimSetup(void)
1676:Generated_Source\PSoC4/engine_sensor_adc.c ****     {
 2419              		.loc 1 1676 0
 2420              		.cfi_startproc
 2421 0000 80B5     		push	{r7, lr}
 2422              		.cfi_def_cfa_offset 8
 2423              		.cfi_offset 7, -8
 2424              		.cfi_offset 14, -4
 2425 0002 00AF     		add	r7, sp, #0
 2426              		.cfi_def_cfa_register 7
1677:Generated_Source\PSoC4/engine_sensor_adc.c ****         /* Power off the UAB half B comparator. */
1678:Generated_Source\PSoC4/engine_sensor_adc.c ****         engine_sensor_adc_UABH_B_OA_CTRL_REG &= ~(uint32)engine_sensor_adc_UABH_B_CMP_PWR_MASK;
 2427              		.loc 1 1678 0
 2428 0004 1B4B     		ldr	r3, .L146
 2429 0006 1B4A     		ldr	r2, .L146
 2430 0008 1268     		ldr	r2, [r2]
 2431 000a 1B49     		ldr	r1, .L146+4
 2432 000c 0A40     		and	r2, r1
 2433 000e 1A60     		str	r2, [r3]
1679:Generated_Source\PSoC4/engine_sensor_adc.c ****         
1680:Generated_Source\PSoC4/engine_sensor_adc.c ****         /* Remove clock from the UAB half B comparator. */
1681:Generated_Source\PSoC4/engine_sensor_adc.c ****         engine_sensor_adc_UABH_B_SW_OTHER_REG &= ~(uint32)engine_sensor_adc_UABH_B_CMP_FF_MASK;
 2434              		.loc 1 1681 0
 2435 0010 1A4B     		ldr	r3, .L146+8
 2436 0012 1A4A     		ldr	r2, .L146+8
 2437 0014 1268     		ldr	r2, [r2]
 2438 0016 0F21     		mov	r1, #15
 2439 0018 8A43     		bic	r2, r1
 2440 001a 1A60     		str	r2, [r3]
1682:Generated_Source\PSoC4/engine_sensor_adc.c ****         engine_sensor_adc_UABH_B_SW_OTHER_REG |= (uint32)((uint32)CyUAB_SW_OPEN << engine_sensor_ad
 2441              		.loc 1 1682 0
 2442 001c 174B     		ldr	r3, .L146+8
 2443 001e 174A     		ldr	r2, .L146+8
 2444 0020 1268     		ldr	r2, [r2]
 2445 0022 1A60     		str	r2, [r3]
1683:Generated_Source\PSoC4/engine_sensor_adc.c ****         
1684:Generated_Source\PSoC4/engine_sensor_adc.c ****         /* Disconnect the UAB half B reference buffer from the comparator. */
1685:Generated_Source\PSoC4/engine_sensor_adc.c ****         engine_sensor_adc_UABH_B_SW_STATIC_REG &= ~(uint32)engine_sensor_adc_UABH_B_SW_RT_MASK;
 2446              		.loc 1 1685 0
 2447 0024 164B     		ldr	r3, .L146+12
 2448 0026 164A     		ldr	r2, .L146+12
 2449 0028 1268     		ldr	r2, [r2]
 2450 002a 1649     		ldr	r1, .L146+16
 2451 002c 0A40     		and	r2, r1
 2452 002e 1A60     		str	r2, [r3]
1686:Generated_Source\PSoC4/engine_sensor_adc.c ****                         
1687:Generated_Source\PSoC4/engine_sensor_adc.c ****         /* Power off the UAB half B reference buffer. */
1688:Generated_Source\PSoC4/engine_sensor_adc.c ****         engine_sensor_adc_UABH_B_OA_CTRL_REG &= ~(uint32)engine_sensor_adc_UABH_B_REF_PWR_MASK;
ARM GAS  C:\Users\fneves\AppData\Local\Temp\ccV5UskS.s 			page 74


 2453              		.loc 1 1688 0
 2454 0030 104B     		ldr	r3, .L146
 2455 0032 104A     		ldr	r2, .L146
 2456 0034 1268     		ldr	r2, [r2]
 2457 0036 1449     		ldr	r1, .L146+20
 2458 0038 0A40     		and	r2, r1
 2459 003a 1A60     		str	r2, [r3]
1689:Generated_Source\PSoC4/engine_sensor_adc.c ****         
1690:Generated_Source\PSoC4/engine_sensor_adc.c ****         /* Close filter output switch to connect filter to AROUTE. */
1691:Generated_Source\PSoC4/engine_sensor_adc.c ****         engine_sensor_adc_UABH_B_SW_CF_BOT_REG &= ~(uint32)(engine_sensor_adc_UABH_B_SW_PO_MASK);
 2460              		.loc 1 1691 0
 2461 003c 134B     		ldr	r3, .L146+24
 2462 003e 134A     		ldr	r2, .L146+24
 2463 0040 1268     		ldr	r2, [r2]
 2464 0042 1349     		ldr	r1, .L146+28
 2465 0044 0A40     		and	r2, r1
 2466 0046 1A60     		str	r2, [r3]
1692:Generated_Source\PSoC4/engine_sensor_adc.c ****         engine_sensor_adc_UABH_B_SW_CF_BOT_REG |= (uint32)((uint32)CyUAB_CLK_PHI3 << engine_sensor_
 2467              		.loc 1 1692 0
 2468 0048 104B     		ldr	r3, .L146+24
 2469 004a 104A     		ldr	r2, .L146+24
 2470 004c 1268     		ldr	r2, [r2]
 2471 004e C021     		mov	r1, #192
 2472 0050 8901     		lsl	r1, r1, #6
 2473 0052 0A43     		orr	r2, r1
 2474 0054 1A60     		str	r2, [r3]
1693:Generated_Source\PSoC4/engine_sensor_adc.c ****         
1694:Generated_Source\PSoC4/engine_sensor_adc.c ****         /* Clear the modbit */
1695:Generated_Source\PSoC4/engine_sensor_adc.c ****         engine_sensor_adc_UABH_A_CAP_ABCF_VAL_REG &= ~(0x1uL << CyUAB_SIGN_VAL_SHIFT);
 2475              		.loc 1 1695 0
 2476 0056 0F4B     		ldr	r3, .L146+32
 2477 0058 0E4A     		ldr	r2, .L146+32
 2478 005a 1268     		ldr	r2, [r2]
 2479 005c 0E49     		ldr	r1, .L146+36
 2480 005e 0A40     		and	r2, r1
 2481 0060 1A60     		str	r2, [r3]
1696:Generated_Source\PSoC4/engine_sensor_adc.c ****         engine_sensor_adc_UABH_B_CAP_ABCF_VAL_REG &= ~(0x1uL << CyUAB_SIGN_VAL_SHIFT);
 2482              		.loc 1 1696 0
 2483 0062 0E4B     		ldr	r3, .L146+40
 2484 0064 0D4A     		ldr	r2, .L146+40
 2485 0066 1268     		ldr	r2, [r2]
 2486 0068 0B49     		ldr	r1, .L146+36
 2487 006a 0A40     		and	r2, r1
 2488 006c 1A60     		str	r2, [r3]
1697:Generated_Source\PSoC4/engine_sensor_adc.c ****     }
 2489              		.loc 1 1697 0
 2490 006e BD46     		mov	sp, r7
 2491              		@ sp needed
 2492 0070 80BD     		pop	{r7, pc}
 2493              	.L147:
 2494 0072 C046     		.align	2
 2495              	.L146:
 2496 0074 00023440 		.word	1077150208
 2497 0078 FFF8FFFF 		.word	-1793
 2498 007c 70023440 		.word	1077150320
 2499 0080 30023440 		.word	1077150256
 2500 0084 FFFEFFFF 		.word	-257
ARM GAS  C:\Users\fneves\AppData\Local\Temp\ccV5UskS.s 			page 75


 2501 0088 FFFFF8FF 		.word	-458753
 2502 008c 6C023440 		.word	1077150316
 2503 0090 FF0FFFFF 		.word	-61441
 2504 0094 08033440 		.word	1077150472
 2505 0098 FFEFFFFF 		.word	-4097
 2506 009c 08023440 		.word	1077150216
 2507              		.cfi_endproc
 2508              	.LFE27:
 2509              		.size	engine_sensor_adc_UndoComparatorTrimSetup, .-engine_sensor_adc_UndoComparatorTrimSetup
 2510              		.section	.text.engine_sensor_adc_RaiseOpampTrimToCrossing,"ax",%progbits
 2511              		.align	2
 2512              		.code	16
 2513              		.thumb_func
 2514              		.type	engine_sensor_adc_RaiseOpampTrimToCrossing, %function
 2515              	engine_sensor_adc_RaiseOpampTrimToCrossing:
 2516              	.LFB28:
1698:Generated_Source\PSoC4/engine_sensor_adc.c ****     
1699:Generated_Source\PSoC4/engine_sensor_adc.c ****     
1700:Generated_Source\PSoC4/engine_sensor_adc.c ****     static uint32 engine_sensor_adc_RaiseOpampTrimToCrossing(uint32 startTrim)
1701:Generated_Source\PSoC4/engine_sensor_adc.c ****     {
 2517              		.loc 1 1701 0
 2518              		.cfi_startproc
 2519 0000 80B5     		push	{r7, lr}
 2520              		.cfi_def_cfa_offset 8
 2521              		.cfi_offset 7, -8
 2522              		.cfi_offset 14, -4
 2523 0002 86B0     		sub	sp, sp, #24
 2524              		.cfi_def_cfa_offset 32
 2525 0004 00AF     		add	r7, sp, #0
 2526              		.cfi_def_cfa_register 7
 2527 0006 7860     		str	r0, [r7, #4]
1702:Generated_Source\PSoC4/engine_sensor_adc.c ****         uint32 opampTrim;
1703:Generated_Source\PSoC4/engine_sensor_adc.c ****         uint32 lastOpampTrim;
1704:Generated_Source\PSoC4/engine_sensor_adc.c ****         uint32 compStatus;
1705:Generated_Source\PSoC4/engine_sensor_adc.c **** 
1706:Generated_Source\PSoC4/engine_sensor_adc.c ****         lastOpampTrim = startTrim;
 2528              		.loc 1 1706 0
 2529 0008 7B68     		ldr	r3, [r7, #4]
 2530 000a 3B61     		str	r3, [r7, #16]
1707:Generated_Source\PSoC4/engine_sensor_adc.c ****         for (opampTrim = startTrim;
 2531              		.loc 1 1707 0
 2532 000c 7B68     		ldr	r3, [r7, #4]
 2533 000e 7B61     		str	r3, [r7, #20]
 2534 0010 16E0     		b	.L149
 2535              	.L152:
1708:Generated_Source\PSoC4/engine_sensor_adc.c ****             opampTrim != engine_sensor_adc_OPAMP_TRIM_NEG_LIMIT;
1709:Generated_Source\PSoC4/engine_sensor_adc.c ****             opampTrim = engine_sensor_adc_IncOpampTrim(opampTrim))
1710:Generated_Source\PSoC4/engine_sensor_adc.c ****         {
1711:Generated_Source\PSoC4/engine_sensor_adc.c ****             compStatus = engine_sensor_adc_SetOpampAndAgndTrim(opampTrim, engine_sensor_adc_AGND_TR
 2536              		.loc 1 1711 0
 2537 0012 7B69     		ldr	r3, [r7, #20]
 2538 0014 181C     		mov	r0, r3
 2539 0016 0021     		mov	r1, #0
 2540 0018 FFF7FEFF 		bl	engine_sensor_adc_SetOpampAndAgndTrim
 2541 001c 031C     		mov	r3, r0
 2542 001e FB60     		str	r3, [r7, #12]
1712:Generated_Source\PSoC4/engine_sensor_adc.c ****             if (0uL != compStatus)
ARM GAS  C:\Users\fneves\AppData\Local\Temp\ccV5UskS.s 			page 76


 2543              		.loc 1 1712 0
 2544 0020 FB68     		ldr	r3, [r7, #12]
 2545 0022 002B     		cmp	r3, #0
 2546 0024 04D0     		beq	.L150
1713:Generated_Source\PSoC4/engine_sensor_adc.c ****             {
1714:Generated_Source\PSoC4/engine_sensor_adc.c ****                 (void) engine_sensor_adc_SetOpampTrim(lastOpampTrim);
 2547              		.loc 1 1714 0
 2548 0026 3B69     		ldr	r3, [r7, #16]
 2549 0028 181C     		mov	r0, r3
 2550 002a FFF7FEFF 		bl	engine_sensor_adc_SetOpampTrim
1715:Generated_Source\PSoC4/engine_sensor_adc.c ****                 break;
 2551              		.loc 1 1715 0
 2552 002e 0AE0     		b	.L151
 2553              	.L150:
1716:Generated_Source\PSoC4/engine_sensor_adc.c ****             }
1717:Generated_Source\PSoC4/engine_sensor_adc.c ****             lastOpampTrim = opampTrim;
 2554              		.loc 1 1717 0
 2555 0030 7B69     		ldr	r3, [r7, #20]
 2556 0032 3B61     		str	r3, [r7, #16]
1709:Generated_Source\PSoC4/engine_sensor_adc.c ****         {
 2557              		.loc 1 1709 0
 2558 0034 7B69     		ldr	r3, [r7, #20]
 2559 0036 181C     		mov	r0, r3
 2560 0038 FFF7FEFF 		bl	engine_sensor_adc_IncOpampTrim
 2561 003c 031C     		mov	r3, r0
 2562 003e 7B61     		str	r3, [r7, #20]
 2563              	.L149:
1707:Generated_Source\PSoC4/engine_sensor_adc.c ****             opampTrim != engine_sensor_adc_OPAMP_TRIM_NEG_LIMIT;
 2564              		.loc 1 1707 0 discriminator 1
 2565 0040 7B69     		ldr	r3, [r7, #20]
 2566 0042 102B     		cmp	r3, #16
 2567 0044 E5D1     		bne	.L152
 2568              	.L151:
1718:Generated_Source\PSoC4/engine_sensor_adc.c ****         }
1719:Generated_Source\PSoC4/engine_sensor_adc.c ****         
1720:Generated_Source\PSoC4/engine_sensor_adc.c ****         return lastOpampTrim;
 2569              		.loc 1 1720 0
 2570 0046 3B69     		ldr	r3, [r7, #16]
1721:Generated_Source\PSoC4/engine_sensor_adc.c ****     }
 2571              		.loc 1 1721 0
 2572 0048 181C     		mov	r0, r3
 2573 004a BD46     		mov	sp, r7
 2574 004c 06B0     		add	sp, sp, #24
 2575              		@ sp needed
 2576 004e 80BD     		pop	{r7, pc}
 2577              		.cfi_endproc
 2578              	.LFE28:
 2579              		.size	engine_sensor_adc_RaiseOpampTrimToCrossing, .-engine_sensor_adc_RaiseOpampTrimToCrossing
 2580              		.section	.text.engine_sensor_adc_LowerOpampTrimToCrossing,"ax",%progbits
 2581              		.align	2
 2582              		.code	16
 2583              		.thumb_func
 2584              		.type	engine_sensor_adc_LowerOpampTrimToCrossing, %function
 2585              	engine_sensor_adc_LowerOpampTrimToCrossing:
 2586              	.LFB29:
1722:Generated_Source\PSoC4/engine_sensor_adc.c **** 
1723:Generated_Source\PSoC4/engine_sensor_adc.c **** 
ARM GAS  C:\Users\fneves\AppData\Local\Temp\ccV5UskS.s 			page 77


1724:Generated_Source\PSoC4/engine_sensor_adc.c ****     static uint32 engine_sensor_adc_LowerOpampTrimToCrossing(uint32 startTrim)
1725:Generated_Source\PSoC4/engine_sensor_adc.c ****     {
 2587              		.loc 1 1725 0
 2588              		.cfi_startproc
 2589 0000 80B5     		push	{r7, lr}
 2590              		.cfi_def_cfa_offset 8
 2591              		.cfi_offset 7, -8
 2592              		.cfi_offset 14, -4
 2593 0002 86B0     		sub	sp, sp, #24
 2594              		.cfi_def_cfa_offset 32
 2595 0004 00AF     		add	r7, sp, #0
 2596              		.cfi_def_cfa_register 7
 2597 0006 7860     		str	r0, [r7, #4]
1726:Generated_Source\PSoC4/engine_sensor_adc.c ****         uint32 opampTrim;
1727:Generated_Source\PSoC4/engine_sensor_adc.c ****         uint32 lastOpampTrim;
1728:Generated_Source\PSoC4/engine_sensor_adc.c ****         uint32 compStatus;
1729:Generated_Source\PSoC4/engine_sensor_adc.c **** 
1730:Generated_Source\PSoC4/engine_sensor_adc.c ****         lastOpampTrim = startTrim;
 2598              		.loc 1 1730 0
 2599 0008 7B68     		ldr	r3, [r7, #4]
 2600 000a 3B61     		str	r3, [r7, #16]
1731:Generated_Source\PSoC4/engine_sensor_adc.c ****         for (opampTrim = startTrim;
 2601              		.loc 1 1731 0
 2602 000c 7B68     		ldr	r3, [r7, #4]
 2603 000e 7B61     		str	r3, [r7, #20]
 2604 0010 16E0     		b	.L155
 2605              	.L158:
1732:Generated_Source\PSoC4/engine_sensor_adc.c ****             opampTrim != engine_sensor_adc_OPAMP_TRIM_NEG_LIMIT;
1733:Generated_Source\PSoC4/engine_sensor_adc.c ****             opampTrim = engine_sensor_adc_DecOpampTrim(opampTrim))
1734:Generated_Source\PSoC4/engine_sensor_adc.c ****         {
1735:Generated_Source\PSoC4/engine_sensor_adc.c ****             compStatus = engine_sensor_adc_SetOpampAndAgndTrim(opampTrim, engine_sensor_adc_AGND_TR
 2606              		.loc 1 1735 0
 2607 0012 7B69     		ldr	r3, [r7, #20]
 2608 0014 181C     		mov	r0, r3
 2609 0016 0021     		mov	r1, #0
 2610 0018 FFF7FEFF 		bl	engine_sensor_adc_SetOpampAndAgndTrim
 2611 001c 031C     		mov	r3, r0
 2612 001e FB60     		str	r3, [r7, #12]
1736:Generated_Source\PSoC4/engine_sensor_adc.c ****             if (0uL == compStatus)
 2613              		.loc 1 1736 0
 2614 0020 FB68     		ldr	r3, [r7, #12]
 2615 0022 002B     		cmp	r3, #0
 2616 0024 04D1     		bne	.L156
1737:Generated_Source\PSoC4/engine_sensor_adc.c ****             {
1738:Generated_Source\PSoC4/engine_sensor_adc.c ****                 (void) engine_sensor_adc_SetOpampTrim(lastOpampTrim);
 2617              		.loc 1 1738 0
 2618 0026 3B69     		ldr	r3, [r7, #16]
 2619 0028 181C     		mov	r0, r3
 2620 002a FFF7FEFF 		bl	engine_sensor_adc_SetOpampTrim
1739:Generated_Source\PSoC4/engine_sensor_adc.c ****                 break;
 2621              		.loc 1 1739 0
 2622 002e 0AE0     		b	.L157
 2623              	.L156:
1740:Generated_Source\PSoC4/engine_sensor_adc.c ****             }
1741:Generated_Source\PSoC4/engine_sensor_adc.c ****             lastOpampTrim = opampTrim;
 2624              		.loc 1 1741 0
 2625 0030 7B69     		ldr	r3, [r7, #20]
ARM GAS  C:\Users\fneves\AppData\Local\Temp\ccV5UskS.s 			page 78


 2626 0032 3B61     		str	r3, [r7, #16]
1733:Generated_Source\PSoC4/engine_sensor_adc.c ****         {
 2627              		.loc 1 1733 0
 2628 0034 7B69     		ldr	r3, [r7, #20]
 2629 0036 181C     		mov	r0, r3
 2630 0038 FFF7FEFF 		bl	engine_sensor_adc_DecOpampTrim
 2631 003c 031C     		mov	r3, r0
 2632 003e 7B61     		str	r3, [r7, #20]
 2633              	.L155:
1731:Generated_Source\PSoC4/engine_sensor_adc.c ****             opampTrim != engine_sensor_adc_OPAMP_TRIM_NEG_LIMIT;
 2634              		.loc 1 1731 0 discriminator 1
 2635 0040 7B69     		ldr	r3, [r7, #20]
 2636 0042 102B     		cmp	r3, #16
 2637 0044 E5D1     		bne	.L158
 2638              	.L157:
1742:Generated_Source\PSoC4/engine_sensor_adc.c ****         }
1743:Generated_Source\PSoC4/engine_sensor_adc.c ****         
1744:Generated_Source\PSoC4/engine_sensor_adc.c ****         return lastOpampTrim;
 2639              		.loc 1 1744 0
 2640 0046 3B69     		ldr	r3, [r7, #16]
1745:Generated_Source\PSoC4/engine_sensor_adc.c ****     }
 2641              		.loc 1 1745 0
 2642 0048 181C     		mov	r0, r3
 2643 004a BD46     		mov	sp, r7
 2644 004c 06B0     		add	sp, sp, #24
 2645              		@ sp needed
 2646 004e 80BD     		pop	{r7, pc}
 2647              		.cfi_endproc
 2648              	.LFE29:
 2649              		.size	engine_sensor_adc_LowerOpampTrimToCrossing, .-engine_sensor_adc_LowerOpampTrimToCrossing
 2650              		.section	.text.engine_sensor_adc_RaiseAgndTrimToCrossing,"ax",%progbits
 2651              		.align	2
 2652              		.code	16
 2653              		.thumb_func
 2654              		.type	engine_sensor_adc_RaiseAgndTrimToCrossing, %function
 2655              	engine_sensor_adc_RaiseAgndTrimToCrossing:
 2656              	.LFB30:
1746:Generated_Source\PSoC4/engine_sensor_adc.c **** 
1747:Generated_Source\PSoC4/engine_sensor_adc.c **** 
1748:Generated_Source\PSoC4/engine_sensor_adc.c ****     static uint32 engine_sensor_adc_RaiseAgndTrimToCrossing(uint32 startTrim)
1749:Generated_Source\PSoC4/engine_sensor_adc.c ****     {
 2657              		.loc 1 1749 0
 2658              		.cfi_startproc
 2659 0000 80B5     		push	{r7, lr}
 2660              		.cfi_def_cfa_offset 8
 2661              		.cfi_offset 7, -8
 2662              		.cfi_offset 14, -4
 2663 0002 86B0     		sub	sp, sp, #24
 2664              		.cfi_def_cfa_offset 32
 2665 0004 00AF     		add	r7, sp, #0
 2666              		.cfi_def_cfa_register 7
 2667 0006 7860     		str	r0, [r7, #4]
1750:Generated_Source\PSoC4/engine_sensor_adc.c ****         uint32 agndTrim;
1751:Generated_Source\PSoC4/engine_sensor_adc.c ****         uint32 lastAgndTrim;
1752:Generated_Source\PSoC4/engine_sensor_adc.c ****         uint32 compStatus;
1753:Generated_Source\PSoC4/engine_sensor_adc.c **** 
1754:Generated_Source\PSoC4/engine_sensor_adc.c ****         lastAgndTrim = startTrim;
ARM GAS  C:\Users\fneves\AppData\Local\Temp\ccV5UskS.s 			page 79


 2668              		.loc 1 1754 0
 2669 0008 7B68     		ldr	r3, [r7, #4]
 2670 000a 3B61     		str	r3, [r7, #16]
1755:Generated_Source\PSoC4/engine_sensor_adc.c ****         for (agndTrim = startTrim;
 2671              		.loc 1 1755 0
 2672 000c 7B68     		ldr	r3, [r7, #4]
 2673 000e 7B61     		str	r3, [r7, #20]
 2674 0010 15E0     		b	.L161
 2675              	.L164:
1756:Generated_Source\PSoC4/engine_sensor_adc.c ****             agndTrim != engine_sensor_adc_AGND_TRIM_NEG_LIMIT;
1757:Generated_Source\PSoC4/engine_sensor_adc.c ****             agndTrim = engine_sensor_adc_IncAgndTrim(agndTrim))
1758:Generated_Source\PSoC4/engine_sensor_adc.c ****         {
1759:Generated_Source\PSoC4/engine_sensor_adc.c ****             compStatus = engine_sensor_adc_SetAgndTrim(agndTrim);
 2676              		.loc 1 1759 0
 2677 0012 7B69     		ldr	r3, [r7, #20]
 2678 0014 181C     		mov	r0, r3
 2679 0016 FFF7FEFF 		bl	engine_sensor_adc_SetAgndTrim
 2680 001a 031C     		mov	r3, r0
 2681 001c FB60     		str	r3, [r7, #12]
1760:Generated_Source\PSoC4/engine_sensor_adc.c ****             if (0uL != compStatus)
 2682              		.loc 1 1760 0
 2683 001e FB68     		ldr	r3, [r7, #12]
 2684 0020 002B     		cmp	r3, #0
 2685 0022 04D0     		beq	.L162
1761:Generated_Source\PSoC4/engine_sensor_adc.c ****             {
1762:Generated_Source\PSoC4/engine_sensor_adc.c ****                 (void) engine_sensor_adc_SetAgndTrim(lastAgndTrim); 
 2686              		.loc 1 1762 0
 2687 0024 3B69     		ldr	r3, [r7, #16]
 2688 0026 181C     		mov	r0, r3
 2689 0028 FFF7FEFF 		bl	engine_sensor_adc_SetAgndTrim
1763:Generated_Source\PSoC4/engine_sensor_adc.c ****                 break;
 2690              		.loc 1 1763 0
 2691 002c 0AE0     		b	.L163
 2692              	.L162:
1764:Generated_Source\PSoC4/engine_sensor_adc.c ****             }
1765:Generated_Source\PSoC4/engine_sensor_adc.c ****             lastAgndTrim = agndTrim;
 2693              		.loc 1 1765 0
 2694 002e 7B69     		ldr	r3, [r7, #20]
 2695 0030 3B61     		str	r3, [r7, #16]
1757:Generated_Source\PSoC4/engine_sensor_adc.c ****         {
 2696              		.loc 1 1757 0
 2697 0032 7B69     		ldr	r3, [r7, #20]
 2698 0034 181C     		mov	r0, r3
 2699 0036 FFF7FEFF 		bl	engine_sensor_adc_IncAgndTrim
 2700 003a 031C     		mov	r3, r0
 2701 003c 7B61     		str	r3, [r7, #20]
 2702              	.L161:
1755:Generated_Source\PSoC4/engine_sensor_adc.c ****             agndTrim != engine_sensor_adc_AGND_TRIM_NEG_LIMIT;
 2703              		.loc 1 1755 0 discriminator 1
 2704 003e 7B69     		ldr	r3, [r7, #20]
 2705 0040 202B     		cmp	r3, #32
 2706 0042 E6D1     		bne	.L164
 2707              	.L163:
1766:Generated_Source\PSoC4/engine_sensor_adc.c ****         }
1767:Generated_Source\PSoC4/engine_sensor_adc.c ****         
1768:Generated_Source\PSoC4/engine_sensor_adc.c ****         return lastAgndTrim;
 2708              		.loc 1 1768 0
ARM GAS  C:\Users\fneves\AppData\Local\Temp\ccV5UskS.s 			page 80


 2709 0044 3B69     		ldr	r3, [r7, #16]
1769:Generated_Source\PSoC4/engine_sensor_adc.c ****     }
 2710              		.loc 1 1769 0
 2711 0046 181C     		mov	r0, r3
 2712 0048 BD46     		mov	sp, r7
 2713 004a 06B0     		add	sp, sp, #24
 2714              		@ sp needed
 2715 004c 80BD     		pop	{r7, pc}
 2716              		.cfi_endproc
 2717              	.LFE30:
 2718              		.size	engine_sensor_adc_RaiseAgndTrimToCrossing, .-engine_sensor_adc_RaiseAgndTrimToCrossing
 2719 004e C046     		.section	.text.engine_sensor_adc_LowerAgndTrimToCrossing,"ax",%progbits
 2720              		.align	2
 2721              		.code	16
 2722              		.thumb_func
 2723              		.type	engine_sensor_adc_LowerAgndTrimToCrossing, %function
 2724              	engine_sensor_adc_LowerAgndTrimToCrossing:
 2725              	.LFB31:
1770:Generated_Source\PSoC4/engine_sensor_adc.c ****     
1771:Generated_Source\PSoC4/engine_sensor_adc.c ****     
1772:Generated_Source\PSoC4/engine_sensor_adc.c ****     static uint32 engine_sensor_adc_LowerAgndTrimToCrossing(uint32 startTrim)
1773:Generated_Source\PSoC4/engine_sensor_adc.c ****     {
 2726              		.loc 1 1773 0
 2727              		.cfi_startproc
 2728 0000 80B5     		push	{r7, lr}
 2729              		.cfi_def_cfa_offset 8
 2730              		.cfi_offset 7, -8
 2731              		.cfi_offset 14, -4
 2732 0002 86B0     		sub	sp, sp, #24
 2733              		.cfi_def_cfa_offset 32
 2734 0004 00AF     		add	r7, sp, #0
 2735              		.cfi_def_cfa_register 7
 2736 0006 7860     		str	r0, [r7, #4]
1774:Generated_Source\PSoC4/engine_sensor_adc.c ****         uint32 agndTrim = startTrim;
 2737              		.loc 1 1774 0
 2738 0008 7B68     		ldr	r3, [r7, #4]
 2739 000a 7B61     		str	r3, [r7, #20]
1775:Generated_Source\PSoC4/engine_sensor_adc.c ****         uint32 lastAgndTrim = agndTrim;
 2740              		.loc 1 1775 0
 2741 000c 7B69     		ldr	r3, [r7, #20]
 2742 000e 3B61     		str	r3, [r7, #16]
1776:Generated_Source\PSoC4/engine_sensor_adc.c ****         uint32 compStatus = 1uL;
 2743              		.loc 1 1776 0
 2744 0010 0123     		mov	r3, #1
 2745 0012 FB60     		str	r3, [r7, #12]
1777:Generated_Source\PSoC4/engine_sensor_adc.c **** 
1778:Generated_Source\PSoC4/engine_sensor_adc.c ****         lastAgndTrim = startTrim;
 2746              		.loc 1 1778 0
 2747 0014 7B68     		ldr	r3, [r7, #4]
 2748 0016 3B61     		str	r3, [r7, #16]
1779:Generated_Source\PSoC4/engine_sensor_adc.c ****         for (agndTrim = startTrim;
 2749              		.loc 1 1779 0
 2750 0018 7B68     		ldr	r3, [r7, #4]
 2751 001a 7B61     		str	r3, [r7, #20]
 2752 001c 15E0     		b	.L167
 2753              	.L170:
1780:Generated_Source\PSoC4/engine_sensor_adc.c ****             agndTrim != engine_sensor_adc_AGND_TRIM_NEG_LIMIT;
ARM GAS  C:\Users\fneves\AppData\Local\Temp\ccV5UskS.s 			page 81


1781:Generated_Source\PSoC4/engine_sensor_adc.c ****             agndTrim = engine_sensor_adc_DecAgndTrim(agndTrim))
1782:Generated_Source\PSoC4/engine_sensor_adc.c ****         {
1783:Generated_Source\PSoC4/engine_sensor_adc.c ****             compStatus = engine_sensor_adc_SetAgndTrim(agndTrim);
 2754              		.loc 1 1783 0
 2755 001e 7B69     		ldr	r3, [r7, #20]
 2756 0020 181C     		mov	r0, r3
 2757 0022 FFF7FEFF 		bl	engine_sensor_adc_SetAgndTrim
 2758 0026 031C     		mov	r3, r0
 2759 0028 FB60     		str	r3, [r7, #12]
1784:Generated_Source\PSoC4/engine_sensor_adc.c ****             if (0uL == compStatus)
 2760              		.loc 1 1784 0
 2761 002a FB68     		ldr	r3, [r7, #12]
 2762 002c 002B     		cmp	r3, #0
 2763 002e 04D1     		bne	.L168
1785:Generated_Source\PSoC4/engine_sensor_adc.c ****             {
1786:Generated_Source\PSoC4/engine_sensor_adc.c ****                 (void) engine_sensor_adc_SetAgndTrim(lastAgndTrim); 
 2764              		.loc 1 1786 0
 2765 0030 3B69     		ldr	r3, [r7, #16]
 2766 0032 181C     		mov	r0, r3
 2767 0034 FFF7FEFF 		bl	engine_sensor_adc_SetAgndTrim
1787:Generated_Source\PSoC4/engine_sensor_adc.c ****                 break;
 2768              		.loc 1 1787 0
 2769 0038 0AE0     		b	.L169
 2770              	.L168:
1788:Generated_Source\PSoC4/engine_sensor_adc.c ****             }
1789:Generated_Source\PSoC4/engine_sensor_adc.c ****             lastAgndTrim = agndTrim;
 2771              		.loc 1 1789 0
 2772 003a 7B69     		ldr	r3, [r7, #20]
 2773 003c 3B61     		str	r3, [r7, #16]
1781:Generated_Source\PSoC4/engine_sensor_adc.c ****         {
 2774              		.loc 1 1781 0
 2775 003e 7B69     		ldr	r3, [r7, #20]
 2776 0040 181C     		mov	r0, r3
 2777 0042 FFF7FEFF 		bl	engine_sensor_adc_DecAgndTrim
 2778 0046 031C     		mov	r3, r0
 2779 0048 7B61     		str	r3, [r7, #20]
 2780              	.L167:
1779:Generated_Source\PSoC4/engine_sensor_adc.c ****             agndTrim != engine_sensor_adc_AGND_TRIM_NEG_LIMIT;
 2781              		.loc 1 1779 0 discriminator 1
 2782 004a 7B69     		ldr	r3, [r7, #20]
 2783 004c 202B     		cmp	r3, #32
 2784 004e E6D1     		bne	.L170
 2785              	.L169:
1790:Generated_Source\PSoC4/engine_sensor_adc.c ****         }
1791:Generated_Source\PSoC4/engine_sensor_adc.c ****         
1792:Generated_Source\PSoC4/engine_sensor_adc.c ****         return lastAgndTrim;
 2786              		.loc 1 1792 0
 2787 0050 3B69     		ldr	r3, [r7, #16]
1793:Generated_Source\PSoC4/engine_sensor_adc.c ****     }
 2788              		.loc 1 1793 0
 2789 0052 181C     		mov	r0, r3
 2790 0054 BD46     		mov	sp, r7
 2791 0056 06B0     		add	sp, sp, #24
 2792              		@ sp needed
 2793 0058 80BD     		pop	{r7, pc}
 2794              		.cfi_endproc
 2795              	.LFE31:
ARM GAS  C:\Users\fneves\AppData\Local\Temp\ccV5UskS.s 			page 82


 2796              		.size	engine_sensor_adc_LowerAgndTrimToCrossing, .-engine_sensor_adc_LowerAgndTrimToCrossing
 2797 005a C046     		.section	.text.engine_sensor_adc_SetOpampAndAgndTrim,"ax",%progbits
 2798              		.align	2
 2799              		.code	16
 2800              		.thumb_func
 2801              		.type	engine_sensor_adc_SetOpampAndAgndTrim, %function
 2802              	engine_sensor_adc_SetOpampAndAgndTrim:
 2803              	.LFB32:
1794:Generated_Source\PSoC4/engine_sensor_adc.c ****     
1795:Generated_Source\PSoC4/engine_sensor_adc.c ****     
1796:Generated_Source\PSoC4/engine_sensor_adc.c ****     static uint32 engine_sensor_adc_SetOpampAndAgndTrim(uint32 opampTrim, uint32 agndTrim)
1797:Generated_Source\PSoC4/engine_sensor_adc.c ****     {
 2804              		.loc 1 1797 0
 2805              		.cfi_startproc
 2806 0000 80B5     		push	{r7, lr}
 2807              		.cfi_def_cfa_offset 8
 2808              		.cfi_offset 7, -8
 2809              		.cfi_offset 14, -4
 2810 0002 84B0     		sub	sp, sp, #16
 2811              		.cfi_def_cfa_offset 24
 2812 0004 00AF     		add	r7, sp, #0
 2813              		.cfi_def_cfa_register 7
 2814 0006 7860     		str	r0, [r7, #4]
 2815 0008 3960     		str	r1, [r7]
1798:Generated_Source\PSoC4/engine_sensor_adc.c ****         uint32 compStatus = 0uL;
 2816              		.loc 1 1798 0
 2817 000a 0023     		mov	r3, #0
 2818 000c FB60     		str	r3, [r7, #12]
1799:Generated_Source\PSoC4/engine_sensor_adc.c ****  
1800:Generated_Source\PSoC4/engine_sensor_adc.c ****         uint32 trimRegVal = engine_sensor_adc_UABH_A_OA_TRIM_REG;
 2819              		.loc 1 1800 0
 2820 000e 124B     		ldr	r3, .L174
 2821 0010 1B68     		ldr	r3, [r3]
 2822 0012 BB60     		str	r3, [r7, #8]
1801:Generated_Source\PSoC4/engine_sensor_adc.c ****         trimRegVal &= ~(engine_sensor_adc_OPAMP_TRIM_MASK << CyUAB_OA_OFFSET_SHIFT);
 2823              		.loc 1 1801 0
 2824 0014 BB68     		ldr	r3, [r7, #8]
 2825 0016 0F22     		mov	r2, #15
 2826 0018 9343     		bic	r3, r2
 2827 001a BB60     		str	r3, [r7, #8]
1802:Generated_Source\PSoC4/engine_sensor_adc.c ****         trimRegVal |= (opampTrim << CyUAB_OA_OFFSET_SHIFT);
 2828              		.loc 1 1802 0
 2829 001c BA68     		ldr	r2, [r7, #8]
 2830 001e 7B68     		ldr	r3, [r7, #4]
 2831 0020 1343     		orr	r3, r2
 2832 0022 BB60     		str	r3, [r7, #8]
1803:Generated_Source\PSoC4/engine_sensor_adc.c ****         trimRegVal &= ~(engine_sensor_adc_AGND_TRIM_MASK << CyUAB_AGND_OFFSET_SHIFT);
 2833              		.loc 1 1803 0
 2834 0024 BB68     		ldr	r3, [r7, #8]
 2835 0026 0D4A     		ldr	r2, .L174+4
 2836 0028 1340     		and	r3, r2
 2837 002a BB60     		str	r3, [r7, #8]
1804:Generated_Source\PSoC4/engine_sensor_adc.c ****         trimRegVal |= (agndTrim << CyUAB_AGND_OFFSET_SHIFT);
 2838              		.loc 1 1804 0
 2839 002c 3B68     		ldr	r3, [r7]
 2840 002e 1B04     		lsl	r3, r3, #16
 2841 0030 BA68     		ldr	r2, [r7, #8]
ARM GAS  C:\Users\fneves\AppData\Local\Temp\ccV5UskS.s 			page 83


 2842 0032 1343     		orr	r3, r2
 2843 0034 BB60     		str	r3, [r7, #8]
1805:Generated_Source\PSoC4/engine_sensor_adc.c ****         engine_sensor_adc_UABH_A_OA_TRIM_REG = trimRegVal;
 2844              		.loc 1 1805 0
 2845 0036 084B     		ldr	r3, .L174
 2846 0038 BA68     		ldr	r2, [r7, #8]
 2847 003a 1A60     		str	r2, [r3]
1806:Generated_Source\PSoC4/engine_sensor_adc.c ****         
1807:Generated_Source\PSoC4/engine_sensor_adc.c ****         CyDelayUs(100u);
 2848              		.loc 1 1807 0
 2849 003c 6420     		mov	r0, #100
 2850 003e FFF7FEFF 		bl	CyDelayUs
1808:Generated_Source\PSoC4/engine_sensor_adc.c ****         
1809:Generated_Source\PSoC4/engine_sensor_adc.c ****         compStatus = engine_sensor_adc_UABH_B_STAT_REG & engine_sensor_adc_UABH_B_COMP_MASK;
 2851              		.loc 1 1809 0
 2852 0042 074B     		ldr	r3, .L174+8
 2853 0044 1B68     		ldr	r3, [r3]
 2854 0046 1022     		mov	r2, #16
 2855 0048 1340     		and	r3, r2
 2856 004a FB60     		str	r3, [r7, #12]
1810:Generated_Source\PSoC4/engine_sensor_adc.c ****         
1811:Generated_Source\PSoC4/engine_sensor_adc.c ****         return compStatus;
 2857              		.loc 1 1811 0
 2858 004c FB68     		ldr	r3, [r7, #12]
1812:Generated_Source\PSoC4/engine_sensor_adc.c ****     }
 2859              		.loc 1 1812 0
 2860 004e 181C     		mov	r0, r3
 2861 0050 BD46     		mov	sp, r7
 2862 0052 04B0     		add	sp, sp, #16
 2863              		@ sp needed
 2864 0054 80BD     		pop	{r7, pc}
 2865              	.L175:
 2866 0056 C046     		.align	2
 2867              	.L174:
 2868 0058 0C0F3440 		.word	1077153548
 2869 005c FFFFE0FF 		.word	-2031617
 2870 0060 7C023440 		.word	1077150332
 2871              		.cfi_endproc
 2872              	.LFE32:
 2873              		.size	engine_sensor_adc_SetOpampAndAgndTrim, .-engine_sensor_adc_SetOpampAndAgndTrim
 2874              		.section	.text.engine_sensor_adc_SetOpampTrim,"ax",%progbits
 2875              		.align	2
 2876              		.code	16
 2877              		.thumb_func
 2878              		.type	engine_sensor_adc_SetOpampTrim, %function
 2879              	engine_sensor_adc_SetOpampTrim:
 2880              	.LFB33:
1813:Generated_Source\PSoC4/engine_sensor_adc.c ****     
1814:Generated_Source\PSoC4/engine_sensor_adc.c ****     
1815:Generated_Source\PSoC4/engine_sensor_adc.c ****     static uint32 engine_sensor_adc_SetOpampTrim(uint32 opampTrim)
1816:Generated_Source\PSoC4/engine_sensor_adc.c ****     {
 2881              		.loc 1 1816 0
 2882              		.cfi_startproc
 2883 0000 80B5     		push	{r7, lr}
 2884              		.cfi_def_cfa_offset 8
 2885              		.cfi_offset 7, -8
 2886              		.cfi_offset 14, -4
ARM GAS  C:\Users\fneves\AppData\Local\Temp\ccV5UskS.s 			page 84


 2887 0002 84B0     		sub	sp, sp, #16
 2888              		.cfi_def_cfa_offset 24
 2889 0004 00AF     		add	r7, sp, #0
 2890              		.cfi_def_cfa_register 7
 2891 0006 7860     		str	r0, [r7, #4]
1817:Generated_Source\PSoC4/engine_sensor_adc.c ****         uint32 compStatus = 0uL;
 2892              		.loc 1 1817 0
 2893 0008 0023     		mov	r3, #0
 2894 000a FB60     		str	r3, [r7, #12]
1818:Generated_Source\PSoC4/engine_sensor_adc.c ****  
1819:Generated_Source\PSoC4/engine_sensor_adc.c ****         uint32 trimRegVal = engine_sensor_adc_UABH_A_OA_TRIM_REG;
 2895              		.loc 1 1819 0
 2896 000c 0D4B     		ldr	r3, .L178
 2897 000e 1B68     		ldr	r3, [r3]
 2898 0010 BB60     		str	r3, [r7, #8]
1820:Generated_Source\PSoC4/engine_sensor_adc.c ****         trimRegVal &= ~(engine_sensor_adc_OPAMP_TRIM_MASK << CyUAB_OA_OFFSET_SHIFT);
 2899              		.loc 1 1820 0
 2900 0012 BB68     		ldr	r3, [r7, #8]
 2901 0014 0F22     		mov	r2, #15
 2902 0016 9343     		bic	r3, r2
 2903 0018 BB60     		str	r3, [r7, #8]
1821:Generated_Source\PSoC4/engine_sensor_adc.c ****         trimRegVal |= (opampTrim << CyUAB_OA_OFFSET_SHIFT);
 2904              		.loc 1 1821 0
 2905 001a BA68     		ldr	r2, [r7, #8]
 2906 001c 7B68     		ldr	r3, [r7, #4]
 2907 001e 1343     		orr	r3, r2
 2908 0020 BB60     		str	r3, [r7, #8]
1822:Generated_Source\PSoC4/engine_sensor_adc.c ****         engine_sensor_adc_UABH_A_OA_TRIM_REG = trimRegVal;
 2909              		.loc 1 1822 0
 2910 0022 084B     		ldr	r3, .L178
 2911 0024 BA68     		ldr	r2, [r7, #8]
 2912 0026 1A60     		str	r2, [r3]
1823:Generated_Source\PSoC4/engine_sensor_adc.c ****         
1824:Generated_Source\PSoC4/engine_sensor_adc.c ****         CyDelayUs(100u);
 2913              		.loc 1 1824 0
 2914 0028 6420     		mov	r0, #100
 2915 002a FFF7FEFF 		bl	CyDelayUs
1825:Generated_Source\PSoC4/engine_sensor_adc.c ****         
1826:Generated_Source\PSoC4/engine_sensor_adc.c ****         compStatus = engine_sensor_adc_UABH_B_STAT_REG & engine_sensor_adc_UABH_B_COMP_MASK;
 2916              		.loc 1 1826 0
 2917 002e 064B     		ldr	r3, .L178+4
 2918 0030 1B68     		ldr	r3, [r3]
 2919 0032 1022     		mov	r2, #16
 2920 0034 1340     		and	r3, r2
 2921 0036 FB60     		str	r3, [r7, #12]
1827:Generated_Source\PSoC4/engine_sensor_adc.c ****         
1828:Generated_Source\PSoC4/engine_sensor_adc.c ****         return compStatus;
 2922              		.loc 1 1828 0
 2923 0038 FB68     		ldr	r3, [r7, #12]
1829:Generated_Source\PSoC4/engine_sensor_adc.c ****     }
 2924              		.loc 1 1829 0
 2925 003a 181C     		mov	r0, r3
 2926 003c BD46     		mov	sp, r7
 2927 003e 04B0     		add	sp, sp, #16
 2928              		@ sp needed
 2929 0040 80BD     		pop	{r7, pc}
 2930              	.L179:
ARM GAS  C:\Users\fneves\AppData\Local\Temp\ccV5UskS.s 			page 85


 2931 0042 C046     		.align	2
 2932              	.L178:
 2933 0044 0C0F3440 		.word	1077153548
 2934 0048 7C023440 		.word	1077150332
 2935              		.cfi_endproc
 2936              	.LFE33:
 2937              		.size	engine_sensor_adc_SetOpampTrim, .-engine_sensor_adc_SetOpampTrim
 2938              		.section	.text.engine_sensor_adc_SetAgndTrim,"ax",%progbits
 2939              		.align	2
 2940              		.code	16
 2941              		.thumb_func
 2942              		.type	engine_sensor_adc_SetAgndTrim, %function
 2943              	engine_sensor_adc_SetAgndTrim:
 2944              	.LFB34:
1830:Generated_Source\PSoC4/engine_sensor_adc.c ****     
1831:Generated_Source\PSoC4/engine_sensor_adc.c ****     
1832:Generated_Source\PSoC4/engine_sensor_adc.c ****     static uint32 engine_sensor_adc_SetAgndTrim(uint32 agndTrim)
1833:Generated_Source\PSoC4/engine_sensor_adc.c ****     {
 2945              		.loc 1 1833 0
 2946              		.cfi_startproc
 2947 0000 80B5     		push	{r7, lr}
 2948              		.cfi_def_cfa_offset 8
 2949              		.cfi_offset 7, -8
 2950              		.cfi_offset 14, -4
 2951 0002 84B0     		sub	sp, sp, #16
 2952              		.cfi_def_cfa_offset 24
 2953 0004 00AF     		add	r7, sp, #0
 2954              		.cfi_def_cfa_register 7
 2955 0006 7860     		str	r0, [r7, #4]
1834:Generated_Source\PSoC4/engine_sensor_adc.c ****         uint32 compStatus = 0uL;
 2956              		.loc 1 1834 0
 2957 0008 0023     		mov	r3, #0
 2958 000a FB60     		str	r3, [r7, #12]
1835:Generated_Source\PSoC4/engine_sensor_adc.c ****  
1836:Generated_Source\PSoC4/engine_sensor_adc.c ****         uint32 trimRegVal = engine_sensor_adc_UABH_A_OA_TRIM_REG;
 2959              		.loc 1 1836 0
 2960 000c 0D4B     		ldr	r3, .L182
 2961 000e 1B68     		ldr	r3, [r3]
 2962 0010 BB60     		str	r3, [r7, #8]
1837:Generated_Source\PSoC4/engine_sensor_adc.c ****         trimRegVal &= ~(engine_sensor_adc_AGND_TRIM_MASK << CyUAB_AGND_OFFSET_SHIFT);
 2963              		.loc 1 1837 0
 2964 0012 BB68     		ldr	r3, [r7, #8]
 2965 0014 0C4A     		ldr	r2, .L182+4
 2966 0016 1340     		and	r3, r2
 2967 0018 BB60     		str	r3, [r7, #8]
1838:Generated_Source\PSoC4/engine_sensor_adc.c ****         trimRegVal |= (agndTrim << CyUAB_AGND_OFFSET_SHIFT);
 2968              		.loc 1 1838 0
 2969 001a 7B68     		ldr	r3, [r7, #4]
 2970 001c 1B04     		lsl	r3, r3, #16
 2971 001e BA68     		ldr	r2, [r7, #8]
 2972 0020 1343     		orr	r3, r2
 2973 0022 BB60     		str	r3, [r7, #8]
1839:Generated_Source\PSoC4/engine_sensor_adc.c ****         engine_sensor_adc_UABH_A_OA_TRIM_REG = trimRegVal;
 2974              		.loc 1 1839 0
 2975 0024 074B     		ldr	r3, .L182
 2976 0026 BA68     		ldr	r2, [r7, #8]
 2977 0028 1A60     		str	r2, [r3]
ARM GAS  C:\Users\fneves\AppData\Local\Temp\ccV5UskS.s 			page 86


1840:Generated_Source\PSoC4/engine_sensor_adc.c ****         
1841:Generated_Source\PSoC4/engine_sensor_adc.c ****         CyDelayUs(100u);
 2978              		.loc 1 1841 0
 2979 002a 6420     		mov	r0, #100
 2980 002c FFF7FEFF 		bl	CyDelayUs
1842:Generated_Source\PSoC4/engine_sensor_adc.c ****         
1843:Generated_Source\PSoC4/engine_sensor_adc.c ****         compStatus = engine_sensor_adc_UABH_B_STAT_REG & engine_sensor_adc_UABH_B_COMP_MASK;
 2981              		.loc 1 1843 0
 2982 0030 064B     		ldr	r3, .L182+8
 2983 0032 1B68     		ldr	r3, [r3]
 2984 0034 1022     		mov	r2, #16
 2985 0036 1340     		and	r3, r2
 2986 0038 FB60     		str	r3, [r7, #12]
1844:Generated_Source\PSoC4/engine_sensor_adc.c ****         
1845:Generated_Source\PSoC4/engine_sensor_adc.c ****         return compStatus;
 2987              		.loc 1 1845 0
 2988 003a FB68     		ldr	r3, [r7, #12]
1846:Generated_Source\PSoC4/engine_sensor_adc.c ****     }
 2989              		.loc 1 1846 0
 2990 003c 181C     		mov	r0, r3
 2991 003e BD46     		mov	sp, r7
 2992 0040 04B0     		add	sp, sp, #16
 2993              		@ sp needed
 2994 0042 80BD     		pop	{r7, pc}
 2995              	.L183:
 2996              		.align	2
 2997              	.L182:
 2998 0044 0C0F3440 		.word	1077153548
 2999 0048 FFFFE0FF 		.word	-2031617
 3000 004c 7C023440 		.word	1077150332
 3001              		.cfi_endproc
 3002              	.LFE34:
 3003              		.size	engine_sensor_adc_SetAgndTrim, .-engine_sensor_adc_SetAgndTrim
 3004              		.section	.text.engine_sensor_adc_IncOpampTrim,"ax",%progbits
 3005              		.align	2
 3006              		.code	16
 3007              		.thumb_func
 3008              		.type	engine_sensor_adc_IncOpampTrim, %function
 3009              	engine_sensor_adc_IncOpampTrim:
 3010              	.LFB35:
1847:Generated_Source\PSoC4/engine_sensor_adc.c ****     
1848:Generated_Source\PSoC4/engine_sensor_adc.c ****     /* Skips OPAMP_TRIM_NEG_BASE because it is the same as POS_BASE. */
1849:Generated_Source\PSoC4/engine_sensor_adc.c ****     static uint32 engine_sensor_adc_IncOpampTrim(uint32 trim)
1850:Generated_Source\PSoC4/engine_sensor_adc.c ****     {
 3011              		.loc 1 1850 0
 3012              		.cfi_startproc
 3013 0000 80B5     		push	{r7, lr}
 3014              		.cfi_def_cfa_offset 8
 3015              		.cfi_offset 7, -8
 3016              		.cfi_offset 14, -4
 3017 0002 82B0     		sub	sp, sp, #8
 3018              		.cfi_def_cfa_offset 16
 3019 0004 00AF     		add	r7, sp, #0
 3020              		.cfi_def_cfa_register 7
 3021 0006 7860     		str	r0, [r7, #4]
1851:Generated_Source\PSoC4/engine_sensor_adc.c ****         
1852:Generated_Source\PSoC4/engine_sensor_adc.c ****         if (trim < (engine_sensor_adc_OPAMP_TRIM_POS_LIMIT - 1uL))
ARM GAS  C:\Users\fneves\AppData\Local\Temp\ccV5UskS.s 			page 87


 3022              		.loc 1 1852 0
 3023 0008 7B68     		ldr	r3, [r7, #4]
 3024 000a 062B     		cmp	r3, #6
 3025 000c 03D8     		bhi	.L185
1853:Generated_Source\PSoC4/engine_sensor_adc.c ****         {
1854:Generated_Source\PSoC4/engine_sensor_adc.c ****             trim = trim + 1uL;
 3026              		.loc 1 1854 0
 3027 000e 7B68     		ldr	r3, [r7, #4]
 3028 0010 0133     		add	r3, r3, #1
 3029 0012 7B60     		str	r3, [r7, #4]
 3030 0014 0EE0     		b	.L186
 3031              	.L185:
1855:Generated_Source\PSoC4/engine_sensor_adc.c ****         }
1856:Generated_Source\PSoC4/engine_sensor_adc.c ****         else if ((engine_sensor_adc_OPAMP_TRIM_POS_LIMIT - 1uL) == trim)
 3032              		.loc 1 1856 0
 3033 0016 7B68     		ldr	r3, [r7, #4]
 3034 0018 072B     		cmp	r3, #7
 3035 001a 02D1     		bne	.L187
1857:Generated_Source\PSoC4/engine_sensor_adc.c ****         {
1858:Generated_Source\PSoC4/engine_sensor_adc.c ****             trim = engine_sensor_adc_OPAMP_TRIM_NEG_LIMIT;
 3036              		.loc 1 1858 0
 3037 001c 1023     		mov	r3, #16
 3038 001e 7B60     		str	r3, [r7, #4]
 3039 0020 08E0     		b	.L186
 3040              	.L187:
1859:Generated_Source\PSoC4/engine_sensor_adc.c ****         }
1860:Generated_Source\PSoC4/engine_sensor_adc.c ****         else if (trim <= (engine_sensor_adc_OPAMP_TRIM_NEG_BASE + 1uL))
 3041              		.loc 1 1860 0
 3042 0022 7B68     		ldr	r3, [r7, #4]
 3043 0024 092B     		cmp	r3, #9
 3044 0026 02D8     		bhi	.L188
1861:Generated_Source\PSoC4/engine_sensor_adc.c ****         {
1862:Generated_Source\PSoC4/engine_sensor_adc.c ****             trim = engine_sensor_adc_OPAMP_TRIM_POS_BASE;
 3045              		.loc 1 1862 0
 3046 0028 0023     		mov	r3, #0
 3047 002a 7B60     		str	r3, [r7, #4]
 3048 002c 02E0     		b	.L186
 3049              	.L188:
1863:Generated_Source\PSoC4/engine_sensor_adc.c ****         }
1864:Generated_Source\PSoC4/engine_sensor_adc.c ****         else
1865:Generated_Source\PSoC4/engine_sensor_adc.c ****         {
1866:Generated_Source\PSoC4/engine_sensor_adc.c ****             trim = trim - 1uL;
 3050              		.loc 1 1866 0
 3051 002e 7B68     		ldr	r3, [r7, #4]
 3052 0030 013B     		sub	r3, r3, #1
 3053 0032 7B60     		str	r3, [r7, #4]
 3054              	.L186:
1867:Generated_Source\PSoC4/engine_sensor_adc.c ****         }
1868:Generated_Source\PSoC4/engine_sensor_adc.c ****         
1869:Generated_Source\PSoC4/engine_sensor_adc.c ****         return trim;
 3055              		.loc 1 1869 0
 3056 0034 7B68     		ldr	r3, [r7, #4]
1870:Generated_Source\PSoC4/engine_sensor_adc.c ****     }
 3057              		.loc 1 1870 0
 3058 0036 181C     		mov	r0, r3
 3059 0038 BD46     		mov	sp, r7
 3060 003a 02B0     		add	sp, sp, #8
ARM GAS  C:\Users\fneves\AppData\Local\Temp\ccV5UskS.s 			page 88


 3061              		@ sp needed
 3062 003c 80BD     		pop	{r7, pc}
 3063              		.cfi_endproc
 3064              	.LFE35:
 3065              		.size	engine_sensor_adc_IncOpampTrim, .-engine_sensor_adc_IncOpampTrim
 3066 003e C046     		.section	.text.engine_sensor_adc_DecOpampTrim,"ax",%progbits
 3067              		.align	2
 3068              		.code	16
 3069              		.thumb_func
 3070              		.type	engine_sensor_adc_DecOpampTrim, %function
 3071              	engine_sensor_adc_DecOpampTrim:
 3072              	.LFB36:
1871:Generated_Source\PSoC4/engine_sensor_adc.c **** 
1872:Generated_Source\PSoC4/engine_sensor_adc.c **** 
1873:Generated_Source\PSoC4/engine_sensor_adc.c ****     /* Skips OPAMP_TRIM_NEG_BASE because it is the same as POS_BASE. */
1874:Generated_Source\PSoC4/engine_sensor_adc.c ****     static uint32 engine_sensor_adc_DecOpampTrim(uint32 trim)
1875:Generated_Source\PSoC4/engine_sensor_adc.c ****     {
 3073              		.loc 1 1875 0
 3074              		.cfi_startproc
 3075 0000 80B5     		push	{r7, lr}
 3076              		.cfi_def_cfa_offset 8
 3077              		.cfi_offset 7, -8
 3078              		.cfi_offset 14, -4
 3079 0002 82B0     		sub	sp, sp, #8
 3080              		.cfi_def_cfa_offset 16
 3081 0004 00AF     		add	r7, sp, #0
 3082              		.cfi_def_cfa_register 7
 3083 0006 7860     		str	r0, [r7, #4]
1876:Generated_Source\PSoC4/engine_sensor_adc.c ****         
1877:Generated_Source\PSoC4/engine_sensor_adc.c ****         if (engine_sensor_adc_OPAMP_TRIM_POS_BASE == trim)
 3084              		.loc 1 1877 0
 3085 0008 7B68     		ldr	r3, [r7, #4]
 3086 000a 002B     		cmp	r3, #0
 3087 000c 02D1     		bne	.L191
1878:Generated_Source\PSoC4/engine_sensor_adc.c ****         {
1879:Generated_Source\PSoC4/engine_sensor_adc.c ****             trim = engine_sensor_adc_OPAMP_TRIM_NEG_BASE + 1uL;
 3088              		.loc 1 1879 0
 3089 000e 0923     		mov	r3, #9
 3090 0010 7B60     		str	r3, [r7, #4]
 3091 0012 0FE0     		b	.L192
 3092              	.L191:
1880:Generated_Source\PSoC4/engine_sensor_adc.c ****         }
1881:Generated_Source\PSoC4/engine_sensor_adc.c ****         else if (trim < engine_sensor_adc_OPAMP_TRIM_POS_LIMIT)
 3093              		.loc 1 1881 0
 3094 0014 7B68     		ldr	r3, [r7, #4]
 3095 0016 072B     		cmp	r3, #7
 3096 0018 03D8     		bhi	.L193
1882:Generated_Source\PSoC4/engine_sensor_adc.c ****         {
1883:Generated_Source\PSoC4/engine_sensor_adc.c ****             trim = trim - 1uL;
 3097              		.loc 1 1883 0
 3098 001a 7B68     		ldr	r3, [r7, #4]
 3099 001c 013B     		sub	r3, r3, #1
 3100 001e 7B60     		str	r3, [r7, #4]
 3101 0020 08E0     		b	.L192
 3102              	.L193:
1884:Generated_Source\PSoC4/engine_sensor_adc.c ****         }
1885:Generated_Source\PSoC4/engine_sensor_adc.c ****         else if (trim < engine_sensor_adc_OPAMP_TRIM_NEG_LIMIT)
ARM GAS  C:\Users\fneves\AppData\Local\Temp\ccV5UskS.s 			page 89


 3103              		.loc 1 1885 0
 3104 0022 7B68     		ldr	r3, [r7, #4]
 3105 0024 0F2B     		cmp	r3, #15
 3106 0026 03D8     		bhi	.L194
1886:Generated_Source\PSoC4/engine_sensor_adc.c ****         {
1887:Generated_Source\PSoC4/engine_sensor_adc.c ****             trim = trim + 1uL;
 3107              		.loc 1 1887 0
 3108 0028 7B68     		ldr	r3, [r7, #4]
 3109 002a 0133     		add	r3, r3, #1
 3110 002c 7B60     		str	r3, [r7, #4]
 3111 002e 01E0     		b	.L192
 3112              	.L194:
1888:Generated_Source\PSoC4/engine_sensor_adc.c ****         }
1889:Generated_Source\PSoC4/engine_sensor_adc.c ****         else
1890:Generated_Source\PSoC4/engine_sensor_adc.c ****         {
1891:Generated_Source\PSoC4/engine_sensor_adc.c ****             trim = engine_sensor_adc_OPAMP_TRIM_POS_LIMIT - 1uL;
 3113              		.loc 1 1891 0
 3114 0030 0723     		mov	r3, #7
 3115 0032 7B60     		str	r3, [r7, #4]
 3116              	.L192:
1892:Generated_Source\PSoC4/engine_sensor_adc.c ****         }
1893:Generated_Source\PSoC4/engine_sensor_adc.c ****         
1894:Generated_Source\PSoC4/engine_sensor_adc.c ****         return trim;
 3117              		.loc 1 1894 0
 3118 0034 7B68     		ldr	r3, [r7, #4]
1895:Generated_Source\PSoC4/engine_sensor_adc.c ****     }
 3119              		.loc 1 1895 0
 3120 0036 181C     		mov	r0, r3
 3121 0038 BD46     		mov	sp, r7
 3122 003a 02B0     		add	sp, sp, #8
 3123              		@ sp needed
 3124 003c 80BD     		pop	{r7, pc}
 3125              		.cfi_endproc
 3126              	.LFE36:
 3127              		.size	engine_sensor_adc_DecOpampTrim, .-engine_sensor_adc_DecOpampTrim
 3128 003e C046     		.section	.text.engine_sensor_adc_IncAgndTrim,"ax",%progbits
 3129              		.align	2
 3130              		.code	16
 3131              		.thumb_func
 3132              		.type	engine_sensor_adc_IncAgndTrim, %function
 3133              	engine_sensor_adc_IncAgndTrim:
 3134              	.LFB37:
1896:Generated_Source\PSoC4/engine_sensor_adc.c **** 
1897:Generated_Source\PSoC4/engine_sensor_adc.c **** 
1898:Generated_Source\PSoC4/engine_sensor_adc.c ****     /* Skips AGND_TRIM_NEG_BASE because it is the same as POS_BASE. */
1899:Generated_Source\PSoC4/engine_sensor_adc.c ****     static uint32 engine_sensor_adc_IncAgndTrim(uint32 trim)
1900:Generated_Source\PSoC4/engine_sensor_adc.c ****     {
 3135              		.loc 1 1900 0
 3136              		.cfi_startproc
 3137 0000 80B5     		push	{r7, lr}
 3138              		.cfi_def_cfa_offset 8
 3139              		.cfi_offset 7, -8
 3140              		.cfi_offset 14, -4
 3141 0002 82B0     		sub	sp, sp, #8
 3142              		.cfi_def_cfa_offset 16
 3143 0004 00AF     		add	r7, sp, #0
 3144              		.cfi_def_cfa_register 7
ARM GAS  C:\Users\fneves\AppData\Local\Temp\ccV5UskS.s 			page 90


 3145 0006 7860     		str	r0, [r7, #4]
1901:Generated_Source\PSoC4/engine_sensor_adc.c ****         
1902:Generated_Source\PSoC4/engine_sensor_adc.c ****         if (trim < (engine_sensor_adc_AGND_TRIM_POS_LIMIT - 1uL))
 3146              		.loc 1 1902 0
 3147 0008 7B68     		ldr	r3, [r7, #4]
 3148 000a 0E2B     		cmp	r3, #14
 3149 000c 03D8     		bhi	.L197
1903:Generated_Source\PSoC4/engine_sensor_adc.c ****         {
1904:Generated_Source\PSoC4/engine_sensor_adc.c ****             trim = trim + 1uL;
 3150              		.loc 1 1904 0
 3151 000e 7B68     		ldr	r3, [r7, #4]
 3152 0010 0133     		add	r3, r3, #1
 3153 0012 7B60     		str	r3, [r7, #4]
 3154 0014 0EE0     		b	.L198
 3155              	.L197:
1905:Generated_Source\PSoC4/engine_sensor_adc.c ****         }
1906:Generated_Source\PSoC4/engine_sensor_adc.c ****         else if ((engine_sensor_adc_AGND_TRIM_POS_LIMIT - 1uL) == trim)
 3156              		.loc 1 1906 0
 3157 0016 7B68     		ldr	r3, [r7, #4]
 3158 0018 0F2B     		cmp	r3, #15
 3159 001a 02D1     		bne	.L199
1907:Generated_Source\PSoC4/engine_sensor_adc.c ****         {
1908:Generated_Source\PSoC4/engine_sensor_adc.c ****             trim = engine_sensor_adc_AGND_TRIM_NEG_LIMIT;
 3160              		.loc 1 1908 0
 3161 001c 2023     		mov	r3, #32
 3162 001e 7B60     		str	r3, [r7, #4]
 3163 0020 08E0     		b	.L198
 3164              	.L199:
1909:Generated_Source\PSoC4/engine_sensor_adc.c ****         }
1910:Generated_Source\PSoC4/engine_sensor_adc.c ****         else if (trim <= (engine_sensor_adc_AGND_TRIM_NEG_BASE + 1uL))
 3165              		.loc 1 1910 0
 3166 0022 7B68     		ldr	r3, [r7, #4]
 3167 0024 112B     		cmp	r3, #17
 3168 0026 02D8     		bhi	.L200
1911:Generated_Source\PSoC4/engine_sensor_adc.c ****         {
1912:Generated_Source\PSoC4/engine_sensor_adc.c ****             trim = engine_sensor_adc_AGND_TRIM_POS_BASE;
 3169              		.loc 1 1912 0
 3170 0028 0023     		mov	r3, #0
 3171 002a 7B60     		str	r3, [r7, #4]
 3172 002c 02E0     		b	.L198
 3173              	.L200:
1913:Generated_Source\PSoC4/engine_sensor_adc.c ****         }
1914:Generated_Source\PSoC4/engine_sensor_adc.c ****         else
1915:Generated_Source\PSoC4/engine_sensor_adc.c ****         {
1916:Generated_Source\PSoC4/engine_sensor_adc.c ****             trim = trim - 1uL;
 3174              		.loc 1 1916 0
 3175 002e 7B68     		ldr	r3, [r7, #4]
 3176 0030 013B     		sub	r3, r3, #1
 3177 0032 7B60     		str	r3, [r7, #4]
 3178              	.L198:
1917:Generated_Source\PSoC4/engine_sensor_adc.c ****         }
1918:Generated_Source\PSoC4/engine_sensor_adc.c ****         
1919:Generated_Source\PSoC4/engine_sensor_adc.c ****         return trim;
 3179              		.loc 1 1919 0
 3180 0034 7B68     		ldr	r3, [r7, #4]
1920:Generated_Source\PSoC4/engine_sensor_adc.c ****     }
 3181              		.loc 1 1920 0
ARM GAS  C:\Users\fneves\AppData\Local\Temp\ccV5UskS.s 			page 91


 3182 0036 181C     		mov	r0, r3
 3183 0038 BD46     		mov	sp, r7
 3184 003a 02B0     		add	sp, sp, #8
 3185              		@ sp needed
 3186 003c 80BD     		pop	{r7, pc}
 3187              		.cfi_endproc
 3188              	.LFE37:
 3189              		.size	engine_sensor_adc_IncAgndTrim, .-engine_sensor_adc_IncAgndTrim
 3190 003e C046     		.section	.text.engine_sensor_adc_DecAgndTrim,"ax",%progbits
 3191              		.align	2
 3192              		.code	16
 3193              		.thumb_func
 3194              		.type	engine_sensor_adc_DecAgndTrim, %function
 3195              	engine_sensor_adc_DecAgndTrim:
 3196              	.LFB38:
1921:Generated_Source\PSoC4/engine_sensor_adc.c **** 
1922:Generated_Source\PSoC4/engine_sensor_adc.c **** 
1923:Generated_Source\PSoC4/engine_sensor_adc.c ****     /* Skips engine_sensor_adc_AGND_TRIM_NEG_BASE because it is the same as POS_BASE. */
1924:Generated_Source\PSoC4/engine_sensor_adc.c ****     static uint32 engine_sensor_adc_DecAgndTrim(uint32 trim)
1925:Generated_Source\PSoC4/engine_sensor_adc.c ****     {
 3197              		.loc 1 1925 0
 3198              		.cfi_startproc
 3199 0000 80B5     		push	{r7, lr}
 3200              		.cfi_def_cfa_offset 8
 3201              		.cfi_offset 7, -8
 3202              		.cfi_offset 14, -4
 3203 0002 82B0     		sub	sp, sp, #8
 3204              		.cfi_def_cfa_offset 16
 3205 0004 00AF     		add	r7, sp, #0
 3206              		.cfi_def_cfa_register 7
 3207 0006 7860     		str	r0, [r7, #4]
1926:Generated_Source\PSoC4/engine_sensor_adc.c ****         
1927:Generated_Source\PSoC4/engine_sensor_adc.c ****         if (trim == engine_sensor_adc_AGND_TRIM_POS_BASE)
 3208              		.loc 1 1927 0
 3209 0008 7B68     		ldr	r3, [r7, #4]
 3210 000a 002B     		cmp	r3, #0
 3211 000c 02D1     		bne	.L203
1928:Generated_Source\PSoC4/engine_sensor_adc.c ****         {
1929:Generated_Source\PSoC4/engine_sensor_adc.c ****             trim = engine_sensor_adc_AGND_TRIM_NEG_BASE + 1uL;
 3212              		.loc 1 1929 0
 3213 000e 1123     		mov	r3, #17
 3214 0010 7B60     		str	r3, [r7, #4]
 3215 0012 0FE0     		b	.L204
 3216              	.L203:
1930:Generated_Source\PSoC4/engine_sensor_adc.c ****         }
1931:Generated_Source\PSoC4/engine_sensor_adc.c ****         else if (trim < engine_sensor_adc_AGND_TRIM_POS_LIMIT)
 3217              		.loc 1 1931 0
 3218 0014 7B68     		ldr	r3, [r7, #4]
 3219 0016 0F2B     		cmp	r3, #15
 3220 0018 03D8     		bhi	.L205
1932:Generated_Source\PSoC4/engine_sensor_adc.c ****         {
1933:Generated_Source\PSoC4/engine_sensor_adc.c ****             trim = trim - 1uL;
 3221              		.loc 1 1933 0
 3222 001a 7B68     		ldr	r3, [r7, #4]
 3223 001c 013B     		sub	r3, r3, #1
 3224 001e 7B60     		str	r3, [r7, #4]
 3225 0020 08E0     		b	.L204
ARM GAS  C:\Users\fneves\AppData\Local\Temp\ccV5UskS.s 			page 92


 3226              	.L205:
1934:Generated_Source\PSoC4/engine_sensor_adc.c ****         }
1935:Generated_Source\PSoC4/engine_sensor_adc.c ****         else if (trim < engine_sensor_adc_AGND_TRIM_NEG_LIMIT)
 3227              		.loc 1 1935 0
 3228 0022 7B68     		ldr	r3, [r7, #4]
 3229 0024 1F2B     		cmp	r3, #31
 3230 0026 03D8     		bhi	.L206
1936:Generated_Source\PSoC4/engine_sensor_adc.c ****         {
1937:Generated_Source\PSoC4/engine_sensor_adc.c ****             trim = trim + 1uL;
 3231              		.loc 1 1937 0
 3232 0028 7B68     		ldr	r3, [r7, #4]
 3233 002a 0133     		add	r3, r3, #1
 3234 002c 7B60     		str	r3, [r7, #4]
 3235 002e 01E0     		b	.L204
 3236              	.L206:
1938:Generated_Source\PSoC4/engine_sensor_adc.c ****         }
1939:Generated_Source\PSoC4/engine_sensor_adc.c ****         else
1940:Generated_Source\PSoC4/engine_sensor_adc.c ****         {
1941:Generated_Source\PSoC4/engine_sensor_adc.c ****             trim = engine_sensor_adc_AGND_TRIM_POS_LIMIT - 1uL;
 3237              		.loc 1 1941 0
 3238 0030 0F23     		mov	r3, #15
 3239 0032 7B60     		str	r3, [r7, #4]
 3240              	.L204:
1942:Generated_Source\PSoC4/engine_sensor_adc.c ****         }
1943:Generated_Source\PSoC4/engine_sensor_adc.c ****         
1944:Generated_Source\PSoC4/engine_sensor_adc.c ****         return trim;
 3241              		.loc 1 1944 0
 3242 0034 7B68     		ldr	r3, [r7, #4]
1945:Generated_Source\PSoC4/engine_sensor_adc.c ****     }
 3243              		.loc 1 1945 0
 3244 0036 181C     		mov	r0, r3
 3245 0038 BD46     		mov	sp, r7
 3246 003a 02B0     		add	sp, sp, #8
 3247              		@ sp needed
 3248 003c 80BD     		pop	{r7, pc}
 3249              		.cfi_endproc
 3250              	.LFE38:
 3251              		.size	engine_sensor_adc_DecAgndTrim, .-engine_sensor_adc_DecAgndTrim
 3252 003e C046     		.section	.text.engine_sensor_adc_filterInit,"ax",%progbits
 3253              		.align	2
 3254              		.global	engine_sensor_adc_filterInit
 3255              		.code	16
 3256              		.thumb_func
 3257              		.type	engine_sensor_adc_filterInit, %function
 3258              	engine_sensor_adc_filterInit:
 3259              	.LFB39:
1946:Generated_Source\PSoC4/engine_sensor_adc.c **** 
1947:Generated_Source\PSoC4/engine_sensor_adc.c ****     
1948:Generated_Source\PSoC4/engine_sensor_adc.c ****     void engine_sensor_adc_filterInit(uint32 configNum)
1949:Generated_Source\PSoC4/engine_sensor_adc.c ****     {
 3260              		.loc 1 1949 0
 3261              		.cfi_startproc
 3262 0000 80B5     		push	{r7, lr}
 3263              		.cfi_def_cfa_offset 8
 3264              		.cfi_offset 7, -8
 3265              		.cfi_offset 14, -4
 3266 0002 82B0     		sub	sp, sp, #8
ARM GAS  C:\Users\fneves\AppData\Local\Temp\ccV5UskS.s 			page 93


 3267              		.cfi_def_cfa_offset 16
 3268 0004 00AF     		add	r7, sp, #0
 3269              		.cfi_def_cfa_register 7
 3270 0006 7860     		str	r0, [r7, #4]
1950:Generated_Source\PSoC4/engine_sensor_adc.c ****         /* Configure the common filter settings if any configuration filters */
1951:Generated_Source\PSoC4/engine_sensor_adc.c ****         switch (configNum)
 3271              		.loc 1 1951 0
 3272 0008 7B68     		ldr	r3, [r7, #4]
 3273 000a 002B     		cmp	r3, #0
 3274 000c 00D0     		beq	.L210
1952:Generated_Source\PSoC4/engine_sensor_adc.c ****         {
1953:Generated_Source\PSoC4/engine_sensor_adc.c ****             #if (0u != engine_sensor_adc_CFG0_FILTER_PRESENT)
1954:Generated_Source\PSoC4/engine_sensor_adc.c ****             case 0u:
1955:Generated_Source\PSoC4/engine_sensor_adc.c ****     		    engine_sensor_adc_UABH_A_Init(&engine_sensor_adc_CFG0_UABH_A_FILTER_config);
1956:Generated_Source\PSoC4/engine_sensor_adc.c ****     		    engine_sensor_adc_UABH_B_Init(&engine_sensor_adc_CFG0_UABH_B_FILTER_config);
1957:Generated_Source\PSoC4/engine_sensor_adc.c ****                 
1958:Generated_Source\PSoC4/engine_sensor_adc.c ****             break;
1959:Generated_Source\PSoC4/engine_sensor_adc.c ****             #endif
1960:Generated_Source\PSoC4/engine_sensor_adc.c ****             #if (0u != engine_sensor_adc_CFG1_FILTER_PRESENT)
1961:Generated_Source\PSoC4/engine_sensor_adc.c ****             case 1u:
1962:Generated_Source\PSoC4/engine_sensor_adc.c ****     		    engine_sensor_adc_UABH_A_Init(&engine_sensor_adc_CFG1_UABH_A_FILTER_config);
1963:Generated_Source\PSoC4/engine_sensor_adc.c ****     		    engine_sensor_adc_UABH_B_Init(&engine_sensor_adc_CFG1_UABH_B_FILTER_config);
1964:Generated_Source\PSoC4/engine_sensor_adc.c ****                 
1965:Generated_Source\PSoC4/engine_sensor_adc.c ****             break;
1966:Generated_Source\PSoC4/engine_sensor_adc.c ****             #endif
1967:Generated_Source\PSoC4/engine_sensor_adc.c ****             #if (0u != engine_sensor_adc_CFG2_FILTER_PRESENT)
1968:Generated_Source\PSoC4/engine_sensor_adc.c ****             case 2u:
1969:Generated_Source\PSoC4/engine_sensor_adc.c ****     		    engine_sensor_adc_UABH_A_Init(&engine_sensor_adc_CFG2_UABH_A_FILTER_config);
1970:Generated_Source\PSoC4/engine_sensor_adc.c ****     		    engine_sensor_adc_UABH_B_Init(&engine_sensor_adc_CFG2_UABH_B_FILTER_config);
1971:Generated_Source\PSoC4/engine_sensor_adc.c ****                 
1972:Generated_Source\PSoC4/engine_sensor_adc.c ****             break;
1973:Generated_Source\PSoC4/engine_sensor_adc.c ****             #endif
1974:Generated_Source\PSoC4/engine_sensor_adc.c ****             #if (0u != engine_sensor_adc_CFG3_FILTER_PRESENT)
1975:Generated_Source\PSoC4/engine_sensor_adc.c ****             case 3u:
1976:Generated_Source\PSoC4/engine_sensor_adc.c ****     		    engine_sensor_adc_UABH_A_Init(&engine_sensor_adc_CFG3_UABH_A_FILTER_config);
1977:Generated_Source\PSoC4/engine_sensor_adc.c ****     		    engine_sensor_adc_UABH_B_Init(&engine_sensor_adc_CFG3_UABH_B_FILTER_config);
1978:Generated_Source\PSoC4/engine_sensor_adc.c ****                 
1979:Generated_Source\PSoC4/engine_sensor_adc.c ****             break;
1980:Generated_Source\PSoC4/engine_sensor_adc.c ****             #endif
1981:Generated_Source\PSoC4/engine_sensor_adc.c ****             default:
1982:Generated_Source\PSoC4/engine_sensor_adc.c ****             break;
 3275              		.loc 1 1982 0
 3276 000e 08E0     		b	.L211
 3277              	.L210:
1955:Generated_Source\PSoC4/engine_sensor_adc.c ****     		    engine_sensor_adc_UABH_B_Init(&engine_sensor_adc_CFG0_UABH_B_FILTER_config);
 3278              		.loc 1 1955 0
 3279 0010 064B     		ldr	r3, .L212
 3280 0012 181C     		mov	r0, r3
 3281 0014 FFF7FEFF 		bl	engine_sensor_adc_UABH_A_Init
1956:Generated_Source\PSoC4/engine_sensor_adc.c ****                 
 3282              		.loc 1 1956 0
 3283 0018 054B     		ldr	r3, .L212+4
 3284 001a 181C     		mov	r0, r3
 3285 001c FFF7FEFF 		bl	engine_sensor_adc_UABH_B_Init
1958:Generated_Source\PSoC4/engine_sensor_adc.c ****             #endif
 3286              		.loc 1 1958 0
 3287 0020 C046     		mov	r8, r8
ARM GAS  C:\Users\fneves\AppData\Local\Temp\ccV5UskS.s 			page 94


 3288              	.L211:
1983:Generated_Source\PSoC4/engine_sensor_adc.c ****         }
1984:Generated_Source\PSoC4/engine_sensor_adc.c ****         engine_sensor_adc_FILTERAGND2SAR_BUFFER_Init();
 3289              		.loc 1 1984 0
 3290 0022 FFF7FEFF 		bl	engine_sensor_adc_FILTERAGND2SAR_BUFFER_Init
1985:Generated_Source\PSoC4/engine_sensor_adc.c ****     }
 3291              		.loc 1 1985 0
 3292 0026 BD46     		mov	sp, r7
 3293 0028 02B0     		add	sp, sp, #8
 3294              		@ sp needed
 3295 002a 80BD     		pop	{r7, pc}
 3296              	.L213:
 3297              		.align	2
 3298              	.L212:
 3299 002c 28010000 		.word	engine_sensor_adc_CFG0_UABH_A_FILTER_config
 3300 0030 34010000 		.word	engine_sensor_adc_CFG0_UABH_B_FILTER_config
 3301              		.cfi_endproc
 3302              	.LFE39:
 3303              		.size	engine_sensor_adc_filterInit, .-engine_sensor_adc_filterInit
 3304              		.section	.text.engine_sensor_adc_Init,"ax",%progbits
 3305              		.align	2
 3306              		.global	engine_sensor_adc_Init
 3307              		.code	16
 3308              		.thumb_func
 3309              		.type	engine_sensor_adc_Init, %function
 3310              	engine_sensor_adc_Init:
 3311              	.LFB40:
1986:Generated_Source\PSoC4/engine_sensor_adc.c **** #endif /* engine_sensor_adc_ANY_CONFIG_USES_FILTER != 0u */
1987:Generated_Source\PSoC4/engine_sensor_adc.c **** 
1988:Generated_Source\PSoC4/engine_sensor_adc.c **** 
1989:Generated_Source\PSoC4/engine_sensor_adc.c **** /* ****************************************************************************
1990:Generated_Source\PSoC4/engine_sensor_adc.c **** * Function Name: engine_sensor_adc_Init
1991:Generated_Source\PSoC4/engine_sensor_adc.c **** ****************************************************************************//*
1992:Generated_Source\PSoC4/engine_sensor_adc.c **** *
1993:Generated_Source\PSoC4/engine_sensor_adc.c **** * \brief Initialize the component according to parameters defined in the 
1994:Generated_Source\PSoC4/engine_sensor_adc.c **** * customizer.
1995:Generated_Source\PSoC4/engine_sensor_adc.c **** *
1996:Generated_Source\PSoC4/engine_sensor_adc.c **** * \param None
1997:Generated_Source\PSoC4/engine_sensor_adc.c **** * 
1998:Generated_Source\PSoC4/engine_sensor_adc.c **** * \return None
1999:Generated_Source\PSoC4/engine_sensor_adc.c **** *
2000:Generated_Source\PSoC4/engine_sensor_adc.c **** * \sideeffect None
2001:Generated_Source\PSoC4/engine_sensor_adc.c **** *
2002:Generated_Source\PSoC4/engine_sensor_adc.c **** * <b>Code Snippet</b>
2003:Generated_Source\PSoC4/engine_sensor_adc.c **** *  \snippet main.c snippet_engine_sensor_adc_Init
2004:Generated_Source\PSoC4/engine_sensor_adc.c **** *
2005:Generated_Source\PSoC4/engine_sensor_adc.c **** *******************************************************************************/
2006:Generated_Source\PSoC4/engine_sensor_adc.c **** void engine_sensor_adc_Init(void)
2007:Generated_Source\PSoC4/engine_sensor_adc.c **** {
 3312              		.loc 1 2007 0
 3313              		.cfi_startproc
 3314 0000 80B5     		push	{r7, lr}
 3315              		.cfi_def_cfa_offset 8
 3316              		.cfi_offset 7, -8
 3317              		.cfi_offset 14, -4
 3318 0002 84B0     		sub	sp, sp, #16
 3319              		.cfi_def_cfa_offset 24
ARM GAS  C:\Users\fneves\AppData\Local\Temp\ccV5UskS.s 			page 95


 3320 0004 00AF     		add	r7, sp, #0
 3321              		.cfi_def_cfa_register 7
2008:Generated_Source\PSoC4/engine_sensor_adc.c **** 	uint32 chNum = 0ul;
 3322              		.loc 1 2008 0
 3323 0006 0023     		mov	r3, #0
 3324 0008 FB60     		str	r3, [r7, #12]
2009:Generated_Source\PSoC4/engine_sensor_adc.c **** 	uint32 configNum = 0u;
 3325              		.loc 1 2009 0
 3326 000a 0023     		mov	r3, #0
 3327 000c BB60     		str	r3, [r7, #8]
2010:Generated_Source\PSoC4/engine_sensor_adc.c **** 	int32 counts;
2011:Generated_Source\PSoC4/engine_sensor_adc.c **** 	
2012:Generated_Source\PSoC4/engine_sensor_adc.c **** 	if(0u == engine_sensor_adc_initVar)
 3328              		.loc 1 2012 0
 3329 000e 694B     		ldr	r3, .L229
 3330 0010 1B78     		ldrb	r3, [r3]
 3331 0012 002B     		cmp	r3, #0
 3332 0014 00D0     		beq	.LCB2838
 3333 0016 C8E0     		b	.L215	@long jump
 3334              	.LCB2838:
2013:Generated_Source\PSoC4/engine_sensor_adc.c **** 	{
2014:Generated_Source\PSoC4/engine_sensor_adc.c **** 		/* Set offset and countsPer10Volt for all channels */
2015:Generated_Source\PSoC4/engine_sensor_adc.c **** 		for(chNum = 0ul; chNum < engine_sensor_adc_TOTAL_CHANNELS_NUM; chNum++)
 3335              		.loc 1 2015 0
 3336 0018 0023     		mov	r3, #0
 3337 001a FB60     		str	r3, [r7, #12]
 3338 001c 91E0     		b	.L216
 3339              	.L227:
2016:Generated_Source\PSoC4/engine_sensor_adc.c **** 		{      
2017:Generated_Source\PSoC4/engine_sensor_adc.c **** 			if((engine_sensor_adc_channelsConfig[chNum] & engine_sensor_adc_SAR_CHAN_CONFIG_RESOLUTION_MSK) 
 3340              		.loc 1 2017 0
 3341 001e 8023     		mov	r3, #128
 3342 0020 5A00     		lsl	r2, r3, #1
 3343 0022 8023     		mov	r3, #128
 3344 0024 9B00     		lsl	r3, r3, #2
 3345 0026 1340     		and	r3, r2
 3346 0028 13D0     		beq	.L217
2018:Generated_Source\PSoC4/engine_sensor_adc.c ****         	{
2019:Generated_Source\PSoC4/engine_sensor_adc.c **** 				if((engine_sensor_adc_allConfigs[configNum].sampleCtrl 
 3347              		.loc 1 2019 0
 3348 002a 6349     		ldr	r1, .L229+4
 3349 002c BA68     		ldr	r2, [r7, #8]
 3350 002e 131C     		mov	r3, r2
 3351 0030 DB00     		lsl	r3, r3, #3
 3352 0032 9B1A     		sub	r3, r3, r2
 3353 0034 DB00     		lsl	r3, r3, #3
 3354 0036 CB18     		add	r3, r1, r3
 3355 0038 0833     		add	r3, r3, #8
 3356 003a 5B68     		ldr	r3, [r3, #4]
2020:Generated_Source\PSoC4/engine_sensor_adc.c **** 					& engine_sensor_adc_SAR_SAMPLE_CTRL_SUB_RESOLUTION_MSK) 
 3357              		.loc 1 2020 0
 3358 003c 0122     		mov	r2, #1
 3359 003e 1340     		and	r3, r2
2019:Generated_Source\PSoC4/engine_sensor_adc.c **** 					& engine_sensor_adc_SAR_SAMPLE_CTRL_SUB_RESOLUTION_MSK) 
 3360              		.loc 1 2019 0
 3361 0040 03D0     		beq	.L218
2021:Generated_Source\PSoC4/engine_sensor_adc.c **** 					== engine_sensor_adc_SUB_RESOLUTION_10B)
ARM GAS  C:\Users\fneves\AppData\Local\Temp\ccV5UskS.s 			page 96


2022:Generated_Source\PSoC4/engine_sensor_adc.c **** 				{
2023:Generated_Source\PSoC4/engine_sensor_adc.c **** 					counts = (int32) engine_sensor_adc_SAR_WRK_MAX_10BIT;
 3362              		.loc 1 2023 0
 3363 0042 8023     		mov	r3, #128
 3364 0044 DB00     		lsl	r3, r3, #3
 3365 0046 7B60     		str	r3, [r7, #4]
 3366 0048 06E0     		b	.L220
 3367              	.L218:
2024:Generated_Source\PSoC4/engine_sensor_adc.c **** 				}
2025:Generated_Source\PSoC4/engine_sensor_adc.c **** 				else
2026:Generated_Source\PSoC4/engine_sensor_adc.c **** 				{
2027:Generated_Source\PSoC4/engine_sensor_adc.c **** 					counts = (int32) engine_sensor_adc_SAR_WRK_MAX_8BIT;
 3368              		.loc 1 2027 0
 3369 004a 8023     		mov	r3, #128
 3370 004c 5B00     		lsl	r3, r3, #1
 3371 004e 7B60     		str	r3, [r7, #4]
 3372 0050 02E0     		b	.L220
 3373              	.L217:
2028:Generated_Source\PSoC4/engine_sensor_adc.c **** 				}
2029:Generated_Source\PSoC4/engine_sensor_adc.c ****         	}
2030:Generated_Source\PSoC4/engine_sensor_adc.c ****         	else
2031:Generated_Source\PSoC4/engine_sensor_adc.c ****         	{
2032:Generated_Source\PSoC4/engine_sensor_adc.c ****                counts = (int32)engine_sensor_adc_SAR_WRK_MAX_12BIT;
 3374              		.loc 1 2032 0
 3375 0052 8023     		mov	r3, #128
 3376 0054 5B01     		lsl	r3, r3, #5
 3377 0056 7B60     		str	r3, [r7, #4]
 3378              	.L220:
2033:Generated_Source\PSoC4/engine_sensor_adc.c ****         	}
2034:Generated_Source\PSoC4/engine_sensor_adc.c **** 			
2035:Generated_Source\PSoC4/engine_sensor_adc.c **** 			/* Single Ended Channel */
2036:Generated_Source\PSoC4/engine_sensor_adc.c **** 			if((engine_sensor_adc_channelsConfig[chNum] & engine_sensor_adc_SAR_CHAN_CONFIG_DIFFERENTIAL_EN_
 3379              		.loc 1 2036 0
 3380 0058 8023     		mov	r3, #128
 3381 005a 5A00     		lsl	r2, r3, #1
 3382 005c 8023     		mov	r3, #128
 3383 005e 5B00     		lsl	r3, r3, #1
 3384 0060 1340     		and	r3, r2
 3385 0062 2DD1     		bne	.L221
2037:Generated_Source\PSoC4/engine_sensor_adc.c ****         	{
2038:Generated_Source\PSoC4/engine_sensor_adc.c **** 				if(((engine_sensor_adc_allConfigs[configNum].sampleCtrl 
 3386              		.loc 1 2038 0
 3387 0064 5449     		ldr	r1, .L229+4
 3388 0066 BA68     		ldr	r2, [r7, #8]
 3389 0068 131C     		mov	r3, r2
 3390 006a DB00     		lsl	r3, r3, #3
 3391 006c 9B1A     		sub	r3, r3, r2
 3392 006e DB00     		lsl	r3, r3, #3
 3393 0070 CB18     		add	r3, r1, r3
 3394 0072 0833     		add	r3, r3, #8
 3395 0074 5B68     		ldr	r3, [r3, #4]
2039:Generated_Source\PSoC4/engine_sensor_adc.c **** 					& engine_sensor_adc_SAR_SAMPLE_CTRL_SINGLE_ENDED_SIGNED_MSK) 
 3396              		.loc 1 2039 0
 3397 0076 0422     		mov	r2, #4
 3398 0078 1340     		and	r3, r2
2038:Generated_Source\PSoC4/engine_sensor_adc.c **** 					& engine_sensor_adc_SAR_SAMPLE_CTRL_SINGLE_ENDED_SIGNED_MSK) 
 3399              		.loc 1 2038 0
ARM GAS  C:\Users\fneves\AppData\Local\Temp\ccV5UskS.s 			page 97


 3400 007a 1BD0     		beq	.L222
2040:Generated_Source\PSoC4/engine_sensor_adc.c **** 					== engine_sensor_adc_SAR_SAMPLE_CTRL_SINGLE_ENDED_SIGNED_MSK) && 
2041:Generated_Source\PSoC4/engine_sensor_adc.c **** 					((engine_sensor_adc_allConfigs[configNum].ctrl & engine_sensor_adc_SAR_CTRL_NEG_SEL_MSK) 
 3401              		.loc 1 2041 0
 3402 007c 4E49     		ldr	r1, .L229+4
 3403 007e BA68     		ldr	r2, [r7, #8]
 3404 0080 131C     		mov	r3, r2
 3405 0082 DB00     		lsl	r3, r3, #3
 3406 0084 9B1A     		sub	r3, r3, r2
 3407 0086 DB00     		lsl	r3, r3, #3
 3408 0088 CB18     		add	r3, r1, r3
 3409 008a 0833     		add	r3, r3, #8
 3410 008c 1A68     		ldr	r2, [r3]
 3411 008e E023     		mov	r3, #224
 3412 0090 1B01     		lsl	r3, r3, #4
 3413 0092 1A40     		and	r2, r3
2040:Generated_Source\PSoC4/engine_sensor_adc.c **** 					== engine_sensor_adc_SAR_SAMPLE_CTRL_SINGLE_ENDED_SIGNED_MSK) && 
 3414              		.loc 1 2040 0
 3415 0094 E023     		mov	r3, #224
 3416 0096 1B01     		lsl	r3, r3, #4
 3417 0098 9A42     		cmp	r2, r3
 3418 009a 0BD1     		bne	.L222
2042:Generated_Source\PSoC4/engine_sensor_adc.c **** 					== engine_sensor_adc_NEG_VREF_SHIFTED))
2043:Generated_Source\PSoC4/engine_sensor_adc.c **** 				{
2044:Generated_Source\PSoC4/engine_sensor_adc.c **** 					/* Set offset to the minus half scale to convert results to unsigned format */
2045:Generated_Source\PSoC4/engine_sensor_adc.c ****                 	engine_sensor_adc_offset[chNum] = (int16)(counts / -2);		
 3419              		.loc 1 2045 0
 3420 009c 7B68     		ldr	r3, [r7, #4]
 3421 009e 002B     		cmp	r3, #0
 3422 00a0 00DA     		bge	.L223
 3423 00a2 0133     		add	r3, r3, #1
 3424              	.L223:
 3425 00a4 5B10     		asr	r3, r3, #1
 3426 00a6 5B42     		neg	r3, r3
 3427 00a8 99B2     		uxth	r1, r3
 3428 00aa 444B     		ldr	r3, .L229+8
 3429 00ac FA68     		ldr	r2, [r7, #12]
 3430 00ae 5200     		lsl	r2, r2, #1
 3431 00b0 D152     		strh	r1, [r2, r3]
 3432 00b2 0AE0     		b	.L225
 3433              	.L222:
2046:Generated_Source\PSoC4/engine_sensor_adc.c ****             	}
2047:Generated_Source\PSoC4/engine_sensor_adc.c **** 				else
2048:Generated_Source\PSoC4/engine_sensor_adc.c **** 				{
2049:Generated_Source\PSoC4/engine_sensor_adc.c ****                 	engine_sensor_adc_offset[chNum] = 0;	
 3434              		.loc 1 2049 0
 3435 00b4 414B     		ldr	r3, .L229+8
 3436 00b6 FA68     		ldr	r2, [r7, #12]
 3437 00b8 5200     		lsl	r2, r2, #1
 3438 00ba 0021     		mov	r1, #0
 3439 00bc D152     		strh	r1, [r2, r3]
 3440 00be 04E0     		b	.L225
 3441              	.L221:
2050:Generated_Source\PSoC4/engine_sensor_adc.c **** 				}
2051:Generated_Source\PSoC4/engine_sensor_adc.c **** 				
2052:Generated_Source\PSoC4/engine_sensor_adc.c **** 			}
2053:Generated_Source\PSoC4/engine_sensor_adc.c **** 			else    /* Differential channel */
ARM GAS  C:\Users\fneves\AppData\Local\Temp\ccV5UskS.s 			page 98


2054:Generated_Source\PSoC4/engine_sensor_adc.c ****         	{
2055:Generated_Source\PSoC4/engine_sensor_adc.c ****                	engine_sensor_adc_offset[chNum] = 0; 
 3442              		.loc 1 2055 0
 3443 00c0 3E4B     		ldr	r3, .L229+8
 3444 00c2 FA68     		ldr	r2, [r7, #12]
 3445 00c4 5200     		lsl	r2, r2, #1
 3446 00c6 0021     		mov	r1, #0
 3447 00c8 D152     		strh	r1, [r2, r3]
 3448              	.L225:
2056:Generated_Source\PSoC4/engine_sensor_adc.c **** 			}
2057:Generated_Source\PSoC4/engine_sensor_adc.c ****             
2058:Generated_Source\PSoC4/engine_sensor_adc.c **** 			/* Calculate gain in counts per 10 volts with rounding */
2059:Generated_Source\PSoC4/engine_sensor_adc.c ****         	engine_sensor_adc_countsPer10Volt[chNum] = (int16)(((counts * engine_sensor_adc_10MV_COUNT
 3449              		.loc 1 2059 0
 3450 00ca 7B68     		ldr	r3, [r7, #4]
 3451 00cc 3C4A     		ldr	r2, .L229+12
 3452 00ce 5A43     		mul	r2, r3
 3453 00d0 111C     		mov	r1, r2
2060:Generated_Source\PSoC4/engine_sensor_adc.c ****                             + engine_sensor_adc_allConfigs[configNum].vrefMvValue) \
 3454              		.loc 1 2060 0
 3455 00d2 3948     		ldr	r0, .L229+4
 3456 00d4 BA68     		ldr	r2, [r7, #8]
 3457 00d6 131C     		mov	r3, r2
 3458 00d8 DB00     		lsl	r3, r3, #3
 3459 00da 9B1A     		sub	r3, r3, r2
 3460 00dc DB00     		lsl	r3, r3, #3
 3461 00de C318     		add	r3, r0, r3
 3462 00e0 2833     		add	r3, r3, #40
 3463 00e2 5B68     		ldr	r3, [r3, #4]
 3464 00e4 C818     		add	r0, r1, r3
2061:Generated_Source\PSoC4/engine_sensor_adc.c **** 							/ (engine_sensor_adc_allConfigs[configNum].vrefMvValue * 2));
 3465              		.loc 1 2061 0
 3466 00e6 3449     		ldr	r1, .L229+4
 3467 00e8 BA68     		ldr	r2, [r7, #8]
 3468 00ea 131C     		mov	r3, r2
 3469 00ec DB00     		lsl	r3, r3, #3
 3470 00ee 9B1A     		sub	r3, r3, r2
 3471 00f0 DB00     		lsl	r3, r3, #3
 3472 00f2 CB18     		add	r3, r1, r3
 3473 00f4 2833     		add	r3, r3, #40
 3474 00f6 5B68     		ldr	r3, [r3, #4]
 3475 00f8 5B00     		lsl	r3, r3, #1
 3476 00fa 191C     		mov	r1, r3
 3477 00fc FFF7FEFF 		bl	__aeabi_idiv
 3478 0100 031C     		mov	r3, r0
2059:Generated_Source\PSoC4/engine_sensor_adc.c ****                             + engine_sensor_adc_allConfigs[configNum].vrefMvValue) \
 3479              		.loc 1 2059 0
 3480 0102 9BB2     		uxth	r3, r3
 3481 0104 19B2     		sxth	r1, r3
 3482 0106 2F4B     		ldr	r3, .L229+16
 3483 0108 FA68     		ldr	r2, [r7, #12]
 3484 010a 9200     		lsl	r2, r2, #2
 3485 010c D150     		str	r1, [r2, r3]
2062:Generated_Source\PSoC4/engine_sensor_adc.c ****             
2063:Generated_Source\PSoC4/engine_sensor_adc.c ****             /* Increment configuration number after rolling over to the next configuration*/
2064:Generated_Source\PSoC4/engine_sensor_adc.c **** 			if((engine_sensor_adc_allConfigs[configNum].channelBase
 3486              		.loc 1 2064 0
ARM GAS  C:\Users\fneves\AppData\Local\Temp\ccV5UskS.s 			page 99


 3487 010e 2A49     		ldr	r1, .L229+4
 3488 0110 BA68     		ldr	r2, [r7, #8]
 3489 0112 131C     		mov	r3, r2
 3490 0114 DB00     		lsl	r3, r3, #3
 3491 0116 9B1A     		sub	r3, r3, r2
 3492 0118 DB00     		lsl	r3, r3, #3
 3493 011a 5958     		ldr	r1, [r3, r1]
2065:Generated_Source\PSoC4/engine_sensor_adc.c **** 				+ (engine_sensor_adc_allConfigs[configNum].numChannels - 1uL)) == chNum)
 3494              		.loc 1 2065 0
 3495 011c 2648     		ldr	r0, .L229+4
 3496 011e BA68     		ldr	r2, [r7, #8]
 3497 0120 131C     		mov	r3, r2
 3498 0122 DB00     		lsl	r3, r3, #3
 3499 0124 9B1A     		sub	r3, r3, r2
 3500 0126 DB00     		lsl	r3, r3, #3
 3501 0128 C318     		add	r3, r0, r3
 3502 012a 5B68     		ldr	r3, [r3, #4]
 3503 012c CB18     		add	r3, r1, r3
 3504 012e 5A1E     		sub	r2, r3, #1
2064:Generated_Source\PSoC4/engine_sensor_adc.c **** 				+ (engine_sensor_adc_allConfigs[configNum].numChannels - 1uL)) == chNum)
 3505              		.loc 1 2064 0
 3506 0130 FB68     		ldr	r3, [r7, #12]
 3507 0132 9A42     		cmp	r2, r3
 3508 0134 02D1     		bne	.L226
2066:Generated_Source\PSoC4/engine_sensor_adc.c **** 			{
2067:Generated_Source\PSoC4/engine_sensor_adc.c **** 				configNum++;
 3509              		.loc 1 2067 0
 3510 0136 BB68     		ldr	r3, [r7, #8]
 3511 0138 0133     		add	r3, r3, #1
 3512 013a BB60     		str	r3, [r7, #8]
 3513              	.L226:
2015:Generated_Source\PSoC4/engine_sensor_adc.c **** 		{      
 3514              		.loc 1 2015 0 discriminator 2
 3515 013c FB68     		ldr	r3, [r7, #12]
 3516 013e 0133     		add	r3, r3, #1
 3517 0140 FB60     		str	r3, [r7, #12]
 3518              	.L216:
2015:Generated_Source\PSoC4/engine_sensor_adc.c **** 		{      
 3519              		.loc 1 2015 0 is_stmt 0 discriminator 1
 3520 0142 FB68     		ldr	r3, [r7, #12]
 3521 0144 002B     		cmp	r3, #0
 3522 0146 00D1     		bne	.LCB3018
 3523 0148 69E7     		b	.L227	@long jump
 3524              	.LCB3018:
2068:Generated_Source\PSoC4/engine_sensor_adc.c **** 			}
2069:Generated_Source\PSoC4/engine_sensor_adc.c **** 		} /* for(chNum = 0ul; chNum < engine_sensor_adc_TOTAL_CHANNELS_NUM; chNum++) */
2070:Generated_Source\PSoC4/engine_sensor_adc.c ****         
2071:Generated_Source\PSoC4/engine_sensor_adc.c ****         #if(engine_sensor_adc_IRQ_REMOVE == 0u)
2072:Generated_Source\PSoC4/engine_sensor_adc.c ****             /* Start and set interrupt vector */
2073:Generated_Source\PSoC4/engine_sensor_adc.c ****             CyIntSetPriority(engine_sensor_adc_INTC_NUMBER, engine_sensor_adc_INTC_PRIOR_NUMBER);
 3525              		.loc 1 2073 0 is_stmt 1
 3526 014a 0F20     		mov	r0, #15
 3527 014c 0321     		mov	r1, #3
 3528 014e FFF7FEFF 		bl	CyIntSetPriority
2074:Generated_Source\PSoC4/engine_sensor_adc.c ****             (void)CyIntSetVector(engine_sensor_adc_INTC_NUMBER, &engine_sensor_adc_ISR);
 3529              		.loc 1 2074 0
 3530 0152 1D4B     		ldr	r3, .L229+20
ARM GAS  C:\Users\fneves\AppData\Local\Temp\ccV5UskS.s 			page 100


 3531 0154 0F20     		mov	r0, #15
 3532 0156 191C     		mov	r1, r3
 3533 0158 FFF7FEFF 		bl	CyIntSetVector
2075:Generated_Source\PSoC4/engine_sensor_adc.c ****         #endif   /* End engine_sensor_adc_IRQ_REMOVE */
2076:Generated_Source\PSoC4/engine_sensor_adc.c ****         
2077:Generated_Source\PSoC4/engine_sensor_adc.c ****         /* Initialize configuration zero if SelectConfig has not been called */
2078:Generated_Source\PSoC4/engine_sensor_adc.c ****         if(0u == engine_sensor_adc_selected)
 3534              		.loc 1 2078 0
 3535 015c 1B4B     		ldr	r3, .L229+24
 3536 015e 1B78     		ldrb	r3, [r3]
 3537 0160 002B     		cmp	r3, #0
 3538 0162 22D1     		bne	.L215
2079:Generated_Source\PSoC4/engine_sensor_adc.c **** 	    {
2080:Generated_Source\PSoC4/engine_sensor_adc.c ****             engine_sensor_adc_selected = 1u;
 3539              		.loc 1 2080 0
 3540 0164 194B     		ldr	r3, .L229+24
 3541 0166 0122     		mov	r2, #1
 3542 0168 1A70     		strb	r2, [r3]
2081:Generated_Source\PSoC4/engine_sensor_adc.c ****             configNum = 0u;
 3543              		.loc 1 2081 0
 3544 016a 0023     		mov	r3, #0
 3545 016c BB60     		str	r3, [r7, #8]
2082:Generated_Source\PSoC4/engine_sensor_adc.c ****             /* Change Vref selection if is was routed by Creator. Break. */
2083:Generated_Source\PSoC4/engine_sensor_adc.c ****             #if (engine_sensor_adc_VREF_ROUTED)
2084:Generated_Source\PSoC4/engine_sensor_adc.c ****                 engine_sensor_adc_vrefAMux_DisconnectAll();
2085:Generated_Source\PSoC4/engine_sensor_adc.c ****             #endif
2086:Generated_Source\PSoC4/engine_sensor_adc.c ****             engine_sensor_adc_InitConfig(&engine_sensor_adc_allConfigs[configNum]);
 3546              		.loc 1 2086 0
 3547 016e BA68     		ldr	r2, [r7, #8]
 3548 0170 131C     		mov	r3, r2
 3549 0172 DB00     		lsl	r3, r3, #3
 3550 0174 9B1A     		sub	r3, r3, r2
 3551 0176 DB00     		lsl	r3, r3, #3
 3552 0178 0F4A     		ldr	r2, .L229+4
 3553 017a 9B18     		add	r3, r3, r2
 3554 017c 181C     		mov	r0, r3
 3555 017e FFF7FEFF 		bl	engine_sensor_adc_InitConfig
2087:Generated_Source\PSoC4/engine_sensor_adc.c ****             /* Change Vref selection if is was routed by Creator. Make. */
2088:Generated_Source\PSoC4/engine_sensor_adc.c ****             #if (engine_sensor_adc_VREF_ROUTED)
2089:Generated_Source\PSoC4/engine_sensor_adc.c ****                 engine_sensor_adc_vrefAMux_Select((uint8)configNum);
2090:Generated_Source\PSoC4/engine_sensor_adc.c ****             #endif
2091:Generated_Source\PSoC4/engine_sensor_adc.c ****             engine_sensor_adc_SAR_CHAN_EN_REG = engine_sensor_adc_allConfigs[configNum].chanEn;
 3556              		.loc 1 2091 0
 3557 0182 134A     		ldr	r2, .L229+28
 3558 0184 0C48     		ldr	r0, .L229+4
 3559 0186 B968     		ldr	r1, [r7, #8]
 3560 0188 0B1C     		mov	r3, r1
 3561 018a DB00     		lsl	r3, r3, #3
 3562 018c 5B1A     		sub	r3, r3, r1
 3563 018e DB00     		lsl	r3, r3, #3
 3564 0190 C318     		add	r3, r0, r3
 3565 0192 2033     		add	r3, r3, #32
 3566 0194 1B68     		ldr	r3, [r3]
 3567 0196 1360     		str	r3, [r2]
2092:Generated_Source\PSoC4/engine_sensor_adc.c ****             #if(0u != engine_sensor_adc_ANY_CONFIG_USES_FILTER)	
2093:Generated_Source\PSoC4/engine_sensor_adc.c ****                 engine_sensor_adc_filterVinMux_Select((uint8)configNum);
 3568              		.loc 1 2093 0
ARM GAS  C:\Users\fneves\AppData\Local\Temp\ccV5UskS.s 			page 101


 3569 0198 BB68     		ldr	r3, [r7, #8]
 3570 019a DBB2     		uxtb	r3, r3
 3571 019c 181C     		mov	r0, r3
 3572 019e FFF7FEFF 		bl	engine_sensor_adc_filterVinMux_Select
2094:Generated_Source\PSoC4/engine_sensor_adc.c ****                 engine_sensor_adc_filterInit(configNum);
 3573              		.loc 1 2094 0
 3574 01a2 BB68     		ldr	r3, [r7, #8]
 3575 01a4 181C     		mov	r0, r3
 3576 01a6 FFF7FEFF 		bl	engine_sensor_adc_filterInit
 3577              	.L215:
2095:Generated_Source\PSoC4/engine_sensor_adc.c ****             #endif
2096:Generated_Source\PSoC4/engine_sensor_adc.c ****         }           
2097:Generated_Source\PSoC4/engine_sensor_adc.c **** 	}
2098:Generated_Source\PSoC4/engine_sensor_adc.c ****     return;
 3578              		.loc 1 2098 0
 3579 01aa C046     		mov	r8, r8
2099:Generated_Source\PSoC4/engine_sensor_adc.c **** }
 3580              		.loc 1 2099 0
 3581 01ac BD46     		mov	sp, r7
 3582 01ae 04B0     		add	sp, sp, #16
 3583              		@ sp needed
 3584 01b0 80BD     		pop	{r7, pc}
 3585              	.L230:
 3586 01b2 C046     		.align	2
 3587              	.L229:
 3588 01b4 00000000 		.word	engine_sensor_adc_initVar
 3589 01b8 00000000 		.word	engine_sensor_adc_allConfigs
 3590 01bc 00000000 		.word	engine_sensor_adc_offset
 3591 01c0 10270000 		.word	10000
 3592 01c4 00000000 		.word	engine_sensor_adc_countsPer10Volt
 3593 01c8 00000000 		.word	engine_sensor_adc_ISR
 3594 01cc 00000000 		.word	engine_sensor_adc_selected
 3595 01d0 20003A40 		.word	1077542944
 3596              		.cfi_endproc
 3597              	.LFE40:
 3598              		.size	engine_sensor_adc_Init, .-engine_sensor_adc_Init
 3599              		.section	.text.engine_sensor_adc_Enable,"ax",%progbits
 3600              		.align	2
 3601              		.global	engine_sensor_adc_Enable
 3602              		.code	16
 3603              		.thumb_func
 3604              		.type	engine_sensor_adc_Enable, %function
 3605              	engine_sensor_adc_Enable:
 3606              	.LFB41:
2100:Generated_Source\PSoC4/engine_sensor_adc.c **** 
2101:Generated_Source\PSoC4/engine_sensor_adc.c **** 
2102:Generated_Source\PSoC4/engine_sensor_adc.c **** /* ****************************************************************************
2103:Generated_Source\PSoC4/engine_sensor_adc.c **** * Function Name: engine_sensor_adc_Enable
2104:Generated_Source\PSoC4/engine_sensor_adc.c **** ****************************************************************************//*
2105:Generated_Source\PSoC4/engine_sensor_adc.c **** *
2106:Generated_Source\PSoC4/engine_sensor_adc.c **** * \brief Enables the component. 
2107:Generated_Source\PSoC4/engine_sensor_adc.c **** *
2108:Generated_Source\PSoC4/engine_sensor_adc.c **** * \param None
2109:Generated_Source\PSoC4/engine_sensor_adc.c **** * 
2110:Generated_Source\PSoC4/engine_sensor_adc.c **** * \return None
2111:Generated_Source\PSoC4/engine_sensor_adc.c **** * 
2112:Generated_Source\PSoC4/engine_sensor_adc.c **** * \sideeffect
ARM GAS  C:\Users\fneves\AppData\Local\Temp\ccV5UskS.s 			page 102


2113:Generated_Source\PSoC4/engine_sensor_adc.c **** *  None
2114:Generated_Source\PSoC4/engine_sensor_adc.c **** *
2115:Generated_Source\PSoC4/engine_sensor_adc.c **** * <b>Code Snippet</b>
2116:Generated_Source\PSoC4/engine_sensor_adc.c **** *  \snippet main.c snippet_engine_sensor_adc_Enable
2117:Generated_Source\PSoC4/engine_sensor_adc.c **** *
2118:Generated_Source\PSoC4/engine_sensor_adc.c **** *******************************************************************************/
2119:Generated_Source\PSoC4/engine_sensor_adc.c **** void engine_sensor_adc_Enable(void) 
2120:Generated_Source\PSoC4/engine_sensor_adc.c **** {
 3607              		.loc 1 2120 0
 3608              		.cfi_startproc
 3609 0000 80B5     		push	{r7, lr}
 3610              		.cfi_def_cfa_offset 8
 3611              		.cfi_offset 7, -8
 3612              		.cfi_offset 14, -4
 3613 0002 00AF     		add	r7, sp, #0
 3614              		.cfi_def_cfa_register 7
2121:Generated_Source\PSoC4/engine_sensor_adc.c **** 
2122:Generated_Source\PSoC4/engine_sensor_adc.c ****     #if(0u != engine_sensor_adc_ANY_CONFIG_USES_FILTER)	
2123:Generated_Source\PSoC4/engine_sensor_adc.c ****     	if((engine_sensor_adc_allConfigs[engine_sensor_adc_currentConfig].miscConfig
 3615              		.loc 1 2123 0
 3616 0004 174B     		ldr	r3, .L236
 3617 0006 1A68     		ldr	r2, [r3]
 3618 0008 1749     		ldr	r1, .L236+4
 3619 000a 131C     		mov	r3, r2
 3620 000c DB00     		lsl	r3, r3, #3
 3621 000e 9B1A     		sub	r3, r3, r2
 3622 0010 DB00     		lsl	r3, r3, #3
 3623 0012 CB18     		add	r3, r1, r3
 3624 0014 3033     		add	r3, r3, #48
 3625 0016 1B68     		ldr	r3, [r3]
2124:Generated_Source\PSoC4/engine_sensor_adc.c ****     		& engine_sensor_adc_MISC_CONFIG_FILTER_PRESENT_MSK)
 3626              		.loc 1 2124 0
 3627 0018 0222     		mov	r2, #2
 3628 001a 1340     		and	r3, r2
2123:Generated_Source\PSoC4/engine_sensor_adc.c ****     		& engine_sensor_adc_MISC_CONFIG_FILTER_PRESENT_MSK)
 3629              		.loc 1 2123 0
 3630 001c 0BD0     		beq	.L232
2125:Generated_Source\PSoC4/engine_sensor_adc.c ****     		== engine_sensor_adc_MISC_CONFIG_FILTER_PRESENT_MSK)
2126:Generated_Source\PSoC4/engine_sensor_adc.c ****     	{
2127:Generated_Source\PSoC4/engine_sensor_adc.c ****             engine_sensor_adc_FILTERAGND2SAR_BUFFER_Enable();
 3631              		.loc 1 2127 0
 3632 001e FFF7FEFF 		bl	engine_sensor_adc_FILTERAGND2SAR_BUFFER_Enable
2128:Generated_Source\PSoC4/engine_sensor_adc.c ****     		engine_sensor_adc_UABH_A_Enable();
 3633              		.loc 1 2128 0
 3634 0022 FFF7FEFF 		bl	engine_sensor_adc_UABH_A_Enable
2129:Generated_Source\PSoC4/engine_sensor_adc.c ****     		engine_sensor_adc_UABH_B_Enable();
 3635              		.loc 1 2129 0
 3636 0026 FFF7FEFF 		bl	engine_sensor_adc_UABH_B_Enable
2130:Generated_Source\PSoC4/engine_sensor_adc.c ****             engine_sensor_adc_UABH_B_Run(1u);
 3637              		.loc 1 2130 0
 3638 002a 0120     		mov	r0, #1
 3639 002c FFF7FEFF 		bl	engine_sensor_adc_UABH_B_Run
2131:Generated_Source\PSoC4/engine_sensor_adc.c ****             engine_sensor_adc_UABH_A_Run(1u);
 3640              		.loc 1 2131 0
 3641 0030 0120     		mov	r0, #1
 3642 0032 FFF7FEFF 		bl	engine_sensor_adc_UABH_A_Run
 3643              	.L232:
ARM GAS  C:\Users\fneves\AppData\Local\Temp\ccV5UskS.s 			page 103


2132:Generated_Source\PSoC4/engine_sensor_adc.c ****     	}
2133:Generated_Source\PSoC4/engine_sensor_adc.c ****     #endif /* engine_sensor_adc_ANY_CONFIG_USES_FILTER != 0u */
2134:Generated_Source\PSoC4/engine_sensor_adc.c ****         
2135:Generated_Source\PSoC4/engine_sensor_adc.c ****     if (0u == (engine_sensor_adc_SAR_CTRL_REG & engine_sensor_adc_SAR_CTRL_ENABLED_MSK))
 3644              		.loc 1 2135 0
 3645 0036 0D4B     		ldr	r3, .L236+8
 3646 0038 1B68     		ldr	r3, [r3]
 3647 003a 002B     		cmp	r3, #0
 3648 003c 0EDB     		blt	.L233
2136:Generated_Source\PSoC4/engine_sensor_adc.c ****     {
2137:Generated_Source\PSoC4/engine_sensor_adc.c ****         while (0u != (engine_sensor_adc_SAR_STATUS_REG & engine_sensor_adc_BUSY_MSK))
 3649              		.loc 1 2137 0
 3650 003e C046     		mov	r8, r8
 3651              	.L234:
 3652              		.loc 1 2137 0 is_stmt 0 discriminator 1
 3653 0040 0B4B     		ldr	r3, .L236+12
 3654 0042 1B68     		ldr	r3, [r3]
 3655 0044 002B     		cmp	r3, #0
 3656 0046 FBDB     		blt	.L234
2138:Generated_Source\PSoC4/engine_sensor_adc.c ****         {
2139:Generated_Source\PSoC4/engine_sensor_adc.c ****             /* wait for SAR to go idle to avoid deadlock */
2140:Generated_Source\PSoC4/engine_sensor_adc.c ****         }
2141:Generated_Source\PSoC4/engine_sensor_adc.c ****         
2142:Generated_Source\PSoC4/engine_sensor_adc.c ****         engine_sensor_adc_SAR_CTRL_REG |= engine_sensor_adc_SAR_CTRL_ENABLED_MSK;
 3657              		.loc 1 2142 0 is_stmt 1
 3658 0048 084B     		ldr	r3, .L236+8
 3659 004a 084A     		ldr	r2, .L236+8
 3660 004c 1268     		ldr	r2, [r2]
 3661 004e 8021     		mov	r1, #128
 3662 0050 0906     		lsl	r1, r1, #24
 3663 0052 0A43     		orr	r2, r1
 3664 0054 1A60     		str	r2, [r3]
2143:Generated_Source\PSoC4/engine_sensor_adc.c ****         
2144:Generated_Source\PSoC4/engine_sensor_adc.c ****         /* The block is ready to use 10 us after the enable signal is set high. */
2145:Generated_Source\PSoC4/engine_sensor_adc.c ****         CyDelayUs(engine_sensor_adc_10US_DELAY);
 3665              		.loc 1 2145 0
 3666 0056 0A20     		mov	r0, #10
 3667 0058 FFF7FEFF 		bl	CyDelayUs
 3668              	.L233:
2146:Generated_Source\PSoC4/engine_sensor_adc.c ****     }
2147:Generated_Source\PSoC4/engine_sensor_adc.c ****     return;
 3669              		.loc 1 2147 0
 3670 005c C046     		mov	r8, r8
2148:Generated_Source\PSoC4/engine_sensor_adc.c **** }
 3671              		.loc 1 2148 0
 3672 005e BD46     		mov	sp, r7
 3673              		@ sp needed
 3674 0060 80BD     		pop	{r7, pc}
 3675              	.L237:
 3676 0062 C046     		.align	2
 3677              	.L236:
 3678 0064 04000000 		.word	engine_sensor_adc_currentConfig
 3679 0068 00000000 		.word	engine_sensor_adc_allConfigs
 3680 006c 00003A40 		.word	1077542912
 3681 0070 A0023A40 		.word	1077543584
 3682              		.cfi_endproc
 3683              	.LFE41:
ARM GAS  C:\Users\fneves\AppData\Local\Temp\ccV5UskS.s 			page 104


 3684              		.size	engine_sensor_adc_Enable, .-engine_sensor_adc_Enable
 3685              		.text
 3686              	.Letext0:
 3687              		.file 2 "Generated_Source\\PSoC4\\cytypes.h"
 3688              		.file 3 "Generated_Source\\PSoC4\\engine_sensor_adc_UABH_A_CyUAB_types.h"
 3689              		.file 4 "Generated_Source\\PSoC4\\engine_sensor_adc.h"
 3690              		.file 5 "Generated_Source\\PSoC4\\engine_sensor_adc_UABH_A.h"
 3691              		.file 6 "Generated_Source\\PSoC4\\engine_sensor_adc_UABH_B.h"
 3692              		.section	.debug_info,"",%progbits
 3693              	.Ldebug_info0:
 3694 0000 340F0000 		.4byte	0xf34
 3695 0004 0400     		.2byte	0x4
 3696 0006 00000000 		.4byte	.Ldebug_abbrev0
 3697 000a 04       		.byte	0x4
 3698 000b 01       		.uleb128 0x1
 3699 000c 90000000 		.4byte	.LASF224
 3700 0010 01       		.byte	0x1
 3701 0011 C6070000 		.4byte	.LASF225
 3702 0015 E00B0000 		.4byte	.LASF226
 3703 0019 00000000 		.4byte	.Ldebug_ranges0+0
 3704 001d 00000000 		.4byte	0
 3705 0021 00000000 		.4byte	.Ldebug_line0
 3706 0025 02       		.uleb128 0x2
 3707 0026 01       		.byte	0x1
 3708 0027 06       		.byte	0x6
 3709 0028 36030000 		.4byte	.LASF0
 3710 002c 02       		.uleb128 0x2
 3711 002d 01       		.byte	0x1
 3712 002e 08       		.byte	0x8
 3713 002f 9D0B0000 		.4byte	.LASF1
 3714 0033 02       		.uleb128 0x2
 3715 0034 02       		.byte	0x2
 3716 0035 05       		.byte	0x5
 3717 0036 C30B0000 		.4byte	.LASF2
 3718 003a 02       		.uleb128 0x2
 3719 003b 02       		.byte	0x2
 3720 003c 07       		.byte	0x7
 3721 003d F1070000 		.4byte	.LASF3
 3722 0041 02       		.uleb128 0x2
 3723 0042 04       		.byte	0x4
 3724 0043 05       		.byte	0x5
 3725 0044 55040000 		.4byte	.LASF4
 3726 0048 02       		.uleb128 0x2
 3727 0049 04       		.byte	0x4
 3728 004a 07       		.byte	0x7
 3729 004b 0B070000 		.4byte	.LASF5
 3730 004f 02       		.uleb128 0x2
 3731 0050 08       		.byte	0x8
 3732 0051 05       		.byte	0x5
 3733 0052 B4040000 		.4byte	.LASF6
 3734 0056 02       		.uleb128 0x2
 3735 0057 08       		.byte	0x8
 3736 0058 07       		.byte	0x7
 3737 0059 3C020000 		.4byte	.LASF7
 3738 005d 03       		.uleb128 0x3
 3739 005e 04       		.byte	0x4
 3740 005f 05       		.byte	0x5
ARM GAS  C:\Users\fneves\AppData\Local\Temp\ccV5UskS.s 			page 105


 3741 0060 696E7400 		.ascii	"int\000"
 3742 0064 02       		.uleb128 0x2
 3743 0065 04       		.byte	0x4
 3744 0066 07       		.byte	0x7
 3745 0067 90060000 		.4byte	.LASF8
 3746 006b 04       		.uleb128 0x4
 3747 006c 91040000 		.4byte	.LASF9
 3748 0070 02       		.byte	0x2
 3749 0071 B901     		.2byte	0x1b9
 3750 0073 2C000000 		.4byte	0x2c
 3751 0077 04       		.uleb128 0x4
 3752 0078 34000000 		.4byte	.LASF10
 3753 007c 02       		.byte	0x2
 3754 007d BA01     		.2byte	0x1ba
 3755 007f 3A000000 		.4byte	0x3a
 3756 0083 04       		.uleb128 0x4
 3757 0084 56050000 		.4byte	.LASF11
 3758 0088 02       		.byte	0x2
 3759 0089 BB01     		.2byte	0x1bb
 3760 008b 48000000 		.4byte	0x48
 3761 008f 04       		.uleb128 0x4
 3762 0090 BB0C0000 		.4byte	.LASF12
 3763 0094 02       		.byte	0x2
 3764 0095 BD01     		.2byte	0x1bd
 3765 0097 33000000 		.4byte	0x33
 3766 009b 04       		.uleb128 0x4
 3767 009c EA030000 		.4byte	.LASF13
 3768 00a0 02       		.byte	0x2
 3769 00a1 BE01     		.2byte	0x1be
 3770 00a3 41000000 		.4byte	0x41
 3771 00a7 04       		.uleb128 0x4
 3772 00a8 7F090000 		.4byte	.LASF14
 3773 00ac 02       		.byte	0x2
 3774 00ad BF01     		.2byte	0x1bf
 3775 00af B3000000 		.4byte	0xb3
 3776 00b3 02       		.uleb128 0x2
 3777 00b4 04       		.byte	0x4
 3778 00b5 04       		.byte	0x4
 3779 00b6 A10A0000 		.4byte	.LASF15
 3780 00ba 02       		.uleb128 0x2
 3781 00bb 08       		.byte	0x8
 3782 00bc 04       		.byte	0x4
 3783 00bd 77100000 		.4byte	.LASF16
 3784 00c1 04       		.uleb128 0x4
 3785 00c2 590A0000 		.4byte	.LASF17
 3786 00c6 02       		.byte	0x2
 3787 00c7 C401     		.2byte	0x1c4
 3788 00c9 4F000000 		.4byte	0x4f
 3789 00cd 02       		.uleb128 0x2
 3790 00ce 01       		.byte	0x1
 3791 00cf 08       		.byte	0x8
 3792 00d0 4A0D0000 		.4byte	.LASF18
 3793 00d4 04       		.uleb128 0x4
 3794 00d5 40090000 		.4byte	.LASF19
 3795 00d9 02       		.byte	0x2
 3796 00da 6502     		.2byte	0x265
 3797 00dc E0000000 		.4byte	0xe0
ARM GAS  C:\Users\fneves\AppData\Local\Temp\ccV5UskS.s 			page 106


 3798 00e0 05       		.uleb128 0x5
 3799 00e1 83000000 		.4byte	0x83
 3800 00e5 04       		.uleb128 0x4
 3801 00e6 670D0000 		.4byte	.LASF20
 3802 00ea 02       		.byte	0x2
 3803 00eb 7502     		.2byte	0x275
 3804 00ed F1000000 		.4byte	0xf1
 3805 00f1 06       		.uleb128 0x6
 3806 00f2 04       		.byte	0x4
 3807 00f3 F7000000 		.4byte	0xf7
 3808 00f7 07       		.uleb128 0x7
 3809 00f8 02       		.uleb128 0x2
 3810 00f9 04       		.byte	0x4
 3811 00fa 07       		.byte	0x7
 3812 00fb 87090000 		.4byte	.LASF21
 3813 00ff 08       		.uleb128 0x8
 3814 0100 08       		.byte	0x8
 3815 0101 03       		.byte	0x3
 3816 0102 44       		.byte	0x44
 3817 0103 20010000 		.4byte	0x120
 3818 0107 09       		.uleb128 0x9
 3819 0108 53020000 		.4byte	.LASF22
 3820 010c 03       		.byte	0x3
 3821 010d 45       		.byte	0x45
 3822 010e 20010000 		.4byte	0x120
 3823 0112 00       		.byte	0
 3824 0113 09       		.uleb128 0x9
 3825 0114 15060000 		.4byte	.LASF23
 3826 0118 03       		.byte	0x3
 3827 0119 46       		.byte	0x46
 3828 011a 83000000 		.4byte	0x83
 3829 011e 04       		.byte	0x4
 3830 011f 00       		.byte	0
 3831 0120 06       		.uleb128 0x6
 3832 0121 04       		.byte	0x4
 3833 0122 D4000000 		.4byte	0xd4
 3834 0126 0A       		.uleb128 0xa
 3835 0127 7D050000 		.4byte	.LASF24
 3836 012b 03       		.byte	0x3
 3837 012c 47       		.byte	0x47
 3838 012d FF000000 		.4byte	0xff
 3839 0131 08       		.uleb128 0x8
 3840 0132 0C       		.byte	0xc
 3841 0133 03       		.byte	0x3
 3842 0134 4E       		.byte	0x4e
 3843 0135 76010000 		.4byte	0x176
 3844 0139 09       		.uleb128 0x9
 3845 013a E20E0000 		.4byte	.LASF25
 3846 013e 03       		.byte	0x3
 3847 013f 4F       		.byte	0x4f
 3848 0140 76010000 		.4byte	0x176
 3849 0144 00       		.byte	0
 3850 0145 09       		.uleb128 0x9
 3851 0146 69080000 		.4byte	.LASF26
 3852 014a 03       		.byte	0x3
 3853 014b 50       		.byte	0x50
 3854 014c 7C010000 		.4byte	0x17c
ARM GAS  C:\Users\fneves\AppData\Local\Temp\ccV5UskS.s 			page 107


 3855 0150 04       		.byte	0x4
 3856 0151 09       		.uleb128 0x9
 3857 0152 A90C0000 		.4byte	.LASF27
 3858 0156 03       		.byte	0x3
 3859 0157 51       		.byte	0x51
 3860 0158 77000000 		.4byte	0x77
 3861 015c 08       		.byte	0x8
 3862 015d 09       		.uleb128 0x9
 3863 015e 6D100000 		.4byte	.LASF28
 3864 0162 03       		.byte	0x3
 3865 0163 52       		.byte	0x52
 3866 0164 6B000000 		.4byte	0x6b
 3867 0168 0A       		.byte	0xa
 3868 0169 09       		.uleb128 0x9
 3869 016a 63100000 		.4byte	.LASF29
 3870 016e 03       		.byte	0x3
 3871 016f 53       		.byte	0x53
 3872 0170 6B000000 		.4byte	0x6b
 3873 0174 0B       		.byte	0xb
 3874 0175 00       		.byte	0
 3875 0176 06       		.uleb128 0x6
 3876 0177 04       		.byte	0x4
 3877 0178 77000000 		.4byte	0x77
 3878 017c 06       		.uleb128 0x6
 3879 017d 04       		.byte	0x4
 3880 017e 26010000 		.4byte	0x126
 3881 0182 0A       		.uleb128 0xa
 3882 0183 900B0000 		.4byte	.LASF30
 3883 0187 03       		.byte	0x3
 3884 0188 54       		.byte	0x54
 3885 0189 31010000 		.4byte	0x131
 3886 018d 0B       		.uleb128 0xb
 3887 018e 01       		.byte	0x1
 3888 018f 03       		.byte	0x3
 3889 0190 7001     		.2byte	0x170
 3890 0192 EB010000 		.4byte	0x1eb
 3891 0196 0C       		.uleb128 0xc
 3892 0197 4B0A0000 		.4byte	.LASF31
 3893 019b 00       		.sleb128 0
 3894 019c 0C       		.uleb128 0xc
 3895 019d A0010000 		.4byte	.LASF32
 3896 01a1 01       		.sleb128 1
 3897 01a2 0C       		.uleb128 0xc
 3898 01a3 AF010000 		.4byte	.LASF33
 3899 01a7 02       		.sleb128 2
 3900 01a8 0C       		.uleb128 0xc
 3901 01a9 D30E0000 		.4byte	.LASF34
 3902 01ad 03       		.sleb128 3
 3903 01ae 0C       		.uleb128 0xc
 3904 01af E0010000 		.4byte	.LASF35
 3905 01b3 04       		.sleb128 4
 3906 01b4 0C       		.uleb128 0xc
 3907 01b5 EF010000 		.4byte	.LASF36
 3908 01b9 05       		.sleb128 5
 3909 01ba 0C       		.uleb128 0xc
 3910 01bb 7E100000 		.4byte	.LASF37
 3911 01bf 06       		.sleb128 6
ARM GAS  C:\Users\fneves\AppData\Local\Temp\ccV5UskS.s 			page 108


 3912 01c0 0C       		.uleb128 0xc
 3913 01c1 0F020000 		.4byte	.LASF38
 3914 01c5 07       		.sleb128 7
 3915 01c6 0C       		.uleb128 0xc
 3916 01c7 1E020000 		.4byte	.LASF39
 3917 01cb 08       		.sleb128 8
 3918 01cc 0C       		.uleb128 0xc
 3919 01cd 2D020000 		.4byte	.LASF40
 3920 01d1 09       		.sleb128 9
 3921 01d2 0C       		.uleb128 0xc
 3922 01d3 6C020000 		.4byte	.LASF41
 3923 01d7 0A       		.sleb128 10
 3924 01d8 0C       		.uleb128 0xc
 3925 01d9 5F0A0000 		.4byte	.LASF42
 3926 01dd 0B       		.sleb128 11
 3927 01de 0C       		.uleb128 0xc
 3928 01df A8020000 		.4byte	.LASF43
 3929 01e3 0C       		.sleb128 12
 3930 01e4 0C       		.uleb128 0xc
 3931 01e5 2C0E0000 		.4byte	.LASF44
 3932 01e9 0F       		.sleb128 15
 3933 01ea 00       		.byte	0
 3934 01eb 0B       		.uleb128 0xb
 3935 01ec 04       		.byte	0x4
 3936 01ed 03       		.byte	0x3
 3937 01ee CD01     		.2byte	0x1cd
 3938 01f0 32040000 		.4byte	0x432
 3939 01f4 0C       		.uleb128 0xc
 3940 01f5 00000000 		.4byte	.LASF45
 3941 01f9 B0808004 		.sleb128 8388656
 3942 01fd 0C       		.uleb128 0xc
 3943 01fe 0D000000 		.4byte	.LASF46
 3944 0202 B0808404 		.sleb128 8454192
 3945 0206 0C       		.uleb128 0xc
 3946 0207 1A000000 		.4byte	.LASF47
 3947 020b B0808804 		.sleb128 8519728
 3948 020f 0C       		.uleb128 0xc
 3949 0210 27000000 		.4byte	.LASF48
 3950 0214 B0808C04 		.sleb128 8585264
 3951 0218 0C       		.uleb128 0xc
 3952 0219 26080000 		.4byte	.LASF49
 3953 021d B08010   		.sleb128 262192
 3954 0220 0C       		.uleb128 0xc
 3955 0221 25100000 		.4byte	.LASF50
 3956 0225 B08014   		.sleb128 327728
 3957 0228 0C       		.uleb128 0xc
 3958 0229 C1080000 		.4byte	.LASF51
 3959 022d B08020   		.sleb128 524336
 3960 0230 0C       		.uleb128 0xc
 3961 0231 57100000 		.4byte	.LASF52
 3962 0235 B08024   		.sleb128 589872
 3963 0238 0C       		.uleb128 0xc
 3964 0239 A9050000 		.4byte	.LASF53
 3965 023d B08028   		.sleb128 655408
 3966 0240 0C       		.uleb128 0xc
 3967 0241 6D0F0000 		.4byte	.LASF54
 3968 0245 C0808004 		.sleb128 8388672
ARM GAS  C:\Users\fneves\AppData\Local\Temp\ccV5UskS.s 			page 109


 3969 0249 0C       		.uleb128 0xc
 3970 024a 4E0B0000 		.4byte	.LASF55
 3971 024e C0809004 		.sleb128 8650816
 3972 0252 0C       		.uleb128 0xc
 3973 0253 7C060000 		.4byte	.LASF56
 3974 0257 C080A004 		.sleb128 8912960
 3975 025b 0C       		.uleb128 0xc
 3976 025c 4D000000 		.4byte	.LASF57
 3977 0260 C080B004 		.sleb128 9175104
 3978 0264 0C       		.uleb128 0xc
 3979 0265 03040000 		.4byte	.LASF58
 3980 0269 C080C000 		.sleb128 1048640
 3981 026d 0C       		.uleb128 0xc
 3982 026e 0F040000 		.4byte	.LASF59
 3983 0272 C080D000 		.sleb128 1310784
 3984 0276 0C       		.uleb128 0xc
 3985 0277 42030000 		.4byte	.LASF60
 3986 027b C400     		.sleb128 68
 3987 027d 0C       		.uleb128 0xc
 3988 027e 5F070000 		.4byte	.LASF61
 3989 0282 C48010   		.sleb128 262212
 3990 0285 0C       		.uleb128 0xc
 3991 0286 7D0B0000 		.4byte	.LASF62
 3992 028a C48020   		.sleb128 524356
 3993 028d 0C       		.uleb128 0xc
 3994 028e 13090000 		.4byte	.LASF63
 3995 0292 C48030   		.sleb128 786500
 3996 0295 0C       		.uleb128 0xc
 3997 0296 380A0000 		.4byte	.LASF64
 3998 029a C800     		.sleb128 72
 3999 029c 0C       		.uleb128 0xc
 4000 029d EC0E0000 		.4byte	.LASF65
 4001 02a1 C88010   		.sleb128 262216
 4002 02a4 0C       		.uleb128 0xc
 4003 02a5 8D100000 		.4byte	.LASF66
 4004 02a9 C88020   		.sleb128 524360
 4005 02ac 0C       		.uleb128 0xc
 4006 02ad 99090000 		.4byte	.LASF67
 4007 02b1 C880C000 		.sleb128 1048648
 4008 02b5 0C       		.uleb128 0xc
 4009 02b6 AC0F0000 		.4byte	.LASF68
 4010 02ba D0808004 		.sleb128 8388688
 4011 02be 0C       		.uleb128 0xc
 4012 02bf 6F0A0000 		.4byte	.LASF69
 4013 02c3 D0809004 		.sleb128 8650832
 4014 02c7 0C       		.uleb128 0xc
 4015 02c8 01060000 		.4byte	.LASF70
 4016 02cc D080A004 		.sleb128 8912976
 4017 02d0 0C       		.uleb128 0xc
 4018 02d1 61000000 		.4byte	.LASF71
 4019 02d5 D080B004 		.sleb128 9175120
 4020 02d9 0C       		.uleb128 0xc
 4021 02da 8C050000 		.4byte	.LASF72
 4022 02de D080C000 		.sleb128 1048656
 4023 02e2 0C       		.uleb128 0xc
 4024 02e3 98050000 		.4byte	.LASF73
 4025 02e7 D080D000 		.sleb128 1310800
ARM GAS  C:\Users\fneves\AppData\Local\Temp\ccV5UskS.s 			page 110


 4026 02eb 0C       		.uleb128 0xc
 4027 02ec 68030000 		.4byte	.LASF74
 4028 02f0 D400     		.sleb128 84
 4029 02f2 0C       		.uleb128 0xc
 4030 02f3 AD090000 		.4byte	.LASF75
 4031 02f7 D48010   		.sleb128 262228
 4032 02fa 0C       		.uleb128 0xc
 4033 02fb 020A0000 		.4byte	.LASF76
 4034 02ff D48020   		.sleb128 524372
 4035 0302 0C       		.uleb128 0xc
 4036 0303 0B0B0000 		.4byte	.LASF77
 4037 0307 D48030   		.sleb128 786516
 4038 030a 0C       		.uleb128 0xc
 4039 030b 00090000 		.4byte	.LASF78
 4040 030f D800     		.sleb128 88
 4041 0311 0C       		.uleb128 0xc
 4042 0312 E10D0000 		.4byte	.LASF79
 4043 0316 D88010   		.sleb128 262232
 4044 0319 0C       		.uleb128 0xc
 4045 031a 5F010000 		.4byte	.LASF80
 4046 031e D88020   		.sleb128 524376
 4047 0321 0C       		.uleb128 0xc
 4048 0322 AB0B0000 		.4byte	.LASF81
 4049 0326 D88030   		.sleb128 786520
 4050 0329 0C       		.uleb128 0xc
 4051 032a 7A0C0000 		.4byte	.LASF82
 4052 032e D880C000 		.sleb128 1048664
 4053 0332 0C       		.uleb128 0xc
 4054 0333 E60F0000 		.4byte	.LASF83
 4055 0337 E0808004 		.sleb128 8388704
 4056 033b 0C       		.uleb128 0xc
 4057 033c 690B0000 		.4byte	.LASF84
 4058 0340 E0809004 		.sleb128 8650848
 4059 0344 0C       		.uleb128 0xc
 4060 0345 9D060000 		.4byte	.LASF85
 4061 0349 E080A004 		.sleb128 8912992
 4062 034d 0C       		.uleb128 0xc
 4063 034e 7C000000 		.4byte	.LASF86
 4064 0352 E080B004 		.sleb128 9175136
 4065 0356 0C       		.uleb128 0xc
 4066 0357 E9080000 		.4byte	.LASF87
 4067 035b E080C000 		.sleb128 1048672
 4068 035f 0C       		.uleb128 0xc
 4069 0360 D8090000 		.4byte	.LASF88
 4070 0364 E080D000 		.sleb128 1310816
 4071 0368 0C       		.uleb128 0xc
 4072 0369 8C080000 		.4byte	.LASF89
 4073 036d E400     		.sleb128 100
 4074 036f 0C       		.uleb128 0xc
 4075 0370 CD0B0000 		.4byte	.LASF90
 4076 0374 E48010   		.sleb128 262244
 4077 0377 0C       		.uleb128 0xc
 4078 0378 3D0C0000 		.4byte	.LASF91
 4079 037c E48020   		.sleb128 524388
 4080 037f 0C       		.uleb128 0xc
 4081 0380 4F0D0000 		.4byte	.LASF92
 4082 0384 E48030   		.sleb128 786532
ARM GAS  C:\Users\fneves\AppData\Local\Temp\ccV5UskS.s 			page 111


 4083 0387 0C       		.uleb128 0xc
 4084 0388 E40C0000 		.4byte	.LASF93
 4085 038c E800     		.sleb128 104
 4086 038e 0C       		.uleb128 0xc
 4087 038f E6040000 		.4byte	.LASF94
 4088 0393 E88010   		.sleb128 262248
 4089 0396 0C       		.uleb128 0xc
 4090 0397 F70C0000 		.4byte	.LASF95
 4091 039b E88020   		.sleb128 524392
 4092 039e 0C       		.uleb128 0xc
 4093 039f B70B0000 		.4byte	.LASF96
 4094 03a3 E88030   		.sleb128 786536
 4095 03a6 0C       		.uleb128 0xc
 4096 03a7 860C0000 		.4byte	.LASF97
 4097 03ab E880C000 		.sleb128 1048680
 4098 03af 0C       		.uleb128 0xc
 4099 03b0 150A0000 		.4byte	.LASF98
 4100 03b4 E880D000 		.sleb128 1310824
 4101 03b8 0C       		.uleb128 0xc
 4102 03b9 19100000 		.4byte	.LASF99
 4103 03bd EC00     		.sleb128 108
 4104 03bf 0C       		.uleb128 0xc
 4105 03c0 FA020000 		.4byte	.LASF100
 4106 03c4 EC8010   		.sleb128 262252
 4107 03c7 0C       		.uleb128 0xc
 4108 03c8 9E030000 		.4byte	.LASF101
 4109 03cc EC8020   		.sleb128 524396
 4110 03cf 0C       		.uleb128 0xc
 4111 03d0 4B100000 		.4byte	.LASF102
 4112 03d4 EC8030   		.sleb128 786540
 4113 03d7 0C       		.uleb128 0xc
 4114 03d8 F1050000 		.4byte	.LASF103
 4115 03dc F000     		.sleb128 112
 4116 03de 0C       		.uleb128 0xc
 4117 03df 1D070000 		.4byte	.LASF104
 4118 03e3 F08010   		.sleb128 262256
 4119 03e6 0C       		.uleb128 0xc
 4120 03e7 DF050000 		.4byte	.LASF105
 4121 03eb F08020   		.sleb128 524400
 4122 03ee 0C       		.uleb128 0xc
 4123 03ef CE0D0000 		.4byte	.LASF106
 4124 03f3 F080E000 		.sleb128 1572976
 4125 03f7 0C       		.uleb128 0xc
 4126 03f8 58020000 		.4byte	.LASF107
 4127 03fc F080F000 		.sleb128 1835120
 4128 0400 0C       		.uleb128 0xc
 4129 0401 72010000 		.4byte	.LASF108
 4130 0405 F400     		.sleb128 116
 4131 0407 0C       		.uleb128 0xc
 4132 0408 3F040000 		.4byte	.LASF109
 4133 040c F48010   		.sleb128 262260
 4134 040f 0C       		.uleb128 0xc
 4135 0410 FE010000 		.4byte	.LASF110
 4136 0414 F48020   		.sleb128 524404
 4137 0417 0C       		.uleb128 0xc
 4138 0418 80040000 		.4byte	.LASF111
 4139 041c F48030   		.sleb128 786548
ARM GAS  C:\Users\fneves\AppData\Local\Temp\ccV5UskS.s 			page 112


 4140 041f 0C       		.uleb128 0xc
 4141 0420 F0030000 		.4byte	.LASF112
 4142 0424 F480C000 		.sleb128 1048692
 4143 0428 0C       		.uleb128 0xc
 4144 0429 FA0F0000 		.4byte	.LASF113
 4145 042d F480D000 		.sleb128 1310836
 4146 0431 00       		.byte	0
 4147 0432 08       		.uleb128 0x8
 4148 0433 38       		.byte	0x38
 4149 0434 04       		.byte	0x4
 4150 0435 5E       		.byte	0x5e
 4151 0436 EF040000 		.4byte	0x4ef
 4152 043a 09       		.uleb128 0x9
 4153 043b 0D100000 		.4byte	.LASF114
 4154 043f 04       		.byte	0x4
 4155 0440 60       		.byte	0x60
 4156 0441 83000000 		.4byte	0x83
 4157 0445 00       		.byte	0
 4158 0446 09       		.uleb128 0x9
 4159 0447 DD080000 		.4byte	.LASF115
 4160 044b 04       		.byte	0x4
 4161 044c 61       		.byte	0x61
 4162 044d 83000000 		.4byte	0x83
 4163 0451 04       		.byte	0x4
 4164 0452 09       		.uleb128 0x9
 4165 0453 270E0000 		.4byte	.LASF116
 4166 0457 04       		.byte	0x4
 4167 0458 62       		.byte	0x62
 4168 0459 83000000 		.4byte	0x83
 4169 045d 08       		.byte	0x8
 4170 045e 09       		.uleb128 0x9
 4171 045f E7060000 		.4byte	.LASF117
 4172 0463 04       		.byte	0x4
 4173 0464 65       		.byte	0x65
 4174 0465 83000000 		.4byte	0x83
 4175 0469 0C       		.byte	0xc
 4176 046a 09       		.uleb128 0x9
 4177 046b 49050000 		.4byte	.LASF118
 4178 046f 04       		.byte	0x4
 4179 0470 66       		.byte	0x66
 4180 0471 83000000 		.4byte	0x83
 4181 0475 10       		.byte	0x10
 4182 0476 09       		.uleb128 0x9
 4183 0477 C0090000 		.4byte	.LASF119
 4184 047b 04       		.byte	0x4
 4185 047c 67       		.byte	0x67
 4186 047d 83000000 		.4byte	0x83
 4187 0481 14       		.byte	0x14
 4188 0482 09       		.uleb128 0x9
 4189 0483 32080000 		.4byte	.LASF120
 4190 0487 04       		.byte	0x4
 4191 0488 68       		.byte	0x68
 4192 0489 83000000 		.4byte	0x83
 4193 048d 18       		.byte	0x18
 4194 048e 09       		.uleb128 0x9
 4195 048f AB0E0000 		.4byte	.LASF121
 4196 0493 04       		.byte	0x4
ARM GAS  C:\Users\fneves\AppData\Local\Temp\ccV5UskS.s 			page 113


 4197 0494 69       		.byte	0x69
 4198 0495 83000000 		.4byte	0x83
 4199 0499 1C       		.byte	0x1c
 4200 049a 09       		.uleb128 0x9
 4201 049b 620B0000 		.4byte	.LASF122
 4202 049f 04       		.byte	0x4
 4203 04a0 6A       		.byte	0x6a
 4204 04a1 83000000 		.4byte	0x83
 4205 04a5 20       		.byte	0x20
 4206 04a6 09       		.uleb128 0x9
 4207 04a7 B1060000 		.4byte	.LASF123
 4208 04ab 04       		.byte	0x4
 4209 04ac 6B       		.byte	0x6b
 4210 04ad 83000000 		.4byte	0x83
 4211 04b1 24       		.byte	0x24
 4212 04b2 09       		.uleb128 0x9
 4213 04b3 CD090000 		.4byte	.LASF124
 4214 04b7 04       		.byte	0x4
 4215 04b8 6C       		.byte	0x6c
 4216 04b9 83000000 		.4byte	0x83
 4217 04bd 28       		.byte	0x28
 4218 04be 09       		.uleb128 0x9
 4219 04bf 0A0D0000 		.4byte	.LASF125
 4220 04c3 04       		.byte	0x4
 4221 04c4 6D       		.byte	0x6d
 4222 04c5 9B000000 		.4byte	0x9b
 4223 04c9 2C       		.byte	0x2c
 4224 04ca 09       		.uleb128 0x9
 4225 04cb 3C0E0000 		.4byte	.LASF126
 4226 04cf 04       		.byte	0x4
 4227 04d0 6F       		.byte	0x6f
 4228 04d1 83000000 		.4byte	0x83
 4229 04d5 30       		.byte	0x30
 4230 04d6 09       		.uleb128 0x9
 4231 04d7 EF020000 		.4byte	.LASF127
 4232 04db 04       		.byte	0x4
 4233 04dc 76       		.byte	0x76
 4234 04dd 77000000 		.4byte	0x77
 4235 04e1 34       		.byte	0x34
 4236 04e2 09       		.uleb128 0x9
 4237 04e3 06030000 		.4byte	.LASF128
 4238 04e7 04       		.byte	0x4
 4239 04e8 7A       		.byte	0x7a
 4240 04e9 77000000 		.4byte	0x77
 4241 04ed 36       		.byte	0x36
 4242 04ee 00       		.byte	0
 4243 04ef 0A       		.uleb128 0xa
 4244 04f0 5D050000 		.4byte	.LASF129
 4245 04f4 04       		.byte	0x4
 4246 04f5 7C       		.byte	0x7c
 4247 04f6 32040000 		.4byte	0x432
 4248 04fa 0D       		.uleb128 0xd
 4249 04fb 41060000 		.4byte	.LASF130
 4250 04ff 01       		.byte	0x1
 4251 0500 3A02     		.2byte	0x23a
 4252 0502 00000000 		.4byte	.LFB1
 4253 0506 34000000 		.4byte	.LFE1-.LFB1
ARM GAS  C:\Users\fneves\AppData\Local\Temp\ccV5UskS.s 			page 114


 4254 050a 01       		.uleb128 0x1
 4255 050b 9C       		.byte	0x9c
 4256 050c 0E       		.uleb128 0xe
 4257 050d 31100000 		.4byte	.LASF132
 4258 0511 01       		.byte	0x1
 4259 0512 5A02     		.2byte	0x25a
 4260 0514 00000000 		.4byte	.LFB2
 4261 0518 1C000000 		.4byte	.LFE2-.LFB2
 4262 051c 01       		.uleb128 0x1
 4263 051d 9C       		.byte	0x9c
 4264 051e 32050000 		.4byte	0x532
 4265 0522 0F       		.uleb128 0xf
 4266 0523 A5090000 		.4byte	.LASF134
 4267 0527 01       		.byte	0x1
 4268 0528 5A02     		.2byte	0x25a
 4269 052a E5000000 		.4byte	0xe5
 4270 052e 02       		.uleb128 0x2
 4271 052f 91       		.byte	0x91
 4272 0530 74       		.sleb128 -12
 4273 0531 00       		.byte	0
 4274 0532 0D       		.uleb128 0xd
 4275 0533 920C0000 		.4byte	.LASF131
 4276 0537 01       		.byte	0x1
 4277 0538 7B02     		.2byte	0x27b
 4278 053a 00000000 		.4byte	.LFB3
 4279 053e 48000000 		.4byte	.LFE3-.LFB3
 4280 0542 01       		.uleb128 0x1
 4281 0543 9C       		.byte	0x9c
 4282 0544 0E       		.uleb128 0xe
 4283 0545 97040000 		.4byte	.LASF133
 4284 0549 01       		.byte	0x1
 4285 054a 9B02     		.2byte	0x29b
 4286 054c 00000000 		.4byte	.LFB4
 4287 0550 44010000 		.4byte	.LFE4-.LFB4
 4288 0554 01       		.uleb128 0x1
 4289 0555 9C       		.byte	0x9c
 4290 0556 88050000 		.4byte	0x588
 4291 055a 0F       		.uleb128 0xf
 4292 055b 740D0000 		.4byte	.LASF135
 4293 055f 01       		.byte	0x1
 4294 0560 9B02     		.2byte	0x29b
 4295 0562 88050000 		.4byte	0x588
 4296 0566 02       		.uleb128 0x2
 4297 0567 91       		.byte	0x91
 4298 0568 6C       		.sleb128 -20
 4299 0569 10       		.uleb128 0x10
 4300 056a C10C0000 		.4byte	.LASF136
 4301 056e 01       		.byte	0x1
 4302 056f 9D02     		.2byte	0x29d
 4303 0571 83000000 		.4byte	0x83
 4304 0575 02       		.uleb128 0x2
 4305 0576 91       		.byte	0x91
 4306 0577 74       		.sleb128 -12
 4307 0578 10       		.uleb128 0x10
 4308 0579 4A070000 		.4byte	.LASF137
 4309 057d 01       		.byte	0x1
 4310 057e 9E02     		.2byte	0x29e
ARM GAS  C:\Users\fneves\AppData\Local\Temp\ccV5UskS.s 			page 115


 4311 0580 83000000 		.4byte	0x83
 4312 0584 02       		.uleb128 0x2
 4313 0585 91       		.byte	0x91
 4314 0586 70       		.sleb128 -16
 4315 0587 00       		.byte	0
 4316 0588 06       		.uleb128 0x6
 4317 0589 04       		.byte	0x4
 4318 058a 8E050000 		.4byte	0x58e
 4319 058e 11       		.uleb128 0x11
 4320 058f EF040000 		.4byte	0x4ef
 4321 0593 0E       		.uleb128 0xe
 4322 0594 CB030000 		.4byte	.LASF138
 4323 0598 01       		.byte	0x1
 4324 0599 0103     		.2byte	0x301
 4325 059b 00000000 		.4byte	.LFB5
 4326 059f D4000000 		.4byte	.LFE5-.LFB5
 4327 05a3 01       		.uleb128 0x1
 4328 05a4 9C       		.byte	0x9c
 4329 05a5 C8050000 		.4byte	0x5c8
 4330 05a9 0F       		.uleb128 0xf
 4331 05aa 740D0000 		.4byte	.LASF135
 4332 05ae 01       		.byte	0x1
 4333 05af 0103     		.2byte	0x301
 4334 05b1 83000000 		.4byte	0x83
 4335 05b5 02       		.uleb128 0x2
 4336 05b6 91       		.byte	0x91
 4337 05b7 74       		.sleb128 -12
 4338 05b8 0F       		.uleb128 0xf
 4339 05b9 C60D0000 		.4byte	.LASF139
 4340 05bd 01       		.byte	0x1
 4341 05be 0103     		.2byte	0x301
 4342 05c0 83000000 		.4byte	0x83
 4343 05c4 02       		.uleb128 0x2
 4344 05c5 91       		.byte	0x91
 4345 05c6 70       		.sleb128 -16
 4346 05c7 00       		.byte	0
 4347 05c8 0D       		.uleb128 0xd
 4348 05c9 2A050000 		.4byte	.LASF140
 4349 05cd 01       		.byte	0x1
 4350 05ce 4103     		.2byte	0x341
 4351 05d0 00000000 		.4byte	.LFB6
 4352 05d4 3C000000 		.4byte	.LFE6-.LFB6
 4353 05d8 01       		.uleb128 0x1
 4354 05d9 9C       		.byte	0x9c
 4355 05da 0D       		.uleb128 0xd
 4356 05db 500C0000 		.4byte	.LASF141
 4357 05df 01       		.byte	0x1
 4358 05e0 6A03     		.2byte	0x36a
 4359 05e2 00000000 		.4byte	.LFB7
 4360 05e6 54000000 		.4byte	.LFE7-.LFB7
 4361 05ea 01       		.uleb128 0x1
 4362 05eb 9C       		.byte	0x9c
 4363 05ec 12       		.uleb128 0x12
 4364 05ed 09050000 		.4byte	.LASF142
 4365 05f1 01       		.byte	0x1
 4366 05f2 9403     		.2byte	0x394
 4367 05f4 00000000 		.4byte	.LFB8
ARM GAS  C:\Users\fneves\AppData\Local\Temp\ccV5UskS.s 			page 116


 4368 05f8 38000000 		.4byte	.LFE8-.LFB8
 4369 05fc 01       		.uleb128 0x1
 4370 05fd 9C       		.byte	0x9c
 4371 05fe 12060000 		.4byte	0x612
 4372 0602 0F       		.uleb128 0xf
 4373 0603 620D0000 		.4byte	.LASF143
 4374 0607 01       		.byte	0x1
 4375 0608 9403     		.2byte	0x394
 4376 060a 83000000 		.4byte	0x83
 4377 060e 02       		.uleb128 0x2
 4378 060f 91       		.byte	0x91
 4379 0610 74       		.sleb128 -12
 4380 0611 00       		.byte	0
 4381 0612 12       		.uleb128 0x12
 4382 0613 C70C0000 		.4byte	.LASF144
 4383 0617 01       		.byte	0x1
 4384 0618 D403     		.2byte	0x3d4
 4385 061a 00000000 		.4byte	.LFB9
 4386 061e 20000000 		.4byte	.LFE9-.LFB9
 4387 0622 01       		.uleb128 0x1
 4388 0623 9C       		.byte	0x9c
 4389 0624 38060000 		.4byte	0x638
 4390 0628 0F       		.uleb128 0xf
 4391 0629 A4050000 		.4byte	.LASF145
 4392 062d 01       		.byte	0x1
 4393 062e D403     		.2byte	0x3d4
 4394 0630 83000000 		.4byte	0x83
 4395 0634 02       		.uleb128 0x2
 4396 0635 91       		.byte	0x91
 4397 0636 74       		.sleb128 -12
 4398 0637 00       		.byte	0
 4399 0638 12       		.uleb128 0x12
 4400 0639 B50E0000 		.4byte	.LASF146
 4401 063d 01       		.byte	0x1
 4402 063e EC03     		.2byte	0x3ec
 4403 0640 00000000 		.4byte	.LFB10
 4404 0644 48000000 		.4byte	.LFE10-.LFB10
 4405 0648 01       		.uleb128 0x1
 4406 0649 9C       		.byte	0x9c
 4407 064a 6D060000 		.4byte	0x66d
 4408 064e 0F       		.uleb128 0xf
 4409 064f 54070000 		.4byte	.LASF147
 4410 0653 01       		.byte	0x1
 4411 0654 EC03     		.2byte	0x3ec
 4412 0656 83000000 		.4byte	0x83
 4413 065a 02       		.uleb128 0x2
 4414 065b 91       		.byte	0x91
 4415 065c 6C       		.sleb128 -20
 4416 065d 10       		.uleb128 0x10
 4417 065e 3B000000 		.4byte	.LASF148
 4418 0662 01       		.byte	0x1
 4419 0663 EE03     		.2byte	0x3ee
 4420 0665 83000000 		.4byte	0x83
 4421 0669 02       		.uleb128 0x2
 4422 066a 91       		.byte	0x91
 4423 066b 74       		.sleb128 -12
 4424 066c 00       		.byte	0
ARM GAS  C:\Users\fneves\AppData\Local\Temp\ccV5UskS.s 			page 117


 4425 066d 13       		.uleb128 0x13
 4426 066e 22010000 		.4byte	.LASF154
 4427 0672 01       		.byte	0x1
 4428 0673 0D04     		.2byte	0x40d
 4429 0675 83000000 		.4byte	0x83
 4430 0679 00000000 		.4byte	.LFB11
 4431 067d 60000000 		.4byte	.LFE11-.LFB11
 4432 0681 01       		.uleb128 0x1
 4433 0682 9C       		.byte	0x9c
 4434 0683 B5060000 		.4byte	0x6b5
 4435 0687 0F       		.uleb128 0xf
 4436 0688 39060000 		.4byte	.LASF149
 4437 068c 01       		.byte	0x1
 4438 068d 0D04     		.2byte	0x40d
 4439 068f 83000000 		.4byte	0x83
 4440 0693 02       		.uleb128 0x2
 4441 0694 91       		.byte	0x91
 4442 0695 6C       		.sleb128 -20
 4443 0696 10       		.uleb128 0x10
 4444 0697 F9040000 		.4byte	.LASF150
 4445 069b 01       		.byte	0x1
 4446 069c 0F04     		.2byte	0x40f
 4447 069e 83000000 		.4byte	0x83
 4448 06a2 02       		.uleb128 0x2
 4449 06a3 91       		.byte	0x91
 4450 06a4 74       		.sleb128 -12
 4451 06a5 14       		.uleb128 0x14
 4452 06a6 77647400 		.ascii	"wdt\000"
 4453 06aa 01       		.byte	0x1
 4454 06ab 1004     		.2byte	0x410
 4455 06ad 83000000 		.4byte	0x83
 4456 06b1 02       		.uleb128 0x2
 4457 06b2 91       		.byte	0x91
 4458 06b3 70       		.sleb128 -16
 4459 06b4 00       		.byte	0
 4460 06b5 15       		.uleb128 0x15
 4461 06b6 5E040000 		.4byte	.LASF189
 4462 06ba 01       		.byte	0x1
 4463 06bb 3304     		.2byte	0x433
 4464 06bd 9B000000 		.4byte	0x9b
 4465 06c1 00000000 		.4byte	.LFB12
 4466 06c5 7C000000 		.4byte	.LFE12-.LFB12
 4467 06c9 01       		.uleb128 0x1
 4468 06ca 9C       		.byte	0x9c
 4469 06cb FD060000 		.4byte	0x6fd
 4470 06cf 0F       		.uleb128 0xf
 4471 06d0 160D0000 		.4byte	.LASF151
 4472 06d4 01       		.byte	0x1
 4473 06d5 3304     		.2byte	0x433
 4474 06d7 83000000 		.4byte	0x83
 4475 06db 02       		.uleb128 0x2
 4476 06dc 91       		.byte	0x91
 4477 06dd 6C       		.sleb128 -20
 4478 06de 10       		.uleb128 0x10
 4479 06df 46090000 		.4byte	.LASF152
 4480 06e3 01       		.byte	0x1
 4481 06e4 3504     		.2byte	0x435
ARM GAS  C:\Users\fneves\AppData\Local\Temp\ccV5UskS.s 			page 118


 4482 06e6 9B000000 		.4byte	0x9b
 4483 06ea 02       		.uleb128 0x2
 4484 06eb 91       		.byte	0x91
 4485 06ec 74       		.sleb128 -12
 4486 06ed 10       		.uleb128 0x10
 4487 06ee F5080000 		.4byte	.LASF153
 4488 06f2 01       		.byte	0x1
 4489 06f3 3604     		.2byte	0x436
 4490 06f5 83000000 		.4byte	0x83
 4491 06f9 02       		.uleb128 0x2
 4492 06fa 91       		.byte	0x91
 4493 06fb 70       		.sleb128 -16
 4494 06fc 00       		.byte	0
 4495 06fd 16       		.uleb128 0x16
 4496 06fe 830A0000 		.4byte	.LASF155
 4497 0702 01       		.byte	0x1
 4498 0703 5F04     		.2byte	0x45f
 4499 0705 8F000000 		.4byte	0x8f
 4500 0709 00000000 		.4byte	.LFB13
 4501 070d 70000000 		.4byte	.LFE13-.LFB13
 4502 0711 01       		.uleb128 0x1
 4503 0712 9C       		.byte	0x9c
 4504 0713 36070000 		.4byte	0x736
 4505 0717 0F       		.uleb128 0xf
 4506 0718 160D0000 		.4byte	.LASF151
 4507 071c 01       		.byte	0x1
 4508 071d 5F04     		.2byte	0x45f
 4509 071f 83000000 		.4byte	0x83
 4510 0723 02       		.uleb128 0x2
 4511 0724 91       		.byte	0x91
 4512 0725 6C       		.sleb128 -20
 4513 0726 10       		.uleb128 0x10
 4514 0727 75090000 		.4byte	.LASF156
 4515 072b 01       		.byte	0x1
 4516 072c 6104     		.2byte	0x461
 4517 072e 83000000 		.4byte	0x83
 4518 0732 02       		.uleb128 0x2
 4519 0733 91       		.byte	0x91
 4520 0734 74       		.sleb128 -12
 4521 0735 00       		.byte	0
 4522 0736 16       		.uleb128 0x16
 4523 0737 510E0000 		.4byte	.LASF157
 4524 073b 01       		.byte	0x1
 4525 073c 8504     		.2byte	0x485
 4526 073e 9B000000 		.4byte	0x9b
 4527 0742 00000000 		.4byte	.LFB14
 4528 0746 94000000 		.4byte	.LFE14-.LFB14
 4529 074a 01       		.uleb128 0x1
 4530 074b 9C       		.byte	0x9c
 4531 074c 8D070000 		.4byte	0x78d
 4532 0750 0F       		.uleb128 0xf
 4533 0751 160D0000 		.4byte	.LASF151
 4534 0755 01       		.byte	0x1
 4535 0756 8504     		.2byte	0x485
 4536 0758 83000000 		.4byte	0x83
 4537 075c 02       		.uleb128 0x2
 4538 075d 91       		.byte	0x91
ARM GAS  C:\Users\fneves\AppData\Local\Temp\ccV5UskS.s 			page 119


 4539 075e 64       		.sleb128 -28
 4540 075f 10       		.uleb128 0x10
 4541 0760 75090000 		.4byte	.LASF156
 4542 0764 01       		.byte	0x1
 4543 0765 8704     		.2byte	0x487
 4544 0767 83000000 		.4byte	0x83
 4545 076b 02       		.uleb128 0x2
 4546 076c 91       		.byte	0x91
 4547 076d 74       		.sleb128 -12
 4548 076e 10       		.uleb128 0x10
 4549 076f 6E0C0000 		.4byte	.LASF158
 4550 0773 01       		.byte	0x1
 4551 0774 8804     		.2byte	0x488
 4552 0776 8F000000 		.4byte	0x8f
 4553 077a 02       		.uleb128 0x2
 4554 077b 91       		.byte	0x91
 4555 077c 6E       		.sleb128 -18
 4556 077d 10       		.uleb128 0x10
 4557 077e 3D080000 		.4byte	.LASF159
 4558 0782 01       		.byte	0x1
 4559 0783 8904     		.2byte	0x489
 4560 0785 9B000000 		.4byte	0x9b
 4561 0789 02       		.uleb128 0x2
 4562 078a 91       		.byte	0x91
 4563 078b 70       		.sleb128 -16
 4564 078c 00       		.byte	0
 4565 078d 12       		.uleb128 0x12
 4566 078e 2C070000 		.4byte	.LASF160
 4567 0792 01       		.byte	0x1
 4568 0793 B404     		.2byte	0x4b4
 4569 0795 00000000 		.4byte	.LFB15
 4570 0799 30000000 		.4byte	.LFE15-.LFB15
 4571 079d 01       		.uleb128 0x1
 4572 079e 9C       		.byte	0x9c
 4573 079f B3070000 		.4byte	0x7b3
 4574 07a3 0F       		.uleb128 0xf
 4575 07a4 90090000 		.4byte	.LASF161
 4576 07a8 01       		.byte	0x1
 4577 07a9 B404     		.2byte	0x4b4
 4578 07ab 83000000 		.4byte	0x83
 4579 07af 02       		.uleb128 0x2
 4580 07b0 91       		.byte	0x91
 4581 07b1 74       		.sleb128 -12
 4582 07b2 00       		.byte	0
 4583 07b3 12       		.uleb128 0x12
 4584 07b4 C8060000 		.4byte	.LASF162
 4585 07b8 01       		.byte	0x1
 4586 07b9 CB04     		.2byte	0x4cb
 4587 07bb 00000000 		.4byte	.LFB16
 4588 07bf 30000000 		.4byte	.LFE16-.LFB16
 4589 07c3 01       		.uleb128 0x1
 4590 07c4 9C       		.byte	0x9c
 4591 07c5 D9070000 		.4byte	0x7d9
 4592 07c9 0F       		.uleb128 0xf
 4593 07ca 1E0B0000 		.4byte	.LASF163
 4594 07ce 01       		.byte	0x1
 4595 07cf CB04     		.2byte	0x4cb
ARM GAS  C:\Users\fneves\AppData\Local\Temp\ccV5UskS.s 			page 120


 4596 07d1 83000000 		.4byte	0x83
 4597 07d5 02       		.uleb128 0x2
 4598 07d6 91       		.byte	0x91
 4599 07d7 74       		.sleb128 -12
 4600 07d8 00       		.byte	0
 4601 07d9 12       		.uleb128 0x12
 4602 07da 17030000 		.4byte	.LASF164
 4603 07de 01       		.byte	0x1
 4604 07df E604     		.2byte	0x4e6
 4605 07e1 00000000 		.4byte	.LFB17
 4606 07e5 48000000 		.4byte	.LFE17-.LFB17
 4607 07e9 01       		.uleb128 0x1
 4608 07ea 9C       		.byte	0x9c
 4609 07eb 0E080000 		.4byte	0x80e
 4610 07ef 0F       		.uleb128 0xf
 4611 07f0 B7080000 		.4byte	.LASF165
 4612 07f4 01       		.byte	0x1
 4613 07f5 E604     		.2byte	0x4e6
 4614 07f7 83000000 		.4byte	0x83
 4615 07fb 02       		.uleb128 0x2
 4616 07fc 91       		.byte	0x91
 4617 07fd 6C       		.sleb128 -20
 4618 07fe 10       		.uleb128 0x10
 4619 07ff 3B000000 		.4byte	.LASF148
 4620 0803 01       		.byte	0x1
 4621 0804 E804     		.2byte	0x4e8
 4622 0806 83000000 		.4byte	0x83
 4623 080a 02       		.uleb128 0x2
 4624 080b 91       		.byte	0x91
 4625 080c 74       		.sleb128 -12
 4626 080d 00       		.byte	0
 4627 080e 12       		.uleb128 0x12
 4628 080f 8E0E0000 		.4byte	.LASF166
 4629 0813 01       		.byte	0x1
 4630 0814 0105     		.2byte	0x501
 4631 0816 00000000 		.4byte	.LFB18
 4632 081a 48000000 		.4byte	.LFE18-.LFB18
 4633 081e 01       		.uleb128 0x1
 4634 081f 9C       		.byte	0x9c
 4635 0820 43080000 		.4byte	0x843
 4636 0824 0F       		.uleb128 0xf
 4637 0825 B30C0000 		.4byte	.LASF167
 4638 0829 01       		.byte	0x1
 4639 082a 0105     		.2byte	0x501
 4640 082c 83000000 		.4byte	0x83
 4641 0830 02       		.uleb128 0x2
 4642 0831 91       		.byte	0x91
 4643 0832 6C       		.sleb128 -20
 4644 0833 10       		.uleb128 0x10
 4645 0834 3B000000 		.4byte	.LASF148
 4646 0838 01       		.byte	0x1
 4647 0839 0305     		.2byte	0x503
 4648 083b 83000000 		.4byte	0x83
 4649 083f 02       		.uleb128 0x2
 4650 0840 91       		.byte	0x91
 4651 0841 74       		.sleb128 -12
 4652 0842 00       		.byte	0
ARM GAS  C:\Users\fneves\AppData\Local\Temp\ccV5UskS.s 			page 121


 4653 0843 0E       		.uleb128 0xe
 4654 0844 9C0D0000 		.4byte	.LASF168
 4655 0848 01       		.byte	0x1
 4656 0849 2505     		.2byte	0x525
 4657 084b 00000000 		.4byte	.LFB19
 4658 084f 60000000 		.4byte	.LFE19-.LFB19
 4659 0853 01       		.uleb128 0x1
 4660 0854 9C       		.byte	0x9c
 4661 0855 78080000 		.4byte	0x878
 4662 0859 0F       		.uleb128 0xf
 4663 085a 160D0000 		.4byte	.LASF151
 4664 085e 01       		.byte	0x1
 4665 085f 2505     		.2byte	0x525
 4666 0861 83000000 		.4byte	0x83
 4667 0865 02       		.uleb128 0x2
 4668 0866 91       		.byte	0x91
 4669 0867 74       		.sleb128 -12
 4670 0868 0F       		.uleb128 0xf
 4671 0869 FE0D0000 		.4byte	.LASF169
 4672 086d 01       		.byte	0x1
 4673 086e 2505     		.2byte	0x525
 4674 0870 8F000000 		.4byte	0x8f
 4675 0874 02       		.uleb128 0x2
 4676 0875 91       		.byte	0x91
 4677 0876 72       		.sleb128 -14
 4678 0877 00       		.byte	0
 4679 0878 0E       		.uleb128 0xe
 4680 0879 26090000 		.4byte	.LASF170
 4681 087d 01       		.byte	0x1
 4682 087e 4805     		.2byte	0x548
 4683 0880 00000000 		.4byte	.LFB20
 4684 0884 58000000 		.4byte	.LFE20-.LFB20
 4685 0888 01       		.uleb128 0x1
 4686 0889 9C       		.byte	0x9c
 4687 088a AD080000 		.4byte	0x8ad
 4688 088e 0F       		.uleb128 0xf
 4689 088f 160D0000 		.4byte	.LASF151
 4690 0893 01       		.byte	0x1
 4691 0894 4805     		.2byte	0x548
 4692 0896 83000000 		.4byte	0x83
 4693 089a 02       		.uleb128 0x2
 4694 089b 91       		.byte	0x91
 4695 089c 74       		.sleb128 -12
 4696 089d 0F       		.uleb128 0xf
 4697 089e 45000000 		.4byte	.LASF171
 4698 08a2 01       		.byte	0x1
 4699 08a3 4805     		.2byte	0x548
 4700 08a5 9B000000 		.4byte	0x9b
 4701 08a9 02       		.uleb128 0x2
 4702 08aa 91       		.byte	0x91
 4703 08ab 70       		.sleb128 -16
 4704 08ac 00       		.byte	0
 4705 08ad 16       		.uleb128 0x16
 4706 08ae 59060000 		.4byte	.LASF172
 4707 08b2 01       		.byte	0x1
 4708 08b3 6105     		.2byte	0x561
 4709 08b5 8F000000 		.4byte	0x8f
ARM GAS  C:\Users\fneves\AppData\Local\Temp\ccV5UskS.s 			page 122


 4710 08b9 00000000 		.4byte	.LFB21
 4711 08bd 28010000 		.4byte	.LFE21-.LFB21
 4712 08c1 01       		.uleb128 0x1
 4713 08c2 9C       		.byte	0x9c
 4714 08c3 13090000 		.4byte	0x913
 4715 08c7 0F       		.uleb128 0xf
 4716 08c8 160D0000 		.4byte	.LASF151
 4717 08cc 01       		.byte	0x1
 4718 08cd 6105     		.2byte	0x561
 4719 08cf 83000000 		.4byte	0x83
 4720 08d3 02       		.uleb128 0x2
 4721 08d4 91       		.byte	0x91
 4722 08d5 64       		.sleb128 -28
 4723 08d6 0F       		.uleb128 0xf
 4724 08d7 470E0000 		.4byte	.LASF173
 4725 08db 01       		.byte	0x1
 4726 08dc 6105     		.2byte	0x561
 4727 08de 8F000000 		.4byte	0x8f
 4728 08e2 02       		.uleb128 0x2
 4729 08e3 91       		.byte	0x91
 4730 08e4 62       		.sleb128 -30
 4731 08e5 10       		.uleb128 0x10
 4732 08e6 50040000 		.4byte	.LASF174
 4733 08ea 01       		.byte	0x1
 4734 08eb 6305     		.2byte	0x563
 4735 08ed 83000000 		.4byte	0x83
 4736 08f1 02       		.uleb128 0x2
 4737 08f2 91       		.byte	0x91
 4738 08f3 6C       		.sleb128 -20
 4739 08f4 10       		.uleb128 0x10
 4740 08f5 72070000 		.4byte	.LASF175
 4741 08f9 01       		.byte	0x1
 4742 08fa 6405     		.2byte	0x564
 4743 08fc 83000000 		.4byte	0x83
 4744 0900 02       		.uleb128 0x2
 4745 0901 91       		.byte	0x91
 4746 0902 74       		.sleb128 -12
 4747 0903 10       		.uleb128 0x10
 4748 0904 D2080000 		.4byte	.LASF176
 4749 0908 01       		.byte	0x1
 4750 0909 6505     		.2byte	0x565
 4751 090b 83000000 		.4byte	0x83
 4752 090f 02       		.uleb128 0x2
 4753 0910 91       		.byte	0x91
 4754 0911 70       		.sleb128 -16
 4755 0912 00       		.byte	0
 4756 0913 16       		.uleb128 0x16
 4757 0914 7B0D0000 		.4byte	.LASF177
 4758 0918 01       		.byte	0x1
 4759 0919 B905     		.2byte	0x5b9
 4760 091b A7000000 		.4byte	0xa7
 4761 091f 00000000 		.4byte	.LFB22
 4762 0923 A8000000 		.4byte	.LFE22-.LFB22
 4763 0927 01       		.uleb128 0x1
 4764 0928 9C       		.byte	0x9c
 4765 0929 6A090000 		.4byte	0x96a
 4766 092d 0F       		.uleb128 0xf
ARM GAS  C:\Users\fneves\AppData\Local\Temp\ccV5UskS.s 			page 123


 4767 092e 160D0000 		.4byte	.LASF151
 4768 0932 01       		.byte	0x1
 4769 0933 B905     		.2byte	0x5b9
 4770 0935 83000000 		.4byte	0x83
 4771 0939 02       		.uleb128 0x2
 4772 093a 91       		.byte	0x91
 4773 093b 64       		.sleb128 -28
 4774 093c 0F       		.uleb128 0xf
 4775 093d 470E0000 		.4byte	.LASF173
 4776 0941 01       		.byte	0x1
 4777 0942 B905     		.2byte	0x5b9
 4778 0944 8F000000 		.4byte	0x8f
 4779 0948 02       		.uleb128 0x2
 4780 0949 91       		.byte	0x91
 4781 094a 62       		.sleb128 -30
 4782 094b 10       		.uleb128 0x10
 4783 094c 260C0000 		.4byte	.LASF178
 4784 0950 01       		.byte	0x1
 4785 0951 BB05     		.2byte	0x5bb
 4786 0953 A7000000 		.4byte	0xa7
 4787 0957 02       		.uleb128 0x2
 4788 0958 91       		.byte	0x91
 4789 0959 6C       		.sleb128 -20
 4790 095a 10       		.uleb128 0x10
 4791 095b D2080000 		.4byte	.LASF176
 4792 095f 01       		.byte	0x1
 4793 0960 BC05     		.2byte	0x5bc
 4794 0962 83000000 		.4byte	0x83
 4795 0966 02       		.uleb128 0x2
 4796 0967 91       		.byte	0x91
 4797 0968 68       		.sleb128 -24
 4798 0969 00       		.byte	0
 4799 096a 16       		.uleb128 0x16
 4800 096b 050E0000 		.4byte	.LASF179
 4801 096f 01       		.byte	0x1
 4802 0970 EF05     		.2byte	0x5ef
 4803 0972 8F000000 		.4byte	0x8f
 4804 0976 00000000 		.4byte	.LFB23
 4805 097a D0000000 		.4byte	.LFE23-.LFB23
 4806 097e 01       		.uleb128 0x1
 4807 097f 9C       		.byte	0x9c
 4808 0980 C1090000 		.4byte	0x9c1
 4809 0984 0F       		.uleb128 0xf
 4810 0985 160D0000 		.4byte	.LASF151
 4811 0989 01       		.byte	0x1
 4812 098a EF05     		.2byte	0x5ef
 4813 098c 83000000 		.4byte	0x83
 4814 0990 02       		.uleb128 0x2
 4815 0991 91       		.byte	0x91
 4816 0992 64       		.sleb128 -28
 4817 0993 0F       		.uleb128 0xf
 4818 0994 470E0000 		.4byte	.LASF173
 4819 0998 01       		.byte	0x1
 4820 0999 EF05     		.2byte	0x5ef
 4821 099b 8F000000 		.4byte	0x8f
 4822 099f 02       		.uleb128 0x2
 4823 09a0 91       		.byte	0x91
ARM GAS  C:\Users\fneves\AppData\Local\Temp\ccV5UskS.s 			page 124


 4824 09a1 62       		.sleb128 -30
 4825 09a2 10       		.uleb128 0x10
 4826 09a3 5F0F0000 		.4byte	.LASF180
 4827 09a7 01       		.byte	0x1
 4828 09a8 F105     		.2byte	0x5f1
 4829 09aa 8F000000 		.4byte	0x8f
 4830 09ae 02       		.uleb128 0x2
 4831 09af 91       		.byte	0x91
 4832 09b0 6E       		.sleb128 -18
 4833 09b1 10       		.uleb128 0x10
 4834 09b2 D2080000 		.4byte	.LASF176
 4835 09b6 01       		.byte	0x1
 4836 09b7 F205     		.2byte	0x5f2
 4837 09b9 83000000 		.4byte	0x83
 4838 09bd 02       		.uleb128 0x2
 4839 09be 91       		.byte	0x91
 4840 09bf 68       		.sleb128 -24
 4841 09c0 00       		.byte	0
 4842 09c1 16       		.uleb128 0x16
 4843 09c2 04080000 		.4byte	.LASF181
 4844 09c6 01       		.byte	0x1
 4845 09c7 2806     		.2byte	0x628
 4846 09c9 9B000000 		.4byte	0x9b
 4847 09cd 00000000 		.4byte	.LFB24
 4848 09d1 BC000000 		.4byte	.LFE24-.LFB24
 4849 09d5 01       		.uleb128 0x1
 4850 09d6 9C       		.byte	0x9c
 4851 09d7 180A0000 		.4byte	0xa18
 4852 09db 0F       		.uleb128 0xf
 4853 09dc 160D0000 		.4byte	.LASF151
 4854 09e0 01       		.byte	0x1
 4855 09e1 2806     		.2byte	0x628
 4856 09e3 83000000 		.4byte	0x83
 4857 09e7 02       		.uleb128 0x2
 4858 09e8 91       		.byte	0x91
 4859 09e9 54       		.sleb128 -44
 4860 09ea 0F       		.uleb128 0xf
 4861 09eb 470E0000 		.4byte	.LASF173
 4862 09ef 01       		.byte	0x1
 4863 09f0 2806     		.2byte	0x628
 4864 09f2 8F000000 		.4byte	0x8f
 4865 09f6 02       		.uleb128 0x2
 4866 09f7 91       		.byte	0x91
 4867 09f8 52       		.sleb128 -46
 4868 09f9 10       		.uleb128 0x10
 4869 09fa B80D0000 		.4byte	.LASF182
 4870 09fe 01       		.byte	0x1
 4871 09ff 2A06     		.2byte	0x62a
 4872 0a01 C1000000 		.4byte	0xc1
 4873 0a05 02       		.uleb128 0x2
 4874 0a06 91       		.byte	0x91
 4875 0a07 60       		.sleb128 -32
 4876 0a08 10       		.uleb128 0x10
 4877 0a09 D2080000 		.4byte	.LASF176
 4878 0a0d 01       		.byte	0x1
 4879 0a0e 2B06     		.2byte	0x62b
 4880 0a10 83000000 		.4byte	0x83
ARM GAS  C:\Users\fneves\AppData\Local\Temp\ccV5UskS.s 			page 125


 4881 0a14 02       		.uleb128 0x2
 4882 0a15 91       		.byte	0x91
 4883 0a16 5C       		.sleb128 -36
 4884 0a17 00       		.byte	0
 4885 0a18 0E       		.uleb128 0xe
 4886 0a19 87070000 		.4byte	.LASF183
 4887 0a1d 01       		.byte	0x1
 4888 0a1e 4C06     		.2byte	0x64c
 4889 0a20 00000000 		.4byte	.LFB25
 4890 0a24 AC000000 		.4byte	.LFE25-.LFB25
 4891 0a28 01       		.uleb128 0x1
 4892 0a29 9C       		.byte	0x9c
 4893 0a2a 5C0A0000 		.4byte	0xa5c
 4894 0a2e 10       		.uleb128 0x10
 4895 0a2f 330C0000 		.4byte	.LASF184
 4896 0a33 01       		.byte	0x1
 4897 0a34 4E06     		.2byte	0x64e
 4898 0a36 83000000 		.4byte	0x83
 4899 0a3a 02       		.uleb128 0x2
 4900 0a3b 91       		.byte	0x91
 4901 0a3c 74       		.sleb128 -12
 4902 0a3d 10       		.uleb128 0x10
 4903 0a3e FF0E0000 		.4byte	.LASF185
 4904 0a42 01       		.byte	0x1
 4905 0a43 4F06     		.2byte	0x64f
 4906 0a45 83000000 		.4byte	0x83
 4907 0a49 02       		.uleb128 0x2
 4908 0a4a 91       		.byte	0x91
 4909 0a4b 70       		.sleb128 -16
 4910 0a4c 10       		.uleb128 0x10
 4911 0a4d D10A0000 		.4byte	.LASF186
 4912 0a51 01       		.byte	0x1
 4913 0a52 5006     		.2byte	0x650
 4914 0a54 83000000 		.4byte	0x83
 4915 0a58 02       		.uleb128 0x2
 4916 0a59 91       		.byte	0x91
 4917 0a5a 6C       		.sleb128 -20
 4918 0a5b 00       		.byte	0
 4919 0a5c 17       		.uleb128 0x17
 4920 0a5d 4F090000 		.4byte	.LASF187
 4921 0a61 01       		.byte	0x1
 4922 0a62 7306     		.2byte	0x673
 4923 0a64 00000000 		.4byte	.LFB26
 4924 0a68 90000000 		.4byte	.LFE26-.LFB26
 4925 0a6c 01       		.uleb128 0x1
 4926 0a6d 9C       		.byte	0x9c
 4927 0a6e 17       		.uleb128 0x17
 4928 0a6f A70A0000 		.4byte	.LASF188
 4929 0a73 01       		.byte	0x1
 4930 0a74 8B06     		.2byte	0x68b
 4931 0a76 00000000 		.4byte	.LFB27
 4932 0a7a A0000000 		.4byte	.LFE27-.LFB27
 4933 0a7e 01       		.uleb128 0x1
 4934 0a7f 9C       		.byte	0x9c
 4935 0a80 18       		.uleb128 0x18
 4936 0a81 080F0000 		.4byte	.LASF190
 4937 0a85 01       		.byte	0x1
ARM GAS  C:\Users\fneves\AppData\Local\Temp\ccV5UskS.s 			page 126


 4938 0a86 A406     		.2byte	0x6a4
 4939 0a88 83000000 		.4byte	0x83
 4940 0a8c 00000000 		.4byte	.LFB28
 4941 0a90 50000000 		.4byte	.LFE28-.LFB28
 4942 0a94 01       		.uleb128 0x1
 4943 0a95 9C       		.byte	0x9c
 4944 0a96 D70A0000 		.4byte	0xad7
 4945 0a9a 0F       		.uleb128 0xf
 4946 0a9b F40D0000 		.4byte	.LASF191
 4947 0a9f 01       		.byte	0x1
 4948 0aa0 A406     		.2byte	0x6a4
 4949 0aa2 83000000 		.4byte	0x83
 4950 0aa6 02       		.uleb128 0x2
 4951 0aa7 91       		.byte	0x91
 4952 0aa8 64       		.sleb128 -28
 4953 0aa9 10       		.uleb128 0x10
 4954 0aaa 330C0000 		.4byte	.LASF184
 4955 0aae 01       		.byte	0x1
 4956 0aaf A606     		.2byte	0x6a6
 4957 0ab1 83000000 		.4byte	0x83
 4958 0ab5 02       		.uleb128 0x2
 4959 0ab6 91       		.byte	0x91
 4960 0ab7 74       		.sleb128 -12
 4961 0ab8 10       		.uleb128 0x10
 4962 0ab9 F2060000 		.4byte	.LASF192
 4963 0abd 01       		.byte	0x1
 4964 0abe A706     		.2byte	0x6a7
 4965 0ac0 83000000 		.4byte	0x83
 4966 0ac4 02       		.uleb128 0x2
 4967 0ac5 91       		.byte	0x91
 4968 0ac6 70       		.sleb128 -16
 4969 0ac7 10       		.uleb128 0x10
 4970 0ac8 D10A0000 		.4byte	.LASF186
 4971 0acc 01       		.byte	0x1
 4972 0acd A806     		.2byte	0x6a8
 4973 0acf 83000000 		.4byte	0x83
 4974 0ad3 02       		.uleb128 0x2
 4975 0ad4 91       		.byte	0x91
 4976 0ad5 6C       		.sleb128 -20
 4977 0ad6 00       		.byte	0
 4978 0ad7 18       		.uleb128 0x18
 4979 0ad8 810F0000 		.4byte	.LASF193
 4980 0adc 01       		.byte	0x1
 4981 0add BC06     		.2byte	0x6bc
 4982 0adf 83000000 		.4byte	0x83
 4983 0ae3 00000000 		.4byte	.LFB29
 4984 0ae7 50000000 		.4byte	.LFE29-.LFB29
 4985 0aeb 01       		.uleb128 0x1
 4986 0aec 9C       		.byte	0x9c
 4987 0aed 2E0B0000 		.4byte	0xb2e
 4988 0af1 0F       		.uleb128 0xf
 4989 0af2 F40D0000 		.4byte	.LASF191
 4990 0af6 01       		.byte	0x1
 4991 0af7 BC06     		.2byte	0x6bc
 4992 0af9 83000000 		.4byte	0x83
 4993 0afd 02       		.uleb128 0x2
 4994 0afe 91       		.byte	0x91
ARM GAS  C:\Users\fneves\AppData\Local\Temp\ccV5UskS.s 			page 127


 4995 0aff 64       		.sleb128 -28
 4996 0b00 10       		.uleb128 0x10
 4997 0b01 330C0000 		.4byte	.LASF184
 4998 0b05 01       		.byte	0x1
 4999 0b06 BE06     		.2byte	0x6be
 5000 0b08 83000000 		.4byte	0x83
 5001 0b0c 02       		.uleb128 0x2
 5002 0b0d 91       		.byte	0x91
 5003 0b0e 74       		.sleb128 -12
 5004 0b0f 10       		.uleb128 0x10
 5005 0b10 F2060000 		.4byte	.LASF192
 5006 0b14 01       		.byte	0x1
 5007 0b15 BF06     		.2byte	0x6bf
 5008 0b17 83000000 		.4byte	0x83
 5009 0b1b 02       		.uleb128 0x2
 5010 0b1c 91       		.byte	0x91
 5011 0b1d 70       		.sleb128 -16
 5012 0b1e 10       		.uleb128 0x10
 5013 0b1f D10A0000 		.4byte	.LASF186
 5014 0b23 01       		.byte	0x1
 5015 0b24 C006     		.2byte	0x6c0
 5016 0b26 83000000 		.4byte	0x83
 5017 0b2a 02       		.uleb128 0x2
 5018 0b2b 91       		.byte	0x91
 5019 0b2c 6C       		.sleb128 -20
 5020 0b2d 00       		.byte	0
 5021 0b2e 18       		.uleb128 0x18
 5022 0b2f 74030000 		.4byte	.LASF194
 5023 0b33 01       		.byte	0x1
 5024 0b34 D406     		.2byte	0x6d4
 5025 0b36 83000000 		.4byte	0x83
 5026 0b3a 00000000 		.4byte	.LFB30
 5027 0b3e 4E000000 		.4byte	.LFE30-.LFB30
 5028 0b42 01       		.uleb128 0x1
 5029 0b43 9C       		.byte	0x9c
 5030 0b44 850B0000 		.4byte	0xb85
 5031 0b48 0F       		.uleb128 0xf
 5032 0b49 F40D0000 		.4byte	.LASF191
 5033 0b4d 01       		.byte	0x1
 5034 0b4e D406     		.2byte	0x6d4
 5035 0b50 83000000 		.4byte	0x83
 5036 0b54 02       		.uleb128 0x2
 5037 0b55 91       		.byte	0x91
 5038 0b56 64       		.sleb128 -28
 5039 0b57 10       		.uleb128 0x10
 5040 0b58 FF0E0000 		.4byte	.LASF185
 5041 0b5c 01       		.byte	0x1
 5042 0b5d D606     		.2byte	0x6d6
 5043 0b5f 83000000 		.4byte	0x83
 5044 0b63 02       		.uleb128 0x2
 5045 0b64 91       		.byte	0x91
 5046 0b65 74       		.sleb128 -12
 5047 0b66 10       		.uleb128 0x10
 5048 0b67 280B0000 		.4byte	.LASF195
 5049 0b6b 01       		.byte	0x1
 5050 0b6c D706     		.2byte	0x6d7
 5051 0b6e 83000000 		.4byte	0x83
ARM GAS  C:\Users\fneves\AppData\Local\Temp\ccV5UskS.s 			page 128


 5052 0b72 02       		.uleb128 0x2
 5053 0b73 91       		.byte	0x91
 5054 0b74 70       		.sleb128 -16
 5055 0b75 10       		.uleb128 0x10
 5056 0b76 D10A0000 		.4byte	.LASF186
 5057 0b7a 01       		.byte	0x1
 5058 0b7b D806     		.2byte	0x6d8
 5059 0b7d 83000000 		.4byte	0x83
 5060 0b81 02       		.uleb128 0x2
 5061 0b82 91       		.byte	0x91
 5062 0b83 6C       		.sleb128 -20
 5063 0b84 00       		.byte	0
 5064 0b85 18       		.uleb128 0x18
 5065 0b86 B5050000 		.4byte	.LASF196
 5066 0b8a 01       		.byte	0x1
 5067 0b8b EC06     		.2byte	0x6ec
 5068 0b8d 83000000 		.4byte	0x83
 5069 0b91 00000000 		.4byte	.LFB31
 5070 0b95 5A000000 		.4byte	.LFE31-.LFB31
 5071 0b99 01       		.uleb128 0x1
 5072 0b9a 9C       		.byte	0x9c
 5073 0b9b DC0B0000 		.4byte	0xbdc
 5074 0b9f 0F       		.uleb128 0xf
 5075 0ba0 F40D0000 		.4byte	.LASF191
 5076 0ba4 01       		.byte	0x1
 5077 0ba5 EC06     		.2byte	0x6ec
 5078 0ba7 83000000 		.4byte	0x83
 5079 0bab 02       		.uleb128 0x2
 5080 0bac 91       		.byte	0x91
 5081 0bad 64       		.sleb128 -28
 5082 0bae 10       		.uleb128 0x10
 5083 0baf FF0E0000 		.4byte	.LASF185
 5084 0bb3 01       		.byte	0x1
 5085 0bb4 EE06     		.2byte	0x6ee
 5086 0bb6 83000000 		.4byte	0x83
 5087 0bba 02       		.uleb128 0x2
 5088 0bbb 91       		.byte	0x91
 5089 0bbc 74       		.sleb128 -12
 5090 0bbd 10       		.uleb128 0x10
 5091 0bbe 280B0000 		.4byte	.LASF195
 5092 0bc2 01       		.byte	0x1
 5093 0bc3 EF06     		.2byte	0x6ef
 5094 0bc5 83000000 		.4byte	0x83
 5095 0bc9 02       		.uleb128 0x2
 5096 0bca 91       		.byte	0x91
 5097 0bcb 70       		.sleb128 -16
 5098 0bcc 10       		.uleb128 0x10
 5099 0bcd D10A0000 		.4byte	.LASF186
 5100 0bd1 01       		.byte	0x1
 5101 0bd2 F006     		.2byte	0x6f0
 5102 0bd4 83000000 		.4byte	0x83
 5103 0bd8 02       		.uleb128 0x2
 5104 0bd9 91       		.byte	0x91
 5105 0bda 6C       		.sleb128 -20
 5106 0bdb 00       		.byte	0
 5107 0bdc 18       		.uleb128 0x18
 5108 0bdd C00F0000 		.4byte	.LASF197
ARM GAS  C:\Users\fneves\AppData\Local\Temp\ccV5UskS.s 			page 129


 5109 0be1 01       		.byte	0x1
 5110 0be2 0407     		.2byte	0x704
 5111 0be4 83000000 		.4byte	0x83
 5112 0be8 00000000 		.4byte	.LFB32
 5113 0bec 64000000 		.4byte	.LFE32-.LFB32
 5114 0bf0 01       		.uleb128 0x1
 5115 0bf1 9C       		.byte	0x9c
 5116 0bf2 330C0000 		.4byte	0xc33
 5117 0bf6 0F       		.uleb128 0xf
 5118 0bf7 330C0000 		.4byte	.LASF184
 5119 0bfb 01       		.byte	0x1
 5120 0bfc 0407     		.2byte	0x704
 5121 0bfe 83000000 		.4byte	0x83
 5122 0c02 02       		.uleb128 0x2
 5123 0c03 91       		.byte	0x91
 5124 0c04 6C       		.sleb128 -20
 5125 0c05 0F       		.uleb128 0xf
 5126 0c06 FF0E0000 		.4byte	.LASF185
 5127 0c0a 01       		.byte	0x1
 5128 0c0b 0407     		.2byte	0x704
 5129 0c0d 83000000 		.4byte	0x83
 5130 0c11 02       		.uleb128 0x2
 5131 0c12 91       		.byte	0x91
 5132 0c13 68       		.sleb128 -24
 5133 0c14 10       		.uleb128 0x10
 5134 0c15 D10A0000 		.4byte	.LASF186
 5135 0c19 01       		.byte	0x1
 5136 0c1a 0607     		.2byte	0x706
 5137 0c1c 83000000 		.4byte	0x83
 5138 0c20 02       		.uleb128 0x2
 5139 0c21 91       		.byte	0x91
 5140 0c22 74       		.sleb128 -12
 5141 0c23 10       		.uleb128 0x10
 5142 0c24 00070000 		.4byte	.LASF198
 5143 0c28 01       		.byte	0x1
 5144 0c29 0807     		.2byte	0x708
 5145 0c2b 83000000 		.4byte	0x83
 5146 0c2f 02       		.uleb128 0x2
 5147 0c30 91       		.byte	0x91
 5148 0c31 70       		.sleb128 -16
 5149 0c32 00       		.byte	0
 5150 0c33 18       		.uleb128 0x18
 5151 0c34 98080000 		.4byte	.LASF199
 5152 0c38 01       		.byte	0x1
 5153 0c39 1707     		.2byte	0x717
 5154 0c3b 83000000 		.4byte	0x83
 5155 0c3f 00000000 		.4byte	.LFB33
 5156 0c43 4C000000 		.4byte	.LFE33-.LFB33
 5157 0c47 01       		.uleb128 0x1
 5158 0c48 9C       		.byte	0x9c
 5159 0c49 7B0C0000 		.4byte	0xc7b
 5160 0c4d 0F       		.uleb128 0xf
 5161 0c4e 330C0000 		.4byte	.LASF184
 5162 0c52 01       		.byte	0x1
 5163 0c53 1707     		.2byte	0x717
 5164 0c55 83000000 		.4byte	0x83
 5165 0c59 02       		.uleb128 0x2
ARM GAS  C:\Users\fneves\AppData\Local\Temp\ccV5UskS.s 			page 130


 5166 0c5a 91       		.byte	0x91
 5167 0c5b 6C       		.sleb128 -20
 5168 0c5c 10       		.uleb128 0x10
 5169 0c5d D10A0000 		.4byte	.LASF186
 5170 0c61 01       		.byte	0x1
 5171 0c62 1907     		.2byte	0x719
 5172 0c64 83000000 		.4byte	0x83
 5173 0c68 02       		.uleb128 0x2
 5174 0c69 91       		.byte	0x91
 5175 0c6a 74       		.sleb128 -12
 5176 0c6b 10       		.uleb128 0x10
 5177 0c6c 00070000 		.4byte	.LASF198
 5178 0c70 01       		.byte	0x1
 5179 0c71 1B07     		.2byte	0x71b
 5180 0c73 83000000 		.4byte	0x83
 5181 0c77 02       		.uleb128 0x2
 5182 0c78 91       		.byte	0x91
 5183 0c79 70       		.sleb128 -16
 5184 0c7a 00       		.byte	0
 5185 0c7b 18       		.uleb128 0x18
 5186 0c7c 1B060000 		.4byte	.LASF200
 5187 0c80 01       		.byte	0x1
 5188 0c81 2807     		.2byte	0x728
 5189 0c83 83000000 		.4byte	0x83
 5190 0c87 00000000 		.4byte	.LFB34
 5191 0c8b 50000000 		.4byte	.LFE34-.LFB34
 5192 0c8f 01       		.uleb128 0x1
 5193 0c90 9C       		.byte	0x9c
 5194 0c91 C30C0000 		.4byte	0xcc3
 5195 0c95 0F       		.uleb128 0xf
 5196 0c96 FF0E0000 		.4byte	.LASF185
 5197 0c9a 01       		.byte	0x1
 5198 0c9b 2807     		.2byte	0x728
 5199 0c9d 83000000 		.4byte	0x83
 5200 0ca1 02       		.uleb128 0x2
 5201 0ca2 91       		.byte	0x91
 5202 0ca3 6C       		.sleb128 -20
 5203 0ca4 10       		.uleb128 0x10
 5204 0ca5 D10A0000 		.4byte	.LASF186
 5205 0ca9 01       		.byte	0x1
 5206 0caa 2A07     		.2byte	0x72a
 5207 0cac 83000000 		.4byte	0x83
 5208 0cb0 02       		.uleb128 0x2
 5209 0cb1 91       		.byte	0x91
 5210 0cb2 74       		.sleb128 -12
 5211 0cb3 10       		.uleb128 0x10
 5212 0cb4 00070000 		.4byte	.LASF198
 5213 0cb8 01       		.byte	0x1
 5214 0cb9 2C07     		.2byte	0x72c
 5215 0cbb 83000000 		.4byte	0x83
 5216 0cbf 02       		.uleb128 0x2
 5217 0cc0 91       		.byte	0x91
 5218 0cc1 70       		.sleb128 -16
 5219 0cc2 00       		.byte	0
 5220 0cc3 15       		.uleb128 0x15
 5221 0cc4 6F0E0000 		.4byte	.LASF201
 5222 0cc8 01       		.byte	0x1
ARM GAS  C:\Users\fneves\AppData\Local\Temp\ccV5UskS.s 			page 131


 5223 0cc9 3907     		.2byte	0x739
 5224 0ccb 83000000 		.4byte	0x83
 5225 0ccf 00000000 		.4byte	.LFB35
 5226 0cd3 3E000000 		.4byte	.LFE35-.LFB35
 5227 0cd7 01       		.uleb128 0x1
 5228 0cd8 9C       		.byte	0x9c
 5229 0cd9 ED0C0000 		.4byte	0xced
 5230 0cdd 0F       		.uleb128 0xf
 5231 0cde CD080000 		.4byte	.LASF202
 5232 0ce2 01       		.byte	0x1
 5233 0ce3 3907     		.2byte	0x739
 5234 0ce5 83000000 		.4byte	0x83
 5235 0ce9 02       		.uleb128 0x2
 5236 0cea 91       		.byte	0x91
 5237 0ceb 74       		.sleb128 -12
 5238 0cec 00       		.byte	0
 5239 0ced 15       		.uleb128 0x15
 5240 0cee A7070000 		.4byte	.LASF203
 5241 0cf2 01       		.byte	0x1
 5242 0cf3 5207     		.2byte	0x752
 5243 0cf5 83000000 		.4byte	0x83
 5244 0cf9 00000000 		.4byte	.LFB36
 5245 0cfd 3E000000 		.4byte	.LFE36-.LFB36
 5246 0d01 01       		.uleb128 0x1
 5247 0d02 9C       		.byte	0x9c
 5248 0d03 170D0000 		.4byte	0xd17
 5249 0d07 0F       		.uleb128 0xf
 5250 0d08 CD080000 		.4byte	.LASF202
 5251 0d0c 01       		.byte	0x1
 5252 0d0d 5207     		.2byte	0x752
 5253 0d0f 83000000 		.4byte	0x83
 5254 0d13 02       		.uleb128 0x2
 5255 0d14 91       		.byte	0x91
 5256 0d15 74       		.sleb128 -12
 5257 0d16 00       		.byte	0
 5258 0d17 15       		.uleb128 0x15
 5259 0d18 D1020000 		.4byte	.LASF204
 5260 0d1c 01       		.byte	0x1
 5261 0d1d 6B07     		.2byte	0x76b
 5262 0d1f 83000000 		.4byte	0x83
 5263 0d23 00000000 		.4byte	.LFB37
 5264 0d27 3E000000 		.4byte	.LFE37-.LFB37
 5265 0d2b 01       		.uleb128 0x1
 5266 0d2c 9C       		.byte	0x9c
 5267 0d2d 410D0000 		.4byte	0xd41
 5268 0d31 0F       		.uleb128 0xf
 5269 0d32 CD080000 		.4byte	.LASF202
 5270 0d36 01       		.byte	0x1
 5271 0d37 6B07     		.2byte	0x76b
 5272 0d39 83000000 		.4byte	0x83
 5273 0d3d 02       		.uleb128 0x2
 5274 0d3e 91       		.byte	0x91
 5275 0d3f 74       		.sleb128 -12
 5276 0d40 00       		.byte	0
 5277 0d41 15       		.uleb128 0x15
 5278 0d42 E4090000 		.4byte	.LASF205
 5279 0d46 01       		.byte	0x1
ARM GAS  C:\Users\fneves\AppData\Local\Temp\ccV5UskS.s 			page 132


 5280 0d47 8407     		.2byte	0x784
 5281 0d49 83000000 		.4byte	0x83
 5282 0d4d 00000000 		.4byte	.LFB38
 5283 0d51 3E000000 		.4byte	.LFE38-.LFB38
 5284 0d55 01       		.uleb128 0x1
 5285 0d56 9C       		.byte	0x9c
 5286 0d57 6B0D0000 		.4byte	0xd6b
 5287 0d5b 0F       		.uleb128 0xf
 5288 0d5c CD080000 		.4byte	.LASF202
 5289 0d60 01       		.byte	0x1
 5290 0d61 8407     		.2byte	0x784
 5291 0d63 83000000 		.4byte	0x83
 5292 0d67 02       		.uleb128 0x2
 5293 0d68 91       		.byte	0x91
 5294 0d69 74       		.sleb128 -12
 5295 0d6a 00       		.byte	0
 5296 0d6b 0E       		.uleb128 0xe
 5297 0d6c 83010000 		.4byte	.LASF206
 5298 0d70 01       		.byte	0x1
 5299 0d71 9C07     		.2byte	0x79c
 5300 0d73 00000000 		.4byte	.LFB39
 5301 0d77 34000000 		.4byte	.LFE39-.LFB39
 5302 0d7b 01       		.uleb128 0x1
 5303 0d7c 9C       		.byte	0x9c
 5304 0d7d 910D0000 		.4byte	0xd91
 5305 0d81 0F       		.uleb128 0xf
 5306 0d82 BE060000 		.4byte	.LASF207
 5307 0d86 01       		.byte	0x1
 5308 0d87 9C07     		.2byte	0x79c
 5309 0d89 83000000 		.4byte	0x83
 5310 0d8d 02       		.uleb128 0x2
 5311 0d8e 91       		.byte	0x91
 5312 0d8f 74       		.sleb128 -12
 5313 0d90 00       		.byte	0
 5314 0d91 0E       		.uleb128 0xe
 5315 0d92 210A0000 		.4byte	.LASF208
 5316 0d96 01       		.byte	0x1
 5317 0d97 D607     		.2byte	0x7d6
 5318 0d99 00000000 		.4byte	.LFB40
 5319 0d9d D4010000 		.4byte	.LFE40-.LFB40
 5320 0da1 01       		.uleb128 0x1
 5321 0da2 9C       		.byte	0x9c
 5322 0da3 D50D0000 		.4byte	0xdd5
 5323 0da7 10       		.uleb128 0x10
 5324 0da8 C10C0000 		.4byte	.LASF136
 5325 0dac 01       		.byte	0x1
 5326 0dad D807     		.2byte	0x7d8
 5327 0daf 83000000 		.4byte	0x83
 5328 0db3 02       		.uleb128 0x2
 5329 0db4 91       		.byte	0x91
 5330 0db5 74       		.sleb128 -12
 5331 0db6 10       		.uleb128 0x10
 5332 0db7 BE060000 		.4byte	.LASF207
 5333 0dbb 01       		.byte	0x1
 5334 0dbc D907     		.2byte	0x7d9
 5335 0dbe 83000000 		.4byte	0x83
 5336 0dc2 02       		.uleb128 0x2
ARM GAS  C:\Users\fneves\AppData\Local\Temp\ccV5UskS.s 			page 133


 5337 0dc3 91       		.byte	0x91
 5338 0dc4 70       		.sleb128 -16
 5339 0dc5 10       		.uleb128 0x10
 5340 0dc6 75000000 		.4byte	.LASF209
 5341 0dca 01       		.byte	0x1
 5342 0dcb DA07     		.2byte	0x7da
 5343 0dcd 9B000000 		.4byte	0x9b
 5344 0dd1 02       		.uleb128 0x2
 5345 0dd2 91       		.byte	0x91
 5346 0dd3 6C       		.sleb128 -20
 5347 0dd4 00       		.byte	0
 5348 0dd5 0D       		.uleb128 0xd
 5349 0dd6 B8020000 		.4byte	.LASF210
 5350 0dda 01       		.byte	0x1
 5351 0ddb 4708     		.2byte	0x847
 5352 0ddd 00000000 		.4byte	.LFB41
 5353 0de1 74000000 		.4byte	.LFE41-.LFB41
 5354 0de5 01       		.uleb128 0x1
 5355 0de6 9C       		.byte	0x9c
 5356 0de7 19       		.uleb128 0x19
 5357 0de8 49080000 		.4byte	.LASF211
 5358 0dec 01       		.byte	0x1
 5359 0ded 43       		.byte	0x43
 5360 0dee 83000000 		.4byte	0x83
 5361 0df2 05       		.uleb128 0x5
 5362 0df3 03       		.byte	0x3
 5363 0df4 04000000 		.4byte	engine_sensor_adc_currentConfig
 5364 0df8 1A       		.uleb128 0x1a
 5365 0df9 83000000 		.4byte	0x83
 5366 0dfd 080E0000 		.4byte	0xe08
 5367 0e01 1B       		.uleb128 0x1b
 5368 0e02 F8000000 		.4byte	0xf8
 5369 0e06 00       		.byte	0
 5370 0e07 00       		.byte	0
 5371 0e08 19       		.uleb128 0x19
 5372 0e09 AA030000 		.4byte	.LASF212
 5373 0e0d 01       		.byte	0x1
 5374 0e0e 49       		.byte	0x49
 5375 0e0f 190E0000 		.4byte	0xe19
 5376 0e13 05       		.uleb128 0x5
 5377 0e14 03       		.byte	0x3
 5378 0e15 00000000 		.4byte	engine_sensor_adc_channelsConfig
 5379 0e19 11       		.uleb128 0x11
 5380 0e1a F80D0000 		.4byte	0xdf8
 5381 0e1e 1A       		.uleb128 0x1a
 5382 0e1f 26010000 		.4byte	0x126
 5383 0e23 2E0E0000 		.4byte	0xe2e
 5384 0e27 1B       		.uleb128 0x1b
 5385 0e28 F8000000 		.4byte	0xf8
 5386 0e2c 11       		.byte	0x11
 5387 0e2d 00       		.byte	0
 5388 0e2e 19       		.uleb128 0x19
 5389 0e2f DC0A0000 		.4byte	.LASF213
 5390 0e33 01       		.byte	0x1
 5391 0e34 51       		.byte	0x51
 5392 0e35 1E0E0000 		.4byte	0xe1e
 5393 0e39 05       		.uleb128 0x5
ARM GAS  C:\Users\fneves\AppData\Local\Temp\ccV5UskS.s 			page 134


 5394 0e3a 03       		.byte	0x3
 5395 0e3b 00000000 		.4byte	engine_sensor_adc_CFG0_UABH_A_FILTER_initPairs
 5396 0e3f 1A       		.uleb128 0x1a
 5397 0e40 26010000 		.4byte	0x126
 5398 0e44 4F0E0000 		.4byte	0xe4f
 5399 0e48 1B       		.uleb128 0x1b
 5400 0e49 F8000000 		.4byte	0xf8
 5401 0e4d 12       		.byte	0x12
 5402 0e4e 00       		.byte	0
 5403 0e4f 19       		.uleb128 0x19
 5404 0e50 1B0D0000 		.4byte	.LASF214
 5405 0e54 01       		.byte	0x1
 5406 0e55 81       		.byte	0x81
 5407 0e56 3F0E0000 		.4byte	0xe3f
 5408 0e5a 05       		.uleb128 0x5
 5409 0e5b 03       		.byte	0x3
 5410 0e5c 90000000 		.4byte	engine_sensor_adc_CFG0_UABH_B_FILTER_initPairs
 5411 0e60 19       		.uleb128 0x19
 5412 0e61 7C020000 		.4byte	.LASF215
 5413 0e65 01       		.byte	0x1
 5414 0e66 B0       		.byte	0xb0
 5415 0e67 82010000 		.4byte	0x182
 5416 0e6b 05       		.uleb128 0x5
 5417 0e6c 03       		.byte	0x3
 5418 0e6d 28010000 		.4byte	engine_sensor_adc_CFG0_UABH_A_FILTER_config
 5419 0e71 19       		.uleb128 0x19
 5420 0e72 330F0000 		.4byte	.LASF216
 5421 0e76 01       		.byte	0x1
 5422 0e77 B9       		.byte	0xb9
 5423 0e78 82010000 		.4byte	0x182
 5424 0e7c 05       		.uleb128 0x5
 5425 0e7d 03       		.byte	0x3
 5426 0e7e 34010000 		.4byte	engine_sensor_adc_CFG0_UABH_B_FILTER_config
 5427 0e82 1A       		.uleb128 0x1a
 5428 0e83 77000000 		.4byte	0x77
 5429 0e87 920E0000 		.4byte	0xe92
 5430 0e8b 1B       		.uleb128 0x1b
 5431 0e8c F8000000 		.4byte	0xf8
 5432 0e90 01       		.byte	0x1
 5433 0e91 00       		.byte	0
 5434 0e92 1C       		.uleb128 0x1c
 5435 0e93 C2040000 		.4byte	.LASF217
 5436 0e97 05       		.byte	0x5
 5437 0e98 D0       		.byte	0xd0
 5438 0e99 820E0000 		.4byte	0xe82
 5439 0e9d 1C       		.uleb128 0x1c
 5440 0e9e 1B040000 		.4byte	.LASF218
 5441 0ea2 06       		.byte	0x6
 5442 0ea3 D0       		.byte	0xd0
 5443 0ea4 820E0000 		.4byte	0xe82
 5444 0ea8 1D       		.uleb128 0x1d
 5445 0ea9 4E030000 		.4byte	.LASF219
 5446 0ead 01       		.byte	0x1
 5447 0eae 3D       		.byte	0x3d
 5448 0eaf 6B000000 		.4byte	0x6b
 5449 0eb3 05       		.uleb128 0x5
 5450 0eb4 03       		.byte	0x3
ARM GAS  C:\Users\fneves\AppData\Local\Temp\ccV5UskS.s 			page 135


 5451 0eb5 00000000 		.4byte	engine_sensor_adc_initVar
 5452 0eb9 1D       		.uleb128 0x1d
 5453 0eba 44010000 		.4byte	.LASF220
 5454 0ebe 01       		.byte	0x1
 5455 0ebf 3F       		.byte	0x3f
 5456 0ec0 6B000000 		.4byte	0x6b
 5457 0ec4 05       		.uleb128 0x5
 5458 0ec5 03       		.byte	0x3
 5459 0ec6 00000000 		.4byte	engine_sensor_adc_selected
 5460 0eca 1A       		.uleb128 0x1a
 5461 0ecb 8F000000 		.4byte	0x8f
 5462 0ecf DA0E0000 		.4byte	0xeda
 5463 0ed3 1B       		.uleb128 0x1b
 5464 0ed4 F8000000 		.4byte	0xf8
 5465 0ed8 00       		.byte	0
 5466 0ed9 00       		.byte	0
 5467 0eda 1D       		.uleb128 0x1d
 5468 0edb 350B0000 		.4byte	.LASF221
 5469 0edf 01       		.byte	0x1
 5470 0ee0 40       		.byte	0x40
 5471 0ee1 EB0E0000 		.4byte	0xeeb
 5472 0ee5 05       		.uleb128 0x5
 5473 0ee6 03       		.byte	0x3
 5474 0ee7 00000000 		.4byte	engine_sensor_adc_offset
 5475 0eeb 05       		.uleb128 0x5
 5476 0eec CA0E0000 		.4byte	0xeca
 5477 0ef0 1A       		.uleb128 0x1a
 5478 0ef1 9B000000 		.4byte	0x9b
 5479 0ef5 000F0000 		.4byte	0xf00
 5480 0ef9 1B       		.uleb128 0x1b
 5481 0efa F8000000 		.4byte	0xf8
 5482 0efe 00       		.byte	0
 5483 0eff 00       		.byte	0
 5484 0f00 1D       		.uleb128 0x1d
 5485 0f01 BE010000 		.4byte	.LASF222
 5486 0f05 01       		.byte	0x1
 5487 0f06 41       		.byte	0x41
 5488 0f07 110F0000 		.4byte	0xf11
 5489 0f0b 05       		.uleb128 0x5
 5490 0f0c 03       		.byte	0x3
 5491 0f0d 00000000 		.4byte	engine_sensor_adc_countsPer10Volt
 5492 0f11 05       		.uleb128 0x5
 5493 0f12 F00E0000 		.4byte	0xef0
 5494 0f16 1A       		.uleb128 0x1a
 5495 0f17 EF040000 		.4byte	0x4ef
 5496 0f1b 260F0000 		.4byte	0xf26
 5497 0f1f 1B       		.uleb128 0x1b
 5498 0f20 F8000000 		.4byte	0xf8
 5499 0f24 00       		.byte	0
 5500 0f25 00       		.byte	0
 5501 0f26 1E       		.uleb128 0x1e
 5502 0f27 6F080000 		.4byte	.LASF223
 5503 0f2b 04       		.byte	0x4
 5504 0f2c DF01     		.2byte	0x1df
 5505 0f2e 320F0000 		.4byte	0xf32
 5506 0f32 11       		.uleb128 0x11
 5507 0f33 160F0000 		.4byte	0xf16
ARM GAS  C:\Users\fneves\AppData\Local\Temp\ccV5UskS.s 			page 136


 5508 0f37 00       		.byte	0
 5509              		.section	.debug_abbrev,"",%progbits
 5510              	.Ldebug_abbrev0:
 5511 0000 01       		.uleb128 0x1
 5512 0001 11       		.uleb128 0x11
 5513 0002 01       		.byte	0x1
 5514 0003 25       		.uleb128 0x25
 5515 0004 0E       		.uleb128 0xe
 5516 0005 13       		.uleb128 0x13
 5517 0006 0B       		.uleb128 0xb
 5518 0007 03       		.uleb128 0x3
 5519 0008 0E       		.uleb128 0xe
 5520 0009 1B       		.uleb128 0x1b
 5521 000a 0E       		.uleb128 0xe
 5522 000b 55       		.uleb128 0x55
 5523 000c 17       		.uleb128 0x17
 5524 000d 11       		.uleb128 0x11
 5525 000e 01       		.uleb128 0x1
 5526 000f 10       		.uleb128 0x10
 5527 0010 17       		.uleb128 0x17
 5528 0011 00       		.byte	0
 5529 0012 00       		.byte	0
 5530 0013 02       		.uleb128 0x2
 5531 0014 24       		.uleb128 0x24
 5532 0015 00       		.byte	0
 5533 0016 0B       		.uleb128 0xb
 5534 0017 0B       		.uleb128 0xb
 5535 0018 3E       		.uleb128 0x3e
 5536 0019 0B       		.uleb128 0xb
 5537 001a 03       		.uleb128 0x3
 5538 001b 0E       		.uleb128 0xe
 5539 001c 00       		.byte	0
 5540 001d 00       		.byte	0
 5541 001e 03       		.uleb128 0x3
 5542 001f 24       		.uleb128 0x24
 5543 0020 00       		.byte	0
 5544 0021 0B       		.uleb128 0xb
 5545 0022 0B       		.uleb128 0xb
 5546 0023 3E       		.uleb128 0x3e
 5547 0024 0B       		.uleb128 0xb
 5548 0025 03       		.uleb128 0x3
 5549 0026 08       		.uleb128 0x8
 5550 0027 00       		.byte	0
 5551 0028 00       		.byte	0
 5552 0029 04       		.uleb128 0x4
 5553 002a 16       		.uleb128 0x16
 5554 002b 00       		.byte	0
 5555 002c 03       		.uleb128 0x3
 5556 002d 0E       		.uleb128 0xe
 5557 002e 3A       		.uleb128 0x3a
 5558 002f 0B       		.uleb128 0xb
 5559 0030 3B       		.uleb128 0x3b
 5560 0031 05       		.uleb128 0x5
 5561 0032 49       		.uleb128 0x49
 5562 0033 13       		.uleb128 0x13
 5563 0034 00       		.byte	0
 5564 0035 00       		.byte	0
ARM GAS  C:\Users\fneves\AppData\Local\Temp\ccV5UskS.s 			page 137


 5565 0036 05       		.uleb128 0x5
 5566 0037 35       		.uleb128 0x35
 5567 0038 00       		.byte	0
 5568 0039 49       		.uleb128 0x49
 5569 003a 13       		.uleb128 0x13
 5570 003b 00       		.byte	0
 5571 003c 00       		.byte	0
 5572 003d 06       		.uleb128 0x6
 5573 003e 0F       		.uleb128 0xf
 5574 003f 00       		.byte	0
 5575 0040 0B       		.uleb128 0xb
 5576 0041 0B       		.uleb128 0xb
 5577 0042 49       		.uleb128 0x49
 5578 0043 13       		.uleb128 0x13
 5579 0044 00       		.byte	0
 5580 0045 00       		.byte	0
 5581 0046 07       		.uleb128 0x7
 5582 0047 15       		.uleb128 0x15
 5583 0048 00       		.byte	0
 5584 0049 27       		.uleb128 0x27
 5585 004a 19       		.uleb128 0x19
 5586 004b 00       		.byte	0
 5587 004c 00       		.byte	0
 5588 004d 08       		.uleb128 0x8
 5589 004e 13       		.uleb128 0x13
 5590 004f 01       		.byte	0x1
 5591 0050 0B       		.uleb128 0xb
 5592 0051 0B       		.uleb128 0xb
 5593 0052 3A       		.uleb128 0x3a
 5594 0053 0B       		.uleb128 0xb
 5595 0054 3B       		.uleb128 0x3b
 5596 0055 0B       		.uleb128 0xb
 5597 0056 01       		.uleb128 0x1
 5598 0057 13       		.uleb128 0x13
 5599 0058 00       		.byte	0
 5600 0059 00       		.byte	0
 5601 005a 09       		.uleb128 0x9
 5602 005b 0D       		.uleb128 0xd
 5603 005c 00       		.byte	0
 5604 005d 03       		.uleb128 0x3
 5605 005e 0E       		.uleb128 0xe
 5606 005f 3A       		.uleb128 0x3a
 5607 0060 0B       		.uleb128 0xb
 5608 0061 3B       		.uleb128 0x3b
 5609 0062 0B       		.uleb128 0xb
 5610 0063 49       		.uleb128 0x49
 5611 0064 13       		.uleb128 0x13
 5612 0065 38       		.uleb128 0x38
 5613 0066 0B       		.uleb128 0xb
 5614 0067 00       		.byte	0
 5615 0068 00       		.byte	0
 5616 0069 0A       		.uleb128 0xa
 5617 006a 16       		.uleb128 0x16
 5618 006b 00       		.byte	0
 5619 006c 03       		.uleb128 0x3
 5620 006d 0E       		.uleb128 0xe
 5621 006e 3A       		.uleb128 0x3a
ARM GAS  C:\Users\fneves\AppData\Local\Temp\ccV5UskS.s 			page 138


 5622 006f 0B       		.uleb128 0xb
 5623 0070 3B       		.uleb128 0x3b
 5624 0071 0B       		.uleb128 0xb
 5625 0072 49       		.uleb128 0x49
 5626 0073 13       		.uleb128 0x13
 5627 0074 00       		.byte	0
 5628 0075 00       		.byte	0
 5629 0076 0B       		.uleb128 0xb
 5630 0077 04       		.uleb128 0x4
 5631 0078 01       		.byte	0x1
 5632 0079 0B       		.uleb128 0xb
 5633 007a 0B       		.uleb128 0xb
 5634 007b 3A       		.uleb128 0x3a
 5635 007c 0B       		.uleb128 0xb
 5636 007d 3B       		.uleb128 0x3b
 5637 007e 05       		.uleb128 0x5
 5638 007f 01       		.uleb128 0x1
 5639 0080 13       		.uleb128 0x13
 5640 0081 00       		.byte	0
 5641 0082 00       		.byte	0
 5642 0083 0C       		.uleb128 0xc
 5643 0084 28       		.uleb128 0x28
 5644 0085 00       		.byte	0
 5645 0086 03       		.uleb128 0x3
 5646 0087 0E       		.uleb128 0xe
 5647 0088 1C       		.uleb128 0x1c
 5648 0089 0D       		.uleb128 0xd
 5649 008a 00       		.byte	0
 5650 008b 00       		.byte	0
 5651 008c 0D       		.uleb128 0xd
 5652 008d 2E       		.uleb128 0x2e
 5653 008e 00       		.byte	0
 5654 008f 3F       		.uleb128 0x3f
 5655 0090 19       		.uleb128 0x19
 5656 0091 03       		.uleb128 0x3
 5657 0092 0E       		.uleb128 0xe
 5658 0093 3A       		.uleb128 0x3a
 5659 0094 0B       		.uleb128 0xb
 5660 0095 3B       		.uleb128 0x3b
 5661 0096 05       		.uleb128 0x5
 5662 0097 27       		.uleb128 0x27
 5663 0098 19       		.uleb128 0x19
 5664 0099 11       		.uleb128 0x11
 5665 009a 01       		.uleb128 0x1
 5666 009b 12       		.uleb128 0x12
 5667 009c 06       		.uleb128 0x6
 5668 009d 40       		.uleb128 0x40
 5669 009e 18       		.uleb128 0x18
 5670 009f 9642     		.uleb128 0x2116
 5671 00a1 19       		.uleb128 0x19
 5672 00a2 00       		.byte	0
 5673 00a3 00       		.byte	0
 5674 00a4 0E       		.uleb128 0xe
 5675 00a5 2E       		.uleb128 0x2e
 5676 00a6 01       		.byte	0x1
 5677 00a7 3F       		.uleb128 0x3f
 5678 00a8 19       		.uleb128 0x19
ARM GAS  C:\Users\fneves\AppData\Local\Temp\ccV5UskS.s 			page 139


 5679 00a9 03       		.uleb128 0x3
 5680 00aa 0E       		.uleb128 0xe
 5681 00ab 3A       		.uleb128 0x3a
 5682 00ac 0B       		.uleb128 0xb
 5683 00ad 3B       		.uleb128 0x3b
 5684 00ae 05       		.uleb128 0x5
 5685 00af 27       		.uleb128 0x27
 5686 00b0 19       		.uleb128 0x19
 5687 00b1 11       		.uleb128 0x11
 5688 00b2 01       		.uleb128 0x1
 5689 00b3 12       		.uleb128 0x12
 5690 00b4 06       		.uleb128 0x6
 5691 00b5 40       		.uleb128 0x40
 5692 00b6 18       		.uleb128 0x18
 5693 00b7 9642     		.uleb128 0x2116
 5694 00b9 19       		.uleb128 0x19
 5695 00ba 01       		.uleb128 0x1
 5696 00bb 13       		.uleb128 0x13
 5697 00bc 00       		.byte	0
 5698 00bd 00       		.byte	0
 5699 00be 0F       		.uleb128 0xf
 5700 00bf 05       		.uleb128 0x5
 5701 00c0 00       		.byte	0
 5702 00c1 03       		.uleb128 0x3
 5703 00c2 0E       		.uleb128 0xe
 5704 00c3 3A       		.uleb128 0x3a
 5705 00c4 0B       		.uleb128 0xb
 5706 00c5 3B       		.uleb128 0x3b
 5707 00c6 05       		.uleb128 0x5
 5708 00c7 49       		.uleb128 0x49
 5709 00c8 13       		.uleb128 0x13
 5710 00c9 02       		.uleb128 0x2
 5711 00ca 18       		.uleb128 0x18
 5712 00cb 00       		.byte	0
 5713 00cc 00       		.byte	0
 5714 00cd 10       		.uleb128 0x10
 5715 00ce 34       		.uleb128 0x34
 5716 00cf 00       		.byte	0
 5717 00d0 03       		.uleb128 0x3
 5718 00d1 0E       		.uleb128 0xe
 5719 00d2 3A       		.uleb128 0x3a
 5720 00d3 0B       		.uleb128 0xb
 5721 00d4 3B       		.uleb128 0x3b
 5722 00d5 05       		.uleb128 0x5
 5723 00d6 49       		.uleb128 0x49
 5724 00d7 13       		.uleb128 0x13
 5725 00d8 02       		.uleb128 0x2
 5726 00d9 18       		.uleb128 0x18
 5727 00da 00       		.byte	0
 5728 00db 00       		.byte	0
 5729 00dc 11       		.uleb128 0x11
 5730 00dd 26       		.uleb128 0x26
 5731 00de 00       		.byte	0
 5732 00df 49       		.uleb128 0x49
 5733 00e0 13       		.uleb128 0x13
 5734 00e1 00       		.byte	0
 5735 00e2 00       		.byte	0
ARM GAS  C:\Users\fneves\AppData\Local\Temp\ccV5UskS.s 			page 140


 5736 00e3 12       		.uleb128 0x12
 5737 00e4 2E       		.uleb128 0x2e
 5738 00e5 01       		.byte	0x1
 5739 00e6 3F       		.uleb128 0x3f
 5740 00e7 19       		.uleb128 0x19
 5741 00e8 03       		.uleb128 0x3
 5742 00e9 0E       		.uleb128 0xe
 5743 00ea 3A       		.uleb128 0x3a
 5744 00eb 0B       		.uleb128 0xb
 5745 00ec 3B       		.uleb128 0x3b
 5746 00ed 05       		.uleb128 0x5
 5747 00ee 27       		.uleb128 0x27
 5748 00ef 19       		.uleb128 0x19
 5749 00f0 11       		.uleb128 0x11
 5750 00f1 01       		.uleb128 0x1
 5751 00f2 12       		.uleb128 0x12
 5752 00f3 06       		.uleb128 0x6
 5753 00f4 40       		.uleb128 0x40
 5754 00f5 18       		.uleb128 0x18
 5755 00f6 9742     		.uleb128 0x2117
 5756 00f8 19       		.uleb128 0x19
 5757 00f9 01       		.uleb128 0x1
 5758 00fa 13       		.uleb128 0x13
 5759 00fb 00       		.byte	0
 5760 00fc 00       		.byte	0
 5761 00fd 13       		.uleb128 0x13
 5762 00fe 2E       		.uleb128 0x2e
 5763 00ff 01       		.byte	0x1
 5764 0100 3F       		.uleb128 0x3f
 5765 0101 19       		.uleb128 0x19
 5766 0102 03       		.uleb128 0x3
 5767 0103 0E       		.uleb128 0xe
 5768 0104 3A       		.uleb128 0x3a
 5769 0105 0B       		.uleb128 0xb
 5770 0106 3B       		.uleb128 0x3b
 5771 0107 05       		.uleb128 0x5
 5772 0108 27       		.uleb128 0x27
 5773 0109 19       		.uleb128 0x19
 5774 010a 49       		.uleb128 0x49
 5775 010b 13       		.uleb128 0x13
 5776 010c 11       		.uleb128 0x11
 5777 010d 01       		.uleb128 0x1
 5778 010e 12       		.uleb128 0x12
 5779 010f 06       		.uleb128 0x6
 5780 0110 40       		.uleb128 0x40
 5781 0111 18       		.uleb128 0x18
 5782 0112 9742     		.uleb128 0x2117
 5783 0114 19       		.uleb128 0x19
 5784 0115 01       		.uleb128 0x1
 5785 0116 13       		.uleb128 0x13
 5786 0117 00       		.byte	0
 5787 0118 00       		.byte	0
 5788 0119 14       		.uleb128 0x14
 5789 011a 34       		.uleb128 0x34
 5790 011b 00       		.byte	0
 5791 011c 03       		.uleb128 0x3
 5792 011d 08       		.uleb128 0x8
ARM GAS  C:\Users\fneves\AppData\Local\Temp\ccV5UskS.s 			page 141


 5793 011e 3A       		.uleb128 0x3a
 5794 011f 0B       		.uleb128 0xb
 5795 0120 3B       		.uleb128 0x3b
 5796 0121 05       		.uleb128 0x5
 5797 0122 49       		.uleb128 0x49
 5798 0123 13       		.uleb128 0x13
 5799 0124 02       		.uleb128 0x2
 5800 0125 18       		.uleb128 0x18
 5801 0126 00       		.byte	0
 5802 0127 00       		.byte	0
 5803 0128 15       		.uleb128 0x15
 5804 0129 2E       		.uleb128 0x2e
 5805 012a 01       		.byte	0x1
 5806 012b 03       		.uleb128 0x3
 5807 012c 0E       		.uleb128 0xe
 5808 012d 3A       		.uleb128 0x3a
 5809 012e 0B       		.uleb128 0xb
 5810 012f 3B       		.uleb128 0x3b
 5811 0130 05       		.uleb128 0x5
 5812 0131 27       		.uleb128 0x27
 5813 0132 19       		.uleb128 0x19
 5814 0133 49       		.uleb128 0x49
 5815 0134 13       		.uleb128 0x13
 5816 0135 11       		.uleb128 0x11
 5817 0136 01       		.uleb128 0x1
 5818 0137 12       		.uleb128 0x12
 5819 0138 06       		.uleb128 0x6
 5820 0139 40       		.uleb128 0x40
 5821 013a 18       		.uleb128 0x18
 5822 013b 9742     		.uleb128 0x2117
 5823 013d 19       		.uleb128 0x19
 5824 013e 01       		.uleb128 0x1
 5825 013f 13       		.uleb128 0x13
 5826 0140 00       		.byte	0
 5827 0141 00       		.byte	0
 5828 0142 16       		.uleb128 0x16
 5829 0143 2E       		.uleb128 0x2e
 5830 0144 01       		.byte	0x1
 5831 0145 3F       		.uleb128 0x3f
 5832 0146 19       		.uleb128 0x19
 5833 0147 03       		.uleb128 0x3
 5834 0148 0E       		.uleb128 0xe
 5835 0149 3A       		.uleb128 0x3a
 5836 014a 0B       		.uleb128 0xb
 5837 014b 3B       		.uleb128 0x3b
 5838 014c 05       		.uleb128 0x5
 5839 014d 27       		.uleb128 0x27
 5840 014e 19       		.uleb128 0x19
 5841 014f 49       		.uleb128 0x49
 5842 0150 13       		.uleb128 0x13
 5843 0151 11       		.uleb128 0x11
 5844 0152 01       		.uleb128 0x1
 5845 0153 12       		.uleb128 0x12
 5846 0154 06       		.uleb128 0x6
 5847 0155 40       		.uleb128 0x40
 5848 0156 18       		.uleb128 0x18
 5849 0157 9642     		.uleb128 0x2116
ARM GAS  C:\Users\fneves\AppData\Local\Temp\ccV5UskS.s 			page 142


 5850 0159 19       		.uleb128 0x19
 5851 015a 01       		.uleb128 0x1
 5852 015b 13       		.uleb128 0x13
 5853 015c 00       		.byte	0
 5854 015d 00       		.byte	0
 5855 015e 17       		.uleb128 0x17
 5856 015f 2E       		.uleb128 0x2e
 5857 0160 00       		.byte	0
 5858 0161 03       		.uleb128 0x3
 5859 0162 0E       		.uleb128 0xe
 5860 0163 3A       		.uleb128 0x3a
 5861 0164 0B       		.uleb128 0xb
 5862 0165 3B       		.uleb128 0x3b
 5863 0166 05       		.uleb128 0x5
 5864 0167 27       		.uleb128 0x27
 5865 0168 19       		.uleb128 0x19
 5866 0169 11       		.uleb128 0x11
 5867 016a 01       		.uleb128 0x1
 5868 016b 12       		.uleb128 0x12
 5869 016c 06       		.uleb128 0x6
 5870 016d 40       		.uleb128 0x40
 5871 016e 18       		.uleb128 0x18
 5872 016f 9742     		.uleb128 0x2117
 5873 0171 19       		.uleb128 0x19
 5874 0172 00       		.byte	0
 5875 0173 00       		.byte	0
 5876 0174 18       		.uleb128 0x18
 5877 0175 2E       		.uleb128 0x2e
 5878 0176 01       		.byte	0x1
 5879 0177 03       		.uleb128 0x3
 5880 0178 0E       		.uleb128 0xe
 5881 0179 3A       		.uleb128 0x3a
 5882 017a 0B       		.uleb128 0xb
 5883 017b 3B       		.uleb128 0x3b
 5884 017c 05       		.uleb128 0x5
 5885 017d 27       		.uleb128 0x27
 5886 017e 19       		.uleb128 0x19
 5887 017f 49       		.uleb128 0x49
 5888 0180 13       		.uleb128 0x13
 5889 0181 11       		.uleb128 0x11
 5890 0182 01       		.uleb128 0x1
 5891 0183 12       		.uleb128 0x12
 5892 0184 06       		.uleb128 0x6
 5893 0185 40       		.uleb128 0x40
 5894 0186 18       		.uleb128 0x18
 5895 0187 9642     		.uleb128 0x2116
 5896 0189 19       		.uleb128 0x19
 5897 018a 01       		.uleb128 0x1
 5898 018b 13       		.uleb128 0x13
 5899 018c 00       		.byte	0
 5900 018d 00       		.byte	0
 5901 018e 19       		.uleb128 0x19
 5902 018f 34       		.uleb128 0x34
 5903 0190 00       		.byte	0
 5904 0191 03       		.uleb128 0x3
 5905 0192 0E       		.uleb128 0xe
 5906 0193 3A       		.uleb128 0x3a
ARM GAS  C:\Users\fneves\AppData\Local\Temp\ccV5UskS.s 			page 143


 5907 0194 0B       		.uleb128 0xb
 5908 0195 3B       		.uleb128 0x3b
 5909 0196 0B       		.uleb128 0xb
 5910 0197 49       		.uleb128 0x49
 5911 0198 13       		.uleb128 0x13
 5912 0199 02       		.uleb128 0x2
 5913 019a 18       		.uleb128 0x18
 5914 019b 00       		.byte	0
 5915 019c 00       		.byte	0
 5916 019d 1A       		.uleb128 0x1a
 5917 019e 01       		.uleb128 0x1
 5918 019f 01       		.byte	0x1
 5919 01a0 49       		.uleb128 0x49
 5920 01a1 13       		.uleb128 0x13
 5921 01a2 01       		.uleb128 0x1
 5922 01a3 13       		.uleb128 0x13
 5923 01a4 00       		.byte	0
 5924 01a5 00       		.byte	0
 5925 01a6 1B       		.uleb128 0x1b
 5926 01a7 21       		.uleb128 0x21
 5927 01a8 00       		.byte	0
 5928 01a9 49       		.uleb128 0x49
 5929 01aa 13       		.uleb128 0x13
 5930 01ab 2F       		.uleb128 0x2f
 5931 01ac 0B       		.uleb128 0xb
 5932 01ad 00       		.byte	0
 5933 01ae 00       		.byte	0
 5934 01af 1C       		.uleb128 0x1c
 5935 01b0 34       		.uleb128 0x34
 5936 01b1 00       		.byte	0
 5937 01b2 03       		.uleb128 0x3
 5938 01b3 0E       		.uleb128 0xe
 5939 01b4 3A       		.uleb128 0x3a
 5940 01b5 0B       		.uleb128 0xb
 5941 01b6 3B       		.uleb128 0x3b
 5942 01b7 0B       		.uleb128 0xb
 5943 01b8 49       		.uleb128 0x49
 5944 01b9 13       		.uleb128 0x13
 5945 01ba 3F       		.uleb128 0x3f
 5946 01bb 19       		.uleb128 0x19
 5947 01bc 3C       		.uleb128 0x3c
 5948 01bd 19       		.uleb128 0x19
 5949 01be 00       		.byte	0
 5950 01bf 00       		.byte	0
 5951 01c0 1D       		.uleb128 0x1d
 5952 01c1 34       		.uleb128 0x34
 5953 01c2 00       		.byte	0
 5954 01c3 03       		.uleb128 0x3
 5955 01c4 0E       		.uleb128 0xe
 5956 01c5 3A       		.uleb128 0x3a
 5957 01c6 0B       		.uleb128 0xb
 5958 01c7 3B       		.uleb128 0x3b
 5959 01c8 0B       		.uleb128 0xb
 5960 01c9 49       		.uleb128 0x49
 5961 01ca 13       		.uleb128 0x13
 5962 01cb 3F       		.uleb128 0x3f
 5963 01cc 19       		.uleb128 0x19
ARM GAS  C:\Users\fneves\AppData\Local\Temp\ccV5UskS.s 			page 144


 5964 01cd 02       		.uleb128 0x2
 5965 01ce 18       		.uleb128 0x18
 5966 01cf 00       		.byte	0
 5967 01d0 00       		.byte	0
 5968 01d1 1E       		.uleb128 0x1e
 5969 01d2 34       		.uleb128 0x34
 5970 01d3 00       		.byte	0
 5971 01d4 03       		.uleb128 0x3
 5972 01d5 0E       		.uleb128 0xe
 5973 01d6 3A       		.uleb128 0x3a
 5974 01d7 0B       		.uleb128 0xb
 5975 01d8 3B       		.uleb128 0x3b
 5976 01d9 05       		.uleb128 0x5
 5977 01da 49       		.uleb128 0x49
 5978 01db 13       		.uleb128 0x13
 5979 01dc 3F       		.uleb128 0x3f
 5980 01dd 19       		.uleb128 0x19
 5981 01de 3C       		.uleb128 0x3c
 5982 01df 19       		.uleb128 0x19
 5983 01e0 00       		.byte	0
 5984 01e1 00       		.byte	0
 5985 01e2 00       		.byte	0
 5986              		.section	.debug_aranges,"",%progbits
 5987 0000 5C010000 		.4byte	0x15c
 5988 0004 0200     		.2byte	0x2
 5989 0006 00000000 		.4byte	.Ldebug_info0
 5990 000a 04       		.byte	0x4
 5991 000b 00       		.byte	0
 5992 000c 0000     		.2byte	0
 5993 000e 0000     		.2byte	0
 5994 0010 00000000 		.4byte	.LFB1
 5995 0014 34000000 		.4byte	.LFE1-.LFB1
 5996 0018 00000000 		.4byte	.LFB2
 5997 001c 1C000000 		.4byte	.LFE2-.LFB2
 5998 0020 00000000 		.4byte	.LFB3
 5999 0024 48000000 		.4byte	.LFE3-.LFB3
 6000 0028 00000000 		.4byte	.LFB4
 6001 002c 44010000 		.4byte	.LFE4-.LFB4
 6002 0030 00000000 		.4byte	.LFB5
 6003 0034 D4000000 		.4byte	.LFE5-.LFB5
 6004 0038 00000000 		.4byte	.LFB6
 6005 003c 3C000000 		.4byte	.LFE6-.LFB6
 6006 0040 00000000 		.4byte	.LFB7
 6007 0044 54000000 		.4byte	.LFE7-.LFB7
 6008 0048 00000000 		.4byte	.LFB8
 6009 004c 38000000 		.4byte	.LFE8-.LFB8
 6010 0050 00000000 		.4byte	.LFB9
 6011 0054 20000000 		.4byte	.LFE9-.LFB9
 6012 0058 00000000 		.4byte	.LFB10
 6013 005c 48000000 		.4byte	.LFE10-.LFB10
 6014 0060 00000000 		.4byte	.LFB11
 6015 0064 60000000 		.4byte	.LFE11-.LFB11
 6016 0068 00000000 		.4byte	.LFB12
 6017 006c 7C000000 		.4byte	.LFE12-.LFB12
 6018 0070 00000000 		.4byte	.LFB13
 6019 0074 70000000 		.4byte	.LFE13-.LFB13
 6020 0078 00000000 		.4byte	.LFB14
ARM GAS  C:\Users\fneves\AppData\Local\Temp\ccV5UskS.s 			page 145


 6021 007c 94000000 		.4byte	.LFE14-.LFB14
 6022 0080 00000000 		.4byte	.LFB15
 6023 0084 30000000 		.4byte	.LFE15-.LFB15
 6024 0088 00000000 		.4byte	.LFB16
 6025 008c 30000000 		.4byte	.LFE16-.LFB16
 6026 0090 00000000 		.4byte	.LFB17
 6027 0094 48000000 		.4byte	.LFE17-.LFB17
 6028 0098 00000000 		.4byte	.LFB18
 6029 009c 48000000 		.4byte	.LFE18-.LFB18
 6030 00a0 00000000 		.4byte	.LFB19
 6031 00a4 60000000 		.4byte	.LFE19-.LFB19
 6032 00a8 00000000 		.4byte	.LFB20
 6033 00ac 58000000 		.4byte	.LFE20-.LFB20
 6034 00b0 00000000 		.4byte	.LFB21
 6035 00b4 28010000 		.4byte	.LFE21-.LFB21
 6036 00b8 00000000 		.4byte	.LFB22
 6037 00bc A8000000 		.4byte	.LFE22-.LFB22
 6038 00c0 00000000 		.4byte	.LFB23
 6039 00c4 D0000000 		.4byte	.LFE23-.LFB23
 6040 00c8 00000000 		.4byte	.LFB24
 6041 00cc BC000000 		.4byte	.LFE24-.LFB24
 6042 00d0 00000000 		.4byte	.LFB25
 6043 00d4 AC000000 		.4byte	.LFE25-.LFB25
 6044 00d8 00000000 		.4byte	.LFB26
 6045 00dc 90000000 		.4byte	.LFE26-.LFB26
 6046 00e0 00000000 		.4byte	.LFB27
 6047 00e4 A0000000 		.4byte	.LFE27-.LFB27
 6048 00e8 00000000 		.4byte	.LFB28
 6049 00ec 50000000 		.4byte	.LFE28-.LFB28
 6050 00f0 00000000 		.4byte	.LFB29
 6051 00f4 50000000 		.4byte	.LFE29-.LFB29
 6052 00f8 00000000 		.4byte	.LFB30
 6053 00fc 4E000000 		.4byte	.LFE30-.LFB30
 6054 0100 00000000 		.4byte	.LFB31
 6055 0104 5A000000 		.4byte	.LFE31-.LFB31
 6056 0108 00000000 		.4byte	.LFB32
 6057 010c 64000000 		.4byte	.LFE32-.LFB32
 6058 0110 00000000 		.4byte	.LFB33
 6059 0114 4C000000 		.4byte	.LFE33-.LFB33
 6060 0118 00000000 		.4byte	.LFB34
 6061 011c 50000000 		.4byte	.LFE34-.LFB34
 6062 0120 00000000 		.4byte	.LFB35
 6063 0124 3E000000 		.4byte	.LFE35-.LFB35
 6064 0128 00000000 		.4byte	.LFB36
 6065 012c 3E000000 		.4byte	.LFE36-.LFB36
 6066 0130 00000000 		.4byte	.LFB37
 6067 0134 3E000000 		.4byte	.LFE37-.LFB37
 6068 0138 00000000 		.4byte	.LFB38
 6069 013c 3E000000 		.4byte	.LFE38-.LFB38
 6070 0140 00000000 		.4byte	.LFB39
 6071 0144 34000000 		.4byte	.LFE39-.LFB39
 6072 0148 00000000 		.4byte	.LFB40
 6073 014c D4010000 		.4byte	.LFE40-.LFB40
 6074 0150 00000000 		.4byte	.LFB41
 6075 0154 74000000 		.4byte	.LFE41-.LFB41
 6076 0158 00000000 		.4byte	0
 6077 015c 00000000 		.4byte	0
ARM GAS  C:\Users\fneves\AppData\Local\Temp\ccV5UskS.s 			page 146


 6078              		.section	.debug_ranges,"",%progbits
 6079              	.Ldebug_ranges0:
 6080 0000 00000000 		.4byte	.LFB1
 6081 0004 34000000 		.4byte	.LFE1
 6082 0008 00000000 		.4byte	.LFB2
 6083 000c 1C000000 		.4byte	.LFE2
 6084 0010 00000000 		.4byte	.LFB3
 6085 0014 48000000 		.4byte	.LFE3
 6086 0018 00000000 		.4byte	.LFB4
 6087 001c 44010000 		.4byte	.LFE4
 6088 0020 00000000 		.4byte	.LFB5
 6089 0024 D4000000 		.4byte	.LFE5
 6090 0028 00000000 		.4byte	.LFB6
 6091 002c 3C000000 		.4byte	.LFE6
 6092 0030 00000000 		.4byte	.LFB7
 6093 0034 54000000 		.4byte	.LFE7
 6094 0038 00000000 		.4byte	.LFB8
 6095 003c 38000000 		.4byte	.LFE8
 6096 0040 00000000 		.4byte	.LFB9
 6097 0044 20000000 		.4byte	.LFE9
 6098 0048 00000000 		.4byte	.LFB10
 6099 004c 48000000 		.4byte	.LFE10
 6100 0050 00000000 		.4byte	.LFB11
 6101 0054 60000000 		.4byte	.LFE11
 6102 0058 00000000 		.4byte	.LFB12
 6103 005c 7C000000 		.4byte	.LFE12
 6104 0060 00000000 		.4byte	.LFB13
 6105 0064 70000000 		.4byte	.LFE13
 6106 0068 00000000 		.4byte	.LFB14
 6107 006c 94000000 		.4byte	.LFE14
 6108 0070 00000000 		.4byte	.LFB15
 6109 0074 30000000 		.4byte	.LFE15
 6110 0078 00000000 		.4byte	.LFB16
 6111 007c 30000000 		.4byte	.LFE16
 6112 0080 00000000 		.4byte	.LFB17
 6113 0084 48000000 		.4byte	.LFE17
 6114 0088 00000000 		.4byte	.LFB18
 6115 008c 48000000 		.4byte	.LFE18
 6116 0090 00000000 		.4byte	.LFB19
 6117 0094 60000000 		.4byte	.LFE19
 6118 0098 00000000 		.4byte	.LFB20
 6119 009c 58000000 		.4byte	.LFE20
 6120 00a0 00000000 		.4byte	.LFB21
 6121 00a4 28010000 		.4byte	.LFE21
 6122 00a8 00000000 		.4byte	.LFB22
 6123 00ac A8000000 		.4byte	.LFE22
 6124 00b0 00000000 		.4byte	.LFB23
 6125 00b4 D0000000 		.4byte	.LFE23
 6126 00b8 00000000 		.4byte	.LFB24
 6127 00bc BC000000 		.4byte	.LFE24
 6128 00c0 00000000 		.4byte	.LFB25
 6129 00c4 AC000000 		.4byte	.LFE25
 6130 00c8 00000000 		.4byte	.LFB26
 6131 00cc 90000000 		.4byte	.LFE26
 6132 00d0 00000000 		.4byte	.LFB27
 6133 00d4 A0000000 		.4byte	.LFE27
 6134 00d8 00000000 		.4byte	.LFB28
ARM GAS  C:\Users\fneves\AppData\Local\Temp\ccV5UskS.s 			page 147


 6135 00dc 50000000 		.4byte	.LFE28
 6136 00e0 00000000 		.4byte	.LFB29
 6137 00e4 50000000 		.4byte	.LFE29
 6138 00e8 00000000 		.4byte	.LFB30
 6139 00ec 4E000000 		.4byte	.LFE30
 6140 00f0 00000000 		.4byte	.LFB31
 6141 00f4 5A000000 		.4byte	.LFE31
 6142 00f8 00000000 		.4byte	.LFB32
 6143 00fc 64000000 		.4byte	.LFE32
 6144 0100 00000000 		.4byte	.LFB33
 6145 0104 4C000000 		.4byte	.LFE33
 6146 0108 00000000 		.4byte	.LFB34
 6147 010c 50000000 		.4byte	.LFE34
 6148 0110 00000000 		.4byte	.LFB35
 6149 0114 3E000000 		.4byte	.LFE35
 6150 0118 00000000 		.4byte	.LFB36
 6151 011c 3E000000 		.4byte	.LFE36
 6152 0120 00000000 		.4byte	.LFB37
 6153 0124 3E000000 		.4byte	.LFE37
 6154 0128 00000000 		.4byte	.LFB38
 6155 012c 3E000000 		.4byte	.LFE38
 6156 0130 00000000 		.4byte	.LFB39
 6157 0134 34000000 		.4byte	.LFE39
 6158 0138 00000000 		.4byte	.LFB40
 6159 013c D4010000 		.4byte	.LFE40
 6160 0140 00000000 		.4byte	.LFB41
 6161 0144 74000000 		.4byte	.LFE41
 6162 0148 00000000 		.4byte	0
 6163 014c 00000000 		.4byte	0
 6164              		.section	.debug_line,"",%progbits
 6165              	.Ldebug_line0:
 6166 0000 F9050000 		.section	.debug_str,"MS",%progbits,1
 6166      0200CB00 
 6166      00000201 
 6166      FB0E0D00 
 6166      01010101 
 6167              	.LASF45:
 6168 0000 43795541 		.ascii	"CyUAB_SW_GX0\000"
 6168      425F5357 
 6168      5F475830 
 6168      00
 6169              	.LASF46:
 6170 000d 43795541 		.ascii	"CyUAB_SW_GX1\000"
 6170      425F5357 
 6170      5F475831 
 6170      00
 6171              	.LASF47:
 6172 001a 43795541 		.ascii	"CyUAB_SW_GX2\000"
 6172      425F5357 
 6172      5F475832 
 6172      00
 6173              	.LASF48:
 6174 0027 43795541 		.ascii	"CyUAB_SW_GX3\000"
 6174      425F5357 
 6174      5F475833 
 6174      00
 6175              	.LASF10:
ARM GAS  C:\Users\fneves\AppData\Local\Temp\ccV5UskS.s 			page 148


 6176 0034 75696E74 		.ascii	"uint16\000"
 6176      313600
 6177              	.LASF148:
 6178 003b 6368616E 		.ascii	"chanCount\000"
 6178      436F756E 
 6178      7400
 6179              	.LASF171:
 6180 0045 61646347 		.ascii	"adcGain\000"
 6180      61696E00 
 6181              	.LASF57:
 6182 004d 43795541 		.ascii	"CyUAB_SW_AX3_MODBIT\000"
 6182      425F5357 
 6182      5F415833 
 6182      5F4D4F44 
 6182      42495400 
 6183              	.LASF71:
 6184 0061 43795541 		.ascii	"CyUAB_SW_BX3_MODBIT\000"
 6184      425F5357 
 6184      5F425833 
 6184      5F4D4F44 
 6184      42495400 
 6185              	.LASF209:
 6186 0075 636F756E 		.ascii	"counts\000"
 6186      747300
 6187              	.LASF86:
 6188 007c 43795541 		.ascii	"CyUAB_SW_CX3_MODBIT\000"
 6188      425F5357 
 6188      5F435833 
 6188      5F4D4F44 
 6188      42495400 
 6189              	.LASF224:
 6190 0090 474E5520 		.ascii	"GNU C 4.9.3 20150303 (release) [ARM/embedded-4_9-br"
 6190      4320342E 
 6190      392E3320 
 6190      32303135 
 6190      30333033 
 6191 00c3 616E6368 		.ascii	"anch revision 221220] -mcpu=cortex-m0plus -mthumb -"
 6191      20726576 
 6191      6973696F 
 6191      6E203232 
 6191      31323230 
 6192 00f6 67202D4F 		.ascii	"g -O0 -ffunction-sections -ffat-lto-objects\000"
 6192      30202D66 
 6192      66756E63 
 6192      74696F6E 
 6192      2D736563 
 6193              	.LASF154:
 6194 0122 656E6769 		.ascii	"engine_sensor_adc_IsEndConversion\000"
 6194      6E655F73 
 6194      656E736F 
 6194      725F6164 
 6194      635F4973 
 6195              	.LASF220:
 6196 0144 656E6769 		.ascii	"engine_sensor_adc_selected\000"
 6196      6E655F73 
 6196      656E736F 
 6196      725F6164 
ARM GAS  C:\Users\fneves\AppData\Local\Temp\ccV5UskS.s 			page 149


 6196      635F7365 
 6197              	.LASF80:
 6198 015f 43795541 		.ascii	"CyUAB_SW_VB_MODBIT\000"
 6198      425F5357 
 6198      5F56425F 
 6198      4D4F4442 
 6198      495400
 6199              	.LASF108:
 6200 0172 43795541 		.ascii	"CyUAB_SW_A_BOOST\000"
 6200      425F5357 
 6200      5F415F42 
 6200      4F4F5354 
 6200      00
 6201              	.LASF206:
 6202 0183 656E6769 		.ascii	"engine_sensor_adc_filterInit\000"
 6202      6E655F73 
 6202      656E736F 
 6202      725F6164 
 6202      635F6669 
 6203              	.LASF32:
 6204 01a0 43795541 		.ascii	"CyUAB_CLK_PHI1\000"
 6204      425F434C 
 6204      4B5F5048 
 6204      493100
 6205              	.LASF33:
 6206 01af 43795541 		.ascii	"CyUAB_CLK_PHI2\000"
 6206      425F434C 
 6206      4B5F5048 
 6206      493200
 6207              	.LASF222:
 6208 01be 656E6769 		.ascii	"engine_sensor_adc_countsPer10Volt\000"
 6208      6E655F73 
 6208      656E736F 
 6208      725F6164 
 6208      635F636F 
 6209              	.LASF35:
 6210 01e0 43795541 		.ascii	"CyUAB_CLK_PHI4\000"
 6210      425F434C 
 6210      4B5F5048 
 6210      493400
 6211              	.LASF36:
 6212 01ef 43795541 		.ascii	"CyUAB_CLK_PHI5\000"
 6212      425F434C 
 6212      4B5F5048 
 6212      493500
 6213              	.LASF110:
 6214 01fe 43795541 		.ascii	"CyUAB_SW_C_BOOST\000"
 6214      425F5357 
 6214      5F435F42 
 6214      4F4F5354 
 6214      00
 6215              	.LASF38:
 6216 020f 43795541 		.ascii	"CyUAB_CLK_PHI7\000"
 6216      425F434C 
 6216      4B5F5048 
 6216      493700
 6217              	.LASF39:
ARM GAS  C:\Users\fneves\AppData\Local\Temp\ccV5UskS.s 			page 150


 6218 021e 43795541 		.ascii	"CyUAB_CLK_PHI8\000"
 6218      425F434C 
 6218      4B5F5048 
 6218      493800
 6219              	.LASF40:
 6220 022d 43795541 		.ascii	"CyUAB_CLK_PHI9\000"
 6220      425F434C 
 6220      4B5F5048 
 6220      493900
 6221              	.LASF7:
 6222 023c 6C6F6E67 		.ascii	"long long unsigned int\000"
 6222      206C6F6E 
 6222      6720756E 
 6222      7369676E 
 6222      65642069 
 6223              	.LASF22:
 6224 0253 61646472 		.ascii	"addr\000"
 6224      00
 6225              	.LASF107:
 6226 0258 43795541 		.ascii	"CyUAB_SW_STROBE_RST\000"
 6226      425F5357 
 6226      5F535452 
 6226      4F42455F 
 6226      52535400 
 6227              	.LASF41:
 6228 026c 43795541 		.ascii	"CyUAB_CLK_PHI10\000"
 6228      425F434C 
 6228      4B5F5048 
 6228      49313000 
 6229              	.LASF215:
 6230 027c 656E6769 		.ascii	"engine_sensor_adc_CFG0_UABH_A_FILTER_config\000"
 6230      6E655F73 
 6230      656E736F 
 6230      725F6164 
 6230      635F4346 
 6231              	.LASF43:
 6232 02a8 43795541 		.ascii	"CyUAB_CLK_PHI12\000"
 6232      425F434C 
 6232      4B5F5048 
 6232      49313200 
 6233              	.LASF210:
 6234 02b8 656E6769 		.ascii	"engine_sensor_adc_Enable\000"
 6234      6E655F73 
 6234      656E736F 
 6234      725F6164 
 6234      635F456E 
 6235              	.LASF204:
 6236 02d1 656E6769 		.ascii	"engine_sensor_adc_IncAgndTrim\000"
 6236      6E655F73 
 6236      656E736F 
 6236      725F6164 
 6236      635F496E 
 6237              	.LASF127:
 6238 02ef 636C6B44 		.ascii	"clkDivider\000"
 6238      69766964 
 6238      657200
 6239              	.LASF100:
ARM GAS  C:\Users\fneves\AppData\Local\Temp\ccV5UskS.s 			page 151


 6240 02fa 43795541 		.ascii	"CyUAB_SW_PF\000"
 6240      425F5357 
 6240      5F504600 
 6241              	.LASF128:
 6242 0306 66696C74 		.ascii	"filterClkDivider\000"
 6242      6572436C 
 6242      6B446976 
 6242      69646572 
 6242      00
 6243              	.LASF164:
 6244 0317 656E6769 		.ascii	"engine_sensor_adc_SetLimitMask\000"
 6244      6E655F73 
 6244      656E736F 
 6244      725F6164 
 6244      635F5365 
 6245              	.LASF0:
 6246 0336 7369676E 		.ascii	"signed char\000"
 6246      65642063 
 6246      68617200 
 6247              	.LASF60:
 6248 0342 43795541 		.ascii	"CyUAB_SW_AA\000"
 6248      425F5357 
 6248      5F414100 
 6249              	.LASF219:
 6250 034e 656E6769 		.ascii	"engine_sensor_adc_initVar\000"
 6250      6E655F73 
 6250      656E736F 
 6250      725F6164 
 6250      635F696E 
 6251              	.LASF74:
 6252 0368 43795541 		.ascii	"CyUAB_SW_BB\000"
 6252      425F5357 
 6252      5F424200 
 6253              	.LASF194:
 6254 0374 656E6769 		.ascii	"engine_sensor_adc_RaiseAgndTrimToCrossing\000"
 6254      6E655F73 
 6254      656E736F 
 6254      725F6164 
 6254      635F5261 
 6255              	.LASF101:
 6256 039e 43795541 		.ascii	"CyUAB_SW_PS\000"
 6256      425F5357 
 6256      5F505300 
 6257              	.LASF212:
 6258 03aa 656E6769 		.ascii	"engine_sensor_adc_channelsConfig\000"
 6258      6E655F73 
 6258      656E736F 
 6258      725F6164 
 6258      635F6368 
 6259              	.LASF138:
 6260 03cb 656E6769 		.ascii	"engine_sensor_adc_SelectConfig\000"
 6260      6E655F73 
 6260      656E736F 
 6260      725F6164 
 6260      635F5365 
 6261              	.LASF13:
 6262 03ea 696E7433 		.ascii	"int32\000"
ARM GAS  C:\Users\fneves\AppData\Local\Temp\ccV5UskS.s 			page 152


 6262      3200
 6263              	.LASF112:
 6264 03f0 43795541 		.ascii	"CyUAB_SW_SUM_BOOST\000"
 6264      425F5357 
 6264      5F53554D 
 6264      5F424F4F 
 6264      535400
 6265              	.LASF58:
 6266 0403 43795541 		.ascii	"CyUAB_SW_AP\000"
 6266      425F5357 
 6266      5F415000 
 6267              	.LASF59:
 6268 040f 43795541 		.ascii	"CyUAB_SW_AQ\000"
 6268      425F5357 
 6268      5F415100 
 6269              	.LASF218:
 6270 041b 656E6769 		.ascii	"engine_sensor_adc_UABH_B_waveConfig\000"
 6270      6E655F73 
 6270      656E736F 
 6270      725F6164 
 6270      635F5541 
 6271              	.LASF109:
 6272 043f 43795541 		.ascii	"CyUAB_SW_B_BOOST\000"
 6272      425F5357 
 6272      5F425F42 
 6272      4F4F5354 
 6272      00
 6273              	.LASF174:
 6274 0450 74656D70 		.ascii	"temp\000"
 6274      00
 6275              	.LASF4:
 6276 0455 6C6F6E67 		.ascii	"long int\000"
 6276      20696E74 
 6276      00
 6277              	.LASF189:
 6278 045e 656E6769 		.ascii	"engine_sensor_adc_IsChannelSigned\000"
 6278      6E655F73 
 6278      656E736F 
 6278      725F6164 
 6278      635F4973 
 6279              	.LASF111:
 6280 0480 43795541 		.ascii	"CyUAB_SW_F_BOOST\000"
 6280      425F5357 
 6280      5F465F42 
 6280      4F4F5354 
 6280      00
 6281              	.LASF9:
 6282 0491 75696E74 		.ascii	"uint8\000"
 6282      3800
 6283              	.LASF133:
 6284 0497 656E6769 		.ascii	"engine_sensor_adc_InitConfig\000"
 6284      6E655F73 
 6284      656E736F 
 6284      725F6164 
 6284      635F496E 
 6285              	.LASF6:
 6286 04b4 6C6F6E67 		.ascii	"long long int\000"
ARM GAS  C:\Users\fneves\AppData\Local\Temp\ccV5UskS.s 			page 153


 6286      206C6F6E 
 6286      6720696E 
 6286      7400
 6287              	.LASF217:
 6288 04c2 656E6769 		.ascii	"engine_sensor_adc_UABH_A_waveConfig\000"
 6288      6E655F73 
 6288      656E736F 
 6288      725F6164 
 6288      635F5541 
 6289              	.LASF94:
 6290 04e6 43795541 		.ascii	"CyUAB_SW_GC_MODBIT\000"
 6290      425F5357 
 6290      5F47435F 
 6290      4D4F4442 
 6290      495400
 6291              	.LASF150:
 6292 04f9 656E644F 		.ascii	"endOfConversion\000"
 6292      66436F6E 
 6292      76657273 
 6292      696F6E00 
 6293              	.LASF142:
 6294 0509 656E6769 		.ascii	"engine_sensor_adc_SetConvertMode\000"
 6294      6E655F73 
 6294      656E736F 
 6294      725F6164 
 6294      635F5365 
 6295              	.LASF140:
 6296 052a 656E6769 		.ascii	"engine_sensor_adc_StartConvert\000"
 6296      6E655F73 
 6296      656E736F 
 6296      725F6164 
 6296      635F5374 
 6297              	.LASF118:
 6298 0549 73616D70 		.ascii	"sampleTime01\000"
 6298      6C655469 
 6298      6D653031 
 6298      00
 6299              	.LASF11:
 6300 0556 75696E74 		.ascii	"uint32\000"
 6300      333200
 6301              	.LASF129:
 6302 055d 656E6769 		.ascii	"engine_sensor_adc_CONFIG_STRUCT\000"
 6302      6E655F73 
 6302      656E736F 
 6302      725F6164 
 6302      635F434F 
 6303              	.LASF24:
 6304 057d 43795541 		.ascii	"CyUAB_reg_pair\000"
 6304      425F7265 
 6304      675F7061 
 6304      697200
 6305              	.LASF72:
 6306 058c 43795541 		.ascii	"CyUAB_SW_BP\000"
 6306      425F5357 
 6306      5F425000 
 6307              	.LASF73:
 6308 0598 43795541 		.ascii	"CyUAB_SW_BQ\000"
ARM GAS  C:\Users\fneves\AppData\Local\Temp\ccV5UskS.s 			page 154


 6308      425F5357 
 6308      5F425100 
 6309              	.LASF145:
 6310 05a4 6D61736B 		.ascii	"mask\000"
 6310      00
 6311              	.LASF53:
 6312 05a9 43795541 		.ascii	"CyUAB_SW_QT\000"
 6312      425F5357 
 6312      5F515400 
 6313              	.LASF196:
 6314 05b5 656E6769 		.ascii	"engine_sensor_adc_LowerAgndTrimToCrossing\000"
 6314      6E655F73 
 6314      656E736F 
 6314      725F6164 
 6314      635F4C6F 
 6315              	.LASF105:
 6316 05df 43795541 		.ascii	"CyUAB_SW_TRIG_OUT\000"
 6316      425F5357 
 6316      5F545249 
 6316      475F4F55 
 6316      5400
 6317              	.LASF103:
 6318 05f1 43795541 		.ascii	"CyUAB_SW_CMP_FF\000"
 6318      425F5357 
 6318      5F434D50 
 6318      5F464600 
 6319              	.LASF70:
 6320 0601 43795541 		.ascii	"CyUAB_SW_BX2_MODBIT\000"
 6320      425F5357 
 6320      5F425832 
 6320      5F4D4F44 
 6320      42495400 
 6321              	.LASF23:
 6322 0615 76616C75 		.ascii	"value\000"
 6322      6500
 6323              	.LASF200:
 6324 061b 656E6769 		.ascii	"engine_sensor_adc_SetAgndTrim\000"
 6324      6E655F73 
 6324      656E736F 
 6324      725F6164 
 6324      635F5365 
 6325              	.LASF149:
 6326 0639 7265744D 		.ascii	"retMode\000"
 6326      6F646500 
 6327              	.LASF130:
 6328 0641 656E6769 		.ascii	"engine_sensor_adc_Start\000"
 6328      6E655F73 
 6328      656E736F 
 6328      725F6164 
 6328      635F5374 
 6329              	.LASF172:
 6330 0659 656E6769 		.ascii	"engine_sensor_adc_RawCounts2Counts\000"
 6330      6E655F73 
 6330      656E736F 
 6330      725F6164 
 6330      635F5261 
 6331              	.LASF56:
ARM GAS  C:\Users\fneves\AppData\Local\Temp\ccV5UskS.s 			page 155


 6332 067c 43795541 		.ascii	"CyUAB_SW_AX2_MODBIT\000"
 6332      425F5357 
 6332      5F415832 
 6332      5F4D4F44 
 6332      42495400 
 6333              	.LASF8:
 6334 0690 756E7369 		.ascii	"unsigned int\000"
 6334      676E6564 
 6334      20696E74 
 6334      00
 6335              	.LASF85:
 6336 069d 43795541 		.ascii	"CyUAB_SW_CX2_MODBIT\000"
 6336      425F5357 
 6336      5F435832 
 6336      5F4D4F44 
 6336      42495400 
 6337              	.LASF123:
 6338 06b1 72616E67 		.ascii	"rangeIntMask\000"
 6338      65496E74 
 6338      4D61736B 
 6338      00
 6339              	.LASF207:
 6340 06be 636F6E66 		.ascii	"configNum\000"
 6340      69674E75 
 6340      6D00
 6341              	.LASF162:
 6342 06c8 656E6769 		.ascii	"engine_sensor_adc_SetHighLimit\000"
 6342      6E655F73 
 6342      656E736F 
 6342      725F6164 
 6342      635F5365 
 6343              	.LASF117:
 6344 06e7 73616D70 		.ascii	"sampleCtrl\000"
 6344      6C654374 
 6344      726C00
 6345              	.LASF192:
 6346 06f2 6C617374 		.ascii	"lastOpampTrim\000"
 6346      4F70616D 
 6346      70547269 
 6346      6D00
 6347              	.LASF198:
 6348 0700 7472696D 		.ascii	"trimRegVal\000"
 6348      52656756 
 6348      616C00
 6349              	.LASF5:
 6350 070b 6C6F6E67 		.ascii	"long unsigned int\000"
 6350      20756E73 
 6350      69676E65 
 6350      6420696E 
 6350      7400
 6351              	.LASF104:
 6352 071d 43795541 		.ascii	"CyUAB_SW_VALID\000"
 6352      425F5357 
 6352      5F56414C 
 6352      494400
 6353              	.LASF160:
 6354 072c 656E6769 		.ascii	"engine_sensor_adc_SetLowLimit\000"
ARM GAS  C:\Users\fneves\AppData\Local\Temp\ccV5UskS.s 			page 156


 6354      6E655F73 
 6354      656E736F 
 6354      725F6164 
 6354      635F5365 
 6355              	.LASF137:
 6356 074a 746D7052 		.ascii	"tmpRegVal\000"
 6356      65675661 
 6356      6C00
 6357              	.LASF147:
 6358 0754 656E6162 		.ascii	"enableMask\000"
 6358      6C654D61 
 6358      736B00
 6359              	.LASF61:
 6360 075f 43795541 		.ascii	"CyUAB_SW_AR_MODBIT\000"
 6360      425F5357 
 6360      5F41525F 
 6360      4D4F4442 
 6360      495400
 6361              	.LASF175:
 6362 0772 61766572 		.ascii	"averageAdcSamplesDiv\000"
 6362      61676541 
 6362      64635361 
 6362      6D706C65 
 6362      73446976 
 6363              	.LASF183:
 6364 0787 656E6769 		.ascii	"engine_sensor_adc_TrimFilterVos\000"
 6364      6E655F73 
 6364      656E736F 
 6364      725F6164 
 6364      635F5472 
 6365              	.LASF203:
 6366 07a7 656E6769 		.ascii	"engine_sensor_adc_DecOpampTrim\000"
 6366      6E655F73 
 6366      656E736F 
 6366      725F6164 
 6366      635F4465 
 6367              	.LASF225:
 6368 07c6 47656E65 		.ascii	"Generated_Source\\PSoC4\\engine_sensor_adc.c\000"
 6368      72617465 
 6368      645F536F 
 6368      75726365 
 6368      5C50536F 
 6369              	.LASF3:
 6370 07f1 73686F72 		.ascii	"short unsigned int\000"
 6370      7420756E 
 6370      7369676E 
 6370      65642069 
 6370      6E7400
 6371              	.LASF181:
 6372 0804 656E6769 		.ascii	"engine_sensor_adc_CountsTo_uVolts\000"
 6372      6E655F73 
 6372      656E736F 
 6372      725F6164 
 6372      635F436F 
 6373              	.LASF49:
 6374 0826 43795541 		.ascii	"CyUAB_SW_RG\000"
 6374      425F5357 
ARM GAS  C:\Users\fneves\AppData\Local\Temp\ccV5UskS.s 			page 157


 6374      5F524700 
 6375              	.LASF120:
 6376 0832 72616E67 		.ascii	"rangeThres\000"
 6376      65546872 
 6376      657300
 6377              	.LASF159:
 6378 083d 66696E61 		.ascii	"finalResult\000"
 6378      6C526573 
 6378      756C7400 
 6379              	.LASF211:
 6380 0849 656E6769 		.ascii	"engine_sensor_adc_currentConfig\000"
 6380      6E655F73 
 6380      656E736F 
 6380      725F6164 
 6380      635F6375 
 6381              	.LASF26:
 6382 0869 70616972 		.ascii	"pairs\000"
 6382      7300
 6383              	.LASF223:
 6384 086f 656E6769 		.ascii	"engine_sensor_adc_allConfigs\000"
 6384      6E655F73 
 6384      656E736F 
 6384      725F6164 
 6384      635F616C 
 6385              	.LASF89:
 6386 088c 43795541 		.ascii	"CyUAB_SW_CC\000"
 6386      425F5357 
 6386      5F434300 
 6387              	.LASF199:
 6388 0898 656E6769 		.ascii	"engine_sensor_adc_SetOpampTrim\000"
 6388      6E655F73 
 6388      656E736F 
 6388      725F6164 
 6388      635F5365 
 6389              	.LASF165:
 6390 08b7 6C696D69 		.ascii	"limitMask\000"
 6390      744D6173 
 6390      6B00
 6391              	.LASF51:
 6392 08c1 43795541 		.ascii	"CyUAB_SW_RT\000"
 6392      425F5357 
 6392      5F525400 
 6393              	.LASF202:
 6394 08cd 7472696D 		.ascii	"trim\000"
 6394      00
 6395              	.LASF176:
 6396 08d2 72617743 		.ascii	"rawChannel\000"
 6396      68616E6E 
 6396      656C00
 6397              	.LASF115:
 6398 08dd 6E756D43 		.ascii	"numChannels\000"
 6398      68616E6E 
 6398      656C7300 
 6399              	.LASF87:
 6400 08e9 43795541 		.ascii	"CyUAB_SW_CP\000"
 6400      425F5357 
 6400      5F435000 
ARM GAS  C:\Users\fneves\AppData\Local\Temp\ccV5UskS.s 			page 158


 6401              	.LASF153:
 6402 08f5 6368616E 		.ascii	"chanConfig\000"
 6402      436F6E66 
 6402      696700
 6403              	.LASF78:
 6404 0900 43795541 		.ascii	"CyUAB_SW_RB_MODBIT\000"
 6404      425F5357 
 6404      5F52425F 
 6404      4D4F4442 
 6404      495400
 6405              	.LASF63:
 6406 0913 43795541 		.ascii	"CyUAB_SW_AV_MODBIT\000"
 6406      425F5357 
 6406      5F41565F 
 6406      4D4F4442 
 6406      495400
 6407              	.LASF170:
 6408 0926 656E6769 		.ascii	"engine_sensor_adc_SetGain\000"
 6408      6E655F73 
 6408      656E736F 
 6408      725F6164 
 6408      635F5365 
 6409              	.LASF19:
 6410 0940 72656733 		.ascii	"reg32\000"
 6410      3200
 6411              	.LASF152:
 6412 0946 69735369 		.ascii	"isSigned\000"
 6412      676E6564 
 6412      00
 6413              	.LASF187:
 6414 094f 656E6769 		.ascii	"engine_sensor_adc_SetupComparatorTrim\000"
 6414      6E655F73 
 6414      656E736F 
 6414      725F6164 
 6414      635F5365 
 6415              	.LASF156:
 6416 0975 61646352 		.ascii	"adcResult\000"
 6416      6573756C 
 6416      7400
 6417              	.LASF14:
 6418 097f 666C6F61 		.ascii	"float32\000"
 6418      74333200 
 6419              	.LASF21:
 6420 0987 73697A65 		.ascii	"sizetype\000"
 6420      74797065 
 6420      00
 6421              	.LASF161:
 6422 0990 6C6F774C 		.ascii	"lowLimit\000"
 6422      696D6974 
 6422      00
 6423              	.LASF67:
 6424 0999 43795541 		.ascii	"CyUAB_SW_SA\000"
 6424      425F5357 
 6424      5F534100 
 6425              	.LASF134:
 6426 09a5 61646472 		.ascii	"address\000"
 6426      65737300 
ARM GAS  C:\Users\fneves\AppData\Local\Temp\ccV5UskS.s 			page 159


 6427              	.LASF75:
 6428 09ad 43795541 		.ascii	"CyUAB_SW_BR_MODBIT\000"
 6428      425F5357 
 6428      5F42525F 
 6428      4D4F4442 
 6428      495400
 6429              	.LASF119:
 6430 09c0 73616D70 		.ascii	"sampleTime23\000"
 6430      6C655469 
 6430      6D653233 
 6430      00
 6431              	.LASF124:
 6432 09cd 73617449 		.ascii	"satIntMask\000"
 6432      6E744D61 
 6432      736B00
 6433              	.LASF88:
 6434 09d8 43795541 		.ascii	"CyUAB_SW_CQ\000"
 6434      425F5357 
 6434      5F435100 
 6435              	.LASF205:
 6436 09e4 656E6769 		.ascii	"engine_sensor_adc_DecAgndTrim\000"
 6436      6E655F73 
 6436      656E736F 
 6436      725F6164 
 6436      635F4465 
 6437              	.LASF76:
 6438 0a02 43795541 		.ascii	"CyUAB_SW_BG_MODBIT\000"
 6438      425F5357 
 6438      5F42475F 
 6438      4D4F4442 
 6438      495400
 6439              	.LASF98:
 6440 0a15 43795541 		.ascii	"CyUAB_SW_ZC\000"
 6440      425F5357 
 6440      5F5A4300 
 6441              	.LASF208:
 6442 0a21 656E6769 		.ascii	"engine_sensor_adc_Init\000"
 6442      6E655F73 
 6442      656E736F 
 6442      725F6164 
 6442      635F496E 
 6443              	.LASF64:
 6444 0a38 43795541 		.ascii	"CyUAB_SW_RA_MODBIT\000"
 6444      425F5357 
 6444      5F52415F 
 6444      4D4F4442 
 6444      495400
 6445              	.LASF31:
 6446 0a4b 43795541 		.ascii	"CyUAB_SW_OPEN\000"
 6446      425F5357 
 6446      5F4F5045 
 6446      4E00
 6447              	.LASF17:
 6448 0a59 696E7436 		.ascii	"int64\000"
 6448      3400
 6449              	.LASF42:
 6450 0a5f 43795541 		.ascii	"CyUAB_CLK_PHI11\000"
ARM GAS  C:\Users\fneves\AppData\Local\Temp\ccV5UskS.s 			page 160


 6450      425F434C 
 6450      4B5F5048 
 6450      49313100 
 6451              	.LASF69:
 6452 0a6f 43795541 		.ascii	"CyUAB_SW_BX1_MODBIT\000"
 6452      425F5357 
 6452      5F425831 
 6452      5F4D4F44 
 6452      42495400 
 6453              	.LASF155:
 6454 0a83 656E6769 		.ascii	"engine_sensor_adc_GetResult16\000"
 6454      6E655F73 
 6454      656E736F 
 6454      725F6164 
 6454      635F4765 
 6455              	.LASF15:
 6456 0aa1 666C6F61 		.ascii	"float\000"
 6456      7400
 6457              	.LASF188:
 6458 0aa7 656E6769 		.ascii	"engine_sensor_adc_UndoComparatorTrimSetup\000"
 6458      6E655F73 
 6458      656E736F 
 6458      725F6164 
 6458      635F556E 
 6459              	.LASF186:
 6460 0ad1 636F6D70 		.ascii	"compStatus\000"
 6460      53746174 
 6460      757300
 6461              	.LASF213:
 6462 0adc 656E6769 		.ascii	"engine_sensor_adc_CFG0_UABH_A_FILTER_initPairs\000"
 6462      6E655F73 
 6462      656E736F 
 6462      725F6164 
 6462      635F4346 
 6463              	.LASF77:
 6464 0b0b 43795541 		.ascii	"CyUAB_SW_BV_MODBIT\000"
 6464      425F5357 
 6464      5F42565F 
 6464      4D4F4442 
 6464      495400
 6465              	.LASF163:
 6466 0b1e 68696768 		.ascii	"highLimit\000"
 6466      4C696D69 
 6466      7400
 6467              	.LASF195:
 6468 0b28 6C617374 		.ascii	"lastAgndTrim\000"
 6468      41676E64 
 6468      5472696D 
 6468      00
 6469              	.LASF221:
 6470 0b35 656E6769 		.ascii	"engine_sensor_adc_offset\000"
 6470      6E655F73 
 6470      656E736F 
 6470      725F6164 
 6470      635F6F66 
 6471              	.LASF55:
 6472 0b4e 43795541 		.ascii	"CyUAB_SW_AX1_MODBIT\000"
ARM GAS  C:\Users\fneves\AppData\Local\Temp\ccV5UskS.s 			page 161


 6472      425F5357 
 6472      5F415831 
 6472      5F4D4F44 
 6472      42495400 
 6473              	.LASF122:
 6474 0b62 6368616E 		.ascii	"chanEn\000"
 6474      456E00
 6475              	.LASF84:
 6476 0b69 43795541 		.ascii	"CyUAB_SW_CX1_MODBIT\000"
 6476      425F5357 
 6476      5F435831 
 6476      5F4D4F44 
 6476      42495400 
 6477              	.LASF62:
 6478 0b7d 43795541 		.ascii	"CyUAB_SW_AG_MODBIT\000"
 6478      425F5357 
 6478      5F41475F 
 6478      4D4F4442 
 6478      495400
 6479              	.LASF30:
 6480 0b90 43795541 		.ascii	"CyUAB_config\000"
 6480      425F636F 
 6480      6E666967 
 6480      00
 6481              	.LASF1:
 6482 0b9d 756E7369 		.ascii	"unsigned char\000"
 6482      676E6564 
 6482      20636861 
 6482      7200
 6483              	.LASF81:
 6484 0bab 43795541 		.ascii	"CyUAB_SW_TB\000"
 6484      425F5357 
 6484      5F544200 
 6485              	.LASF96:
 6486 0bb7 43795541 		.ascii	"CyUAB_SW_TC\000"
 6486      425F5357 
 6486      5F544300 
 6487              	.LASF2:
 6488 0bc3 73686F72 		.ascii	"short int\000"
 6488      7420696E 
 6488      7400
 6489              	.LASF90:
 6490 0bcd 43795541 		.ascii	"CyUAB_SW_CR_MODBIT\000"
 6490      425F5357 
 6490      5F43525F 
 6490      4D4F4442 
 6490      495400
 6491              	.LASF226:
 6492 0be0 433A5C55 		.ascii	"C:\\Users\\fneves\\Documents\\PSoC Creator\\wp_1\\e"
 6492      73657273 
 6492      5C666E65 
 6492      7665735C 
 6492      446F6375 
 6493 0c0d 6E67696E 		.ascii	"ngine_speed_sensor.cydsn\000"
 6493      655F7370 
 6493      6565645F 
 6493      73656E73 
ARM GAS  C:\Users\fneves\AppData\Local\Temp\ccV5UskS.s 			page 162


 6493      6F722E63 
 6494              	.LASF178:
 6495 0c26 72657375 		.ascii	"result_Volts\000"
 6495      6C745F56 
 6495      6F6C7473 
 6495      00
 6496              	.LASF184:
 6497 0c33 6F70616D 		.ascii	"opampTrim\000"
 6497      70547269 
 6497      6D00
 6498              	.LASF91:
 6499 0c3d 43795541 		.ascii	"CyUAB_SW_CG_MODBIT\000"
 6499      425F5357 
 6499      5F43475F 
 6499      4D4F4442 
 6499      495400
 6500              	.LASF141:
 6501 0c50 656E6769 		.ascii	"engine_sensor_adc_StopConvert\000"
 6501      6E655F73 
 6501      656E736F 
 6501      725F6164 
 6501      635F5374 
 6502              	.LASF158:
 6503 0c6e 61646352 		.ascii	"adcResult16\000"
 6503      6573756C 
 6503      74313600 
 6504              	.LASF82:
 6505 0c7a 43795541 		.ascii	"CyUAB_SW_SB\000"
 6505      425F5357 
 6505      5F534200 
 6506              	.LASF97:
 6507 0c86 43795541 		.ascii	"CyUAB_SW_SC\000"
 6507      425F5357 
 6507      5F534300 
 6508              	.LASF131:
 6509 0c92 656E6769 		.ascii	"engine_sensor_adc_Stop\000"
 6509      6E655F73 
 6509      656E736F 
 6509      725F6164 
 6509      635F5374 
 6510              	.LASF27:
 6511 0ca9 73686172 		.ascii	"shared_sw\000"
 6511      65645F73 
 6511      7700
 6512              	.LASF167:
 6513 0cb3 7361744D 		.ascii	"satMask\000"
 6513      61736B00 
 6514              	.LASF12:
 6515 0cbb 696E7431 		.ascii	"int16\000"
 6515      3600
 6516              	.LASF136:
 6517 0cc1 63684E75 		.ascii	"chNum\000"
 6517      6D00
 6518              	.LASF144:
 6519 0cc7 656E6769 		.ascii	"engine_sensor_adc_SetEosMask\000"
 6519      6E655F73 
 6519      656E736F 
ARM GAS  C:\Users\fneves\AppData\Local\Temp\ccV5UskS.s 			page 163


 6519      725F6164 
 6519      635F5365 
 6520              	.LASF93:
 6521 0ce4 43795541 		.ascii	"CyUAB_SW_RC_MODBIT\000"
 6521      425F5357 
 6521      5F52435F 
 6521      4D4F4442 
 6521      495400
 6522              	.LASF95:
 6523 0cf7 43795541 		.ascii	"CyUAB_SW_VC_MODBIT\000"
 6523      425F5357 
 6523      5F56435F 
 6523      4D4F4442 
 6523      495400
 6524              	.LASF125:
 6525 0d0a 76726566 		.ascii	"vrefMvValue\000"
 6525      4D765661 
 6525      6C756500 
 6526              	.LASF151:
 6527 0d16 6368616E 		.ascii	"chan\000"
 6527      00
 6528              	.LASF214:
 6529 0d1b 656E6769 		.ascii	"engine_sensor_adc_CFG0_UABH_B_FILTER_initPairs\000"
 6529      6E655F73 
 6529      656E736F 
 6529      725F6164 
 6529      635F4346 
 6530              	.LASF18:
 6531 0d4a 63686172 		.ascii	"char\000"
 6531      00
 6532              	.LASF92:
 6533 0d4f 43795541 		.ascii	"CyUAB_SW_CV_MODBIT\000"
 6533      425F5357 
 6533      5F43565F 
 6533      4D4F4442 
 6533      495400
 6534              	.LASF143:
 6535 0d62 6D6F6465 		.ascii	"mode\000"
 6535      00
 6536              	.LASF20:
 6537 0d67 63796973 		.ascii	"cyisraddress\000"
 6537      72616464 
 6537      72657373 
 6537      00
 6538              	.LASF135:
 6539 0d74 636F6E66 		.ascii	"config\000"
 6539      696700
 6540              	.LASF177:
 6541 0d7b 656E6769 		.ascii	"engine_sensor_adc_CountsTo_Volts\000"
 6541      6E655F73 
 6541      656E736F 
 6541      725F6164 
 6541      635F436F 
 6542              	.LASF168:
 6543 0d9c 656E6769 		.ascii	"engine_sensor_adc_SetOffset\000"
 6543      6E655F73 
 6543      656E736F 
ARM GAS  C:\Users\fneves\AppData\Local\Temp\ccV5UskS.s 			page 164


 6543      725F6164 
 6543      635F5365 
 6544              	.LASF182:
 6545 0db8 72657375 		.ascii	"result_uVolts\000"
 6545      6C745F75 
 6545      566F6C74 
 6545      7300
 6546              	.LASF139:
 6547 0dc6 72657374 		.ascii	"restart\000"
 6547      61727400 
 6548              	.LASF106:
 6549 0dce 43795541 		.ascii	"CyUAB_SW_STROBE_SW\000"
 6549      425F5357 
 6549      5F535452 
 6549      4F42455F 
 6549      535700
 6550              	.LASF79:
 6551 0de1 43795541 		.ascii	"CyUAB_SW_GB_MODBIT\000"
 6551      425F5357 
 6551      5F47425F 
 6551      4D4F4442 
 6551      495400
 6552              	.LASF191:
 6553 0df4 73746172 		.ascii	"startTrim\000"
 6553      74547269 
 6553      6D00
 6554              	.LASF169:
 6555 0dfe 6F666673 		.ascii	"offset\000"
 6555      657400
 6556              	.LASF179:
 6557 0e05 656E6769 		.ascii	"engine_sensor_adc_CountsTo_mVolts\000"
 6557      6E655F73 
 6557      656E736F 
 6557      725F6164 
 6557      635F436F 
 6558              	.LASF116:
 6559 0e27 6374726C 		.ascii	"ctrl\000"
 6559      00
 6560              	.LASF44:
 6561 0e2c 43795541 		.ascii	"CyUAB_SW_CLOSED\000"
 6561      425F5357 
 6561      5F434C4F 
 6561      53454400 
 6562              	.LASF126:
 6563 0e3c 6D697363 		.ascii	"miscConfig\000"
 6563      436F6E66 
 6563      696700
 6564              	.LASF173:
 6565 0e47 61646343 		.ascii	"adcCounts\000"
 6565      6F756E74 
 6565      7300
 6566              	.LASF157:
 6567 0e51 656E6769 		.ascii	"engine_sensor_adc_GetResult32\000"
 6567      6E655F73 
 6567      656E736F 
 6567      725F6164 
 6567      635F4765 
ARM GAS  C:\Users\fneves\AppData\Local\Temp\ccV5UskS.s 			page 165


 6568              	.LASF201:
 6569 0e6f 656E6769 		.ascii	"engine_sensor_adc_IncOpampTrim\000"
 6569      6E655F73 
 6569      656E736F 
 6569      725F6164 
 6569      635F496E 
 6570              	.LASF166:
 6571 0e8e 656E6769 		.ascii	"engine_sensor_adc_SetSatMask\000"
 6571      6E655F73 
 6571      656E736F 
 6571      725F6164 
 6571      635F5365 
 6572              	.LASF121:
 6573 0eab 72616E67 		.ascii	"rangeCond\000"
 6573      65436F6E 
 6573      6400
 6574              	.LASF146:
 6575 0eb5 656E6769 		.ascii	"engine_sensor_adc_SetChanMask\000"
 6575      6E655F73 
 6575      656E736F 
 6575      725F6164 
 6575      635F5365 
 6576              	.LASF34:
 6577 0ed3 43795541 		.ascii	"CyUAB_CLK_PHI3\000"
 6577      425F434C 
 6577      4B5F5048 
 6577      493300
 6578              	.LASF25:
 6579 0ee2 77617665 		.ascii	"waveSteps\000"
 6579      53746570 
 6579      7300
 6580              	.LASF65:
 6581 0eec 43795541 		.ascii	"CyUAB_SW_GA_MODBIT\000"
 6581      425F5357 
 6581      5F47415F 
 6581      4D4F4442 
 6581      495400
 6582              	.LASF185:
 6583 0eff 61676E64 		.ascii	"agndTrim\000"
 6583      5472696D 
 6583      00
 6584              	.LASF190:
 6585 0f08 656E6769 		.ascii	"engine_sensor_adc_RaiseOpampTrimToCrossing\000"
 6585      6E655F73 
 6585      656E736F 
 6585      725F6164 
 6585      635F5261 
 6586              	.LASF216:
 6587 0f33 656E6769 		.ascii	"engine_sensor_adc_CFG0_UABH_B_FILTER_config\000"
 6587      6E655F73 
 6587      656E736F 
 6587      725F6164 
 6587      635F4346 
 6588              	.LASF180:
 6589 0f5f 72657375 		.ascii	"result_mVolts\000"
 6589      6C745F6D 
 6589      566F6C74 
ARM GAS  C:\Users\fneves\AppData\Local\Temp\ccV5UskS.s 			page 166


 6589      7300
 6590              	.LASF54:
 6591 0f6d 43795541 		.ascii	"CyUAB_SW_AX0_MODBIT\000"
 6591      425F5357 
 6591      5F415830 
 6591      5F4D4F44 
 6591      42495400 
 6592              	.LASF193:
 6593 0f81 656E6769 		.ascii	"engine_sensor_adc_LowerOpampTrimToCrossing\000"
 6593      6E655F73 
 6593      656E736F 
 6593      725F6164 
 6593      635F4C6F 
 6594              	.LASF68:
 6595 0fac 43795541 		.ascii	"CyUAB_SW_BX0_MODBIT\000"
 6595      425F5357 
 6595      5F425830 
 6595      5F4D4F44 
 6595      42495400 
 6596              	.LASF197:
 6597 0fc0 656E6769 		.ascii	"engine_sensor_adc_SetOpampAndAgndTrim\000"
 6597      6E655F73 
 6597      656E736F 
 6597      725F6164 
 6597      635F5365 
 6598              	.LASF83:
 6599 0fe6 43795541 		.ascii	"CyUAB_SW_CX0_MODBIT\000"
 6599      425F5357 
 6599      5F435830 
 6599      5F4D4F44 
 6599      42495400 
 6600              	.LASF113:
 6601 0ffa 43795541 		.ascii	"CyUAB_SW_PUMP_WAVE\000"
 6601      425F5357 
 6601      5F50554D 
 6601      505F5741 
 6601      564500
 6602              	.LASF114:
 6603 100d 6368616E 		.ascii	"channelBase\000"
 6603      6E656C42 
 6603      61736500 
 6604              	.LASF99:
 6605 1019 43795541 		.ascii	"CyUAB_SW_GF\000"
 6605      425F5357 
 6605      5F474600 
 6606              	.LASF50:
 6607 1025 43795541 		.ascii	"CyUAB_SW_GG\000"
 6607      425F5357 
 6607      5F474700 
 6608              	.LASF132:
 6609 1031 656E6769 		.ascii	"engine_sensor_adc_StartEx\000"
 6609      6E655F73 
 6609      656E736F 
 6609      725F6164 
 6609      635F5374 
 6610              	.LASF102:
 6611 104b 43795541 		.ascii	"CyUAB_SW_PO\000"
ARM GAS  C:\Users\fneves\AppData\Local\Temp\ccV5UskS.s 			page 167


 6611      425F5357 
 6611      5F504F00 
 6612              	.LASF52:
 6613 1057 43795541 		.ascii	"CyUAB_SW_GT\000"
 6613      425F5357 
 6613      5F475400 
 6614              	.LASF29:
 6615 1063 70616972 		.ascii	"pairCount\000"
 6615      436F756E 
 6615      7400
 6616              	.LASF28:
 6617 106d 73746570 		.ascii	"stepCount\000"
 6617      436F756E 
 6617      7400
 6618              	.LASF16:
 6619 1077 646F7562 		.ascii	"double\000"
 6619      6C6500
 6620              	.LASF37:
 6621 107e 43795541 		.ascii	"CyUAB_CLK_PHI6\000"
 6621      425F434C 
 6621      4B5F5048 
 6621      493600
 6622              	.LASF66:
 6623 108d 43795541 		.ascii	"CyUAB_SW_VA_MODBIT\000"
 6623      425F5357 
 6623      5F56415F 
 6623      4D4F4442 
 6623      495400
 6624              		.ident	"GCC: (GNU Tools for ARM Embedded Processors) 4.9.3 20150303 (release) [ARM/embedded-4_9-br
