ARM GAS  C:\Users\fneves\AppData\Local\Temp\ccAAmFBx.s 			page 1


   1              		.cpu cortex-m0plus
   2              		.fpu softvfp
   3              		.eabi_attribute 20, 1
   4              		.eabi_attribute 21, 1
   5              		.eabi_attribute 23, 3
   6              		.eabi_attribute 24, 1
   7              		.eabi_attribute 25, 1
   8              		.eabi_attribute 26, 1
   9              		.eabi_attribute 30, 6
  10              		.eabi_attribute 34, 0
  11              		.eabi_attribute 18, 4
  12              		.code	16
  13              		.file	"engine_afe.c"
  14              		.text
  15              	.Ltext0:
  16              		.cfi_sections	.debug_frame
  17              		.section	.text.engine_sensor_transfer_SetInterruptCallback,"ax",%progbits
  18              		.align	2
  19              		.code	16
  20              		.thumb_func
  21              		.type	engine_sensor_transfer_SetInterruptCallback, %function
  22              	engine_sensor_transfer_SetInterruptCallback:
  23              	.LFB31:
  24              		.file 1 "Generated_Source\\PSoC4/engine_sensor_transfer.h"
   1:Generated_Source\PSoC4/engine_sensor_transfer.h **** /*******************************************************************************
   2:Generated_Source\PSoC4/engine_sensor_transfer.h **** * File Name: engine_sensor_transfer.h
   3:Generated_Source\PSoC4/engine_sensor_transfer.h **** * Version 1.0
   4:Generated_Source\PSoC4/engine_sensor_transfer.h **** *
   5:Generated_Source\PSoC4/engine_sensor_transfer.h **** * Description:
   6:Generated_Source\PSoC4/engine_sensor_transfer.h **** *  This file provides DMA channel defines and API function definitions.
   7:Generated_Source\PSoC4/engine_sensor_transfer.h **** *
   8:Generated_Source\PSoC4/engine_sensor_transfer.h **** ********************************************************************************
   9:Generated_Source\PSoC4/engine_sensor_transfer.h **** * Copyright 2015, Cypress Semiconductor Corporation. All rights reserved.
  10:Generated_Source\PSoC4/engine_sensor_transfer.h **** * You may use this file only in accordance with the license, terms, conditions,
  11:Generated_Source\PSoC4/engine_sensor_transfer.h **** * disclaimers, and limitations in the end user license agreement accompanying
  12:Generated_Source\PSoC4/engine_sensor_transfer.h **** * the software package with which this file was provided.
  13:Generated_Source\PSoC4/engine_sensor_transfer.h **** *******************************************************************************/
  14:Generated_Source\PSoC4/engine_sensor_transfer.h **** 
  15:Generated_Source\PSoC4/engine_sensor_transfer.h **** #ifndef CY_DMA_CHANNEL_engine_sensor_transfer_H
  16:Generated_Source\PSoC4/engine_sensor_transfer.h **** #define CY_DMA_CHANNEL_engine_sensor_transfer_H
  17:Generated_Source\PSoC4/engine_sensor_transfer.h **** 
  18:Generated_Source\PSoC4/engine_sensor_transfer.h **** #include "CyDMA.h"
  19:Generated_Source\PSoC4/engine_sensor_transfer.h **** 
  20:Generated_Source\PSoC4/engine_sensor_transfer.h ****     
  21:Generated_Source\PSoC4/engine_sensor_transfer.h **** /***************************************
  22:Generated_Source\PSoC4/engine_sensor_transfer.h **** *   Conditional Compilation Parameters
  23:Generated_Source\PSoC4/engine_sensor_transfer.h **** ***************************************/
  24:Generated_Source\PSoC4/engine_sensor_transfer.h **** 
  25:Generated_Source\PSoC4/engine_sensor_transfer.h **** #define engine_sensor_transfer_CHANNEL           (engine_sensor_transfer__CHANNEL_NUMBER)
  26:Generated_Source\PSoC4/engine_sensor_transfer.h **** #define engine_sensor_transfer_CHANNEL_MASK      ((uint32)(1UL << engine_sensor_transfer_CHANNEL))
  27:Generated_Source\PSoC4/engine_sensor_transfer.h **** 
  28:Generated_Source\PSoC4/engine_sensor_transfer.h **** 
  29:Generated_Source\PSoC4/engine_sensor_transfer.h **** /***************************************
  30:Generated_Source\PSoC4/engine_sensor_transfer.h **** *        Function Prototypes
  31:Generated_Source\PSoC4/engine_sensor_transfer.h **** ***************************************/
  32:Generated_Source\PSoC4/engine_sensor_transfer.h **** 
  33:Generated_Source\PSoC4/engine_sensor_transfer.h **** /* Functions specific to this DMA channel */
ARM GAS  C:\Users\fneves\AppData\Local\Temp\ccAAmFBx.s 			page 2


  34:Generated_Source\PSoC4/engine_sensor_transfer.h **** void engine_sensor_transfer_Init(void);
  35:Generated_Source\PSoC4/engine_sensor_transfer.h **** void engine_sensor_transfer_Start(void * srcAddress, void * dstAddress);
  36:Generated_Source\PSoC4/engine_sensor_transfer.h **** 
  37:Generated_Source\PSoC4/engine_sensor_transfer.h **** /* Inline functions that call global API functions */
  38:Generated_Source\PSoC4/engine_sensor_transfer.h **** static void   engine_sensor_transfer_ChEnable(void);
  39:Generated_Source\PSoC4/engine_sensor_transfer.h **** static void   engine_sensor_transfer_ChDisable(void);
  40:Generated_Source\PSoC4/engine_sensor_transfer.h **** static void   engine_sensor_transfer_Trigger(void);
  41:Generated_Source\PSoC4/engine_sensor_transfer.h **** static void   engine_sensor_transfer_SetPriority(int32 priority);
  42:Generated_Source\PSoC4/engine_sensor_transfer.h **** static int32  engine_sensor_transfer_GetPriority(void);
  43:Generated_Source\PSoC4/engine_sensor_transfer.h **** static void   engine_sensor_transfer_SetNextDescriptor(int32 descriptor);
  44:Generated_Source\PSoC4/engine_sensor_transfer.h **** static int32  engine_sensor_transfer_GetNextDescriptor(void);
  45:Generated_Source\PSoC4/engine_sensor_transfer.h **** static void   engine_sensor_transfer_SetConfiguration(int32 descriptor, const cydma_init_struct * c
  46:Generated_Source\PSoC4/engine_sensor_transfer.h **** static void   engine_sensor_transfer_ValidateDescriptor(int32 descriptor);
  47:Generated_Source\PSoC4/engine_sensor_transfer.h **** static uint32 engine_sensor_transfer_GetDescriptorStatus(int32 descriptor);
  48:Generated_Source\PSoC4/engine_sensor_transfer.h **** static void   engine_sensor_transfer_SetSrcAddress(int32 descriptor, void * srcAddress);
  49:Generated_Source\PSoC4/engine_sensor_transfer.h **** static void * engine_sensor_transfer_GetSrcAddress(int32 descriptor);
  50:Generated_Source\PSoC4/engine_sensor_transfer.h **** static void   engine_sensor_transfer_SetDstAddress(int32 descriptor, void * dstAddress);
  51:Generated_Source\PSoC4/engine_sensor_transfer.h **** static void * engine_sensor_transfer_GetDstAddress(int32 descriptor);
  52:Generated_Source\PSoC4/engine_sensor_transfer.h **** static void   engine_sensor_transfer_SetDataElementSize(int32 descriptor, uint32 dataElementSize);
  53:Generated_Source\PSoC4/engine_sensor_transfer.h **** static uint32 engine_sensor_transfer_GetDataElementSize(int32 descriptor);
  54:Generated_Source\PSoC4/engine_sensor_transfer.h **** static void   engine_sensor_transfer_SetNumDataElements(int32 descriptor, int32 numDataElements);
  55:Generated_Source\PSoC4/engine_sensor_transfer.h **** static int32  engine_sensor_transfer_GetNumDataElements(int32 descriptor);
  56:Generated_Source\PSoC4/engine_sensor_transfer.h **** static void   engine_sensor_transfer_SetSrcDstTransferWidth(int32 descriptor, uint32 transferWidth)
  57:Generated_Source\PSoC4/engine_sensor_transfer.h **** static uint32 engine_sensor_transfer_GetSrcDstTransferWidth(int32 descriptor);
  58:Generated_Source\PSoC4/engine_sensor_transfer.h **** static void   engine_sensor_transfer_SetAddressIncrement(int32 descriptor, uint32 addressIncrement)
  59:Generated_Source\PSoC4/engine_sensor_transfer.h **** static uint32 engine_sensor_transfer_GetAddressIncrement(int32 descriptor);
  60:Generated_Source\PSoC4/engine_sensor_transfer.h **** static void   engine_sensor_transfer_SetTriggerType(int32 descriptor, uint32 triggerType);
  61:Generated_Source\PSoC4/engine_sensor_transfer.h **** static uint32 engine_sensor_transfer_GetTriggerType(int32 descriptor);
  62:Generated_Source\PSoC4/engine_sensor_transfer.h **** static void   engine_sensor_transfer_SetTransferMode(int32 descriptor, uint32 transferMode);
  63:Generated_Source\PSoC4/engine_sensor_transfer.h **** static uint32 engine_sensor_transfer_GetTransferMode(int32 descriptor);
  64:Generated_Source\PSoC4/engine_sensor_transfer.h **** static void   engine_sensor_transfer_SetPreemptable(int32 descriptor, uint32 preemptable);
  65:Generated_Source\PSoC4/engine_sensor_transfer.h **** static uint32 engine_sensor_transfer_GetPreemptable(int32 descriptor);
  66:Generated_Source\PSoC4/engine_sensor_transfer.h **** static void   engine_sensor_transfer_SetPostCompletionActions(int32 descriptor, uint32 actions);
  67:Generated_Source\PSoC4/engine_sensor_transfer.h **** static uint32 engine_sensor_transfer_GetPostCompletionAction(int32 descriptor);
  68:Generated_Source\PSoC4/engine_sensor_transfer.h **** static cydma_callback_t engine_sensor_transfer_SetInterruptCallback(cydma_callback_t callback);
  69:Generated_Source\PSoC4/engine_sensor_transfer.h **** static cydma_callback_t engine_sensor_transfer_GetInterruptCallback(void);
  70:Generated_Source\PSoC4/engine_sensor_transfer.h **** 
  71:Generated_Source\PSoC4/engine_sensor_transfer.h **** 
  72:Generated_Source\PSoC4/engine_sensor_transfer.h **** /*******************************************************************************
  73:Generated_Source\PSoC4/engine_sensor_transfer.h **** * Function Name: engine_sensor_transfer_ChEnable
  74:Generated_Source\PSoC4/engine_sensor_transfer.h **** ********************************************************************************
  75:Generated_Source\PSoC4/engine_sensor_transfer.h **** *
  76:Generated_Source\PSoC4/engine_sensor_transfer.h **** * Summary:
  77:Generated_Source\PSoC4/engine_sensor_transfer.h **** *  Enables the DMA channel. It is not necessary to call engine_sensor_transfer_ChEnable()
  78:Generated_Source\PSoC4/engine_sensor_transfer.h **** *  because the engine_sensor_transfer_Start() API calls this function, which is the
  79:Generated_Source\PSoC4/engine_sensor_transfer.h **** *  preferred method to begin the component operation.
  80:Generated_Source\PSoC4/engine_sensor_transfer.h **** *
  81:Generated_Source\PSoC4/engine_sensor_transfer.h **** * Parameters:
  82:Generated_Source\PSoC4/engine_sensor_transfer.h **** *  None.
  83:Generated_Source\PSoC4/engine_sensor_transfer.h **** *                   
  84:Generated_Source\PSoC4/engine_sensor_transfer.h **** * Return:
  85:Generated_Source\PSoC4/engine_sensor_transfer.h **** *  None.
  86:Generated_Source\PSoC4/engine_sensor_transfer.h **** *
  87:Generated_Source\PSoC4/engine_sensor_transfer.h **** * Side effect:
  88:Generated_Source\PSoC4/engine_sensor_transfer.h **** *  If this function is called before engine_sensor_transfer_Start(), or engine_sensor_transfer_Init
  89:Generated_Source\PSoC4/engine_sensor_transfer.h **** *  or engine_sensor_transfer_SetConfiguration(), and engine_sensor_transfer_SetSrcAddress()
  90:Generated_Source\PSoC4/engine_sensor_transfer.h **** *  and engine_sensor_transfer_SetDstAddress the operation of the DMA is 
ARM GAS  C:\Users\fneves\AppData\Local\Temp\ccAAmFBx.s 			page 3


  91:Generated_Source\PSoC4/engine_sensor_transfer.h **** *  undefined and could result in system data corruption. 
  92:Generated_Source\PSoC4/engine_sensor_transfer.h **** *
  93:Generated_Source\PSoC4/engine_sensor_transfer.h **** *******************************************************************************/
  94:Generated_Source\PSoC4/engine_sensor_transfer.h **** static CY_INLINE void engine_sensor_transfer_ChEnable(void)
  95:Generated_Source\PSoC4/engine_sensor_transfer.h **** {
  96:Generated_Source\PSoC4/engine_sensor_transfer.h ****     CyDmaChEnable(engine_sensor_transfer_CHANNEL);
  97:Generated_Source\PSoC4/engine_sensor_transfer.h **** }
  98:Generated_Source\PSoC4/engine_sensor_transfer.h **** 
  99:Generated_Source\PSoC4/engine_sensor_transfer.h **** 
 100:Generated_Source\PSoC4/engine_sensor_transfer.h **** /*******************************************************************************
 101:Generated_Source\PSoC4/engine_sensor_transfer.h **** * Function Name: engine_sensor_transfer_ChDisable
 102:Generated_Source\PSoC4/engine_sensor_transfer.h **** ********************************************************************************
 103:Generated_Source\PSoC4/engine_sensor_transfer.h **** *
 104:Generated_Source\PSoC4/engine_sensor_transfer.h **** * Summary:
 105:Generated_Source\PSoC4/engine_sensor_transfer.h **** *  Disables the DMA channel.
 106:Generated_Source\PSoC4/engine_sensor_transfer.h **** *
 107:Generated_Source\PSoC4/engine_sensor_transfer.h **** * Parameters:
 108:Generated_Source\PSoC4/engine_sensor_transfer.h **** *  None.
 109:Generated_Source\PSoC4/engine_sensor_transfer.h **** *                   
 110:Generated_Source\PSoC4/engine_sensor_transfer.h **** * Return:
 111:Generated_Source\PSoC4/engine_sensor_transfer.h **** *  None.
 112:Generated_Source\PSoC4/engine_sensor_transfer.h **** *
 113:Generated_Source\PSoC4/engine_sensor_transfer.h **** * Side effect:
 114:Generated_Source\PSoC4/engine_sensor_transfer.h **** *  If this function is called during a DMA transfer the transfer is aborted. 
 115:Generated_Source\PSoC4/engine_sensor_transfer.h **** *
 116:Generated_Source\PSoC4/engine_sensor_transfer.h **** *******************************************************************************/
 117:Generated_Source\PSoC4/engine_sensor_transfer.h **** static CY_INLINE void engine_sensor_transfer_ChDisable(void)
 118:Generated_Source\PSoC4/engine_sensor_transfer.h **** {
 119:Generated_Source\PSoC4/engine_sensor_transfer.h ****     CyDmaChDisable(engine_sensor_transfer_CHANNEL);
 120:Generated_Source\PSoC4/engine_sensor_transfer.h **** }
 121:Generated_Source\PSoC4/engine_sensor_transfer.h **** 
 122:Generated_Source\PSoC4/engine_sensor_transfer.h **** 
 123:Generated_Source\PSoC4/engine_sensor_transfer.h **** /*******************************************************************************
 124:Generated_Source\PSoC4/engine_sensor_transfer.h **** * Function Name: engine_sensor_transfer_Trigger
 125:Generated_Source\PSoC4/engine_sensor_transfer.h **** ********************************************************************************
 126:Generated_Source\PSoC4/engine_sensor_transfer.h **** *
 127:Generated_Source\PSoC4/engine_sensor_transfer.h **** * Summary:
 128:Generated_Source\PSoC4/engine_sensor_transfer.h **** *  Triggers the DMA channel, this is useful only for software triggers. This is
 129:Generated_Source\PSoC4/engine_sensor_transfer.h **** *  not needed when hardware triggers are used.
 130:Generated_Source\PSoC4/engine_sensor_transfer.h **** *
 131:Generated_Source\PSoC4/engine_sensor_transfer.h **** * Parameters:
 132:Generated_Source\PSoC4/engine_sensor_transfer.h **** *  None.
 133:Generated_Source\PSoC4/engine_sensor_transfer.h **** *                   
 134:Generated_Source\PSoC4/engine_sensor_transfer.h **** * Return:
 135:Generated_Source\PSoC4/engine_sensor_transfer.h **** *  None. 
 136:Generated_Source\PSoC4/engine_sensor_transfer.h **** *
 137:Generated_Source\PSoC4/engine_sensor_transfer.h **** *******************************************************************************/
 138:Generated_Source\PSoC4/engine_sensor_transfer.h **** static CY_INLINE void engine_sensor_transfer_Trigger(void)
 139:Generated_Source\PSoC4/engine_sensor_transfer.h **** {
 140:Generated_Source\PSoC4/engine_sensor_transfer.h ****     CyDmaTrigger(engine_sensor_transfer_CHANNEL);
 141:Generated_Source\PSoC4/engine_sensor_transfer.h **** }
 142:Generated_Source\PSoC4/engine_sensor_transfer.h **** 
 143:Generated_Source\PSoC4/engine_sensor_transfer.h **** 
 144:Generated_Source\PSoC4/engine_sensor_transfer.h **** /*******************************************************************************
 145:Generated_Source\PSoC4/engine_sensor_transfer.h **** * Function Name: engine_sensor_transfer_SetPriority
 146:Generated_Source\PSoC4/engine_sensor_transfer.h **** ********************************************************************************
 147:Generated_Source\PSoC4/engine_sensor_transfer.h **** *
ARM GAS  C:\Users\fneves\AppData\Local\Temp\ccAAmFBx.s 			page 4


 148:Generated_Source\PSoC4/engine_sensor_transfer.h **** * Summary:
 149:Generated_Source\PSoC4/engine_sensor_transfer.h **** *  Sets the priority for the channel.
 150:Generated_Source\PSoC4/engine_sensor_transfer.h **** *
 151:Generated_Source\PSoC4/engine_sensor_transfer.h **** * Parameters:
 152:Generated_Source\PSoC4/engine_sensor_transfer.h **** *  priority: Priority for channel. Priority can be 0,1,2, or 3.
 153:Generated_Source\PSoC4/engine_sensor_transfer.h **** *            0 is the highest priority.
 154:Generated_Source\PSoC4/engine_sensor_transfer.h **** *                   
 155:Generated_Source\PSoC4/engine_sensor_transfer.h **** * Return:
 156:Generated_Source\PSoC4/engine_sensor_transfer.h **** *  None.
 157:Generated_Source\PSoC4/engine_sensor_transfer.h **** *
 158:Generated_Source\PSoC4/engine_sensor_transfer.h **** * Side effect:
 159:Generated_Source\PSoC4/engine_sensor_transfer.h **** *  This function should not be called while the channel is enabled.
 160:Generated_Source\PSoC4/engine_sensor_transfer.h **** *
 161:Generated_Source\PSoC4/engine_sensor_transfer.h **** *******************************************************************************/
 162:Generated_Source\PSoC4/engine_sensor_transfer.h **** static CY_INLINE void engine_sensor_transfer_SetPriority(int32 priority)
 163:Generated_Source\PSoC4/engine_sensor_transfer.h **** {
 164:Generated_Source\PSoC4/engine_sensor_transfer.h ****     CyDmaSetPriority(engine_sensor_transfer_CHANNEL, priority);
 165:Generated_Source\PSoC4/engine_sensor_transfer.h **** }
 166:Generated_Source\PSoC4/engine_sensor_transfer.h **** 
 167:Generated_Source\PSoC4/engine_sensor_transfer.h **** 
 168:Generated_Source\PSoC4/engine_sensor_transfer.h **** /*******************************************************************************
 169:Generated_Source\PSoC4/engine_sensor_transfer.h **** * Function Name: engine_sensor_transfer_GetPriority
 170:Generated_Source\PSoC4/engine_sensor_transfer.h **** ********************************************************************************
 171:Generated_Source\PSoC4/engine_sensor_transfer.h **** *
 172:Generated_Source\PSoC4/engine_sensor_transfer.h **** * Summary:
 173:Generated_Source\PSoC4/engine_sensor_transfer.h **** *  Gets the priority for the channel.
 174:Generated_Source\PSoC4/engine_sensor_transfer.h **** *
 175:Generated_Source\PSoC4/engine_sensor_transfer.h **** * Parameters:
 176:Generated_Source\PSoC4/engine_sensor_transfer.h **** *  None.
 177:Generated_Source\PSoC4/engine_sensor_transfer.h **** *                   
 178:Generated_Source\PSoC4/engine_sensor_transfer.h **** * Return:
 179:Generated_Source\PSoC4/engine_sensor_transfer.h **** *  Priority for channel. Priority can be 0,1,2, or 3. 0 is the highest priority.
 180:Generated_Source\PSoC4/engine_sensor_transfer.h **** *
 181:Generated_Source\PSoC4/engine_sensor_transfer.h **** *******************************************************************************/
 182:Generated_Source\PSoC4/engine_sensor_transfer.h **** static CY_INLINE int32 engine_sensor_transfer_GetPriority(void)
 183:Generated_Source\PSoC4/engine_sensor_transfer.h **** {
 184:Generated_Source\PSoC4/engine_sensor_transfer.h ****     return (CyDmaGetPriority(engine_sensor_transfer_CHANNEL));
 185:Generated_Source\PSoC4/engine_sensor_transfer.h **** }
 186:Generated_Source\PSoC4/engine_sensor_transfer.h **** 
 187:Generated_Source\PSoC4/engine_sensor_transfer.h **** 
 188:Generated_Source\PSoC4/engine_sensor_transfer.h **** /*******************************************************************************
 189:Generated_Source\PSoC4/engine_sensor_transfer.h **** * Function Name: engine_sensor_transfer_SetNextDescriptor
 190:Generated_Source\PSoC4/engine_sensor_transfer.h **** ********************************************************************************
 191:Generated_Source\PSoC4/engine_sensor_transfer.h **** *
 192:Generated_Source\PSoC4/engine_sensor_transfer.h **** * Summary:
 193:Generated_Source\PSoC4/engine_sensor_transfer.h **** *  Sets the descriptor that should be run the next time the channel is
 194:Generated_Source\PSoC4/engine_sensor_transfer.h **** *  triggered.
 195:Generated_Source\PSoC4/engine_sensor_transfer.h **** *
 196:Generated_Source\PSoC4/engine_sensor_transfer.h **** * Parameters:
 197:Generated_Source\PSoC4/engine_sensor_transfer.h **** *  descriptor: Next Descriptor to run (0 or 1).
 198:Generated_Source\PSoC4/engine_sensor_transfer.h **** *                   
 199:Generated_Source\PSoC4/engine_sensor_transfer.h **** * Side effect:
 200:Generated_Source\PSoC4/engine_sensor_transfer.h **** *  This function should not be called while the channel is enabled.
 201:Generated_Source\PSoC4/engine_sensor_transfer.h **** *
 202:Generated_Source\PSoC4/engine_sensor_transfer.h **** *******************************************************************************/
 203:Generated_Source\PSoC4/engine_sensor_transfer.h **** static CY_INLINE void engine_sensor_transfer_SetNextDescriptor(int32 descriptor)
 204:Generated_Source\PSoC4/engine_sensor_transfer.h **** {
ARM GAS  C:\Users\fneves\AppData\Local\Temp\ccAAmFBx.s 			page 5


 205:Generated_Source\PSoC4/engine_sensor_transfer.h ****     CyDmaSetNextDescriptor(engine_sensor_transfer_CHANNEL, descriptor);
 206:Generated_Source\PSoC4/engine_sensor_transfer.h **** }
 207:Generated_Source\PSoC4/engine_sensor_transfer.h **** 
 208:Generated_Source\PSoC4/engine_sensor_transfer.h **** 
 209:Generated_Source\PSoC4/engine_sensor_transfer.h **** /*******************************************************************************
 210:Generated_Source\PSoC4/engine_sensor_transfer.h **** * Function Name: engine_sensor_transfer_GetNextDescriptor
 211:Generated_Source\PSoC4/engine_sensor_transfer.h **** ********************************************************************************
 212:Generated_Source\PSoC4/engine_sensor_transfer.h **** *
 213:Generated_Source\PSoC4/engine_sensor_transfer.h **** * Summary:
 214:Generated_Source\PSoC4/engine_sensor_transfer.h **** *  Returns the next descriptor that should be run, as set by 
 215:Generated_Source\PSoC4/engine_sensor_transfer.h **** *  engine_sensor_transfer_SetNextDescriptor().
 216:Generated_Source\PSoC4/engine_sensor_transfer.h **** *
 217:Generated_Source\PSoC4/engine_sensor_transfer.h **** * Parameters:
 218:Generated_Source\PSoC4/engine_sensor_transfer.h **** *  None.
 219:Generated_Source\PSoC4/engine_sensor_transfer.h **** *                   
 220:Generated_Source\PSoC4/engine_sensor_transfer.h **** * Return:
 221:Generated_Source\PSoC4/engine_sensor_transfer.h **** *  Next Descriptor to run (0 or 1).
 222:Generated_Source\PSoC4/engine_sensor_transfer.h **** *
 223:Generated_Source\PSoC4/engine_sensor_transfer.h **** *******************************************************************************/
 224:Generated_Source\PSoC4/engine_sensor_transfer.h **** static CY_INLINE int32 engine_sensor_transfer_GetNextDescriptor(void)
 225:Generated_Source\PSoC4/engine_sensor_transfer.h **** {
 226:Generated_Source\PSoC4/engine_sensor_transfer.h ****     return (CyDmaGetNextDescriptor(engine_sensor_transfer_CHANNEL));
 227:Generated_Source\PSoC4/engine_sensor_transfer.h **** }
 228:Generated_Source\PSoC4/engine_sensor_transfer.h **** 
 229:Generated_Source\PSoC4/engine_sensor_transfer.h **** 
 230:Generated_Source\PSoC4/engine_sensor_transfer.h **** /*******************************************************************************
 231:Generated_Source\PSoC4/engine_sensor_transfer.h **** * Function Name: engine_sensor_transfer_SetConfiguration
 232:Generated_Source\PSoC4/engine_sensor_transfer.h **** ********************************************************************************
 233:Generated_Source\PSoC4/engine_sensor_transfer.h **** *
 234:Generated_Source\PSoC4/engine_sensor_transfer.h **** * Summary:
 235:Generated_Source\PSoC4/engine_sensor_transfer.h **** *  Sets configuration information for the specified descriptor.
 236:Generated_Source\PSoC4/engine_sensor_transfer.h **** *
 237:Generated_Source\PSoC4/engine_sensor_transfer.h **** * Parameters:
 238:Generated_Source\PSoC4/engine_sensor_transfer.h **** *  descriptor: Descriptor (0 or 1) modified by this function.
 239:Generated_Source\PSoC4/engine_sensor_transfer.h **** *  config: Pointer to a configuration structure. Refer to cydma_init_struct
 240:Generated_Source\PSoC4/engine_sensor_transfer.h **** *          structure definition in CyDMA_P4.h or the component datasheet.
 241:Generated_Source\PSoC4/engine_sensor_transfer.h **** *                   
 242:Generated_Source\PSoC4/engine_sensor_transfer.h **** * Return:
 243:Generated_Source\PSoC4/engine_sensor_transfer.h **** *  None.
 244:Generated_Source\PSoC4/engine_sensor_transfer.h **** *
 245:Generated_Source\PSoC4/engine_sensor_transfer.h **** * Side effect:
 246:Generated_Source\PSoC4/engine_sensor_transfer.h **** *  The status register associated with the specified descriptor is reset to
 247:Generated_Source\PSoC4/engine_sensor_transfer.h **** *  zero after this function call. This function also validates the descriptor.
 248:Generated_Source\PSoC4/engine_sensor_transfer.h **** *  This function should not be called while the descriptor is active.
 249:Generated_Source\PSoC4/engine_sensor_transfer.h **** *  This can be checked by calling CyDmaGetStatus().
 250:Generated_Source\PSoC4/engine_sensor_transfer.h **** *
 251:Generated_Source\PSoC4/engine_sensor_transfer.h **** *******************************************************************************/
 252:Generated_Source\PSoC4/engine_sensor_transfer.h **** static CY_INLINE void engine_sensor_transfer_SetConfiguration(int32 descriptor, const cydma_init_st
 253:Generated_Source\PSoC4/engine_sensor_transfer.h **** {
 254:Generated_Source\PSoC4/engine_sensor_transfer.h ****     CyDmaSetConfiguration(engine_sensor_transfer_CHANNEL, descriptor, config);
 255:Generated_Source\PSoC4/engine_sensor_transfer.h **** }
 256:Generated_Source\PSoC4/engine_sensor_transfer.h **** 
 257:Generated_Source\PSoC4/engine_sensor_transfer.h **** 
 258:Generated_Source\PSoC4/engine_sensor_transfer.h **** /*******************************************************************************
 259:Generated_Source\PSoC4/engine_sensor_transfer.h **** * Function Name: engine_sensor_transfer_ValidateDescriptor
 260:Generated_Source\PSoC4/engine_sensor_transfer.h **** ********************************************************************************
 261:Generated_Source\PSoC4/engine_sensor_transfer.h **** *
ARM GAS  C:\Users\fneves\AppData\Local\Temp\ccAAmFBx.s 			page 6


 262:Generated_Source\PSoC4/engine_sensor_transfer.h **** * Summary:
 263:Generated_Source\PSoC4/engine_sensor_transfer.h **** *  Validates the specified descriptor after it has been invalidated.
 264:Generated_Source\PSoC4/engine_sensor_transfer.h **** *
 265:Generated_Source\PSoC4/engine_sensor_transfer.h **** * Parameters:
 266:Generated_Source\PSoC4/engine_sensor_transfer.h **** *  descriptor: Descriptor (0 or 1) modified by this function.
 267:Generated_Source\PSoC4/engine_sensor_transfer.h **** *                   
 268:Generated_Source\PSoC4/engine_sensor_transfer.h **** * Return:
 269:Generated_Source\PSoC4/engine_sensor_transfer.h **** *  None. 
 270:Generated_Source\PSoC4/engine_sensor_transfer.h **** *
 271:Generated_Source\PSoC4/engine_sensor_transfer.h **** * Side effect:
 272:Generated_Source\PSoC4/engine_sensor_transfer.h **** *  The status register associated with the specified descriptor is reset to
 273:Generated_Source\PSoC4/engine_sensor_transfer.h **** *  zero after this function call. This function should not be called while the
 274:Generated_Source\PSoC4/engine_sensor_transfer.h **** *  descriptor is active. This can be checked by calling CyDmaGetStatus().
 275:Generated_Source\PSoC4/engine_sensor_transfer.h **** *
 276:Generated_Source\PSoC4/engine_sensor_transfer.h **** *******************************************************************************/
 277:Generated_Source\PSoC4/engine_sensor_transfer.h **** static CY_INLINE void engine_sensor_transfer_ValidateDescriptor(int32 descriptor)
 278:Generated_Source\PSoC4/engine_sensor_transfer.h **** {
 279:Generated_Source\PSoC4/engine_sensor_transfer.h ****     CyDmaValidateDescriptor(engine_sensor_transfer_CHANNEL, descriptor);
 280:Generated_Source\PSoC4/engine_sensor_transfer.h **** }
 281:Generated_Source\PSoC4/engine_sensor_transfer.h **** 
 282:Generated_Source\PSoC4/engine_sensor_transfer.h **** 
 283:Generated_Source\PSoC4/engine_sensor_transfer.h **** /*******************************************************************************
 284:Generated_Source\PSoC4/engine_sensor_transfer.h **** * Function Name: engine_sensor_transfer_GetDescriptorStatus
 285:Generated_Source\PSoC4/engine_sensor_transfer.h **** ********************************************************************************
 286:Generated_Source\PSoC4/engine_sensor_transfer.h **** *
 287:Generated_Source\PSoC4/engine_sensor_transfer.h **** * Summary:
 288:Generated_Source\PSoC4/engine_sensor_transfer.h **** *  Returns the status of the specified descriptor.
 289:Generated_Source\PSoC4/engine_sensor_transfer.h **** *
 290:Generated_Source\PSoC4/engine_sensor_transfer.h **** * Parameters:
 291:Generated_Source\PSoC4/engine_sensor_transfer.h **** *  descriptor: Descriptor (0 or 1) modified by this function.
 292:Generated_Source\PSoC4/engine_sensor_transfer.h **** *                   
 293:Generated_Source\PSoC4/engine_sensor_transfer.h **** * Return:
 294:Generated_Source\PSoC4/engine_sensor_transfer.h **** *  Returns the contents of the specified descriptors status register. Refer to 
 295:Generated_Source\PSoC4/engine_sensor_transfer.h **** *  descriptor status register bit definitions in CyDMA_P4.h or the API
 296:Generated_Source\PSoC4/engine_sensor_transfer.h **** *  description in the DMA channel datasheet for more information.
 297:Generated_Source\PSoC4/engine_sensor_transfer.h **** *
 298:Generated_Source\PSoC4/engine_sensor_transfer.h **** *******************************************************************************/
 299:Generated_Source\PSoC4/engine_sensor_transfer.h **** static CY_INLINE uint32 engine_sensor_transfer_GetDescriptorStatus(int32 descriptor)
 300:Generated_Source\PSoC4/engine_sensor_transfer.h **** {
 301:Generated_Source\PSoC4/engine_sensor_transfer.h ****     return (CyDmaGetDescriptorStatus(engine_sensor_transfer_CHANNEL, descriptor));
 302:Generated_Source\PSoC4/engine_sensor_transfer.h **** }
 303:Generated_Source\PSoC4/engine_sensor_transfer.h **** 
 304:Generated_Source\PSoC4/engine_sensor_transfer.h **** 
 305:Generated_Source\PSoC4/engine_sensor_transfer.h **** /*******************************************************************************
 306:Generated_Source\PSoC4/engine_sensor_transfer.h **** * Function Name: engine_sensor_transfer_SetSrcAddress
 307:Generated_Source\PSoC4/engine_sensor_transfer.h **** ********************************************************************************
 308:Generated_Source\PSoC4/engine_sensor_transfer.h **** *
 309:Generated_Source\PSoC4/engine_sensor_transfer.h **** * Summary:
 310:Generated_Source\PSoC4/engine_sensor_transfer.h **** *  Configures the source address for the specified descriptor.
 311:Generated_Source\PSoC4/engine_sensor_transfer.h **** *
 312:Generated_Source\PSoC4/engine_sensor_transfer.h **** * Parameters:
 313:Generated_Source\PSoC4/engine_sensor_transfer.h **** *  descriptor: Descriptor (0 or 1) modified by this function.
 314:Generated_Source\PSoC4/engine_sensor_transfer.h **** *  srcAddress: Address of DMA transfer source.
 315:Generated_Source\PSoC4/engine_sensor_transfer.h **** *                   
 316:Generated_Source\PSoC4/engine_sensor_transfer.h **** * Return:
 317:Generated_Source\PSoC4/engine_sensor_transfer.h **** *  None.
 318:Generated_Source\PSoC4/engine_sensor_transfer.h **** *
ARM GAS  C:\Users\fneves\AppData\Local\Temp\ccAAmFBx.s 			page 7


 319:Generated_Source\PSoC4/engine_sensor_transfer.h **** * Side effect:
 320:Generated_Source\PSoC4/engine_sensor_transfer.h **** *  This function should not be called when the specified descriptor is active
 321:Generated_Source\PSoC4/engine_sensor_transfer.h **** *  in the DMA transfer engine. This can be checked by calling CyDmaGetStatus(). 
 322:Generated_Source\PSoC4/engine_sensor_transfer.h **** *
 323:Generated_Source\PSoC4/engine_sensor_transfer.h **** *******************************************************************************/
 324:Generated_Source\PSoC4/engine_sensor_transfer.h **** static CY_INLINE void engine_sensor_transfer_SetSrcAddress(int32 descriptor, void * srcAddress)
 325:Generated_Source\PSoC4/engine_sensor_transfer.h **** {
 326:Generated_Source\PSoC4/engine_sensor_transfer.h ****     CyDmaSetSrcAddress(engine_sensor_transfer_CHANNEL, descriptor, srcAddress);
 327:Generated_Source\PSoC4/engine_sensor_transfer.h **** }
 328:Generated_Source\PSoC4/engine_sensor_transfer.h **** 
 329:Generated_Source\PSoC4/engine_sensor_transfer.h **** 
 330:Generated_Source\PSoC4/engine_sensor_transfer.h **** /*******************************************************************************
 331:Generated_Source\PSoC4/engine_sensor_transfer.h **** * Function Name: engine_sensor_transfer_GetSrcAddress
 332:Generated_Source\PSoC4/engine_sensor_transfer.h **** ********************************************************************************
 333:Generated_Source\PSoC4/engine_sensor_transfer.h **** *
 334:Generated_Source\PSoC4/engine_sensor_transfer.h **** * Summary:
 335:Generated_Source\PSoC4/engine_sensor_transfer.h **** *  Returns the source address for the specified descriptor, set by either 
 336:Generated_Source\PSoC4/engine_sensor_transfer.h **** *  engine_sensor_transfer_Start() or engine_sensor_transfer_SetSrcAddress().
 337:Generated_Source\PSoC4/engine_sensor_transfer.h **** *
 338:Generated_Source\PSoC4/engine_sensor_transfer.h **** * Parameters:
 339:Generated_Source\PSoC4/engine_sensor_transfer.h **** *  descriptor: Specifies descriptor (0 or 1) used by this function.
 340:Generated_Source\PSoC4/engine_sensor_transfer.h **** *                   
 341:Generated_Source\PSoC4/engine_sensor_transfer.h **** * Return:
 342:Generated_Source\PSoC4/engine_sensor_transfer.h **** *  Source address written to specified descriptor.
 343:Generated_Source\PSoC4/engine_sensor_transfer.h **** *
 344:Generated_Source\PSoC4/engine_sensor_transfer.h **** *******************************************************************************/
 345:Generated_Source\PSoC4/engine_sensor_transfer.h **** static CY_INLINE void * engine_sensor_transfer_GetSrcAddress(int32 descriptor)
 346:Generated_Source\PSoC4/engine_sensor_transfer.h **** {
 347:Generated_Source\PSoC4/engine_sensor_transfer.h ****     return (CyDmaGetSrcAddress(engine_sensor_transfer_CHANNEL, descriptor));
 348:Generated_Source\PSoC4/engine_sensor_transfer.h **** }
 349:Generated_Source\PSoC4/engine_sensor_transfer.h **** 
 350:Generated_Source\PSoC4/engine_sensor_transfer.h **** 
 351:Generated_Source\PSoC4/engine_sensor_transfer.h **** /*******************************************************************************
 352:Generated_Source\PSoC4/engine_sensor_transfer.h **** * Function Name: engine_sensor_transfer_SetDstAddress
 353:Generated_Source\PSoC4/engine_sensor_transfer.h **** ********************************************************************************
 354:Generated_Source\PSoC4/engine_sensor_transfer.h **** *
 355:Generated_Source\PSoC4/engine_sensor_transfer.h **** * Summary:
 356:Generated_Source\PSoC4/engine_sensor_transfer.h **** *  Configures the destination address for the specified descriptor.
 357:Generated_Source\PSoC4/engine_sensor_transfer.h **** *
 358:Generated_Source\PSoC4/engine_sensor_transfer.h **** * Parameters:
 359:Generated_Source\PSoC4/engine_sensor_transfer.h **** *  descriptor: Descriptor (0 or 1) modified by this function.
 360:Generated_Source\PSoC4/engine_sensor_transfer.h **** *  dstAddress: Address of DMA transfer destination.
 361:Generated_Source\PSoC4/engine_sensor_transfer.h **** *                   
 362:Generated_Source\PSoC4/engine_sensor_transfer.h **** * Return:
 363:Generated_Source\PSoC4/engine_sensor_transfer.h **** *  None.
 364:Generated_Source\PSoC4/engine_sensor_transfer.h **** *
 365:Generated_Source\PSoC4/engine_sensor_transfer.h **** * Side effect:
 366:Generated_Source\PSoC4/engine_sensor_transfer.h **** *  This function should not be called when the specified descriptor is active
 367:Generated_Source\PSoC4/engine_sensor_transfer.h **** *  in the DMA transfer engine. This can be checked by calling CyDmaGetStatus(). 
 368:Generated_Source\PSoC4/engine_sensor_transfer.h **** *
 369:Generated_Source\PSoC4/engine_sensor_transfer.h **** *******************************************************************************/
 370:Generated_Source\PSoC4/engine_sensor_transfer.h **** static CY_INLINE void engine_sensor_transfer_SetDstAddress(int32 descriptor, void * dstAddress)
 371:Generated_Source\PSoC4/engine_sensor_transfer.h **** {
 372:Generated_Source\PSoC4/engine_sensor_transfer.h ****     CyDmaSetDstAddress(engine_sensor_transfer_CHANNEL, descriptor, dstAddress);
 373:Generated_Source\PSoC4/engine_sensor_transfer.h **** }
 374:Generated_Source\PSoC4/engine_sensor_transfer.h **** 
 375:Generated_Source\PSoC4/engine_sensor_transfer.h **** 
ARM GAS  C:\Users\fneves\AppData\Local\Temp\ccAAmFBx.s 			page 8


 376:Generated_Source\PSoC4/engine_sensor_transfer.h **** /*******************************************************************************
 377:Generated_Source\PSoC4/engine_sensor_transfer.h **** * Function Name: engine_sensor_transfer_GetDstAddress
 378:Generated_Source\PSoC4/engine_sensor_transfer.h **** ********************************************************************************
 379:Generated_Source\PSoC4/engine_sensor_transfer.h **** *
 380:Generated_Source\PSoC4/engine_sensor_transfer.h **** * Summary:
 381:Generated_Source\PSoC4/engine_sensor_transfer.h **** *  Returns the destination address for the specified descriptor, set by either 
 382:Generated_Source\PSoC4/engine_sensor_transfer.h **** *  engine_sensor_transfer_Start() or engine_sensor_transfer_SetDstAddress().
 383:Generated_Source\PSoC4/engine_sensor_transfer.h **** *
 384:Generated_Source\PSoC4/engine_sensor_transfer.h **** * Parameters:
 385:Generated_Source\PSoC4/engine_sensor_transfer.h **** *  descriptor: Specifies descriptor (0 or 1) used by this function.
 386:Generated_Source\PSoC4/engine_sensor_transfer.h **** *                   
 387:Generated_Source\PSoC4/engine_sensor_transfer.h **** * Return:
 388:Generated_Source\PSoC4/engine_sensor_transfer.h **** *  Destination address written to specified descriptor.
 389:Generated_Source\PSoC4/engine_sensor_transfer.h **** *
 390:Generated_Source\PSoC4/engine_sensor_transfer.h **** *******************************************************************************/
 391:Generated_Source\PSoC4/engine_sensor_transfer.h **** static CY_INLINE void * engine_sensor_transfer_GetDstAddress(int32 descriptor)
 392:Generated_Source\PSoC4/engine_sensor_transfer.h **** {
 393:Generated_Source\PSoC4/engine_sensor_transfer.h ****     return (CyDmaGetDstAddress(engine_sensor_transfer_CHANNEL, descriptor));
 394:Generated_Source\PSoC4/engine_sensor_transfer.h **** }
 395:Generated_Source\PSoC4/engine_sensor_transfer.h **** 
 396:Generated_Source\PSoC4/engine_sensor_transfer.h **** 
 397:Generated_Source\PSoC4/engine_sensor_transfer.h **** /*******************************************************************************
 398:Generated_Source\PSoC4/engine_sensor_transfer.h **** * Function Name: engine_sensor_transfer_SetDataElementSize
 399:Generated_Source\PSoC4/engine_sensor_transfer.h **** ********************************************************************************
 400:Generated_Source\PSoC4/engine_sensor_transfer.h **** *
 401:Generated_Source\PSoC4/engine_sensor_transfer.h **** * Summary:
 402:Generated_Source\PSoC4/engine_sensor_transfer.h **** *  Sets the data element size for the specified descriptor.
 403:Generated_Source\PSoC4/engine_sensor_transfer.h **** *
 404:Generated_Source\PSoC4/engine_sensor_transfer.h **** * Parameters:
 405:Generated_Source\PSoC4/engine_sensor_transfer.h **** *  descriptor:      Descriptor (0 or 1) modified by this function.
 406:Generated_Source\PSoC4/engine_sensor_transfer.h **** *  dataElementSize: Specifies the size of the data element. The DMA transfer
 407:Generated_Source\PSoC4/engine_sensor_transfer.h **** *                   engine transfers one data element at a time. How these
 408:Generated_Source\PSoC4/engine_sensor_transfer.h **** *                   transfers occur is controlled by the transfer mode.
 409:Generated_Source\PSoC4/engine_sensor_transfer.h **** *                   Refer to the API bit field definitions in CyDMA_P4.h or API
 410:Generated_Source\PSoC4/engine_sensor_transfer.h **** *                   description in the DMA channel datasheet for the parameter
 411:Generated_Source\PSoC4/engine_sensor_transfer.h **** *                   options.
 412:Generated_Source\PSoC4/engine_sensor_transfer.h **** *
 413:Generated_Source\PSoC4/engine_sensor_transfer.h **** * Return:
 414:Generated_Source\PSoC4/engine_sensor_transfer.h **** *  None.
 415:Generated_Source\PSoC4/engine_sensor_transfer.h **** *
 416:Generated_Source\PSoC4/engine_sensor_transfer.h **** * Side effect:
 417:Generated_Source\PSoC4/engine_sensor_transfer.h **** *  This function should not be called when the specified descriptor is active
 418:Generated_Source\PSoC4/engine_sensor_transfer.h **** *  in the DMA transfer engine. This can be checked by calling CyDmaGetStatus(). 
 419:Generated_Source\PSoC4/engine_sensor_transfer.h **** *
 420:Generated_Source\PSoC4/engine_sensor_transfer.h **** *******************************************************************************/
 421:Generated_Source\PSoC4/engine_sensor_transfer.h **** static CY_INLINE void engine_sensor_transfer_SetDataElementSize(int32 descriptor, uint32 dataElemen
 422:Generated_Source\PSoC4/engine_sensor_transfer.h **** {
 423:Generated_Source\PSoC4/engine_sensor_transfer.h ****     CyDmaSetDataElementSize(engine_sensor_transfer_CHANNEL, descriptor, dataElementSize);
 424:Generated_Source\PSoC4/engine_sensor_transfer.h **** }
 425:Generated_Source\PSoC4/engine_sensor_transfer.h **** 
 426:Generated_Source\PSoC4/engine_sensor_transfer.h **** 
 427:Generated_Source\PSoC4/engine_sensor_transfer.h **** /*******************************************************************************
 428:Generated_Source\PSoC4/engine_sensor_transfer.h **** * Function Name: engine_sensor_transfer_GetDataElementSize
 429:Generated_Source\PSoC4/engine_sensor_transfer.h **** ********************************************************************************
 430:Generated_Source\PSoC4/engine_sensor_transfer.h **** *
 431:Generated_Source\PSoC4/engine_sensor_transfer.h **** * Summary:
 432:Generated_Source\PSoC4/engine_sensor_transfer.h **** *  Returns the data element size configured for the specified descriptor, set by
ARM GAS  C:\Users\fneves\AppData\Local\Temp\ccAAmFBx.s 			page 9


 433:Generated_Source\PSoC4/engine_sensor_transfer.h **** *  engine_sensor_transfer_SetDataElementSize() or engine_sensor_transfer_SetConfiguration().
 434:Generated_Source\PSoC4/engine_sensor_transfer.h **** *
 435:Generated_Source\PSoC4/engine_sensor_transfer.h **** * Parameters:
 436:Generated_Source\PSoC4/engine_sensor_transfer.h **** *  descriptor: Descriptor (0 or 1) modified by this function.
 437:Generated_Source\PSoC4/engine_sensor_transfer.h **** *                   
 438:Generated_Source\PSoC4/engine_sensor_transfer.h **** * Return:
 439:Generated_Source\PSoC4/engine_sensor_transfer.h **** *  The size of the data element. The DMA transfer engine transfers one data
 440:Generated_Source\PSoC4/engine_sensor_transfer.h **** *  element at a time. How these transfers occur is controlled by the transfer
 441:Generated_Source\PSoC4/engine_sensor_transfer.h **** *  mode. Refer to the API bit field definitions in CyDMA_P4.h or the API 
 442:Generated_Source\PSoC4/engine_sensor_transfer.h **** *  description in the DMA channel datasheet for more information.
 443:Generated_Source\PSoC4/engine_sensor_transfer.h **** *
 444:Generated_Source\PSoC4/engine_sensor_transfer.h **** * Note:
 445:Generated_Source\PSoC4/engine_sensor_transfer.h **** *  The size of the source and destination can be configured to use the
 446:Generated_Source\PSoC4/engine_sensor_transfer.h **** *  data element size, or a Word, this is set in engine_sensor_transfer_SetSrcDstTransferWidth().
 447:Generated_Source\PSoC4/engine_sensor_transfer.h **** *
 448:Generated_Source\PSoC4/engine_sensor_transfer.h **** *******************************************************************************/
 449:Generated_Source\PSoC4/engine_sensor_transfer.h **** static CY_INLINE uint32 engine_sensor_transfer_GetDataElementSize(int32 descriptor)
 450:Generated_Source\PSoC4/engine_sensor_transfer.h **** {
 451:Generated_Source\PSoC4/engine_sensor_transfer.h ****     return (CyDmaGetDataElementSize(engine_sensor_transfer_CHANNEL, descriptor));
 452:Generated_Source\PSoC4/engine_sensor_transfer.h **** }
 453:Generated_Source\PSoC4/engine_sensor_transfer.h **** 
 454:Generated_Source\PSoC4/engine_sensor_transfer.h **** 
 455:Generated_Source\PSoC4/engine_sensor_transfer.h **** /*******************************************************************************
 456:Generated_Source\PSoC4/engine_sensor_transfer.h **** * Function Name: engine_sensor_transfer_SetNumDataElements
 457:Generated_Source\PSoC4/engine_sensor_transfer.h **** ********************************************************************************
 458:Generated_Source\PSoC4/engine_sensor_transfer.h **** *
 459:Generated_Source\PSoC4/engine_sensor_transfer.h **** * Summary:
 460:Generated_Source\PSoC4/engine_sensor_transfer.h **** *  Sets the number of data elements to transfer for specified descriptor.
 461:Generated_Source\PSoC4/engine_sensor_transfer.h **** *
 462:Generated_Source\PSoC4/engine_sensor_transfer.h **** * Parameters:
 463:Generated_Source\PSoC4/engine_sensor_transfer.h **** *  descriptor:      Descriptor (0 or 1) modified by this function.
 464:Generated_Source\PSoC4/engine_sensor_transfer.h **** *  numDataElements: Total number of data elements this descriptor transfers.
 465:Generated_Source\PSoC4/engine_sensor_transfer.h **** *                   Valid ranges are 1 to 65536.
 466:Generated_Source\PSoC4/engine_sensor_transfer.h **** *                   
 467:Generated_Source\PSoC4/engine_sensor_transfer.h **** * Return:
 468:Generated_Source\PSoC4/engine_sensor_transfer.h **** *  None.
 469:Generated_Source\PSoC4/engine_sensor_transfer.h **** *
 470:Generated_Source\PSoC4/engine_sensor_transfer.h **** * Side effect:
 471:Generated_Source\PSoC4/engine_sensor_transfer.h **** *  This function should not be called when the specified descriptor is active
 472:Generated_Source\PSoC4/engine_sensor_transfer.h **** *  in the DMA transfer engine. This can be checked by calling CyDmaGetStatus(). 
 473:Generated_Source\PSoC4/engine_sensor_transfer.h **** *
 474:Generated_Source\PSoC4/engine_sensor_transfer.h **** *******************************************************************************/
 475:Generated_Source\PSoC4/engine_sensor_transfer.h **** static CY_INLINE void engine_sensor_transfer_SetNumDataElements(int32 descriptor, int32 numDataElem
 476:Generated_Source\PSoC4/engine_sensor_transfer.h **** {
 477:Generated_Source\PSoC4/engine_sensor_transfer.h ****     CyDmaSetNumDataElements(engine_sensor_transfer_CHANNEL, descriptor, numDataElements);
 478:Generated_Source\PSoC4/engine_sensor_transfer.h **** }
 479:Generated_Source\PSoC4/engine_sensor_transfer.h **** 
 480:Generated_Source\PSoC4/engine_sensor_transfer.h **** 
 481:Generated_Source\PSoC4/engine_sensor_transfer.h **** /*******************************************************************************
 482:Generated_Source\PSoC4/engine_sensor_transfer.h **** * Function Name: engine_sensor_transfer_GetNumDataElements
 483:Generated_Source\PSoC4/engine_sensor_transfer.h **** ********************************************************************************
 484:Generated_Source\PSoC4/engine_sensor_transfer.h **** *
 485:Generated_Source\PSoC4/engine_sensor_transfer.h **** * Summary:
 486:Generated_Source\PSoC4/engine_sensor_transfer.h **** *  Returns the number of data elements to be transferred. Only reflects the
 487:Generated_Source\PSoC4/engine_sensor_transfer.h **** *  value written by engine_sensor_transfer_SetNumDataElements() or engine_sensor_transfer_SetConfig
 488:Generated_Source\PSoC4/engine_sensor_transfer.h **** *  This does not reflect how many elements have been transferred. For that
 489:Generated_Source\PSoC4/engine_sensor_transfer.h **** *  information use the engine_sensor_transfer_GetDescriptorStatus() function.
ARM GAS  C:\Users\fneves\AppData\Local\Temp\ccAAmFBx.s 			page 10


 490:Generated_Source\PSoC4/engine_sensor_transfer.h **** *
 491:Generated_Source\PSoC4/engine_sensor_transfer.h **** * Parameters:
 492:Generated_Source\PSoC4/engine_sensor_transfer.h **** *  descriptor: Descriptor (0 or 1) modified by this function.
 493:Generated_Source\PSoC4/engine_sensor_transfer.h **** *                   
 494:Generated_Source\PSoC4/engine_sensor_transfer.h **** * Return:
 495:Generated_Source\PSoC4/engine_sensor_transfer.h **** *  Number of data elements to transfer.
 496:Generated_Source\PSoC4/engine_sensor_transfer.h **** *
 497:Generated_Source\PSoC4/engine_sensor_transfer.h **** *******************************************************************************/
 498:Generated_Source\PSoC4/engine_sensor_transfer.h **** static CY_INLINE int32 engine_sensor_transfer_GetNumDataElements(int32 descriptor)
 499:Generated_Source\PSoC4/engine_sensor_transfer.h **** {
 500:Generated_Source\PSoC4/engine_sensor_transfer.h ****     return (CyDmaGetNumDataElements(engine_sensor_transfer_CHANNEL, descriptor));
 501:Generated_Source\PSoC4/engine_sensor_transfer.h **** }
 502:Generated_Source\PSoC4/engine_sensor_transfer.h **** 
 503:Generated_Source\PSoC4/engine_sensor_transfer.h **** 
 504:Generated_Source\PSoC4/engine_sensor_transfer.h **** /*******************************************************************************
 505:Generated_Source\PSoC4/engine_sensor_transfer.h **** * Function Name: engine_sensor_transfer_SetSrcDstTransferWidth
 506:Generated_Source\PSoC4/engine_sensor_transfer.h **** ********************************************************************************
 507:Generated_Source\PSoC4/engine_sensor_transfer.h **** *
 508:Generated_Source\PSoC4/engine_sensor_transfer.h **** * Summary:
 509:Generated_Source\PSoC4/engine_sensor_transfer.h **** *  Sets the width of the source and destination. The DMA can either read and
 510:Generated_Source\PSoC4/engine_sensor_transfer.h **** *  write data from the source and destination at the size specified by
 511:Generated_Source\PSoC4/engine_sensor_transfer.h **** *  engine_sensor_transfer_SetDataElementSize() or by a word (4bytes). This also determines how
 512:Generated_Source\PSoC4/engine_sensor_transfer.h **** *  many bytes the addresses are incremented if increment source and destination
 513:Generated_Source\PSoC4/engine_sensor_transfer.h **** *  address are turned on.
 514:Generated_Source\PSoC4/engine_sensor_transfer.h **** *
 515:Generated_Source\PSoC4/engine_sensor_transfer.h **** * Parameters:
 516:Generated_Source\PSoC4/engine_sensor_transfer.h **** *  descriptor:    Descriptor (0 or 1) modified by this function.
 517:Generated_Source\PSoC4/engine_sensor_transfer.h **** *  transferWidth: Specifies the source and destination widths. Refer to the API
 518:Generated_Source\PSoC4/engine_sensor_transfer.h **** *                 bit field definitions in CyDMA_P4.h or the API description in
 519:Generated_Source\PSoC4/engine_sensor_transfer.h **** *                 the DMA channel datasheet for the parameter options.
 520:Generated_Source\PSoC4/engine_sensor_transfer.h **** *                   
 521:Generated_Source\PSoC4/engine_sensor_transfer.h **** * Return:
 522:Generated_Source\PSoC4/engine_sensor_transfer.h **** *  None.
 523:Generated_Source\PSoC4/engine_sensor_transfer.h **** *
 524:Generated_Source\PSoC4/engine_sensor_transfer.h **** * Side effect:
 525:Generated_Source\PSoC4/engine_sensor_transfer.h **** *  This function should not be called when the specified descriptor is active
 526:Generated_Source\PSoC4/engine_sensor_transfer.h **** *  in the DMA transfer engine. This can be checked by calling CyDmaGetStatus(). 
 527:Generated_Source\PSoC4/engine_sensor_transfer.h **** *
 528:Generated_Source\PSoC4/engine_sensor_transfer.h **** *******************************************************************************/
 529:Generated_Source\PSoC4/engine_sensor_transfer.h **** static CY_INLINE void engine_sensor_transfer_SetSrcDstTransferWidth(int32 descriptor, uint32 transf
 530:Generated_Source\PSoC4/engine_sensor_transfer.h **** {
 531:Generated_Source\PSoC4/engine_sensor_transfer.h ****     CyDmaSetSrcDstTransferWidth(engine_sensor_transfer_CHANNEL, descriptor, transferWidth);
 532:Generated_Source\PSoC4/engine_sensor_transfer.h **** }
 533:Generated_Source\PSoC4/engine_sensor_transfer.h **** 
 534:Generated_Source\PSoC4/engine_sensor_transfer.h **** 
 535:Generated_Source\PSoC4/engine_sensor_transfer.h **** /*******************************************************************************
 536:Generated_Source\PSoC4/engine_sensor_transfer.h **** * Function Name: engine_sensor_transfer_GetSrcDstTransferWidth
 537:Generated_Source\PSoC4/engine_sensor_transfer.h **** ********************************************************************************
 538:Generated_Source\PSoC4/engine_sensor_transfer.h **** *
 539:Generated_Source\PSoC4/engine_sensor_transfer.h **** * Summary:
 540:Generated_Source\PSoC4/engine_sensor_transfer.h **** *  Returns the width of the source and destination, as set by 
 541:Generated_Source\PSoC4/engine_sensor_transfer.h **** *  engine_sensor_transfer_SetSrcDstTransferWidth() or engine_sensor_transfer_SetConfiguration().
 542:Generated_Source\PSoC4/engine_sensor_transfer.h **** *
 543:Generated_Source\PSoC4/engine_sensor_transfer.h **** * Parameters:
 544:Generated_Source\PSoC4/engine_sensor_transfer.h **** *  descriptor: Descriptor (0 or 1) modified by this function.
 545:Generated_Source\PSoC4/engine_sensor_transfer.h **** *                   
 546:Generated_Source\PSoC4/engine_sensor_transfer.h **** * Return:
ARM GAS  C:\Users\fneves\AppData\Local\Temp\ccAAmFBx.s 			page 11


 547:Generated_Source\PSoC4/engine_sensor_transfer.h **** *  Width of source and destination. Refer to the API bit field definitions in
 548:Generated_Source\PSoC4/engine_sensor_transfer.h **** *  CyDMA_P4.h or the API description in the DMA channel datasheet for more
 549:Generated_Source\PSoC4/engine_sensor_transfer.h **** *  information.
 550:Generated_Source\PSoC4/engine_sensor_transfer.h **** *
 551:Generated_Source\PSoC4/engine_sensor_transfer.h **** *******************************************************************************/
 552:Generated_Source\PSoC4/engine_sensor_transfer.h **** static CY_INLINE uint32 engine_sensor_transfer_GetSrcDstTransferWidth(int32 descriptor)
 553:Generated_Source\PSoC4/engine_sensor_transfer.h **** {
 554:Generated_Source\PSoC4/engine_sensor_transfer.h ****     return (CyDmaGetSrcDstTransferWidth(engine_sensor_transfer_CHANNEL, descriptor));
 555:Generated_Source\PSoC4/engine_sensor_transfer.h **** }
 556:Generated_Source\PSoC4/engine_sensor_transfer.h **** 
 557:Generated_Source\PSoC4/engine_sensor_transfer.h **** 
 558:Generated_Source\PSoC4/engine_sensor_transfer.h **** /*******************************************************************************
 559:Generated_Source\PSoC4/engine_sensor_transfer.h **** * Function Name: engine_sensor_transfer_SetAddressIncrement
 560:Generated_Source\PSoC4/engine_sensor_transfer.h **** ********************************************************************************
 561:Generated_Source\PSoC4/engine_sensor_transfer.h **** *
 562:Generated_Source\PSoC4/engine_sensor_transfer.h **** * Summary:
 563:Generated_Source\PSoC4/engine_sensor_transfer.h **** *  Sets whether the source or destination addresses are incremented after the
 564:Generated_Source\PSoC4/engine_sensor_transfer.h **** *  transfer of each data element. The amount that the source and destination
 565:Generated_Source\PSoC4/engine_sensor_transfer.h **** *  address are incremented is determined by the engine_sensor_transfer_SetSrcDstTransferWidth()
 566:Generated_Source\PSoC4/engine_sensor_transfer.h **** *  function. The addresses will either be incremented by the data element size
 567:Generated_Source\PSoC4/engine_sensor_transfer.h **** *  or by a word (4 bytes).
 568:Generated_Source\PSoC4/engine_sensor_transfer.h **** *
 569:Generated_Source\PSoC4/engine_sensor_transfer.h **** * Parameters:
 570:Generated_Source\PSoC4/engine_sensor_transfer.h **** *  descriptor:       Descriptor (0 or 1) modified by this function.
 571:Generated_Source\PSoC4/engine_sensor_transfer.h **** *  addressIncrement: Address increment settings. Refer to the API bit field
 572:Generated_Source\PSoC4/engine_sensor_transfer.h **** *                    definitions in CyDMA_P4.h or the API description in the DMA
 573:Generated_Source\PSoC4/engine_sensor_transfer.h **** *                    channel datasheet for the parameter options.
 574:Generated_Source\PSoC4/engine_sensor_transfer.h **** *    
 575:Generated_Source\PSoC4/engine_sensor_transfer.h **** * Return:
 576:Generated_Source\PSoC4/engine_sensor_transfer.h **** *  None.
 577:Generated_Source\PSoC4/engine_sensor_transfer.h **** *
 578:Generated_Source\PSoC4/engine_sensor_transfer.h **** * Side effect:
 579:Generated_Source\PSoC4/engine_sensor_transfer.h **** *  This function should not be called when the specified descriptor is active
 580:Generated_Source\PSoC4/engine_sensor_transfer.h **** *  in the DMA transfer engine. This can be checked by calling CyDmaGetStatus(). 
 581:Generated_Source\PSoC4/engine_sensor_transfer.h **** *
 582:Generated_Source\PSoC4/engine_sensor_transfer.h **** *******************************************************************************/
 583:Generated_Source\PSoC4/engine_sensor_transfer.h **** static CY_INLINE void engine_sensor_transfer_SetAddressIncrement(int32 descriptor, uint32 addressIn
 584:Generated_Source\PSoC4/engine_sensor_transfer.h **** {
 585:Generated_Source\PSoC4/engine_sensor_transfer.h ****     CyDmaSetAddressIncrement(engine_sensor_transfer_CHANNEL, descriptor, addressIncrement);
 586:Generated_Source\PSoC4/engine_sensor_transfer.h **** }
 587:Generated_Source\PSoC4/engine_sensor_transfer.h **** 
 588:Generated_Source\PSoC4/engine_sensor_transfer.h **** 
 589:Generated_Source\PSoC4/engine_sensor_transfer.h **** /*******************************************************************************
 590:Generated_Source\PSoC4/engine_sensor_transfer.h **** * Function Name: engine_sensor_transfer_GetAddressIncrement
 591:Generated_Source\PSoC4/engine_sensor_transfer.h **** ********************************************************************************
 592:Generated_Source\PSoC4/engine_sensor_transfer.h **** *
 593:Generated_Source\PSoC4/engine_sensor_transfer.h **** * Summary:
 594:Generated_Source\PSoC4/engine_sensor_transfer.h **** *  Returns address increment settings as set by engine_sensor_transfer_SetAddressIncrement()
 595:Generated_Source\PSoC4/engine_sensor_transfer.h **** *  or engine_sensor_transfer_SetConfiguration().
 596:Generated_Source\PSoC4/engine_sensor_transfer.h **** *
 597:Generated_Source\PSoC4/engine_sensor_transfer.h **** * Parameters:
 598:Generated_Source\PSoC4/engine_sensor_transfer.h **** *  descriptor: Descriptor (0 or 1) modified by this function.
 599:Generated_Source\PSoC4/engine_sensor_transfer.h **** *                   
 600:Generated_Source\PSoC4/engine_sensor_transfer.h **** * Return:
 601:Generated_Source\PSoC4/engine_sensor_transfer.h **** *  Address increment settings. Refer to the API bit field definitions in
 602:Generated_Source\PSoC4/engine_sensor_transfer.h **** *  CyDMA_P4.h or the API description in the DMA channel datasheet for more
 603:Generated_Source\PSoC4/engine_sensor_transfer.h **** *  information.
ARM GAS  C:\Users\fneves\AppData\Local\Temp\ccAAmFBx.s 			page 12


 604:Generated_Source\PSoC4/engine_sensor_transfer.h **** *
 605:Generated_Source\PSoC4/engine_sensor_transfer.h **** *******************************************************************************/
 606:Generated_Source\PSoC4/engine_sensor_transfer.h **** static CY_INLINE uint32 engine_sensor_transfer_GetAddressIncrement(int32 descriptor)
 607:Generated_Source\PSoC4/engine_sensor_transfer.h **** {
 608:Generated_Source\PSoC4/engine_sensor_transfer.h ****     return (CyDmaGetAddressIncrement(engine_sensor_transfer_CHANNEL, descriptor));
 609:Generated_Source\PSoC4/engine_sensor_transfer.h **** }
 610:Generated_Source\PSoC4/engine_sensor_transfer.h **** 
 611:Generated_Source\PSoC4/engine_sensor_transfer.h **** 
 612:Generated_Source\PSoC4/engine_sensor_transfer.h **** /*******************************************************************************
 613:Generated_Source\PSoC4/engine_sensor_transfer.h **** * Function Name: engine_sensor_transfer_SetTriggerType
 614:Generated_Source\PSoC4/engine_sensor_transfer.h **** ********************************************************************************
 615:Generated_Source\PSoC4/engine_sensor_transfer.h **** *
 616:Generated_Source\PSoC4/engine_sensor_transfer.h **** * Summary:
 617:Generated_Source\PSoC4/engine_sensor_transfer.h **** *  Sets the type of input trigger for the DMA For level sensitive triggers sets
 618:Generated_Source\PSoC4/engine_sensor_transfer.h **** *  how long the DMA waits for the trigger to go low (deactivate) before
 619:Generated_Source\PSoC4/engine_sensor_transfer.h **** *  triggering the channel again.
 620:Generated_Source\PSoC4/engine_sensor_transfer.h **** *
 621:Generated_Source\PSoC4/engine_sensor_transfer.h **** * Parameters:
 622:Generated_Source\PSoC4/engine_sensor_transfer.h **** *  descriptor:  Descriptor (0 or 1) modified by this function.
 623:Generated_Source\PSoC4/engine_sensor_transfer.h **** *  triggerType: Type of DMA trigger. Refer to the API bit field definitions in
 624:Generated_Source\PSoC4/engine_sensor_transfer.h **** *               CyDMA_P4.h or the API description in the DMA channel datasheet
 625:Generated_Source\PSoC4/engine_sensor_transfer.h **** *               for the parameter options.
 626:Generated_Source\PSoC4/engine_sensor_transfer.h **** *                   
 627:Generated_Source\PSoC4/engine_sensor_transfer.h **** * Return:
 628:Generated_Source\PSoC4/engine_sensor_transfer.h **** *  None.
 629:Generated_Source\PSoC4/engine_sensor_transfer.h **** *
 630:Generated_Source\PSoC4/engine_sensor_transfer.h **** * Side effect:
 631:Generated_Source\PSoC4/engine_sensor_transfer.h **** *  This function should not be called when the specified descriptor is active
 632:Generated_Source\PSoC4/engine_sensor_transfer.h **** *  in the DMA transfer engine. This can be checked by calling CyDmaGetStatus(). 
 633:Generated_Source\PSoC4/engine_sensor_transfer.h **** *
 634:Generated_Source\PSoC4/engine_sensor_transfer.h **** *******************************************************************************/
 635:Generated_Source\PSoC4/engine_sensor_transfer.h **** static CY_INLINE void engine_sensor_transfer_SetTriggerType(int32 descriptor, uint32 triggerType)
 636:Generated_Source\PSoC4/engine_sensor_transfer.h **** {
 637:Generated_Source\PSoC4/engine_sensor_transfer.h ****     CyDmaSetTriggerType(engine_sensor_transfer_CHANNEL, descriptor, triggerType);
 638:Generated_Source\PSoC4/engine_sensor_transfer.h **** }
 639:Generated_Source\PSoC4/engine_sensor_transfer.h **** 
 640:Generated_Source\PSoC4/engine_sensor_transfer.h **** 
 641:Generated_Source\PSoC4/engine_sensor_transfer.h **** /*******************************************************************************
 642:Generated_Source\PSoC4/engine_sensor_transfer.h **** * Function Name: engine_sensor_transfer_GetTriggerType
 643:Generated_Source\PSoC4/engine_sensor_transfer.h **** ********************************************************************************
 644:Generated_Source\PSoC4/engine_sensor_transfer.h **** *
 645:Generated_Source\PSoC4/engine_sensor_transfer.h **** * Summary:
 646:Generated_Source\PSoC4/engine_sensor_transfer.h **** *  Returns the trigger deactivation settings as set by engine_sensor_transfer_SetTriggerType()
 647:Generated_Source\PSoC4/engine_sensor_transfer.h **** *  or engine_sensor_transfer_SetConfiguration().
 648:Generated_Source\PSoC4/engine_sensor_transfer.h **** *
 649:Generated_Source\PSoC4/engine_sensor_transfer.h **** * Parameters:
 650:Generated_Source\PSoC4/engine_sensor_transfer.h **** *  descriptor: Descriptor (0 or 1) modified by this function.
 651:Generated_Source\PSoC4/engine_sensor_transfer.h **** *                   
 652:Generated_Source\PSoC4/engine_sensor_transfer.h **** * Return:
 653:Generated_Source\PSoC4/engine_sensor_transfer.h **** *  Trigger deactivation settings. Refer to the API bit field definitions in
 654:Generated_Source\PSoC4/engine_sensor_transfer.h **** *  CyDMA_P4.h or the API description in the DMA channel datasheet for more
 655:Generated_Source\PSoC4/engine_sensor_transfer.h **** *  information.
 656:Generated_Source\PSoC4/engine_sensor_transfer.h **** *
 657:Generated_Source\PSoC4/engine_sensor_transfer.h **** *******************************************************************************/
 658:Generated_Source\PSoC4/engine_sensor_transfer.h **** static CY_INLINE uint32 engine_sensor_transfer_GetTriggerType(int32 descriptor)
 659:Generated_Source\PSoC4/engine_sensor_transfer.h **** {
 660:Generated_Source\PSoC4/engine_sensor_transfer.h ****     return (CyDmaGetTriggerType(engine_sensor_transfer_CHANNEL, descriptor));
ARM GAS  C:\Users\fneves\AppData\Local\Temp\ccAAmFBx.s 			page 13


 661:Generated_Source\PSoC4/engine_sensor_transfer.h **** }
 662:Generated_Source\PSoC4/engine_sensor_transfer.h **** 
 663:Generated_Source\PSoC4/engine_sensor_transfer.h **** 
 664:Generated_Source\PSoC4/engine_sensor_transfer.h **** /*******************************************************************************
 665:Generated_Source\PSoC4/engine_sensor_transfer.h **** * Function Name: engine_sensor_transfer_SetTransferMode
 666:Generated_Source\PSoC4/engine_sensor_transfer.h **** ********************************************************************************
 667:Generated_Source\PSoC4/engine_sensor_transfer.h **** *
 668:Generated_Source\PSoC4/engine_sensor_transfer.h **** * Summary:
 669:Generated_Source\PSoC4/engine_sensor_transfer.h **** *  Sets the DMA transfer mode. This determines how the DMA reacts to each trigger
 670:Generated_Source\PSoC4/engine_sensor_transfer.h **** *  event.
 671:Generated_Source\PSoC4/engine_sensor_transfer.h **** *
 672:Generated_Source\PSoC4/engine_sensor_transfer.h **** * Parameters:
 673:Generated_Source\PSoC4/engine_sensor_transfer.h **** *  descriptor:   Descriptor (0 or 1) modified by this function.
 674:Generated_Source\PSoC4/engine_sensor_transfer.h **** *  transferMode: Specifies the DMA transfer mode settings. Refer to the API bit
 675:Generated_Source\PSoC4/engine_sensor_transfer.h **** *                field definitions in CyDMA_P4.h or the API description in the
 676:Generated_Source\PSoC4/engine_sensor_transfer.h **** *                DMA channel datasheet for the parameter options.
 677:Generated_Source\PSoC4/engine_sensor_transfer.h **** *                   
 678:Generated_Source\PSoC4/engine_sensor_transfer.h **** * Return:
 679:Generated_Source\PSoC4/engine_sensor_transfer.h **** *  None.
 680:Generated_Source\PSoC4/engine_sensor_transfer.h **** *
 681:Generated_Source\PSoC4/engine_sensor_transfer.h **** * Side effect:
 682:Generated_Source\PSoC4/engine_sensor_transfer.h **** *  This function should not be called when the specified descriptor is active
 683:Generated_Source\PSoC4/engine_sensor_transfer.h **** *  in the DMA transfer engine. This can be checked by calling CyDmaGetStatus(). 
 684:Generated_Source\PSoC4/engine_sensor_transfer.h **** *
 685:Generated_Source\PSoC4/engine_sensor_transfer.h **** *******************************************************************************/
 686:Generated_Source\PSoC4/engine_sensor_transfer.h **** static CY_INLINE void engine_sensor_transfer_SetTransferMode(int32 descriptor, uint32 transferMode)
 687:Generated_Source\PSoC4/engine_sensor_transfer.h **** {
 688:Generated_Source\PSoC4/engine_sensor_transfer.h ****     CyDmaSetTransferMode(engine_sensor_transfer_CHANNEL, descriptor, transferMode);
 689:Generated_Source\PSoC4/engine_sensor_transfer.h **** }
 690:Generated_Source\PSoC4/engine_sensor_transfer.h **** 
 691:Generated_Source\PSoC4/engine_sensor_transfer.h **** 
 692:Generated_Source\PSoC4/engine_sensor_transfer.h **** /*******************************************************************************
 693:Generated_Source\PSoC4/engine_sensor_transfer.h **** * Function Name: engine_sensor_transfer_GetTransferMode
 694:Generated_Source\PSoC4/engine_sensor_transfer.h **** ********************************************************************************
 695:Generated_Source\PSoC4/engine_sensor_transfer.h **** *
 696:Generated_Source\PSoC4/engine_sensor_transfer.h **** * Summary:
 697:Generated_Source\PSoC4/engine_sensor_transfer.h **** *  Returns the transfer mode for the specified descriptor as set by 
 698:Generated_Source\PSoC4/engine_sensor_transfer.h **** *  engine_sensor_transfer_SetTransferMode() or engine_sensor_transfer_SetConfiguration().
 699:Generated_Source\PSoC4/engine_sensor_transfer.h **** *
 700:Generated_Source\PSoC4/engine_sensor_transfer.h **** * Parameters:
 701:Generated_Source\PSoC4/engine_sensor_transfer.h **** *  descriptor: Descriptor (0 or 1) modified by this function.
 702:Generated_Source\PSoC4/engine_sensor_transfer.h **** *                   
 703:Generated_Source\PSoC4/engine_sensor_transfer.h **** * Return:
 704:Generated_Source\PSoC4/engine_sensor_transfer.h **** *  DMA transfer mode settings. Refer to the API bit field definitions in
 705:Generated_Source\PSoC4/engine_sensor_transfer.h **** *  CyDMA_P4.h or the API description in the DMA channel datasheet for more
 706:Generated_Source\PSoC4/engine_sensor_transfer.h **** *  information.
 707:Generated_Source\PSoC4/engine_sensor_transfer.h **** *
 708:Generated_Source\PSoC4/engine_sensor_transfer.h **** *******************************************************************************/
 709:Generated_Source\PSoC4/engine_sensor_transfer.h **** static CY_INLINE uint32 engine_sensor_transfer_GetTransferMode(int32 descriptor)
 710:Generated_Source\PSoC4/engine_sensor_transfer.h **** {
 711:Generated_Source\PSoC4/engine_sensor_transfer.h ****     return (CyDmaGetTransferMode(engine_sensor_transfer_CHANNEL, descriptor));
 712:Generated_Source\PSoC4/engine_sensor_transfer.h **** }
 713:Generated_Source\PSoC4/engine_sensor_transfer.h **** 
 714:Generated_Source\PSoC4/engine_sensor_transfer.h **** 
 715:Generated_Source\PSoC4/engine_sensor_transfer.h **** /*******************************************************************************
 716:Generated_Source\PSoC4/engine_sensor_transfer.h **** * Function Name: engine_sensor_transfer_SetPreemptable
 717:Generated_Source\PSoC4/engine_sensor_transfer.h **** ********************************************************************************
ARM GAS  C:\Users\fneves\AppData\Local\Temp\ccAAmFBx.s 			page 14


 718:Generated_Source\PSoC4/engine_sensor_transfer.h **** *
 719:Generated_Source\PSoC4/engine_sensor_transfer.h **** * Summary:
 720:Generated_Source\PSoC4/engine_sensor_transfer.h **** *  Determines if the descriptor is preemptable.
 721:Generated_Source\PSoC4/engine_sensor_transfer.h **** *
 722:Generated_Source\PSoC4/engine_sensor_transfer.h **** * Parameters:
 723:Generated_Source\PSoC4/engine_sensor_transfer.h **** *  descriptor:  Descriptor (0 or 1) modified by this function.
 724:Generated_Source\PSoC4/engine_sensor_transfer.h **** *  preemptable: Descriptor preemption settings. Refer to the API bit field
 725:Generated_Source\PSoC4/engine_sensor_transfer.h **** *               definitions in CyDMA_P4.h or the API description in the DMA 
 726:Generated_Source\PSoC4/engine_sensor_transfer.h **** *               channel datasheet for the parameter options.
 727:Generated_Source\PSoC4/engine_sensor_transfer.h **** *                   
 728:Generated_Source\PSoC4/engine_sensor_transfer.h **** * Return:
 729:Generated_Source\PSoC4/engine_sensor_transfer.h **** *  None.
 730:Generated_Source\PSoC4/engine_sensor_transfer.h **** *
 731:Generated_Source\PSoC4/engine_sensor_transfer.h **** * Side effect:
 732:Generated_Source\PSoC4/engine_sensor_transfer.h **** *  This function should not be called when the specified descriptor is active
 733:Generated_Source\PSoC4/engine_sensor_transfer.h **** *  in the DMA transfer engine. This can be checked by calling CyDmaGetStatus(). 
 734:Generated_Source\PSoC4/engine_sensor_transfer.h **** *
 735:Generated_Source\PSoC4/engine_sensor_transfer.h **** *******************************************************************************/
 736:Generated_Source\PSoC4/engine_sensor_transfer.h **** static CY_INLINE void engine_sensor_transfer_SetPreemptable(int32 descriptor, uint32 preemptable)
 737:Generated_Source\PSoC4/engine_sensor_transfer.h **** {
 738:Generated_Source\PSoC4/engine_sensor_transfer.h ****     CyDmaSetPreemptable(engine_sensor_transfer_CHANNEL, descriptor, preemptable);
 739:Generated_Source\PSoC4/engine_sensor_transfer.h **** }
 740:Generated_Source\PSoC4/engine_sensor_transfer.h **** 
 741:Generated_Source\PSoC4/engine_sensor_transfer.h **** 
 742:Generated_Source\PSoC4/engine_sensor_transfer.h **** /*******************************************************************************
 743:Generated_Source\PSoC4/engine_sensor_transfer.h **** * Function Name: engine_sensor_transfer_GetPreemptable
 744:Generated_Source\PSoC4/engine_sensor_transfer.h **** ********************************************************************************
 745:Generated_Source\PSoC4/engine_sensor_transfer.h **** *
 746:Generated_Source\PSoC4/engine_sensor_transfer.h **** * Summary:
 747:Generated_Source\PSoC4/engine_sensor_transfer.h **** *  Returns whether or not the descriptor is preemptable.
 748:Generated_Source\PSoC4/engine_sensor_transfer.h **** *
 749:Generated_Source\PSoC4/engine_sensor_transfer.h **** * Parameters:
 750:Generated_Source\PSoC4/engine_sensor_transfer.h **** *  descriptor: Descriptor (0 or 1) modified by this function.
 751:Generated_Source\PSoC4/engine_sensor_transfer.h **** *                   
 752:Generated_Source\PSoC4/engine_sensor_transfer.h **** * Return:
 753:Generated_Source\PSoC4/engine_sensor_transfer.h **** *  Descriptor preemption setting. Refer to the API bit field definitions in
 754:Generated_Source\PSoC4/engine_sensor_transfer.h **** *  CyDMA_P4.h or the API description in the DMA channel datasheet for more
 755:Generated_Source\PSoC4/engine_sensor_transfer.h **** *  information.
 756:Generated_Source\PSoC4/engine_sensor_transfer.h **** *
 757:Generated_Source\PSoC4/engine_sensor_transfer.h **** *******************************************************************************/
 758:Generated_Source\PSoC4/engine_sensor_transfer.h **** static CY_INLINE uint32 engine_sensor_transfer_GetPreemptable(int32 descriptor)
 759:Generated_Source\PSoC4/engine_sensor_transfer.h **** {
 760:Generated_Source\PSoC4/engine_sensor_transfer.h ****     return (CyDmaGetPreemptable(engine_sensor_transfer_CHANNEL, descriptor));
 761:Generated_Source\PSoC4/engine_sensor_transfer.h **** }
 762:Generated_Source\PSoC4/engine_sensor_transfer.h **** 
 763:Generated_Source\PSoC4/engine_sensor_transfer.h **** 
 764:Generated_Source\PSoC4/engine_sensor_transfer.h **** /*******************************************************************************
 765:Generated_Source\PSoC4/engine_sensor_transfer.h **** * Function Name: engine_sensor_transfer_SetPostCompletionActions
 766:Generated_Source\PSoC4/engine_sensor_transfer.h **** ********************************************************************************
 767:Generated_Source\PSoC4/engine_sensor_transfer.h **** *
 768:Generated_Source\PSoC4/engine_sensor_transfer.h **** * Summary:
 769:Generated_Source\PSoC4/engine_sensor_transfer.h **** *  Determines what occurs after a descriptor completes.
 770:Generated_Source\PSoC4/engine_sensor_transfer.h **** *
 771:Generated_Source\PSoC4/engine_sensor_transfer.h **** * Parameters:
 772:Generated_Source\PSoC4/engine_sensor_transfer.h **** *  descriptor: Descriptor (0 or 1) modified by this function.
 773:Generated_Source\PSoC4/engine_sensor_transfer.h **** *  actions:    Specifies descriptor post completion actions. Refer to the API
 774:Generated_Source\PSoC4/engine_sensor_transfer.h **** *              bit field definitions in CyDMA_P4.h or the API description in the
ARM GAS  C:\Users\fneves\AppData\Local\Temp\ccAAmFBx.s 			page 15


 775:Generated_Source\PSoC4/engine_sensor_transfer.h **** *              DMA channel datasheet for the parameter options.
 776:Generated_Source\PSoC4/engine_sensor_transfer.h **** *                   
 777:Generated_Source\PSoC4/engine_sensor_transfer.h **** * Return:
 778:Generated_Source\PSoC4/engine_sensor_transfer.h **** *  None.  
 779:Generated_Source\PSoC4/engine_sensor_transfer.h **** *
 780:Generated_Source\PSoC4/engine_sensor_transfer.h **** * Side effect:
 781:Generated_Source\PSoC4/engine_sensor_transfer.h **** *  This function should not be called when the specified descriptor is active
 782:Generated_Source\PSoC4/engine_sensor_transfer.h **** *  in the DMA transfer engine. This can be checked by calling CyDmaGetStatus(). 
 783:Generated_Source\PSoC4/engine_sensor_transfer.h **** *
 784:Generated_Source\PSoC4/engine_sensor_transfer.h **** *******************************************************************************/
 785:Generated_Source\PSoC4/engine_sensor_transfer.h **** static CY_INLINE void engine_sensor_transfer_SetPostCompletionActions(int32 descriptor, uint32 acti
 786:Generated_Source\PSoC4/engine_sensor_transfer.h **** {
 787:Generated_Source\PSoC4/engine_sensor_transfer.h ****     CyDmaSetPostCompletionActions(engine_sensor_transfer_CHANNEL, descriptor, actions);
 788:Generated_Source\PSoC4/engine_sensor_transfer.h **** }
 789:Generated_Source\PSoC4/engine_sensor_transfer.h **** 
 790:Generated_Source\PSoC4/engine_sensor_transfer.h **** 
 791:Generated_Source\PSoC4/engine_sensor_transfer.h **** /*******************************************************************************
 792:Generated_Source\PSoC4/engine_sensor_transfer.h **** * Function Name: engine_sensor_transfer_GetPostCompletionAction
 793:Generated_Source\PSoC4/engine_sensor_transfer.h **** ********************************************************************************
 794:Generated_Source\PSoC4/engine_sensor_transfer.h **** *
 795:Generated_Source\PSoC4/engine_sensor_transfer.h **** * Summary:
 796:Generated_Source\PSoC4/engine_sensor_transfer.h **** *  Returns the post descriptor action settings as set by 
 797:Generated_Source\PSoC4/engine_sensor_transfer.h **** *  engine_sensor_transfer_SetPostCompletionActions() or engine_sensor_transfer_SetConfiguration().
 798:Generated_Source\PSoC4/engine_sensor_transfer.h **** *
 799:Generated_Source\PSoC4/engine_sensor_transfer.h **** * Parameters:
 800:Generated_Source\PSoC4/engine_sensor_transfer.h **** *  descriptor: Descriptor (0 or 1) modified by this function.
 801:Generated_Source\PSoC4/engine_sensor_transfer.h **** *                   
 802:Generated_Source\PSoC4/engine_sensor_transfer.h **** * Return:
 803:Generated_Source\PSoC4/engine_sensor_transfer.h **** *  Post descriptor actions. Refer to the API bit field definitions in CyDMA_P4.h
 804:Generated_Source\PSoC4/engine_sensor_transfer.h **** *  or the API description in the DMA channel datasheet for more information.
 805:Generated_Source\PSoC4/engine_sensor_transfer.h **** *
 806:Generated_Source\PSoC4/engine_sensor_transfer.h **** *******************************************************************************/
 807:Generated_Source\PSoC4/engine_sensor_transfer.h **** static CY_INLINE uint32 engine_sensor_transfer_GetPostCompletionAction(int32 descriptor)
 808:Generated_Source\PSoC4/engine_sensor_transfer.h **** {
 809:Generated_Source\PSoC4/engine_sensor_transfer.h ****     return (CyDmaGetPostCompletionActions(engine_sensor_transfer_CHANNEL, descriptor));
 810:Generated_Source\PSoC4/engine_sensor_transfer.h **** }
 811:Generated_Source\PSoC4/engine_sensor_transfer.h **** 
 812:Generated_Source\PSoC4/engine_sensor_transfer.h **** 
 813:Generated_Source\PSoC4/engine_sensor_transfer.h **** /*******************************************************************************
 814:Generated_Source\PSoC4/engine_sensor_transfer.h **** * Function Name: engine_sensor_transfer_SetInterruptCallback
 815:Generated_Source\PSoC4/engine_sensor_transfer.h **** ********************************************************************************
 816:Generated_Source\PSoC4/engine_sensor_transfer.h **** *
 817:Generated_Source\PSoC4/engine_sensor_transfer.h **** * Summary:
 818:Generated_Source\PSoC4/engine_sensor_transfer.h **** *  Sets a user defined callback function to be called by the DMA interrupt. The
 819:Generated_Source\PSoC4/engine_sensor_transfer.h **** *  function should contain code to process the interrupt request for the 
 820:Generated_Source\PSoC4/engine_sensor_transfer.h **** *  associated DMA channel.
 821:Generated_Source\PSoC4/engine_sensor_transfer.h **** *
 822:Generated_Source\PSoC4/engine_sensor_transfer.h **** * Parameters:
 823:Generated_Source\PSoC4/engine_sensor_transfer.h **** *  callback: Pointer to the user defined callback function.
 824:Generated_Source\PSoC4/engine_sensor_transfer.h **** *
 825:Generated_Source\PSoC4/engine_sensor_transfer.h **** * Return:
 826:Generated_Source\PSoC4/engine_sensor_transfer.h **** *  Pointer to the function previously set for the specified channel. 
 827:Generated_Source\PSoC4/engine_sensor_transfer.h **** *
 828:Generated_Source\PSoC4/engine_sensor_transfer.h **** *******************************************************************************/
 829:Generated_Source\PSoC4/engine_sensor_transfer.h **** static CY_INLINE cydma_callback_t engine_sensor_transfer_SetInterruptCallback(cydma_callback_t call
 830:Generated_Source\PSoC4/engine_sensor_transfer.h **** {
  25              		.loc 1 830 0
ARM GAS  C:\Users\fneves\AppData\Local\Temp\ccAAmFBx.s 			page 16


  26              		.cfi_startproc
  27 0000 80B5     		push	{r7, lr}
  28              		.cfi_def_cfa_offset 8
  29              		.cfi_offset 7, -8
  30              		.cfi_offset 14, -4
  31 0002 82B0     		sub	sp, sp, #8
  32              		.cfi_def_cfa_offset 16
  33 0004 00AF     		add	r7, sp, #0
  34              		.cfi_def_cfa_register 7
  35 0006 7860     		str	r0, [r7, #4]
 831:Generated_Source\PSoC4/engine_sensor_transfer.h ****     return (CyDmaSetInterruptCallback(engine_sensor_transfer_CHANNEL, callback));
  36              		.loc 1 831 0
  37 0008 7B68     		ldr	r3, [r7, #4]
  38 000a 0020     		mov	r0, #0
  39 000c 191C     		mov	r1, r3
  40 000e FFF7FEFF 		bl	CyDmaSetInterruptCallback
  41 0012 031C     		mov	r3, r0
 832:Generated_Source\PSoC4/engine_sensor_transfer.h **** }
  42              		.loc 1 832 0
  43 0014 181C     		mov	r0, r3
  44 0016 BD46     		mov	sp, r7
  45 0018 02B0     		add	sp, sp, #8
  46              		@ sp needed
  47 001a 80BD     		pop	{r7, pc}
  48              		.cfi_endproc
  49              	.LFE31:
  50              		.size	engine_sensor_transfer_SetInterruptCallback, .-engine_sensor_transfer_SetInterruptCallback
  51              		.section	.text.fix_sqrt,"ax",%progbits
  52              		.align	2
  53              		.code	16
  54              		.thumb_func
  55              		.type	fix_sqrt, %function
  56              	fix_sqrt:
  57              	.LFB67:
  58              		.file 2 "fix_sqrt.h"
   1:fix_sqrt.h    **** /**
   2:fix_sqrt.h    ****  *  @brief simple and fast sqrt alghortim (based on Jack Crenshaw method) 
   3:fix_sqrt.h    ****  */
   4:fix_sqrt.h    **** #ifndef __FIX_SQRT_H
   5:fix_sqrt.h    **** #define __FIX_SQRT_H
   6:fix_sqrt.h    **** 
   7:fix_sqrt.h    **** #include <stdint.h>
   8:fix_sqrt.h    **** 
   9:fix_sqrt.h    **** /**
  10:fix_sqrt.h    ****  * @brief calculate fixed point square root using successive approximation method
  11:fix_sqrt.h    ****  */
  12:fix_sqrt.h    **** static inline uint16_t fix_sqrt(uint32_t val)
  13:fix_sqrt.h    **** {
  59              		.loc 2 13 0
  60              		.cfi_startproc
  61 0000 80B5     		push	{r7, lr}
  62              		.cfi_def_cfa_offset 8
  63              		.cfi_offset 7, -8
  64              		.cfi_offset 14, -4
  65 0002 86B0     		sub	sp, sp, #24
  66              		.cfi_def_cfa_offset 32
  67 0004 00AF     		add	r7, sp, #0
ARM GAS  C:\Users\fneves\AppData\Local\Temp\ccAAmFBx.s 			page 17


  68              		.cfi_def_cfa_register 7
  69 0006 7860     		str	r0, [r7, #4]
  14:fix_sqrt.h    ****     uint32_t rem = 0;
  70              		.loc 2 14 0
  71 0008 0023     		mov	r3, #0
  72 000a 7B61     		str	r3, [r7, #20]
  15:fix_sqrt.h    ****     uint32_t root = 0;
  73              		.loc 2 15 0
  74 000c 0023     		mov	r3, #0
  75 000e 3B61     		str	r3, [r7, #16]
  16:fix_sqrt.h    ****     int i;
  17:fix_sqrt.h    ****     for(i = 0; i < 16; i++) {
  76              		.loc 2 17 0
  77 0010 0023     		mov	r3, #0
  78 0012 FB60     		str	r3, [r7, #12]
  79 0014 20E0     		b	.L4
  80              	.L7:
  18:fix_sqrt.h    ****         root <<= 1;
  81              		.loc 2 18 0
  82 0016 3B69     		ldr	r3, [r7, #16]
  83 0018 5B00     		lsl	r3, r3, #1
  84 001a 3B61     		str	r3, [r7, #16]
  19:fix_sqrt.h    ****         rem = ((rem << 2) + (val >> 30));
  85              		.loc 2 19 0
  86 001c 7B69     		ldr	r3, [r7, #20]
  87 001e 9A00     		lsl	r2, r3, #2
  88 0020 7B68     		ldr	r3, [r7, #4]
  89 0022 9B0F     		lsr	r3, r3, #30
  90 0024 D318     		add	r3, r2, r3
  91 0026 7B61     		str	r3, [r7, #20]
  20:fix_sqrt.h    ****         val <<= 2;
  92              		.loc 2 20 0
  93 0028 7B68     		ldr	r3, [r7, #4]
  94 002a 9B00     		lsl	r3, r3, #2
  95 002c 7B60     		str	r3, [r7, #4]
  21:fix_sqrt.h    ****         root++;
  96              		.loc 2 21 0
  97 002e 3B69     		ldr	r3, [r7, #16]
  98 0030 0133     		add	r3, r3, #1
  99 0032 3B61     		str	r3, [r7, #16]
  22:fix_sqrt.h    ****         if(root <= rem) {
 100              		.loc 2 22 0
 101 0034 3A69     		ldr	r2, [r7, #16]
 102 0036 7B69     		ldr	r3, [r7, #20]
 103 0038 9A42     		cmp	r2, r3
 104 003a 07D8     		bhi	.L5
  23:fix_sqrt.h    ****             rem-=root;
 105              		.loc 2 23 0
 106 003c 7A69     		ldr	r2, [r7, #20]
 107 003e 3B69     		ldr	r3, [r7, #16]
 108 0040 D31A     		sub	r3, r2, r3
 109 0042 7B61     		str	r3, [r7, #20]
  24:fix_sqrt.h    ****             root++;
 110              		.loc 2 24 0
 111 0044 3B69     		ldr	r3, [r7, #16]
 112 0046 0133     		add	r3, r3, #1
 113 0048 3B61     		str	r3, [r7, #16]
ARM GAS  C:\Users\fneves\AppData\Local\Temp\ccAAmFBx.s 			page 18


 114 004a 02E0     		b	.L6
 115              	.L5:
  25:fix_sqrt.h    ****         } else {
  26:fix_sqrt.h    ****             root--;
 116              		.loc 2 26 0
 117 004c 3B69     		ldr	r3, [r7, #16]
 118 004e 013B     		sub	r3, r3, #1
 119 0050 3B61     		str	r3, [r7, #16]
 120              	.L6:
  17:fix_sqrt.h    ****         root <<= 1;
 121              		.loc 2 17 0 discriminator 2
 122 0052 FB68     		ldr	r3, [r7, #12]
 123 0054 0133     		add	r3, r3, #1
 124 0056 FB60     		str	r3, [r7, #12]
 125              	.L4:
  17:fix_sqrt.h    ****         root <<= 1;
 126              		.loc 2 17 0 is_stmt 0 discriminator 1
 127 0058 FB68     		ldr	r3, [r7, #12]
 128 005a 0F2B     		cmp	r3, #15
 129 005c DBDD     		ble	.L7
  27:fix_sqrt.h    ****         }
  28:fix_sqrt.h    ****     }
  29:fix_sqrt.h    ****     return((uint16_t) (root >> 1));
 130              		.loc 2 29 0 is_stmt 1
 131 005e 3B69     		ldr	r3, [r7, #16]
 132 0060 5B08     		lsr	r3, r3, #1
 133 0062 9BB2     		uxth	r3, r3
  30:fix_sqrt.h    **** }
 134              		.loc 2 30 0
 135 0064 181C     		mov	r0, r3
 136 0066 BD46     		mov	sp, r7
 137 0068 06B0     		add	sp, sp, #24
 138              		@ sp needed
 139 006a 80BD     		pop	{r7, pc}
 140              		.cfi_endproc
 141              	.LFE67:
 142              		.size	fix_sqrt, .-fix_sqrt
 143              		.bss
 144              		.align	2
 145              	engine_sample_buffer:
 146 0000 00000000 		.space	1024
 146      00000000 
 146      00000000 
 146      00000000 
 146      00000000 
 147              		.align	2
 148              	engine_sample_fft_buffer:
 149 0400 00000000 		.space	1024
 149      00000000 
 149      00000000 
 149      00000000 
 149      00000000 
 150              		.align	2
 151              	engine_buffer_index:
 152 0800 00000000 		.space	4
 153              		.align	2
 154              	engine_current_speed:
ARM GAS  C:\Users\fneves\AppData\Local\Temp\ccAAmFBx.s 			page 19


 155 0804 00000000 		.space	4
 156              		.align	2
 157              	engine_speed_frequency:
 158 0808 00000000 		.space	4
 159              		.align	2
 160              	engine_buffer_available:
 161 080c 00000000 		.space	4
 162              		.section	.text.engine_dma_isr,"ax",%progbits
 163              		.align	2
 164              		.code	16
 165              		.thumb_func
 166              		.type	engine_dma_isr, %function
 167              	engine_dma_isr:
 168              	.LFB68:
 169              		.file 3 "engine_afe.c"
   1:engine_afe.c  **** /**
   2:engine_afe.c  ****  * @brief engine analog front end inteface file
   3:engine_afe.c  ****  */
   4:engine_afe.c  **** #include <project.h>
   5:engine_afe.c  **** #include "event_queue.h"
   6:engine_afe.c  **** #include "engine_afe.h"
   7:engine_afe.c  **** #include "fix_fft.h"
   8:engine_afe.c  **** #include "fix_sqrt.h"
   9:engine_afe.c  **** 
  10:engine_afe.c  **** /** define the samples buffer size [words]*/
  11:engine_afe.c  **** #define ENGINE_SAMPLE_BUFFER_SIZE   256
  12:engine_afe.c  **** /** define the buffer lines avaialble */
  13:engine_afe.c  **** #define ENGINE_SAMPLE_BUFFER_LINES  2
  14:engine_afe.c  **** 
  15:engine_afe.c  **** /** define the fft length */
  16:engine_afe.c  **** #define ENGINE_FFT_LEN              9     
  17:engine_afe.c  **** #define ENGINE_FFT_SIZ              256   
  18:engine_afe.c  **** 
  19:engine_afe.c  **** 
  20:engine_afe.c  **** /** defines the afe sample rate */
  21:engine_afe.c  **** #define ENGINE_SAMPLE_RATE          16000
  22:engine_afe.c  **** #define SCALE_FREQ                  ((ENGINE_SAMPLE_RATE/2)/(ENGINE_FFT_SIZ/2))
  23:engine_afe.c  **** #define ENGINE_IDX_TO_FREQ(x)       (x * SCALE_FREQ)
  24:engine_afe.c  **** #define ENGINE_FREQ_TO_IDX(x)       (x / SCALE_FREQ)
  25:engine_afe.c  **** #define ENGINE_THRESHOLD            20
  26:engine_afe.c  **** 
  27:engine_afe.c  **** #define ENGINE_BASE_FREQ            4000 /* KHz*/
  28:engine_afe.c  **** #define ENGINE_SCALE_FACTOR         10
  29:engine_afe.c  **** 
  30:engine_afe.c  **** /**
  31:engine_afe.c  ****  * static variables 
  32:engine_afe.c  ****  */
  33:engine_afe.c  **** static int16_t engine_sample_buffer[ENGINE_SAMPLE_BUFFER_LINES][ENGINE_SAMPLE_BUFFER_SIZE]={0};
  34:engine_afe.c  **** static int16_t engine_sample_fft_buffer[2 * ENGINE_SAMPLE_BUFFER_SIZE] = {0};
  35:engine_afe.c  **** static int engine_buffer_index = 0;
  36:engine_afe.c  **** static int engine_current_speed = 0;
  37:engine_afe.c  **** static uint32_t engine_speed_frequency = 0;
  38:engine_afe.c  **** static int engine_buffer_available = 0;
  39:engine_afe.c  **** /**
  40:engine_afe.c  ****  * private functions 
  41:engine_afe.c  ****  */
  42:engine_afe.c  **** 
ARM GAS  C:\Users\fneves\AppData\Local\Temp\ccAAmFBx.s 			page 20


  43:engine_afe.c  **** 
  44:engine_afe.c  **** /**
  45:engine_afe.c  ****  * @brief signals the DMA engine completed its task
  46:engine_afe.c  ****  */
  47:engine_afe.c  **** static void engine_dma_isr(void)
  48:engine_afe.c  **** {
 170              		.loc 3 48 0
 171              		.cfi_startproc
 172 0000 80B5     		push	{r7, lr}
 173              		.cfi_def_cfa_offset 8
 174              		.cfi_offset 7, -8
 175              		.cfi_offset 14, -4
 176 0002 00AF     		add	r7, sp, #0
 177              		.cfi_def_cfa_register 7
  49:engine_afe.c  ****     /* halts the sampler */
  50:engine_afe.c  ****     engine_sensor_adc_Stop();
 178              		.loc 3 50 0
 179 0004 FFF7FEFF 		bl	engine_sensor_adc_Stop
  51:engine_afe.c  ****     event_queue_put(KDMA_EVENT);
 180              		.loc 3 51 0
 181 0008 0120     		mov	r0, #1
 182 000a FFF7FEFF 		bl	event_queue_put
  52:engine_afe.c  **** }
 183              		.loc 3 52 0
 184 000e BD46     		mov	sp, r7
 185              		@ sp needed
 186 0010 80BD     		pop	{r7, pc}
 187              		.cfi_endproc
 188              	.LFE68:
 189              		.size	engine_dma_isr, .-engine_dma_isr
 190 0012 C046     		.section	.text.engine_gets_highest_value_idx,"ax",%progbits
 191              		.align	2
 192              		.code	16
 193              		.thumb_func
 194              		.type	engine_gets_highest_value_idx, %function
 195              	engine_gets_highest_value_idx:
 196              	.LFB69:
  53:engine_afe.c  **** 
  54:engine_afe.c  **** /**
  55:engine_afe.c  ****  * @brief gets the idx which has the highest value in buffer 
  56:engine_afe.c  ****  */
  57:engine_afe.c  **** static uint32_t engine_gets_highest_value_idx(int16_t *buf, uint32_t len) 
  58:engine_afe.c  **** {
 197              		.loc 3 58 0
 198              		.cfi_startproc
 199 0000 80B5     		push	{r7, lr}
 200              		.cfi_def_cfa_offset 8
 201              		.cfi_offset 7, -8
 202              		.cfi_offset 14, -4
 203 0002 86B0     		sub	sp, sp, #24
 204              		.cfi_def_cfa_offset 32
 205 0004 00AF     		add	r7, sp, #0
 206              		.cfi_def_cfa_register 7
 207 0006 7860     		str	r0, [r7, #4]
 208 0008 3960     		str	r1, [r7]
  59:engine_afe.c  ****     uint32_t ret = 0;
 209              		.loc 3 59 0
ARM GAS  C:\Users\fneves\AppData\Local\Temp\ccAAmFBx.s 			page 21


 210 000a 0023     		mov	r3, #0
 211 000c 7B61     		str	r3, [r7, #20]
  60:engine_afe.c  ****     uint32_t i = 0;
 212              		.loc 3 60 0
 213 000e 0023     		mov	r3, #0
 214 0010 3B61     		str	r3, [r7, #16]
  61:engine_afe.c  ****     int16_t val = buf[0];
 215              		.loc 3 61 0
 216 0012 0E23     		mov	r3, #14
 217 0014 FB18     		add	r3, r7, r3
 218 0016 7A68     		ldr	r2, [r7, #4]
 219 0018 1288     		ldrh	r2, [r2]
 220 001a 1A80     		strh	r2, [r3]
  62:engine_afe.c  ****     
  63:engine_afe.c  ****     for(i = 0 ; i < len; i++){
 221              		.loc 3 63 0
 222 001c 0023     		mov	r3, #0
 223 001e 3B61     		str	r3, [r7, #16]
 224 0020 18E0     		b	.L11
 225              	.L13:
  64:engine_afe.c  ****         if(val < buf[i]) {
 226              		.loc 3 64 0
 227 0022 3B69     		ldr	r3, [r7, #16]
 228 0024 5B00     		lsl	r3, r3, #1
 229 0026 7A68     		ldr	r2, [r7, #4]
 230 0028 D318     		add	r3, r2, r3
 231 002a 1988     		ldrh	r1, [r3]
 232 002c 0E23     		mov	r3, #14
 233 002e FB18     		add	r3, r7, r3
 234 0030 0022     		mov	r2, #0
 235 0032 9A5E     		ldrsh	r2, [r3, r2]
 236 0034 0BB2     		sxth	r3, r1
 237 0036 9A42     		cmp	r2, r3
 238 0038 09DA     		bge	.L12
  65:engine_afe.c  ****             val = buf[i];
 239              		.loc 3 65 0
 240 003a 3B69     		ldr	r3, [r7, #16]
 241 003c 5B00     		lsl	r3, r3, #1
 242 003e 7A68     		ldr	r2, [r7, #4]
 243 0040 D218     		add	r2, r2, r3
 244 0042 0E23     		mov	r3, #14
 245 0044 FB18     		add	r3, r7, r3
 246 0046 1288     		ldrh	r2, [r2]
 247 0048 1A80     		strh	r2, [r3]
  66:engine_afe.c  ****             ret = i;
 248              		.loc 3 66 0
 249 004a 3B69     		ldr	r3, [r7, #16]
 250 004c 7B61     		str	r3, [r7, #20]
 251              	.L12:
  63:engine_afe.c  ****         if(val < buf[i]) {
 252              		.loc 3 63 0 discriminator 2
 253 004e 3B69     		ldr	r3, [r7, #16]
 254 0050 0133     		add	r3, r3, #1
 255 0052 3B61     		str	r3, [r7, #16]
 256              	.L11:
  63:engine_afe.c  ****         if(val < buf[i]) {
 257              		.loc 3 63 0 is_stmt 0 discriminator 1
ARM GAS  C:\Users\fneves\AppData\Local\Temp\ccAAmFBx.s 			page 22


 258 0054 3A69     		ldr	r2, [r7, #16]
 259 0056 3B68     		ldr	r3, [r7]
 260 0058 9A42     		cmp	r2, r3
 261 005a E2D3     		bcc	.L13
  67:engine_afe.c  ****         }
  68:engine_afe.c  ****     }
  69:engine_afe.c  ****     return(ret);
 262              		.loc 3 69 0 is_stmt 1
 263 005c 7B69     		ldr	r3, [r7, #20]
  70:engine_afe.c  **** }
 264              		.loc 3 70 0
 265 005e 181C     		mov	r0, r3
 266 0060 BD46     		mov	sp, r7
 267 0062 06B0     		add	sp, sp, #24
 268              		@ sp needed
 269 0064 80BD     		pop	{r7, pc}
 270              		.cfi_endproc
 271              	.LFE69:
 272              		.size	engine_gets_highest_value_idx, .-engine_gets_highest_value_idx
 273 0066 C046     		.section	.text.engine_afe_init,"ax",%progbits
 274              		.align	2
 275              		.global	engine_afe_init
 276              		.code	16
 277              		.thumb_func
 278              		.type	engine_afe_init, %function
 279              	engine_afe_init:
 280              	.LFB70:
  71:engine_afe.c  **** 
  72:engine_afe.c  **** 
  73:engine_afe.c  **** /**
  74:engine_afe.c  ****  * public functions 
  75:engine_afe.c  ****  */
  76:engine_afe.c  **** int engine_afe_init(void)
  77:engine_afe.c  **** {
 281              		.loc 3 77 0
 282              		.cfi_startproc
 283 0000 80B5     		push	{r7, lr}
 284              		.cfi_def_cfa_offset 8
 285              		.cfi_offset 7, -8
 286              		.cfi_offset 14, -4
 287 0002 82B0     		sub	sp, sp, #8
 288              		.cfi_def_cfa_offset 16
 289 0004 00AF     		add	r7, sp, #0
 290              		.cfi_def_cfa_register 7
  78:engine_afe.c  ****     int ret = 0;
 291              		.loc 3 78 0
 292 0006 0023     		mov	r3, #0
 293 0008 7B60     		str	r3, [r7, #4]
  79:engine_afe.c  ****         
  80:engine_afe.c  ****     /* turn on the voltage reference */
  81:engine_afe.c  ****     engine_sensor_ref_Start();
 294              		.loc 3 81 0
 295 000a FFF7FEFF 		bl	engine_sensor_ref_Start
  82:engine_afe.c  ****     
  83:engine_afe.c  ****     /* turn on the voltage reference buffer */
  84:engine_afe.c  ****     engine_vref_buf_Start();
 296              		.loc 3 84 0
ARM GAS  C:\Users\fneves\AppData\Local\Temp\ccAAmFBx.s 			page 23


 297 000e FFF7FEFF 		bl	engine_vref_buf_Start
  85:engine_afe.c  ****     
  86:engine_afe.c  ****     /* turn on the system amplifier */
  87:engine_afe.c  ****     engine_sensor_pga_Start();
 298              		.loc 3 87 0
 299 0012 FFF7FEFF 		bl	engine_sensor_pga_Start
  88:engine_afe.c  ****     
  89:engine_afe.c  ****     /* set the dma interrupt function */
  90:engine_afe.c  ****     engine_sensor_transfer_SetInterruptCallback((cydma_callback_t)&engine_dma_isr);
 300              		.loc 3 90 0
 301 0016 0D4B     		ldr	r3, .L17
 302 0018 181C     		mov	r0, r3
 303 001a FFF7FEFF 		bl	engine_sensor_transfer_SetInterruptCallback
  91:engine_afe.c  ****     
  92:engine_afe.c  ****     /* set the dma initial buffer */
  93:engine_afe.c  ****     /* we call this trick in Brazil: "Gambiarra" 
  94:engine_afe.c  ****      * the cypress code generator seems to have a bug, generating like: xx_xx_SAR_CHAN_RESULTy wher
  95:engine_afe.c  ****      * y is the channel number, but this causes undeclared value compilation error, so the workarou
  96:engine_afe.c  ****      * the base address and add a offset, since I need of channel 0 this is not needed
  97:engine_afe.c  ****      */
  98:engine_afe.c  ****     engine_sensor_transfer_Start((void *)engine_sensor_adc_cy_psoc4_sar_1__SAR_CHAN_RESULT00, &engi
 304              		.loc 3 98 0
 305 001e 0C4B     		ldr	r3, .L17+4
 306 0020 1B68     		ldr	r3, [r3]
 307 0022 5A02     		lsl	r2, r3, #9
 308 0024 0B4B     		ldr	r3, .L17+8
 309 0026 D318     		add	r3, r2, r3
 310 0028 0B4A     		ldr	r2, .L17+12
 311 002a 101C     		mov	r0, r2
 312 002c 191C     		mov	r1, r3
 313 002e FFF7FEFF 		bl	engine_sensor_transfer_Start
  99:engine_afe.c  ****     
 100:engine_afe.c  ****     /* prepare instance of fft */
 101:engine_afe.c  ****     //arm_cfft_radix2_init_q15(&fft_instance,ENGINE_SAMPLE_BUFFER_SIZE,0,1);
 102:engine_afe.c  ****     
 103:engine_afe.c  ****     CyIntEnable(CYDMA_INTR_NUMBER);
 314              		.loc 3 103 0
 315 0032 0C20     		mov	r0, #12
 316 0034 FFF7FEFF 		bl	CyIntEnable
 104:engine_afe.c  ****     
 105:engine_afe.c  ****     /* start the adc with continous sampling enabled */
 106:engine_afe.c  ****     engine_sensor_adc_Start();
 317              		.loc 3 106 0
 318 0038 FFF7FEFF 		bl	engine_sensor_adc_Start
 107:engine_afe.c  ****     engine_sensor_adc_StartConvert();
 319              		.loc 3 107 0
 320 003c FFF7FEFF 		bl	engine_sensor_adc_StartConvert
 108:engine_afe.c  ****     
 109:engine_afe.c  ****     return(ret);
 321              		.loc 3 109 0
 322 0040 7B68     		ldr	r3, [r7, #4]
 110:engine_afe.c  **** }
 323              		.loc 3 110 0
 324 0042 181C     		mov	r0, r3
 325 0044 BD46     		mov	sp, r7
 326 0046 02B0     		add	sp, sp, #8
 327              		@ sp needed
ARM GAS  C:\Users\fneves\AppData\Local\Temp\ccAAmFBx.s 			page 24


 328 0048 80BD     		pop	{r7, pc}
 329              	.L18:
 330 004a C046     		.align	2
 331              	.L17:
 332 004c 00000000 		.word	engine_dma_isr
 333 0050 00080000 		.word	engine_buffer_index
 334 0054 00000000 		.word	engine_sample_buffer
 335 0058 80013A40 		.word	1077543296
 336              		.cfi_endproc
 337              	.LFE70:
 338              		.size	engine_afe_init, .-engine_afe_init
 339              		.section	.text.engine_afe_get_rpm,"ax",%progbits
 340              		.align	2
 341              		.global	engine_afe_get_rpm
 342              		.code	16
 343              		.thumb_func
 344              		.type	engine_afe_get_rpm, %function
 345              	engine_afe_get_rpm:
 346              	.LFB71:
 111:engine_afe.c  **** 
 112:engine_afe.c  **** int engine_afe_get_rpm(void)
 113:engine_afe.c  **** {
 347              		.loc 3 113 0
 348              		.cfi_startproc
 349 0000 80B5     		push	{r7, lr}
 350              		.cfi_def_cfa_offset 8
 351              		.cfi_offset 7, -8
 352              		.cfi_offset 14, -4
 353 0002 00AF     		add	r7, sp, #0
 354              		.cfi_def_cfa_register 7
 114:engine_afe.c  ****     return(engine_current_speed);
 355              		.loc 3 114 0
 356 0004 024B     		ldr	r3, .L21
 357 0006 1B68     		ldr	r3, [r3]
 115:engine_afe.c  **** }
 358              		.loc 3 115 0
 359 0008 181C     		mov	r0, r3
 360 000a BD46     		mov	sp, r7
 361              		@ sp needed
 362 000c 80BD     		pop	{r7, pc}
 363              	.L22:
 364 000e C046     		.align	2
 365              	.L21:
 366 0010 04080000 		.word	engine_current_speed
 367              		.cfi_endproc
 368              	.LFE71:
 369              		.size	engine_afe_get_rpm, .-engine_afe_get_rpm
 370              		.global	__aeabi_uidiv
 371              		.section	.text.engine_afe_main,"ax",%progbits
 372              		.align	2
 373              		.global	engine_afe_main
 374              		.code	16
 375              		.thumb_func
 376              		.type	engine_afe_main, %function
 377              	engine_afe_main:
 378              	.LFB72:
 116:engine_afe.c  **** 
ARM GAS  C:\Users\fneves\AppData\Local\Temp\ccAAmFBx.s 			page 25


 117:engine_afe.c  **** 
 118:engine_afe.c  **** void engine_afe_main(int event)
 119:engine_afe.c  **** {
 379              		.loc 3 119 0
 380              		.cfi_startproc
 381 0000 80B5     		push	{r7, lr}
 382              		.cfi_def_cfa_offset 8
 383              		.cfi_offset 7, -8
 384              		.cfi_offset 14, -4
 385 0002 84B0     		sub	sp, sp, #16
 386              		.cfi_def_cfa_offset 24
 387 0004 00AF     		add	r7, sp, #0
 388              		.cfi_def_cfa_register 7
 389 0006 7860     		str	r0, [r7, #4]
 120:engine_afe.c  ****     system_event_t ev = (system_event_t)event;
 390              		.loc 3 120 0
 391 0008 0B23     		mov	r3, #11
 392 000a FB18     		add	r3, r7, r3
 393 000c 7A68     		ldr	r2, [r7, #4]
 394 000e 1A70     		strb	r2, [r3]
 121:engine_afe.c  ****     switch(ev) {
 395              		.loc 3 121 0
 396 0010 0B23     		mov	r3, #11
 397 0012 FB18     		add	r3, r7, r3
 398 0014 1B78     		ldrb	r3, [r3]
 399 0016 022B     		cmp	r3, #2
 400 0018 00D1     		bne	.LCB307
 401 001a 9BE0     		b	.L33	@long jump
 402              	.LCB307:
 403 001c 042B     		cmp	r3, #4
 404 001e 30D0     		beq	.L26
 405 0020 012B     		cmp	r3, #1
 406 0022 00D0     		beq	.LCB311
 407 0024 97E0     		b	.L23	@long jump
 408              	.LCB311:
 122:engine_afe.c  ****         case KDMA_EVENT:
 123:engine_afe.c  ****             /* dma signaled, swap buffers and restart the adc */
 124:engine_afe.c  ****             engine_buffer_index = (engine_buffer_index + 1) & (ENGINE_SAMPLE_BUFFER_LINES - 1);
 409              		.loc 3 124 0
 410 0026 4D4B     		ldr	r3, .L34
 411 0028 1B68     		ldr	r3, [r3]
 412 002a 0133     		add	r3, r3, #1
 413 002c 0122     		mov	r2, #1
 414 002e 1A40     		and	r2, r3
 415 0030 4A4B     		ldr	r3, .L34
 416 0032 1A60     		str	r2, [r3]
 125:engine_afe.c  ****             engine_buffer_available = (engine_buffer_index ^ (ENGINE_SAMPLE_BUFFER_LINES - 1)) & (E
 417              		.loc 3 125 0
 418 0034 494B     		ldr	r3, .L34
 419 0036 1B68     		ldr	r3, [r3]
 420 0038 0122     		mov	r2, #1
 421 003a 1340     		and	r3, r2
 422 003c 5A42     		neg	r2, r3
 423 003e 5341     		adc	r3, r3, r2
 424 0040 DBB2     		uxtb	r3, r3
 425 0042 1A1C     		mov	r2, r3
 426 0044 464B     		ldr	r3, .L34+4
ARM GAS  C:\Users\fneves\AppData\Local\Temp\ccAAmFBx.s 			page 26


 427 0046 1A60     		str	r2, [r3]
 126:engine_afe.c  ****             memcpy(&engine_sample_fft_buffer,&engine_sample_buffer[engine_buffer_available][0],size
 428              		.loc 3 126 0
 429 0048 454B     		ldr	r3, .L34+4
 430 004a 1B68     		ldr	r3, [r3]
 431 004c 5A02     		lsl	r2, r3, #9
 432 004e 454B     		ldr	r3, .L34+8
 433 0050 D218     		add	r2, r2, r3
 434 0052 4549     		ldr	r1, .L34+12
 435 0054 8023     		mov	r3, #128
 436 0056 9B00     		lsl	r3, r3, #2
 437 0058 081C     		mov	r0, r1
 438 005a 111C     		mov	r1, r2
 439 005c 1A1C     		mov	r2, r3
 440 005e FFF7FEFF 		bl	memcpy
 127:engine_afe.c  ****             engine_sensor_transfer_Start((void *)engine_sensor_adc_cy_psoc4_sar_1__SAR_CHAN_RESULT0
 441              		.loc 3 127 0
 442 0062 3E4B     		ldr	r3, .L34
 443 0064 1B68     		ldr	r3, [r3]
 444 0066 5A02     		lsl	r2, r3, #9
 445 0068 3E4B     		ldr	r3, .L34+8
 446 006a D318     		add	r3, r2, r3
 447 006c 3F4A     		ldr	r2, .L34+16
 448 006e 101C     		mov	r0, r2
 449 0070 191C     		mov	r1, r3
 450 0072 FFF7FEFF 		bl	engine_sensor_transfer_Start
 128:engine_afe.c  ****             engine_sensor_adc_Start();
 451              		.loc 3 128 0
 452 0076 FFF7FEFF 		bl	engine_sensor_adc_Start
 129:engine_afe.c  ****             event_queue_put(KENGINE_CALCULATE);
 453              		.loc 3 129 0
 454 007a 0420     		mov	r0, #4
 455 007c FFF7FEFF 		bl	event_queue_put
 130:engine_afe.c  ****         break;
 456              		.loc 3 130 0
 457 0080 69E0     		b	.L23
 458              	.L26:
 459              	.LBB2:
 131:engine_afe.c  ****         
 132:engine_afe.c  ****         case KENGINE_CALCULATE:
 133:engine_afe.c  ****         {
 134:engine_afe.c  ****             int i;
 135:engine_afe.c  ****             /* calculate the frequency bins using the obtained buffer */
 136:engine_afe.c  ****             (void)fix_fftr(&engine_sample_fft_buffer[0], ENGINE_FFT_LEN,0);
 460              		.loc 3 136 0
 461 0082 394B     		ldr	r3, .L34+12
 462 0084 181C     		mov	r0, r3
 463 0086 0921     		mov	r1, #9
 464 0088 0022     		mov	r2, #0
 465 008a FFF7FEFF 		bl	fix_fftr
 137:engine_afe.c  ****             
 138:engine_afe.c  ****             /* compute mag_val since this is a complex fft */
 139:engine_afe.c  ****             for( i = 0 ; i < ( 1 << (ENGINE_FFT_LEN - 1)); i++) {
 466              		.loc 3 139 0
 467 008e 0023     		mov	r3, #0
 468 0090 FB60     		str	r3, [r7, #12]
 469 0092 26E0     		b	.L28
ARM GAS  C:\Users\fneves\AppData\Local\Temp\ccAAmFBx.s 			page 27


 470              	.L29:
 140:engine_afe.c  ****                 engine_sample_fft_buffer[i] =                                                      
 141:engine_afe.c  ****                     (int16_t)fix_sqrt((uint32_t)(engine_sample_fft_buffer[i] * engine_sample_fft_bu
 471              		.loc 3 141 0 discriminator 3
 472 0094 344B     		ldr	r3, .L34+12
 473 0096 FA68     		ldr	r2, [r7, #12]
 474 0098 5200     		lsl	r2, r2, #1
 475 009a D35A     		ldrh	r3, [r2, r3]
 476 009c 1BB2     		sxth	r3, r3
 477 009e 324A     		ldr	r2, .L34+12
 478 00a0 F968     		ldr	r1, [r7, #12]
 479 00a2 4900     		lsl	r1, r1, #1
 480 00a4 8A5A     		ldrh	r2, [r1, r2]
 481 00a6 12B2     		sxth	r2, r2
 482 00a8 5A43     		mul	r2, r3
 142:engine_afe.c  ****                                                  engine_sample_fft_buffer[i + ( 1 << (ENGINE_FFT_LE
 483              		.loc 3 142 0 discriminator 3
 484 00aa FB68     		ldr	r3, [r7, #12]
 485 00ac 591C     		add	r1, r3, #1
 486 00ae FF31     		add	r1, r1, #255
 487 00b0 2D4B     		ldr	r3, .L34+12
 488 00b2 4900     		lsl	r1, r1, #1
 489 00b4 CB5A     		ldrh	r3, [r1, r3]
 490 00b6 1BB2     		sxth	r3, r3
 143:engine_afe.c  ****                                                  engine_sample_fft_buffer[i + ( 1 << (ENGINE_FFT_LE
 491              		.loc 3 143 0 discriminator 3
 492 00b8 F968     		ldr	r1, [r7, #12]
 493 00ba 481C     		add	r0, r1, #1
 494 00bc FF30     		add	r0, r0, #255
 495 00be 2A49     		ldr	r1, .L34+12
 496 00c0 4000     		lsl	r0, r0, #1
 497 00c2 415A     		ldrh	r1, [r0, r1]
 142:engine_afe.c  ****                                                  engine_sample_fft_buffer[i + ( 1 << (ENGINE_FFT_LE
 498              		.loc 3 142 0 discriminator 3
 499 00c4 09B2     		sxth	r1, r1
 500 00c6 4B43     		mul	r3, r1
 141:engine_afe.c  ****                                                  engine_sample_fft_buffer[i + ( 1 << (ENGINE_FFT_LE
 501              		.loc 3 141 0 discriminator 3
 502 00c8 D318     		add	r3, r2, r3
 503 00ca 181C     		mov	r0, r3
 504 00cc FFF7FEFF 		bl	fix_sqrt
 505 00d0 031C     		mov	r3, r0
 506 00d2 99B2     		uxth	r1, r3
 140:engine_afe.c  ****                     (int16_t)fix_sqrt((uint32_t)(engine_sample_fft_buffer[i] * engine_sample_fft_bu
 507              		.loc 3 140 0 discriminator 3
 508 00d4 244B     		ldr	r3, .L34+12
 509 00d6 FA68     		ldr	r2, [r7, #12]
 510 00d8 5200     		lsl	r2, r2, #1
 511 00da D152     		strh	r1, [r2, r3]
 139:engine_afe.c  ****                 engine_sample_fft_buffer[i] =                                                      
 512              		.loc 3 139 0 discriminator 3
 513 00dc FB68     		ldr	r3, [r7, #12]
 514 00de 0133     		add	r3, r3, #1
 515 00e0 FB60     		str	r3, [r7, #12]
 516              	.L28:
 139:engine_afe.c  ****                 engine_sample_fft_buffer[i] =                                                      
 517              		.loc 3 139 0 is_stmt 0 discriminator 1
ARM GAS  C:\Users\fneves\AppData\Local\Temp\ccAAmFBx.s 			page 28


 518 00e2 FB68     		ldr	r3, [r7, #12]
 519 00e4 FF2B     		cmp	r3, #255
 520 00e6 D5DD     		ble	.L29
 144:engine_afe.c  ****                                        ));
 145:engine_afe.c  ****             }   
 146:engine_afe.c  ****             
 147:engine_afe.c  ****             engine_speed_frequency = ENGINE_IDX_TO_FREQ(engine_gets_highest_value_idx(&engine_sampl
 521              		.loc 3 147 0 is_stmt 1
 522 00e8 214B     		ldr	r3, .L34+20
 523 00ea 181C     		mov	r0, r3
 524 00ec 7F21     		mov	r1, #127
 525 00ee FFF7FEFF 		bl	engine_gets_highest_value_idx
 526 00f2 021C     		mov	r2, r0
 527 00f4 131C     		mov	r3, r2
 528 00f6 5B01     		lsl	r3, r3, #5
 529 00f8 9B1A     		sub	r3, r3, r2
 530 00fa 5B00     		lsl	r3, r3, #1
 531 00fc 1A1C     		mov	r2, r3
 532 00fe 1D4B     		ldr	r3, .L34+24
 533 0100 1A60     		str	r2, [r3]
 148:engine_afe.c  ****                                                        (ENGINE_FFT_SIZ/2) - 1));
 149:engine_afe.c  ****                        
 150:engine_afe.c  ****             if(engine_sample_fft_buffer[ENGINE_FREQ_TO_IDX(engine_speed_frequency)] < ENGINE_THRESH
 534              		.loc 3 150 0
 535 0102 1C4B     		ldr	r3, .L34+24
 536 0104 1B68     		ldr	r3, [r3]
 537 0106 181C     		mov	r0, r3
 538 0108 3E21     		mov	r1, #62
 539 010a FFF7FEFF 		bl	__aeabi_uidiv
 540 010e 031C     		mov	r3, r0
 541 0110 1A1C     		mov	r2, r3
 542 0112 154B     		ldr	r3, .L34+12
 543 0114 5200     		lsl	r2, r2, #1
 544 0116 D35A     		ldrh	r3, [r2, r3]
 545 0118 1BB2     		sxth	r3, r3
 546 011a 132B     		cmp	r3, #19
 547 011c 03DC     		bgt	.L30
 151:engine_afe.c  ****                 engine_current_speed = 0;            
 548              		.loc 3 151 0
 549 011e 164B     		ldr	r3, .L34+28
 550 0120 0022     		mov	r2, #0
 551 0122 1A60     		str	r2, [r3]
 552 0124 0BE0     		b	.L31
 553              	.L30:
 152:engine_afe.c  ****             } else {
 153:engine_afe.c  ****                 engine_current_speed = (engine_speed_frequency - ENGINE_BASE_FREQ) * ENGINE_SCALE_F
 554              		.loc 3 153 0
 555 0126 134B     		ldr	r3, .L34+24
 556 0128 1A68     		ldr	r2, [r3]
 557 012a 131C     		mov	r3, r2
 558 012c 9B00     		lsl	r3, r3, #2
 559 012e 9B18     		add	r3, r3, r2
 560 0130 5B00     		lsl	r3, r3, #1
 561 0132 124A     		ldr	r2, .L34+32
 562 0134 9446     		mov	ip, r2
 563 0136 6344     		add	r3, r3, ip
 564 0138 1A1C     		mov	r2, r3
ARM GAS  C:\Users\fneves\AppData\Local\Temp\ccAAmFBx.s 			page 29


 565 013a 0F4B     		ldr	r3, .L34+28
 566 013c 1A60     		str	r2, [r3]
 567              	.L31:
 154:engine_afe.c  ****             }
 155:engine_afe.c  ****             
 156:engine_afe.c  ****             if(engine_current_speed < 0) engine_current_speed = 0;
 568              		.loc 3 156 0
 569 013e 0E4B     		ldr	r3, .L34+28
 570 0140 1B68     		ldr	r3, [r3]
 571 0142 002B     		cmp	r3, #0
 572 0144 02DA     		bge	.L32
 573              		.loc 3 156 0 is_stmt 0 discriminator 1
 574 0146 0C4B     		ldr	r3, .L34+28
 575 0148 0022     		mov	r2, #0
 576 014a 1A60     		str	r2, [r3]
 577              	.L32:
 157:engine_afe.c  ****             
 158:engine_afe.c  ****             /* notify fresh rpm value to system */
 159:engine_afe.c  ****             event_queue_put(KRPM_READY_EVENT);
 578              		.loc 3 159 0 is_stmt 1
 579 014c 0220     		mov	r0, #2
 580 014e FFF7FEFF 		bl	event_queue_put
 581              	.LBE2:
 160:engine_afe.c  ****         }
 161:engine_afe.c  ****         break;
 582              		.loc 3 161 0
 583 0152 00E0     		b	.L23
 584              	.L33:
 162:engine_afe.c  ****         
 163:engine_afe.c  ****         
 164:engine_afe.c  ****         case KRPM_READY_EVENT:
 165:engine_afe.c  ****         /* not used for while */
 166:engine_afe.c  ****         break;
 585              		.loc 3 166 0
 586 0154 C046     		mov	r8, r8
 587              	.L23:
 167:engine_afe.c  ****     }
 168:engine_afe.c  ****     
 169:engine_afe.c  **** }
 588              		.loc 3 169 0
 589 0156 BD46     		mov	sp, r7
 590 0158 04B0     		add	sp, sp, #16
 591              		@ sp needed
 592 015a 80BD     		pop	{r7, pc}
 593              	.L35:
 594              		.align	2
 595              	.L34:
 596 015c 00080000 		.word	engine_buffer_index
 597 0160 0C080000 		.word	engine_buffer_available
 598 0164 00000000 		.word	engine_sample_buffer
 599 0168 00040000 		.word	engine_sample_fft_buffer
 600 016c 80013A40 		.word	1077543296
 601 0170 02040000 		.word	engine_sample_fft_buffer+2
 602 0174 08080000 		.word	engine_speed_frequency
 603 0178 04080000 		.word	engine_current_speed
 604 017c C063FFFF 		.word	-40000
 605              		.cfi_endproc
ARM GAS  C:\Users\fneves\AppData\Local\Temp\ccAAmFBx.s 			page 30


 606              	.LFE72:
 607              		.size	engine_afe_main, .-engine_afe_main
 608              		.text
 609              	.Letext0:
 610              		.file 4 "c:\\program files (x86)\\cypress\\psoc creator\\4.0\\psoc creator\\import\\gnu\\arm\\4.9.
 611              		.file 5 "c:\\program files (x86)\\cypress\\psoc creator\\4.0\\psoc creator\\import\\gnu\\arm\\4.9.
 612              		.file 6 "Generated_Source\\PSoC4/cytypes.h"
 613              		.file 7 "Generated_Source\\PSoC4/CyDMA.h"
 614              		.file 8 "event_queue.h"