ARM GAS  C:\Users\fneves\AppData\Local\Temp\ccV5UskS.s 			page 1


   1              		.cpu cortex-m0plus
   2              		.fpu softvfp
   3              		.eabi_attribute 20, 1
   4              		.eabi_attribute 21, 1
   5              		.eabi_attribute 23, 3
   6              		.eabi_attribute 24, 1
   7              		.eabi_attribute 25, 1
   8              		.eabi_attribute 26, 1
   9              		.eabi_attribute 30, 6
  10              		.eabi_attribute 34, 0
  11              		.eabi_attribute 18, 4
  12              		.code	16
  13              		.file	"engine_sensor_adc.c"
  14              		.text
  15              	.Ltext0:
  16              		.cfi_sections	.debug_frame
  17              		.global	engine_sensor_adc_initVar
  18              		.bss
  19              		.type	engine_sensor_adc_initVar, %object
  20              		.size	engine_sensor_adc_initVar, 1
  21              	engine_sensor_adc_initVar:
  22 0000 00       		.space	1
  23              		.global	engine_sensor_adc_selected
  24              		.type	engine_sensor_adc_selected, %object
  25              		.size	engine_sensor_adc_selected, 1
  26              	engine_sensor_adc_selected:
  27 0001 00       		.space	1
  28              		.comm	engine_sensor_adc_offset,2,4
  29              		.comm	engine_sensor_adc_countsPer10Volt,4,4
  30 0002 0000     		.align	2
  31              	engine_sensor_adc_currentConfig:
  32 0004 00000000 		.space	4
  33              		.section	.rodata
  34              		.align	2
  35              		.type	engine_sensor_adc_channelsConfig, %object
  36              		.size	engine_sensor_adc_channelsConfig, 4
  37              	engine_sensor_adc_channelsConfig:
  38 0000 00010000 		.word	256
  39              		.data
  40              		.align	2
  41              		.type	engine_sensor_adc_CFG0_UABH_A_FILTER_initPairs, %object
  42              		.size	engine_sensor_adc_CFG0_UABH_A_FILTER_initPairs, 144
  43              	engine_sensor_adc_CFG0_UABH_A_FILTER_initPairs:
  44 0000 00033440 		.word	1077150464
  45 0004 07007080 		.word	-2140143609
  46 0008 30033440 		.word	1077150512
  47 000c 20200000 		.word	8224
  48 0010 34033440 		.word	1077150516
  49 0014 1F1F0000 		.word	7967
  50 0018 78033440 		.word	1077150584
  51 001c 0100003F 		.word	1056964609
  52 0020 20033440 		.word	1077150496
  53 0024 6D000000 		.word	109
  54 0028 74033440 		.word	1077150580
  55 002c 11111100 		.word	1118481
  56 0030 70033440 		.word	1077150576
  57 0034 0000000F 		.word	251658240
ARM GAS  C:\Users\fneves\AppData\Local\Temp\ccV5UskS.s 			page 2


  58 0038 40033440 		.word	1077150528
  59 003c 0000F000 		.word	15728640
  60 0040 48033440 		.word	1077150536
  61 0044 00000F00 		.word	983040
  62 0048 50033440 		.word	1077150544
  63 004c 00001000 		.word	1048576
  64 0050 54033440 		.word	1077150548
  65 0054 00020000 		.word	512
  66 0058 60033440 		.word	1077150560
  67 005c 0C000000 		.word	12
  68 0060 64033440 		.word	1077150564
  69 0064 000B0000 		.word	2816
  70 0068 68033440 		.word	1077150568
  71 006c 00F00F00 		.word	1044480
  72 0070 6C033440 		.word	1077150572
  73 0074 F0000000 		.word	240
  74 0078 04033440 		.word	1077150468
  75 007c 00000000 		.word	0
  76 0080 58033440 		.word	1077150552
  77 0084 20F00100 		.word	127008
  78 0088 08033440 		.word	1077150472
  79 008c 05040C1C 		.word	470549509
  80              		.align	2
  81              		.type	engine_sensor_adc_CFG0_UABH_B_FILTER_initPairs, %object
  82              		.size	engine_sensor_adc_CFG0_UABH_B_FILTER_initPairs, 152
  83              	engine_sensor_adc_CFG0_UABH_B_FILTER_initPairs:
  84 0090 00023440 		.word	1077150208
  85 0094 07000080 		.word	-2147483641
  86 0098 30023440 		.word	1077150256
  87 009c 20200000 		.word	8224
  88 00a0 34023440 		.word	1077150260
  89 00a4 1F1F0000 		.word	7967
  90 00a8 78023440 		.word	1077150328
  91 00ac 0100003F 		.word	1056964609
  92 00b0 20023440 		.word	1077150240
  93 00b4 6D000000 		.word	109
  94 00b8 74023440 		.word	1077150324
  95 00bc 11111100 		.word	1118481
  96 00c0 70023440 		.word	1077150320
  97 00c4 1000000F 		.word	251658256
  98 00c8 40023440 		.word	1077150272
  99 00cc 00001000 		.word	1048576
 100 00d0 44023440 		.word	1077150276
 101 00d4 00020000 		.word	512
 102 00d8 48023440 		.word	1077150280
 103 00dc 10000200 		.word	131088
 104 00e0 50023440 		.word	1077150288
 105 00e4 00C00000 		.word	49152
 106 00e8 54023440 		.word	1077150292
 107 00ec 000B0000 		.word	2816
 108 00f0 60023440 		.word	1077150304
 109 00f4 00A00000 		.word	40960
 110 00f8 64023440 		.word	1077150308
 111 00fc 00090000 		.word	2304
 112 0100 6C023440 		.word	1077150316
 113 0104 F0300000 		.word	12528
 114 0108 04023440 		.word	1077150212
ARM GAS  C:\Users\fneves\AppData\Local\Temp\ccV5UskS.s 			page 3


 115 010c 00000000 		.word	0
 116 0110 58023440 		.word	1077150296
 117 0114 00F00F00 		.word	1044480
 118 0118 68023440 		.word	1077150312
 119 011c 20F01000 		.word	1110048
 120 0120 08023440 		.word	1077150216
 121 0124 8102001A 		.word	436208257
 122              		.align	2
 123              		.type	engine_sensor_adc_CFG0_UABH_A_FILTER_config, %object
 124              		.size	engine_sensor_adc_CFG0_UABH_A_FILTER_config, 12
 125              	engine_sensor_adc_CFG0_UABH_A_FILTER_config:
 126 0128 00000000 		.word	engine_sensor_adc_UABH_A_waveConfig
 127 012c 00000000 		.word	engine_sensor_adc_CFG0_UABH_A_FILTER_initPairs
 128 0130 0010     		.short	4096
 129 0132 02       		.byte	2
 130 0133 12       		.byte	18
 131              		.align	2
 132              		.type	engine_sensor_adc_CFG0_UABH_B_FILTER_config, %object
 133              		.size	engine_sensor_adc_CFG0_UABH_B_FILTER_config, 12
 134              	engine_sensor_adc_CFG0_UABH_B_FILTER_config:
 135 0134 00000000 		.word	engine_sensor_adc_UABH_B_waveConfig
 136 0138 90000000 		.word	engine_sensor_adc_CFG0_UABH_B_FILTER_initPairs
 137 013c 0010     		.short	4096
 138 013e 02       		.byte	2
 139 013f 13       		.byte	19
 140              		.section	.text.engine_sensor_adc_Start,"ax",%progbits
 141              		.align	2
 142              		.global	engine_sensor_adc_Start
 143              		.code	16
 144              		.thumb_func
 145              		.type	engine_sensor_adc_Start, %function
 146              	engine_sensor_adc_Start:
 147              	.LFB1:
 148              		.file 1 "Generated_Source\\PSoC4\\engine_sensor_adc.c"
   1:Generated_Source\PSoC4/engine_sensor_adc.c **** /***************************************************************************//**
   2:Generated_Source\PSoC4/engine_sensor_adc.c **** * \file     engine_sensor_adc.c
   3:Generated_Source\PSoC4/engine_sensor_adc.c **** * \version  1.20
   4:Generated_Source\PSoC4/engine_sensor_adc.c **** *
   5:Generated_Source\PSoC4/engine_sensor_adc.c **** * \brief
   6:Generated_Source\PSoC4/engine_sensor_adc.c **** * Provides the source code to the API for the engine_sensor_adc Component.
   7:Generated_Source\PSoC4/engine_sensor_adc.c **** *
   8:Generated_Source\PSoC4/engine_sensor_adc.c **** ********************************************************************************
   9:Generated_Source\PSoC4/engine_sensor_adc.c **** * \copyright
  10:Generated_Source\PSoC4/engine_sensor_adc.c **** * (c) 2015-2016, Cypress Semiconductor Corporation. All rights reserved.
  11:Generated_Source\PSoC4/engine_sensor_adc.c **** * This software, including source code, documentation and related
  12:Generated_Source\PSoC4/engine_sensor_adc.c **** * materials ("Software"), is owned by Cypress Semiconductor
  13:Generated_Source\PSoC4/engine_sensor_adc.c **** * Corporation ("Cypress") and is protected by and subject to worldwide
  14:Generated_Source\PSoC4/engine_sensor_adc.c **** * patent protection (United States and foreign), United States copyright
  15:Generated_Source\PSoC4/engine_sensor_adc.c **** * laws and international treaty provisions. Therefore, you may use this
  16:Generated_Source\PSoC4/engine_sensor_adc.c **** * Software only as provided in the license agreement accompanying the
  17:Generated_Source\PSoC4/engine_sensor_adc.c **** * software package from which you obtained this Software ("EULA").
  18:Generated_Source\PSoC4/engine_sensor_adc.c **** * If no EULA applies, Cypress hereby grants you a personal, nonexclusive,
  19:Generated_Source\PSoC4/engine_sensor_adc.c **** * non-transferable license to copy, modify, and compile the
  20:Generated_Source\PSoC4/engine_sensor_adc.c **** * Software source code solely for use in connection with Cypress's
  21:Generated_Source\PSoC4/engine_sensor_adc.c **** * integrated circuit products. Any reproduction, modification, translation,
  22:Generated_Source\PSoC4/engine_sensor_adc.c **** * compilation, or representation of this Software except as specified
  23:Generated_Source\PSoC4/engine_sensor_adc.c **** * above is prohibited without the express written permission of Cypress.
ARM GAS  C:\Users\fneves\AppData\Local\Temp\ccV5UskS.s 			page 4


  24:Generated_Source\PSoC4/engine_sensor_adc.c **** * Disclaimer: THIS SOFTWARE IS PROVIDED AS-IS, WITH NO
  25:Generated_Source\PSoC4/engine_sensor_adc.c **** * WARRANTY OF ANY KIND, EXPRESS OR IMPLIED, INCLUDING,
  26:Generated_Source\PSoC4/engine_sensor_adc.c **** * BUT NOT LIMITED TO, NONINFRINGEMENT, IMPLIED
  27:Generated_Source\PSoC4/engine_sensor_adc.c **** * WARRANTIES OF MERCHANTABILITY AND FITNESS FOR A
  28:Generated_Source\PSoC4/engine_sensor_adc.c **** * PARTICULAR PURPOSE. Cypress reserves the right to make
  29:Generated_Source\PSoC4/engine_sensor_adc.c **** * changes to the Software without notice. Cypress does not assume any
  30:Generated_Source\PSoC4/engine_sensor_adc.c **** * liability arising out of the application or use of the Software or any
  31:Generated_Source\PSoC4/engine_sensor_adc.c **** * product or circuit described in the Software. Cypress does not
  32:Generated_Source\PSoC4/engine_sensor_adc.c **** * authorize its products for use in any products where a malfunction or
  33:Generated_Source\PSoC4/engine_sensor_adc.c **** * failure of the Cypress product may reasonably be expected to result in
  34:Generated_Source\PSoC4/engine_sensor_adc.c **** * significant property damage, injury or death ("High Risk Product"). By
  35:Generated_Source\PSoC4/engine_sensor_adc.c **** * including Cypress's product in a High Risk Product, the manufacturer
  36:Generated_Source\PSoC4/engine_sensor_adc.c **** * of such system or application assumes all risk of such use and in doing
  37:Generated_Source\PSoC4/engine_sensor_adc.c **** * so agrees to indemnify Cypress against all liability.
  38:Generated_Source\PSoC4/engine_sensor_adc.c **** *******************************************************************************/
  39:Generated_Source\PSoC4/engine_sensor_adc.c **** #include "engine_sensor_adc.h"
  40:Generated_Source\PSoC4/engine_sensor_adc.c **** 
  41:Generated_Source\PSoC4/engine_sensor_adc.c **** #include <stdlib.h>
  42:Generated_Source\PSoC4/engine_sensor_adc.c **** 
  43:Generated_Source\PSoC4/engine_sensor_adc.c **** static int32 engine_sensor_adc_IsChannelSigned(uint32 chan);
  44:Generated_Source\PSoC4/engine_sensor_adc.c **** #if(engine_sensor_adc_ANY_CONFIG_USES_FILTER	!= 0u)
  45:Generated_Source\PSoC4/engine_sensor_adc.c **** static void engine_sensor_adc_SetupComparatorTrim(void);
  46:Generated_Source\PSoC4/engine_sensor_adc.c **** static void engine_sensor_adc_UndoComparatorTrimSetup(void);
  47:Generated_Source\PSoC4/engine_sensor_adc.c **** static uint32 engine_sensor_adc_RaiseOpampTrimToCrossing(uint32 startTrim);
  48:Generated_Source\PSoC4/engine_sensor_adc.c **** static uint32 engine_sensor_adc_LowerOpampTrimToCrossing(uint32 startTrim);
  49:Generated_Source\PSoC4/engine_sensor_adc.c **** static uint32 engine_sensor_adc_RaiseAgndTrimToCrossing(uint32 startTrim);
  50:Generated_Source\PSoC4/engine_sensor_adc.c **** static uint32 engine_sensor_adc_LowerAgndTrimToCrossing(uint32 startTrim);
  51:Generated_Source\PSoC4/engine_sensor_adc.c **** static uint32 engine_sensor_adc_SetOpampAndAgndTrim(uint32 opampTrim, uint32 agndTrim);
  52:Generated_Source\PSoC4/engine_sensor_adc.c **** static uint32 engine_sensor_adc_SetOpampTrim(uint32 opampTrim);
  53:Generated_Source\PSoC4/engine_sensor_adc.c **** static uint32 engine_sensor_adc_SetAgndTrim(uint32 agndTrim);
  54:Generated_Source\PSoC4/engine_sensor_adc.c **** static uint32 engine_sensor_adc_IncOpampTrim(uint32 trim);
  55:Generated_Source\PSoC4/engine_sensor_adc.c **** static uint32 engine_sensor_adc_DecOpampTrim(uint32 trim);
  56:Generated_Source\PSoC4/engine_sensor_adc.c **** static uint32 engine_sensor_adc_IncAgndTrim(uint32 trim);
  57:Generated_Source\PSoC4/engine_sensor_adc.c **** static uint32 engine_sensor_adc_DecAgndTrim(uint32 trim);
  58:Generated_Source\PSoC4/engine_sensor_adc.c **** #define OFFSET_SAMPLES (30)
  59:Generated_Source\PSoC4/engine_sensor_adc.c **** #endif
  60:Generated_Source\PSoC4/engine_sensor_adc.c **** 
  61:Generated_Source\PSoC4/engine_sensor_adc.c **** uint8 engine_sensor_adc_initVar = 0u; 
  62:Generated_Source\PSoC4/engine_sensor_adc.c **** 
  63:Generated_Source\PSoC4/engine_sensor_adc.c **** uint8 engine_sensor_adc_selected = 0u; /* 0 if no configuration selected. 1 otherwise. */
  64:Generated_Source\PSoC4/engine_sensor_adc.c **** volatile int16 engine_sensor_adc_offset[engine_sensor_adc_TOTAL_CHANNELS_NUM]; 
  65:Generated_Source\PSoC4/engine_sensor_adc.c **** volatile int32 engine_sensor_adc_countsPer10Volt[engine_sensor_adc_TOTAL_CHANNELS_NUM]; 
  66:Generated_Source\PSoC4/engine_sensor_adc.c **** 
  67:Generated_Source\PSoC4/engine_sensor_adc.c **** static uint32 engine_sensor_adc_currentConfig = 0u; /* Currently active configuration */
  68:Generated_Source\PSoC4/engine_sensor_adc.c **** 
  69:Generated_Source\PSoC4/engine_sensor_adc.c **** /*******************************************************************************
  70:Generated_Source\PSoC4/engine_sensor_adc.c **** * Local data allocation
  71:Generated_Source\PSoC4/engine_sensor_adc.c **** *******************************************************************************/
  72:Generated_Source\PSoC4/engine_sensor_adc.c **** /* Channels configuration generated by customiser */
  73:Generated_Source\PSoC4/engine_sensor_adc.c **** static const uint32 CYCODE engine_sensor_adc_channelsConfig[] = { 0x00000100UL,  };
  74:Generated_Source\PSoC4/engine_sensor_adc.c **** 
  75:Generated_Source\PSoC4/engine_sensor_adc.c **** /* Filter init */
  76:Generated_Source\PSoC4/engine_sensor_adc.c **** #if(engine_sensor_adc_ANY_CONFIG_USES_FILTER	!= 0u)
  77:Generated_Source\PSoC4/engine_sensor_adc.c ****     #if (0u != engine_sensor_adc_CFG0_FILTER_PRESENT)
  78:Generated_Source\PSoC4/engine_sensor_adc.c ****         #define engine_sensor_adc_CFG0_UABH_A_FILTER_INITPAIRSSIZE ((engine_sensor_adc_CFG0_FILTERT
  79:Generated_Source\PSoC4/engine_sensor_adc.c ****                                                              ? 18u \
  80:Generated_Source\PSoC4/engine_sensor_adc.c ****                                                              : 18u)
ARM GAS  C:\Users\fneves\AppData\Local\Temp\ccV5UskS.s 			page 5


  81:Generated_Source\PSoC4/engine_sensor_adc.c ****         static CyUAB_reg_pair engine_sensor_adc_CFG0_UABH_A_FILTER_initPairs[engine_sensor_adc_CFG0
  82:Generated_Source\PSoC4/engine_sensor_adc.c ****         {
  83:Generated_Source\PSoC4/engine_sensor_adc.c ****         	/*OA_CTRL default always first element in initPairs*/
  84:Generated_Source\PSoC4/engine_sensor_adc.c ****             /* Topology-invariant registers */
  85:Generated_Source\PSoC4/engine_sensor_adc.c ****              {engine_sensor_adc_UABH_A_OA_CTRL_PTR        , ((uint32)engine_sensor_adc_UABH_A_DEFAU
  86:Generated_Source\PSoC4/engine_sensor_adc.c ****             ,{engine_sensor_adc_UABH_A_SW_STATIC_PTR      , ((uint32)engine_sensor_adc_UABH_A_DEFAU
  87:Generated_Source\PSoC4/engine_sensor_adc.c ****             ,{engine_sensor_adc_UABH_A_SW_MODBIT_SRC_PTR      , ((uint32)engine_sensor_adc_UABH_A_I
  88:Generated_Source\PSoC4/engine_sensor_adc.c ****             ,{engine_sensor_adc_UABH_A_SRAM_CTRL_PTR      , ((uint32)engine_sensor_adc_UABH_A_INVAR
  89:Generated_Source\PSoC4/engine_sensor_adc.c ****             ,{engine_sensor_adc_UABH_A_STARTUP_DELAY_PTR  , ((uint32)engine_sensor_adc_CFG0_UABH_A_
  90:Generated_Source\PSoC4/engine_sensor_adc.c ****             ,{engine_sensor_adc_UABH_A_SW_BOOST_CTRL_PTR  , ((uint32)engine_sensor_adc_UABH_A_DEFAU
  91:Generated_Source\PSoC4/engine_sensor_adc.c ****             ,{engine_sensor_adc_UABH_A_SW_OTHER_PTR  , ((uint32)engine_sensor_adc_UABH_A_DEFAULT_SW
  92:Generated_Source\PSoC4/engine_sensor_adc.c ****             
  93:Generated_Source\PSoC4/engine_sensor_adc.c ****             #if (engine_sensor_adc_CFG0_FILTERTYPE_USED == engine_sensor_adc_FILTERTOPOLOGY_LOW_Q)
  94:Generated_Source\PSoC4/engine_sensor_adc.c ****                 /* Filter-invariant registers */
  95:Generated_Source\PSoC4/engine_sensor_adc.c ****                 ,{engine_sensor_adc_UABH_A_SW_CA_IN0_PTR      , ((uint32)engine_sensor_adc_UABH_A_L
  96:Generated_Source\PSoC4/engine_sensor_adc.c ****                 ,{engine_sensor_adc_UABH_A_SW_CA_TOP_PTR      , ((uint32)engine_sensor_adc_UABH_A_L
  97:Generated_Source\PSoC4/engine_sensor_adc.c ****                 ,{engine_sensor_adc_UABH_A_SW_CC_IN0_PTR      , ((uint32)engine_sensor_adc_UABH_A_L
  98:Generated_Source\PSoC4/engine_sensor_adc.c ****                 ,{engine_sensor_adc_UABH_A_SW_CC_IN1_PTR      , ((uint32)engine_sensor_adc_UABH_A_L
  99:Generated_Source\PSoC4/engine_sensor_adc.c ****                 ,{engine_sensor_adc_UABH_A_SW_CF_BOT_PTR      , ((uint32)engine_sensor_adc_UABH_A_L
 100:Generated_Source\PSoC4/engine_sensor_adc.c **** 
 101:Generated_Source\PSoC4/engine_sensor_adc.c ****                 /* Parameter-based registers */
 102:Generated_Source\PSoC4/engine_sensor_adc.c ****                 ,{engine_sensor_adc_UABH_A_CAP_CTRL_PTR       , ((uint32)engine_sensor_adc_CFG0_UAB
 103:Generated_Source\PSoC4/engine_sensor_adc.c ****                 ,{engine_sensor_adc_UABH_A_SW_CB_IN0_PTR      , ((uint32)engine_sensor_adc_CFG0_UAB
 104:Generated_Source\PSoC4/engine_sensor_adc.c ****                 ,{engine_sensor_adc_UABH_A_SW_CB_IN1_PTR      , ((uint32)engine_sensor_adc_CFG0_UAB
 105:Generated_Source\PSoC4/engine_sensor_adc.c ****                 ,{engine_sensor_adc_UABH_A_SW_CB_TOP_PTR      , ((uint32)engine_sensor_adc_CFG0_UAB
 106:Generated_Source\PSoC4/engine_sensor_adc.c ****                 ,{engine_sensor_adc_UABH_A_SW_CC_TOP_PTR      , ((uint32)engine_sensor_adc_CFG0_UAB
 107:Generated_Source\PSoC4/engine_sensor_adc.c ****                 ,{engine_sensor_adc_UABH_A_CAP_ABCF_VAL_PTR   , ((uint32)engine_sensor_adc_CFG0_UAB
 108:Generated_Source\PSoC4/engine_sensor_adc.c ****             #elif (engine_sensor_adc_CFG0_FILTERTYPE_USED == engine_sensor_adc_FILTERTOPOLOGY_HIGH_
 109:Generated_Source\PSoC4/engine_sensor_adc.c ****                 /* Filter-invariant registers */
 110:Generated_Source\PSoC4/engine_sensor_adc.c ****                 ,{engine_sensor_adc_UABH_A_SW_CA_IN0_PTR      , ((uint32)engine_sensor_adc_UABH_A_H
 111:Generated_Source\PSoC4/engine_sensor_adc.c ****                 ,{engine_sensor_adc_UABH_A_SW_CA_TOP_PTR      , ((uint32)engine_sensor_adc_UABH_A_H
 112:Generated_Source\PSoC4/engine_sensor_adc.c ****                 ,{engine_sensor_adc_UABH_A_SW_CB_IN0_PTR      , ((uint32)engine_sensor_adc_UABH_A_H
 113:Generated_Source\PSoC4/engine_sensor_adc.c ****                 ,{engine_sensor_adc_UABH_A_SW_CB_IN1_PTR      , ((uint32)engine_sensor_adc_UABH_A_H
 114:Generated_Source\PSoC4/engine_sensor_adc.c ****                 ,{engine_sensor_adc_UABH_A_SW_CC_IN0_PTR      , ((uint32)engine_sensor_adc_UABH_A_H
 115:Generated_Source\PSoC4/engine_sensor_adc.c ****                 ,{engine_sensor_adc_UABH_A_SW_CC_IN1_PTR      , ((uint32)engine_sensor_adc_UABH_A_H
 116:Generated_Source\PSoC4/engine_sensor_adc.c ****                 ,{engine_sensor_adc_UABH_A_SW_CC_TOP_PTR      , ((uint32)engine_sensor_adc_UABH_A_H
 117:Generated_Source\PSoC4/engine_sensor_adc.c ****                 ,{engine_sensor_adc_UABH_A_SW_CF_BOT_PTR      , ((uint32)engine_sensor_adc_UABH_A_H
 118:Generated_Source\PSoC4/engine_sensor_adc.c **** 
 119:Generated_Source\PSoC4/engine_sensor_adc.c ****                 /* Parameter-based registers */
 120:Generated_Source\PSoC4/engine_sensor_adc.c ****                 ,{engine_sensor_adc_UABH_A_CAP_CTRL_PTR       , ((uint32)engine_sensor_adc_CFG0_UAB
 121:Generated_Source\PSoC4/engine_sensor_adc.c ****                 ,{engine_sensor_adc_UABH_A_SW_CB_TOP_PTR      , ((uint32)engine_sensor_adc_CFG0_UAB
 122:Generated_Source\PSoC4/engine_sensor_adc.c ****                 ,{engine_sensor_adc_UABH_A_CAP_ABCF_VAL_PTR   , ((uint32)engine_sensor_adc_CFG0_UAB
 123:Generated_Source\PSoC4/engine_sensor_adc.c ****             #endif /* (engine_sensor_adc_CFG0_FILTERTYPE_USED == engine_sensor_adc_FILTERTOPOLOGY_L
 124:Generated_Source\PSoC4/engine_sensor_adc.c ****         };
 125:Generated_Source\PSoC4/engine_sensor_adc.c **** 
 126:Generated_Source\PSoC4/engine_sensor_adc.c ****         #define engine_sensor_adc_CFG0_UABH_B_FILTER_INITPAIRSSIZE ((engine_sensor_adc_CFG0_FILTERT
 127:Generated_Source\PSoC4/engine_sensor_adc.c ****                                                              ? 19u \
 128:Generated_Source\PSoC4/engine_sensor_adc.c ****                                                              : 19u)
 129:Generated_Source\PSoC4/engine_sensor_adc.c ****         static CyUAB_reg_pair engine_sensor_adc_CFG0_UABH_B_FILTER_initPairs[engine_sensor_adc_CFG0
 130:Generated_Source\PSoC4/engine_sensor_adc.c ****         {
 131:Generated_Source\PSoC4/engine_sensor_adc.c ****             /*OA_CTRL default always first element in initPairs*/
 132:Generated_Source\PSoC4/engine_sensor_adc.c ****             /* Topology-invariant registers */
 133:Generated_Source\PSoC4/engine_sensor_adc.c ****              {engine_sensor_adc_UABH_B_OA_CTRL_PTR        , ((uint32)engine_sensor_adc_UABH_B_DEFAU
 134:Generated_Source\PSoC4/engine_sensor_adc.c ****             ,{engine_sensor_adc_UABH_B_SW_STATIC_PTR      , ((uint32)engine_sensor_adc_UABH_B_DEFAU
 135:Generated_Source\PSoC4/engine_sensor_adc.c ****             ,{engine_sensor_adc_UABH_B_SW_MODBIT_SRC_PTR  , ((uint32)engine_sensor_adc_UABH_B_INVAR
 136:Generated_Source\PSoC4/engine_sensor_adc.c ****             ,{engine_sensor_adc_UABH_B_SRAM_CTRL_PTR      , ((uint32)engine_sensor_adc_UABH_B_INVAR
 137:Generated_Source\PSoC4/engine_sensor_adc.c ****             ,{engine_sensor_adc_UABH_B_STARTUP_DELAY_PTR  , ((uint32)engine_sensor_adc_CFG0_UABH_B_
ARM GAS  C:\Users\fneves\AppData\Local\Temp\ccV5UskS.s 			page 6


 138:Generated_Source\PSoC4/engine_sensor_adc.c ****             ,{engine_sensor_adc_UABH_B_SW_BOOST_CTRL_PTR  , ((uint32)engine_sensor_adc_UABH_B_DEFAU
 139:Generated_Source\PSoC4/engine_sensor_adc.c ****             ,{engine_sensor_adc_UABH_B_SW_OTHER_PTR  , ((uint32)engine_sensor_adc_UABH_B_DEFAULT_SW
 140:Generated_Source\PSoC4/engine_sensor_adc.c ****             
 141:Generated_Source\PSoC4/engine_sensor_adc.c ****             #if (engine_sensor_adc_CFG0_FILTERTYPE_USED == engine_sensor_adc_FILTERTOPOLOGY_LOW_Q)
 142:Generated_Source\PSoC4/engine_sensor_adc.c ****                     	/* Filter-invariant registers */
 143:Generated_Source\PSoC4/engine_sensor_adc.c ****                 ,{engine_sensor_adc_UABH_B_SW_CA_IN0_PTR      , ((uint32)engine_sensor_adc_UABH_B_L
 144:Generated_Source\PSoC4/engine_sensor_adc.c ****                 ,{engine_sensor_adc_UABH_B_SW_CA_IN1_PTR      , ((uint32)engine_sensor_adc_UABH_B_L
 145:Generated_Source\PSoC4/engine_sensor_adc.c ****                 ,{engine_sensor_adc_UABH_B_SW_CA_TOP_PTR      , ((uint32)engine_sensor_adc_UABH_B_L
 146:Generated_Source\PSoC4/engine_sensor_adc.c ****                 ,{engine_sensor_adc_UABH_B_SW_CB_IN0_PTR      , ((uint32)engine_sensor_adc_UABH_B_L
 147:Generated_Source\PSoC4/engine_sensor_adc.c ****                 ,{engine_sensor_adc_UABH_B_SW_CB_IN1_PTR      , ((uint32)engine_sensor_adc_UABH_B_L
 148:Generated_Source\PSoC4/engine_sensor_adc.c ****                 ,{engine_sensor_adc_UABH_B_SW_CB_TOP_PTR      , ((uint32)engine_sensor_adc_UABH_B_L
 149:Generated_Source\PSoC4/engine_sensor_adc.c ****                 ,{engine_sensor_adc_UABH_B_SW_CC_IN0_PTR      , ((uint32)engine_sensor_adc_UABH_B_L
 150:Generated_Source\PSoC4/engine_sensor_adc.c ****                 ,{engine_sensor_adc_UABH_B_SW_CC_IN1_PTR      , ((uint32)engine_sensor_adc_UABH_B_L
 151:Generated_Source\PSoC4/engine_sensor_adc.c ****                 ,{engine_sensor_adc_UABH_B_SW_CF_BOT_PTR      , ((uint32)engine_sensor_adc_UABH_B_L
 152:Generated_Source\PSoC4/engine_sensor_adc.c ****                 
 153:Generated_Source\PSoC4/engine_sensor_adc.c ****                 /* Parameter-based registers */
 154:Generated_Source\PSoC4/engine_sensor_adc.c ****                 ,{engine_sensor_adc_UABH_B_CAP_CTRL_PTR       , ((uint32)engine_sensor_adc_CFG0_UAB
 155:Generated_Source\PSoC4/engine_sensor_adc.c ****                 ,{engine_sensor_adc_UABH_B_SW_CC_TOP_PTR      , ((uint32)engine_sensor_adc_CFG0_UAB
 156:Generated_Source\PSoC4/engine_sensor_adc.c ****                 ,{engine_sensor_adc_UABH_B_CAP_ABCF_VAL_PTR   , ((uint32)engine_sensor_adc_CFG0_UAB
 157:Generated_Source\PSoC4/engine_sensor_adc.c ****             #elif (engine_sensor_adc_CFG0_FILTERTYPE_USED == engine_sensor_adc_FILTERTOPOLOGY_HIGH_
 158:Generated_Source\PSoC4/engine_sensor_adc.c ****             	/* Filter-invariant registers */
 159:Generated_Source\PSoC4/engine_sensor_adc.c ****                 ,{engine_sensor_adc_UABH_B_SW_CA_IN0_PTR      , ((uint32)engine_sensor_adc_UABH_B_H
 160:Generated_Source\PSoC4/engine_sensor_adc.c ****                 ,{engine_sensor_adc_UABH_B_SW_CA_IN1_PTR      , ((uint32)engine_sensor_adc_UABH_B_H
 161:Generated_Source\PSoC4/engine_sensor_adc.c ****                 ,{engine_sensor_adc_UABH_B_SW_CA_TOP_PTR      , ((uint32)engine_sensor_adc_UABH_B_H
 162:Generated_Source\PSoC4/engine_sensor_adc.c ****                 ,{engine_sensor_adc_UABH_B_SW_CB_IN0_PTR      , ((uint32)engine_sensor_adc_UABH_B_H
 163:Generated_Source\PSoC4/engine_sensor_adc.c ****                 ,{engine_sensor_adc_UABH_B_SW_CB_IN1_PTR      , ((uint32)engine_sensor_adc_UABH_B_H
 164:Generated_Source\PSoC4/engine_sensor_adc.c ****                 ,{engine_sensor_adc_UABH_B_SW_CC_IN0_PTR      , ((uint32)engine_sensor_adc_UABH_B_H
 165:Generated_Source\PSoC4/engine_sensor_adc.c ****                 ,{engine_sensor_adc_UABH_B_SW_CC_IN1_PTR      , ((uint32)engine_sensor_adc_UABH_B_H
 166:Generated_Source\PSoC4/engine_sensor_adc.c ****                 ,{engine_sensor_adc_UABH_B_SW_CF_BOT_PTR      , ((uint32)engine_sensor_adc_UABH_B_H
 167:Generated_Source\PSoC4/engine_sensor_adc.c ****                 
 168:Generated_Source\PSoC4/engine_sensor_adc.c ****                 /* Parameter-based registers */
 169:Generated_Source\PSoC4/engine_sensor_adc.c ****                 ,{engine_sensor_adc_UABH_B_CAP_CTRL_PTR       , ((uint32)engine_sensor_adc_CFG0_UAB
 170:Generated_Source\PSoC4/engine_sensor_adc.c ****                 ,{engine_sensor_adc_UABH_B_SW_CB_TOP_PTR      , ((uint32)engine_sensor_adc_CFG0_UAB
 171:Generated_Source\PSoC4/engine_sensor_adc.c ****                 ,{engine_sensor_adc_UABH_B_SW_CC_TOP_PTR      , ((uint32)engine_sensor_adc_CFG0_UAB
 172:Generated_Source\PSoC4/engine_sensor_adc.c ****                 ,{engine_sensor_adc_UABH_B_CAP_ABCF_VAL_PTR   , ((uint32)engine_sensor_adc_CFG0_UAB
 173:Generated_Source\PSoC4/engine_sensor_adc.c ****             #endif /* #if (engine_sensor_adc_CFG0_FILTERTYPE_USED == engine_sensor_adc_FILTERTOPOLO
 174:Generated_Source\PSoC4/engine_sensor_adc.c ****         };
 175:Generated_Source\PSoC4/engine_sensor_adc.c **** 
 176:Generated_Source\PSoC4/engine_sensor_adc.c ****         static CyUAB_config engine_sensor_adc_CFG0_UABH_A_FILTER_config = {
 177:Generated_Source\PSoC4/engine_sensor_adc.c ****             engine_sensor_adc_UABH_A_waveConfig,
 178:Generated_Source\PSoC4/engine_sensor_adc.c ****             engine_sensor_adc_CFG0_UABH_A_FILTER_initPairs,
 179:Generated_Source\PSoC4/engine_sensor_adc.c ****             CyUAB_SHARED_SW_CFG(engine_sensor_adc_UABH_A_PARAM_REF_TIED,engine_sensor_adc_UABH_A_PA
 180:Generated_Source\PSoC4/engine_sensor_adc.c ****                 engine_sensor_adc_UABH_A_PARAM_SW_CC,engine_sensor_adc_UABH_A_PARAM_SW_BB,engine_se
 181:Generated_Source\PSoC4/engine_sensor_adc.c ****             engine_sensor_adc_UABH_A_NUM_STEPS,
 182:Generated_Source\PSoC4/engine_sensor_adc.c ****             (uint8)(engine_sensor_adc_UABH_A_ELEMENT_COUNT(engine_sensor_adc_CFG0_UABH_A_FILTER_ini
 183:Generated_Source\PSoC4/engine_sensor_adc.c ****         };
 184:Generated_Source\PSoC4/engine_sensor_adc.c **** 
 185:Generated_Source\PSoC4/engine_sensor_adc.c ****         static CyUAB_config engine_sensor_adc_CFG0_UABH_B_FILTER_config = {
 186:Generated_Source\PSoC4/engine_sensor_adc.c ****         engine_sensor_adc_UABH_B_waveConfig,
 187:Generated_Source\PSoC4/engine_sensor_adc.c ****         engine_sensor_adc_CFG0_UABH_B_FILTER_initPairs,
 188:Generated_Source\PSoC4/engine_sensor_adc.c ****         CyUAB_SHARED_SW_CFG(engine_sensor_adc_UABH_B_PARAM_REF_TIED,engine_sensor_adc_UABH_B_PARAM_
 189:Generated_Source\PSoC4/engine_sensor_adc.c ****             engine_sensor_adc_UABH_B_PARAM_SW_CC,engine_sensor_adc_UABH_B_PARAM_SW_BB,engine_sensor
 190:Generated_Source\PSoC4/engine_sensor_adc.c ****         engine_sensor_adc_UABH_B_NUM_STEPS,
 191:Generated_Source\PSoC4/engine_sensor_adc.c ****         (uint8)(engine_sensor_adc_UABH_B_ELEMENT_COUNT(engine_sensor_adc_CFG0_UABH_B_FILTER_initPai
 192:Generated_Source\PSoC4/engine_sensor_adc.c ****     };
 193:Generated_Source\PSoC4/engine_sensor_adc.c ****     #endif /* (0u != engine_sensor_adc_CFG0_FILTER_PRESENT) */
 194:Generated_Source\PSoC4/engine_sensor_adc.c ****     #if (0u != engine_sensor_adc_CFG1_FILTER_PRESENT)
ARM GAS  C:\Users\fneves\AppData\Local\Temp\ccV5UskS.s 			page 7


 195:Generated_Source\PSoC4/engine_sensor_adc.c ****         #define engine_sensor_adc_CFG1_UABH_A_FILTER_INITPAIRSSIZE ((engine_sensor_adc_CFG1_FILTERT
 196:Generated_Source\PSoC4/engine_sensor_adc.c ****                                                              ? 18u \
 197:Generated_Source\PSoC4/engine_sensor_adc.c ****                                                              : 18u)
 198:Generated_Source\PSoC4/engine_sensor_adc.c ****         static CyUAB_reg_pair engine_sensor_adc_CFG1_UABH_A_FILTER_initPairs[engine_sensor_adc_CFG1
 199:Generated_Source\PSoC4/engine_sensor_adc.c ****         {
 200:Generated_Source\PSoC4/engine_sensor_adc.c ****         	/*OA_CTRL default always first element in initPairs*/
 201:Generated_Source\PSoC4/engine_sensor_adc.c ****             /* Topology-invariant registers */
 202:Generated_Source\PSoC4/engine_sensor_adc.c ****              {engine_sensor_adc_UABH_A_OA_CTRL_PTR        , ((uint32)engine_sensor_adc_UABH_A_DEFAU
 203:Generated_Source\PSoC4/engine_sensor_adc.c ****             ,{engine_sensor_adc_UABH_A_SW_STATIC_PTR      , ((uint32)engine_sensor_adc_UABH_A_DEFAU
 204:Generated_Source\PSoC4/engine_sensor_adc.c ****             ,{engine_sensor_adc_UABH_A_SW_MODBIT_SRC_PTR      , ((uint32)engine_sensor_adc_UABH_A_I
 205:Generated_Source\PSoC4/engine_sensor_adc.c ****             ,{engine_sensor_adc_UABH_A_SRAM_CTRL_PTR      , ((uint32)engine_sensor_adc_UABH_A_INVAR
 206:Generated_Source\PSoC4/engine_sensor_adc.c ****             ,{engine_sensor_adc_UABH_A_STARTUP_DELAY_PTR  , ((uint32)engine_sensor_adc_CFG1_UABH_A_
 207:Generated_Source\PSoC4/engine_sensor_adc.c ****             ,{engine_sensor_adc_UABH_A_SW_BOOST_CTRL_PTR  , ((uint32)engine_sensor_adc_UABH_A_DEFAU
 208:Generated_Source\PSoC4/engine_sensor_adc.c ****             ,{engine_sensor_adc_UABH_A_SW_OTHER_PTR  , ((uint32)engine_sensor_adc_UABH_A_DEFAULT_SW
 209:Generated_Source\PSoC4/engine_sensor_adc.c ****             
 210:Generated_Source\PSoC4/engine_sensor_adc.c ****             #if (engine_sensor_adc_CFG1_FILTERTYPE_USED == engine_sensor_adc_FILTERTOPOLOGY_LOW_Q)
 211:Generated_Source\PSoC4/engine_sensor_adc.c ****                 /* Filter-invariant registers */
 212:Generated_Source\PSoC4/engine_sensor_adc.c ****                 ,{engine_sensor_adc_UABH_A_SW_CA_IN0_PTR      , ((uint32)engine_sensor_adc_UABH_A_L
 213:Generated_Source\PSoC4/engine_sensor_adc.c ****                 ,{engine_sensor_adc_UABH_A_SW_CA_TOP_PTR      , ((uint32)engine_sensor_adc_UABH_A_L
 214:Generated_Source\PSoC4/engine_sensor_adc.c ****                 ,{engine_sensor_adc_UABH_A_SW_CC_IN0_PTR      , ((uint32)engine_sensor_adc_UABH_A_L
 215:Generated_Source\PSoC4/engine_sensor_adc.c ****                 ,{engine_sensor_adc_UABH_A_SW_CC_IN1_PTR      , ((uint32)engine_sensor_adc_UABH_A_L
 216:Generated_Source\PSoC4/engine_sensor_adc.c ****                 ,{engine_sensor_adc_UABH_A_SW_CF_BOT_PTR      , ((uint32)engine_sensor_adc_UABH_A_L
 217:Generated_Source\PSoC4/engine_sensor_adc.c **** 
 218:Generated_Source\PSoC4/engine_sensor_adc.c ****                 /* Parameter-based registers */
 219:Generated_Source\PSoC4/engine_sensor_adc.c ****                 ,{engine_sensor_adc_UABH_A_CAP_CTRL_PTR       , ((uint32)engine_sensor_adc_CFG1_UAB
 220:Generated_Source\PSoC4/engine_sensor_adc.c ****                 ,{engine_sensor_adc_UABH_A_SW_CB_IN0_PTR      , ((uint32)engine_sensor_adc_CFG1_UAB
 221:Generated_Source\PSoC4/engine_sensor_adc.c ****                 ,{engine_sensor_adc_UABH_A_SW_CB_IN1_PTR      , ((uint32)engine_sensor_adc_CFG1_UAB
 222:Generated_Source\PSoC4/engine_sensor_adc.c ****                 ,{engine_sensor_adc_UABH_A_SW_CB_TOP_PTR      , ((uint32)engine_sensor_adc_CFG1_UAB
 223:Generated_Source\PSoC4/engine_sensor_adc.c ****                 ,{engine_sensor_adc_UABH_A_SW_CC_TOP_PTR      , ((uint32)engine_sensor_adc_CFG1_UAB
 224:Generated_Source\PSoC4/engine_sensor_adc.c ****                 ,{engine_sensor_adc_UABH_A_CAP_ABCF_VAL_PTR   , ((uint32)engine_sensor_adc_CFG1_UAB
 225:Generated_Source\PSoC4/engine_sensor_adc.c ****             #elif (engine_sensor_adc_CFG1_FILTERTYPE_USED == engine_sensor_adc_FILTERTOPOLOGY_HIGH_
 226:Generated_Source\PSoC4/engine_sensor_adc.c ****                 /* Filter-invariant registers */
 227:Generated_Source\PSoC4/engine_sensor_adc.c ****                 ,{engine_sensor_adc_UABH_A_SW_CA_IN0_PTR      , ((uint32)engine_sensor_adc_UABH_A_H
 228:Generated_Source\PSoC4/engine_sensor_adc.c ****                 ,{engine_sensor_adc_UABH_A_SW_CA_TOP_PTR      , ((uint32)engine_sensor_adc_UABH_A_H
 229:Generated_Source\PSoC4/engine_sensor_adc.c ****                 ,{engine_sensor_adc_UABH_A_SW_CB_IN0_PTR      , ((uint32)engine_sensor_adc_UABH_A_H
 230:Generated_Source\PSoC4/engine_sensor_adc.c ****                 ,{engine_sensor_adc_UABH_A_SW_CB_IN1_PTR      , ((uint32)engine_sensor_adc_UABH_A_H
 231:Generated_Source\PSoC4/engine_sensor_adc.c ****                 ,{engine_sensor_adc_UABH_A_SW_CC_IN0_PTR      , ((uint32)engine_sensor_adc_UABH_A_H
 232:Generated_Source\PSoC4/engine_sensor_adc.c ****                 ,{engine_sensor_adc_UABH_A_SW_CC_IN1_PTR      , ((uint32)engine_sensor_adc_UABH_A_H
 233:Generated_Source\PSoC4/engine_sensor_adc.c ****                 ,{engine_sensor_adc_UABH_A_SW_CC_TOP_PTR      , ((uint32)engine_sensor_adc_UABH_A_H
 234:Generated_Source\PSoC4/engine_sensor_adc.c ****                 ,{engine_sensor_adc_UABH_A_SW_CF_BOT_PTR      , ((uint32)engine_sensor_adc_UABH_A_H
 235:Generated_Source\PSoC4/engine_sensor_adc.c **** 
 236:Generated_Source\PSoC4/engine_sensor_adc.c ****                 /* Parameter-based registers */
 237:Generated_Source\PSoC4/engine_sensor_adc.c ****                 ,{engine_sensor_adc_UABH_A_CAP_CTRL_PTR       , ((uint32)engine_sensor_adc_CFG1_UAB
 238:Generated_Source\PSoC4/engine_sensor_adc.c ****                 ,{engine_sensor_adc_UABH_A_SW_CB_TOP_PTR      , ((uint32)engine_sensor_adc_CFG1_UAB
 239:Generated_Source\PSoC4/engine_sensor_adc.c ****                 ,{engine_sensor_adc_UABH_A_CAP_ABCF_VAL_PTR   , ((uint32)engine_sensor_adc_CFG1_UAB
 240:Generated_Source\PSoC4/engine_sensor_adc.c ****             #endif /* (engine_sensor_adc_CFG1_FILTERTYPE_USED == engine_sensor_adc_FILTERTOPOLOGY_L
 241:Generated_Source\PSoC4/engine_sensor_adc.c ****         };
 242:Generated_Source\PSoC4/engine_sensor_adc.c **** 
 243:Generated_Source\PSoC4/engine_sensor_adc.c ****         #define engine_sensor_adc_CFG1_UABH_B_FILTER_INITPAIRSSIZE ((engine_sensor_adc_CFG1_FILTERT
 244:Generated_Source\PSoC4/engine_sensor_adc.c ****                                                              ? 19u \
 245:Generated_Source\PSoC4/engine_sensor_adc.c ****                                                              : 19u)
 246:Generated_Source\PSoC4/engine_sensor_adc.c ****         static CyUAB_reg_pair engine_sensor_adc_CFG1_UABH_B_FILTER_initPairs[engine_sensor_adc_CFG1
 247:Generated_Source\PSoC4/engine_sensor_adc.c ****         {
 248:Generated_Source\PSoC4/engine_sensor_adc.c ****             /*OA_CTRL default always first element in initPairs*/
 249:Generated_Source\PSoC4/engine_sensor_adc.c ****             /* Topology-invariant registers */
 250:Generated_Source\PSoC4/engine_sensor_adc.c ****              {engine_sensor_adc_UABH_B_OA_CTRL_PTR        , ((uint32)engine_sensor_adc_UABH_B_DEFAU
 251:Generated_Source\PSoC4/engine_sensor_adc.c ****             ,{engine_sensor_adc_UABH_B_SW_STATIC_PTR      , ((uint32)engine_sensor_adc_UABH_B_DEFAU
ARM GAS  C:\Users\fneves\AppData\Local\Temp\ccV5UskS.s 			page 8


 252:Generated_Source\PSoC4/engine_sensor_adc.c ****             ,{engine_sensor_adc_UABH_B_SW_MODBIT_SRC_PTR  , ((uint32)engine_sensor_adc_UABH_B_INVAR
 253:Generated_Source\PSoC4/engine_sensor_adc.c ****             ,{engine_sensor_adc_UABH_B_SRAM_CTRL_PTR      , ((uint32)engine_sensor_adc_UABH_B_INVAR
 254:Generated_Source\PSoC4/engine_sensor_adc.c ****             ,{engine_sensor_adc_UABH_B_STARTUP_DELAY_PTR  , ((uint32)engine_sensor_adc_CFG1_UABH_B_
 255:Generated_Source\PSoC4/engine_sensor_adc.c ****             ,{engine_sensor_adc_UABH_B_SW_BOOST_CTRL_PTR  , ((uint32)engine_sensor_adc_UABH_B_DEFAU
 256:Generated_Source\PSoC4/engine_sensor_adc.c ****             ,{engine_sensor_adc_UABH_B_SW_OTHER_PTR  , ((uint32)engine_sensor_adc_UABH_B_DEFAULT_SW
 257:Generated_Source\PSoC4/engine_sensor_adc.c ****             
 258:Generated_Source\PSoC4/engine_sensor_adc.c ****             #if (engine_sensor_adc_CFG1_FILTERTYPE_USED == engine_sensor_adc_FILTERTOPOLOGY_LOW_Q)
 259:Generated_Source\PSoC4/engine_sensor_adc.c ****                     	/* Filter-invariant registers */
 260:Generated_Source\PSoC4/engine_sensor_adc.c ****                 ,{engine_sensor_adc_UABH_B_SW_CA_IN0_PTR      , ((uint32)engine_sensor_adc_UABH_B_L
 261:Generated_Source\PSoC4/engine_sensor_adc.c ****                 ,{engine_sensor_adc_UABH_B_SW_CA_IN1_PTR      , ((uint32)engine_sensor_adc_UABH_B_L
 262:Generated_Source\PSoC4/engine_sensor_adc.c ****                 ,{engine_sensor_adc_UABH_B_SW_CA_TOP_PTR      , ((uint32)engine_sensor_adc_UABH_B_L
 263:Generated_Source\PSoC4/engine_sensor_adc.c ****                 ,{engine_sensor_adc_UABH_B_SW_CB_IN0_PTR      , ((uint32)engine_sensor_adc_UABH_B_L
 264:Generated_Source\PSoC4/engine_sensor_adc.c ****                 ,{engine_sensor_adc_UABH_B_SW_CB_IN1_PTR      , ((uint32)engine_sensor_adc_UABH_B_L
 265:Generated_Source\PSoC4/engine_sensor_adc.c ****                 ,{engine_sensor_adc_UABH_B_SW_CB_TOP_PTR      , ((uint32)engine_sensor_adc_UABH_B_L
 266:Generated_Source\PSoC4/engine_sensor_adc.c ****                 ,{engine_sensor_adc_UABH_B_SW_CC_IN0_PTR      , ((uint32)engine_sensor_adc_UABH_B_L
 267:Generated_Source\PSoC4/engine_sensor_adc.c ****                 ,{engine_sensor_adc_UABH_B_SW_CC_IN1_PTR      , ((uint32)engine_sensor_adc_UABH_B_L
 268:Generated_Source\PSoC4/engine_sensor_adc.c ****                 ,{engine_sensor_adc_UABH_B_SW_CF_BOT_PTR      , ((uint32)engine_sensor_adc_UABH_B_L
 269:Generated_Source\PSoC4/engine_sensor_adc.c ****                 
 270:Generated_Source\PSoC4/engine_sensor_adc.c ****                 /* Parameter-based registers */
 271:Generated_Source\PSoC4/engine_sensor_adc.c ****                 ,{engine_sensor_adc_UABH_B_CAP_CTRL_PTR       , ((uint32)engine_sensor_adc_CFG1_UAB
 272:Generated_Source\PSoC4/engine_sensor_adc.c ****                 ,{engine_sensor_adc_UABH_B_SW_CC_TOP_PTR      , ((uint32)engine_sensor_adc_CFG1_UAB
 273:Generated_Source\PSoC4/engine_sensor_adc.c ****                 ,{engine_sensor_adc_UABH_B_CAP_ABCF_VAL_PTR   , ((uint32)engine_sensor_adc_CFG1_UAB
 274:Generated_Source\PSoC4/engine_sensor_adc.c ****             #elif (engine_sensor_adc_CFG1_FILTERTYPE_USED == engine_sensor_adc_FILTERTOPOLOGY_HIGH_
 275:Generated_Source\PSoC4/engine_sensor_adc.c ****             	/* Filter-invariant registers */
 276:Generated_Source\PSoC4/engine_sensor_adc.c ****                 ,{engine_sensor_adc_UABH_B_SW_CA_IN0_PTR      , ((uint32)engine_sensor_adc_UABH_B_H
 277:Generated_Source\PSoC4/engine_sensor_adc.c ****                 ,{engine_sensor_adc_UABH_B_SW_CA_IN1_PTR      , ((uint32)engine_sensor_adc_UABH_B_H
 278:Generated_Source\PSoC4/engine_sensor_adc.c ****                 ,{engine_sensor_adc_UABH_B_SW_CA_TOP_PTR      , ((uint32)engine_sensor_adc_UABH_B_H
 279:Generated_Source\PSoC4/engine_sensor_adc.c ****                 ,{engine_sensor_adc_UABH_B_SW_CB_IN0_PTR      , ((uint32)engine_sensor_adc_UABH_B_H
 280:Generated_Source\PSoC4/engine_sensor_adc.c ****                 ,{engine_sensor_adc_UABH_B_SW_CB_IN1_PTR      , ((uint32)engine_sensor_adc_UABH_B_H
 281:Generated_Source\PSoC4/engine_sensor_adc.c ****                 ,{engine_sensor_adc_UABH_B_SW_CC_IN0_PTR      , ((uint32)engine_sensor_adc_UABH_B_H
 282:Generated_Source\PSoC4/engine_sensor_adc.c ****                 ,{engine_sensor_adc_UABH_B_SW_CC_IN1_PTR      , ((uint32)engine_sensor_adc_UABH_B_H
 283:Generated_Source\PSoC4/engine_sensor_adc.c ****                 ,{engine_sensor_adc_UABH_B_SW_CF_BOT_PTR      , ((uint32)engine_sensor_adc_UABH_B_H
 284:Generated_Source\PSoC4/engine_sensor_adc.c ****                 
 285:Generated_Source\PSoC4/engine_sensor_adc.c ****                 /* Parameter-based registers */
 286:Generated_Source\PSoC4/engine_sensor_adc.c ****                 ,{engine_sensor_adc_UABH_B_CAP_CTRL_PTR       , ((uint32)engine_sensor_adc_CFG1_UAB
 287:Generated_Source\PSoC4/engine_sensor_adc.c ****                 ,{engine_sensor_adc_UABH_B_SW_CB_TOP_PTR      , ((uint32)engine_sensor_adc_CFG1_UAB
 288:Generated_Source\PSoC4/engine_sensor_adc.c ****                 ,{engine_sensor_adc_UABH_B_SW_CC_TOP_PTR      , ((uint32)engine_sensor_adc_CFG1_UAB
 289:Generated_Source\PSoC4/engine_sensor_adc.c ****                 ,{engine_sensor_adc_UABH_B_CAP_ABCF_VAL_PTR   , ((uint32)engine_sensor_adc_CFG1_UAB
 290:Generated_Source\PSoC4/engine_sensor_adc.c ****             #endif /* #if (engine_sensor_adc_CFG1_FILTERTYPE_USED == engine_sensor_adc_FILTERTOPOLO
 291:Generated_Source\PSoC4/engine_sensor_adc.c ****         };
 292:Generated_Source\PSoC4/engine_sensor_adc.c **** 
 293:Generated_Source\PSoC4/engine_sensor_adc.c ****         static CyUAB_config engine_sensor_adc_CFG1_UABH_A_FILTER_config = {
 294:Generated_Source\PSoC4/engine_sensor_adc.c ****             engine_sensor_adc_UABH_A_waveConfig,
 295:Generated_Source\PSoC4/engine_sensor_adc.c ****             engine_sensor_adc_CFG1_UABH_A_FILTER_initPairs,
 296:Generated_Source\PSoC4/engine_sensor_adc.c ****             CyUAB_SHARED_SW_CFG(engine_sensor_adc_UABH_A_PARAM_REF_TIED,engine_sensor_adc_UABH_A_PA
 297:Generated_Source\PSoC4/engine_sensor_adc.c ****                 engine_sensor_adc_UABH_A_PARAM_SW_CC,engine_sensor_adc_UABH_A_PARAM_SW_BB,engine_se
 298:Generated_Source\PSoC4/engine_sensor_adc.c ****             engine_sensor_adc_UABH_A_NUM_STEPS,
 299:Generated_Source\PSoC4/engine_sensor_adc.c ****             (uint8)(engine_sensor_adc_UABH_A_ELEMENT_COUNT(engine_sensor_adc_CFG1_UABH_A_FILTER_ini
 300:Generated_Source\PSoC4/engine_sensor_adc.c ****         };
 301:Generated_Source\PSoC4/engine_sensor_adc.c **** 
 302:Generated_Source\PSoC4/engine_sensor_adc.c ****         static CyUAB_config engine_sensor_adc_CFG1_UABH_B_FILTER_config = {
 303:Generated_Source\PSoC4/engine_sensor_adc.c ****         engine_sensor_adc_UABH_B_waveConfig,
 304:Generated_Source\PSoC4/engine_sensor_adc.c ****         engine_sensor_adc_CFG1_UABH_B_FILTER_initPairs,
 305:Generated_Source\PSoC4/engine_sensor_adc.c ****         CyUAB_SHARED_SW_CFG(engine_sensor_adc_UABH_B_PARAM_REF_TIED,engine_sensor_adc_UABH_B_PARAM_
 306:Generated_Source\PSoC4/engine_sensor_adc.c ****             engine_sensor_adc_UABH_B_PARAM_SW_CC,engine_sensor_adc_UABH_B_PARAM_SW_BB,engine_sensor
 307:Generated_Source\PSoC4/engine_sensor_adc.c ****         engine_sensor_adc_UABH_B_NUM_STEPS,
 308:Generated_Source\PSoC4/engine_sensor_adc.c ****         (uint8)(engine_sensor_adc_UABH_B_ELEMENT_COUNT(engine_sensor_adc_CFG1_UABH_B_FILTER_initPai
ARM GAS  C:\Users\fneves\AppData\Local\Temp\ccV5UskS.s 			page 9


 309:Generated_Source\PSoC4/engine_sensor_adc.c ****     };
 310:Generated_Source\PSoC4/engine_sensor_adc.c ****     #endif /* (0u != engine_sensor_adc_CFG1_FILTER_PRESENT) */
 311:Generated_Source\PSoC4/engine_sensor_adc.c ****     #if (0u != engine_sensor_adc_CFG2_FILTER_PRESENT)
 312:Generated_Source\PSoC4/engine_sensor_adc.c ****         #define engine_sensor_adc_CFG2_UABH_A_FILTER_INITPAIRSSIZE ((engine_sensor_adc_CFG2_FILTERT
 313:Generated_Source\PSoC4/engine_sensor_adc.c ****                                                              ? 18u \
 314:Generated_Source\PSoC4/engine_sensor_adc.c ****                                                              : 18u)
 315:Generated_Source\PSoC4/engine_sensor_adc.c ****         static CyUAB_reg_pair engine_sensor_adc_CFG2_UABH_A_FILTER_initPairs[engine_sensor_adc_CFG2
 316:Generated_Source\PSoC4/engine_sensor_adc.c ****         {
 317:Generated_Source\PSoC4/engine_sensor_adc.c ****         	/*OA_CTRL default always first element in initPairs*/
 318:Generated_Source\PSoC4/engine_sensor_adc.c ****             /* Topology-invariant registers */
 319:Generated_Source\PSoC4/engine_sensor_adc.c ****              {engine_sensor_adc_UABH_A_OA_CTRL_PTR        , ((uint32)engine_sensor_adc_UABH_A_DEFAU
 320:Generated_Source\PSoC4/engine_sensor_adc.c ****             ,{engine_sensor_adc_UABH_A_SW_STATIC_PTR      , ((uint32)engine_sensor_adc_UABH_A_DEFAU
 321:Generated_Source\PSoC4/engine_sensor_adc.c ****             ,{engine_sensor_adc_UABH_A_SW_MODBIT_SRC_PTR      , ((uint32)engine_sensor_adc_UABH_A_I
 322:Generated_Source\PSoC4/engine_sensor_adc.c ****             ,{engine_sensor_adc_UABH_A_SRAM_CTRL_PTR      , ((uint32)engine_sensor_adc_UABH_A_INVAR
 323:Generated_Source\PSoC4/engine_sensor_adc.c ****             ,{engine_sensor_adc_UABH_A_STARTUP_DELAY_PTR  , ((uint32)engine_sensor_adc_CFG2_UABH_A_
 324:Generated_Source\PSoC4/engine_sensor_adc.c ****             ,{engine_sensor_adc_UABH_A_SW_BOOST_CTRL_PTR  , ((uint32)engine_sensor_adc_UABH_A_DEFAU
 325:Generated_Source\PSoC4/engine_sensor_adc.c ****             ,{engine_sensor_adc_UABH_A_SW_OTHER_PTR  , ((uint32)engine_sensor_adc_UABH_A_DEFAULT_SW
 326:Generated_Source\PSoC4/engine_sensor_adc.c ****             
 327:Generated_Source\PSoC4/engine_sensor_adc.c ****             #if (engine_sensor_adc_CFG2_FILTERTYPE_USED == engine_sensor_adc_FILTERTOPOLOGY_LOW_Q)
 328:Generated_Source\PSoC4/engine_sensor_adc.c ****                 /* Filter-invariant registers */
 329:Generated_Source\PSoC4/engine_sensor_adc.c ****                 ,{engine_sensor_adc_UABH_A_SW_CA_IN0_PTR      , ((uint32)engine_sensor_adc_UABH_A_L
 330:Generated_Source\PSoC4/engine_sensor_adc.c ****                 ,{engine_sensor_adc_UABH_A_SW_CA_TOP_PTR      , ((uint32)engine_sensor_adc_UABH_A_L
 331:Generated_Source\PSoC4/engine_sensor_adc.c ****                 ,{engine_sensor_adc_UABH_A_SW_CC_IN0_PTR      , ((uint32)engine_sensor_adc_UABH_A_L
 332:Generated_Source\PSoC4/engine_sensor_adc.c ****                 ,{engine_sensor_adc_UABH_A_SW_CC_IN1_PTR      , ((uint32)engine_sensor_adc_UABH_A_L
 333:Generated_Source\PSoC4/engine_sensor_adc.c ****                 ,{engine_sensor_adc_UABH_A_SW_CF_BOT_PTR      , ((uint32)engine_sensor_adc_UABH_A_L
 334:Generated_Source\PSoC4/engine_sensor_adc.c **** 
 335:Generated_Source\PSoC4/engine_sensor_adc.c ****                 /* Parameter-based registers */
 336:Generated_Source\PSoC4/engine_sensor_adc.c ****                 ,{engine_sensor_adc_UABH_A_CAP_CTRL_PTR       , ((uint32)engine_sensor_adc_CFG2_UAB
 337:Generated_Source\PSoC4/engine_sensor_adc.c ****                 ,{engine_sensor_adc_UABH_A_SW_CB_IN0_PTR      , ((uint32)engine_sensor_adc_CFG2_UAB
 338:Generated_Source\PSoC4/engine_sensor_adc.c ****                 ,{engine_sensor_adc_UABH_A_SW_CB_IN1_PTR      , ((uint32)engine_sensor_adc_CFG2_UAB
 339:Generated_Source\PSoC4/engine_sensor_adc.c ****                 ,{engine_sensor_adc_UABH_A_SW_CB_TOP_PTR      , ((uint32)engine_sensor_adc_CFG2_UAB
 340:Generated_Source\PSoC4/engine_sensor_adc.c ****                 ,{engine_sensor_adc_UABH_A_SW_CC_TOP_PTR      , ((uint32)engine_sensor_adc_CFG2_UAB
 341:Generated_Source\PSoC4/engine_sensor_adc.c ****                 ,{engine_sensor_adc_UABH_A_CAP_ABCF_VAL_PTR   , ((uint32)engine_sensor_adc_CFG2_UAB
 342:Generated_Source\PSoC4/engine_sensor_adc.c ****             #elif (engine_sensor_adc_CFG2_FILTERTYPE_USED == engine_sensor_adc_FILTERTOPOLOGY_HIGH_
 343:Generated_Source\PSoC4/engine_sensor_adc.c ****                 /* Filter-invariant registers */
 344:Generated_Source\PSoC4/engine_sensor_adc.c ****                 ,{engine_sensor_adc_UABH_A_SW_CA_IN0_PTR      , ((uint32)engine_sensor_adc_UABH_A_H
 345:Generated_Source\PSoC4/engine_sensor_adc.c ****                 ,{engine_sensor_adc_UABH_A_SW_CA_TOP_PTR      , ((uint32)engine_sensor_adc_UABH_A_H
 346:Generated_Source\PSoC4/engine_sensor_adc.c ****                 ,{engine_sensor_adc_UABH_A_SW_CB_IN0_PTR      , ((uint32)engine_sensor_adc_UABH_A_H
 347:Generated_Source\PSoC4/engine_sensor_adc.c ****                 ,{engine_sensor_adc_UABH_A_SW_CB_IN1_PTR      , ((uint32)engine_sensor_adc_UABH_A_H
 348:Generated_Source\PSoC4/engine_sensor_adc.c ****                 ,{engine_sensor_adc_UABH_A_SW_CC_IN0_PTR      , ((uint32)engine_sensor_adc_UABH_A_H
 349:Generated_Source\PSoC4/engine_sensor_adc.c ****                 ,{engine_sensor_adc_UABH_A_SW_CC_IN1_PTR      , ((uint32)engine_sensor_adc_UABH_A_H
 350:Generated_Source\PSoC4/engine_sensor_adc.c ****                 ,{engine_sensor_adc_UABH_A_SW_CC_TOP_PTR      , ((uint32)engine_sensor_adc_UABH_A_H
 351:Generated_Source\PSoC4/engine_sensor_adc.c ****                 ,{engine_sensor_adc_UABH_A_SW_CF_BOT_PTR      , ((uint32)engine_sensor_adc_UABH_A_H
 352:Generated_Source\PSoC4/engine_sensor_adc.c **** 
 353:Generated_Source\PSoC4/engine_sensor_adc.c ****                 /* Parameter-based registers */
 354:Generated_Source\PSoC4/engine_sensor_adc.c ****                 ,{engine_sensor_adc_UABH_A_CAP_CTRL_PTR       , ((uint32)engine_sensor_adc_CFG2_UAB
 355:Generated_Source\PSoC4/engine_sensor_adc.c ****                 ,{engine_sensor_adc_UABH_A_SW_CB_TOP_PTR      , ((uint32)engine_sensor_adc_CFG2_UAB
 356:Generated_Source\PSoC4/engine_sensor_adc.c ****                 ,{engine_sensor_adc_UABH_A_CAP_ABCF_VAL_PTR   , ((uint32)engine_sensor_adc_CFG2_UAB
 357:Generated_Source\PSoC4/engine_sensor_adc.c ****             #endif /* (engine_sensor_adc_CFG2_FILTERTYPE_USED == engine_sensor_adc_FILTERTOPOLOGY_L
 358:Generated_Source\PSoC4/engine_sensor_adc.c ****         };
 359:Generated_Source\PSoC4/engine_sensor_adc.c **** 
 360:Generated_Source\PSoC4/engine_sensor_adc.c ****         #define engine_sensor_adc_CFG2_UABH_B_FILTER_INITPAIRSSIZE ((engine_sensor_adc_CFG2_FILTERT
 361:Generated_Source\PSoC4/engine_sensor_adc.c ****                                                              ? 19u \
 362:Generated_Source\PSoC4/engine_sensor_adc.c ****                                                              : 19u)
 363:Generated_Source\PSoC4/engine_sensor_adc.c ****         static CyUAB_reg_pair engine_sensor_adc_CFG2_UABH_B_FILTER_initPairs[engine_sensor_adc_CFG2
 364:Generated_Source\PSoC4/engine_sensor_adc.c ****         {
 365:Generated_Source\PSoC4/engine_sensor_adc.c ****             /*OA_CTRL default always first element in initPairs*/
ARM GAS  C:\Users\fneves\AppData\Local\Temp\ccV5UskS.s 			page 10


 366:Generated_Source\PSoC4/engine_sensor_adc.c ****             /* Topology-invariant registers */
 367:Generated_Source\PSoC4/engine_sensor_adc.c ****              {engine_sensor_adc_UABH_B_OA_CTRL_PTR        , ((uint32)engine_sensor_adc_UABH_B_DEFAU
 368:Generated_Source\PSoC4/engine_sensor_adc.c ****             ,{engine_sensor_adc_UABH_B_SW_STATIC_PTR      , ((uint32)engine_sensor_adc_UABH_B_DEFAU
 369:Generated_Source\PSoC4/engine_sensor_adc.c ****             ,{engine_sensor_adc_UABH_B_SW_MODBIT_SRC_PTR  , ((uint32)engine_sensor_adc_UABH_B_INVAR
 370:Generated_Source\PSoC4/engine_sensor_adc.c ****             ,{engine_sensor_adc_UABH_B_SRAM_CTRL_PTR      , ((uint32)engine_sensor_adc_UABH_B_INVAR
 371:Generated_Source\PSoC4/engine_sensor_adc.c ****             ,{engine_sensor_adc_UABH_B_STARTUP_DELAY_PTR  , ((uint32)engine_sensor_adc_CFG2_UABH_B_
 372:Generated_Source\PSoC4/engine_sensor_adc.c ****             ,{engine_sensor_adc_UABH_B_SW_BOOST_CTRL_PTR  , ((uint32)engine_sensor_adc_UABH_B_DEFAU
 373:Generated_Source\PSoC4/engine_sensor_adc.c ****             ,{engine_sensor_adc_UABH_B_SW_OTHER_PTR  , ((uint32)engine_sensor_adc_UABH_B_DEFAULT_SW
 374:Generated_Source\PSoC4/engine_sensor_adc.c ****             
 375:Generated_Source\PSoC4/engine_sensor_adc.c ****             #if (engine_sensor_adc_CFG2_FILTERTYPE_USED == engine_sensor_adc_FILTERTOPOLOGY_LOW_Q)
 376:Generated_Source\PSoC4/engine_sensor_adc.c ****                     	/* Filter-invariant registers */
 377:Generated_Source\PSoC4/engine_sensor_adc.c ****                 ,{engine_sensor_adc_UABH_B_SW_CA_IN0_PTR      , ((uint32)engine_sensor_adc_UABH_B_L
 378:Generated_Source\PSoC4/engine_sensor_adc.c ****                 ,{engine_sensor_adc_UABH_B_SW_CA_IN1_PTR      , ((uint32)engine_sensor_adc_UABH_B_L
 379:Generated_Source\PSoC4/engine_sensor_adc.c ****                 ,{engine_sensor_adc_UABH_B_SW_CA_TOP_PTR      , ((uint32)engine_sensor_adc_UABH_B_L
 380:Generated_Source\PSoC4/engine_sensor_adc.c ****                 ,{engine_sensor_adc_UABH_B_SW_CB_IN0_PTR      , ((uint32)engine_sensor_adc_UABH_B_L
 381:Generated_Source\PSoC4/engine_sensor_adc.c ****                 ,{engine_sensor_adc_UABH_B_SW_CB_IN1_PTR      , ((uint32)engine_sensor_adc_UABH_B_L
 382:Generated_Source\PSoC4/engine_sensor_adc.c ****                 ,{engine_sensor_adc_UABH_B_SW_CB_TOP_PTR      , ((uint32)engine_sensor_adc_UABH_B_L
 383:Generated_Source\PSoC4/engine_sensor_adc.c ****                 ,{engine_sensor_adc_UABH_B_SW_CC_IN0_PTR      , ((uint32)engine_sensor_adc_UABH_B_L
 384:Generated_Source\PSoC4/engine_sensor_adc.c ****                 ,{engine_sensor_adc_UABH_B_SW_CC_IN1_PTR      , ((uint32)engine_sensor_adc_UABH_B_L
 385:Generated_Source\PSoC4/engine_sensor_adc.c ****                 ,{engine_sensor_adc_UABH_B_SW_CF_BOT_PTR      , ((uint32)engine_sensor_adc_UABH_B_L
 386:Generated_Source\PSoC4/engine_sensor_adc.c ****                 
 387:Generated_Source\PSoC4/engine_sensor_adc.c ****                 /* Parameter-based registers */
 388:Generated_Source\PSoC4/engine_sensor_adc.c ****                 ,{engine_sensor_adc_UABH_B_CAP_CTRL_PTR       , ((uint32)engine_sensor_adc_CFG2_UAB
 389:Generated_Source\PSoC4/engine_sensor_adc.c ****                 ,{engine_sensor_adc_UABH_B_SW_CC_TOP_PTR      , ((uint32)engine_sensor_adc_CFG2_UAB
 390:Generated_Source\PSoC4/engine_sensor_adc.c ****                 ,{engine_sensor_adc_UABH_B_CAP_ABCF_VAL_PTR   , ((uint32)engine_sensor_adc_CFG2_UAB
 391:Generated_Source\PSoC4/engine_sensor_adc.c ****             #elif (engine_sensor_adc_CFG2_FILTERTYPE_USED == engine_sensor_adc_FILTERTOPOLOGY_HIGH_
 392:Generated_Source\PSoC4/engine_sensor_adc.c ****             	/* Filter-invariant registers */
 393:Generated_Source\PSoC4/engine_sensor_adc.c ****                 ,{engine_sensor_adc_UABH_B_SW_CA_IN0_PTR      , ((uint32)engine_sensor_adc_UABH_B_H
 394:Generated_Source\PSoC4/engine_sensor_adc.c ****                 ,{engine_sensor_adc_UABH_B_SW_CA_IN1_PTR      , ((uint32)engine_sensor_adc_UABH_B_H
 395:Generated_Source\PSoC4/engine_sensor_adc.c ****                 ,{engine_sensor_adc_UABH_B_SW_CA_TOP_PTR      , ((uint32)engine_sensor_adc_UABH_B_H
 396:Generated_Source\PSoC4/engine_sensor_adc.c ****                 ,{engine_sensor_adc_UABH_B_SW_CB_IN0_PTR      , ((uint32)engine_sensor_adc_UABH_B_H
 397:Generated_Source\PSoC4/engine_sensor_adc.c ****                 ,{engine_sensor_adc_UABH_B_SW_CB_IN1_PTR      , ((uint32)engine_sensor_adc_UABH_B_H
 398:Generated_Source\PSoC4/engine_sensor_adc.c ****                 ,{engine_sensor_adc_UABH_B_SW_CC_IN0_PTR      , ((uint32)engine_sensor_adc_UABH_B_H
 399:Generated_Source\PSoC4/engine_sensor_adc.c ****                 ,{engine_sensor_adc_UABH_B_SW_CC_IN1_PTR      , ((uint32)engine_sensor_adc_UABH_B_H
 400:Generated_Source\PSoC4/engine_sensor_adc.c ****                 ,{engine_sensor_adc_UABH_B_SW_CF_BOT_PTR      , ((uint32)engine_sensor_adc_UABH_B_H
 401:Generated_Source\PSoC4/engine_sensor_adc.c ****                 
 402:Generated_Source\PSoC4/engine_sensor_adc.c ****                 /* Parameter-based registers */
 403:Generated_Source\PSoC4/engine_sensor_adc.c ****                 ,{engine_sensor_adc_UABH_B_CAP_CTRL_PTR       , ((uint32)engine_sensor_adc_CFG2_UAB
 404:Generated_Source\PSoC4/engine_sensor_adc.c ****                 ,{engine_sensor_adc_UABH_B_SW_CB_TOP_PTR      , ((uint32)engine_sensor_adc_CFG2_UAB
 405:Generated_Source\PSoC4/engine_sensor_adc.c ****                 ,{engine_sensor_adc_UABH_B_SW_CC_TOP_PTR      , ((uint32)engine_sensor_adc_CFG2_UAB
 406:Generated_Source\PSoC4/engine_sensor_adc.c ****                 ,{engine_sensor_adc_UABH_B_CAP_ABCF_VAL_PTR   , ((uint32)engine_sensor_adc_CFG2_UAB
 407:Generated_Source\PSoC4/engine_sensor_adc.c ****             #endif /* #if (engine_sensor_adc_CFG2_FILTERTYPE_USED == engine_sensor_adc_FILTERTOPOLO
 408:Generated_Source\PSoC4/engine_sensor_adc.c ****         };
 409:Generated_Source\PSoC4/engine_sensor_adc.c **** 
 410:Generated_Source\PSoC4/engine_sensor_adc.c ****         static CyUAB_config engine_sensor_adc_CFG2_UABH_A_FILTER_config = {
 411:Generated_Source\PSoC4/engine_sensor_adc.c ****             engine_sensor_adc_UABH_A_waveConfig,
 412:Generated_Source\PSoC4/engine_sensor_adc.c ****             engine_sensor_adc_CFG2_UABH_A_FILTER_initPairs,
 413:Generated_Source\PSoC4/engine_sensor_adc.c ****             CyUAB_SHARED_SW_CFG(engine_sensor_adc_UABH_A_PARAM_REF_TIED,engine_sensor_adc_UABH_A_PA
 414:Generated_Source\PSoC4/engine_sensor_adc.c ****                 engine_sensor_adc_UABH_A_PARAM_SW_CC,engine_sensor_adc_UABH_A_PARAM_SW_BB,engine_se
 415:Generated_Source\PSoC4/engine_sensor_adc.c ****             engine_sensor_adc_UABH_A_NUM_STEPS,
 416:Generated_Source\PSoC4/engine_sensor_adc.c ****             (uint8)(engine_sensor_adc_UABH_A_ELEMENT_COUNT(engine_sensor_adc_CFG2_UABH_A_FILTER_ini
 417:Generated_Source\PSoC4/engine_sensor_adc.c ****         };
 418:Generated_Source\PSoC4/engine_sensor_adc.c **** 
 419:Generated_Source\PSoC4/engine_sensor_adc.c ****         static CyUAB_config engine_sensor_adc_CFG2_UABH_B_FILTER_config = {
 420:Generated_Source\PSoC4/engine_sensor_adc.c ****         engine_sensor_adc_UABH_B_waveConfig,
 421:Generated_Source\PSoC4/engine_sensor_adc.c ****         engine_sensor_adc_CFG2_UABH_B_FILTER_initPairs,
 422:Generated_Source\PSoC4/engine_sensor_adc.c ****         CyUAB_SHARED_SW_CFG(engine_sensor_adc_UABH_B_PARAM_REF_TIED,engine_sensor_adc_UABH_B_PARAM_
ARM GAS  C:\Users\fneves\AppData\Local\Temp\ccV5UskS.s 			page 11


 423:Generated_Source\PSoC4/engine_sensor_adc.c ****             engine_sensor_adc_UABH_B_PARAM_SW_CC,engine_sensor_adc_UABH_B_PARAM_SW_BB,engine_sensor
 424:Generated_Source\PSoC4/engine_sensor_adc.c ****         engine_sensor_adc_UABH_B_NUM_STEPS,
 425:Generated_Source\PSoC4/engine_sensor_adc.c ****         (uint8)(engine_sensor_adc_UABH_B_ELEMENT_COUNT(engine_sensor_adc_CFG2_UABH_B_FILTER_initPai
 426:Generated_Source\PSoC4/engine_sensor_adc.c ****     };
 427:Generated_Source\PSoC4/engine_sensor_adc.c ****     #endif /* (0u != engine_sensor_adc_CFG2_FILTER_PRESENT) */
 428:Generated_Source\PSoC4/engine_sensor_adc.c ****     #if (0u != engine_sensor_adc_CFG3_FILTER_PRESENT)
 429:Generated_Source\PSoC4/engine_sensor_adc.c ****         #define engine_sensor_adc_CFG3_UABH_A_FILTER_INITPAIRSSIZE ((engine_sensor_adc_CFG3_FILTERT
 430:Generated_Source\PSoC4/engine_sensor_adc.c ****                                                              ? 18u \
 431:Generated_Source\PSoC4/engine_sensor_adc.c ****                                                              : 18u)
 432:Generated_Source\PSoC4/engine_sensor_adc.c ****         static CyUAB_reg_pair engine_sensor_adc_CFG3_UABH_A_FILTER_initPairs[engine_sensor_adc_CFG3
 433:Generated_Source\PSoC4/engine_sensor_adc.c ****         {
 434:Generated_Source\PSoC4/engine_sensor_adc.c ****         	/*OA_CTRL default always first element in initPairs*/
 435:Generated_Source\PSoC4/engine_sensor_adc.c ****             /* Topology-invariant registers */
 436:Generated_Source\PSoC4/engine_sensor_adc.c ****              {engine_sensor_adc_UABH_A_OA_CTRL_PTR        , ((uint32)engine_sensor_adc_UABH_A_DEFAU
 437:Generated_Source\PSoC4/engine_sensor_adc.c ****             ,{engine_sensor_adc_UABH_A_SW_STATIC_PTR      , ((uint32)engine_sensor_adc_UABH_A_DEFAU
 438:Generated_Source\PSoC4/engine_sensor_adc.c ****             ,{engine_sensor_adc_UABH_A_SW_MODBIT_SRC_PTR      , ((uint32)engine_sensor_adc_UABH_A_I
 439:Generated_Source\PSoC4/engine_sensor_adc.c ****             ,{engine_sensor_adc_UABH_A_SRAM_CTRL_PTR      , ((uint32)engine_sensor_adc_UABH_A_INVAR
 440:Generated_Source\PSoC4/engine_sensor_adc.c ****             ,{engine_sensor_adc_UABH_A_STARTUP_DELAY_PTR  , ((uint32)engine_sensor_adc_CFG3_UABH_A_
 441:Generated_Source\PSoC4/engine_sensor_adc.c ****             ,{engine_sensor_adc_UABH_A_SW_BOOST_CTRL_PTR  , ((uint32)engine_sensor_adc_UABH_A_DEFAU
 442:Generated_Source\PSoC4/engine_sensor_adc.c ****             ,{engine_sensor_adc_UABH_A_SW_OTHER_PTR  , ((uint32)engine_sensor_adc_UABH_A_DEFAULT_SW
 443:Generated_Source\PSoC4/engine_sensor_adc.c ****             
 444:Generated_Source\PSoC4/engine_sensor_adc.c ****             #if (engine_sensor_adc_CFG3_FILTERTYPE_USED == engine_sensor_adc_FILTERTOPOLOGY_LOW_Q)
 445:Generated_Source\PSoC4/engine_sensor_adc.c ****                 /* Filter-invariant registers */
 446:Generated_Source\PSoC4/engine_sensor_adc.c ****                 ,{engine_sensor_adc_UABH_A_SW_CA_IN0_PTR      , ((uint32)engine_sensor_adc_UABH_A_L
 447:Generated_Source\PSoC4/engine_sensor_adc.c ****                 ,{engine_sensor_adc_UABH_A_SW_CA_TOP_PTR      , ((uint32)engine_sensor_adc_UABH_A_L
 448:Generated_Source\PSoC4/engine_sensor_adc.c ****                 ,{engine_sensor_adc_UABH_A_SW_CC_IN0_PTR      , ((uint32)engine_sensor_adc_UABH_A_L
 449:Generated_Source\PSoC4/engine_sensor_adc.c ****                 ,{engine_sensor_adc_UABH_A_SW_CC_IN1_PTR      , ((uint32)engine_sensor_adc_UABH_A_L
 450:Generated_Source\PSoC4/engine_sensor_adc.c ****                 ,{engine_sensor_adc_UABH_A_SW_CF_BOT_PTR      , ((uint32)engine_sensor_adc_UABH_A_L
 451:Generated_Source\PSoC4/engine_sensor_adc.c **** 
 452:Generated_Source\PSoC4/engine_sensor_adc.c ****                 /* Parameter-based registers */
 453:Generated_Source\PSoC4/engine_sensor_adc.c ****                 ,{engine_sensor_adc_UABH_A_CAP_CTRL_PTR       , ((uint32)engine_sensor_adc_CFG3_UAB
 454:Generated_Source\PSoC4/engine_sensor_adc.c ****                 ,{engine_sensor_adc_UABH_A_SW_CB_IN0_PTR      , ((uint32)engine_sensor_adc_CFG3_UAB
 455:Generated_Source\PSoC4/engine_sensor_adc.c ****                 ,{engine_sensor_adc_UABH_A_SW_CB_IN1_PTR      , ((uint32)engine_sensor_adc_CFG3_UAB
 456:Generated_Source\PSoC4/engine_sensor_adc.c ****                 ,{engine_sensor_adc_UABH_A_SW_CB_TOP_PTR      , ((uint32)engine_sensor_adc_CFG3_UAB
 457:Generated_Source\PSoC4/engine_sensor_adc.c ****                 ,{engine_sensor_adc_UABH_A_SW_CC_TOP_PTR      , ((uint32)engine_sensor_adc_CFG3_UAB
 458:Generated_Source\PSoC4/engine_sensor_adc.c ****                 ,{engine_sensor_adc_UABH_A_CAP_ABCF_VAL_PTR   , ((uint32)engine_sensor_adc_CFG3_UAB
 459:Generated_Source\PSoC4/engine_sensor_adc.c ****             #elif (engine_sensor_adc_CFG3_FILTERTYPE_USED == engine_sensor_adc_FILTERTOPOLOGY_HIGH_
 460:Generated_Source\PSoC4/engine_sensor_adc.c ****                 /* Filter-invariant registers */
 461:Generated_Source\PSoC4/engine_sensor_adc.c ****                 ,{engine_sensor_adc_UABH_A_SW_CA_IN0_PTR      , ((uint32)engine_sensor_adc_UABH_A_H
 462:Generated_Source\PSoC4/engine_sensor_adc.c ****                 ,{engine_sensor_adc_UABH_A_SW_CA_TOP_PTR      , ((uint32)engine_sensor_adc_UABH_A_H
 463:Generated_Source\PSoC4/engine_sensor_adc.c ****                 ,{engine_sensor_adc_UABH_A_SW_CB_IN0_PTR      , ((uint32)engine_sensor_adc_UABH_A_H
 464:Generated_Source\PSoC4/engine_sensor_adc.c ****                 ,{engine_sensor_adc_UABH_A_SW_CB_IN1_PTR      , ((uint32)engine_sensor_adc_UABH_A_H
 465:Generated_Source\PSoC4/engine_sensor_adc.c ****                 ,{engine_sensor_adc_UABH_A_SW_CC_IN0_PTR      , ((uint32)engine_sensor_adc_UABH_A_H
 466:Generated_Source\PSoC4/engine_sensor_adc.c ****                 ,{engine_sensor_adc_UABH_A_SW_CC_IN1_PTR      , ((uint32)engine_sensor_adc_UABH_A_H
 467:Generated_Source\PSoC4/engine_sensor_adc.c ****                 ,{engine_sensor_adc_UABH_A_SW_CC_TOP_PTR      , ((uint32)engine_sensor_adc_UABH_A_H
 468:Generated_Source\PSoC4/engine_sensor_adc.c ****                 ,{engine_sensor_adc_UABH_A_SW_CF_BOT_PTR      , ((uint32)engine_sensor_adc_UABH_A_H
 469:Generated_Source\PSoC4/engine_sensor_adc.c **** 
 470:Generated_Source\PSoC4/engine_sensor_adc.c ****                 /* Parameter-based registers */
 471:Generated_Source\PSoC4/engine_sensor_adc.c ****                 ,{engine_sensor_adc_UABH_A_CAP_CTRL_PTR       , ((uint32)engine_sensor_adc_CFG3_UAB
 472:Generated_Source\PSoC4/engine_sensor_adc.c ****                 ,{engine_sensor_adc_UABH_A_SW_CB_TOP_PTR      , ((uint32)engine_sensor_adc_CFG3_UAB
 473:Generated_Source\PSoC4/engine_sensor_adc.c ****                 ,{engine_sensor_adc_UABH_A_CAP_ABCF_VAL_PTR   , ((uint32)engine_sensor_adc_CFG3_UAB
 474:Generated_Source\PSoC4/engine_sensor_adc.c ****             #endif /* (engine_sensor_adc_CFG3_FILTERTYPE_USED == engine_sensor_adc_FILTERTOPOLOGY_L
 475:Generated_Source\PSoC4/engine_sensor_adc.c ****         };
 476:Generated_Source\PSoC4/engine_sensor_adc.c **** 
 477:Generated_Source\PSoC4/engine_sensor_adc.c ****         #define engine_sensor_adc_CFG3_UABH_B_FILTER_INITPAIRSSIZE ((engine_sensor_adc_CFG3_FILTERT
 478:Generated_Source\PSoC4/engine_sensor_adc.c ****                                                              ? 19u \
 479:Generated_Source\PSoC4/engine_sensor_adc.c ****                                                              : 19u)
ARM GAS  C:\Users\fneves\AppData\Local\Temp\ccV5UskS.s 			page 12


 480:Generated_Source\PSoC4/engine_sensor_adc.c ****         static CyUAB_reg_pair engine_sensor_adc_CFG3_UABH_B_FILTER_initPairs[engine_sensor_adc_CFG3
 481:Generated_Source\PSoC4/engine_sensor_adc.c ****         {
 482:Generated_Source\PSoC4/engine_sensor_adc.c ****             /*OA_CTRL default always first element in initPairs*/
 483:Generated_Source\PSoC4/engine_sensor_adc.c ****             /* Topology-invariant registers */
 484:Generated_Source\PSoC4/engine_sensor_adc.c ****              {engine_sensor_adc_UABH_B_OA_CTRL_PTR        , ((uint32)engine_sensor_adc_UABH_B_DEFAU
 485:Generated_Source\PSoC4/engine_sensor_adc.c ****             ,{engine_sensor_adc_UABH_B_SW_STATIC_PTR      , ((uint32)engine_sensor_adc_UABH_B_DEFAU
 486:Generated_Source\PSoC4/engine_sensor_adc.c ****             ,{engine_sensor_adc_UABH_B_SW_MODBIT_SRC_PTR  , ((uint32)engine_sensor_adc_UABH_B_INVAR
 487:Generated_Source\PSoC4/engine_sensor_adc.c ****             ,{engine_sensor_adc_UABH_B_SRAM_CTRL_PTR      , ((uint32)engine_sensor_adc_UABH_B_INVAR
 488:Generated_Source\PSoC4/engine_sensor_adc.c ****             ,{engine_sensor_adc_UABH_B_STARTUP_DELAY_PTR  , ((uint32)engine_sensor_adc_CFG3_UABH_B_
 489:Generated_Source\PSoC4/engine_sensor_adc.c ****             ,{engine_sensor_adc_UABH_B_SW_BOOST_CTRL_PTR  , ((uint32)engine_sensor_adc_UABH_B_DEFAU
 490:Generated_Source\PSoC4/engine_sensor_adc.c ****             ,{engine_sensor_adc_UABH_B_SW_OTHER_PTR  , ((uint32)engine_sensor_adc_UABH_B_DEFAULT_SW
 491:Generated_Source\PSoC4/engine_sensor_adc.c ****             
 492:Generated_Source\PSoC4/engine_sensor_adc.c ****             #if (engine_sensor_adc_CFG3_FILTERTYPE_USED == engine_sensor_adc_FILTERTOPOLOGY_LOW_Q)
 493:Generated_Source\PSoC4/engine_sensor_adc.c ****                     	/* Filter-invariant registers */
 494:Generated_Source\PSoC4/engine_sensor_adc.c ****                 ,{engine_sensor_adc_UABH_B_SW_CA_IN0_PTR      , ((uint32)engine_sensor_adc_UABH_B_L
 495:Generated_Source\PSoC4/engine_sensor_adc.c ****                 ,{engine_sensor_adc_UABH_B_SW_CA_IN1_PTR      , ((uint32)engine_sensor_adc_UABH_B_L
 496:Generated_Source\PSoC4/engine_sensor_adc.c ****                 ,{engine_sensor_adc_UABH_B_SW_CA_TOP_PTR      , ((uint32)engine_sensor_adc_UABH_B_L
 497:Generated_Source\PSoC4/engine_sensor_adc.c ****                 ,{engine_sensor_adc_UABH_B_SW_CB_IN0_PTR      , ((uint32)engine_sensor_adc_UABH_B_L
 498:Generated_Source\PSoC4/engine_sensor_adc.c ****                 ,{engine_sensor_adc_UABH_B_SW_CB_IN1_PTR      , ((uint32)engine_sensor_adc_UABH_B_L
 499:Generated_Source\PSoC4/engine_sensor_adc.c ****                 ,{engine_sensor_adc_UABH_B_SW_CB_TOP_PTR      , ((uint32)engine_sensor_adc_UABH_B_L
 500:Generated_Source\PSoC4/engine_sensor_adc.c ****                 ,{engine_sensor_adc_UABH_B_SW_CC_IN0_PTR      , ((uint32)engine_sensor_adc_UABH_B_L
 501:Generated_Source\PSoC4/engine_sensor_adc.c ****                 ,{engine_sensor_adc_UABH_B_SW_CC_IN1_PTR      , ((uint32)engine_sensor_adc_UABH_B_L
 502:Generated_Source\PSoC4/engine_sensor_adc.c ****                 ,{engine_sensor_adc_UABH_B_SW_CF_BOT_PTR      , ((uint32)engine_sensor_adc_UABH_B_L
 503:Generated_Source\PSoC4/engine_sensor_adc.c ****                 
 504:Generated_Source\PSoC4/engine_sensor_adc.c ****                 /* Parameter-based registers */
 505:Generated_Source\PSoC4/engine_sensor_adc.c ****                 ,{engine_sensor_adc_UABH_B_CAP_CTRL_PTR       , ((uint32)engine_sensor_adc_CFG3_UAB
 506:Generated_Source\PSoC4/engine_sensor_adc.c ****                 ,{engine_sensor_adc_UABH_B_SW_CC_TOP_PTR      , ((uint32)engine_sensor_adc_CFG3_UAB
 507:Generated_Source\PSoC4/engine_sensor_adc.c ****                 ,{engine_sensor_adc_UABH_B_CAP_ABCF_VAL_PTR   , ((uint32)engine_sensor_adc_CFG3_UAB
 508:Generated_Source\PSoC4/engine_sensor_adc.c ****             #elif (engine_sensor_adc_CFG3_FILTERTYPE_USED == engine_sensor_adc_FILTERTOPOLOGY_HIGH_
 509:Generated_Source\PSoC4/engine_sensor_adc.c ****             	/* Filter-invariant registers */
 510:Generated_Source\PSoC4/engine_sensor_adc.c ****                 ,{engine_sensor_adc_UABH_B_SW_CA_IN0_PTR      , ((uint32)engine_sensor_adc_UABH_B_H
 511:Generated_Source\PSoC4/engine_sensor_adc.c ****                 ,{engine_sensor_adc_UABH_B_SW_CA_IN1_PTR      , ((uint32)engine_sensor_adc_UABH_B_H
 512:Generated_Source\PSoC4/engine_sensor_adc.c ****                 ,{engine_sensor_adc_UABH_B_SW_CA_TOP_PTR      , ((uint32)engine_sensor_adc_UABH_B_H
 513:Generated_Source\PSoC4/engine_sensor_adc.c ****                 ,{engine_sensor_adc_UABH_B_SW_CB_IN0_PTR      , ((uint32)engine_sensor_adc_UABH_B_H
 514:Generated_Source\PSoC4/engine_sensor_adc.c ****                 ,{engine_sensor_adc_UABH_B_SW_CB_IN1_PTR      , ((uint32)engine_sensor_adc_UABH_B_H
 515:Generated_Source\PSoC4/engine_sensor_adc.c ****                 ,{engine_sensor_adc_UABH_B_SW_CC_IN0_PTR      , ((uint32)engine_sensor_adc_UABH_B_H
 516:Generated_Source\PSoC4/engine_sensor_adc.c ****                 ,{engine_sensor_adc_UABH_B_SW_CC_IN1_PTR      , ((uint32)engine_sensor_adc_UABH_B_H
 517:Generated_Source\PSoC4/engine_sensor_adc.c ****                 ,{engine_sensor_adc_UABH_B_SW_CF_BOT_PTR      , ((uint32)engine_sensor_adc_UABH_B_H
 518:Generated_Source\PSoC4/engine_sensor_adc.c ****                 
 519:Generated_Source\PSoC4/engine_sensor_adc.c ****                 /* Parameter-based registers */
 520:Generated_Source\PSoC4/engine_sensor_adc.c ****                 ,{engine_sensor_adc_UABH_B_CAP_CTRL_PTR       , ((uint32)engine_sensor_adc_CFG3_UAB
 521:Generated_Source\PSoC4/engine_sensor_adc.c ****                 ,{engine_sensor_adc_UABH_B_SW_CB_TOP_PTR      , ((uint32)engine_sensor_adc_CFG3_UAB
 522:Generated_Source\PSoC4/engine_sensor_adc.c ****                 ,{engine_sensor_adc_UABH_B_SW_CC_TOP_PTR      , ((uint32)engine_sensor_adc_CFG3_UAB
 523:Generated_Source\PSoC4/engine_sensor_adc.c ****                 ,{engine_sensor_adc_UABH_B_CAP_ABCF_VAL_PTR   , ((uint32)engine_sensor_adc_CFG3_UAB
 524:Generated_Source\PSoC4/engine_sensor_adc.c ****             #endif /* #if (engine_sensor_adc_CFG3_FILTERTYPE_USED == engine_sensor_adc_FILTERTOPOLO
 525:Generated_Source\PSoC4/engine_sensor_adc.c ****         };
 526:Generated_Source\PSoC4/engine_sensor_adc.c **** 
 527:Generated_Source\PSoC4/engine_sensor_adc.c ****         static CyUAB_config engine_sensor_adc_CFG3_UABH_A_FILTER_config = {
 528:Generated_Source\PSoC4/engine_sensor_adc.c ****             engine_sensor_adc_UABH_A_waveConfig,
 529:Generated_Source\PSoC4/engine_sensor_adc.c ****             engine_sensor_adc_CFG3_UABH_A_FILTER_initPairs,
 530:Generated_Source\PSoC4/engine_sensor_adc.c ****             CyUAB_SHARED_SW_CFG(engine_sensor_adc_UABH_A_PARAM_REF_TIED,engine_sensor_adc_UABH_A_PA
 531:Generated_Source\PSoC4/engine_sensor_adc.c ****                 engine_sensor_adc_UABH_A_PARAM_SW_CC,engine_sensor_adc_UABH_A_PARAM_SW_BB,engine_se
 532:Generated_Source\PSoC4/engine_sensor_adc.c ****             engine_sensor_adc_UABH_A_NUM_STEPS,
 533:Generated_Source\PSoC4/engine_sensor_adc.c ****             (uint8)(engine_sensor_adc_UABH_A_ELEMENT_COUNT(engine_sensor_adc_CFG3_UABH_A_FILTER_ini
 534:Generated_Source\PSoC4/engine_sensor_adc.c ****         };
 535:Generated_Source\PSoC4/engine_sensor_adc.c **** 
 536:Generated_Source\PSoC4/engine_sensor_adc.c ****         static CyUAB_config engine_sensor_adc_CFG3_UABH_B_FILTER_config = {
ARM GAS  C:\Users\fneves\AppData\Local\Temp\ccV5UskS.s 			page 13


 537:Generated_Source\PSoC4/engine_sensor_adc.c ****         engine_sensor_adc_UABH_B_waveConfig,
 538:Generated_Source\PSoC4/engine_sensor_adc.c ****         engine_sensor_adc_CFG3_UABH_B_FILTER_initPairs,
 539:Generated_Source\PSoC4/engine_sensor_adc.c ****         CyUAB_SHARED_SW_CFG(engine_sensor_adc_UABH_B_PARAM_REF_TIED,engine_sensor_adc_UABH_B_PARAM_
 540:Generated_Source\PSoC4/engine_sensor_adc.c ****             engine_sensor_adc_UABH_B_PARAM_SW_CC,engine_sensor_adc_UABH_B_PARAM_SW_BB,engine_sensor
 541:Generated_Source\PSoC4/engine_sensor_adc.c ****         engine_sensor_adc_UABH_B_NUM_STEPS,
 542:Generated_Source\PSoC4/engine_sensor_adc.c ****         (uint8)(engine_sensor_adc_UABH_B_ELEMENT_COUNT(engine_sensor_adc_CFG3_UABH_B_FILTER_initPai
 543:Generated_Source\PSoC4/engine_sensor_adc.c ****     };
 544:Generated_Source\PSoC4/engine_sensor_adc.c ****     #endif /* (0u != engine_sensor_adc_CFG3_FILTER_PRESENT) */
 545:Generated_Source\PSoC4/engine_sensor_adc.c ****     
 546:Generated_Source\PSoC4/engine_sensor_adc.c ****     
 547:Generated_Source\PSoC4/engine_sensor_adc.c **** #endif /* (engine_sensor_adc_ANY_CONFIG_USES_FILTER	!= 0u)	*/
 548:Generated_Source\PSoC4/engine_sensor_adc.c **** 
 549:Generated_Source\PSoC4/engine_sensor_adc.c **** /*******************************************************************************
 550:Generated_Source\PSoC4/engine_sensor_adc.c **** * Function Name: engine_sensor_adc_Start
 551:Generated_Source\PSoC4/engine_sensor_adc.c **** ****************************************************************************//**
 552:Generated_Source\PSoC4/engine_sensor_adc.c **** *
 553:Generated_Source\PSoC4/engine_sensor_adc.c **** * \brief Performs all required initialization for this component and enables the 
 554:Generated_Source\PSoC4/engine_sensor_adc.c **** *  power. The power will be set to the appropriate power based on the clock 
 555:Generated_Source\PSoC4/engine_sensor_adc.c **** *  frequency.
 556:Generated_Source\PSoC4/engine_sensor_adc.c **** * 
 557:Generated_Source\PSoC4/engine_sensor_adc.c **** * \param None
 558:Generated_Source\PSoC4/engine_sensor_adc.c **** * 
 559:Generated_Source\PSoC4/engine_sensor_adc.c **** * \return None
 560:Generated_Source\PSoC4/engine_sensor_adc.c **** * 
 561:Generated_Source\PSoC4/engine_sensor_adc.c **** * \sideeffect None
 562:Generated_Source\PSoC4/engine_sensor_adc.c **** *
 563:Generated_Source\PSoC4/engine_sensor_adc.c **** * \globalvars
 564:Generated_Source\PSoC4/engine_sensor_adc.c **** *  \ref engine_sensor_adc_initVar (RW)
 565:Generated_Source\PSoC4/engine_sensor_adc.c **** *
 566:Generated_Source\PSoC4/engine_sensor_adc.c **** * <b>Code Snippet</b>
 567:Generated_Source\PSoC4/engine_sensor_adc.c **** *  \snippet main.c snippet_engine_sensor_adc_Start
 568:Generated_Source\PSoC4/engine_sensor_adc.c **** *
 569:Generated_Source\PSoC4/engine_sensor_adc.c **** *******************************************************************************/
 570:Generated_Source\PSoC4/engine_sensor_adc.c **** void engine_sensor_adc_Start(void)
 571:Generated_Source\PSoC4/engine_sensor_adc.c **** {
 149              		.loc 1 571 0
 150              		.cfi_startproc
 151 0000 80B5     		push	{r7, lr}
 152              		.cfi_def_cfa_offset 8
 153              		.cfi_offset 7, -8
 154              		.cfi_offset 14, -4
 155 0002 00AF     		add	r7, sp, #0
 156              		.cfi_def_cfa_register 7
 572:Generated_Source\PSoC4/engine_sensor_adc.c ****     if (engine_sensor_adc_INIT_VAR_INIT_FLAG != (engine_sensor_adc_INIT_VAR_INIT_FLAG & engine_sens
 157              		.loc 1 572 0
 158 0004 0A4B     		ldr	r3, .L4
 159 0006 1B78     		ldrb	r3, [r3]
 160 0008 0122     		mov	r2, #1
 161 000a 1340     		and	r3, r2
 162 000c DBB2     		uxtb	r3, r3
 163 000e 002B     		cmp	r3, #0
 164 0010 08D1     		bne	.L2
 573:Generated_Source\PSoC4/engine_sensor_adc.c ****     {
 574:Generated_Source\PSoC4/engine_sensor_adc.c ****         engine_sensor_adc_Init();
 165              		.loc 1 574 0
 166 0012 FFF7FEFF 		bl	engine_sensor_adc_Init
 575:Generated_Source\PSoC4/engine_sensor_adc.c ****         engine_sensor_adc_initVar |= engine_sensor_adc_INIT_VAR_INIT_FLAG;
ARM GAS  C:\Users\fneves\AppData\Local\Temp\ccV5UskS.s 			page 14


 167              		.loc 1 575 0
 168 0016 064B     		ldr	r3, .L4
 169 0018 1B78     		ldrb	r3, [r3]
 170 001a 0122     		mov	r2, #1
 171 001c 1343     		orr	r3, r2
 172 001e DAB2     		uxtb	r2, r3
 173 0020 034B     		ldr	r3, .L4
 174 0022 1A70     		strb	r2, [r3]
 175              	.L2:
 576:Generated_Source\PSoC4/engine_sensor_adc.c ****     }
 577:Generated_Source\PSoC4/engine_sensor_adc.c ****     
 578:Generated_Source\PSoC4/engine_sensor_adc.c ****     engine_sensor_adc_Enable();
 176              		.loc 1 578 0
 177 0024 FFF7FEFF 		bl	engine_sensor_adc_Enable
 579:Generated_Source\PSoC4/engine_sensor_adc.c ****     
 580:Generated_Source\PSoC4/engine_sensor_adc.c ****     return;
 178              		.loc 1 580 0
 179 0028 C046     		mov	r8, r8
 581:Generated_Source\PSoC4/engine_sensor_adc.c **** }
 180              		.loc 1 581 0
 181 002a BD46     		mov	sp, r7
 182              		@ sp needed
 183 002c 80BD     		pop	{r7, pc}
 184              	.L5:
 185 002e C046     		.align	2
 186              	.L4:
 187 0030 00000000 		.word	engine_sensor_adc_initVar
 188              		.cfi_endproc
 189              	.LFE1:
 190              		.size	engine_sensor_adc_Start, .-engine_sensor_adc_Start
 191              		.section	.text.engine_sensor_adc_StartEx,"ax",%progbits
 192              		.align	2
 193              		.global	engine_sensor_adc_StartEx
 194              		.code	16
 195              		.thumb_func
 196              		.type	engine_sensor_adc_StartEx, %function
 197              	engine_sensor_adc_StartEx:
 198              	.LFB2:
 582:Generated_Source\PSoC4/engine_sensor_adc.c **** 
 583:Generated_Source\PSoC4/engine_sensor_adc.c **** /*******************************************************************************
 584:Generated_Source\PSoC4/engine_sensor_adc.c **** * Function Name: engine_sensor_adc_StartEx
 585:Generated_Source\PSoC4/engine_sensor_adc.c **** ****************************************************************************//**
 586:Generated_Source\PSoC4/engine_sensor_adc.c **** *
 587:Generated_Source\PSoC4/engine_sensor_adc.c **** * \brief This function starts the engine_sensor_adc and sets the Interrupt 
 588:Generated_Source\PSoC4/engine_sensor_adc.c **** * Service Routine to the provided address using the 
 589:Generated_Source\PSoC4/engine_sensor_adc.c **** * engine_sensor_adc_IRQ_StartEx() function. Refer to the Interrupt component 
 590:Generated_Source\PSoC4/engine_sensor_adc.c **** * datasheet for more information on the engine_sensor_adc_IRQ_StartEx() function.
 591:Generated_Source\PSoC4/engine_sensor_adc.c **** * 
 592:Generated_Source\PSoC4/engine_sensor_adc.c **** * \param address This is the address of a user defined function for the ISR.
 593:Generated_Source\PSoC4/engine_sensor_adc.c **** * 
 594:Generated_Source\PSoC4/engine_sensor_adc.c **** * \return None
 595:Generated_Source\PSoC4/engine_sensor_adc.c **** * 
 596:Generated_Source\PSoC4/engine_sensor_adc.c **** * \sideeffect None
 597:Generated_Source\PSoC4/engine_sensor_adc.c **** *
 598:Generated_Source\PSoC4/engine_sensor_adc.c **** * <b>Code Snippet</b>
 599:Generated_Source\PSoC4/engine_sensor_adc.c **** *  \snippet main.c snippet_engine_sensor_adc_StartEx
 600:Generated_Source\PSoC4/engine_sensor_adc.c **** *
ARM GAS  C:\Users\fneves\AppData\Local\Temp\ccV5UskS.s 			page 15


 601:Generated_Source\PSoC4/engine_sensor_adc.c **** *******************************************************************************/
 602:Generated_Source\PSoC4/engine_sensor_adc.c **** void engine_sensor_adc_StartEx(cyisraddress address)
 603:Generated_Source\PSoC4/engine_sensor_adc.c **** {
 199              		.loc 1 603 0
 200              		.cfi_startproc
 201 0000 80B5     		push	{r7, lr}
 202              		.cfi_def_cfa_offset 8
 203              		.cfi_offset 7, -8
 204              		.cfi_offset 14, -4
 205 0002 82B0     		sub	sp, sp, #8
 206              		.cfi_def_cfa_offset 16
 207 0004 00AF     		add	r7, sp, #0
 208              		.cfi_def_cfa_register 7
 209 0006 7860     		str	r0, [r7, #4]
 604:Generated_Source\PSoC4/engine_sensor_adc.c ****     engine_sensor_adc_Start();
 210              		.loc 1 604 0
 211 0008 FFF7FEFF 		bl	engine_sensor_adc_Start
 605:Generated_Source\PSoC4/engine_sensor_adc.c ****     engine_sensor_adc_IRQ_StartEx(address);
 212              		.loc 1 605 0
 213 000c 7B68     		ldr	r3, [r7, #4]
 214 000e 181C     		mov	r0, r3
 215 0010 FFF7FEFF 		bl	engine_sensor_adc_IRQ_StartEx
 606:Generated_Source\PSoC4/engine_sensor_adc.c ****     return;
 216              		.loc 1 606 0
 217 0014 C046     		mov	r8, r8
 607:Generated_Source\PSoC4/engine_sensor_adc.c **** }
 218              		.loc 1 607 0
 219 0016 BD46     		mov	sp, r7
 220 0018 02B0     		add	sp, sp, #8
 221              		@ sp needed
 222 001a 80BD     		pop	{r7, pc}
 223              		.cfi_endproc
 224              	.LFE2:
 225              		.size	engine_sensor_adc_StartEx, .-engine_sensor_adc_StartEx
 226              		.section	.text.engine_sensor_adc_Stop,"ax",%progbits
 227              		.align	2
 228              		.global	engine_sensor_adc_Stop
 229              		.code	16
 230              		.thumb_func
 231              		.type	engine_sensor_adc_Stop, %function
 232              	engine_sensor_adc_Stop:
 233              	.LFB3:
 608:Generated_Source\PSoC4/engine_sensor_adc.c **** 
 609:Generated_Source\PSoC4/engine_sensor_adc.c **** /*******************************************************************************
 610:Generated_Source\PSoC4/engine_sensor_adc.c **** * Function Name: engine_sensor_adc_Stop
 611:Generated_Source\PSoC4/engine_sensor_adc.c **** ****************************************************************************//**
 612:Generated_Source\PSoC4/engine_sensor_adc.c **** *
 613:Generated_Source\PSoC4/engine_sensor_adc.c **** * \brief This function stops ADC conversions and puts the ADC into its lowest 
 614:Generated_Source\PSoC4/engine_sensor_adc.c **** * power mode.
 615:Generated_Source\PSoC4/engine_sensor_adc.c **** * 
 616:Generated_Source\PSoC4/engine_sensor_adc.c **** * \param None
 617:Generated_Source\PSoC4/engine_sensor_adc.c **** * 
 618:Generated_Source\PSoC4/engine_sensor_adc.c **** * \return None
 619:Generated_Source\PSoC4/engine_sensor_adc.c **** * 
 620:Generated_Source\PSoC4/engine_sensor_adc.c **** * \sideeffect
 621:Generated_Source\PSoC4/engine_sensor_adc.c **** * Do not use the engine_sensor_adc_Stop() API to halt conversions. Instead use the 
 622:Generated_Source\PSoC4/engine_sensor_adc.c **** * engine_sensor_adc_StopConvert() API. If you use the engine_sensor_adc_Stop() API 
ARM GAS  C:\Users\fneves\AppData\Local\Temp\ccV5UskS.s 			page 16


 623:Generated_Source\PSoC4/engine_sensor_adc.c **** * to halt conversions then later use the engine_sensor_adc_Start() and 
 624:Generated_Source\PSoC4/engine_sensor_adc.c **** * engine_sensor_adc_StartConvert() APIs to resume conversions, the first channel 
 625:Generated_Source\PSoC4/engine_sensor_adc.c **** * of the scan may be corrupt. The engine_sensor_adc_StopConvert() API will enable 
 626:Generated_Source\PSoC4/engine_sensor_adc.c **** * the engine_sensor_adc to complete the current scan of channels. After the 
 627:Generated_Source\PSoC4/engine_sensor_adc.c **** * channel scan is complete, the engine_sensor_adc will stop all conversions, which 
 628:Generated_Source\PSoC4/engine_sensor_adc.c **** * can be detected by the use of an ISR or the engine_sensor_adc_IsEndConversion() 
 629:Generated_Source\PSoC4/engine_sensor_adc.c **** * flag.
 630:Generated_Source\PSoC4/engine_sensor_adc.c **** *
 631:Generated_Source\PSoC4/engine_sensor_adc.c **** * <b>Code Snippet</b>
 632:Generated_Source\PSoC4/engine_sensor_adc.c **** *  \snippet main.c snippet_engine_sensor_adc_Stop
 633:Generated_Source\PSoC4/engine_sensor_adc.c **** *
 634:Generated_Source\PSoC4/engine_sensor_adc.c **** *******************************************************************************/
 635:Generated_Source\PSoC4/engine_sensor_adc.c **** void engine_sensor_adc_Stop(void)
 636:Generated_Source\PSoC4/engine_sensor_adc.c **** {	
 234              		.loc 1 636 0
 235              		.cfi_startproc
 236 0000 80B5     		push	{r7, lr}
 237              		.cfi_def_cfa_offset 8
 238              		.cfi_offset 7, -8
 239              		.cfi_offset 14, -4
 240 0002 00AF     		add	r7, sp, #0
 241              		.cfi_def_cfa_register 7
 637:Generated_Source\PSoC4/engine_sensor_adc.c ****     #if(0u != engine_sensor_adc_ANY_CONFIG_USES_FILTER)	
 638:Generated_Source\PSoC4/engine_sensor_adc.c ****     	if((engine_sensor_adc_allConfigs[engine_sensor_adc_currentConfig].miscConfig 
 242              		.loc 1 638 0
 243 0004 0D4B     		ldr	r3, .L11
 244 0006 1A68     		ldr	r2, [r3]
 245 0008 0D49     		ldr	r1, .L11+4
 246 000a 131C     		mov	r3, r2
 247 000c DB00     		lsl	r3, r3, #3
 248 000e 9B1A     		sub	r3, r3, r2
 249 0010 DB00     		lsl	r3, r3, #3
 250 0012 CB18     		add	r3, r1, r3
 251 0014 3033     		add	r3, r3, #48
 252 0016 1B68     		ldr	r3, [r3]
 639:Generated_Source\PSoC4/engine_sensor_adc.c ****     	   & engine_sensor_adc_MISC_CONFIG_FILTER_PRESENT_MSK) 
 253              		.loc 1 639 0
 254 0018 0222     		mov	r2, #2
 255 001a 1340     		and	r3, r2
 638:Generated_Source\PSoC4/engine_sensor_adc.c ****     	   & engine_sensor_adc_MISC_CONFIG_FILTER_PRESENT_MSK) 
 256              		.loc 1 638 0
 257 001c 05D0     		beq	.L9
 640:Generated_Source\PSoC4/engine_sensor_adc.c ****     	   == engine_sensor_adc_MISC_CONFIG_FILTER_PRESENT_MSK)
 641:Generated_Source\PSoC4/engine_sensor_adc.c ****     	{
 642:Generated_Source\PSoC4/engine_sensor_adc.c ****     		engine_sensor_adc_UABH_A_Stop();
 258              		.loc 1 642 0
 259 001e FFF7FEFF 		bl	engine_sensor_adc_UABH_A_Stop
 643:Generated_Source\PSoC4/engine_sensor_adc.c ****     		engine_sensor_adc_UABH_B_Stop();
 260              		.loc 1 643 0
 261 0022 FFF7FEFF 		bl	engine_sensor_adc_UABH_B_Stop
 644:Generated_Source\PSoC4/engine_sensor_adc.c ****             engine_sensor_adc_FILTERAGND2SAR_BUFFER_Stop();
 262              		.loc 1 644 0
 263 0026 FFF7FEFF 		bl	engine_sensor_adc_FILTERAGND2SAR_BUFFER_Stop
 264              	.L9:
 645:Generated_Source\PSoC4/engine_sensor_adc.c ****     	}
 646:Generated_Source\PSoC4/engine_sensor_adc.c ****     #endif /* engine_sensor_adc_ANY_CONFIG_USES_FILTER != 0u */
 647:Generated_Source\PSoC4/engine_sensor_adc.c ****     engine_sensor_adc_SAR_CTRL_REG &= (uint32)~engine_sensor_adc_SAR_CTRL_ENABLED_MSK;
ARM GAS  C:\Users\fneves\AppData\Local\Temp\ccV5UskS.s 			page 17


 265              		.loc 1 647 0
 266 002a 064B     		ldr	r3, .L11+8
 267 002c 054A     		ldr	r2, .L11+8
 268 002e 1268     		ldr	r2, [r2]
 269 0030 5200     		lsl	r2, r2, #1
 270 0032 5208     		lsr	r2, r2, #1
 271 0034 1A60     		str	r2, [r3]
 648:Generated_Source\PSoC4/engine_sensor_adc.c ****     return;
 272              		.loc 1 648 0
 273 0036 C046     		mov	r8, r8
 649:Generated_Source\PSoC4/engine_sensor_adc.c **** }
 274              		.loc 1 649 0
 275 0038 BD46     		mov	sp, r7
 276              		@ sp needed
 277 003a 80BD     		pop	{r7, pc}
 278              	.L12:
 279              		.align	2
 280              	.L11:
 281 003c 04000000 		.word	engine_sensor_adc_currentConfig
 282 0040 00000000 		.word	engine_sensor_adc_allConfigs
 283 0044 00003A40 		.word	1077542912
 284              		.cfi_endproc
 285              	.LFE3:
 286              		.size	engine_sensor_adc_Stop, .-engine_sensor_adc_Stop
 287              		.section	.text.engine_sensor_adc_InitConfig,"ax",%progbits
 288              		.align	2
 289              		.global	engine_sensor_adc_InitConfig
 290              		.code	16
 291              		.thumb_func
 292              		.type	engine_sensor_adc_InitConfig, %function
 293              	engine_sensor_adc_InitConfig:
 294              	.LFB4:
 650:Generated_Source\PSoC4/engine_sensor_adc.c **** 
 651:Generated_Source\PSoC4/engine_sensor_adc.c **** /* ****************************************************************************
 652:Generated_Source\PSoC4/engine_sensor_adc.c **** * Function Name: engine_sensor_adc_InitConfig
 653:Generated_Source\PSoC4/engine_sensor_adc.c **** ****************************************************************************//*
 654:Generated_Source\PSoC4/engine_sensor_adc.c **** *
 655:Generated_Source\PSoC4/engine_sensor_adc.c **** * \brief Configures all of the registers for a given configuration for scanning.
 656:Generated_Source\PSoC4/engine_sensor_adc.c **** *
 657:Generated_Source\PSoC4/engine_sensor_adc.c **** * \param scan Number of scan defined in the engine_sensor_adc.
 658:Generated_Source\PSoC4/engine_sensor_adc.c **** *
 659:Generated_Source\PSoC4/engine_sensor_adc.c **** * \return None
 660:Generated_Source\PSoC4/engine_sensor_adc.c **** *
 661:Generated_Source\PSoC4/engine_sensor_adc.c **** * \sideeffect None
 662:Generated_Source\PSoC4/engine_sensor_adc.c **** *
 663:Generated_Source\PSoC4/engine_sensor_adc.c **** * <b>Code Snippet</b>
 664:Generated_Source\PSoC4/engine_sensor_adc.c **** *  \snippet main.c snippet_engine_sensor_adc_InitConfig
 665:Generated_Source\PSoC4/engine_sensor_adc.c **** *
 666:Generated_Source\PSoC4/engine_sensor_adc.c **** *******************************************************************************/
 667:Generated_Source\PSoC4/engine_sensor_adc.c **** void engine_sensor_adc_InitConfig(const engine_sensor_adc_CONFIG_STRUCT *config)
 668:Generated_Source\PSoC4/engine_sensor_adc.c **** {
 295              		.loc 1 668 0
 296              		.cfi_startproc
 297 0000 80B5     		push	{r7, lr}
 298              		.cfi_def_cfa_offset 8
 299              		.cfi_offset 7, -8
 300              		.cfi_offset 14, -4
ARM GAS  C:\Users\fneves\AppData\Local\Temp\ccV5UskS.s 			page 18


 301 0002 84B0     		sub	sp, sp, #16
 302              		.cfi_def_cfa_offset 24
 303 0004 00AF     		add	r7, sp, #0
 304              		.cfi_def_cfa_register 7
 305 0006 7860     		str	r0, [r7, #4]
 669:Generated_Source\PSoC4/engine_sensor_adc.c **** 	uint32 chNum;
 670:Generated_Source\PSoC4/engine_sensor_adc.c ****     uint32 tmpRegVal;
 671:Generated_Source\PSoC4/engine_sensor_adc.c **** 	
 672:Generated_Source\PSoC4/engine_sensor_adc.c ****     #if(0u != engine_sensor_adc_ANY_CONFIG_USES_FILTER)	        
 673:Generated_Source\PSoC4/engine_sensor_adc.c ****     	if((config->miscConfig & engine_sensor_adc_MISC_CONFIG_FILTER_PRESENT_MSK) 
 306              		.loc 1 673 0
 307 0008 7B68     		ldr	r3, [r7, #4]
 308 000a 1B6B     		ldr	r3, [r3, #48]
 309 000c 0222     		mov	r2, #2
 310 000e 1340     		and	r3, r2
 311 0010 05D0     		beq	.L14
 674:Generated_Source\PSoC4/engine_sensor_adc.c ****     	    == engine_sensor_adc_MISC_CONFIG_FILTER_PRESENT_MSK)
 675:Generated_Source\PSoC4/engine_sensor_adc.c ****     	{
 676:Generated_Source\PSoC4/engine_sensor_adc.c ****             engine_sensor_adc_intUabClock_SetFractionalDividerRegister(config->filterClkDivider, 0u
 312              		.loc 1 676 0
 313 0012 7B68     		ldr	r3, [r7, #4]
 314 0014 DB8E     		ldrh	r3, [r3, #54]
 315 0016 181C     		mov	r0, r3
 316 0018 0021     		mov	r1, #0
 317 001a FFF7FEFF 		bl	engine_sensor_adc_intUabClock_SetFractionalDividerRegister
 318              	.L14:
 677:Generated_Source\PSoC4/engine_sensor_adc.c ****             
 678:Generated_Source\PSoC4/engine_sensor_adc.c ****     	}
 679:Generated_Source\PSoC4/engine_sensor_adc.c ****     #endif /* engine_sensor_adc_ANY_CONFIG_USES_FILTER != 0u */
 680:Generated_Source\PSoC4/engine_sensor_adc.c ****     #if (engine_sensor_adc_CLOCK_INTERNAL)
 681:Generated_Source\PSoC4/engine_sensor_adc.c ****         engine_sensor_adc_intSarClock_SetFractionalDividerRegister(config->clkDivider, 0u);
 319              		.loc 1 681 0
 320 001e 7B68     		ldr	r3, [r7, #4]
 321 0020 9B8E     		ldrh	r3, [r3, #52]
 322 0022 181C     		mov	r0, r3
 323 0024 0021     		mov	r1, #0
 324 0026 FFF7FEFF 		bl	engine_sensor_adc_intSarClock_SetFractionalDividerRegister
 682:Generated_Source\PSoC4/engine_sensor_adc.c ****         
 683:Generated_Source\PSoC4/engine_sensor_adc.c ****     #endif /* engine_sensor_adc_CLOCK_INTERNAL */
 684:Generated_Source\PSoC4/engine_sensor_adc.c ****     /* Init SAR and MUX registers */
 685:Generated_Source\PSoC4/engine_sensor_adc.c **** 	engine_sensor_adc_SAR_CTRL_REG = config->ctrl
 325              		.loc 1 685 0
 326 002a 384A     		ldr	r2, .L23
 327 002c 7B68     		ldr	r3, [r7, #4]
 328 002e 9968     		ldr	r1, [r3, #8]
 686:Generated_Source\PSoC4/engine_sensor_adc.c ****    
 687:Generated_Source\PSoC4/engine_sensor_adc.c **** 	/* Enable the SAR internal pump when global pump is enabled */
 688:Generated_Source\PSoC4/engine_sensor_adc.c ****     | (((engine_sensor_adc_PUMP_CTRL_REG & engine_sensor_adc_PUMP_CTRL_ENABLED) != 0u) 
 329              		.loc 1 688 0
 330 0030 374B     		ldr	r3, .L23+4
 331 0032 1B68     		ldr	r3, [r3]
 332 0034 002B     		cmp	r3, #0
 333 0036 02DA     		bge	.L15
 334              		.loc 1 688 0 is_stmt 0 discriminator 1
 335 0038 8023     		mov	r3, #128
 336 003a 5B03     		lsl	r3, r3, #13
 337 003c 00E0     		b	.L16
ARM GAS  C:\Users\fneves\AppData\Local\Temp\ccV5UskS.s 			page 19


 338              	.L15:
 339              		.loc 1 688 0 discriminator 2
 340 003e 0023     		mov	r3, #0
 341              	.L16:
 342              		.loc 1 688 0 discriminator 4
 343 0040 0B43     		orr	r3, r1
 685:Generated_Source\PSoC4/engine_sensor_adc.c ****    
 344              		.loc 1 685 0 is_stmt 1 discriminator 4
 345 0042 1360     		str	r3, [r2]
 689:Generated_Source\PSoC4/engine_sensor_adc.c ****     ? engine_sensor_adc_SAR_CTRL_BOOSTPUMP_EN_MSK : 0u);
 690:Generated_Source\PSoC4/engine_sensor_adc.c **** 	
 691:Generated_Source\PSoC4/engine_sensor_adc.c **** 	engine_sensor_adc_SAR_SAMPLE_CTRL_REG = config->sampleCtrl;
 346              		.loc 1 691 0 discriminator 4
 347 0044 334A     		ldr	r2, .L23+8
 348 0046 7B68     		ldr	r3, [r7, #4]
 349 0048 DB68     		ldr	r3, [r3, #12]
 350 004a 1360     		str	r3, [r2]
 692:Generated_Source\PSoC4/engine_sensor_adc.c **** 	engine_sensor_adc_SAR_RANGE_THRES_REG = config->rangeThres;	
 351              		.loc 1 692 0 discriminator 4
 352 004c 324A     		ldr	r2, .L23+12
 353 004e 7B68     		ldr	r3, [r7, #4]
 354 0050 9B69     		ldr	r3, [r3, #24]
 355 0052 1360     		str	r3, [r2]
 693:Generated_Source\PSoC4/engine_sensor_adc.c **** 	engine_sensor_adc_SAR_RANGE_COND_REG = config->rangeCond;
 356              		.loc 1 693 0 discriminator 4
 357 0054 314A     		ldr	r2, .L23+16
 358 0056 7B68     		ldr	r3, [r7, #4]
 359 0058 DB69     		ldr	r3, [r3, #28]
 360 005a 1360     		str	r3, [r2]
 694:Generated_Source\PSoC4/engine_sensor_adc.c **** 	engine_sensor_adc_SAR_SAMPLE_TIME01_REG = config->sampleTime01;
 361              		.loc 1 694 0 discriminator 4
 362 005c 304A     		ldr	r2, .L23+20
 363 005e 7B68     		ldr	r3, [r7, #4]
 364 0060 1B69     		ldr	r3, [r3, #16]
 365 0062 1360     		str	r3, [r2]
 695:Generated_Source\PSoC4/engine_sensor_adc.c **** 	engine_sensor_adc_SAR_SAMPLE_TIME23_REG = config->sampleTime23;
 366              		.loc 1 695 0 discriminator 4
 367 0064 2F4A     		ldr	r2, .L23+24
 368 0066 7B68     		ldr	r3, [r7, #4]
 369 0068 5B69     		ldr	r3, [r3, #20]
 370 006a 1360     		str	r3, [r2]
 696:Generated_Source\PSoC4/engine_sensor_adc.c ****     
 697:Generated_Source\PSoC4/engine_sensor_adc.c **** 	/* Connect Vminus to VSSA when even one channel is single-ended or multiple channels configured */
 698:Generated_Source\PSoC4/engine_sensor_adc.c **** 	if(1u == engine_sensor_adc_MUX_SWITCH0_INIT)
 699:Generated_Source\PSoC4/engine_sensor_adc.c **** 	{
 700:Generated_Source\PSoC4/engine_sensor_adc.c **** 		engine_sensor_adc_MUX_SWITCH0_REG |= engine_sensor_adc_MUX_FW_VSSA_VMINUS;
 701:Generated_Source\PSoC4/engine_sensor_adc.c **** 		/* Set MUX_HW_CTRL_VSSA in MUX_SWITCH_HW_CTRL when multiple channels enabled */
 702:Generated_Source\PSoC4/engine_sensor_adc.c **** 		if(1ul < config->numChannels)
 703:Generated_Source\PSoC4/engine_sensor_adc.c **** 		{
 704:Generated_Source\PSoC4/engine_sensor_adc.c **** 			engine_sensor_adc_MUX_SWITCH_HW_CTRL_REG |= engine_sensor_adc_MUX_FW_VSSA_VMINUS;
 705:Generated_Source\PSoC4/engine_sensor_adc.c **** 		}
 706:Generated_Source\PSoC4/engine_sensor_adc.c **** 	}
 707:Generated_Source\PSoC4/engine_sensor_adc.c ****     
 708:Generated_Source\PSoC4/engine_sensor_adc.c **** 	/* Clear and set interrupt masks */
 709:Generated_Source\PSoC4/engine_sensor_adc.c **** 	engine_sensor_adc_SAR_SATURATE_INTR_MASK_REG = 0u;
 371              		.loc 1 709 0 discriminator 4
 372 006c 2E4B     		ldr	r3, .L23+28
ARM GAS  C:\Users\fneves\AppData\Local\Temp\ccV5UskS.s 			page 20


 373 006e 0022     		mov	r2, #0
 374 0070 1A60     		str	r2, [r3]
 710:Generated_Source\PSoC4/engine_sensor_adc.c ****     engine_sensor_adc_SAR_RANGE_INTR_MASK_REG = 0u;	
 375              		.loc 1 710 0 discriminator 4
 376 0072 2E4B     		ldr	r3, .L23+32
 377 0074 0022     		mov	r2, #0
 378 0076 1A60     		str	r2, [r3]
 711:Generated_Source\PSoC4/engine_sensor_adc.c **** 	engine_sensor_adc_SAR_SATURATE_INTR_MASK_REG = config->satIntMask;
 379              		.loc 1 711 0 discriminator 4
 380 0078 2B4A     		ldr	r2, .L23+28
 381 007a 7B68     		ldr	r3, [r7, #4]
 382 007c 9B6A     		ldr	r3, [r3, #40]
 383 007e 1360     		str	r3, [r2]
 712:Generated_Source\PSoC4/engine_sensor_adc.c **** 	engine_sensor_adc_SAR_RANGE_INTR_MASK_REG = config->rangeIntMask;
 384              		.loc 1 712 0 discriminator 4
 385 0080 2A4A     		ldr	r2, .L23+32
 386 0082 7B68     		ldr	r3, [r7, #4]
 387 0084 5B6A     		ldr	r3, [r3, #36]
 388 0086 1360     		str	r3, [r2]
 713:Generated_Source\PSoC4/engine_sensor_adc.c **** 	engine_sensor_adc_SAR_INTR_MASK_REG = engine_sensor_adc_EOS_MASK;
 389              		.loc 1 713 0 discriminator 4
 390 0088 294B     		ldr	r3, .L23+36
 391 008a 0122     		mov	r2, #1
 392 008c 1A60     		str	r2, [r3]
 714:Generated_Source\PSoC4/engine_sensor_adc.c ****     
 715:Generated_Source\PSoC4/engine_sensor_adc.c **** 	/* Double the non-overlap delay and latch enable time when using */
 716:Generated_Source\PSoC4/engine_sensor_adc.c ****     /* internal reference without bypass cap */
 717:Generated_Source\PSoC4/engine_sensor_adc.c ****     tmpRegVal = engine_sensor_adc_SAR_DFT_CTRL_REG;
 393              		.loc 1 717 0 discriminator 4
 394 008e 294B     		ldr	r3, .L23+40
 395 0090 1B68     		ldr	r3, [r3]
 396 0092 BB60     		str	r3, [r7, #8]
 718:Generated_Source\PSoC4/engine_sensor_adc.c **** 	if(((config->ctrl & engine_sensor_adc__SAR_CTRL_VREF_BYP_AND_SEL_MSK) 
 397              		.loc 1 718 0 discriminator 4
 398 0094 7B68     		ldr	r3, [r7, #4]
 399 0096 9B68     		ldr	r3, [r3, #8]
 400 0098 F022     		mov	r2, #240
 401 009a 1340     		and	r3, r2
 402 009c 402B     		cmp	r3, #64
 403 009e 04D0     		beq	.L17
 719:Generated_Source\PSoC4/engine_sensor_adc.c **** 	    == engine_sensor_adc__INTERNAL1024) 
 720:Generated_Source\PSoC4/engine_sensor_adc.c **** 	    || ((config->ctrl & engine_sensor_adc__SAR_CTRL_VREF_BYP_AND_SEL_MSK) 
 404              		.loc 1 720 0
 405 00a0 7B68     		ldr	r3, [r7, #4]
 406 00a2 9B68     		ldr	r3, [r3, #8]
 407 00a4 F022     		mov	r2, #240
 408 00a6 1340     		and	r3, r2
 409 00a8 08D1     		bne	.L18
 410              	.L17:
 721:Generated_Source\PSoC4/engine_sensor_adc.c **** 	    == engine_sensor_adc__INTERNALVREF))
 722:Generated_Source\PSoC4/engine_sensor_adc.c **** 	{
 723:Generated_Source\PSoC4/engine_sensor_adc.c ****         tmpRegVal &= ~engine_sensor_adc_SAR_DFT_CTRL_DCEN_MSK;
 411              		.loc 1 723 0
 412 00aa BB68     		ldr	r3, [r7, #8]
 413 00ac 224A     		ldr	r2, .L23+44
 414 00ae 1340     		and	r3, r2
 415 00b0 BB60     		str	r3, [r7, #8]
ARM GAS  C:\Users\fneves\AppData\Local\Temp\ccV5UskS.s 			page 21


 724:Generated_Source\PSoC4/engine_sensor_adc.c **** 		tmpRegVal |= engine_sensor_adc_SAR_DFT_CTRL_DLY_INC_MSK;
 416              		.loc 1 724 0
 417 00b2 BB68     		ldr	r3, [r7, #8]
 418 00b4 0122     		mov	r2, #1
 419 00b6 1343     		orr	r3, r2
 420 00b8 BB60     		str	r3, [r7, #8]
 421 00ba 08E0     		b	.L19
 422              	.L18:
 725:Generated_Source\PSoC4/engine_sensor_adc.c **** 	}
 726:Generated_Source\PSoC4/engine_sensor_adc.c **** 	else
 727:Generated_Source\PSoC4/engine_sensor_adc.c **** 	{
 728:Generated_Source\PSoC4/engine_sensor_adc.c **** 		tmpRegVal |= engine_sensor_adc_SAR_DFT_CTRL_DCEN_MSK;
 423              		.loc 1 728 0
 424 00bc BB68     		ldr	r3, [r7, #8]
 425 00be 8022     		mov	r2, #128
 426 00c0 9205     		lsl	r2, r2, #22
 427 00c2 1343     		orr	r3, r2
 428 00c4 BB60     		str	r3, [r7, #8]
 729:Generated_Source\PSoC4/engine_sensor_adc.c ****         tmpRegVal &= (uint32)~engine_sensor_adc_SAR_DFT_CTRL_DLY_INC_MSK;
 429              		.loc 1 729 0
 430 00c6 BB68     		ldr	r3, [r7, #8]
 431 00c8 0122     		mov	r2, #1
 432 00ca 9343     		bic	r3, r2
 433 00cc BB60     		str	r3, [r7, #8]
 434              	.L19:
 730:Generated_Source\PSoC4/engine_sensor_adc.c **** 	}	
 731:Generated_Source\PSoC4/engine_sensor_adc.c **** 	engine_sensor_adc_SAR_DFT_CTRL_REG = tmpRegVal;
 435              		.loc 1 731 0
 436 00ce 194B     		ldr	r3, .L23+40
 437 00d0 BA68     		ldr	r2, [r7, #8]
 438 00d2 1A60     		str	r2, [r3]
 732:Generated_Source\PSoC4/engine_sensor_adc.c **** 	
 733:Generated_Source\PSoC4/engine_sensor_adc.c **** 	for(chNum = 0u; chNum < config->numChannels; chNum++)
 439              		.loc 1 733 0
 440 00d4 0023     		mov	r3, #0
 441 00d6 FB60     		str	r3, [r7, #12]
 442 00d8 0EE0     		b	.L20
 443              	.L21:
 734:Generated_Source\PSoC4/engine_sensor_adc.c ****     {
 735:Generated_Source\PSoC4/engine_sensor_adc.c **** 		tmpRegVal = (engine_sensor_adc_channelsConfig[config->channelBase + chNum] 
 444              		.loc 1 735 0 discriminator 3
 445 00da 8023     		mov	r3, #128
 446 00dc 5B00     		lsl	r3, r3, #1
 447 00de 174A     		ldr	r2, .L23+48
 448 00e0 1340     		and	r3, r2
 449 00e2 BB60     		str	r3, [r7, #8]
 736:Generated_Source\PSoC4/engine_sensor_adc.c **** 		& engine_sensor_adc_CHANNEL_CONFIG_MASK);
 737:Generated_Source\PSoC4/engine_sensor_adc.c ****         
 738:Generated_Source\PSoC4/engine_sensor_adc.c ****         #if(engine_sensor_adc_TOTAL_CHANNELS_NUM > 1)
 739:Generated_Source\PSoC4/engine_sensor_adc.c ****             tmpRegVal |= engine_sensor_adc_InputsPlacement[config->channelBase + chNum];
 740:Generated_Source\PSoC4/engine_sensor_adc.c ****             /*Non-paired differential channels set NEG_ADDR_EN and clear DIFFERENTIAL_EN */
 741:Generated_Source\PSoC4/engine_sensor_adc.c ****             if(0u != (engine_sensor_adc_InputsPlacement[config->channelBase + chNum] & engine_senso
 742:Generated_Source\PSoC4/engine_sensor_adc.c ****             {
 743:Generated_Source\PSoC4/engine_sensor_adc.c ****                 tmpRegVal &= ~engine_sensor_adc_SAR_CHAN_CONFIG_DIFFERENTIAL_EN_MSK;
 744:Generated_Source\PSoC4/engine_sensor_adc.c ****             }
 745:Generated_Source\PSoC4/engine_sensor_adc.c ****         #endif
 746:Generated_Source\PSoC4/engine_sensor_adc.c ****         
ARM GAS  C:\Users\fneves\AppData\Local\Temp\ccV5UskS.s 			page 22


 747:Generated_Source\PSoC4/engine_sensor_adc.c **** 		CY_SET_REG32((reg32 *)(engine_sensor_adc_SAR_CHAN_CONFIG_IND + (uint32)(chNum << 2)), tmpRegVal);
 450              		.loc 1 747 0 discriminator 3
 451 00e4 FB68     		ldr	r3, [r7, #12]
 452 00e6 9B00     		lsl	r3, r3, #2
 453 00e8 154A     		ldr	r2, .L23+52
 454 00ea 9446     		mov	ip, r2
 455 00ec 6344     		add	r3, r3, ip
 456 00ee BA68     		ldr	r2, [r7, #8]
 457 00f0 1A60     		str	r2, [r3]
 733:Generated_Source\PSoC4/engine_sensor_adc.c ****     {
 458              		.loc 1 733 0 discriminator 3
 459 00f2 FB68     		ldr	r3, [r7, #12]
 460 00f4 0133     		add	r3, r3, #1
 461 00f6 FB60     		str	r3, [r7, #12]
 462              	.L20:
 733:Generated_Source\PSoC4/engine_sensor_adc.c ****     {
 463              		.loc 1 733 0 is_stmt 0 discriminator 1
 464 00f8 7B68     		ldr	r3, [r7, #4]
 465 00fa 5A68     		ldr	r2, [r3, #4]
 466 00fc FB68     		ldr	r3, [r7, #12]
 467 00fe 9A42     		cmp	r2, r3
 468 0100 EBD8     		bhi	.L21
 748:Generated_Source\PSoC4/engine_sensor_adc.c **** 	}
 749:Generated_Source\PSoC4/engine_sensor_adc.c **** 	
 750:Generated_Source\PSoC4/engine_sensor_adc.c ****     return;
 469              		.loc 1 750 0 is_stmt 1
 470 0102 C046     		mov	r8, r8
 751:Generated_Source\PSoC4/engine_sensor_adc.c **** }
 471              		.loc 1 751 0
 472 0104 BD46     		mov	sp, r7
 473 0106 04B0     		add	sp, sp, #16
 474              		@ sp needed
 475 0108 80BD     		pop	{r7, pc}
 476              	.L24:
 477 010a C046     		.align	2
 478              	.L23:
 479 010c 00003A40 		.word	1077542912
 480 0110 80033A40 		.word	1077543808
 481 0114 04003A40 		.word	1077542916
 482 0118 18003A40 		.word	1077542936
 483 011c 1C003A40 		.word	1077542940
 484 0120 10003A40 		.word	1077542928
 485 0124 14003A40 		.word	1077542932
 486 0128 28023A40 		.word	1077543464
 487 012c 38023A40 		.word	1077543480
 488 0130 18023A40 		.word	1077543448
 489 0134 30003A40 		.word	1077542960
 490 0138 FFFFFFDF 		.word	-536870913
 491 013c 00370080 		.word	-2147469568
 492 0140 80003A40 		.word	1077543040
 493              		.cfi_endproc
 494              	.LFE4:
 495              		.size	engine_sensor_adc_InitConfig, .-engine_sensor_adc_InitConfig
 496              		.section	.text.engine_sensor_adc_SelectConfig,"ax",%progbits
 497              		.align	2
 498              		.global	engine_sensor_adc_SelectConfig
 499              		.code	16
ARM GAS  C:\Users\fneves\AppData\Local\Temp\ccV5UskS.s 			page 23


 500              		.thumb_func
 501              		.type	engine_sensor_adc_SelectConfig, %function
 502              	engine_sensor_adc_SelectConfig:
 503              	.LFB5:
 752:Generated_Source\PSoC4/engine_sensor_adc.c **** 
 753:Generated_Source\PSoC4/engine_sensor_adc.c **** /* ****************************************************************************
 754:Generated_Source\PSoC4/engine_sensor_adc.c **** * Function Name: engine_sensor_adc_SelectConfig
 755:Generated_Source\PSoC4/engine_sensor_adc.c **** ****************************************************************************//* 
 756:Generated_Source\PSoC4/engine_sensor_adc.c **** *
 757:Generated_Source\PSoC4/engine_sensor_adc.c **** * \brief Selects the predefined configuration for scanning. Disables
 758:Generated_Source\PSoC4/engine_sensor_adc.c **** * and re-enables the SAR and filter (if filter used).
 759:Generated_Source\PSoC4/engine_sensor_adc.c **** * 
 760:Generated_Source\PSoC4/engine_sensor_adc.c **** * \param config Number of configuration  in the engine_sensor_adc.
 761:Generated_Source\PSoC4/engine_sensor_adc.c **** * 
 762:Generated_Source\PSoC4/engine_sensor_adc.c **** * \param restart Determines if the engine_sensor_adc should be  restarted after 
 763:Generated_Source\PSoC4/engine_sensor_adc.c **** * selecting the configuration.
 764:Generated_Source\PSoC4/engine_sensor_adc.c **** **
 765:Generated_Source\PSoC4/engine_sensor_adc.c **** * <b>Code Snippet</b>
 766:Generated_Source\PSoC4/engine_sensor_adc.c **** *  \snippet main.c snippet_engine_sensor_adc_SelectConfig
 767:Generated_Source\PSoC4/engine_sensor_adc.c **** *
 768:Generated_Source\PSoC4/engine_sensor_adc.c **** *******************************************************************************/
 769:Generated_Source\PSoC4/engine_sensor_adc.c **** void engine_sensor_adc_SelectConfig(uint32 config, uint32 restart)
 770:Generated_Source\PSoC4/engine_sensor_adc.c **** {
 504              		.loc 1 770 0
 505              		.cfi_startproc
 506 0000 80B5     		push	{r7, lr}
 507              		.cfi_def_cfa_offset 8
 508              		.cfi_offset 7, -8
 509              		.cfi_offset 14, -4
 510 0002 82B0     		sub	sp, sp, #8
 511              		.cfi_def_cfa_offset 16
 512 0004 00AF     		add	r7, sp, #0
 513              		.cfi_def_cfa_register 7
 514 0006 7860     		str	r0, [r7, #4]
 515 0008 3960     		str	r1, [r7]
 771:Generated_Source\PSoC4/engine_sensor_adc.c ****     /* Check whether the configuration number is valid or not */
 772:Generated_Source\PSoC4/engine_sensor_adc.c ****     if(engine_sensor_adc_TOTAL_CONFIGS > config)
 516              		.loc 1 772 0
 517 000a 7B68     		ldr	r3, [r7, #4]
 518 000c 002B     		cmp	r3, #0
 519 000e 4FD1     		bne	.L26
 773:Generated_Source\PSoC4/engine_sensor_adc.c ****     {        
 774:Generated_Source\PSoC4/engine_sensor_adc.c ****         /* Stop the ADC before changing configurations */
 775:Generated_Source\PSoC4/engine_sensor_adc.c **** 	    engine_sensor_adc_Stop();
 520              		.loc 1 775 0
 521 0010 FFF7FEFF 		bl	engine_sensor_adc_Stop
 776:Generated_Source\PSoC4/engine_sensor_adc.c ****         engine_sensor_adc_selected = 1u;
 522              		.loc 1 776 0
 523 0014 284B     		ldr	r3, .L29
 524 0016 0122     		mov	r2, #1
 525 0018 1A70     		strb	r2, [r3]
 777:Generated_Source\PSoC4/engine_sensor_adc.c ****         
 778:Generated_Source\PSoC4/engine_sensor_adc.c ****     	if(0u == engine_sensor_adc_initVar)
 526              		.loc 1 778 0
 527 001a 284B     		ldr	r3, .L29+4
 528 001c 1B78     		ldrb	r3, [r3]
 529 001e 002B     		cmp	r3, #0
ARM GAS  C:\Users\fneves\AppData\Local\Temp\ccV5UskS.s 			page 24


 530 0020 08D1     		bne	.L27
 779:Generated_Source\PSoC4/engine_sensor_adc.c ****     	{
 780:Generated_Source\PSoC4/engine_sensor_adc.c ****             engine_sensor_adc_Init();
 531              		.loc 1 780 0
 532 0022 FFF7FEFF 		bl	engine_sensor_adc_Init
 781:Generated_Source\PSoC4/engine_sensor_adc.c ****             engine_sensor_adc_initVar |= engine_sensor_adc_INIT_VAR_INIT_FLAG;
 533              		.loc 1 781 0
 534 0026 254B     		ldr	r3, .L29+4
 535 0028 1B78     		ldrb	r3, [r3]
 536 002a 0122     		mov	r2, #1
 537 002c 1343     		orr	r3, r2
 538 002e DAB2     		uxtb	r2, r3
 539 0030 224B     		ldr	r3, .L29+4
 540 0032 1A70     		strb	r2, [r3]
 541              	.L27:
 782:Generated_Source\PSoC4/engine_sensor_adc.c ****     	}
 783:Generated_Source\PSoC4/engine_sensor_adc.c ****         #if (engine_sensor_adc_VREF_ROUTED)
 784:Generated_Source\PSoC4/engine_sensor_adc.c ****             engine_sensor_adc_vrefAMux_DisconnectAll();
 785:Generated_Source\PSoC4/engine_sensor_adc.c ****         #endif
 786:Generated_Source\PSoC4/engine_sensor_adc.c ****     	engine_sensor_adc_InitConfig(&engine_sensor_adc_allConfigs[config]);
 542              		.loc 1 786 0
 543 0034 7A68     		ldr	r2, [r7, #4]
 544 0036 131C     		mov	r3, r2
 545 0038 DB00     		lsl	r3, r3, #3
 546 003a 9B1A     		sub	r3, r3, r2
 547 003c DB00     		lsl	r3, r3, #3
 548 003e 204A     		ldr	r2, .L29+8
 549 0040 9B18     		add	r3, r3, r2
 550 0042 181C     		mov	r0, r3
 551 0044 FFF7FEFF 		bl	engine_sensor_adc_InitConfig
 787:Generated_Source\PSoC4/engine_sensor_adc.c ****         #if (engine_sensor_adc_VREF_ROUTED)
 788:Generated_Source\PSoC4/engine_sensor_adc.c ****             engine_sensor_adc_vrefAMux_Select((uint8)config);
 789:Generated_Source\PSoC4/engine_sensor_adc.c ****         #endif
 790:Generated_Source\PSoC4/engine_sensor_adc.c ****         #if(0u != engine_sensor_adc_ANY_CONFIG_USES_FILTER)
 791:Generated_Source\PSoC4/engine_sensor_adc.c ****             engine_sensor_adc_filterVinMux_Select((uint8)config);
 552              		.loc 1 791 0
 553 0048 7B68     		ldr	r3, [r7, #4]
 554 004a DBB2     		uxtb	r3, r3
 555 004c 181C     		mov	r0, r3
 556 004e FFF7FEFF 		bl	engine_sensor_adc_filterVinMux_Select
 792:Generated_Source\PSoC4/engine_sensor_adc.c ****             engine_sensor_adc_filterInit(config);
 557              		.loc 1 792 0
 558 0052 7B68     		ldr	r3, [r7, #4]
 559 0054 181C     		mov	r0, r3
 560 0056 FFF7FEFF 		bl	engine_sensor_adc_filterInit
 793:Generated_Source\PSoC4/engine_sensor_adc.c ****         #endif
 794:Generated_Source\PSoC4/engine_sensor_adc.c ****     	engine_sensor_adc_SAR_CHAN_EN_REG = engine_sensor_adc_allConfigs[config].chanEn;
 561              		.loc 1 794 0
 562 005a 1A4A     		ldr	r2, .L29+12
 563 005c 1848     		ldr	r0, .L29+8
 564 005e 7968     		ldr	r1, [r7, #4]
 565 0060 0B1C     		mov	r3, r1
 566 0062 DB00     		lsl	r3, r3, #3
 567 0064 5B1A     		sub	r3, r3, r1
 568 0066 DB00     		lsl	r3, r3, #3
 569 0068 C318     		add	r3, r0, r3
 570 006a 2033     		add	r3, r3, #32
ARM GAS  C:\Users\fneves\AppData\Local\Temp\ccV5UskS.s 			page 25


 571 006c 1B68     		ldr	r3, [r3]
 572 006e 1360     		str	r3, [r2]
 795:Generated_Source\PSoC4/engine_sensor_adc.c ****     	engine_sensor_adc_SAR_RANGE_INTR_MASK_REG = engine_sensor_adc_allConfigs[config].rangeIntMask;
 573              		.loc 1 795 0
 574 0070 154A     		ldr	r2, .L29+16
 575 0072 1348     		ldr	r0, .L29+8
 576 0074 7968     		ldr	r1, [r7, #4]
 577 0076 0B1C     		mov	r3, r1
 578 0078 DB00     		lsl	r3, r3, #3
 579 007a 5B1A     		sub	r3, r3, r1
 580 007c DB00     		lsl	r3, r3, #3
 581 007e C318     		add	r3, r0, r3
 582 0080 2033     		add	r3, r3, #32
 583 0082 5B68     		ldr	r3, [r3, #4]
 584 0084 1360     		str	r3, [r2]
 796:Generated_Source\PSoC4/engine_sensor_adc.c ****     	engine_sensor_adc_SAR_SATURATE_INTR_MASK_REG = engine_sensor_adc_allConfigs[config].satIntMask
 585              		.loc 1 796 0
 586 0086 114A     		ldr	r2, .L29+20
 587 0088 0D48     		ldr	r0, .L29+8
 588 008a 7968     		ldr	r1, [r7, #4]
 589 008c 0B1C     		mov	r3, r1
 590 008e DB00     		lsl	r3, r3, #3
 591 0090 5B1A     		sub	r3, r3, r1
 592 0092 DB00     		lsl	r3, r3, #3
 593 0094 C318     		add	r3, r0, r3
 594 0096 2833     		add	r3, r3, #40
 595 0098 1B68     		ldr	r3, [r3]
 596 009a 1360     		str	r3, [r2]
 797:Generated_Source\PSoC4/engine_sensor_adc.c ****     	engine_sensor_adc_currentConfig = config;
 597              		.loc 1 797 0
 598 009c 0C4B     		ldr	r3, .L29+24
 599 009e 7A68     		ldr	r2, [r7, #4]
 600 00a0 1A60     		str	r2, [r3]
 798:Generated_Source\PSoC4/engine_sensor_adc.c ****         
 799:Generated_Source\PSoC4/engine_sensor_adc.c ****         if(1u == restart)
 601              		.loc 1 799 0
 602 00a2 3B68     		ldr	r3, [r7]
 603 00a4 012B     		cmp	r3, #1
 604 00a6 03D1     		bne	.L26
 800:Generated_Source\PSoC4/engine_sensor_adc.c ****         {
 801:Generated_Source\PSoC4/engine_sensor_adc.c ****             /* Restart the ADC */    
 802:Generated_Source\PSoC4/engine_sensor_adc.c ****             engine_sensor_adc_Start();
 605              		.loc 1 802 0
 606 00a8 FFF7FEFF 		bl	engine_sensor_adc_Start
 803:Generated_Source\PSoC4/engine_sensor_adc.c ****             
 804:Generated_Source\PSoC4/engine_sensor_adc.c ****             /* Restart the scan */
 805:Generated_Source\PSoC4/engine_sensor_adc.c ****             engine_sensor_adc_StartConvert();
 607              		.loc 1 805 0
 608 00ac FFF7FEFF 		bl	engine_sensor_adc_StartConvert
 609              	.L26:
 806:Generated_Source\PSoC4/engine_sensor_adc.c ****         }
 807:Generated_Source\PSoC4/engine_sensor_adc.c ****     }
 808:Generated_Source\PSoC4/engine_sensor_adc.c ****     return;
 610              		.loc 1 808 0
 611 00b0 C046     		mov	r8, r8
 809:Generated_Source\PSoC4/engine_sensor_adc.c **** }
 612              		.loc 1 809 0
ARM GAS  C:\Users\fneves\AppData\Local\Temp\ccV5UskS.s 			page 26


 613 00b2 BD46     		mov	sp, r7
 614 00b4 02B0     		add	sp, sp, #8
 615              		@ sp needed
 616 00b6 80BD     		pop	{r7, pc}
 617              	.L30:
 618              		.align	2
 619              	.L29:
 620 00b8 00000000 		.word	engine_sensor_adc_selected
 621 00bc 00000000 		.word	engine_sensor_adc_initVar
 622 00c0 00000000 		.word	engine_sensor_adc_allConfigs
 623 00c4 20003A40 		.word	1077542944
 624 00c8 38023A40 		.word	1077543480
 625 00cc 28023A40 		.word	1077543464
 626 00d0 04000000 		.word	engine_sensor_adc_currentConfig
 627              		.cfi_endproc
 628              	.LFE5:
 629              		.size	engine_sensor_adc_SelectConfig, .-engine_sensor_adc_SelectConfig
 630              		.section	.text.engine_sensor_adc_StartConvert,"ax",%progbits
 631              		.align	2
 632              		.global	engine_sensor_adc_StartConvert
 633              		.code	16
 634              		.thumb_func
 635              		.type	engine_sensor_adc_StartConvert, %function
 636              	engine_sensor_adc_StartConvert:
 637              	.LFB6:
 810:Generated_Source\PSoC4/engine_sensor_adc.c **** 
 811:Generated_Source\PSoC4/engine_sensor_adc.c **** /*******************************************************************************
 812:Generated_Source\PSoC4/engine_sensor_adc.c **** * Function Name: engine_sensor_adc_StartConvert
 813:Generated_Source\PSoC4/engine_sensor_adc.c **** ****************************************************************************//**
 814:Generated_Source\PSoC4/engine_sensor_adc.c **** *
 815:Generated_Source\PSoC4/engine_sensor_adc.c **** * \brief In continuous mode, this API starts the conversion process and it runs 
 816:Generated_Source\PSoC4/engine_sensor_adc.c **** * continuously. 
 817:Generated_Source\PSoC4/engine_sensor_adc.c **** 
 818:Generated_Source\PSoC4/engine_sensor_adc.c **** * In Single Shot mode, the function triggers a single scan and 
 819:Generated_Source\PSoC4/engine_sensor_adc.c **** * every scan requires a call of this function. The mode is set with the 
 820:Generated_Source\PSoC4/engine_sensor_adc.c **** * Sample Mode parameter in the customizer. The customizer setting can be 
 821:Generated_Source\PSoC4/engine_sensor_adc.c **** * overridden at run time with the engine_sensor_adc_SetConvertMode() function.
 822:Generated_Source\PSoC4/engine_sensor_adc.c **** * 
 823:Generated_Source\PSoC4/engine_sensor_adc.c **** * \param None
 824:Generated_Source\PSoC4/engine_sensor_adc.c **** * 
 825:Generated_Source\PSoC4/engine_sensor_adc.c **** * \return None
 826:Generated_Source\PSoC4/engine_sensor_adc.c **** * 
 827:Generated_Source\PSoC4/engine_sensor_adc.c **** * \sideeffect None
 828:Generated_Source\PSoC4/engine_sensor_adc.c **** *
 829:Generated_Source\PSoC4/engine_sensor_adc.c **** * <b>Code Snippet</b>
 830:Generated_Source\PSoC4/engine_sensor_adc.c **** *  \snippet main.c snippet_engine_sensor_adc_StartConvert
 831:Generated_Source\PSoC4/engine_sensor_adc.c **** *
 832:Generated_Source\PSoC4/engine_sensor_adc.c **** *******************************************************************************/
 833:Generated_Source\PSoC4/engine_sensor_adc.c **** void engine_sensor_adc_StartConvert(void)
 834:Generated_Source\PSoC4/engine_sensor_adc.c **** {
 638              		.loc 1 834 0
 639              		.cfi_startproc
 640 0000 80B5     		push	{r7, lr}
 641              		.cfi_def_cfa_offset 8
 642              		.cfi_offset 7, -8
 643              		.cfi_offset 14, -4
 644 0002 00AF     		add	r7, sp, #0
ARM GAS  C:\Users\fneves\AppData\Local\Temp\ccV5UskS.s 			page 27


 645              		.cfi_def_cfa_register 7
 835:Generated_Source\PSoC4/engine_sensor_adc.c ****     /* CDT 243358 */
 836:Generated_Source\PSoC4/engine_sensor_adc.c ****     #if(0u != engine_sensor_adc_ANY_CONFIG_USES_FILTER)
 837:Generated_Source\PSoC4/engine_sensor_adc.c ****         engine_sensor_adc_Stop();
 646              		.loc 1 837 0
 647 0004 FFF7FEFF 		bl	engine_sensor_adc_Stop
 838:Generated_Source\PSoC4/engine_sensor_adc.c ****         engine_sensor_adc_Start();
 648              		.loc 1 838 0
 649 0008 FFF7FEFF 		bl	engine_sensor_adc_Start
 839:Generated_Source\PSoC4/engine_sensor_adc.c ****     #endif
 840:Generated_Source\PSoC4/engine_sensor_adc.c ****     
 841:Generated_Source\PSoC4/engine_sensor_adc.c **** 	/* Freerunning mode */
 842:Generated_Source\PSoC4/engine_sensor_adc.c **** 	if((engine_sensor_adc_SAR_SAMPLE_CTRL_REG 
 650              		.loc 1 842 0
 651 000c 094B     		ldr	r3, .L35
 652 000e 1A68     		ldr	r2, [r3]
 843:Generated_Source\PSoC4/engine_sensor_adc.c **** 		& engine_sensor_adc_SAR_SAMPLE_CTRL_DSI_TRIGGER_LEVEL_MSK) 
 653              		.loc 1 843 0
 654 0010 8023     		mov	r3, #128
 655 0012 DB02     		lsl	r3, r3, #11
 656 0014 1340     		and	r3, r2
 842:Generated_Source\PSoC4/engine_sensor_adc.c **** 		& engine_sensor_adc_SAR_SAMPLE_CTRL_DSI_TRIGGER_LEVEL_MSK) 
 657              		.loc 1 842 0
 658 0016 07D0     		beq	.L32
 844:Generated_Source\PSoC4/engine_sensor_adc.c **** 		== engine_sensor_adc_SAR_SAMPLE_CTRL_DSI_TRIGGER_LEVEL_MSK)
 845:Generated_Source\PSoC4/engine_sensor_adc.c ****     {
 846:Generated_Source\PSoC4/engine_sensor_adc.c **** 		engine_sensor_adc_SAR_SAMPLE_CTRL_REG |= engine_sensor_adc_SAR_SAMPLE_CTRL_CONTINUOUS_MSK ;
 659              		.loc 1 846 0
 660 0018 064B     		ldr	r3, .L35
 661 001a 064A     		ldr	r2, .L35
 662 001c 1268     		ldr	r2, [r2]
 663 001e 8021     		mov	r1, #128
 664 0020 4902     		lsl	r1, r1, #9
 665 0022 0A43     		orr	r2, r1
 666 0024 1A60     		str	r2, [r3]
 667 0026 02E0     		b	.L33
 668              	.L32:
 847:Generated_Source\PSoC4/engine_sensor_adc.c **** 	}
 848:Generated_Source\PSoC4/engine_sensor_adc.c **** 	else /* Firmware trigger */
 849:Generated_Source\PSoC4/engine_sensor_adc.c **** 	{
 850:Generated_Source\PSoC4/engine_sensor_adc.c **** 		engine_sensor_adc_SAR_START_CTRL_REG = engine_sensor_adc_SAR_START_CTRL_FW_TRIGGER_MSK;
 669              		.loc 1 850 0
 670 0028 034B     		ldr	r3, .L35+4
 671 002a 0122     		mov	r2, #1
 672 002c 1A60     		str	r2, [r3]
 673              	.L33:
 851:Generated_Source\PSoC4/engine_sensor_adc.c **** 	}
 852:Generated_Source\PSoC4/engine_sensor_adc.c ****     
 853:Generated_Source\PSoC4/engine_sensor_adc.c ****     return;
 674              		.loc 1 853 0
 675 002e C046     		mov	r8, r8
 854:Generated_Source\PSoC4/engine_sensor_adc.c **** }
 676              		.loc 1 854 0
 677 0030 BD46     		mov	sp, r7
 678              		@ sp needed
 679 0032 80BD     		pop	{r7, pc}
 680              	.L36:
ARM GAS  C:\Users\fneves\AppData\Local\Temp\ccV5UskS.s 			page 28


 681              		.align	2
 682              	.L35:
 683 0034 04003A40 		.word	1077542916
 684 0038 24003A40 		.word	1077542948
 685              		.cfi_endproc
 686              	.LFE6:
 687              		.size	engine_sensor_adc_StartConvert, .-engine_sensor_adc_StartConvert
 688              		.section	.text.engine_sensor_adc_StopConvert,"ax",%progbits
 689              		.align	2
 690              		.global	engine_sensor_adc_StopConvert
 691              		.code	16
 692              		.thumb_func
 693              		.type	engine_sensor_adc_StopConvert, %function
 694              	engine_sensor_adc_StopConvert:
 695              	.LFB7:
 855:Generated_Source\PSoC4/engine_sensor_adc.c **** 
 856:Generated_Source\PSoC4/engine_sensor_adc.c **** /*******************************************************************************
 857:Generated_Source\PSoC4/engine_sensor_adc.c **** * Function Name: engine_sensor_adc_StopConvert
 858:Generated_Source\PSoC4/engine_sensor_adc.c **** ****************************************************************************//**
 859:Generated_Source\PSoC4/engine_sensor_adc.c **** *
 860:Generated_Source\PSoC4/engine_sensor_adc.c **** * \brief Forces the engine_sensor_adc to stop conversions. If a conversion is 
 861:Generated_Source\PSoC4/engine_sensor_adc.c **** * currently executing, that conversion will complete, but no further conversions 
 862:Generated_Source\PSoC4/engine_sensor_adc.c **** * will occur.
 863:Generated_Source\PSoC4/engine_sensor_adc.c **** * 
 864:Generated_Source\PSoC4/engine_sensor_adc.c **** * \param None
 865:Generated_Source\PSoC4/engine_sensor_adc.c **** *
 866:Generated_Source\PSoC4/engine_sensor_adc.c **** * \return None
 867:Generated_Source\PSoC4/engine_sensor_adc.c **** *
 868:Generated_Source\PSoC4/engine_sensor_adc.c **** * \sideeffect None
 869:Generated_Source\PSoC4/engine_sensor_adc.c **** *
 870:Generated_Source\PSoC4/engine_sensor_adc.c **** * <b>Code Snippet</b>
 871:Generated_Source\PSoC4/engine_sensor_adc.c **** *  \snippet main.c snippet_engine_sensor_adc_StopConvert
 872:Generated_Source\PSoC4/engine_sensor_adc.c **** *
 873:Generated_Source\PSoC4/engine_sensor_adc.c **** *******************************************************************************/
 874:Generated_Source\PSoC4/engine_sensor_adc.c **** void engine_sensor_adc_StopConvert(void)
 875:Generated_Source\PSoC4/engine_sensor_adc.c **** {
 696              		.loc 1 875 0
 697              		.cfi_startproc
 698 0000 80B5     		push	{r7, lr}
 699              		.cfi_def_cfa_offset 8
 700              		.cfi_offset 7, -8
 701              		.cfi_offset 14, -4
 702 0002 00AF     		add	r7, sp, #0
 703              		.cfi_def_cfa_register 7
 876:Generated_Source\PSoC4/engine_sensor_adc.c ****     if((engine_sensor_adc_SAR_SAMPLE_CTRL_REG  
 704              		.loc 1 876 0
 705 0004 0F4B     		ldr	r3, .L40
 706 0006 1A68     		ldr	r2, [r3]
 877:Generated_Source\PSoC4/engine_sensor_adc.c **** 		& engine_sensor_adc_SAR_SAMPLE_CTRL_DSI_TRIGGER_LEVEL_MSK) 
 707              		.loc 1 877 0
 708 0008 8023     		mov	r3, #128
 709 000a DB02     		lsl	r3, r3, #11
 710 000c 1340     		and	r3, r2
 876:Generated_Source\PSoC4/engine_sensor_adc.c ****     if((engine_sensor_adc_SAR_SAMPLE_CTRL_REG  
 711              		.loc 1 876 0
 712 000e 16D0     		beq	.L38
 878:Generated_Source\PSoC4/engine_sensor_adc.c **** 		== engine_sensor_adc_SAR_SAMPLE_CTRL_DSI_TRIGGER_LEVEL_MSK)
ARM GAS  C:\Users\fneves\AppData\Local\Temp\ccV5UskS.s 			page 29


 879:Generated_Source\PSoC4/engine_sensor_adc.c **** 	{
 880:Generated_Source\PSoC4/engine_sensor_adc.c ****         engine_sensor_adc_SAR_SAMPLE_CTRL_REG &= ~engine_sensor_adc_SAR_SAMPLE_CTRL_CONTINUOUS_MSK;
 713              		.loc 1 880 0
 714 0010 0C4B     		ldr	r3, .L40
 715 0012 0C4A     		ldr	r2, .L40
 716 0014 1268     		ldr	r2, [r2]
 717 0016 0C49     		ldr	r1, .L40+4
 718 0018 0A40     		and	r2, r1
 719 001a 1A60     		str	r2, [r3]
 881:Generated_Source\PSoC4/engine_sensor_adc.c ****         
 882:Generated_Source\PSoC4/engine_sensor_adc.c ****         if((engine_sensor_adc_allConfigs[engine_sensor_adc_currentConfig].miscConfig 
 720              		.loc 1 882 0
 721 001c 0B4B     		ldr	r3, .L40+8
 722 001e 1A68     		ldr	r2, [r3]
 723 0020 0B49     		ldr	r1, .L40+12
 724 0022 131C     		mov	r3, r2
 725 0024 DB00     		lsl	r3, r3, #3
 726 0026 9B1A     		sub	r3, r3, r2
 727 0028 DB00     		lsl	r3, r3, #3
 728 002a CB18     		add	r3, r1, r3
 729 002c 3033     		add	r3, r3, #48
 730 002e 1B68     		ldr	r3, [r3]
 883:Generated_Source\PSoC4/engine_sensor_adc.c ****             & engine_sensor_adc_MISC_CONFIG_FILTER_PRESENT_MSK) 
 731              		.loc 1 883 0
 732 0030 0222     		mov	r2, #2
 733 0032 1340     		and	r3, r2
 882:Generated_Source\PSoC4/engine_sensor_adc.c ****             & engine_sensor_adc_MISC_CONFIG_FILTER_PRESENT_MSK) 
 734              		.loc 1 882 0
 735 0034 03D0     		beq	.L38
 884:Generated_Source\PSoC4/engine_sensor_adc.c ****     	    == engine_sensor_adc_MISC_CONFIG_FILTER_PRESENT_MSK)
 885:Generated_Source\PSoC4/engine_sensor_adc.c ****         {
 886:Generated_Source\PSoC4/engine_sensor_adc.c ****             /* Re-synchronize the Filter if a filter is present */
 887:Generated_Source\PSoC4/engine_sensor_adc.c ****             engine_sensor_adc_Stop();
 736              		.loc 1 887 0
 737 0036 FFF7FEFF 		bl	engine_sensor_adc_Stop
 888:Generated_Source\PSoC4/engine_sensor_adc.c ****             engine_sensor_adc_Start();
 738              		.loc 1 888 0
 739 003a FFF7FEFF 		bl	engine_sensor_adc_Start
 740              	.L38:
 889:Generated_Source\PSoC4/engine_sensor_adc.c ****         }
 890:Generated_Source\PSoC4/engine_sensor_adc.c **** 	}
 891:Generated_Source\PSoC4/engine_sensor_adc.c ****     
 892:Generated_Source\PSoC4/engine_sensor_adc.c ****     return;
 741              		.loc 1 892 0
 742 003e C046     		mov	r8, r8
 893:Generated_Source\PSoC4/engine_sensor_adc.c **** }
 743              		.loc 1 893 0
 744 0040 BD46     		mov	sp, r7
 745              		@ sp needed
 746 0042 80BD     		pop	{r7, pc}
 747              	.L41:
 748              		.align	2
 749              	.L40:
 750 0044 04003A40 		.word	1077542916
 751 0048 FFFFFEFF 		.word	-65537
 752 004c 04000000 		.word	engine_sensor_adc_currentConfig
 753 0050 00000000 		.word	engine_sensor_adc_allConfigs
ARM GAS  C:\Users\fneves\AppData\Local\Temp\ccV5UskS.s 			page 30


 754              		.cfi_endproc
 755              	.LFE7:
 756              		.size	engine_sensor_adc_StopConvert, .-engine_sensor_adc_StopConvert
 757              		.section	.text.engine_sensor_adc_SetConvertMode,"ax",%progbits
 758              		.align	2
 759              		.global	engine_sensor_adc_SetConvertMode
 760              		.code	16
 761              		.thumb_func
 762              		.type	engine_sensor_adc_SetConvertMode, %function
 763              	engine_sensor_adc_SetConvertMode:
 764              	.LFB8:
 894:Generated_Source\PSoC4/engine_sensor_adc.c **** /*******************************************************************************
 895:Generated_Source\PSoC4/engine_sensor_adc.c **** * Function Name: engine_sensor_adc_SetConvertMode
 896:Generated_Source\PSoC4/engine_sensor_adc.c **** ****************************************************************************//**
 897:Generated_Source\PSoC4/engine_sensor_adc.c **** *
 898:Generated_Source\PSoC4/engine_sensor_adc.c **** * \brief Sets the conversion mode to either Single-Shot or continuous. This 
 899:Generated_Source\PSoC4/engine_sensor_adc.c **** * function overrides the settings applied in the customizer. Changing 
 900:Generated_Source\PSoC4/engine_sensor_adc.c **** * configurations will restore the values set in the customizer.
 901:Generated_Source\PSoC4/engine_sensor_adc.c **** *
 902:Generated_Source\PSoC4/engine_sensor_adc.c **** * \param mode Sets the conversion mode. See table below for details.
 903:Generated_Source\PSoC4/engine_sensor_adc.c **** * | Options                          | Description                             |
 904:Generated_Source\PSoC4/engine_sensor_adc.c **** * | :------------------------------- | :-------------------------------------- |
 905:Generated_Source\PSoC4/engine_sensor_adc.c **** * | engine_sensor_adc_SINGLE_SHOT     | Calling the engine_sensor_adc_StartConvert() function after
 906:Generated_Source\PSoC4/engine_sensor_adc.c **** * | engine_sensor_adc_CONTINUOUS      | Calling the engine_sensor_adc_StartConvert() function after
 907:Generated_Source\PSoC4/engine_sensor_adc.c **** *
 908:Generated_Source\PSoC4/engine_sensor_adc.c **** * \return None
 909:Generated_Source\PSoC4/engine_sensor_adc.c **** * 
 910:Generated_Source\PSoC4/engine_sensor_adc.c **** * \sideeffect None
 911:Generated_Source\PSoC4/engine_sensor_adc.c **** *
 912:Generated_Source\PSoC4/engine_sensor_adc.c **** * <b>Code Snippet</b>
 913:Generated_Source\PSoC4/engine_sensor_adc.c **** *  \snippet main.c snippet_engine_sensor_adc_SetConvertMode
 914:Generated_Source\PSoC4/engine_sensor_adc.c **** *
 915:Generated_Source\PSoC4/engine_sensor_adc.c **** *******************************************************************************/
 916:Generated_Source\PSoC4/engine_sensor_adc.c **** void engine_sensor_adc_SetConvertMode(uint32 mode)
 917:Generated_Source\PSoC4/engine_sensor_adc.c **** {
 765              		.loc 1 917 0
 766              		.cfi_startproc
 767 0000 80B5     		push	{r7, lr}
 768              		.cfi_def_cfa_offset 8
 769              		.cfi_offset 7, -8
 770              		.cfi_offset 14, -4
 771 0002 82B0     		sub	sp, sp, #8
 772              		.cfi_def_cfa_offset 16
 773 0004 00AF     		add	r7, sp, #0
 774              		.cfi_def_cfa_register 7
 775 0006 7860     		str	r0, [r7, #4]
 918:Generated_Source\PSoC4/engine_sensor_adc.c ****     if(engine_sensor_adc_CONTINUOUS == mode)
 776              		.loc 1 918 0
 777 0008 7B68     		ldr	r3, [r7, #4]
 778 000a 012B     		cmp	r3, #1
 779 000c 07D1     		bne	.L43
 919:Generated_Source\PSoC4/engine_sensor_adc.c ****     {
 920:Generated_Source\PSoC4/engine_sensor_adc.c ****         engine_sensor_adc_SAR_SAMPLE_CTRL_REG |= engine_sensor_adc_SAR_SAMPLE_CTRL_DSI_TRIGGER_LEVE
 780              		.loc 1 920 0
 781 000e 084B     		ldr	r3, .L45
 782 0010 074A     		ldr	r2, .L45
 783 0012 1268     		ldr	r2, [r2]
ARM GAS  C:\Users\fneves\AppData\Local\Temp\ccV5UskS.s 			page 31


 784 0014 8021     		mov	r1, #128
 785 0016 C902     		lsl	r1, r1, #11
 786 0018 0A43     		orr	r2, r1
 787 001a 1A60     		str	r2, [r3]
 788 001c 05E0     		b	.L42
 789              	.L43:
 921:Generated_Source\PSoC4/engine_sensor_adc.c ****     }
 922:Generated_Source\PSoC4/engine_sensor_adc.c ****     else
 923:Generated_Source\PSoC4/engine_sensor_adc.c ****     {
 924:Generated_Source\PSoC4/engine_sensor_adc.c ****         engine_sensor_adc_SAR_SAMPLE_CTRL_REG &= ~engine_sensor_adc_SAR_SAMPLE_CTRL_DSI_TRIGGER_LEV
 790              		.loc 1 924 0
 791 001e 044B     		ldr	r3, .L45
 792 0020 034A     		ldr	r2, .L45
 793 0022 1268     		ldr	r2, [r2]
 794 0024 0349     		ldr	r1, .L45+4
 795 0026 0A40     		and	r2, r1
 796 0028 1A60     		str	r2, [r3]
 797              	.L42:
 925:Generated_Source\PSoC4/engine_sensor_adc.c ****     }
 926:Generated_Source\PSoC4/engine_sensor_adc.c **** }
 798              		.loc 1 926 0
 799 002a BD46     		mov	sp, r7
 800 002c 02B0     		add	sp, sp, #8
 801              		@ sp needed
 802 002e 80BD     		pop	{r7, pc}
 803              	.L46:
 804              		.align	2
 805              	.L45:
 806 0030 04003A40 		.word	1077542916
 807 0034 FFFFFBFF 		.word	-262145
 808              		.cfi_endproc
 809              	.LFE8:
 810              		.size	engine_sensor_adc_SetConvertMode, .-engine_sensor_adc_SetConvertMode
 811              		.section	.text.engine_sensor_adc_SetEosMask,"ax",%progbits
 812              		.align	2
 813              		.global	engine_sensor_adc_SetEosMask
 814              		.code	16
 815              		.thumb_func
 816              		.type	engine_sensor_adc_SetEosMask, %function
 817              	engine_sensor_adc_SetEosMask:
 818              	.LFB9:
 927:Generated_Source\PSoC4/engine_sensor_adc.c **** /* ****************************************************************************
 928:Generated_Source\PSoC4/engine_sensor_adc.c **** * Function Name: engine_sensor_adc_IRQ_Enable
 929:Generated_Source\PSoC4/engine_sensor_adc.c **** ****************************************************************************//*
 930:Generated_Source\PSoC4/engine_sensor_adc.c **** *
 931:Generated_Source\PSoC4/engine_sensor_adc.c **** * \brief Enables interrupts to occur at the end of a conversion. Global 
 932:Generated_Source\PSoC4/engine_sensor_adc.c **** * interrupts must also be enabled for the engine_sensor_adc interrupts to occur.
 933:Generated_Source\PSoC4/engine_sensor_adc.c **** *
 934:Generated_Source\PSoC4/engine_sensor_adc.c **** * \param None
 935:Generated_Source\PSoC4/engine_sensor_adc.c **** *
 936:Generated_Source\PSoC4/engine_sensor_adc.c **** * \return None
 937:Generated_Source\PSoC4/engine_sensor_adc.c **** *
 938:Generated_Source\PSoC4/engine_sensor_adc.c **** * \sideeffect None
 939:Generated_Source\PSoC4/engine_sensor_adc.c **** *
 940:Generated_Source\PSoC4/engine_sensor_adc.c **** * <b>Code Snippet</b>
 941:Generated_Source\PSoC4/engine_sensor_adc.c **** *  \snippet main.c snippet_engine_sensor_adc_IRQ_Enable
 942:Generated_Source\PSoC4/engine_sensor_adc.c **** *
ARM GAS  C:\Users\fneves\AppData\Local\Temp\ccV5UskS.s 			page 32


 943:Generated_Source\PSoC4/engine_sensor_adc.c **** *******************************************************************************/
 944:Generated_Source\PSoC4/engine_sensor_adc.c **** 
 945:Generated_Source\PSoC4/engine_sensor_adc.c **** 
 946:Generated_Source\PSoC4/engine_sensor_adc.c **** /* ****************************************************************************
 947:Generated_Source\PSoC4/engine_sensor_adc.c **** * Function Name: engine_sensor_adc_IRQ_Disable
 948:Generated_Source\PSoC4/engine_sensor_adc.c **** ****************************************************************************//* 
 949:Generated_Source\PSoC4/engine_sensor_adc.c **** *
 950:Generated_Source\PSoC4/engine_sensor_adc.c **** * \brief Disables end of conversion interrupts. 
 951:Generated_Source\PSoC4/engine_sensor_adc.c **** *
 952:Generated_Source\PSoC4/engine_sensor_adc.c **** * \param None
 953:Generated_Source\PSoC4/engine_sensor_adc.c **** * 
 954:Generated_Source\PSoC4/engine_sensor_adc.c **** * \return None
 955:Generated_Source\PSoC4/engine_sensor_adc.c **** * 
 956:Generated_Source\PSoC4/engine_sensor_adc.c **** * \sideeffect None
 957:Generated_Source\PSoC4/engine_sensor_adc.c **** *
 958:Generated_Source\PSoC4/engine_sensor_adc.c **** * <b>Code Snippet</b>
 959:Generated_Source\PSoC4/engine_sensor_adc.c **** *  \snippet main.c snippet_engine_sensor_adc_IRQ_Disable
 960:Generated_Source\PSoC4/engine_sensor_adc.c **** *
 961:Generated_Source\PSoC4/engine_sensor_adc.c **** *******************************************************************************/
 962:Generated_Source\PSoC4/engine_sensor_adc.c **** 
 963:Generated_Source\PSoC4/engine_sensor_adc.c **** 
 964:Generated_Source\PSoC4/engine_sensor_adc.c **** /*******************************************************************************
 965:Generated_Source\PSoC4/engine_sensor_adc.c **** * Function Name: engine_sensor_adc_SetEosMask
 966:Generated_Source\PSoC4/engine_sensor_adc.c **** ****************************************************************************//**
 967:Generated_Source\PSoC4/engine_sensor_adc.c **** *
 968:Generated_Source\PSoC4/engine_sensor_adc.c **** * \brief Sets of clears the End of Scan (EOS) interrupt mask. 
 969:Generated_Source\PSoC4/engine_sensor_adc.c **** *
 970:Generated_Source\PSoC4/engine_sensor_adc.c **** * \param mask 1 to set the mask, 0 to clear the mask.
 971:Generated_Source\PSoC4/engine_sensor_adc.c **** *
 972:Generated_Source\PSoC4/engine_sensor_adc.c **** * \return None
 973:Generated_Source\PSoC4/engine_sensor_adc.c **** * 
 974:Generated_Source\PSoC4/engine_sensor_adc.c **** * \sideeffect All other bits in the INTR register are cleared by this function.
 975:Generated_Source\PSoC4/engine_sensor_adc.c **** *
 976:Generated_Source\PSoC4/engine_sensor_adc.c **** * <b>Code Snippet</b>
 977:Generated_Source\PSoC4/engine_sensor_adc.c **** *  \snippet main.c snippet_engine_sensor_adc_SetEosMask
 978:Generated_Source\PSoC4/engine_sensor_adc.c **** *
 979:Generated_Source\PSoC4/engine_sensor_adc.c **** *******************************************************************************/
 980:Generated_Source\PSoC4/engine_sensor_adc.c **** void engine_sensor_adc_SetEosMask(uint32 mask)
 981:Generated_Source\PSoC4/engine_sensor_adc.c **** {
 819              		.loc 1 981 0
 820              		.cfi_startproc
 821 0000 80B5     		push	{r7, lr}
 822              		.cfi_def_cfa_offset 8
 823              		.cfi_offset 7, -8
 824              		.cfi_offset 14, -4
 825 0002 82B0     		sub	sp, sp, #8
 826              		.cfi_def_cfa_offset 16
 827 0004 00AF     		add	r7, sp, #0
 828              		.cfi_def_cfa_register 7
 829 0006 7860     		str	r0, [r7, #4]
 982:Generated_Source\PSoC4/engine_sensor_adc.c ****     engine_sensor_adc_SAR_INTR_MASK_REG = mask & engine_sensor_adc_EOS_MASK;
 830              		.loc 1 982 0
 831 0008 044B     		ldr	r3, .L49
 832 000a 7A68     		ldr	r2, [r7, #4]
 833 000c 0121     		mov	r1, #1
 834 000e 0A40     		and	r2, r1
 835 0010 1A60     		str	r2, [r3]
ARM GAS  C:\Users\fneves\AppData\Local\Temp\ccV5UskS.s 			page 33


 983:Generated_Source\PSoC4/engine_sensor_adc.c ****     
 984:Generated_Source\PSoC4/engine_sensor_adc.c ****     return;
 836              		.loc 1 984 0
 837 0012 C046     		mov	r8, r8
 985:Generated_Source\PSoC4/engine_sensor_adc.c **** }
 838              		.loc 1 985 0
 839 0014 BD46     		mov	sp, r7
 840 0016 02B0     		add	sp, sp, #8
 841              		@ sp needed
 842 0018 80BD     		pop	{r7, pc}
 843              	.L50:
 844 001a C046     		.align	2
 845              	.L49:
 846 001c 18023A40 		.word	1077543448
 847              		.cfi_endproc
 848              	.LFE9:
 849              		.size	engine_sensor_adc_SetEosMask, .-engine_sensor_adc_SetEosMask
 850              		.section	.text.engine_sensor_adc_SetChanMask,"ax",%progbits
 851              		.align	2
 852              		.global	engine_sensor_adc_SetChanMask
 853              		.code	16
 854              		.thumb_func
 855              		.type	engine_sensor_adc_SetChanMask, %function
 856              	engine_sensor_adc_SetChanMask:
 857              	.LFB10:
 986:Generated_Source\PSoC4/engine_sensor_adc.c **** 
 987:Generated_Source\PSoC4/engine_sensor_adc.c **** /* ****************************************************************************
 988:Generated_Source\PSoC4/engine_sensor_adc.c **** * Function Name: engine_sensor_adc_SetChanMask
 989:Generated_Source\PSoC4/engine_sensor_adc.c **** ****************************************************************************//*
 990:Generated_Source\PSoC4/engine_sensor_adc.c **** *
 991:Generated_Source\PSoC4/engine_sensor_adc.c **** * \brief Sets enable/disable mask for all channels in current configuration.
 992:Generated_Source\PSoC4/engine_sensor_adc.c **** *
 993:Generated_Source\PSoC4/engine_sensor_adc.c **** *
 994:Generated_Source\PSoC4/engine_sensor_adc.c **** * \param enableMask
 995:Generated_Source\PSoC4/engine_sensor_adc.c **** *  Channel enable/disable mask.
 996:Generated_Source\PSoC4/engine_sensor_adc.c **** *
 997:Generated_Source\PSoC4/engine_sensor_adc.c **** * \sideeffect
 998:Generated_Source\PSoC4/engine_sensor_adc.c **** *  None.
 999:Generated_Source\PSoC4/engine_sensor_adc.c **** *
1000:Generated_Source\PSoC4/engine_sensor_adc.c **** * <b>Code Snippet</b>
1001:Generated_Source\PSoC4/engine_sensor_adc.c **** *  \snippet main.c snippet_engine_sensor_adc_SetChanMask
1002:Generated_Source\PSoC4/engine_sensor_adc.c **** *
1003:Generated_Source\PSoC4/engine_sensor_adc.c **** *******************************************************************************/
1004:Generated_Source\PSoC4/engine_sensor_adc.c **** void engine_sensor_adc_SetChanMask(uint32 enableMask)
1005:Generated_Source\PSoC4/engine_sensor_adc.c **** {
 858              		.loc 1 1005 0
 859              		.cfi_startproc
 860 0000 80B5     		push	{r7, lr}
 861              		.cfi_def_cfa_offset 8
 862              		.cfi_offset 7, -8
 863              		.cfi_offset 14, -4
 864 0002 84B0     		sub	sp, sp, #16
 865              		.cfi_def_cfa_offset 24
 866 0004 00AF     		add	r7, sp, #0
 867              		.cfi_def_cfa_register 7
 868 0006 7860     		str	r0, [r7, #4]
1006:Generated_Source\PSoC4/engine_sensor_adc.c ****     uint32 chanCount = engine_sensor_adc_allConfigs[engine_sensor_adc_currentConfig].numChannels;
ARM GAS  C:\Users\fneves\AppData\Local\Temp\ccV5UskS.s 			page 34


 869              		.loc 1 1006 0
 870 0008 0C4B     		ldr	r3, .L53
 871 000a 1A68     		ldr	r2, [r3]
 872 000c 0C49     		ldr	r1, .L53+4
 873 000e 131C     		mov	r3, r2
 874 0010 DB00     		lsl	r3, r3, #3
 875 0012 9B1A     		sub	r3, r3, r2
 876 0014 DB00     		lsl	r3, r3, #3
 877 0016 CB18     		add	r3, r1, r3
 878 0018 5B68     		ldr	r3, [r3, #4]
 879 001a FB60     		str	r3, [r7, #12]
1007:Generated_Source\PSoC4/engine_sensor_adc.c ****     enableMask &= (uint32)((uint32)(1ul << chanCount) - 1ul);
 880              		.loc 1 1007 0
 881 001c FB68     		ldr	r3, [r7, #12]
 882 001e 0122     		mov	r2, #1
 883 0020 9A40     		lsl	r2, r2, r3
 884 0022 131C     		mov	r3, r2
 885 0024 5A1E     		sub	r2, r3, #1
 886 0026 7B68     		ldr	r3, [r7, #4]
 887 0028 1340     		and	r3, r2
 888 002a 7B60     		str	r3, [r7, #4]
1008:Generated_Source\PSoC4/engine_sensor_adc.c ****     engine_sensor_adc_SAR_CHAN_EN_REG = enableMask;
 889              		.loc 1 1008 0
 890 002c 054B     		ldr	r3, .L53+8
 891 002e 7A68     		ldr	r2, [r7, #4]
 892 0030 1A60     		str	r2, [r3]
1009:Generated_Source\PSoC4/engine_sensor_adc.c ****     return;
 893              		.loc 1 1009 0
 894 0032 C046     		mov	r8, r8
1010:Generated_Source\PSoC4/engine_sensor_adc.c **** }
 895              		.loc 1 1010 0
 896 0034 BD46     		mov	sp, r7
 897 0036 04B0     		add	sp, sp, #16
 898              		@ sp needed
 899 0038 80BD     		pop	{r7, pc}
 900              	.L54:
 901 003a C046     		.align	2
 902              	.L53:
 903 003c 04000000 		.word	engine_sensor_adc_currentConfig
 904 0040 00000000 		.word	engine_sensor_adc_allConfigs
 905 0044 20003A40 		.word	1077542944
 906              		.cfi_endproc
 907              	.LFE10:
 908              		.size	engine_sensor_adc_SetChanMask, .-engine_sensor_adc_SetChanMask
 909              		.section	.text.engine_sensor_adc_IsEndConversion,"ax",%progbits
 910              		.align	2
 911              		.global	engine_sensor_adc_IsEndConversion
 912              		.code	16
 913              		.thumb_func
 914              		.type	engine_sensor_adc_IsEndConversion, %function
 915              	engine_sensor_adc_IsEndConversion:
 916              	.LFB11:
1011:Generated_Source\PSoC4/engine_sensor_adc.c **** 
1012:Generated_Source\PSoC4/engine_sensor_adc.c **** /*******************************************************************************
1013:Generated_Source\PSoC4/engine_sensor_adc.c **** * Function Name: engine_sensor_adc_IsEndConversion
1014:Generated_Source\PSoC4/engine_sensor_adc.c **** ****************************************************************************//**
1015:Generated_Source\PSoC4/engine_sensor_adc.c **** *
ARM GAS  C:\Users\fneves\AppData\Local\Temp\ccV5UskS.s 			page 35


1016:Generated_Source\PSoC4/engine_sensor_adc.c **** * \brief Immediately returns the status of the conversion or does not return 
1017:Generated_Source\PSoC4/engine_sensor_adc.c **** * (blocking) until the conversion completes, depending on the retMode parameter.
1018:Generated_Source\PSoC4/engine_sensor_adc.c **** *
1019:Generated_Source\PSoC4/engine_sensor_adc.c **** * \param retMode Check conversion return mode. See the following table for 
1020:Generated_Source\PSoC4/engine_sensor_adc.c **** * options.
1021:Generated_Source\PSoC4/engine_sensor_adc.c **** * | Options                              | Description                             |
1022:Generated_Source\PSoC4/engine_sensor_adc.c **** * | :-------------------------------     | :-------------------------------------- |
1023:Generated_Source\PSoC4/engine_sensor_adc.c **** * | engine_sensor_adc_RETURN_STATUS       | Immediately returns the conversion status for sequentia
1024:Generated_Source\PSoC4/engine_sensor_adc.c **** * | engine_sensor_adc_WAIT_FOR_RESULT     | Does not return a result until the engine_sensor_adc co
1025:Generated_Source\PSoC4/engine_sensor_adc.c **** * | engine_sensor_adc_RETURN_STATUS_INJ   | Immediately returns the conversion status for the injec
1026:Generated_Source\PSoC4/engine_sensor_adc.c **** * | engine_sensor_adc_WAIT_FOR_RESULT_INJ | Does not return a result until the engine_sensor_adc co
1027:Generated_Source\PSoC4/engine_sensor_adc.c **** * 
1028:Generated_Source\PSoC4/engine_sensor_adc.c **** * \return uint8: If a nonzero value is returned, the last conversion is complete. 
1029:Generated_Source\PSoC4/engine_sensor_adc.c **** * If the returned value is zero, the engine_sensor_adc is still calculating the last result.
1030:Generated_Source\PSoC4/engine_sensor_adc.c **** *
1031:Generated_Source\PSoC4/engine_sensor_adc.c **** * \sideeffect This function reads the end of conversion status, and clears it afterward.
1032:Generated_Source\PSoC4/engine_sensor_adc.c **** * 
1033:Generated_Source\PSoC4/engine_sensor_adc.c **** * <b>Code Snippet</b>
1034:Generated_Source\PSoC4/engine_sensor_adc.c **** *  \snippet main.c snippet_engine_sensor_adc_IsEndConversion
1035:Generated_Source\PSoC4/engine_sensor_adc.c **** *
1036:Generated_Source\PSoC4/engine_sensor_adc.c **** *******************************************************************************/
1037:Generated_Source\PSoC4/engine_sensor_adc.c **** uint32 engine_sensor_adc_IsEndConversion(uint32 retMode)
1038:Generated_Source\PSoC4/engine_sensor_adc.c **** {
 917              		.loc 1 1038 0
 918              		.cfi_startproc
 919 0000 80B5     		push	{r7, lr}
 920              		.cfi_def_cfa_offset 8
 921              		.cfi_offset 7, -8
 922              		.cfi_offset 14, -4
 923 0002 84B0     		sub	sp, sp, #16
 924              		.cfi_def_cfa_offset 24
 925 0004 00AF     		add	r7, sp, #0
 926              		.cfi_def_cfa_register 7
 927 0006 7860     		str	r0, [r7, #4]
1039:Generated_Source\PSoC4/engine_sensor_adc.c ****     uint32 endOfConversion = 0u;
 928              		.loc 1 1039 0
 929 0008 0023     		mov	r3, #0
 930 000a FB60     		str	r3, [r7, #12]
1040:Generated_Source\PSoC4/engine_sensor_adc.c ****     uint32 wdt = 0x3FFFFFFuL; /* Watchdog timer for blocking while loop */
 931              		.loc 1 1040 0
 932 000c 124B     		ldr	r3, .L60
 933 000e BB60     		str	r3, [r7, #8]
1041:Generated_Source\PSoC4/engine_sensor_adc.c ****     if((engine_sensor_adc_RETURN_STATUS == retMode) || (engine_sensor_adc_WAIT_FOR_RESULT == retMod
 934              		.loc 1 1041 0
 935 0010 7B68     		ldr	r3, [r7, #4]
 936 0012 012B     		cmp	r3, #1
 937 0014 02D0     		beq	.L56
 938              		.loc 1 1041 0 is_stmt 0 discriminator 1
 939 0016 7B68     		ldr	r3, [r7, #4]
 940 0018 022B     		cmp	r3, #2
 941 001a 17D1     		bne	.L57
 942              	.L56:
1042:Generated_Source\PSoC4/engine_sensor_adc.c ****     {
1043:Generated_Source\PSoC4/engine_sensor_adc.c ****         do
1044:Generated_Source\PSoC4/engine_sensor_adc.c ****         {
1045:Generated_Source\PSoC4/engine_sensor_adc.c ****             endOfConversion = engine_sensor_adc_SAR_INTR_REG & engine_sensor_adc_EOS_MASK;
 943              		.loc 1 1045 0 is_stmt 1 discriminator 1
ARM GAS  C:\Users\fneves\AppData\Local\Temp\ccV5UskS.s 			page 36


 944 001c 0F4B     		ldr	r3, .L60+4
 945 001e 1B68     		ldr	r3, [r3]
 946 0020 0122     		mov	r2, #1
 947 0022 1340     		and	r3, r2
 948 0024 FB60     		str	r3, [r7, #12]
1046:Generated_Source\PSoC4/engine_sensor_adc.c ****             wdt--;
 949              		.loc 1 1046 0 discriminator 1
 950 0026 BB68     		ldr	r3, [r7, #8]
 951 0028 013B     		sub	r3, r3, #1
 952 002a BB60     		str	r3, [r7, #8]
1047:Generated_Source\PSoC4/engine_sensor_adc.c ****         }while(((0u == endOfConversion) 
1048:Generated_Source\PSoC4/engine_sensor_adc.c ****             && (((uint32) retMode & engine_sensor_adc_WAIT_FOR_RESULT) != 0u))
1049:Generated_Source\PSoC4/engine_sensor_adc.c ****             && (0uL != wdt));
 953              		.loc 1 1049 0 discriminator 1
 954 002c FB68     		ldr	r3, [r7, #12]
 955 002e 002B     		cmp	r3, #0
 956 0030 06D1     		bne	.L58
1048:Generated_Source\PSoC4/engine_sensor_adc.c ****             && (0uL != wdt));
 957              		.loc 1 1048 0
 958 0032 7B68     		ldr	r3, [r7, #4]
 959 0034 0222     		mov	r2, #2
 960 0036 1340     		and	r3, r2
 961 0038 02D0     		beq	.L58
 962              		.loc 1 1049 0
 963 003a BB68     		ldr	r3, [r7, #8]
 964 003c 002B     		cmp	r3, #0
 965 003e EDD1     		bne	.L56
 966              	.L58:
1050:Generated_Source\PSoC4/engine_sensor_adc.c **** 
1051:Generated_Source\PSoC4/engine_sensor_adc.c ****         if(0u != endOfConversion)
 967              		.loc 1 1051 0
 968 0040 FB68     		ldr	r3, [r7, #12]
 969 0042 002B     		cmp	r3, #0
 970 0044 02D0     		beq	.L57
1052:Generated_Source\PSoC4/engine_sensor_adc.c ****         {
1053:Generated_Source\PSoC4/engine_sensor_adc.c ****             /* Clear EOS bit */
1054:Generated_Source\PSoC4/engine_sensor_adc.c ****             engine_sensor_adc_SAR_INTR_REG = engine_sensor_adc_EOS_MASK;
 971              		.loc 1 1054 0
 972 0046 054B     		ldr	r3, .L60+4
 973 0048 0122     		mov	r2, #1
 974 004a 1A60     		str	r2, [r3]
 975              	.L57:
1055:Generated_Source\PSoC4/engine_sensor_adc.c ****         }
1056:Generated_Source\PSoC4/engine_sensor_adc.c ****     }
1057:Generated_Source\PSoC4/engine_sensor_adc.c ****     
1058:Generated_Source\PSoC4/engine_sensor_adc.c ****     return endOfConversion;
 976              		.loc 1 1058 0
 977 004c FB68     		ldr	r3, [r7, #12]
1059:Generated_Source\PSoC4/engine_sensor_adc.c **** }
 978              		.loc 1 1059 0
 979 004e 181C     		mov	r0, r3
 980 0050 BD46     		mov	sp, r7
 981 0052 04B0     		add	sp, sp, #16
 982              		@ sp needed
 983 0054 80BD     		pop	{r7, pc}
 984              	.L61:
 985 0056 C046     		.align	2
ARM GAS  C:\Users\fneves\AppData\Local\Temp\ccV5UskS.s 			page 37


 986              	.L60:
 987 0058 FFFFFF03 		.word	67108863
 988 005c 10023A40 		.word	1077543440
 989              		.cfi_endproc
 990              	.LFE11:
 991              		.size	engine_sensor_adc_IsEndConversion, .-engine_sensor_adc_IsEndConversion
 992              		.section	.text.engine_sensor_adc_IsChannelSigned,"ax",%progbits
 993              		.align	2
 994              		.code	16
 995              		.thumb_func
 996              		.type	engine_sensor_adc_IsChannelSigned, %function
 997              	engine_sensor_adc_IsChannelSigned:
 998              	.LFB12:
1060:Generated_Source\PSoC4/engine_sensor_adc.c ****  
1061:Generated_Source\PSoC4/engine_sensor_adc.c **** /* ****************************************************************************
1062:Generated_Source\PSoC4/engine_sensor_adc.c **** * Function Name: engine_sensor_adc_IsChannelSigned(uint32 chan)
1063:Generated_Source\PSoC4/engine_sensor_adc.c **** ****************************************************************************//*
1064:Generated_Source\PSoC4/engine_sensor_adc.c **** *
1065:Generated_Source\PSoC4/engine_sensor_adc.c **** * Determines if the provided channel is in signed format. 
1066:Generated_Source\PSoC4/engine_sensor_adc.c **** *
1067:Generated_Source\PSoC4/engine_sensor_adc.c **** * \param chan The engine_sensor_adc channel to check. 
1068:Generated_Source\PSoC4/engine_sensor_adc.c **** *
1069:Generated_Source\PSoC4/engine_sensor_adc.c **** * \return None
1070:Generated_Source\PSoC4/engine_sensor_adc.c **** * 
1071:Generated_Source\PSoC4/engine_sensor_adc.c **** * \sideeffect None
1072:Generated_Source\PSoC4/engine_sensor_adc.c **** *
1073:Generated_Source\PSoC4/engine_sensor_adc.c **** *
1074:Generated_Source\PSoC4/engine_sensor_adc.c **** *******************************************************************************/
1075:Generated_Source\PSoC4/engine_sensor_adc.c **** static int32 engine_sensor_adc_IsChannelSigned(uint32 chan)
1076:Generated_Source\PSoC4/engine_sensor_adc.c **** {
 999              		.loc 1 1076 0
 1000              		.cfi_startproc
 1001 0000 80B5     		push	{r7, lr}
 1002              		.cfi_def_cfa_offset 8
 1003              		.cfi_offset 7, -8
 1004              		.cfi_offset 14, -4
 1005 0002 84B0     		sub	sp, sp, #16
 1006              		.cfi_def_cfa_offset 24
 1007 0004 00AF     		add	r7, sp, #0
 1008              		.cfi_def_cfa_register 7
 1009 0006 7860     		str	r0, [r7, #4]
1077:Generated_Source\PSoC4/engine_sensor_adc.c ****     int32 isSigned = 0;
 1010              		.loc 1 1077 0
 1011 0008 0023     		mov	r3, #0
 1012 000a FB60     		str	r3, [r7, #12]
1078:Generated_Source\PSoC4/engine_sensor_adc.c ****     uint32 chanConfig;
1079:Generated_Source\PSoC4/engine_sensor_adc.c ****     
1080:Generated_Source\PSoC4/engine_sensor_adc.c ****     chanConfig = CY_GET_REG32((reg32 *)(engine_sensor_adc_SAR_CHAN_CONFIG_IND + (uint32)(chan << 2u
 1013              		.loc 1 1080 0
 1014 000c 7B68     		ldr	r3, [r7, #4]
 1015 000e 9B00     		lsl	r3, r3, #2
 1016 0010 164A     		ldr	r2, .L67
 1017 0012 9446     		mov	ip, r2
 1018 0014 6344     		add	r3, r3, ip
 1019 0016 1B68     		ldr	r3, [r3]
 1020 0018 BB60     		str	r3, [r7, #8]
1081:Generated_Source\PSoC4/engine_sensor_adc.c ****     /* If differential mode */
ARM GAS  C:\Users\fneves\AppData\Local\Temp\ccV5UskS.s 			page 38


1082:Generated_Source\PSoC4/engine_sensor_adc.c ****     if(0u != (chanConfig & engine_sensor_adc_CHANNEL_CONFIG_DIFF_ALL_MSK))
 1021              		.loc 1 1082 0
 1022 001a BB68     		ldr	r3, [r7, #8]
 1023 001c 144A     		ldr	r2, .L67+4
 1024 001e 1340     		and	r3, r2
 1025 0020 0FD0     		beq	.L63
1083:Generated_Source\PSoC4/engine_sensor_adc.c ****     {
1084:Generated_Source\PSoC4/engine_sensor_adc.c ****         /*If signed differential */
1085:Generated_Source\PSoC4/engine_sensor_adc.c ****         if((engine_sensor_adc_allConfigs[engine_sensor_adc_currentConfig].sampleCtrl 
 1026              		.loc 1 1085 0
 1027 0022 144B     		ldr	r3, .L67+8
 1028 0024 1A68     		ldr	r2, [r3]
 1029 0026 1449     		ldr	r1, .L67+12
 1030 0028 131C     		mov	r3, r2
 1031 002a DB00     		lsl	r3, r3, #3
 1032 002c 9B1A     		sub	r3, r3, r2
 1033 002e DB00     		lsl	r3, r3, #3
 1034 0030 CB18     		add	r3, r1, r3
 1035 0032 0833     		add	r3, r3, #8
 1036 0034 5B68     		ldr	r3, [r3, #4]
1086:Generated_Source\PSoC4/engine_sensor_adc.c ****             & engine_sensor_adc_SAR_SAMPLE_CTRL_DIFFERENTIAL_SIGNED_MSK) != 0u)
 1037              		.loc 1 1086 0
 1038 0036 0822     		mov	r2, #8
 1039 0038 1340     		and	r3, r2
1085:Generated_Source\PSoC4/engine_sensor_adc.c ****             & engine_sensor_adc_SAR_SAMPLE_CTRL_DIFFERENTIAL_SIGNED_MSK) != 0u)
 1040              		.loc 1 1085 0
 1041 003a 11D0     		beq	.L65
1087:Generated_Source\PSoC4/engine_sensor_adc.c ****         {
1088:Generated_Source\PSoC4/engine_sensor_adc.c ****             isSigned = 1;
 1042              		.loc 1 1088 0
 1043 003c 0123     		mov	r3, #1
 1044 003e FB60     		str	r3, [r7, #12]
 1045 0040 0EE0     		b	.L65
 1046              	.L63:
1089:Generated_Source\PSoC4/engine_sensor_adc.c ****         }
1090:Generated_Source\PSoC4/engine_sensor_adc.c ****     }
1091:Generated_Source\PSoC4/engine_sensor_adc.c ****     else
1092:Generated_Source\PSoC4/engine_sensor_adc.c ****     {
1093:Generated_Source\PSoC4/engine_sensor_adc.c ****         if((engine_sensor_adc_allConfigs[engine_sensor_adc_currentConfig].sampleCtrl
 1047              		.loc 1 1093 0
 1048 0042 0C4B     		ldr	r3, .L67+8
 1049 0044 1A68     		ldr	r2, [r3]
 1050 0046 0C49     		ldr	r1, .L67+12
 1051 0048 131C     		mov	r3, r2
 1052 004a DB00     		lsl	r3, r3, #3
 1053 004c 9B1A     		sub	r3, r3, r2
 1054 004e DB00     		lsl	r3, r3, #3
 1055 0050 CB18     		add	r3, r1, r3
 1056 0052 0833     		add	r3, r3, #8
 1057 0054 5B68     		ldr	r3, [r3, #4]
1094:Generated_Source\PSoC4/engine_sensor_adc.c ****             & engine_sensor_adc_SAR_SAMPLE_CTRL_SINGLE_ENDED_SIGNED_MSK) != 0u)
 1058              		.loc 1 1094 0
 1059 0056 0422     		mov	r2, #4
 1060 0058 1340     		and	r3, r2
1093:Generated_Source\PSoC4/engine_sensor_adc.c ****             & engine_sensor_adc_SAR_SAMPLE_CTRL_SINGLE_ENDED_SIGNED_MSK) != 0u)
 1061              		.loc 1 1093 0
 1062 005a 01D0     		beq	.L65
ARM GAS  C:\Users\fneves\AppData\Local\Temp\ccV5UskS.s 			page 39


1095:Generated_Source\PSoC4/engine_sensor_adc.c ****         {
1096:Generated_Source\PSoC4/engine_sensor_adc.c ****             isSigned = 1;
 1063              		.loc 1 1096 0
 1064 005c 0123     		mov	r3, #1
 1065 005e FB60     		str	r3, [r7, #12]
 1066              	.L65:
1097:Generated_Source\PSoC4/engine_sensor_adc.c ****         }
1098:Generated_Source\PSoC4/engine_sensor_adc.c ****     }
1099:Generated_Source\PSoC4/engine_sensor_adc.c ****     return isSigned;
 1067              		.loc 1 1099 0
 1068 0060 FB68     		ldr	r3, [r7, #12]
1100:Generated_Source\PSoC4/engine_sensor_adc.c **** }
 1069              		.loc 1 1100 0
 1070 0062 181C     		mov	r0, r3
 1071 0064 BD46     		mov	sp, r7
 1072 0066 04B0     		add	sp, sp, #16
 1073              		@ sp needed
 1074 0068 80BD     		pop	{r7, pc}
 1075              	.L68:
 1076 006a C046     		.align	2
 1077              	.L67:
 1078 006c 80003A40 		.word	1077543040
 1079 0070 00010001 		.word	16777472
 1080 0074 04000000 		.word	engine_sensor_adc_currentConfig
 1081 0078 00000000 		.word	engine_sensor_adc_allConfigs
 1082              		.cfi_endproc
 1083              	.LFE12:
 1084              		.size	engine_sensor_adc_IsChannelSigned, .-engine_sensor_adc_IsChannelSigned
 1085              		.section	.text.engine_sensor_adc_GetResult16,"ax",%progbits
 1086              		.align	2
 1087              		.global	engine_sensor_adc_GetResult16
 1088              		.code	16
 1089              		.thumb_func
 1090              		.type	engine_sensor_adc_GetResult16, %function
 1091              	engine_sensor_adc_GetResult16:
 1092              	.LFB13:
1101:Generated_Source\PSoC4/engine_sensor_adc.c **** /*******************************************************************************
1102:Generated_Source\PSoC4/engine_sensor_adc.c **** * Function Name: engine_sensor_adc_GetResult16
1103:Generated_Source\PSoC4/engine_sensor_adc.c **** ****************************************************************************//**
1104:Generated_Source\PSoC4/engine_sensor_adc.c **** *
1105:Generated_Source\PSoC4/engine_sensor_adc.c **** * \brief Gets the data available in the channel result data register
1106:Generated_Source\PSoC4/engine_sensor_adc.c **** *
1107:Generated_Source\PSoC4/engine_sensor_adc.c **** * \param chan The engine_sensor_adc channel to read the result from. The first 
1108:Generated_Source\PSoC4/engine_sensor_adc.c **** * channel is 0 and the injection channel if enabled is the number of valid 
1109:Generated_Source\PSoC4/engine_sensor_adc.c **** * channels.
1110:Generated_Source\PSoC4/engine_sensor_adc.c **** *
1111:Generated_Source\PSoC4/engine_sensor_adc.c **** * \return Returns converted data as a signed 16-bit integer.
1112:Generated_Source\PSoC4/engine_sensor_adc.c **** * 
1113:Generated_Source\PSoC4/engine_sensor_adc.c **** * \sideeffect None
1114:Generated_Source\PSoC4/engine_sensor_adc.c **** * 
1115:Generated_Source\PSoC4/engine_sensor_adc.c **** * <b>Code Snippet</b>
1116:Generated_Source\PSoC4/engine_sensor_adc.c **** *  \snippet main.c snippet_engine_sensor_adc_GetResult16
1117:Generated_Source\PSoC4/engine_sensor_adc.c **** *
1118:Generated_Source\PSoC4/engine_sensor_adc.c **** *******************************************************************************/
1119:Generated_Source\PSoC4/engine_sensor_adc.c **** int16 engine_sensor_adc_GetResult16(uint32 chan)
1120:Generated_Source\PSoC4/engine_sensor_adc.c **** {
 1093              		.loc 1 1120 0
ARM GAS  C:\Users\fneves\AppData\Local\Temp\ccV5UskS.s 			page 40


 1094              		.cfi_startproc
 1095 0000 80B5     		push	{r7, lr}
 1096              		.cfi_def_cfa_offset 8
 1097              		.cfi_offset 7, -8
 1098              		.cfi_offset 14, -4
 1099 0002 84B0     		sub	sp, sp, #16
 1100              		.cfi_def_cfa_offset 24
 1101 0004 00AF     		add	r7, sp, #0
 1102              		.cfi_def_cfa_register 7
 1103 0006 7860     		str	r0, [r7, #4]
1121:Generated_Source\PSoC4/engine_sensor_adc.c ****     uint32 adcResult;
1122:Generated_Source\PSoC4/engine_sensor_adc.c ****     
1123:Generated_Source\PSoC4/engine_sensor_adc.c ****     /* Halt CPU in debug mode if channel is out of valid range */
1124:Generated_Source\PSoC4/engine_sensor_adc.c ****     CYASSERT(chan < engine_sensor_adc_allConfigs[engine_sensor_adc_currentConfig].numChannels);
 1104              		.loc 1 1124 0
 1105 0008 164B     		ldr	r3, .L74
 1106 000a 1A68     		ldr	r2, [r3]
 1107 000c 1649     		ldr	r1, .L74+4
 1108 000e 131C     		mov	r3, r2
 1109 0010 DB00     		lsl	r3, r3, #3
 1110 0012 9B1A     		sub	r3, r3, r2
 1111 0014 DB00     		lsl	r3, r3, #3
 1112 0016 CB18     		add	r3, r1, r3
 1113 0018 5A68     		ldr	r2, [r3, #4]
 1114 001a 7B68     		ldr	r3, [r7, #4]
 1115 001c 9A42     		cmp	r2, r3
 1116 001e 02D8     		bhi	.L70
 1117              		.loc 1 1124 0 is_stmt 0 discriminator 1
 1118 0020 0020     		mov	r0, #0
 1119 0022 FFF7FEFF 		bl	CyHalt
 1120              	.L70:
1125:Generated_Source\PSoC4/engine_sensor_adc.c **** 
1126:Generated_Source\PSoC4/engine_sensor_adc.c ****     if(engine_sensor_adc_allConfigs[engine_sensor_adc_currentConfig].numChannels > chan)
 1121              		.loc 1 1126 0 is_stmt 1
 1122 0026 0F4B     		ldr	r3, .L74
 1123 0028 1A68     		ldr	r2, [r3]
 1124 002a 0F49     		ldr	r1, .L74+4
 1125 002c 131C     		mov	r3, r2
 1126 002e DB00     		lsl	r3, r3, #3
 1127 0030 9B1A     		sub	r3, r3, r2
 1128 0032 DB00     		lsl	r3, r3, #3
 1129 0034 CB18     		add	r3, r1, r3
 1130 0036 5A68     		ldr	r2, [r3, #4]
 1131 0038 7B68     		ldr	r3, [r7, #4]
 1132 003a 9A42     		cmp	r2, r3
 1133 003c 09D9     		bls	.L71
1127:Generated_Source\PSoC4/engine_sensor_adc.c ****     {   
1128:Generated_Source\PSoC4/engine_sensor_adc.c ****         adcResult = CY_GET_REG32((reg32 *)(engine_sensor_adc_SAR_CHAN_RESULT_IND + (uint32)(chan <<
 1134              		.loc 1 1128 0
 1135 003e 7B68     		ldr	r3, [r7, #4]
 1136 0040 9B00     		lsl	r3, r3, #2
 1137 0042 0A4A     		ldr	r2, .L74+8
 1138 0044 9446     		mov	ip, r2
 1139 0046 6344     		add	r3, r3, ip
 1140 0048 1B68     		ldr	r3, [r3]
 1141 004a 1B04     		lsl	r3, r3, #16
 1142 004c 1B0C     		lsr	r3, r3, #16
ARM GAS  C:\Users\fneves\AppData\Local\Temp\ccV5UskS.s 			page 41


 1143 004e FB60     		str	r3, [r7, #12]
 1144 0050 01E0     		b	.L72
 1145              	.L71:
1129:Generated_Source\PSoC4/engine_sensor_adc.c ****             engine_sensor_adc_RESULT_MASK; 
1130:Generated_Source\PSoC4/engine_sensor_adc.c ****     }
1131:Generated_Source\PSoC4/engine_sensor_adc.c ****     else
1132:Generated_Source\PSoC4/engine_sensor_adc.c ****     {
1133:Generated_Source\PSoC4/engine_sensor_adc.c **** 		adcResult = 0u;
 1146              		.loc 1 1133 0
 1147 0052 0023     		mov	r3, #0
 1148 0054 FB60     		str	r3, [r7, #12]
 1149              	.L72:
1134:Generated_Source\PSoC4/engine_sensor_adc.c ****     }
1135:Generated_Source\PSoC4/engine_sensor_adc.c ****     
1136:Generated_Source\PSoC4/engine_sensor_adc.c ****     return (int16) adcResult;
 1150              		.loc 1 1136 0
 1151 0056 FB68     		ldr	r3, [r7, #12]
 1152 0058 9BB2     		uxth	r3, r3
 1153 005a 1BB2     		sxth	r3, r3
1137:Generated_Source\PSoC4/engine_sensor_adc.c **** }
 1154              		.loc 1 1137 0
 1155 005c 181C     		mov	r0, r3
 1156 005e BD46     		mov	sp, r7
 1157 0060 04B0     		add	sp, sp, #16
 1158              		@ sp needed
 1159 0062 80BD     		pop	{r7, pc}
 1160              	.L75:
 1161              		.align	2
 1162              	.L74:
 1163 0064 04000000 		.word	engine_sensor_adc_currentConfig
 1164 0068 00000000 		.word	engine_sensor_adc_allConfigs
 1165 006c 80013A40 		.word	1077543296
 1166              		.cfi_endproc
 1167              	.LFE13:
 1168              		.size	engine_sensor_adc_GetResult16, .-engine_sensor_adc_GetResult16
 1169              		.section	.text.engine_sensor_adc_GetResult32,"ax",%progbits
 1170              		.align	2
 1171              		.global	engine_sensor_adc_GetResult32
 1172              		.code	16
 1173              		.thumb_func
 1174              		.type	engine_sensor_adc_GetResult32, %function
 1175              	engine_sensor_adc_GetResult32:
 1176              	.LFB14:
1138:Generated_Source\PSoC4/engine_sensor_adc.c **** 
1139:Generated_Source\PSoC4/engine_sensor_adc.c **** /*******************************************************************************
1140:Generated_Source\PSoC4/engine_sensor_adc.c **** * Function Name: engine_sensor_adc_GetResult32
1141:Generated_Source\PSoC4/engine_sensor_adc.c **** ****************************************************************************//**
1142:Generated_Source\PSoC4/engine_sensor_adc.c **** *
1143:Generated_Source\PSoC4/engine_sensor_adc.c **** * \brief Gets the data available in the channel result data register. 
1144:Generated_Source\PSoC4/engine_sensor_adc.c **** *
1145:Generated_Source\PSoC4/engine_sensor_adc.c **** * \param chan The engine_sensor_adc channel to read the result from. The first 
1146:Generated_Source\PSoC4/engine_sensor_adc.c **** * channel is 0 and the injection channel if enabled is the number of valid 
1147:Generated_Source\PSoC4/engine_sensor_adc.c **** * channels.
1148:Generated_Source\PSoC4/engine_sensor_adc.c **** *
1149:Generated_Source\PSoC4/engine_sensor_adc.c **** * \return Returns converted data as a signed 32-bit integer.
1150:Generated_Source\PSoC4/engine_sensor_adc.c **** * 
1151:Generated_Source\PSoC4/engine_sensor_adc.c **** * \sideeffect None
ARM GAS  C:\Users\fneves\AppData\Local\Temp\ccV5UskS.s 			page 42


1152:Generated_Source\PSoC4/engine_sensor_adc.c **** *
1153:Generated_Source\PSoC4/engine_sensor_adc.c **** * <b>Code Snippet</b>
1154:Generated_Source\PSoC4/engine_sensor_adc.c **** *  \snippet main.c snippet_engine_sensor_adc_GetResult32
1155:Generated_Source\PSoC4/engine_sensor_adc.c **** *
1156:Generated_Source\PSoC4/engine_sensor_adc.c **** *******************************************************************************/
1157:Generated_Source\PSoC4/engine_sensor_adc.c **** int32 engine_sensor_adc_GetResult32(uint32 chan)
1158:Generated_Source\PSoC4/engine_sensor_adc.c **** {
 1177              		.loc 1 1158 0
 1178              		.cfi_startproc
 1179 0000 80B5     		push	{r7, lr}
 1180              		.cfi_def_cfa_offset 8
 1181              		.cfi_offset 7, -8
 1182              		.cfi_offset 14, -4
 1183 0002 86B0     		sub	sp, sp, #24
 1184              		.cfi_def_cfa_offset 32
 1185 0004 00AF     		add	r7, sp, #0
 1186              		.cfi_def_cfa_register 7
 1187 0006 7860     		str	r0, [r7, #4]
1159:Generated_Source\PSoC4/engine_sensor_adc.c ****     uint32 adcResult;
1160:Generated_Source\PSoC4/engine_sensor_adc.c ****     int16 adcResult16;
1161:Generated_Source\PSoC4/engine_sensor_adc.c ****     int32 finalResult;
1162:Generated_Source\PSoC4/engine_sensor_adc.c ****     
1163:Generated_Source\PSoC4/engine_sensor_adc.c ****     /* Halt CPU in debug mode if channel is out of valid range */
1164:Generated_Source\PSoC4/engine_sensor_adc.c ****     CYASSERT(chan < engine_sensor_adc_allConfigs[engine_sensor_adc_currentConfig].numChannels);
 1188              		.loc 1 1164 0
 1189 0008 1F4B     		ldr	r3, .L83
 1190 000a 1A68     		ldr	r2, [r3]
 1191 000c 1F49     		ldr	r1, .L83+4
 1192 000e 131C     		mov	r3, r2
 1193 0010 DB00     		lsl	r3, r3, #3
 1194 0012 9B1A     		sub	r3, r3, r2
 1195 0014 DB00     		lsl	r3, r3, #3
 1196 0016 CB18     		add	r3, r1, r3
 1197 0018 5A68     		ldr	r2, [r3, #4]
 1198 001a 7B68     		ldr	r3, [r7, #4]
 1199 001c 9A42     		cmp	r2, r3
 1200 001e 02D8     		bhi	.L77
 1201              		.loc 1 1164 0 is_stmt 0 discriminator 1
 1202 0020 0020     		mov	r0, #0
 1203 0022 FFF7FEFF 		bl	CyHalt
 1204              	.L77:
1165:Generated_Source\PSoC4/engine_sensor_adc.c **** 
1166:Generated_Source\PSoC4/engine_sensor_adc.c ****     if(engine_sensor_adc_allConfigs[engine_sensor_adc_currentConfig].numChannels > chan)
 1205              		.loc 1 1166 0 is_stmt 1
 1206 0026 184B     		ldr	r3, .L83
 1207 0028 1A68     		ldr	r2, [r3]
 1208 002a 1849     		ldr	r1, .L83+4
 1209 002c 131C     		mov	r3, r2
 1210 002e DB00     		lsl	r3, r3, #3
 1211 0030 9B1A     		sub	r3, r3, r2
 1212 0032 DB00     		lsl	r3, r3, #3
 1213 0034 CB18     		add	r3, r1, r3
 1214 0036 5A68     		ldr	r2, [r3, #4]
 1215 0038 7B68     		ldr	r3, [r7, #4]
 1216 003a 9A42     		cmp	r2, r3
 1217 003c 09D9     		bls	.L78
1167:Generated_Source\PSoC4/engine_sensor_adc.c ****     {
ARM GAS  C:\Users\fneves\AppData\Local\Temp\ccV5UskS.s 			page 43


1168:Generated_Source\PSoC4/engine_sensor_adc.c ****         adcResult = CY_GET_REG32((reg32 *)(engine_sensor_adc_SAR_CHAN_RESULT_IND + (uint32)(chan <<
 1218              		.loc 1 1168 0
 1219 003e 7B68     		ldr	r3, [r7, #4]
 1220 0040 9B00     		lsl	r3, r3, #2
 1221 0042 134A     		ldr	r2, .L83+8
 1222 0044 9446     		mov	ip, r2
 1223 0046 6344     		add	r3, r3, ip
 1224 0048 1B68     		ldr	r3, [r3]
 1225 004a 1B04     		lsl	r3, r3, #16
 1226 004c 1B0C     		lsr	r3, r3, #16
 1227 004e 7B61     		str	r3, [r7, #20]
 1228 0050 01E0     		b	.L79
 1229              	.L78:
1169:Generated_Source\PSoC4/engine_sensor_adc.c ****             engine_sensor_adc_RESULT_MASK;
1170:Generated_Source\PSoC4/engine_sensor_adc.c ****     }
1171:Generated_Source\PSoC4/engine_sensor_adc.c ****     else
1172:Generated_Source\PSoC4/engine_sensor_adc.c ****     {
1173:Generated_Source\PSoC4/engine_sensor_adc.c ****         adcResult = 0u;
 1230              		.loc 1 1173 0
 1231 0052 0023     		mov	r3, #0
 1232 0054 7B61     		str	r3, [r7, #20]
 1233              	.L79:
1174:Generated_Source\PSoC4/engine_sensor_adc.c ****     }
1175:Generated_Source\PSoC4/engine_sensor_adc.c ****     /* Sign extend if channel is signed format */
1176:Generated_Source\PSoC4/engine_sensor_adc.c ****     if(engine_sensor_adc_IsChannelSigned(chan) == 1)
 1234              		.loc 1 1176 0
 1235 0056 7B68     		ldr	r3, [r7, #4]
 1236 0058 181C     		mov	r0, r3
 1237 005a FFF7FEFF 		bl	engine_sensor_adc_IsChannelSigned
 1238 005e 031E     		sub	r3, r0, #0
 1239 0060 012B     		cmp	r3, #1
 1240 0062 09D1     		bne	.L80
1177:Generated_Source\PSoC4/engine_sensor_adc.c ****     {
1178:Generated_Source\PSoC4/engine_sensor_adc.c ****         adcResult16 = (int16) adcResult;
 1241              		.loc 1 1178 0
 1242 0064 0E23     		mov	r3, #14
 1243 0066 FB18     		add	r3, r7, r3
 1244 0068 7A69     		ldr	r2, [r7, #20]
 1245 006a 1A80     		strh	r2, [r3]
1179:Generated_Source\PSoC4/engine_sensor_adc.c ****         finalResult = (int32) adcResult16;
 1246              		.loc 1 1179 0
 1247 006c 0E23     		mov	r3, #14
 1248 006e FB18     		add	r3, r7, r3
 1249 0070 0022     		mov	r2, #0
 1250 0072 9B5E     		ldrsh	r3, [r3, r2]
 1251 0074 3B61     		str	r3, [r7, #16]
 1252 0076 01E0     		b	.L81
 1253              	.L80:
1180:Generated_Source\PSoC4/engine_sensor_adc.c ****     }
1181:Generated_Source\PSoC4/engine_sensor_adc.c ****     else
1182:Generated_Source\PSoC4/engine_sensor_adc.c ****     {
1183:Generated_Source\PSoC4/engine_sensor_adc.c ****         finalResult = (int32) adcResult;
 1254              		.loc 1 1183 0
 1255 0078 7B69     		ldr	r3, [r7, #20]
 1256 007a 3B61     		str	r3, [r7, #16]
 1257              	.L81:
1184:Generated_Source\PSoC4/engine_sensor_adc.c ****     }
ARM GAS  C:\Users\fneves\AppData\Local\Temp\ccV5UskS.s 			page 44


1185:Generated_Source\PSoC4/engine_sensor_adc.c ****     return finalResult;
 1258              		.loc 1 1185 0
 1259 007c 3B69     		ldr	r3, [r7, #16]
1186:Generated_Source\PSoC4/engine_sensor_adc.c **** }
 1260              		.loc 1 1186 0
 1261 007e 181C     		mov	r0, r3
 1262 0080 BD46     		mov	sp, r7
 1263 0082 06B0     		add	sp, sp, #24
 1264              		@ sp needed
 1265 0084 80BD     		pop	{r7, pc}
 1266              	.L84:
 1267 0086 C046     		.align	2
 1268              	.L83:
 1269 0088 04000000 		.word	engine_sensor_adc_currentConfig
 1270 008c 00000000 		.word	engine_sensor_adc_allConfigs
 1271 0090 80013A40 		.word	1077543296
 1272              		.cfi_endproc
 1273              	.LFE14:
 1274              		.size	engine_sensor_adc_GetResult32, .-engine_sensor_adc_GetResult32
 1275              		.section	.text.engine_sensor_adc_SetLowLimit,"ax",%progbits
 1276              		.align	2
 1277              		.global	engine_sensor_adc_SetLowLimit
 1278              		.code	16
 1279              		.thumb_func
 1280              		.type	engine_sensor_adc_SetLowLimit, %function
 1281              	engine_sensor_adc_SetLowLimit:
 1282              	.LFB15:
1187:Generated_Source\PSoC4/engine_sensor_adc.c **** 
1188:Generated_Source\PSoC4/engine_sensor_adc.c **** /*******************************************************************************
1189:Generated_Source\PSoC4/engine_sensor_adc.c **** * Function Name: engine_sensor_adc_SetLowLimit
1190:Generated_Source\PSoC4/engine_sensor_adc.c **** ****************************************************************************//**
1191:Generated_Source\PSoC4/engine_sensor_adc.c **** *
1192:Generated_Source\PSoC4/engine_sensor_adc.c **** * \brief Sets the low limit parameter for a limit condition.
1193:Generated_Source\PSoC4/engine_sensor_adc.c **** *
1194:Generated_Source\PSoC4/engine_sensor_adc.c **** * \param lowLimit The low limit for a limit condition.
1195:Generated_Source\PSoC4/engine_sensor_adc.c **** *
1196:Generated_Source\PSoC4/engine_sensor_adc.c **** * \return None
1197:Generated_Source\PSoC4/engine_sensor_adc.c **** * 
1198:Generated_Source\PSoC4/engine_sensor_adc.c **** * \sideeffect None
1199:Generated_Source\PSoC4/engine_sensor_adc.c **** *
1200:Generated_Source\PSoC4/engine_sensor_adc.c **** * <b>Code Snippet</b>
1201:Generated_Source\PSoC4/engine_sensor_adc.c **** *  \snippet main.c snippet_engine_sensor_adc_SetLowLimit
1202:Generated_Source\PSoC4/engine_sensor_adc.c **** *
1203:Generated_Source\PSoC4/engine_sensor_adc.c **** *******************************************************************************/
1204:Generated_Source\PSoC4/engine_sensor_adc.c **** void engine_sensor_adc_SetLowLimit(uint32 lowLimit)
1205:Generated_Source\PSoC4/engine_sensor_adc.c **** {   
 1283              		.loc 1 1205 0
 1284              		.cfi_startproc
 1285 0000 80B5     		push	{r7, lr}
 1286              		.cfi_def_cfa_offset 8
 1287              		.cfi_offset 7, -8
 1288              		.cfi_offset 14, -4
 1289 0002 82B0     		sub	sp, sp, #8
 1290              		.cfi_def_cfa_offset 16
 1291 0004 00AF     		add	r7, sp, #0
 1292              		.cfi_def_cfa_register 7
 1293 0006 7860     		str	r0, [r7, #4]
ARM GAS  C:\Users\fneves\AppData\Local\Temp\ccV5UskS.s 			page 45


1206:Generated_Source\PSoC4/engine_sensor_adc.c ****     engine_sensor_adc_SAR_RANGE_THRES_REG &= ~(uint32)(engine_sensor_adc_SAR_RANGE_THRES_RANGE_LOW_
 1294              		.loc 1 1206 0
 1295 0008 084B     		ldr	r3, .L87
 1296 000a 084A     		ldr	r2, .L87
 1297 000c 1268     		ldr	r2, [r2]
 1298 000e 120C     		lsr	r2, r2, #16
 1299 0010 1204     		lsl	r2, r2, #16
 1300 0012 1A60     		str	r2, [r3]
1207:Generated_Source\PSoC4/engine_sensor_adc.c ****     engine_sensor_adc_SAR_RANGE_THRES_REG |= lowLimit & engine_sensor_adc_SAR_RANGE_THRES_RANGE_LOW
 1301              		.loc 1 1207 0
 1302 0014 054B     		ldr	r3, .L87
 1303 0016 054A     		ldr	r2, .L87
 1304 0018 1168     		ldr	r1, [r2]
 1305 001a 7A68     		ldr	r2, [r7, #4]
 1306 001c 1204     		lsl	r2, r2, #16
 1307 001e 120C     		lsr	r2, r2, #16
 1308 0020 0A43     		orr	r2, r1
 1309 0022 1A60     		str	r2, [r3]
1208:Generated_Source\PSoC4/engine_sensor_adc.c ****     return;
 1310              		.loc 1 1208 0
 1311 0024 C046     		mov	r8, r8
1209:Generated_Source\PSoC4/engine_sensor_adc.c **** }
 1312              		.loc 1 1209 0
 1313 0026 BD46     		mov	sp, r7
 1314 0028 02B0     		add	sp, sp, #8
 1315              		@ sp needed
 1316 002a 80BD     		pop	{r7, pc}
 1317              	.L88:
 1318              		.align	2
 1319              	.L87:
 1320 002c 18003A40 		.word	1077542936
 1321              		.cfi_endproc
 1322              	.LFE15:
 1323              		.size	engine_sensor_adc_SetLowLimit, .-engine_sensor_adc_SetLowLimit
 1324              		.section	.text.engine_sensor_adc_SetHighLimit,"ax",%progbits
 1325              		.align	2
 1326              		.global	engine_sensor_adc_SetHighLimit
 1327              		.code	16
 1328              		.thumb_func
 1329              		.type	engine_sensor_adc_SetHighLimit, %function
 1330              	engine_sensor_adc_SetHighLimit:
 1331              	.LFB16:
1210:Generated_Source\PSoC4/engine_sensor_adc.c **** 
1211:Generated_Source\PSoC4/engine_sensor_adc.c **** /*******************************************************************************
1212:Generated_Source\PSoC4/engine_sensor_adc.c **** * Function Name: engine_sensor_adc_SetHighLimit
1213:Generated_Source\PSoC4/engine_sensor_adc.c **** ****************************************************************************//**
1214:Generated_Source\PSoC4/engine_sensor_adc.c **** *
1215:Generated_Source\PSoC4/engine_sensor_adc.c **** * \brief Sets the high limit parameter for a limit condition.
1216:Generated_Source\PSoC4/engine_sensor_adc.c **** *
1217:Generated_Source\PSoC4/engine_sensor_adc.c **** * \param highLimit The high limit for a limit condition.
1218:Generated_Source\PSoC4/engine_sensor_adc.c **** *
1219:Generated_Source\PSoC4/engine_sensor_adc.c **** * \return None
1220:Generated_Source\PSoC4/engine_sensor_adc.c **** * 
1221:Generated_Source\PSoC4/engine_sensor_adc.c **** * \sideeffect None
1222:Generated_Source\PSoC4/engine_sensor_adc.c **** * 
1223:Generated_Source\PSoC4/engine_sensor_adc.c **** * <b>Code Snippet</b>
1224:Generated_Source\PSoC4/engine_sensor_adc.c **** *  \snippet main.c snippet_engine_sensor_adc_SetHighLimit
ARM GAS  C:\Users\fneves\AppData\Local\Temp\ccV5UskS.s 			page 46


1225:Generated_Source\PSoC4/engine_sensor_adc.c **** *
1226:Generated_Source\PSoC4/engine_sensor_adc.c **** *******************************************************************************/
1227:Generated_Source\PSoC4/engine_sensor_adc.c **** void engine_sensor_adc_SetHighLimit(uint32 highLimit)
1228:Generated_Source\PSoC4/engine_sensor_adc.c **** {   
 1332              		.loc 1 1228 0
 1333              		.cfi_startproc
 1334 0000 80B5     		push	{r7, lr}
 1335              		.cfi_def_cfa_offset 8
 1336              		.cfi_offset 7, -8
 1337              		.cfi_offset 14, -4
 1338 0002 82B0     		sub	sp, sp, #8
 1339              		.cfi_def_cfa_offset 16
 1340 0004 00AF     		add	r7, sp, #0
 1341              		.cfi_def_cfa_register 7
 1342 0006 7860     		str	r0, [r7, #4]
1229:Generated_Source\PSoC4/engine_sensor_adc.c ****     engine_sensor_adc_SAR_RANGE_THRES_REG &= ~(uint32)(engine_sensor_adc_SAR_RANGE_THRES_RANGE_HIGH
 1343              		.loc 1 1229 0
 1344 0008 084B     		ldr	r3, .L91
 1345 000a 084A     		ldr	r2, .L91
 1346 000c 1268     		ldr	r2, [r2]
 1347 000e 1204     		lsl	r2, r2, #16
 1348 0010 120C     		lsr	r2, r2, #16
 1349 0012 1A60     		str	r2, [r3]
1230:Generated_Source\PSoC4/engine_sensor_adc.c ****     engine_sensor_adc_SAR_RANGE_THRES_REG |= (uint32)(highLimit << engine_sensor_adc_SAR_RANGE_THRE
 1350              		.loc 1 1230 0
 1351 0014 054B     		ldr	r3, .L91
 1352 0016 054A     		ldr	r2, .L91
 1353 0018 1168     		ldr	r1, [r2]
 1354 001a 7A68     		ldr	r2, [r7, #4]
 1355 001c 1204     		lsl	r2, r2, #16
 1356 001e 0A43     		orr	r2, r1
 1357 0020 1A60     		str	r2, [r3]
1231:Generated_Source\PSoC4/engine_sensor_adc.c ****     return;
 1358              		.loc 1 1231 0
 1359 0022 C046     		mov	r8, r8
1232:Generated_Source\PSoC4/engine_sensor_adc.c **** }
 1360              		.loc 1 1232 0
 1361 0024 BD46     		mov	sp, r7
 1362 0026 02B0     		add	sp, sp, #8
 1363              		@ sp needed
 1364 0028 80BD     		pop	{r7, pc}
 1365              	.L92:
 1366 002a C046     		.align	2
 1367              	.L91:
 1368 002c 18003A40 		.word	1077542936
 1369              		.cfi_endproc
 1370              	.LFE16:
 1371              		.size	engine_sensor_adc_SetHighLimit, .-engine_sensor_adc_SetHighLimit
 1372              		.section	.text.engine_sensor_adc_SetLimitMask,"ax",%progbits
 1373              		.align	2
 1374              		.global	engine_sensor_adc_SetLimitMask
 1375              		.code	16
 1376              		.thumb_func
 1377              		.type	engine_sensor_adc_SetLimitMask, %function
 1378              	engine_sensor_adc_SetLimitMask:
 1379              	.LFB17:
1233:Generated_Source\PSoC4/engine_sensor_adc.c **** 
ARM GAS  C:\Users\fneves\AppData\Local\Temp\ccV5UskS.s 			page 47


1234:Generated_Source\PSoC4/engine_sensor_adc.c **** /*******************************************************************************
1235:Generated_Source\PSoC4/engine_sensor_adc.c **** * Function Name: engine_sensor_adc_SetLimitMask
1236:Generated_Source\PSoC4/engine_sensor_adc.c **** ****************************************************************************//**
1237:Generated_Source\PSoC4/engine_sensor_adc.c **** *
1238:Generated_Source\PSoC4/engine_sensor_adc.c **** * \brief Sets the channel limit condition mask.
1239:Generated_Source\PSoC4/engine_sensor_adc.c **** *
1240:Generated_Source\PSoC4/engine_sensor_adc.c **** *
1241:Generated_Source\PSoC4/engine_sensor_adc.c **** * \param limitMask Sets which channels that may cause a limit condition interrupt. 
1242:Generated_Source\PSoC4/engine_sensor_adc.c **** * Setting bits for channels that do not exist will have no effect. For example, 
1243:Generated_Source\PSoC4/engine_sensor_adc.c **** * if only 6  channels were enabled, setting a mask of 0x0103 would only enable 
1244:Generated_Source\PSoC4/engine_sensor_adc.c **** * the last two channels (0 and 1).
1245:Generated_Source\PSoC4/engine_sensor_adc.c **** *
1246:Generated_Source\PSoC4/engine_sensor_adc.c **** * \return None
1247:Generated_Source\PSoC4/engine_sensor_adc.c **** * 
1248:Generated_Source\PSoC4/engine_sensor_adc.c **** * \sideeffect None
1249:Generated_Source\PSoC4/engine_sensor_adc.c **** *
1250:Generated_Source\PSoC4/engine_sensor_adc.c **** * <b>Code Snippet</b>
1251:Generated_Source\PSoC4/engine_sensor_adc.c **** *  \snippet main.c snippet_engine_sensor_adc_SetLimitMask
1252:Generated_Source\PSoC4/engine_sensor_adc.c **** *
1253:Generated_Source\PSoC4/engine_sensor_adc.c **** *******************************************************************************/
1254:Generated_Source\PSoC4/engine_sensor_adc.c **** void engine_sensor_adc_SetLimitMask(uint32 limitMask)
1255:Generated_Source\PSoC4/engine_sensor_adc.c **** {   
 1380              		.loc 1 1255 0
 1381              		.cfi_startproc
 1382 0000 80B5     		push	{r7, lr}
 1383              		.cfi_def_cfa_offset 8
 1384              		.cfi_offset 7, -8
 1385              		.cfi_offset 14, -4
 1386 0002 84B0     		sub	sp, sp, #16
 1387              		.cfi_def_cfa_offset 24
 1388 0004 00AF     		add	r7, sp, #0
 1389              		.cfi_def_cfa_register 7
 1390 0006 7860     		str	r0, [r7, #4]
1256:Generated_Source\PSoC4/engine_sensor_adc.c ****     uint32 chanCount = engine_sensor_adc_allConfigs[engine_sensor_adc_currentConfig].numChannels;
 1391              		.loc 1 1256 0
 1392 0008 0C4B     		ldr	r3, .L95
 1393 000a 1A68     		ldr	r2, [r3]
 1394 000c 0C49     		ldr	r1, .L95+4
 1395 000e 131C     		mov	r3, r2
 1396 0010 DB00     		lsl	r3, r3, #3
 1397 0012 9B1A     		sub	r3, r3, r2
 1398 0014 DB00     		lsl	r3, r3, #3
 1399 0016 CB18     		add	r3, r1, r3
 1400 0018 5B68     		ldr	r3, [r3, #4]
 1401 001a FB60     		str	r3, [r7, #12]
1257:Generated_Source\PSoC4/engine_sensor_adc.c ****     limitMask &= (uint32)((uint32)(1ul << chanCount) - 1ul);
 1402              		.loc 1 1257 0
 1403 001c FB68     		ldr	r3, [r7, #12]
 1404 001e 0122     		mov	r2, #1
 1405 0020 9A40     		lsl	r2, r2, r3
 1406 0022 131C     		mov	r3, r2
 1407 0024 5A1E     		sub	r2, r3, #1
 1408 0026 7B68     		ldr	r3, [r7, #4]
 1409 0028 1340     		and	r3, r2
 1410 002a 7B60     		str	r3, [r7, #4]
1258:Generated_Source\PSoC4/engine_sensor_adc.c ****     engine_sensor_adc_SAR_RANGE_INTR_MASK_REG = limitMask;
 1411              		.loc 1 1258 0
ARM GAS  C:\Users\fneves\AppData\Local\Temp\ccV5UskS.s 			page 48


 1412 002c 054B     		ldr	r3, .L95+8
 1413 002e 7A68     		ldr	r2, [r7, #4]
 1414 0030 1A60     		str	r2, [r3]
1259:Generated_Source\PSoC4/engine_sensor_adc.c ****     return;
 1415              		.loc 1 1259 0
 1416 0032 C046     		mov	r8, r8
1260:Generated_Source\PSoC4/engine_sensor_adc.c **** }
 1417              		.loc 1 1260 0
 1418 0034 BD46     		mov	sp, r7
 1419 0036 04B0     		add	sp, sp, #16
 1420              		@ sp needed
 1421 0038 80BD     		pop	{r7, pc}
 1422              	.L96:
 1423 003a C046     		.align	2
 1424              	.L95:
 1425 003c 04000000 		.word	engine_sensor_adc_currentConfig
 1426 0040 00000000 		.word	engine_sensor_adc_allConfigs
 1427 0044 38023A40 		.word	1077543480
 1428              		.cfi_endproc
 1429              	.LFE17:
 1430              		.size	engine_sensor_adc_SetLimitMask, .-engine_sensor_adc_SetLimitMask
 1431              		.section	.text.engine_sensor_adc_SetSatMask,"ax",%progbits
 1432              		.align	2
 1433              		.global	engine_sensor_adc_SetSatMask
 1434              		.code	16
 1435              		.thumb_func
 1436              		.type	engine_sensor_adc_SetSatMask, %function
 1437              	engine_sensor_adc_SetSatMask:
 1438              	.LFB18:
1261:Generated_Source\PSoC4/engine_sensor_adc.c **** 
1262:Generated_Source\PSoC4/engine_sensor_adc.c **** /*******************************************************************************
1263:Generated_Source\PSoC4/engine_sensor_adc.c **** * Function Name: engine_sensor_adc_SetSatMask
1264:Generated_Source\PSoC4/engine_sensor_adc.c **** ****************************************************************************//**
1265:Generated_Source\PSoC4/engine_sensor_adc.c **** *
1266:Generated_Source\PSoC4/engine_sensor_adc.c **** * \brief Sets the channel saturation event mask.
1267:Generated_Source\PSoC4/engine_sensor_adc.c **** *
1268:Generated_Source\PSoC4/engine_sensor_adc.c **** * \param satMask Sets which channels that may cause a saturation event interrupt. 
1269:Generated_Source\PSoC4/engine_sensor_adc.c **** * Setting bits for channels that do not exist will have no effect. For example, 
1270:Generated_Source\PSoC4/engine_sensor_adc.c **** * if only 8 channels were enabled, setting a mask of 0x01C0 would only enable two 
1271:Generated_Source\PSoC4/engine_sensor_adc.c **** * channels (6 and 7).
1272:Generated_Source\PSoC4/engine_sensor_adc.c **** *
1273:Generated_Source\PSoC4/engine_sensor_adc.c **** * \return None
1274:Generated_Source\PSoC4/engine_sensor_adc.c **** * 
1275:Generated_Source\PSoC4/engine_sensor_adc.c **** * \sideeffect None
1276:Generated_Source\PSoC4/engine_sensor_adc.c **** *
1277:Generated_Source\PSoC4/engine_sensor_adc.c **** * <b>Code Snippet</b>
1278:Generated_Source\PSoC4/engine_sensor_adc.c **** *  \snippet main.c snippet_engine_sensor_adc_SetSatMask
1279:Generated_Source\PSoC4/engine_sensor_adc.c **** *
1280:Generated_Source\PSoC4/engine_sensor_adc.c **** *******************************************************************************/
1281:Generated_Source\PSoC4/engine_sensor_adc.c **** void engine_sensor_adc_SetSatMask(uint32 satMask)
1282:Generated_Source\PSoC4/engine_sensor_adc.c **** {   
 1439              		.loc 1 1282 0
 1440              		.cfi_startproc
 1441 0000 80B5     		push	{r7, lr}
 1442              		.cfi_def_cfa_offset 8
 1443              		.cfi_offset 7, -8
 1444              		.cfi_offset 14, -4
ARM GAS  C:\Users\fneves\AppData\Local\Temp\ccV5UskS.s 			page 49


 1445 0002 84B0     		sub	sp, sp, #16
 1446              		.cfi_def_cfa_offset 24
 1447 0004 00AF     		add	r7, sp, #0
 1448              		.cfi_def_cfa_register 7
 1449 0006 7860     		str	r0, [r7, #4]
1283:Generated_Source\PSoC4/engine_sensor_adc.c ****     uint32 chanCount = engine_sensor_adc_allConfigs[engine_sensor_adc_currentConfig].numChannels;
 1450              		.loc 1 1283 0
 1451 0008 0C4B     		ldr	r3, .L99
 1452 000a 1A68     		ldr	r2, [r3]
 1453 000c 0C49     		ldr	r1, .L99+4
 1454 000e 131C     		mov	r3, r2
 1455 0010 DB00     		lsl	r3, r3, #3
 1456 0012 9B1A     		sub	r3, r3, r2
 1457 0014 DB00     		lsl	r3, r3, #3
 1458 0016 CB18     		add	r3, r1, r3
 1459 0018 5B68     		ldr	r3, [r3, #4]
 1460 001a FB60     		str	r3, [r7, #12]
1284:Generated_Source\PSoC4/engine_sensor_adc.c ****     satMask &= (uint32)((uint32)(1ul << chanCount) - 1ul);
 1461              		.loc 1 1284 0
 1462 001c FB68     		ldr	r3, [r7, #12]
 1463 001e 0122     		mov	r2, #1
 1464 0020 9A40     		lsl	r2, r2, r3
 1465 0022 131C     		mov	r3, r2
 1466 0024 5A1E     		sub	r2, r3, #1
 1467 0026 7B68     		ldr	r3, [r7, #4]
 1468 0028 1340     		and	r3, r2
 1469 002a 7B60     		str	r3, [r7, #4]
1285:Generated_Source\PSoC4/engine_sensor_adc.c ****     engine_sensor_adc_SAR_SATURATE_INTR_MASK_REG = satMask;    
 1470              		.loc 1 1285 0
 1471 002c 054B     		ldr	r3, .L99+8
 1472 002e 7A68     		ldr	r2, [r7, #4]
 1473 0030 1A60     		str	r2, [r3]
1286:Generated_Source\PSoC4/engine_sensor_adc.c ****     return;
 1474              		.loc 1 1286 0
 1475 0032 C046     		mov	r8, r8
1287:Generated_Source\PSoC4/engine_sensor_adc.c **** }
 1476              		.loc 1 1287 0
 1477 0034 BD46     		mov	sp, r7
 1478 0036 04B0     		add	sp, sp, #16
 1479              		@ sp needed
 1480 0038 80BD     		pop	{r7, pc}
 1481              	.L100:
 1482 003a C046     		.align	2
 1483              	.L99:
 1484 003c 04000000 		.word	engine_sensor_adc_currentConfig
 1485 0040 00000000 		.word	engine_sensor_adc_allConfigs
 1486 0044 28023A40 		.word	1077543464
 1487              		.cfi_endproc
 1488              	.LFE18:
 1489              		.size	engine_sensor_adc_SetSatMask, .-engine_sensor_adc_SetSatMask
 1490              		.section	.text.engine_sensor_adc_SetOffset,"ax",%progbits
 1491              		.align	2
 1492              		.global	engine_sensor_adc_SetOffset
 1493              		.code	16
 1494              		.thumb_func
 1495              		.type	engine_sensor_adc_SetOffset, %function
 1496              	engine_sensor_adc_SetOffset:
ARM GAS  C:\Users\fneves\AppData\Local\Temp\ccV5UskS.s 			page 50


 1497              	.LFB19:
1288:Generated_Source\PSoC4/engine_sensor_adc.c **** 
1289:Generated_Source\PSoC4/engine_sensor_adc.c **** /*******************************************************************************
1290:Generated_Source\PSoC4/engine_sensor_adc.c **** * Function Name: engine_sensor_adc_SetOffset
1291:Generated_Source\PSoC4/engine_sensor_adc.c **** ****************************************************************************//**
1292:Generated_Source\PSoC4/engine_sensor_adc.c **** *
1293:Generated_Source\PSoC4/engine_sensor_adc.c **** * \brief Sets the ADC offset that is used by the functions engine_sensor_adc_CountsTo_uVolts, 
1294:Generated_Source\PSoC4/engine_sensor_adc.c **** * engine_sensor_adc_CountsTo_mVolts, and engine_sensor_adc_CountsTo_Volts.
1295:Generated_Source\PSoC4/engine_sensor_adc.c **** * 
1296:Generated_Source\PSoC4/engine_sensor_adc.c **** * Offset is applied to counts before unit scaling and gain.  All CountsTo_[mV, uV, V]olts()
1297:Generated_Source\PSoC4/engine_sensor_adc.c **** * functions use the following equation:
1298:Generated_Source\PSoC4/engine_sensor_adc.c **** *     V = (Counts/AvgDivider - Offset)*TEN_VOLT/Gain
1299:Generated_Source\PSoC4/engine_sensor_adc.c **** * See CountsTo_Volts() for more about this formula.
1300:Generated_Source\PSoC4/engine_sensor_adc.c **** * 
1301:Generated_Source\PSoC4/engine_sensor_adc.c **** * To set channel 0's offset based on known V_offset_mV, use:
1302:Generated_Source\PSoC4/engine_sensor_adc.c **** *     engine_sensor_adc_SetOffset(0uL, -1 * V_offset_mV * (1uL << (Resolution - 1)) / V_ref_mV);
1303:Generated_Source\PSoC4/engine_sensor_adc.c **** *
1304:Generated_Source\PSoC4/engine_sensor_adc.c **** * \param chan engine_sensor_adc channel number. 
1305:Generated_Source\PSoC4/engine_sensor_adc.c **** * 
1306:Generated_Source\PSoC4/engine_sensor_adc.c **** * \param offset This value is a measured value when the inputs are shorted or 
1307:Generated_Source\PSoC4/engine_sensor_adc.c **** * connected to the same input voltage.
1308:Generated_Source\PSoC4/engine_sensor_adc.c **** *
1309:Generated_Source\PSoC4/engine_sensor_adc.c **** * \return None
1310:Generated_Source\PSoC4/engine_sensor_adc.c **** * 
1311:Generated_Source\PSoC4/engine_sensor_adc.c **** * \sideeffect None
1312:Generated_Source\PSoC4/engine_sensor_adc.c **** *
1313:Generated_Source\PSoC4/engine_sensor_adc.c **** * <b>Code Snippet</b>
1314:Generated_Source\PSoC4/engine_sensor_adc.c **** *  \snippet main.c snippet_engine_sensor_adc_SetOffset
1315:Generated_Source\PSoC4/engine_sensor_adc.c **** *
1316:Generated_Source\PSoC4/engine_sensor_adc.c **** *******************************************************************************/
1317:Generated_Source\PSoC4/engine_sensor_adc.c **** void engine_sensor_adc_SetOffset(uint32 chan, int16 offset)
1318:Generated_Source\PSoC4/engine_sensor_adc.c **** {   
 1498              		.loc 1 1318 0
 1499              		.cfi_startproc
 1500 0000 80B5     		push	{r7, lr}
 1501              		.cfi_def_cfa_offset 8
 1502              		.cfi_offset 7, -8
 1503              		.cfi_offset 14, -4
 1504 0002 82B0     		sub	sp, sp, #8
 1505              		.cfi_def_cfa_offset 16
 1506 0004 00AF     		add	r7, sp, #0
 1507              		.cfi_def_cfa_register 7
 1508 0006 7860     		str	r0, [r7, #4]
 1509 0008 0A1C     		mov	r2, r1
 1510 000a BB1C     		add	r3, r7, #2
 1511 000c 1A80     		strh	r2, [r3]
1319:Generated_Source\PSoC4/engine_sensor_adc.c ****     /* Halt CPU in debug mode if channel is out of valid range */
1320:Generated_Source\PSoC4/engine_sensor_adc.c ****     CYASSERT(chan < engine_sensor_adc_allConfigs[engine_sensor_adc_currentConfig].numChannels);
 1512              		.loc 1 1320 0
 1513 000e 114B     		ldr	r3, .L104
 1514 0010 1A68     		ldr	r2, [r3]
 1515 0012 1149     		ldr	r1, .L104+4
 1516 0014 131C     		mov	r3, r2
 1517 0016 DB00     		lsl	r3, r3, #3
 1518 0018 9B1A     		sub	r3, r3, r2
 1519 001a DB00     		lsl	r3, r3, #3
 1520 001c CB18     		add	r3, r1, r3
ARM GAS  C:\Users\fneves\AppData\Local\Temp\ccV5UskS.s 			page 51


 1521 001e 5A68     		ldr	r2, [r3, #4]
 1522 0020 7B68     		ldr	r3, [r7, #4]
 1523 0022 9A42     		cmp	r2, r3
 1524 0024 02D8     		bhi	.L102
 1525              		.loc 1 1320 0 is_stmt 0 discriminator 1
 1526 0026 0020     		mov	r0, #0
 1527 0028 FFF7FEFF 		bl	CyHalt
 1528              	.L102:
1321:Generated_Source\PSoC4/engine_sensor_adc.c **** 
1322:Generated_Source\PSoC4/engine_sensor_adc.c ****     engine_sensor_adc_offset[engine_sensor_adc_allConfigs[engine_sensor_adc_currentConfig].channelB
 1529              		.loc 1 1322 0 is_stmt 1
 1530 002c 094B     		ldr	r3, .L104
 1531 002e 1A68     		ldr	r2, [r3]
 1532 0030 0949     		ldr	r1, .L104+4
 1533 0032 131C     		mov	r3, r2
 1534 0034 DB00     		lsl	r3, r3, #3
 1535 0036 9B1A     		sub	r3, r3, r2
 1536 0038 DB00     		lsl	r3, r3, #3
 1537 003a 5A58     		ldr	r2, [r3, r1]
 1538 003c 7B68     		ldr	r3, [r7, #4]
 1539 003e D218     		add	r2, r2, r3
 1540 0040 064B     		ldr	r3, .L104+8
 1541 0042 5200     		lsl	r2, r2, #1
 1542 0044 B91C     		add	r1, r7, #2
 1543 0046 0988     		ldrh	r1, [r1]
 1544 0048 D152     		strh	r1, [r2, r3]
1323:Generated_Source\PSoC4/engine_sensor_adc.c ****     return;
 1545              		.loc 1 1323 0
 1546 004a C046     		mov	r8, r8
1324:Generated_Source\PSoC4/engine_sensor_adc.c **** }
 1547              		.loc 1 1324 0
 1548 004c BD46     		mov	sp, r7
 1549 004e 02B0     		add	sp, sp, #8
 1550              		@ sp needed
 1551 0050 80BD     		pop	{r7, pc}
 1552              	.L105:
 1553 0052 C046     		.align	2
 1554              	.L104:
 1555 0054 04000000 		.word	engine_sensor_adc_currentConfig
 1556 0058 00000000 		.word	engine_sensor_adc_allConfigs
 1557 005c 00000000 		.word	engine_sensor_adc_offset
 1558              		.cfi_endproc
 1559              	.LFE19:
 1560              		.size	engine_sensor_adc_SetOffset, .-engine_sensor_adc_SetOffset
 1561              		.section	.text.engine_sensor_adc_SetGain,"ax",%progbits
 1562              		.align	2
 1563              		.global	engine_sensor_adc_SetGain
 1564              		.code	16
 1565              		.thumb_func
 1566              		.type	engine_sensor_adc_SetGain, %function
 1567              	engine_sensor_adc_SetGain:
 1568              	.LFB20:
1325:Generated_Source\PSoC4/engine_sensor_adc.c **** 
1326:Generated_Source\PSoC4/engine_sensor_adc.c **** /*******************************************************************************
1327:Generated_Source\PSoC4/engine_sensor_adc.c **** * Function Name: engine_sensor_adc_SetGain
1328:Generated_Source\PSoC4/engine_sensor_adc.c **** ****************************************************************************//**
1329:Generated_Source\PSoC4/engine_sensor_adc.c **** *
ARM GAS  C:\Users\fneves\AppData\Local\Temp\ccV5UskS.s 			page 52


1330:Generated_Source\PSoC4/engine_sensor_adc.c **** * \brief Sets the engine_sensor_adc gain in counts per 10 volt for the voltage 
1331:Generated_Source\PSoC4/engine_sensor_adc.c **** * conversion functions. This value is set by default by the reference and 
1332:Generated_Source\PSoC4/engine_sensor_adc.c **** * input range settings. Gain is applied after offset and unit scaling.  All 
1333:Generated_Source\PSoC4/engine_sensor_adc.c **** * CountsTo_[mV, uV, V]olts() functions use the following equation:
1334:Generated_Source\PSoC4/engine_sensor_adc.c **** *     V = (Counts/AvgDivider - Offset)*TEN_VOLT/Gain
1335:Generated_Source\PSoC4/engine_sensor_adc.c **** * See CountsTo_Volts() for more about this formula.
1336:Generated_Source\PSoC4/engine_sensor_adc.c **** * 
1337:Generated_Source\PSoC4/engine_sensor_adc.c **** * To set channel 0's gain based on known V_ref_mV, use:
1338:Generated_Source\PSoC4/engine_sensor_adc.c **** *     engine_sensor_adc_SetGain(0uL, 10000 * (1uL << (Resolution - 1)) / V_ref_mV);
1339:Generated_Source\PSoC4/engine_sensor_adc.c **** *  
1340:Generated_Source\PSoC4/engine_sensor_adc.c **** * \param chan engine_sensor_adc channel number.
1341:Generated_Source\PSoC4/engine_sensor_adc.c **** * 
1342:Generated_Source\PSoC4/engine_sensor_adc.c **** * \param adcGain engine_sensor_adc gain in counts per 10 volt.
1343:Generated_Source\PSoC4/engine_sensor_adc.c **** *
1344:Generated_Source\PSoC4/engine_sensor_adc.c **** * \return None
1345:Generated_Source\PSoC4/engine_sensor_adc.c **** * 
1346:Generated_Source\PSoC4/engine_sensor_adc.c **** * \sideeffect None
1347:Generated_Source\PSoC4/engine_sensor_adc.c **** *
1348:Generated_Source\PSoC4/engine_sensor_adc.c **** * <b>Code Snippet</b>
1349:Generated_Source\PSoC4/engine_sensor_adc.c **** *  \snippet main.c snippet_engine_sensor_adc_SetGain
1350:Generated_Source\PSoC4/engine_sensor_adc.c **** *
1351:Generated_Source\PSoC4/engine_sensor_adc.c **** *******************************************************************************/
1352:Generated_Source\PSoC4/engine_sensor_adc.c **** void engine_sensor_adc_SetGain(uint32 chan, int32 adcGain)
1353:Generated_Source\PSoC4/engine_sensor_adc.c **** {   
 1569              		.loc 1 1353 0
 1570              		.cfi_startproc
 1571 0000 80B5     		push	{r7, lr}
 1572              		.cfi_def_cfa_offset 8
 1573              		.cfi_offset 7, -8
 1574              		.cfi_offset 14, -4
 1575 0002 82B0     		sub	sp, sp, #8
 1576              		.cfi_def_cfa_offset 16
 1577 0004 00AF     		add	r7, sp, #0
 1578              		.cfi_def_cfa_register 7
 1579 0006 7860     		str	r0, [r7, #4]
 1580 0008 3960     		str	r1, [r7]
1354:Generated_Source\PSoC4/engine_sensor_adc.c ****     /* Halt CPU in debug mode if channel is out of valid range */
1355:Generated_Source\PSoC4/engine_sensor_adc.c ****     CYASSERT(chan < engine_sensor_adc_allConfigs[engine_sensor_adc_currentConfig].numChannels);
 1581              		.loc 1 1355 0
 1582 000a 104B     		ldr	r3, .L109
 1583 000c 1A68     		ldr	r2, [r3]
 1584 000e 1049     		ldr	r1, .L109+4
 1585 0010 131C     		mov	r3, r2
 1586 0012 DB00     		lsl	r3, r3, #3
 1587 0014 9B1A     		sub	r3, r3, r2
 1588 0016 DB00     		lsl	r3, r3, #3
 1589 0018 CB18     		add	r3, r1, r3
 1590 001a 5A68     		ldr	r2, [r3, #4]
 1591 001c 7B68     		ldr	r3, [r7, #4]
 1592 001e 9A42     		cmp	r2, r3
 1593 0020 02D8     		bhi	.L107
 1594              		.loc 1 1355 0 is_stmt 0 discriminator 1
 1595 0022 0020     		mov	r0, #0
 1596 0024 FFF7FEFF 		bl	CyHalt
 1597              	.L107:
1356:Generated_Source\PSoC4/engine_sensor_adc.c **** 
1357:Generated_Source\PSoC4/engine_sensor_adc.c ****     engine_sensor_adc_countsPer10Volt[engine_sensor_adc_allConfigs[engine_sensor_adc_currentConfig]
ARM GAS  C:\Users\fneves\AppData\Local\Temp\ccV5UskS.s 			page 53


 1598              		.loc 1 1357 0 is_stmt 1
 1599 0028 084B     		ldr	r3, .L109
 1600 002a 1A68     		ldr	r2, [r3]
 1601 002c 0849     		ldr	r1, .L109+4
 1602 002e 131C     		mov	r3, r2
 1603 0030 DB00     		lsl	r3, r3, #3
 1604 0032 9B1A     		sub	r3, r3, r2
 1605 0034 DB00     		lsl	r3, r3, #3
 1606 0036 5A58     		ldr	r2, [r3, r1]
 1607 0038 7B68     		ldr	r3, [r7, #4]
 1608 003a D218     		add	r2, r2, r3
1358:Generated_Source\PSoC4/engine_sensor_adc.c **** 	= adcGain;
 1609              		.loc 1 1358 0
 1610 003c 054B     		ldr	r3, .L109+8
 1611 003e 9200     		lsl	r2, r2, #2
 1612 0040 3968     		ldr	r1, [r7]
 1613 0042 D150     		str	r1, [r2, r3]
1359:Generated_Source\PSoC4/engine_sensor_adc.c ****     return;
 1614              		.loc 1 1359 0
 1615 0044 C046     		mov	r8, r8
1360:Generated_Source\PSoC4/engine_sensor_adc.c **** }
 1616              		.loc 1 1360 0
 1617 0046 BD46     		mov	sp, r7
 1618 0048 02B0     		add	sp, sp, #8
 1619              		@ sp needed
 1620 004a 80BD     		pop	{r7, pc}
 1621              	.L110:
 1622              		.align	2
 1623              	.L109:
 1624 004c 04000000 		.word	engine_sensor_adc_currentConfig
 1625 0050 00000000 		.word	engine_sensor_adc_allConfigs
 1626 0054 00000000 		.word	engine_sensor_adc_countsPer10Volt
 1627              		.cfi_endproc
 1628              	.LFE20:
 1629              		.size	engine_sensor_adc_SetGain, .-engine_sensor_adc_SetGain
 1630              		.global	__aeabi_uidiv
 1631              		.global	__aeabi_idiv
 1632              		.section	.text.engine_sensor_adc_RawCounts2Counts,"ax",%progbits
 1633              		.align	2
 1634              		.global	engine_sensor_adc_RawCounts2Counts
 1635              		.code	16
 1636              		.thumb_func
 1637              		.type	engine_sensor_adc_RawCounts2Counts, %function
 1638              	engine_sensor_adc_RawCounts2Counts:
 1639              	.LFB21:
1361:Generated_Source\PSoC4/engine_sensor_adc.c **** /*******************************************************************************
1362:Generated_Source\PSoC4/engine_sensor_adc.c **** * Function Name: engine_sensor_adc_RawCounts2Counts
1363:Generated_Source\PSoC4/engine_sensor_adc.c **** ****************************************************************************//**
1364:Generated_Source\PSoC4/engine_sensor_adc.c **** *
1365:Generated_Source\PSoC4/engine_sensor_adc.c **** * \brief Converts the output of the SAR to an idealized count value.
1366:Generated_Source\PSoC4/engine_sensor_adc.c **** *
1367:Generated_Source\PSoC4/engine_sensor_adc.c **** * Divides by averaging amount, if needed, and subtracts offset.
1368:Generated_Source\PSoC4/engine_sensor_adc.c **** *
1369:Generated_Source\PSoC4/engine_sensor_adc.c **** * \param chan engine_sensor_adc channel number.   
1370:Generated_Source\PSoC4/engine_sensor_adc.c **** *
1371:Generated_Source\PSoC4/engine_sensor_adc.c **** * \param adcCounts Result from the engine_sensor_adc conversion.
1372:Generated_Source\PSoC4/engine_sensor_adc.c **** *
ARM GAS  C:\Users\fneves\AppData\Local\Temp\ccV5UskS.s 			page 54


1373:Generated_Source\PSoC4/engine_sensor_adc.c **** * \return Averaged and offset counts.
1374:Generated_Source\PSoC4/engine_sensor_adc.c **** * 
1375:Generated_Source\PSoC4/engine_sensor_adc.c **** * \sideeffect None
1376:Generated_Source\PSoC4/engine_sensor_adc.c **** *******************************************************************************/
1377:Generated_Source\PSoC4/engine_sensor_adc.c **** int16 engine_sensor_adc_RawCounts2Counts(uint32 chan, int16 adcCounts)
1378:Generated_Source\PSoC4/engine_sensor_adc.c **** {
 1640              		.loc 1 1378 0
 1641              		.cfi_startproc
 1642 0000 80B5     		push	{r7, lr}
 1643              		.cfi_def_cfa_offset 8
 1644              		.cfi_offset 7, -8
 1645              		.cfi_offset 14, -4
 1646 0002 86B0     		sub	sp, sp, #24
 1647              		.cfi_def_cfa_offset 32
 1648 0004 00AF     		add	r7, sp, #0
 1649              		.cfi_def_cfa_register 7
 1650 0006 7860     		str	r0, [r7, #4]
 1651 0008 0A1C     		mov	r2, r1
 1652 000a BB1C     		add	r3, r7, #2
 1653 000c 1A80     		strh	r2, [r3]
1379:Generated_Source\PSoC4/engine_sensor_adc.c ****     uint32 temp;
1380:Generated_Source\PSoC4/engine_sensor_adc.c **** 	uint32 averageAdcSamplesDiv;
1381:Generated_Source\PSoC4/engine_sensor_adc.c **** 	uint32 rawChannel;
1382:Generated_Source\PSoC4/engine_sensor_adc.c **** 	rawChannel = engine_sensor_adc_allConfigs[engine_sensor_adc_currentConfig].channelBase + chan;
 1654              		.loc 1 1382 0
 1655 000e 434B     		ldr	r3, .L117
 1656 0010 1A68     		ldr	r2, [r3]
 1657 0012 4349     		ldr	r1, .L117+4
 1658 0014 131C     		mov	r3, r2
 1659 0016 DB00     		lsl	r3, r3, #3
 1660 0018 9B1A     		sub	r3, r3, r2
 1661 001a DB00     		lsl	r3, r3, #3
 1662 001c 5A58     		ldr	r2, [r3, r1]
 1663 001e 7B68     		ldr	r3, [r7, #4]
 1664 0020 D318     		add	r3, r2, r3
 1665 0022 3B61     		str	r3, [r7, #16]
1383:Generated_Source\PSoC4/engine_sensor_adc.c **** 	
1384:Generated_Source\PSoC4/engine_sensor_adc.c ****     /* Halt CPU in debug mode if channel is out of valid range */
1385:Generated_Source\PSoC4/engine_sensor_adc.c ****     CYASSERT(chan < engine_sensor_adc_allConfigs[engine_sensor_adc_currentConfig].numChannels);
 1666              		.loc 1 1385 0
 1667 0024 3D4B     		ldr	r3, .L117
 1668 0026 1A68     		ldr	r2, [r3]
 1669 0028 3D49     		ldr	r1, .L117+4
 1670 002a 131C     		mov	r3, r2
 1671 002c DB00     		lsl	r3, r3, #3
 1672 002e 9B1A     		sub	r3, r3, r2
 1673 0030 DB00     		lsl	r3, r3, #3
 1674 0032 CB18     		add	r3, r1, r3
 1675 0034 5A68     		ldr	r2, [r3, #4]
 1676 0036 7B68     		ldr	r3, [r7, #4]
 1677 0038 9A42     		cmp	r2, r3
 1678 003a 02D8     		bhi	.L112
 1679              		.loc 1 1385 0 is_stmt 0 discriminator 1
 1680 003c 0020     		mov	r0, #0
 1681 003e FFF7FEFF 		bl	CyHalt
 1682              	.L112:
1386:Generated_Source\PSoC4/engine_sensor_adc.c **** 
ARM GAS  C:\Users\fneves\AppData\Local\Temp\ccV5UskS.s 			page 55


1387:Generated_Source\PSoC4/engine_sensor_adc.c ****     /* Divide the adcCount when accumulate averaging mode selected */
1388:Generated_Source\PSoC4/engine_sensor_adc.c ****     /* If Average mode != fixed */
1389:Generated_Source\PSoC4/engine_sensor_adc.c **** 	if((engine_sensor_adc_allConfigs[engine_sensor_adc_currentConfig].sampleCtrl 
 1683              		.loc 1 1389 0 is_stmt 1
 1684 0042 364B     		ldr	r3, .L117
 1685 0044 1A68     		ldr	r2, [r3]
 1686 0046 3649     		ldr	r1, .L117+4
 1687 0048 131C     		mov	r3, r2
 1688 004a DB00     		lsl	r3, r3, #3
 1689 004c 9B1A     		sub	r3, r3, r2
 1690 004e DB00     		lsl	r3, r3, #3
 1691 0050 CB18     		add	r3, r1, r3
 1692 0052 0833     		add	r3, r3, #8
 1693 0054 5B68     		ldr	r3, [r3, #4]
1390:Generated_Source\PSoC4/engine_sensor_adc.c **** 		& engine_sensor_adc_SAR_SAMPLE_CTRL_AVG_SHIFT_MSK) 
 1694              		.loc 1 1390 0
 1695 0056 8022     		mov	r2, #128
 1696 0058 1340     		and	r3, r2
1389:Generated_Source\PSoC4/engine_sensor_adc.c **** 		& engine_sensor_adc_SAR_SAMPLE_CTRL_AVG_SHIFT_MSK) 
 1697              		.loc 1 1389 0
 1698 005a 4CD1     		bne	.L113
1391:Generated_Source\PSoC4/engine_sensor_adc.c **** 		!= engine_sensor_adc_SAR_SAMPLE_CTRL_AVG_SHIFT_MSK)
1392:Generated_Source\PSoC4/engine_sensor_adc.c **** 	{
1393:Generated_Source\PSoC4/engine_sensor_adc.c ****         /* If Channel uses averaging */
1394:Generated_Source\PSoC4/engine_sensor_adc.c ****         if((engine_sensor_adc_channelsConfig[rawChannel] & engine_sensor_adc_SAR_CHAN_CONFIG_AVG_EN
 1699              		.loc 1 1394 0
 1700 005c 8023     		mov	r3, #128
 1701 005e 5A00     		lsl	r2, r3, #1
 1702 0060 8023     		mov	r3, #128
 1703 0062 DB00     		lsl	r3, r3, #3
 1704 0064 1340     		and	r3, r2
 1705 0066 46D0     		beq	.L113
1395:Generated_Source\PSoC4/engine_sensor_adc.c ****         {
1396:Generated_Source\PSoC4/engine_sensor_adc.c ****             /* Divide by 2^(AVG_CNT + 1) */
1397:Generated_Source\PSoC4/engine_sensor_adc.c **** 			averageAdcSamplesDiv = ((engine_sensor_adc_allConfigs[engine_sensor_adc_currentConfig].sampleCtr
 1706              		.loc 1 1397 0
 1707 0068 2C4B     		ldr	r3, .L117
 1708 006a 1A68     		ldr	r2, [r3]
 1709 006c 2C49     		ldr	r1, .L117+4
 1710 006e 131C     		mov	r3, r2
 1711 0070 DB00     		lsl	r3, r3, #3
 1712 0072 9B1A     		sub	r3, r3, r2
 1713 0074 DB00     		lsl	r3, r3, #3
 1714 0076 CB18     		add	r3, r1, r3
 1715 0078 0833     		add	r3, r3, #8
 1716 007a 5B68     		ldr	r3, [r3, #4]
1398:Generated_Source\PSoC4/engine_sensor_adc.c **** 				& engine_sensor_adc_SAR_SAMPLE_CTRL_AVG_CNT_MSK) 
 1717              		.loc 1 1398 0
 1718 007c 7022     		mov	r2, #112
 1719 007e 1340     		and	r3, r2
1397:Generated_Source\PSoC4/engine_sensor_adc.c **** 				& engine_sensor_adc_SAR_SAMPLE_CTRL_AVG_CNT_MSK) 
 1720              		.loc 1 1397 0
 1721 0080 1B09     		lsr	r3, r3, #4
 1722 0082 7B61     		str	r3, [r7, #20]
1399:Generated_Source\PSoC4/engine_sensor_adc.c **** 				>> engine_sensor_adc_SAR_SAMPLE_CTRL_AVG_CNT_SHFT);
1400:Generated_Source\PSoC4/engine_sensor_adc.c ****             averageAdcSamplesDiv = (1uL << (averageAdcSamplesDiv + 1uL));
 1723              		.loc 1 1400 0
ARM GAS  C:\Users\fneves\AppData\Local\Temp\ccV5UskS.s 			page 56


 1724 0084 7B69     		ldr	r3, [r7, #20]
 1725 0086 0133     		add	r3, r3, #1
 1726 0088 1A1C     		mov	r2, r3
 1727 008a 0123     		mov	r3, #1
 1728 008c 9340     		lsl	r3, r3, r2
 1729 008e 7B61     		str	r3, [r7, #20]
1401:Generated_Source\PSoC4/engine_sensor_adc.c ****                         /* When it's "Sequential, Sum", divider limit is 16 */
1402:Generated_Source\PSoC4/engine_sensor_adc.c ****             /* If Mode is ACCUNDUMP */
1403:Generated_Source\PSoC4/engine_sensor_adc.c ****             if((engine_sensor_adc_allConfigs[engine_sensor_adc_currentConfig].sampleCtrl 
 1730              		.loc 1 1403 0
 1731 0090 224B     		ldr	r3, .L117
 1732 0092 1A68     		ldr	r2, [r3]
 1733 0094 2249     		ldr	r1, .L117+4
 1734 0096 131C     		mov	r3, r2
 1735 0098 DB00     		lsl	r3, r3, #3
 1736 009a 9B1A     		sub	r3, r3, r2
 1737 009c DB00     		lsl	r3, r3, #3
 1738 009e CB18     		add	r3, r1, r3
 1739 00a0 0833     		add	r3, r3, #8
 1740 00a2 5A68     		ldr	r2, [r3, #4]
1404:Generated_Source\PSoC4/engine_sensor_adc.c ****     			& engine_sensor_adc_SAR_SAMPLE_CTRL_AVG_MODE_MSK) 
 1741              		.loc 1 1404 0
 1742 00a4 8023     		mov	r3, #128
 1743 00a6 5B00     		lsl	r3, r3, #1
 1744 00a8 1340     		and	r3, r2
1403:Generated_Source\PSoC4/engine_sensor_adc.c ****     			& engine_sensor_adc_SAR_SAMPLE_CTRL_AVG_MODE_MSK) 
 1745              		.loc 1 1403 0
 1746 00aa 04D1     		bne	.L114
1405:Generated_Source\PSoC4/engine_sensor_adc.c ****     			!= engine_sensor_adc_SAR_SAMPLE_CTRL_AVG_MODE_MSK)
1406:Generated_Source\PSoC4/engine_sensor_adc.c ****     		{
1407:Generated_Source\PSoC4/engine_sensor_adc.c ****                 if (averageAdcSamplesDiv > 16uL)
 1747              		.loc 1 1407 0
 1748 00ac 7B69     		ldr	r3, [r7, #20]
 1749 00ae 102B     		cmp	r3, #16
 1750 00b0 01D9     		bls	.L114
1408:Generated_Source\PSoC4/engine_sensor_adc.c ****                 {
1409:Generated_Source\PSoC4/engine_sensor_adc.c ****                     averageAdcSamplesDiv = 16uL;
 1751              		.loc 1 1409 0
 1752 00b2 1023     		mov	r3, #16
 1753 00b4 7B61     		str	r3, [r7, #20]
 1754              	.L114:
1410:Generated_Source\PSoC4/engine_sensor_adc.c ****                 }
1411:Generated_Source\PSoC4/engine_sensor_adc.c ****             }
1412:Generated_Source\PSoC4/engine_sensor_adc.c ****             /* If unsigned format, prevent sign extension */
1413:Generated_Source\PSoC4/engine_sensor_adc.c ****             if(0 == engine_sensor_adc_IsChannelSigned(chan))
 1755              		.loc 1 1413 0
 1756 00b6 7B68     		ldr	r3, [r7, #4]
 1757 00b8 181C     		mov	r0, r3
 1758 00ba FFF7FEFF 		bl	engine_sensor_adc_IsChannelSigned
 1759 00be 031E     		sub	r3, r0, #0
 1760 00c0 0BD1     		bne	.L115
1414:Generated_Source\PSoC4/engine_sensor_adc.c ****             {
1415:Generated_Source\PSoC4/engine_sensor_adc.c **** 				temp = ((uint16) adcCounts / averageAdcSamplesDiv);
 1761              		.loc 1 1415 0
 1762 00c2 BB1C     		add	r3, r7, #2
 1763 00c4 1B88     		ldrh	r3, [r3]
 1764 00c6 181C     		mov	r0, r3
ARM GAS  C:\Users\fneves\AppData\Local\Temp\ccV5UskS.s 			page 57


 1765 00c8 7969     		ldr	r1, [r7, #20]
 1766 00ca FFF7FEFF 		bl	__aeabi_uidiv
 1767 00ce 031C     		mov	r3, r0
 1768 00d0 FB60     		str	r3, [r7, #12]
1416:Generated_Source\PSoC4/engine_sensor_adc.c ****                 adcCounts = (int16) temp;
 1769              		.loc 1 1416 0
 1770 00d2 BB1C     		add	r3, r7, #2
 1771 00d4 FA68     		ldr	r2, [r7, #12]
 1772 00d6 1A80     		strh	r2, [r3]
 1773 00d8 0DE0     		b	.L113
 1774              	.L115:
1417:Generated_Source\PSoC4/engine_sensor_adc.c ****             }
1418:Generated_Source\PSoC4/engine_sensor_adc.c ****             else
1419:Generated_Source\PSoC4/engine_sensor_adc.c ****             {
1420:Generated_Source\PSoC4/engine_sensor_adc.c ****                 adcCounts /= (int16) averageAdcSamplesDiv;
 1775              		.loc 1 1420 0
 1776 00da BB1C     		add	r3, r7, #2
 1777 00dc 0022     		mov	r2, #0
 1778 00de 9A5E     		ldrsh	r2, [r3, r2]
 1779 00e0 7B69     		ldr	r3, [r7, #20]
 1780 00e2 9BB2     		uxth	r3, r3
 1781 00e4 1BB2     		sxth	r3, r3
 1782 00e6 101C     		mov	r0, r2
 1783 00e8 191C     		mov	r1, r3
 1784 00ea FFF7FEFF 		bl	__aeabi_idiv
 1785 00ee 031C     		mov	r3, r0
 1786 00f0 1A1C     		mov	r2, r3
 1787 00f2 BB1C     		add	r3, r7, #2
 1788 00f4 1A80     		strh	r2, [r3]
 1789              	.L113:
1421:Generated_Source\PSoC4/engine_sensor_adc.c ****             }
1422:Generated_Source\PSoC4/engine_sensor_adc.c ****         }
1423:Generated_Source\PSoC4/engine_sensor_adc.c ****     }
1424:Generated_Source\PSoC4/engine_sensor_adc.c ****     /* Subtract ADC offset */
1425:Generated_Source\PSoC4/engine_sensor_adc.c ****     adcCounts -= engine_sensor_adc_offset[rawChannel];
 1790              		.loc 1 1425 0
 1791 00f6 0B4B     		ldr	r3, .L117+8
 1792 00f8 3A69     		ldr	r2, [r7, #16]
 1793 00fa 5200     		lsl	r2, r2, #1
 1794 00fc D35A     		ldrh	r3, [r2, r3]
 1795 00fe 99B2     		uxth	r1, r3
 1796 0100 BB1C     		add	r3, r7, #2
 1797 0102 1A88     		ldrh	r2, [r3]
 1798 0104 8BB2     		uxth	r3, r1
 1799 0106 D31A     		sub	r3, r2, r3
 1800 0108 9AB2     		uxth	r2, r3
 1801 010a BB1C     		add	r3, r7, #2
 1802 010c 1A80     		strh	r2, [r3]
1426:Generated_Source\PSoC4/engine_sensor_adc.c ****     return adcCounts;
 1803              		.loc 1 1426 0
 1804 010e BB1C     		add	r3, r7, #2
 1805 0110 1B88     		ldrh	r3, [r3]
 1806 0112 1BB2     		sxth	r3, r3
1427:Generated_Source\PSoC4/engine_sensor_adc.c **** }
 1807              		.loc 1 1427 0
 1808 0114 181C     		mov	r0, r3
 1809 0116 BD46     		mov	sp, r7
ARM GAS  C:\Users\fneves\AppData\Local\Temp\ccV5UskS.s 			page 58


 1810 0118 06B0     		add	sp, sp, #24
 1811              		@ sp needed
 1812 011a 80BD     		pop	{r7, pc}
 1813              	.L118:
 1814              		.align	2
 1815              	.L117:
 1816 011c 04000000 		.word	engine_sensor_adc_currentConfig
 1817 0120 00000000 		.word	engine_sensor_adc_allConfigs
 1818 0124 00000000 		.word	engine_sensor_adc_offset
 1819              		.cfi_endproc
 1820              	.LFE21:
 1821              		.size	engine_sensor_adc_RawCounts2Counts, .-engine_sensor_adc_RawCounts2Counts
 1822              		.global	__aeabi_i2f
 1823              		.global	__aeabi_fmul
 1824              		.global	__aeabi_fdiv
 1825              		.section	.text.engine_sensor_adc_CountsTo_Volts,"ax",%progbits
 1826              		.align	2
 1827              		.global	engine_sensor_adc_CountsTo_Volts
 1828              		.code	16
 1829              		.thumb_func
 1830              		.type	engine_sensor_adc_CountsTo_Volts, %function
 1831              	engine_sensor_adc_CountsTo_Volts:
 1832              	.LFB22:
1428:Generated_Source\PSoC4/engine_sensor_adc.c **** 
1429:Generated_Source\PSoC4/engine_sensor_adc.c **** /*******************************************************************************
1430:Generated_Source\PSoC4/engine_sensor_adc.c **** * Function Name: engine_sensor_adc_CountsTo_Volts
1431:Generated_Source\PSoC4/engine_sensor_adc.c **** ****************************************************************************//**
1432:Generated_Source\PSoC4/engine_sensor_adc.c **** *
1433:Generated_Source\PSoC4/engine_sensor_adc.c **** * \brief Converts the ADC output to Volts as a float32. For example, if the ADC 
1434:Generated_Source\PSoC4/engine_sensor_adc.c **** * measured 0.534 volts, the return value would be 0.534.
1435:Generated_Source\PSoC4/engine_sensor_adc.c **** * The calculation of voltage depends on the contents of engine_sensor_adc_offset[],
1436:Generated_Source\PSoC4/engine_sensor_adc.c **** * engine_sensor_adc_countsPer10Volt[], and other parameters.  The equation used is:
1437:Generated_Source\PSoC4/engine_sensor_adc.c **** * 
1438:Generated_Source\PSoC4/engine_sensor_adc.c **** *     V = (Counts/AvgDivider - Offset)*TEN_VOLT/Gain
1439:Generated_Source\PSoC4/engine_sensor_adc.c **** * -Counts = Raw Counts from SAR register
1440:Generated_Source\PSoC4/engine_sensor_adc.c **** * -AvgDivider = divider based on averaging mode
1441:Generated_Source\PSoC4/engine_sensor_adc.c **** *     -Sequential, Sum: AvgDivider = number averaged
1442:Generated_Source\PSoC4/engine_sensor_adc.c **** *         Note: The divider should be a maximum of 16. If using more averages, 
1443:Generated_Source\PSoC4/engine_sensor_adc.c **** *         pre-scale Counts by (number averaged / 16)
1444:Generated_Source\PSoC4/engine_sensor_adc.c **** *     -Interleaved, Sum: AvgDivider = number averaged
1445:Generated_Source\PSoC4/engine_sensor_adc.c **** *     -Sequential, Fixed: AvgDivider = 1
1446:Generated_Source\PSoC4/engine_sensor_adc.c **** * -Offset = engine_sensor_adc_offset[]
1447:Generated_Source\PSoC4/engine_sensor_adc.c **** * -TEN_VOLT = 10V constant and unit scalar.
1448:Generated_Source\PSoC4/engine_sensor_adc.c **** * -Gain = engine_sensor_adc_countsPer10Volt[]
1449:Generated_Source\PSoC4/engine_sensor_adc.c **** * 
1450:Generated_Source\PSoC4/engine_sensor_adc.c **** * When the Vref is based on Vdda, the value used for Vdda is set for the project
1451:Generated_Source\PSoC4/engine_sensor_adc.c **** * in the System tab of the DWR.
1452:Generated_Source\PSoC4/engine_sensor_adc.c **** *
1453:Generated_Source\PSoC4/engine_sensor_adc.c **** * \param chan engine_sensor_adc channel number.   
1454:Generated_Source\PSoC4/engine_sensor_adc.c **** *
1455:Generated_Source\PSoC4/engine_sensor_adc.c **** * \param adcCounts Result from the engine_sensor_adc conversion.
1456:Generated_Source\PSoC4/engine_sensor_adc.c **** *
1457:Generated_Source\PSoC4/engine_sensor_adc.c **** * \return Result in Volts.
1458:Generated_Source\PSoC4/engine_sensor_adc.c **** * 
1459:Generated_Source\PSoC4/engine_sensor_adc.c **** * \sideeffect None
1460:Generated_Source\PSoC4/engine_sensor_adc.c **** *
1461:Generated_Source\PSoC4/engine_sensor_adc.c **** * <b>Code Snippet</b>
ARM GAS  C:\Users\fneves\AppData\Local\Temp\ccV5UskS.s 			page 59


1462:Generated_Source\PSoC4/engine_sensor_adc.c **** *  \snippet main.c snippet_engine_sensor_adc_CountsTo_Volts
1463:Generated_Source\PSoC4/engine_sensor_adc.c **** *
1464:Generated_Source\PSoC4/engine_sensor_adc.c **** *******************************************************************************/
1465:Generated_Source\PSoC4/engine_sensor_adc.c **** float32 engine_sensor_adc_CountsTo_Volts(uint32 chan, int16 adcCounts)
1466:Generated_Source\PSoC4/engine_sensor_adc.c **** {   
 1833              		.loc 1 1466 0
 1834              		.cfi_startproc
 1835 0000 90B5     		push	{r4, r7, lr}
 1836              		.cfi_def_cfa_offset 12
 1837              		.cfi_offset 4, -12
 1838              		.cfi_offset 7, -8
 1839              		.cfi_offset 14, -4
 1840 0002 85B0     		sub	sp, sp, #20
 1841              		.cfi_def_cfa_offset 32
 1842 0004 00AF     		add	r7, sp, #0
 1843              		.cfi_def_cfa_register 7
 1844 0006 7860     		str	r0, [r7, #4]
 1845 0008 0A1C     		mov	r2, r1
 1846 000a BB1C     		add	r3, r7, #2
 1847 000c 1A80     		strh	r2, [r3]
1467:Generated_Source\PSoC4/engine_sensor_adc.c ****     float32 result_Volts = 0.0f;
 1848              		.loc 1 1467 0
 1849 000e 0023     		mov	r3, #0
 1850 0010 FB60     		str	r3, [r7, #12]
1468:Generated_Source\PSoC4/engine_sensor_adc.c **** 	uint32 rawChannel;
1469:Generated_Source\PSoC4/engine_sensor_adc.c **** 	rawChannel = engine_sensor_adc_allConfigs[engine_sensor_adc_currentConfig].channelBase + chan;
 1851              		.loc 1 1469 0
 1852 0012 214B     		ldr	r3, .L122
 1853 0014 1A68     		ldr	r2, [r3]
 1854 0016 2149     		ldr	r1, .L122+4
 1855 0018 131C     		mov	r3, r2
 1856 001a DB00     		lsl	r3, r3, #3
 1857 001c 9B1A     		sub	r3, r3, r2
 1858 001e DB00     		lsl	r3, r3, #3
 1859 0020 5A58     		ldr	r2, [r3, r1]
 1860 0022 7B68     		ldr	r3, [r7, #4]
 1861 0024 D318     		add	r3, r2, r3
 1862 0026 BB60     		str	r3, [r7, #8]
1470:Generated_Source\PSoC4/engine_sensor_adc.c **** 	
1471:Generated_Source\PSoC4/engine_sensor_adc.c **** 	if((engine_sensor_adc_allConfigs[engine_sensor_adc_currentConfig].sampleCtrl 
 1863              		.loc 1 1471 0
 1864 0028 1B4B     		ldr	r3, .L122
 1865 002a 1A68     		ldr	r2, [r3]
 1866 002c 1B49     		ldr	r1, .L122+4
 1867 002e 131C     		mov	r3, r2
 1868 0030 DB00     		lsl	r3, r3, #3
 1869 0032 9B1A     		sub	r3, r3, r2
 1870 0034 DB00     		lsl	r3, r3, #3
 1871 0036 CB18     		add	r3, r1, r3
 1872 0038 0833     		add	r3, r3, #8
 1873 003a 5B68     		ldr	r3, [r3, #4]
1472:Generated_Source\PSoC4/engine_sensor_adc.c **** 		& engine_sensor_adc_SAR_SAMPLE_CTRL_LEFT_ALIGN_MSK) 
 1874              		.loc 1 1472 0
 1875 003c 0222     		mov	r2, #2
 1876 003e 1340     		and	r3, r2
1471:Generated_Source\PSoC4/engine_sensor_adc.c **** 		& engine_sensor_adc_SAR_SAMPLE_CTRL_LEFT_ALIGN_MSK) 
 1877              		.loc 1 1471 0
ARM GAS  C:\Users\fneves\AppData\Local\Temp\ccV5UskS.s 			page 60


 1878 0040 25D1     		bne	.L120
1473:Generated_Source\PSoC4/engine_sensor_adc.c **** 		!= engine_sensor_adc_SAR_SAMPLE_CTRL_LEFT_ALIGN_MSK)
1474:Generated_Source\PSoC4/engine_sensor_adc.c **** 	{
1475:Generated_Source\PSoC4/engine_sensor_adc.c ****         adcCounts = engine_sensor_adc_RawCounts2Counts(chan, adcCounts);
 1879              		.loc 1 1475 0
 1880 0042 BC1C     		add	r4, r7, #2
 1881 0044 7A68     		ldr	r2, [r7, #4]
 1882 0046 BB1C     		add	r3, r7, #2
 1883 0048 0021     		mov	r1, #0
 1884 004a 5B5E     		ldrsh	r3, [r3, r1]
 1885 004c 101C     		mov	r0, r2
 1886 004e 191C     		mov	r1, r3
 1887 0050 FFF7FEFF 		bl	engine_sensor_adc_RawCounts2Counts
 1888 0054 031C     		mov	r3, r0
 1889 0056 2380     		strh	r3, [r4]
1476:Generated_Source\PSoC4/engine_sensor_adc.c **** 
1477:Generated_Source\PSoC4/engine_sensor_adc.c ****         result_Volts = ((float32)adcCounts * engine_sensor_adc_10V_COUNTS) 
 1890              		.loc 1 1477 0
 1891 0058 BB1C     		add	r3, r7, #2
 1892 005a 0022     		mov	r2, #0
 1893 005c 9B5E     		ldrsh	r3, [r3, r2]
 1894 005e 181C     		mov	r0, r3
 1895 0060 FFF7FEFF 		bl	__aeabi_i2f
 1896 0064 031C     		add	r3, r0, #0
 1897 0066 181C     		add	r0, r3, #0
 1898 0068 0D49     		ldr	r1, .L122+8
 1899 006a FFF7FEFF 		bl	__aeabi_fmul
 1900 006e 031C     		add	r3, r0, #0
 1901 0070 1C1C     		add	r4, r3, #0
1478:Generated_Source\PSoC4/engine_sensor_adc.c **** 			/ (float32)engine_sensor_adc_countsPer10Volt[rawChannel];
 1902              		.loc 1 1478 0
 1903 0072 0C4B     		ldr	r3, .L122+12
 1904 0074 BA68     		ldr	r2, [r7, #8]
 1905 0076 9200     		lsl	r2, r2, #2
 1906 0078 D358     		ldr	r3, [r2, r3]
 1907 007a 181C     		mov	r0, r3
 1908 007c FFF7FEFF 		bl	__aeabi_i2f
 1909 0080 031C     		add	r3, r0, #0
1477:Generated_Source\PSoC4/engine_sensor_adc.c **** 			/ (float32)engine_sensor_adc_countsPer10Volt[rawChannel];
 1910              		.loc 1 1477 0
 1911 0082 201C     		add	r0, r4, #0
 1912 0084 191C     		add	r1, r3, #0
 1913 0086 FFF7FEFF 		bl	__aeabi_fdiv
 1914 008a 031C     		add	r3, r0, #0
 1915 008c FB60     		str	r3, [r7, #12]
 1916              	.L120:
1479:Generated_Source\PSoC4/engine_sensor_adc.c **** 	}
1480:Generated_Source\PSoC4/engine_sensor_adc.c **** 	return result_Volts;
 1917              		.loc 1 1480 0
 1918 008e FB68     		ldr	r3, [r7, #12]
1481:Generated_Source\PSoC4/engine_sensor_adc.c **** }
 1919              		.loc 1 1481 0
 1920 0090 181C     		add	r0, r3, #0
 1921 0092 BD46     		mov	sp, r7
 1922 0094 05B0     		add	sp, sp, #20
 1923              		@ sp needed
 1924 0096 90BD     		pop	{r4, r7, pc}
ARM GAS  C:\Users\fneves\AppData\Local\Temp\ccV5UskS.s 			page 61


 1925              	.L123:
 1926              		.align	2
 1927              	.L122:
 1928 0098 04000000 		.word	engine_sensor_adc_currentConfig
 1929 009c 00000000 		.word	engine_sensor_adc_allConfigs
 1930 00a0 00002041 		.word	1092616192
 1931 00a4 00000000 		.word	engine_sensor_adc_countsPer10Volt
 1932              		.cfi_endproc
 1933              	.LFE22:
 1934              		.size	engine_sensor_adc_CountsTo_Volts, .-engine_sensor_adc_CountsTo_Volts
 1935              		.section	.text.engine_sensor_adc_CountsTo_mVolts,"ax",%progbits
 1936              		.align	2
 1937              		.global	engine_sensor_adc_CountsTo_mVolts
 1938              		.code	16
 1939              		.thumb_func
 1940              		.type	engine_sensor_adc_CountsTo_mVolts, %function
 1941              	engine_sensor_adc_CountsTo_mVolts:
 1942              	.LFB23:
1482:Generated_Source\PSoC4/engine_sensor_adc.c **** 
1483:Generated_Source\PSoC4/engine_sensor_adc.c **** /*******************************************************************************
1484:Generated_Source\PSoC4/engine_sensor_adc.c **** * Function Name: engine_sensor_adc_CountsTo_mVolts
1485:Generated_Source\PSoC4/engine_sensor_adc.c **** ****************************************************************************//**
1486:Generated_Source\PSoC4/engine_sensor_adc.c **** *
1487:Generated_Source\PSoC4/engine_sensor_adc.c **** * \brief Converts the ADC output to millivolts as an int16. For example, if the ADC 
1488:Generated_Source\PSoC4/engine_sensor_adc.c **** * measured 0.534 volts, the return value would be 534.
1489:Generated_Source\PSoC4/engine_sensor_adc.c **** * The calculation of voltage depends on the contents of engine_sensor_adc_offset[],
1490:Generated_Source\PSoC4/engine_sensor_adc.c **** * engine_sensor_adc_countsPer10Volt[], and other parameters.  The equation used is:
1491:Generated_Source\PSoC4/engine_sensor_adc.c **** * 
1492:Generated_Source\PSoC4/engine_sensor_adc.c **** *     V = (Counts/AvgDivider - Offset)*TEN_VOLT/Gain
1493:Generated_Source\PSoC4/engine_sensor_adc.c **** * -Counts = Raw Counts from SAR register
1494:Generated_Source\PSoC4/engine_sensor_adc.c **** * -AvgDivider = divider based on averaging mode
1495:Generated_Source\PSoC4/engine_sensor_adc.c **** *     -Sequential, Sum: AvgDivider = number averaged
1496:Generated_Source\PSoC4/engine_sensor_adc.c **** *         Note: The divider should be a maximum of 16. If using more averages, 
1497:Generated_Source\PSoC4/engine_sensor_adc.c **** *         pre-scale Counts by (number averaged / 16)
1498:Generated_Source\PSoC4/engine_sensor_adc.c **** *     -Interleaved, Sum: AvgDivider = number averaged
1499:Generated_Source\PSoC4/engine_sensor_adc.c **** *     -Sequential, Fixed: AvgDivider = 1
1500:Generated_Source\PSoC4/engine_sensor_adc.c **** * -Offset = engine_sensor_adc_offset[]
1501:Generated_Source\PSoC4/engine_sensor_adc.c **** * -TEN_VOLT = 10V constant and unit scalar.
1502:Generated_Source\PSoC4/engine_sensor_adc.c **** * -Gain = engine_sensor_adc_countsPer10Volt[]
1503:Generated_Source\PSoC4/engine_sensor_adc.c **** * 
1504:Generated_Source\PSoC4/engine_sensor_adc.c **** * When the Vref is based on Vdda, the value used for Vdda is set for the project
1505:Generated_Source\PSoC4/engine_sensor_adc.c **** * in the System tab of the DWR.
1506:Generated_Source\PSoC4/engine_sensor_adc.c **** *
1507:Generated_Source\PSoC4/engine_sensor_adc.c **** * \param chan engine_sensor_adc channel number. 
1508:Generated_Source\PSoC4/engine_sensor_adc.c **** *
1509:Generated_Source\PSoC4/engine_sensor_adc.c **** * \param adcCounts Result from the engine_sensor_adc conversion.
1510:Generated_Source\PSoC4/engine_sensor_adc.c **** * 
1511:Generated_Source\PSoC4/engine_sensor_adc.c **** * \return Result in mV.
1512:Generated_Source\PSoC4/engine_sensor_adc.c **** * 
1513:Generated_Source\PSoC4/engine_sensor_adc.c **** * \sideeffect None.
1514:Generated_Source\PSoC4/engine_sensor_adc.c **** *
1515:Generated_Source\PSoC4/engine_sensor_adc.c **** * <b>Code Snippet</b>
1516:Generated_Source\PSoC4/engine_sensor_adc.c **** *  \snippet main.c snippet_engine_sensor_adc_CountsTo_mVolts
1517:Generated_Source\PSoC4/engine_sensor_adc.c **** *
1518:Generated_Source\PSoC4/engine_sensor_adc.c **** *******************************************************************************/
1519:Generated_Source\PSoC4/engine_sensor_adc.c **** int16 engine_sensor_adc_CountsTo_mVolts(uint32 chan, int16 adcCounts)
1520:Generated_Source\PSoC4/engine_sensor_adc.c **** {   
ARM GAS  C:\Users\fneves\AppData\Local\Temp\ccV5UskS.s 			page 62


 1943              		.loc 1 1520 0
 1944              		.cfi_startproc
 1945 0000 90B5     		push	{r4, r7, lr}
 1946              		.cfi_def_cfa_offset 12
 1947              		.cfi_offset 4, -12
 1948              		.cfi_offset 7, -8
 1949              		.cfi_offset 14, -4
 1950 0002 85B0     		sub	sp, sp, #20
 1951              		.cfi_def_cfa_offset 32
 1952 0004 00AF     		add	r7, sp, #0
 1953              		.cfi_def_cfa_register 7
 1954 0006 7860     		str	r0, [r7, #4]
 1955 0008 0A1C     		mov	r2, r1
 1956 000a BB1C     		add	r3, r7, #2
 1957 000c 1A80     		strh	r2, [r3]
1521:Generated_Source\PSoC4/engine_sensor_adc.c ****     int16 result_mVolts = 0;
 1958              		.loc 1 1521 0
 1959 000e 0E23     		mov	r3, #14
 1960 0010 FB18     		add	r3, r7, r3
 1961 0012 0022     		mov	r2, #0
 1962 0014 1A80     		strh	r2, [r3]
1522:Generated_Source\PSoC4/engine_sensor_adc.c **** 	uint32 rawChannel;
1523:Generated_Source\PSoC4/engine_sensor_adc.c ****     
1524:Generated_Source\PSoC4/engine_sensor_adc.c **** 	rawChannel = engine_sensor_adc_allConfigs[engine_sensor_adc_currentConfig].channelBase + chan;
 1963              		.loc 1 1524 0
 1964 0016 2A4B     		ldr	r3, .L131
 1965 0018 1A68     		ldr	r2, [r3]
 1966 001a 2A49     		ldr	r1, .L131+4
 1967 001c 131C     		mov	r3, r2
 1968 001e DB00     		lsl	r3, r3, #3
 1969 0020 9B1A     		sub	r3, r3, r2
 1970 0022 DB00     		lsl	r3, r3, #3
 1971 0024 5A58     		ldr	r2, [r3, r1]
 1972 0026 7B68     		ldr	r3, [r7, #4]
 1973 0028 D318     		add	r3, r2, r3
 1974 002a BB60     		str	r3, [r7, #8]
1525:Generated_Source\PSoC4/engine_sensor_adc.c **** 	
1526:Generated_Source\PSoC4/engine_sensor_adc.c **** 	if((engine_sensor_adc_allConfigs[engine_sensor_adc_currentConfig].sampleCtrl 
 1975              		.loc 1 1526 0
 1976 002c 244B     		ldr	r3, .L131
 1977 002e 1A68     		ldr	r2, [r3]
 1978 0030 2449     		ldr	r1, .L131+4
 1979 0032 131C     		mov	r3, r2
 1980 0034 DB00     		lsl	r3, r3, #3
 1981 0036 9B1A     		sub	r3, r3, r2
 1982 0038 DB00     		lsl	r3, r3, #3
 1983 003a CB18     		add	r3, r1, r3
 1984 003c 0833     		add	r3, r3, #8
 1985 003e 5B68     		ldr	r3, [r3, #4]
1527:Generated_Source\PSoC4/engine_sensor_adc.c **** 		& engine_sensor_adc_SAR_SAMPLE_CTRL_LEFT_ALIGN_MSK) 
 1986              		.loc 1 1527 0
 1987 0040 0222     		mov	r2, #2
 1988 0042 1340     		and	r3, r2
1526:Generated_Source\PSoC4/engine_sensor_adc.c **** 		& engine_sensor_adc_SAR_SAMPLE_CTRL_LEFT_ALIGN_MSK) 
 1989              		.loc 1 1526 0
 1990 0044 34D1     		bne	.L125
1528:Generated_Source\PSoC4/engine_sensor_adc.c **** 		!= engine_sensor_adc_SAR_SAMPLE_CTRL_LEFT_ALIGN_MSK)
ARM GAS  C:\Users\fneves\AppData\Local\Temp\ccV5UskS.s 			page 63


1529:Generated_Source\PSoC4/engine_sensor_adc.c **** 	{
1530:Generated_Source\PSoC4/engine_sensor_adc.c ****         adcCounts = engine_sensor_adc_RawCounts2Counts(chan, adcCounts);
 1991              		.loc 1 1530 0
 1992 0046 BC1C     		add	r4, r7, #2
 1993 0048 7A68     		ldr	r2, [r7, #4]
 1994 004a BB1C     		add	r3, r7, #2
 1995 004c 0021     		mov	r1, #0
 1996 004e 5B5E     		ldrsh	r3, [r3, r1]
 1997 0050 101C     		mov	r0, r2
 1998 0052 191C     		mov	r1, r3
 1999 0054 FFF7FEFF 		bl	engine_sensor_adc_RawCounts2Counts
 2000 0058 031C     		mov	r3, r0
 2001 005a 2380     		strh	r3, [r4]
1531:Generated_Source\PSoC4/engine_sensor_adc.c **** 
1532:Generated_Source\PSoC4/engine_sensor_adc.c **** 	    result_mVolts = (int16)((((int32)adcCounts * engine_sensor_adc_10MV_COUNTS) + ( (adcCounts > 0
 2002              		.loc 1 1532 0
 2003 005c BB1C     		add	r3, r7, #2
 2004 005e 0022     		mov	r2, #0
 2005 0060 9B5E     		ldrsh	r3, [r3, r2]
 2006 0062 194A     		ldr	r2, .L131+8
 2007 0064 5A43     		mul	r2, r3
1533:Generated_Source\PSoC4/engine_sensor_adc.c **** 	             (engine_sensor_adc_countsPer10Volt[rawChannel] / 2) 
1534:Generated_Source\PSoC4/engine_sensor_adc.c **** 				: (-(engine_sensor_adc_countsPer10Volt[rawChannel] / 2)) )) 
 2008              		.loc 1 1534 0
 2009 0066 BB1C     		add	r3, r7, #2
 2010 0068 0021     		mov	r1, #0
 2011 006a 5B5E     		ldrsh	r3, [r3, r1]
 2012 006c 002B     		cmp	r3, #0
 2013 006e 08DD     		ble	.L126
1533:Generated_Source\PSoC4/engine_sensor_adc.c **** 	             (engine_sensor_adc_countsPer10Volt[rawChannel] / 2) 
 2014              		.loc 1 1533 0 discriminator 1
 2015 0070 164B     		ldr	r3, .L131+12
 2016 0072 B968     		ldr	r1, [r7, #8]
 2017 0074 8900     		lsl	r1, r1, #2
 2018 0076 CB58     		ldr	r3, [r1, r3]
 2019              		.loc 1 1534 0 discriminator 1
 2020 0078 002B     		cmp	r3, #0
 2021 007a 00DA     		bge	.L127
 2022 007c 0133     		add	r3, r3, #1
 2023              	.L127:
 2024 007e 5B10     		asr	r3, r3, #1
 2025 0080 08E0     		b	.L128
 2026              	.L126:
 2027              		.loc 1 1534 0 is_stmt 0 discriminator 2
 2028 0082 124B     		ldr	r3, .L131+12
 2029 0084 B968     		ldr	r1, [r7, #8]
 2030 0086 8900     		lsl	r1, r1, #2
 2031 0088 CB58     		ldr	r3, [r1, r3]
 2032 008a 002B     		cmp	r3, #0
 2033 008c 00DA     		bge	.L129
 2034 008e 0133     		add	r3, r3, #1
 2035              	.L129:
 2036 0090 5B10     		asr	r3, r3, #1
 2037 0092 5B42     		neg	r3, r3
 2038              	.L128:
1532:Generated_Source\PSoC4/engine_sensor_adc.c **** 	             (engine_sensor_adc_countsPer10Volt[rawChannel] / 2) 
 2039              		.loc 1 1532 0 is_stmt 1
ARM GAS  C:\Users\fneves\AppData\Local\Temp\ccV5UskS.s 			page 64


 2040 0094 D118     		add	r1, r2, r3
1535:Generated_Source\PSoC4/engine_sensor_adc.c **** 	             / engine_sensor_adc_countsPer10Volt[rawChannel]);
 2041              		.loc 1 1535 0
 2042 0096 0D4B     		ldr	r3, .L131+12
 2043 0098 BA68     		ldr	r2, [r7, #8]
 2044 009a 9200     		lsl	r2, r2, #2
 2045 009c D358     		ldr	r3, [r2, r3]
 2046 009e 081C     		mov	r0, r1
 2047 00a0 191C     		mov	r1, r3
 2048 00a2 FFF7FEFF 		bl	__aeabi_idiv
 2049 00a6 031C     		mov	r3, r0
 2050 00a8 1A1C     		mov	r2, r3
1532:Generated_Source\PSoC4/engine_sensor_adc.c **** 	             (engine_sensor_adc_countsPer10Volt[rawChannel] / 2) 
 2051              		.loc 1 1532 0
 2052 00aa 0E23     		mov	r3, #14
 2053 00ac FB18     		add	r3, r7, r3
 2054 00ae 1A80     		strh	r2, [r3]
 2055              	.L125:
1536:Generated_Source\PSoC4/engine_sensor_adc.c **** 	}
1537:Generated_Source\PSoC4/engine_sensor_adc.c ****     return result_mVolts;
 2056              		.loc 1 1537 0
 2057 00b0 0E23     		mov	r3, #14
 2058 00b2 FB18     		add	r3, r7, r3
 2059 00b4 1B88     		ldrh	r3, [r3]
 2060 00b6 1BB2     		sxth	r3, r3
1538:Generated_Source\PSoC4/engine_sensor_adc.c **** }
 2061              		.loc 1 1538 0
 2062 00b8 181C     		mov	r0, r3
 2063 00ba BD46     		mov	sp, r7
 2064 00bc 05B0     		add	sp, sp, #20
 2065              		@ sp needed
 2066 00be 90BD     		pop	{r4, r7, pc}
 2067              	.L132:
 2068              		.align	2
 2069              	.L131:
 2070 00c0 04000000 		.word	engine_sensor_adc_currentConfig
 2071 00c4 00000000 		.word	engine_sensor_adc_allConfigs
 2072 00c8 10270000 		.word	10000
 2073 00cc 00000000 		.word	engine_sensor_adc_countsPer10Volt
 2074              		.cfi_endproc
 2075              	.LFE23:
 2076              		.size	engine_sensor_adc_CountsTo_mVolts, .-engine_sensor_adc_CountsTo_mVolts
 2077              		.global	__aeabi_lmul
 2078              		.global	__aeabi_ldivmod
 2079              		.section	.text.engine_sensor_adc_CountsTo_uVolts,"ax",%progbits
 2080              		.align	2
 2081              		.global	engine_sensor_adc_CountsTo_uVolts
 2082              		.code	16
 2083              		.thumb_func
 2084              		.type	engine_sensor_adc_CountsTo_uVolts, %function
 2085              	engine_sensor_adc_CountsTo_uVolts:
 2086              	.LFB24:
1539:Generated_Source\PSoC4/engine_sensor_adc.c **** 
1540:Generated_Source\PSoC4/engine_sensor_adc.c **** /*******************************************************************************
1541:Generated_Source\PSoC4/engine_sensor_adc.c **** * Function Name: engine_sensor_adc_CountsTo_uVolts
1542:Generated_Source\PSoC4/engine_sensor_adc.c **** ****************************************************************************//**
1543:Generated_Source\PSoC4/engine_sensor_adc.c **** *
