ARM GAS  C:\Users\fneves\AppData\Local\Temp\cczXlcTP.s 			page 1


   1              		.cpu cortex-m0plus
   2              		.fpu softvfp
   3              		.eabi_attribute 20, 1
   4              		.eabi_attribute 21, 1
   5              		.eabi_attribute 23, 3
   6              		.eabi_attribute 24, 1
   7              		.eabi_attribute 25, 1
   8              		.eabi_attribute 26, 1
   9              		.eabi_attribute 30, 6
  10              		.eabi_attribute 34, 0
  11              		.eabi_attribute 18, 4
  12              		.code	16
  13              		.file	"engine_sensor_pga_PM.c"
  14              		.text
  15              	.Ltext0:
  16              		.cfi_sections	.debug_frame
  17              		.section	.text.engine_sensor_pga_SaveConfig,"ax",%progbits
  18              		.align	2
  19              		.global	engine_sensor_pga_SaveConfig
  20              		.code	16
  21              		.thumb_func
  22              		.type	engine_sensor_pga_SaveConfig, %function
  23              	engine_sensor_pga_SaveConfig:
  24              	.LFB0:
  25              		.file 1 "Generated_Source\\PSoC4\\engine_sensor_pga_PM.c"
   1:Generated_Source\PSoC4/engine_sensor_pga_PM.c **** /***************************************************************************//**
   2:Generated_Source\PSoC4/engine_sensor_pga_PM.c **** * \file     engine_sensor_pga_PM.c  
   3:Generated_Source\PSoC4/engine_sensor_pga_PM.c **** * \version  1.0
   4:Generated_Source\PSoC4/engine_sensor_pga_PM.c **** *
   5:Generated_Source\PSoC4/engine_sensor_pga_PM.c **** * \brief
   6:Generated_Source\PSoC4/engine_sensor_pga_PM.c **** *  This file provides the power management source code to the API for PGA_P4 
   7:Generated_Source\PSoC4/engine_sensor_pga_PM.c **** *  Component.
   8:Generated_Source\PSoC4/engine_sensor_pga_PM.c **** *
   9:Generated_Source\PSoC4/engine_sensor_pga_PM.c **** ********************************************************************************
  10:Generated_Source\PSoC4/engine_sensor_pga_PM.c **** * \copyright
  11:Generated_Source\PSoC4/engine_sensor_pga_PM.c **** * Copyright 2016, Cypress Semiconductor Corporation.  All rights reserved.
  12:Generated_Source\PSoC4/engine_sensor_pga_PM.c **** * You may use this file only in accordance with the license, terms, conditions,
  13:Generated_Source\PSoC4/engine_sensor_pga_PM.c **** * disclaimers, and limitations in the end user license agreement accompanying
  14:Generated_Source\PSoC4/engine_sensor_pga_PM.c **** * the software package with which this file was provided.
  15:Generated_Source\PSoC4/engine_sensor_pga_PM.c **** *******************************************************************************/
  16:Generated_Source\PSoC4/engine_sensor_pga_PM.c **** 
  17:Generated_Source\PSoC4/engine_sensor_pga_PM.c **** #include "engine_sensor_pga_PVT.h"
  18:Generated_Source\PSoC4/engine_sensor_pga_PM.c **** 
  19:Generated_Source\PSoC4/engine_sensor_pga_PM.c **** 
  20:Generated_Source\PSoC4/engine_sensor_pga_PM.c **** /*******************************************************************************
  21:Generated_Source\PSoC4/engine_sensor_pga_PM.c **** * Function Name: engine_sensor_pga_SaveConfig
  22:Generated_Source\PSoC4/engine_sensor_pga_PM.c **** ****************************************************************************//**
  23:Generated_Source\PSoC4/engine_sensor_pga_PM.c **** *
  24:Generated_Source\PSoC4/engine_sensor_pga_PM.c **** *  Empty function. Included for consistency with other components.
  25:Generated_Source\PSoC4/engine_sensor_pga_PM.c **** *
  26:Generated_Source\PSoC4/engine_sensor_pga_PM.c **** *******************************************************************************/
  27:Generated_Source\PSoC4/engine_sensor_pga_PM.c **** void engine_sensor_pga_SaveConfig(void)
  28:Generated_Source\PSoC4/engine_sensor_pga_PM.c **** {
  26              		.loc 1 28 0
  27              		.cfi_startproc
  28 0000 80B5     		push	{r7, lr}
  29              		.cfi_def_cfa_offset 8
ARM GAS  C:\Users\fneves\AppData\Local\Temp\cczXlcTP.s 			page 2


  30              		.cfi_offset 7, -8
  31              		.cfi_offset 14, -4
  32 0002 00AF     		add	r7, sp, #0
  33              		.cfi_def_cfa_register 7
  29:Generated_Source\PSoC4/engine_sensor_pga_PM.c ****     /* Nothing to save as registers are System reset on retention flops */
  30:Generated_Source\PSoC4/engine_sensor_pga_PM.c **** }
  34              		.loc 1 30 0
  35 0004 BD46     		mov	sp, r7
  36              		@ sp needed
  37 0006 80BD     		pop	{r7, pc}
  38              		.cfi_endproc
  39              	.LFE0:
  40              		.size	engine_sensor_pga_SaveConfig, .-engine_sensor_pga_SaveConfig
  41              		.section	.text.engine_sensor_pga_RestoreConfig,"ax",%progbits
  42              		.align	2
  43              		.global	engine_sensor_pga_RestoreConfig
  44              		.code	16
  45              		.thumb_func
  46              		.type	engine_sensor_pga_RestoreConfig, %function
  47              	engine_sensor_pga_RestoreConfig:
  48              	.LFB1:
  31:Generated_Source\PSoC4/engine_sensor_pga_PM.c **** 
  32:Generated_Source\PSoC4/engine_sensor_pga_PM.c **** 
  33:Generated_Source\PSoC4/engine_sensor_pga_PM.c **** /*******************************************************************************  
  34:Generated_Source\PSoC4/engine_sensor_pga_PM.c **** * Function Name: engine_sensor_pga_RestoreConfig
  35:Generated_Source\PSoC4/engine_sensor_pga_PM.c **** ****************************************************************************//**
  36:Generated_Source\PSoC4/engine_sensor_pga_PM.c **** *
  37:Generated_Source\PSoC4/engine_sensor_pga_PM.c **** *  Empty function. Included for consistency with other components.
  38:Generated_Source\PSoC4/engine_sensor_pga_PM.c **** *
  39:Generated_Source\PSoC4/engine_sensor_pga_PM.c **** *******************************************************************************/
  40:Generated_Source\PSoC4/engine_sensor_pga_PM.c **** void engine_sensor_pga_RestoreConfig(void)
  41:Generated_Source\PSoC4/engine_sensor_pga_PM.c **** {
  49              		.loc 1 41 0
  50              		.cfi_startproc
  51 0000 80B5     		push	{r7, lr}
  52              		.cfi_def_cfa_offset 8
  53              		.cfi_offset 7, -8
  54              		.cfi_offset 14, -4
  55 0002 00AF     		add	r7, sp, #0
  56              		.cfi_def_cfa_register 7
  42:Generated_Source\PSoC4/engine_sensor_pga_PM.c ****     /* Nothing to restore */
  43:Generated_Source\PSoC4/engine_sensor_pga_PM.c **** }
  57              		.loc 1 43 0
  58 0004 BD46     		mov	sp, r7
  59              		@ sp needed
  60 0006 80BD     		pop	{r7, pc}
  61              		.cfi_endproc
  62              	.LFE1:
  63              		.size	engine_sensor_pga_RestoreConfig, .-engine_sensor_pga_RestoreConfig
  64              		.section	.text.engine_sensor_pga_Sleep,"ax",%progbits
  65              		.align	2
  66              		.global	engine_sensor_pga_Sleep
  67              		.code	16
  68              		.thumb_func
  69              		.type	engine_sensor_pga_Sleep, %function
  70              	engine_sensor_pga_Sleep:
  71              	.LFB2:
ARM GAS  C:\Users\fneves\AppData\Local\Temp\cczXlcTP.s 			page 3


  44:Generated_Source\PSoC4/engine_sensor_pga_PM.c **** 
  45:Generated_Source\PSoC4/engine_sensor_pga_PM.c **** 
  46:Generated_Source\PSoC4/engine_sensor_pga_PM.c **** /*******************************************************************************   
  47:Generated_Source\PSoC4/engine_sensor_pga_PM.c **** * Function Name: engine_sensor_pga_Sleep
  48:Generated_Source\PSoC4/engine_sensor_pga_PM.c **** ****************************************************************************//**
  49:Generated_Source\PSoC4/engine_sensor_pga_PM.c **** *
  50:Generated_Source\PSoC4/engine_sensor_pga_PM.c **** *  When the "Deep sleep operation" is disabled then the function disables 
  51:Generated_Source\PSoC4/engine_sensor_pga_PM.c **** *  component's operation and saves its configuration. Should be called 
  52:Generated_Source\PSoC4/engine_sensor_pga_PM.c **** *  just prior to entering sleep.
  53:Generated_Source\PSoC4/engine_sensor_pga_PM.c **** *  When the "Deep sleep operation" is enabled then the function does nothing
  54:Generated_Source\PSoC4/engine_sensor_pga_PM.c **** *  and the component continues to operate during Deep Sleep state.
  55:Generated_Source\PSoC4/engine_sensor_pga_PM.c **** *
  56:Generated_Source\PSoC4/engine_sensor_pga_PM.c **** *  \internal
  57:Generated_Source\PSoC4/engine_sensor_pga_PM.c **** *   The engine_sensor_pga_backup.enableState is modified 
  58:Generated_Source\PSoC4/engine_sensor_pga_PM.c **** *   depending on the enable state of the block before entering to sleep mode.
  59:Generated_Source\PSoC4/engine_sensor_pga_PM.c **** *
  60:Generated_Source\PSoC4/engine_sensor_pga_PM.c **** *******************************************************************************/
  61:Generated_Source\PSoC4/engine_sensor_pga_PM.c **** void engine_sensor_pga_Sleep(void)
  62:Generated_Source\PSoC4/engine_sensor_pga_PM.c **** {
  72              		.loc 1 62 0
  73              		.cfi_startproc
  74 0000 80B5     		push	{r7, lr}
  75              		.cfi_def_cfa_offset 8
  76              		.cfi_offset 7, -8
  77              		.cfi_offset 14, -4
  78 0002 00AF     		add	r7, sp, #0
  79              		.cfi_def_cfa_register 7
  63:Generated_Source\PSoC4/engine_sensor_pga_PM.c ****     #if(!engine_sensor_pga_CHECK_DEEPSLEEP_SUPPORT)
  64:Generated_Source\PSoC4/engine_sensor_pga_PM.c ****         if((engine_sensor_pga_OA_RES_CTRL_REG & engine_sensor_pga_OA_PWR_MODE_MASK) != 0u)
  80              		.loc 1 64 0
  81 0004 0C4B     		ldr	r3, .L6
  82 0006 1B68     		ldr	r3, [r3]
  83 0008 0322     		mov	r2, #3
  84 000a 1340     		and	r3, r2
  85 000c 09D0     		beq	.L4
  65:Generated_Source\PSoC4/engine_sensor_pga_PM.c ****         {
  66:Generated_Source\PSoC4/engine_sensor_pga_PM.c ****             engine_sensor_pga_internalGainPower |= engine_sensor_pga_ENABLED;
  86              		.loc 1 66 0
  87 000e 0B4B     		ldr	r3, .L6+4
  88 0010 1B68     		ldr	r3, [r3]
  89 0012 8022     		mov	r2, #128
  90 0014 1206     		lsl	r2, r2, #24
  91 0016 1A43     		orr	r2, r3
  92 0018 084B     		ldr	r3, .L6+4
  93 001a 1A60     		str	r2, [r3]
  67:Generated_Source\PSoC4/engine_sensor_pga_PM.c ****             engine_sensor_pga_Stop();
  94              		.loc 1 67 0
  95 001c FFF7FEFF 		bl	engine_sensor_pga_Stop
  96 0020 05E0     		b	.L5
  97              	.L4:
  68:Generated_Source\PSoC4/engine_sensor_pga_PM.c ****         }
  69:Generated_Source\PSoC4/engine_sensor_pga_PM.c ****         else /* The component is disabled */
  70:Generated_Source\PSoC4/engine_sensor_pga_PM.c ****         {
  71:Generated_Source\PSoC4/engine_sensor_pga_PM.c ****             engine_sensor_pga_internalGainPower &= (uint32) ~engine_sensor_pga_ENABLED;
  98              		.loc 1 71 0
  99 0022 064B     		ldr	r3, .L6+4
 100 0024 1B68     		ldr	r3, [r3]
ARM GAS  C:\Users\fneves\AppData\Local\Temp\cczXlcTP.s 			page 4


 101 0026 5B00     		lsl	r3, r3, #1
 102 0028 5A08     		lsr	r2, r3, #1
 103 002a 044B     		ldr	r3, .L6+4
 104 002c 1A60     		str	r2, [r3]
 105              	.L5:
  72:Generated_Source\PSoC4/engine_sensor_pga_PM.c ****         }
  73:Generated_Source\PSoC4/engine_sensor_pga_PM.c ****         /* Save the configuration */
  74:Generated_Source\PSoC4/engine_sensor_pga_PM.c ****         engine_sensor_pga_SaveConfig();
 106              		.loc 1 74 0
 107 002e FFF7FEFF 		bl	engine_sensor_pga_SaveConfig
  75:Generated_Source\PSoC4/engine_sensor_pga_PM.c ****     #endif /* (engine_sensor_pga_CHECK_DEEPSLEEP_SUPPORT) */
  76:Generated_Source\PSoC4/engine_sensor_pga_PM.c **** }
 108              		.loc 1 76 0
 109 0032 BD46     		mov	sp, r7
 110              		@ sp needed
 111 0034 80BD     		pop	{r7, pc}
 112              	.L7:
 113 0036 C046     		.align	2
 114              	.L6:
 115 0038 04003140 		.word	1076953092
 116 003c 00000000 		.word	engine_sensor_pga_internalGainPower
 117              		.cfi_endproc
 118              	.LFE2:
 119              		.size	engine_sensor_pga_Sleep, .-engine_sensor_pga_Sleep
 120              		.section	.text.engine_sensor_pga_Wakeup,"ax",%progbits
 121              		.align	2
 122              		.global	engine_sensor_pga_Wakeup
 123              		.code	16
 124              		.thumb_func
 125              		.type	engine_sensor_pga_Wakeup, %function
 126              	engine_sensor_pga_Wakeup:
 127              	.LFB3:
  77:Generated_Source\PSoC4/engine_sensor_pga_PM.c **** 
  78:Generated_Source\PSoC4/engine_sensor_pga_PM.c **** 
  79:Generated_Source\PSoC4/engine_sensor_pga_PM.c **** /*******************************************************************************
  80:Generated_Source\PSoC4/engine_sensor_pga_PM.c **** * Function Name: engine_sensor_pga_Wakeup
  81:Generated_Source\PSoC4/engine_sensor_pga_PM.c **** ****************************************************************************//**
  82:Generated_Source\PSoC4/engine_sensor_pga_PM.c **** *
  83:Generated_Source\PSoC4/engine_sensor_pga_PM.c **** *  When the "Deep sleep operation" is disabled then the function enables
  84:Generated_Source\PSoC4/engine_sensor_pga_PM.c **** *  block's operation and restores its configuration. Should be called
  85:Generated_Source\PSoC4/engine_sensor_pga_PM.c **** *  just after awaking from sleep.
  86:Generated_Source\PSoC4/engine_sensor_pga_PM.c **** *  When the "Deep sleep operation" is enabled then the function does nothing
  87:Generated_Source\PSoC4/engine_sensor_pga_PM.c **** *  and the component continues to operate during Active state.
  88:Generated_Source\PSoC4/engine_sensor_pga_PM.c **** *
  89:Generated_Source\PSoC4/engine_sensor_pga_PM.c **** *  \internal
  90:Generated_Source\PSoC4/engine_sensor_pga_PM.c **** *   The engine_sensor_pga_backup.enableState is used to 
  91:Generated_Source\PSoC4/engine_sensor_pga_PM.c **** *   restore the enable state of block after wakeup from sleep mode.
  92:Generated_Source\PSoC4/engine_sensor_pga_PM.c **** * 
  93:Generated_Source\PSoC4/engine_sensor_pga_PM.c **** *******************************************************************************/
  94:Generated_Source\PSoC4/engine_sensor_pga_PM.c **** void engine_sensor_pga_Wakeup(void)
  95:Generated_Source\PSoC4/engine_sensor_pga_PM.c **** {
 128              		.loc 1 95 0
 129              		.cfi_startproc
 130 0000 80B5     		push	{r7, lr}
 131              		.cfi_def_cfa_offset 8
 132              		.cfi_offset 7, -8
 133              		.cfi_offset 14, -4
ARM GAS  C:\Users\fneves\AppData\Local\Temp\cczXlcTP.s 			page 5


 134 0002 00AF     		add	r7, sp, #0
 135              		.cfi_def_cfa_register 7
  96:Generated_Source\PSoC4/engine_sensor_pga_PM.c ****     #if(!engine_sensor_pga_CHECK_DEEPSLEEP_SUPPORT)
  97:Generated_Source\PSoC4/engine_sensor_pga_PM.c ****         /* Restore the configurations */
  98:Generated_Source\PSoC4/engine_sensor_pga_PM.c ****         engine_sensor_pga_RestoreConfig();
 136              		.loc 1 98 0
 137 0004 FFF7FEFF 		bl	engine_sensor_pga_RestoreConfig
  99:Generated_Source\PSoC4/engine_sensor_pga_PM.c ****         /* Enables the component operation */
 100:Generated_Source\PSoC4/engine_sensor_pga_PM.c ****         if((engine_sensor_pga_internalGainPower & engine_sensor_pga_ENABLED) != 0u)
 138              		.loc 1 100 0
 139 0008 034B     		ldr	r3, .L10
 140 000a 1B68     		ldr	r3, [r3]
 141 000c 002B     		cmp	r3, #0
 142 000e 01DA     		bge	.L8
 101:Generated_Source\PSoC4/engine_sensor_pga_PM.c ****         {
 102:Generated_Source\PSoC4/engine_sensor_pga_PM.c ****             engine_sensor_pga_Enable();
 143              		.loc 1 102 0
 144 0010 FFF7FEFF 		bl	engine_sensor_pga_Enable
 145              	.L8:
 103:Generated_Source\PSoC4/engine_sensor_pga_PM.c ****         } /* Do nothing if component was disabled before */
 104:Generated_Source\PSoC4/engine_sensor_pga_PM.c ****     #endif /* (engine_sensor_pga_CHECK_DEEPSLEEP_SUPPORT) */
 105:Generated_Source\PSoC4/engine_sensor_pga_PM.c **** }
 146              		.loc 1 105 0
 147 0014 BD46     		mov	sp, r7
 148              		@ sp needed
 149 0016 80BD     		pop	{r7, pc}
 150              	.L11:
 151              		.align	2
 152              	.L10:
 153 0018 00000000 		.word	engine_sensor_pga_internalGainPower
 154              		.cfi_endproc
 155              	.LFE3:
 156              		.size	engine_sensor_pga_Wakeup, .-engine_sensor_pga_Wakeup
 157              		.text
 158              	.Letext0:
 159              		.file 2 "Generated_Source\\PSoC4\\cytypes.h"
 160              		.file 3 "Generated_Source\\PSoC4\\engine_sensor_pga_PVT.h"