ARM GAS  C:\Users\fneves\AppData\Local\Temp\ccgwTJi7.s 			page 1


   1              		.cpu cortex-m0plus
   2              		.fpu softvfp
   3              		.eabi_attribute 20, 1
   4              		.eabi_attribute 21, 1
   5              		.eabi_attribute 23, 3
   6              		.eabi_attribute 24, 1
   7              		.eabi_attribute 25, 1
   8              		.eabi_attribute 26, 1
   9              		.eabi_attribute 30, 6
  10              		.eabi_attribute 34, 0
  11              		.eabi_attribute 18, 4
  12              		.code	16
  13              		.file	"engine_sensor_ref_PM.c"
  14              		.text
  15              	.Ltext0:
  16              		.cfi_sections	.debug_frame
  17              		.bss
  18              		.align	2
  19              	engine_sensor_ref_backup:
  20 0000 00       		.space	1
  21 0001 000000   		.section	.text.engine_sensor_ref_Sleep,"ax",%progbits
  22              		.align	2
  23              		.global	engine_sensor_ref_Sleep
  24              		.code	16
  25              		.thumb_func
  26              		.type	engine_sensor_ref_Sleep, %function
  27              	engine_sensor_ref_Sleep:
  28              	.LFB0:
  29              		.file 1 "Generated_Source\\PSoC4\\engine_sensor_ref_PM.c"
   1:Generated_Source\PSoC4/engine_sensor_ref_PM.c **** /***************************************************************************//**
   2:Generated_Source\PSoC4/engine_sensor_ref_PM.c **** * \file engine_sensor_ref_PM.c
   3:Generated_Source\PSoC4/engine_sensor_ref_PM.c **** * \version 1.0
   4:Generated_Source\PSoC4/engine_sensor_ref_PM.c **** *
   5:Generated_Source\PSoC4/engine_sensor_ref_PM.c **** * \brief
   6:Generated_Source\PSoC4/engine_sensor_ref_PM.c **** *  This file provides the API source code for Power Management of the
   7:Generated_Source\PSoC4/engine_sensor_ref_PM.c **** *  Programmable Voltage Reference component.
   8:Generated_Source\PSoC4/engine_sensor_ref_PM.c **** *
   9:Generated_Source\PSoC4/engine_sensor_ref_PM.c **** * Note:
  10:Generated_Source\PSoC4/engine_sensor_ref_PM.c **** *  None
  11:Generated_Source\PSoC4/engine_sensor_ref_PM.c **** *
  12:Generated_Source\PSoC4/engine_sensor_ref_PM.c **** ********************************************************************************
  13:Generated_Source\PSoC4/engine_sensor_ref_PM.c **** * \copyright
  14:Generated_Source\PSoC4/engine_sensor_ref_PM.c **** * Copyright 2016, Cypress Semiconductor Corporation. All rights reserved.
  15:Generated_Source\PSoC4/engine_sensor_ref_PM.c **** * You may use this file only in accordance with the license, terms, conditions,
  16:Generated_Source\PSoC4/engine_sensor_ref_PM.c **** * disclaimers, and limitations in the end user license agreement accompanying
  17:Generated_Source\PSoC4/engine_sensor_ref_PM.c **** * the software package with which this file was provided.
  18:Generated_Source\PSoC4/engine_sensor_ref_PM.c **** *******************************************************************************/
  19:Generated_Source\PSoC4/engine_sensor_ref_PM.c **** 
  20:Generated_Source\PSoC4/engine_sensor_ref_PM.c **** #include "engine_sensor_ref.h"
  21:Generated_Source\PSoC4/engine_sensor_ref_PM.c **** 
  22:Generated_Source\PSoC4/engine_sensor_ref_PM.c **** static engine_sensor_ref_backup_struct engine_sensor_ref_backup = {0u};
  23:Generated_Source\PSoC4/engine_sensor_ref_PM.c **** 
  24:Generated_Source\PSoC4/engine_sensor_ref_PM.c **** 
  25:Generated_Source\PSoC4/engine_sensor_ref_PM.c **** /*******************************************************************************
  26:Generated_Source\PSoC4/engine_sensor_ref_PM.c **** * Function Name: engine_sensor_ref_Sleep
  27:Generated_Source\PSoC4/engine_sensor_ref_PM.c **** ****************************************************************************//**
  28:Generated_Source\PSoC4/engine_sensor_ref_PM.c **** *
ARM GAS  C:\Users\fneves\AppData\Local\Temp\ccgwTJi7.s 			page 2


  29:Generated_Source\PSoC4/engine_sensor_ref_PM.c **** *  Prepares the component to enter Sleep mode.
  30:Generated_Source\PSoC4/engine_sensor_ref_PM.c **** *  If the reference is based on Vdda, the function will open the switch at the
  31:Generated_Source\PSoC4/engine_sensor_ref_PM.c **** *  bottom of the resistor tree to eliminate the current flow through the
  32:Generated_Source\PSoC4/engine_sensor_ref_PM.c **** *  resistor. If the reference is based on the bandgap, this function will do
  33:Generated_Source\PSoC4/engine_sensor_ref_PM.c **** *  nothing.
  34:Generated_Source\PSoC4/engine_sensor_ref_PM.c **** *
  35:Generated_Source\PSoC4/engine_sensor_ref_PM.c **** * \sideeffect
  36:Generated_Source\PSoC4/engine_sensor_ref_PM.c **** *  If the reference is based on Vdda, it will affect all Vdda-based references
  37:Generated_Source\PSoC4/engine_sensor_ref_PM.c **** *  because they share the same resistor tree.
  38:Generated_Source\PSoC4/engine_sensor_ref_PM.c **** *
  39:Generated_Source\PSoC4/engine_sensor_ref_PM.c **** *******************************************************************************/
  40:Generated_Source\PSoC4/engine_sensor_ref_PM.c **** void engine_sensor_ref_Sleep(void)
  41:Generated_Source\PSoC4/engine_sensor_ref_PM.c **** {
  30              		.loc 1 41 0
  31              		.cfi_startproc
  32 0000 80B5     		push	{r7, lr}
  33              		.cfi_def_cfa_offset 8
  34              		.cfi_offset 7, -8
  35              		.cfi_offset 14, -4
  36 0002 00AF     		add	r7, sp, #0
  37              		.cfi_def_cfa_register 7
  42:Generated_Source\PSoC4/engine_sensor_ref_PM.c ****     if (0u != (engine_sensor_ref_PRB_REF_REG & engine_sensor_ref_VREF_SUPPLY_SEL))
  38              		.loc 1 42 0
  39 0004 094B     		ldr	r3, .L4
  40 0006 1B68     		ldr	r3, [r3]
  41 0008 0222     		mov	r2, #2
  42 000a 1340     		and	r3, r2
  43 000c 09D0     		beq	.L2
  43:Generated_Source\PSoC4/engine_sensor_ref_PM.c ****     {
  44:Generated_Source\PSoC4/engine_sensor_ref_PM.c ****         engine_sensor_ref_PRB_CTRL_REG &= ~engine_sensor_ref_VDDA_ENABLE;
  44              		.loc 1 44 0
  45 000e 084B     		ldr	r3, .L4+4
  46 0010 074A     		ldr	r2, .L4+4
  47 0012 1268     		ldr	r2, [r2]
  48 0014 1021     		mov	r1, #16
  49 0016 8A43     		bic	r2, r1
  50 0018 1A60     		str	r2, [r3]
  45:Generated_Source\PSoC4/engine_sensor_ref_PM.c ****         engine_sensor_ref_backup.enableState = 1u;
  51              		.loc 1 45 0
  52 001a 064B     		ldr	r3, .L4+8
  53 001c 0122     		mov	r2, #1
  54 001e 1A70     		strb	r2, [r3]
  55 0020 02E0     		b	.L1
  56              	.L2:
  46:Generated_Source\PSoC4/engine_sensor_ref_PM.c ****     }
  47:Generated_Source\PSoC4/engine_sensor_ref_PM.c ****     else /* The reference is based on the bandgap */
  48:Generated_Source\PSoC4/engine_sensor_ref_PM.c ****     {
  49:Generated_Source\PSoC4/engine_sensor_ref_PM.c ****         engine_sensor_ref_backup.enableState = 0u;
  57              		.loc 1 49 0
  58 0022 044B     		ldr	r3, .L4+8
  59 0024 0022     		mov	r2, #0
  60 0026 1A70     		strb	r2, [r3]
  61              	.L1:
  50:Generated_Source\PSoC4/engine_sensor_ref_PM.c ****     }
  51:Generated_Source\PSoC4/engine_sensor_ref_PM.c **** }
  62              		.loc 1 51 0
  63 0028 BD46     		mov	sp, r7
ARM GAS  C:\Users\fneves\AppData\Local\Temp\ccgwTJi7.s 			page 3


  64              		@ sp needed
  65 002a 80BD     		pop	{r7, pc}
  66              	.L5:
  67              		.align	2
  68              	.L4:
  69 002c 08023F40 		.word	1077871112
  70 0030 00023F40 		.word	1077871104
  71 0034 00000000 		.word	engine_sensor_ref_backup
  72              		.cfi_endproc
  73              	.LFE0:
  74              		.size	engine_sensor_ref_Sleep, .-engine_sensor_ref_Sleep
  75              		.section	.text.engine_sensor_ref_Wakeup,"ax",%progbits
  76              		.align	2
  77              		.global	engine_sensor_ref_Wakeup
  78              		.code	16
  79              		.thumb_func
  80              		.type	engine_sensor_ref_Wakeup, %function
  81              	engine_sensor_ref_Wakeup:
  82              	.LFB1:
  52:Generated_Source\PSoC4/engine_sensor_ref_PM.c **** 
  53:Generated_Source\PSoC4/engine_sensor_ref_PM.c **** 
  54:Generated_Source\PSoC4/engine_sensor_ref_PM.c **** /*******************************************************************************
  55:Generated_Source\PSoC4/engine_sensor_ref_PM.c **** * Function Name: engine_sensor_ref_Wakeup
  56:Generated_Source\PSoC4/engine_sensor_ref_PM.c **** ****************************************************************************//**
  57:Generated_Source\PSoC4/engine_sensor_ref_PM.c **** *
  58:Generated_Source\PSoC4/engine_sensor_ref_PM.c **** *  Restores the component after exiting Sleep mode.
  59:Generated_Source\PSoC4/engine_sensor_ref_PM.c **** *  By calling this function for any Vdda-based reference, the function will
  60:Generated_Source\PSoC4/engine_sensor_ref_PM.c **** *  enable all Vdda-based references because they all are based on the same
  61:Generated_Source\PSoC4/engine_sensor_ref_PM.c **** *  resistor divider. For bandgap-based references, nothing will happen.
  62:Generated_Source\PSoC4/engine_sensor_ref_PM.c **** *
  63:Generated_Source\PSoC4/engine_sensor_ref_PM.c **** * \sideeffect
  64:Generated_Source\PSoC4/engine_sensor_ref_PM.c **** *  If the reference is based on Vdda, it will affect all Vdda-based references
  65:Generated_Source\PSoC4/engine_sensor_ref_PM.c **** *  because they share the same resistor tree.
  66:Generated_Source\PSoC4/engine_sensor_ref_PM.c **** *
  67:Generated_Source\PSoC4/engine_sensor_ref_PM.c **** *******************************************************************************/
  68:Generated_Source\PSoC4/engine_sensor_ref_PM.c **** void engine_sensor_ref_Wakeup(void)
  69:Generated_Source\PSoC4/engine_sensor_ref_PM.c **** {
  83              		.loc 1 69 0
  84              		.cfi_startproc
  85 0000 80B5     		push	{r7, lr}
  86              		.cfi_def_cfa_offset 8
  87              		.cfi_offset 7, -8
  88              		.cfi_offset 14, -4
  89 0002 00AF     		add	r7, sp, #0
  90              		.cfi_def_cfa_register 7
  70:Generated_Source\PSoC4/engine_sensor_ref_PM.c ****     if (0u != engine_sensor_ref_backup.enableState)
  91              		.loc 1 70 0
  92 0004 054B     		ldr	r3, .L8
  93 0006 1B78     		ldrb	r3, [r3]
  94 0008 002B     		cmp	r3, #0
  95 000a 05D0     		beq	.L6
  71:Generated_Source\PSoC4/engine_sensor_ref_PM.c ****     {
  72:Generated_Source\PSoC4/engine_sensor_ref_PM.c ****         engine_sensor_ref_PRB_CTRL_REG |= engine_sensor_ref_VDDA_ENABLE;
  96              		.loc 1 72 0
  97 000c 044B     		ldr	r3, .L8+4
  98 000e 044A     		ldr	r2, .L8+4
  99 0010 1268     		ldr	r2, [r2]
ARM GAS  C:\Users\fneves\AppData\Local\Temp\ccgwTJi7.s 			page 4


 100 0012 1021     		mov	r1, #16
 101 0014 0A43     		orr	r2, r1
 102 0016 1A60     		str	r2, [r3]
 103              	.L6:
  73:Generated_Source\PSoC4/engine_sensor_ref_PM.c ****     } /* Do nothing if the reference is based on the bandgap */
  74:Generated_Source\PSoC4/engine_sensor_ref_PM.c **** }
 104              		.loc 1 74 0
 105 0018 BD46     		mov	sp, r7
 106              		@ sp needed
 107 001a 80BD     		pop	{r7, pc}
 108              	.L9:
 109              		.align	2
 110              	.L8:
 111 001c 00000000 		.word	engine_sensor_ref_backup
 112 0020 00023F40 		.word	1077871104
 113              		.cfi_endproc
 114              	.LFE1:
 115              		.size	engine_sensor_ref_Wakeup, .-engine_sensor_ref_Wakeup
 116              		.text
 117              	.Letext0:
 118              		.file 2 "Generated_Source\\PSoC4\\cytypes.h"
 119              		.file 3 "Generated_Source\\PSoC4\\engine_sensor_ref.h"