ARM GAS  C:\Users\fneves\AppData\Local\Temp\ccUasASo.s 			page 1


   1              		.cpu cortex-m0plus
   2              		.fpu softvfp
   3              		.eabi_attribute 20, 1
   4              		.eabi_attribute 21, 1
   5              		.eabi_attribute 23, 3
   6              		.eabi_attribute 24, 1
   7              		.eabi_attribute 25, 1
   8              		.eabi_attribute 26, 1
   9              		.eabi_attribute 30, 6
  10              		.eabi_attribute 34, 0
  11              		.eabi_attribute 18, 4
  12              		.code	16
  13              		.file	"event_queue.c"
  14              		.text
  15              	.Ltext0:
  16              		.cfi_sections	.debug_frame
  17              		.bss
  18              		.align	2
  19              	put_index:
  20 0000 00000000 		.space	4
  21              		.align	2
  22              	get_index:
  23 0004 00000000 		.space	4
  24              		.align	2
  25              	noof_elements:
  26 0008 00000000 		.space	4
  27              		.align	2
  28              	event_queue:
  29 000c 00000000 		.space	64
  29      00000000 
  29      00000000 
  29      00000000 
  29      00000000 
  30              		.section	.text.event_queue_init,"ax",%progbits
  31              		.align	2
  32              		.global	event_queue_init
  33              		.code	16
  34              		.thumb_func
  35              		.type	event_queue_init, %function
  36              	event_queue_init:
  37              	.LFB67:
  38              		.file 1 "event_queue.c"
   1:event_queue.c **** /**
   2:event_queue.c ****  * @brief event queue interface file
   3:event_queue.c ****  */
   4:event_queue.c **** #include <project.h>
   5:event_queue.c **** #include "event_queue.h"
   6:event_queue.c **** 
   7:event_queue.c **** /**
   8:event_queue.c ****  * private variables 
   9:event_queue.c ****  */
  10:event_queue.c **** static int put_index = 0;
  11:event_queue.c **** static int get_index = 0;
  12:event_queue.c **** static int noof_elements = 0;
  13:event_queue.c **** static system_event_t event_queue[EVENT_QUEUE_LEN] = {KNO_EVENT};
  14:event_queue.c **** 
  15:event_queue.c **** 
ARM GAS  C:\Users\fneves\AppData\Local\Temp\ccUasASo.s 			page 2


  16:event_queue.c **** /**
  17:event_queue.c ****  * public functions 
  18:event_queue.c ****  */
  19:event_queue.c **** int event_queue_init(void)
  20:event_queue.c **** {
  39              		.loc 1 20 0
  40              		.cfi_startproc
  41 0000 80B5     		push	{r7, lr}
  42              		.cfi_def_cfa_offset 8
  43              		.cfi_offset 7, -8
  44              		.cfi_offset 14, -4
  45 0002 00AF     		add	r7, sp, #0
  46              		.cfi_def_cfa_register 7
  21:event_queue.c ****    /* not needed */
  22:event_queue.c ****    return 0;
  47              		.loc 1 22 0
  48 0004 0023     		mov	r3, #0
  23:event_queue.c **** }
  49              		.loc 1 23 0
  50 0006 181C     		mov	r0, r3
  51 0008 BD46     		mov	sp, r7
  52              		@ sp needed
  53 000a 80BD     		pop	{r7, pc}
  54              		.cfi_endproc
  55              	.LFE67:
  56              		.size	event_queue_init, .-event_queue_init
  57              		.section	.text.event_queue_peek,"ax",%progbits
  58              		.align	2
  59              		.global	event_queue_peek
  60              		.code	16
  61              		.thumb_func
  62              		.type	event_queue_peek, %function
  63              	event_queue_peek:
  64              	.LFB68:
  24:event_queue.c **** system_event_t event_queue_peek(void)
  25:event_queue.c **** {
  65              		.loc 1 25 0
  66              		.cfi_startproc
  67 0000 90B5     		push	{r4, r7, lr}
  68              		.cfi_def_cfa_offset 12
  69              		.cfi_offset 4, -12
  70              		.cfi_offset 7, -8
  71              		.cfi_offset 14, -4
  72 0002 83B0     		sub	sp, sp, #12
  73              		.cfi_def_cfa_offset 24
  74 0004 00AF     		add	r7, sp, #0
  75              		.cfi_def_cfa_register 7
  26:event_queue.c ****     uint8_t isr_key = CyEnterCriticalSection();
  76              		.loc 1 26 0
  77 0006 FC1D     		add	r4, r7, #7
  78 0008 FFF7FEFF 		bl	CyEnterCriticalSection
  79 000c 031C     		mov	r3, r0
  80 000e 2370     		strb	r3, [r4]
  27:event_queue.c ****     system_event_t ret = (noof_elements == 0)? KNO_EVENT : event_queue[get_index];
  81              		.loc 1 27 0
  82 0010 0B4B     		ldr	r3, .L7
  83 0012 1B68     		ldr	r3, [r3]
ARM GAS  C:\Users\fneves\AppData\Local\Temp\ccUasASo.s 			page 3


  84 0014 002B     		cmp	r3, #0
  85 0016 04D0     		beq	.L4
  86              		.loc 1 27 0 is_stmt 0 discriminator 1
  87 0018 0A4B     		ldr	r3, .L7+4
  88 001a 1B68     		ldr	r3, [r3]
  89 001c 0A4A     		ldr	r2, .L7+8
  90 001e D25C     		ldrb	r2, [r2, r3]
  91 0020 00E0     		b	.L5
  92              	.L4:
  93              		.loc 1 27 0 discriminator 2
  94 0022 0022     		mov	r2, #0
  95              	.L5:
  96              		.loc 1 27 0 discriminator 4
  97 0024 BB1D     		add	r3, r7, #6
  98 0026 1A70     		strb	r2, [r3]
  28:event_queue.c ****     CyExitCriticalSection(isr_key);
  99              		.loc 1 28 0 is_stmt 1 discriminator 4
 100 0028 FB1D     		add	r3, r7, #7
 101 002a 1B78     		ldrb	r3, [r3]
 102 002c 181C     		mov	r0, r3
 103 002e FFF7FEFF 		bl	CyExitCriticalSection
  29:event_queue.c ****     return(ret);
 104              		.loc 1 29 0 discriminator 4
 105 0032 BB1D     		add	r3, r7, #6
 106 0034 1B78     		ldrb	r3, [r3]
  30:event_queue.c **** }
 107              		.loc 1 30 0 discriminator 4
 108 0036 181C     		mov	r0, r3
 109 0038 BD46     		mov	sp, r7
 110 003a 03B0     		add	sp, sp, #12
 111              		@ sp needed
 112 003c 90BD     		pop	{r4, r7, pc}
 113              	.L8:
 114 003e C046     		.align	2
 115              	.L7:
 116 0040 08000000 		.word	noof_elements
 117 0044 04000000 		.word	get_index
 118 0048 0C000000 		.word	event_queue
 119              		.cfi_endproc
 120              	.LFE68:
 121              		.size	event_queue_peek, .-event_queue_peek
 122              		.section	.text.event_queue_get,"ax",%progbits
 123              		.align	2
 124              		.global	event_queue_get
 125              		.code	16
 126              		.thumb_func
 127              		.type	event_queue_get, %function
 128              	event_queue_get:
 129              	.LFB69:
  31:event_queue.c **** system_event_t event_queue_get(void)
  32:event_queue.c **** {
 130              		.loc 1 32 0
 131              		.cfi_startproc
 132 0000 90B5     		push	{r4, r7, lr}
 133              		.cfi_def_cfa_offset 12
 134              		.cfi_offset 4, -12
 135              		.cfi_offset 7, -8
ARM GAS  C:\Users\fneves\AppData\Local\Temp\ccUasASo.s 			page 4


 136              		.cfi_offset 14, -4
 137 0002 83B0     		sub	sp, sp, #12
 138              		.cfi_def_cfa_offset 24
 139 0004 00AF     		add	r7, sp, #0
 140              		.cfi_def_cfa_register 7
  33:event_queue.c ****     system_event_t ret = (noof_elements == 0)? KNO_EVENT : event_queue[get_index];
 141              		.loc 1 33 0
 142 0006 194B     		ldr	r3, .L15
 143 0008 1B68     		ldr	r3, [r3]
 144 000a 002B     		cmp	r3, #0
 145 000c 04D0     		beq	.L10
 146              		.loc 1 33 0 is_stmt 0 discriminator 1
 147 000e 184B     		ldr	r3, .L15+4
 148 0010 1B68     		ldr	r3, [r3]
 149 0012 184A     		ldr	r2, .L15+8
 150 0014 D25C     		ldrb	r2, [r2, r3]
 151 0016 00E0     		b	.L11
 152              	.L10:
 153              		.loc 1 33 0 discriminator 2
 154 0018 0022     		mov	r2, #0
 155              	.L11:
 156              		.loc 1 33 0 discriminator 4
 157 001a FB1D     		add	r3, r7, #7
 158 001c 1A70     		strb	r2, [r3]
  34:event_queue.c ****     if(ret != KNO_EVENT) {
 159              		.loc 1 34 0 is_stmt 1 discriminator 4
 160 001e FB1D     		add	r3, r7, #7
 161 0020 1B78     		ldrb	r3, [r3]
 162 0022 002B     		cmp	r3, #0
 163 0024 1CD0     		beq	.L12
 164              	.LBB2:
  35:event_queue.c ****         uint8_t isr_key = CyEnterCriticalSection();
 165              		.loc 1 35 0
 166 0026 BC1D     		add	r4, r7, #6
 167 0028 FFF7FEFF 		bl	CyEnterCriticalSection
 168 002c 031C     		mov	r3, r0
 169 002e 2370     		strb	r3, [r4]
  36:event_queue.c ****         get_index = (get_index + 1) % EVENT_QUEUE_LEN;
 170              		.loc 1 36 0
 171 0030 0F4B     		ldr	r3, .L15+4
 172 0032 1B68     		ldr	r3, [r3]
 173 0034 0133     		add	r3, r3, #1
 174 0036 104A     		ldr	r2, .L15+12
 175 0038 1340     		and	r3, r2
 176 003a 04D5     		bpl	.L13
 177 003c 013B     		sub	r3, r3, #1
 178 003e 4022     		mov	r2, #64
 179 0040 5242     		neg	r2, r2
 180 0042 1343     		orr	r3, r2
 181 0044 0133     		add	r3, r3, #1
 182              	.L13:
 183 0046 1A1C     		mov	r2, r3
 184 0048 094B     		ldr	r3, .L15+4
 185 004a 1A60     		str	r2, [r3]
  37:event_queue.c ****         noof_elements--;
 186              		.loc 1 37 0
 187 004c 074B     		ldr	r3, .L15
ARM GAS  C:\Users\fneves\AppData\Local\Temp\ccUasASo.s 			page 5


 188 004e 1B68     		ldr	r3, [r3]
 189 0050 5A1E     		sub	r2, r3, #1
 190 0052 064B     		ldr	r3, .L15
 191 0054 1A60     		str	r2, [r3]
  38:event_queue.c ****         CyExitCriticalSection(isr_key);
 192              		.loc 1 38 0
 193 0056 BB1D     		add	r3, r7, #6
 194 0058 1B78     		ldrb	r3, [r3]
 195 005a 181C     		mov	r0, r3
 196 005c FFF7FEFF 		bl	CyExitCriticalSection
 197              	.L12:
 198              	.LBE2:
  39:event_queue.c ****     }
  40:event_queue.c ****     return(ret);
 199              		.loc 1 40 0
 200 0060 FB1D     		add	r3, r7, #7
 201 0062 1B78     		ldrb	r3, [r3]
  41:event_queue.c **** }
 202              		.loc 1 41 0
 203 0064 181C     		mov	r0, r3
 204 0066 BD46     		mov	sp, r7
 205 0068 03B0     		add	sp, sp, #12
 206              		@ sp needed
 207 006a 90BD     		pop	{r4, r7, pc}
 208              	.L16:
 209              		.align	2
 210              	.L15:
 211 006c 08000000 		.word	noof_elements
 212 0070 04000000 		.word	get_index
 213 0074 0C000000 		.word	event_queue
 214 0078 3F000080 		.word	-2147483585
 215              		.cfi_endproc
 216              	.LFE69:
 217              		.size	event_queue_get, .-event_queue_get
 218              		.section	.text.event_queue_put,"ax",%progbits
 219              		.align	2
 220              		.global	event_queue_put
 221              		.code	16
 222              		.thumb_func
 223              		.type	event_queue_put, %function
 224              	event_queue_put:
 225              	.LFB70:
  42:event_queue.c **** int event_queue_put(system_event_t ev)
  43:event_queue.c **** {
 226              		.loc 1 43 0
 227              		.cfi_startproc
 228 0000 90B5     		push	{r4, r7, lr}
 229              		.cfi_def_cfa_offset 12
 230              		.cfi_offset 4, -12
 231              		.cfi_offset 7, -8
 232              		.cfi_offset 14, -4
 233 0002 85B0     		sub	sp, sp, #20
 234              		.cfi_def_cfa_offset 32
 235 0004 00AF     		add	r7, sp, #0
 236              		.cfi_def_cfa_register 7
 237 0006 021C     		mov	r2, r0
 238 0008 FB1D     		add	r3, r7, #7
ARM GAS  C:\Users\fneves\AppData\Local\Temp\ccUasASo.s 			page 6


 239 000a 1A70     		strb	r2, [r3]
  44:event_queue.c ****     int ret = 0;
 240              		.loc 1 44 0
 241 000c 0023     		mov	r3, #0
 242 000e FB60     		str	r3, [r7, #12]
  45:event_queue.c ****     
  46:event_queue.c ****     if(noof_elements < EVENT_QUEUE_LEN) {
 243              		.loc 1 46 0
 244 0010 184B     		ldr	r3, .L22
 245 0012 1B68     		ldr	r3, [r3]
 246 0014 3F2B     		cmp	r3, #63
 247 0016 25DC     		bgt	.L18
 248              	.LBB3:
  47:event_queue.c ****         /* send event to the most back position of queue */
  48:event_queue.c ****         uint8_t isr_key = CyEnterCriticalSection();
 249              		.loc 1 48 0
 250 0018 0B23     		mov	r3, #11
 251 001a FC18     		add	r4, r7, r3
 252 001c FFF7FEFF 		bl	CyEnterCriticalSection
 253 0020 031C     		mov	r3, r0
 254 0022 2370     		strb	r3, [r4]
  49:event_queue.c ****         event_queue[put_index] = ev;
 255              		.loc 1 49 0
 256 0024 144B     		ldr	r3, .L22+4
 257 0026 1B68     		ldr	r3, [r3]
 258 0028 144A     		ldr	r2, .L22+8
 259 002a F91D     		add	r1, r7, #7
 260 002c 0978     		ldrb	r1, [r1]
 261 002e D154     		strb	r1, [r2, r3]
  50:event_queue.c ****         put_index = (put_index + 1) % EVENT_QUEUE_LEN;
 262              		.loc 1 50 0
 263 0030 114B     		ldr	r3, .L22+4
 264 0032 1B68     		ldr	r3, [r3]
 265 0034 0133     		add	r3, r3, #1
 266 0036 124A     		ldr	r2, .L22+12
 267 0038 1340     		and	r3, r2
 268 003a 04D5     		bpl	.L19
 269 003c 013B     		sub	r3, r3, #1
 270 003e 4022     		mov	r2, #64
 271 0040 5242     		neg	r2, r2
 272 0042 1343     		orr	r3, r2
 273 0044 0133     		add	r3, r3, #1
 274              	.L19:
 275 0046 1A1C     		mov	r2, r3
 276 0048 0B4B     		ldr	r3, .L22+4
 277 004a 1A60     		str	r2, [r3]
  51:event_queue.c ****         noof_elements++;
 278              		.loc 1 51 0
 279 004c 094B     		ldr	r3, .L22
 280 004e 1B68     		ldr	r3, [r3]
 281 0050 5A1C     		add	r2, r3, #1
 282 0052 084B     		ldr	r3, .L22
 283 0054 1A60     		str	r2, [r3]
  52:event_queue.c ****         CyExitCriticalSection(isr_key);
 284              		.loc 1 52 0
 285 0056 0B23     		mov	r3, #11
 286 0058 FB18     		add	r3, r7, r3
ARM GAS  C:\Users\fneves\AppData\Local\Temp\ccUasASo.s 			page 7


 287 005a 1B78     		ldrb	r3, [r3]
 288 005c 181C     		mov	r0, r3
 289 005e FFF7FEFF 		bl	CyExitCriticalSection
 290              	.LBE3:
 291 0062 02E0     		b	.L20
 292              	.L18:
  53:event_queue.c ****     } else {
  54:event_queue.c ****         /* event queue full */
  55:event_queue.c ****         ret = -1;
 293              		.loc 1 55 0
 294 0064 0123     		mov	r3, #1
 295 0066 5B42     		neg	r3, r3
 296 0068 FB60     		str	r3, [r7, #12]
 297              	.L20:
  56:event_queue.c ****     }
  57:event_queue.c ****     
  58:event_queue.c ****     return(ret);    
 298              		.loc 1 58 0
 299 006a FB68     		ldr	r3, [r7, #12]
  59:event_queue.c **** }...
 300              		.loc 1 59 0
 301 006c 181C     		mov	r0, r3
 302 006e BD46     		mov	sp, r7
 303 0070 05B0     		add	sp, sp, #20
 304              		@ sp needed
 305 0072 90BD     		pop	{r4, r7, pc}
 306              	.L23:
 307              		.align	2
 308              	.L22:
 309 0074 08000000 		.word	noof_elements
 310 0078 00000000 		.word	put_index
 311 007c 0C000000 		.word	event_queue
 312 0080 3F000080 		.word	-2147483585
 313              		.cfi_endproc
 314              	.LFE70:
 315              		.size	event_queue_put, .-event_queue_put
 316              		.text
 317              	.Letext0:
 318              		.file 2 "c:\\program files (x86)\\cypress\\psoc creator\\4.0\\psoc creator\\import\\gnu\\arm\\4.9.
 319              		.file 3 "c:\\program files (x86)\\cypress\\psoc creator\\4.0\\psoc creator\\import\\gnu\\arm\\4.9.
 320              		.file 4 "Generated_Source\\PSoC4/cytypes.h"
 321              		.file 5 "event_queue.h"