ARM GAS  C:\Users\fneves\AppData\Local\Temp\cce2Gss9.s 			page 1


   1              		.cpu cortex-m0plus
   2              		.fpu softvfp
   3              		.eabi_attribute 20, 1
   4              		.eabi_attribute 21, 1
   5              		.eabi_attribute 23, 3
   6              		.eabi_attribute 24, 1
   7              		.eabi_attribute 25, 1
   8              		.eabi_attribute 26, 1
   9              		.eabi_attribute 30, 6
  10              		.eabi_attribute 34, 0
  11              		.eabi_attribute 18, 4
  12              		.code	16
  13              		.file	"EZI2C_1.c"
  14              		.text
  15              	.Ltext0:
  16              		.cfi_sections	.debug_frame
  17              		.global	EZI2C_1_initVar
  18              		.bss
  19              		.type	EZI2C_1_initVar, %object
  20              		.size	EZI2C_1_initVar, 1
  21              	EZI2C_1_initVar:
  22 0000 00       		.space	1
  23              		.global	EZI2C_1_customIntrHandler
  24 0001 000000   		.align	2
  25              		.type	EZI2C_1_customIntrHandler, %object
  26              		.size	EZI2C_1_customIntrHandler, 4
  27              	EZI2C_1_customIntrHandler:
  28 0004 00000000 		.space	4
  29              		.section	.text.EZI2C_1_Init,"ax",%progbits
  30              		.align	2
  31              		.global	EZI2C_1_Init
  32              		.code	16
  33              		.thumb_func
  34              		.type	EZI2C_1_Init, %function
  35              	EZI2C_1_Init:
  36              	.LFB1:
  37              		.file 1 "Generated_Source\\PSoC4\\EZI2C_1.c"
   1:Generated_Source\PSoC4/EZI2C_1.c **** /***************************************************************************//**
   2:Generated_Source\PSoC4/EZI2C_1.c **** * \file EZI2C_1.c
   3:Generated_Source\PSoC4/EZI2C_1.c **** * \version 3.20
   4:Generated_Source\PSoC4/EZI2C_1.c **** *
   5:Generated_Source\PSoC4/EZI2C_1.c **** * \brief
   6:Generated_Source\PSoC4/EZI2C_1.c **** *  This file provides the source code to the API for the SCB Component.
   7:Generated_Source\PSoC4/EZI2C_1.c **** *
   8:Generated_Source\PSoC4/EZI2C_1.c **** * Note:
   9:Generated_Source\PSoC4/EZI2C_1.c **** *
  10:Generated_Source\PSoC4/EZI2C_1.c **** *******************************************************************************
  11:Generated_Source\PSoC4/EZI2C_1.c **** * \copyright
  12:Generated_Source\PSoC4/EZI2C_1.c **** * Copyright 2013-2016, Cypress Semiconductor Corporation.  All rights reserved.
  13:Generated_Source\PSoC4/EZI2C_1.c **** * You may use this file only in accordance with the license, terms, conditions,
  14:Generated_Source\PSoC4/EZI2C_1.c **** * disclaimers, and limitations in the end user license agreement accompanying
  15:Generated_Source\PSoC4/EZI2C_1.c **** * the software package with which this file was provided.
  16:Generated_Source\PSoC4/EZI2C_1.c **** *******************************************************************************/
  17:Generated_Source\PSoC4/EZI2C_1.c **** 
  18:Generated_Source\PSoC4/EZI2C_1.c **** #include "EZI2C_1_PVT.h"
  19:Generated_Source\PSoC4/EZI2C_1.c **** 
  20:Generated_Source\PSoC4/EZI2C_1.c **** #if (EZI2C_1_SCB_MODE_I2C_INC)
ARM GAS  C:\Users\fneves\AppData\Local\Temp\cce2Gss9.s 			page 2


  21:Generated_Source\PSoC4/EZI2C_1.c ****     #include "EZI2C_1_I2C_PVT.h"
  22:Generated_Source\PSoC4/EZI2C_1.c **** #endif /* (EZI2C_1_SCB_MODE_I2C_INC) */
  23:Generated_Source\PSoC4/EZI2C_1.c **** 
  24:Generated_Source\PSoC4/EZI2C_1.c **** #if (EZI2C_1_SCB_MODE_EZI2C_INC)
  25:Generated_Source\PSoC4/EZI2C_1.c ****     #include "EZI2C_1_EZI2C_PVT.h"
  26:Generated_Source\PSoC4/EZI2C_1.c **** #endif /* (EZI2C_1_SCB_MODE_EZI2C_INC) */
  27:Generated_Source\PSoC4/EZI2C_1.c **** 
  28:Generated_Source\PSoC4/EZI2C_1.c **** #if (EZI2C_1_SCB_MODE_SPI_INC || EZI2C_1_SCB_MODE_UART_INC)
  29:Generated_Source\PSoC4/EZI2C_1.c ****     #include "EZI2C_1_SPI_UART_PVT.h"
  30:Generated_Source\PSoC4/EZI2C_1.c **** #endif /* (EZI2C_1_SCB_MODE_SPI_INC || EZI2C_1_SCB_MODE_UART_INC) */
  31:Generated_Source\PSoC4/EZI2C_1.c **** 
  32:Generated_Source\PSoC4/EZI2C_1.c **** 
  33:Generated_Source\PSoC4/EZI2C_1.c **** /***************************************
  34:Generated_Source\PSoC4/EZI2C_1.c **** *    Run Time Configuration Vars
  35:Generated_Source\PSoC4/EZI2C_1.c **** ***************************************/
  36:Generated_Source\PSoC4/EZI2C_1.c **** 
  37:Generated_Source\PSoC4/EZI2C_1.c **** /* Stores internal component configuration for Unconfigured mode */
  38:Generated_Source\PSoC4/EZI2C_1.c **** #if (EZI2C_1_SCB_MODE_UNCONFIG_CONST_CFG)
  39:Generated_Source\PSoC4/EZI2C_1.c ****     /* Common configuration variables */
  40:Generated_Source\PSoC4/EZI2C_1.c ****     uint8 EZI2C_1_scbMode = EZI2C_1_SCB_MODE_UNCONFIG;
  41:Generated_Source\PSoC4/EZI2C_1.c ****     uint8 EZI2C_1_scbEnableWake;
  42:Generated_Source\PSoC4/EZI2C_1.c ****     uint8 EZI2C_1_scbEnableIntr;
  43:Generated_Source\PSoC4/EZI2C_1.c **** 
  44:Generated_Source\PSoC4/EZI2C_1.c ****     /* I2C configuration variables */
  45:Generated_Source\PSoC4/EZI2C_1.c ****     uint8 EZI2C_1_mode;
  46:Generated_Source\PSoC4/EZI2C_1.c ****     uint8 EZI2C_1_acceptAddr;
  47:Generated_Source\PSoC4/EZI2C_1.c **** 
  48:Generated_Source\PSoC4/EZI2C_1.c ****     /* SPI/UART configuration variables */
  49:Generated_Source\PSoC4/EZI2C_1.c ****     volatile uint8 * EZI2C_1_rxBuffer;
  50:Generated_Source\PSoC4/EZI2C_1.c ****     uint8  EZI2C_1_rxDataBits;
  51:Generated_Source\PSoC4/EZI2C_1.c ****     uint32 EZI2C_1_rxBufferSize;
  52:Generated_Source\PSoC4/EZI2C_1.c **** 
  53:Generated_Source\PSoC4/EZI2C_1.c ****     volatile uint8 * EZI2C_1_txBuffer;
  54:Generated_Source\PSoC4/EZI2C_1.c ****     uint8  EZI2C_1_txDataBits;
  55:Generated_Source\PSoC4/EZI2C_1.c ****     uint32 EZI2C_1_txBufferSize;
  56:Generated_Source\PSoC4/EZI2C_1.c **** 
  57:Generated_Source\PSoC4/EZI2C_1.c ****     /* EZI2C configuration variables */
  58:Generated_Source\PSoC4/EZI2C_1.c ****     uint8 EZI2C_1_numberOfAddr;
  59:Generated_Source\PSoC4/EZI2C_1.c ****     uint8 EZI2C_1_subAddrSize;
  60:Generated_Source\PSoC4/EZI2C_1.c **** #endif /* (EZI2C_1_SCB_MODE_UNCONFIG_CONST_CFG) */
  61:Generated_Source\PSoC4/EZI2C_1.c **** 
  62:Generated_Source\PSoC4/EZI2C_1.c **** 
  63:Generated_Source\PSoC4/EZI2C_1.c **** /***************************************
  64:Generated_Source\PSoC4/EZI2C_1.c **** *     Common SCB Vars
  65:Generated_Source\PSoC4/EZI2C_1.c **** ***************************************/
  66:Generated_Source\PSoC4/EZI2C_1.c **** /**
  67:Generated_Source\PSoC4/EZI2C_1.c **** * \addtogroup group_general
  68:Generated_Source\PSoC4/EZI2C_1.c **** * \{
  69:Generated_Source\PSoC4/EZI2C_1.c **** */
  70:Generated_Source\PSoC4/EZI2C_1.c **** 
  71:Generated_Source\PSoC4/EZI2C_1.c **** /** EZI2C_1_initVar indicates whether the EZI2C_1 
  72:Generated_Source\PSoC4/EZI2C_1.c **** *  component has been initialized. The variable is initialized to 0 
  73:Generated_Source\PSoC4/EZI2C_1.c **** *  and set to 1 the first time SCB_Start() is called. This allows 
  74:Generated_Source\PSoC4/EZI2C_1.c **** *  the component to restart without reinitialization after the first 
  75:Generated_Source\PSoC4/EZI2C_1.c **** *  call to the EZI2C_1_Start() routine.
  76:Generated_Source\PSoC4/EZI2C_1.c **** *
  77:Generated_Source\PSoC4/EZI2C_1.c **** *  If re-initialization of the component is required, then the 
ARM GAS  C:\Users\fneves\AppData\Local\Temp\cce2Gss9.s 			page 3


  78:Generated_Source\PSoC4/EZI2C_1.c **** *  EZI2C_1_Init() function can be called before the 
  79:Generated_Source\PSoC4/EZI2C_1.c **** *  EZI2C_1_Start() or EZI2C_1_Enable() function.
  80:Generated_Source\PSoC4/EZI2C_1.c **** */
  81:Generated_Source\PSoC4/EZI2C_1.c **** uint8 EZI2C_1_initVar = 0u;
  82:Generated_Source\PSoC4/EZI2C_1.c **** 
  83:Generated_Source\PSoC4/EZI2C_1.c **** 
  84:Generated_Source\PSoC4/EZI2C_1.c **** #if (! (EZI2C_1_SCB_MODE_I2C_CONST_CFG || \
  85:Generated_Source\PSoC4/EZI2C_1.c ****         EZI2C_1_SCB_MODE_EZI2C_CONST_CFG))
  86:Generated_Source\PSoC4/EZI2C_1.c ****     /** This global variable stores TX interrupt sources after 
  87:Generated_Source\PSoC4/EZI2C_1.c ****     * EZI2C_1_Stop() is called. Only these TX interrupt sources 
  88:Generated_Source\PSoC4/EZI2C_1.c ****     * will be restored on a subsequent EZI2C_1_Enable() call.
  89:Generated_Source\PSoC4/EZI2C_1.c ****     */
  90:Generated_Source\PSoC4/EZI2C_1.c ****     uint16 EZI2C_1_IntrTxMask = 0u;
  91:Generated_Source\PSoC4/EZI2C_1.c **** #endif /* (! (EZI2C_1_SCB_MODE_I2C_CONST_CFG || \
  92:Generated_Source\PSoC4/EZI2C_1.c ****               EZI2C_1_SCB_MODE_EZI2C_CONST_CFG)) */
  93:Generated_Source\PSoC4/EZI2C_1.c **** /** \} globals */
  94:Generated_Source\PSoC4/EZI2C_1.c **** 
  95:Generated_Source\PSoC4/EZI2C_1.c **** #if (EZI2C_1_SCB_IRQ_INTERNAL)
  96:Generated_Source\PSoC4/EZI2C_1.c **** #if !defined (CY_REMOVE_EZI2C_1_CUSTOM_INTR_HANDLER)
  97:Generated_Source\PSoC4/EZI2C_1.c ****     void (*EZI2C_1_customIntrHandler)(void) = NULL;
  98:Generated_Source\PSoC4/EZI2C_1.c **** #endif /* !defined (CY_REMOVE_EZI2C_1_CUSTOM_INTR_HANDLER) */
  99:Generated_Source\PSoC4/EZI2C_1.c **** #endif /* (EZI2C_1_SCB_IRQ_INTERNAL) */
 100:Generated_Source\PSoC4/EZI2C_1.c **** 
 101:Generated_Source\PSoC4/EZI2C_1.c **** 
 102:Generated_Source\PSoC4/EZI2C_1.c **** /***************************************
 103:Generated_Source\PSoC4/EZI2C_1.c **** *    Private Function Prototypes
 104:Generated_Source\PSoC4/EZI2C_1.c **** ***************************************/
 105:Generated_Source\PSoC4/EZI2C_1.c **** 
 106:Generated_Source\PSoC4/EZI2C_1.c **** static void EZI2C_1_ScbEnableIntr(void);
 107:Generated_Source\PSoC4/EZI2C_1.c **** static void EZI2C_1_ScbModeStop(void);
 108:Generated_Source\PSoC4/EZI2C_1.c **** static void EZI2C_1_ScbModePostEnable(void);
 109:Generated_Source\PSoC4/EZI2C_1.c **** 
 110:Generated_Source\PSoC4/EZI2C_1.c **** 
 111:Generated_Source\PSoC4/EZI2C_1.c **** /*******************************************************************************
 112:Generated_Source\PSoC4/EZI2C_1.c **** * Function Name: EZI2C_1_Init
 113:Generated_Source\PSoC4/EZI2C_1.c **** ****************************************************************************//**
 114:Generated_Source\PSoC4/EZI2C_1.c **** *
 115:Generated_Source\PSoC4/EZI2C_1.c **** *  Initializes the EZI2C_1 component to operate in one of the selected
 116:Generated_Source\PSoC4/EZI2C_1.c **** *  configurations: I2C, SPI, UART or EZI2C.
 117:Generated_Source\PSoC4/EZI2C_1.c **** *  When the configuration is set to "Unconfigured SCB", this function does
 118:Generated_Source\PSoC4/EZI2C_1.c **** *  not do any initialization. Use mode-specific initialization APIs instead:
 119:Generated_Source\PSoC4/EZI2C_1.c **** *  EZI2C_1_I2CInit, EZI2C_1_SpiInit, 
 120:Generated_Source\PSoC4/EZI2C_1.c **** *  EZI2C_1_UartInit or EZI2C_1_EzI2CInit.
 121:Generated_Source\PSoC4/EZI2C_1.c **** *
 122:Generated_Source\PSoC4/EZI2C_1.c **** *******************************************************************************/
 123:Generated_Source\PSoC4/EZI2C_1.c **** void EZI2C_1_Init(void)
 124:Generated_Source\PSoC4/EZI2C_1.c **** {
  38              		.loc 1 124 0
  39              		.cfi_startproc
  40 0000 80B5     		push	{r7, lr}
  41              		.cfi_def_cfa_offset 8
  42              		.cfi_offset 7, -8
  43              		.cfi_offset 14, -4
  44 0002 00AF     		add	r7, sp, #0
  45              		.cfi_def_cfa_register 7
 125:Generated_Source\PSoC4/EZI2C_1.c **** #if (EZI2C_1_SCB_MODE_UNCONFIG_CONST_CFG)
 126:Generated_Source\PSoC4/EZI2C_1.c ****     if (EZI2C_1_SCB_MODE_UNCONFIG_RUNTM_CFG)
ARM GAS  C:\Users\fneves\AppData\Local\Temp\cce2Gss9.s 			page 4


 127:Generated_Source\PSoC4/EZI2C_1.c ****     {
 128:Generated_Source\PSoC4/EZI2C_1.c ****         EZI2C_1_initVar = 0u;
 129:Generated_Source\PSoC4/EZI2C_1.c ****     }
 130:Generated_Source\PSoC4/EZI2C_1.c ****     else
 131:Generated_Source\PSoC4/EZI2C_1.c ****     {
 132:Generated_Source\PSoC4/EZI2C_1.c ****         /* Initialization was done before this function call */
 133:Generated_Source\PSoC4/EZI2C_1.c ****     }
 134:Generated_Source\PSoC4/EZI2C_1.c **** 
 135:Generated_Source\PSoC4/EZI2C_1.c **** #elif (EZI2C_1_SCB_MODE_I2C_CONST_CFG)
 136:Generated_Source\PSoC4/EZI2C_1.c ****     EZI2C_1_I2CInit();
 137:Generated_Source\PSoC4/EZI2C_1.c **** 
 138:Generated_Source\PSoC4/EZI2C_1.c **** #elif (EZI2C_1_SCB_MODE_SPI_CONST_CFG)
 139:Generated_Source\PSoC4/EZI2C_1.c ****     EZI2C_1_SpiInit();
 140:Generated_Source\PSoC4/EZI2C_1.c **** 
 141:Generated_Source\PSoC4/EZI2C_1.c **** #elif (EZI2C_1_SCB_MODE_UART_CONST_CFG)
 142:Generated_Source\PSoC4/EZI2C_1.c ****     EZI2C_1_UartInit();
 143:Generated_Source\PSoC4/EZI2C_1.c **** 
 144:Generated_Source\PSoC4/EZI2C_1.c **** #elif (EZI2C_1_SCB_MODE_EZI2C_CONST_CFG)
 145:Generated_Source\PSoC4/EZI2C_1.c ****     EZI2C_1_EzI2CInit();
  46              		.loc 1 145 0
  47 0004 FFF7FEFF 		bl	EZI2C_1_EzI2CInit
 146:Generated_Source\PSoC4/EZI2C_1.c **** 
 147:Generated_Source\PSoC4/EZI2C_1.c **** #endif /* (EZI2C_1_SCB_MODE_UNCONFIG_CONST_CFG) */
 148:Generated_Source\PSoC4/EZI2C_1.c **** }
  48              		.loc 1 148 0
  49 0008 BD46     		mov	sp, r7
  50              		@ sp needed
  51 000a 80BD     		pop	{r7, pc}
  52              		.cfi_endproc
  53              	.LFE1:
  54              		.size	EZI2C_1_Init, .-EZI2C_1_Init
  55              		.section	.text.EZI2C_1_Enable,"ax",%progbits
  56              		.align	2
  57              		.global	EZI2C_1_Enable
  58              		.code	16
  59              		.thumb_func
  60              		.type	EZI2C_1_Enable, %function
  61              	EZI2C_1_Enable:
  62              	.LFB2:
 149:Generated_Source\PSoC4/EZI2C_1.c **** 
 150:Generated_Source\PSoC4/EZI2C_1.c **** 
 151:Generated_Source\PSoC4/EZI2C_1.c **** /*******************************************************************************
 152:Generated_Source\PSoC4/EZI2C_1.c **** * Function Name: EZI2C_1_Enable
 153:Generated_Source\PSoC4/EZI2C_1.c **** ****************************************************************************//**
 154:Generated_Source\PSoC4/EZI2C_1.c **** *
 155:Generated_Source\PSoC4/EZI2C_1.c **** *  Enables EZI2C_1 component operation: activates the hardware and 
 156:Generated_Source\PSoC4/EZI2C_1.c **** *  internal interrupt. It also restores TX interrupt sources disabled after the 
 157:Generated_Source\PSoC4/EZI2C_1.c **** *  EZI2C_1_Stop() function was called (note that level-triggered TX 
 158:Generated_Source\PSoC4/EZI2C_1.c **** *  interrupt sources remain disabled to not cause code lock-up).
 159:Generated_Source\PSoC4/EZI2C_1.c **** *  For I2C and EZI2C modes the interrupt is internal and mandatory for 
 160:Generated_Source\PSoC4/EZI2C_1.c **** *  operation. For SPI and UART modes the interrupt can be configured as none, 
 161:Generated_Source\PSoC4/EZI2C_1.c **** *  internal or external.
 162:Generated_Source\PSoC4/EZI2C_1.c **** *  The EZI2C_1 configuration should be not changed when the component
 163:Generated_Source\PSoC4/EZI2C_1.c **** *  is enabled. Any configuration changes should be made after disabling the 
 164:Generated_Source\PSoC4/EZI2C_1.c **** *  component.
 165:Generated_Source\PSoC4/EZI2C_1.c **** *  When configuration is set to “Unconfigured EZI2C_1”, the component 
 166:Generated_Source\PSoC4/EZI2C_1.c **** *  must first be initialized to operate in one of the following configurations: 
ARM GAS  C:\Users\fneves\AppData\Local\Temp\cce2Gss9.s 			page 5


 167:Generated_Source\PSoC4/EZI2C_1.c **** *  I2C, SPI, UART or EZ I2C, using the mode-specific initialization API. 
 168:Generated_Source\PSoC4/EZI2C_1.c **** *  Otherwise this function does not enable the component.
 169:Generated_Source\PSoC4/EZI2C_1.c **** *
 170:Generated_Source\PSoC4/EZI2C_1.c **** *******************************************************************************/
 171:Generated_Source\PSoC4/EZI2C_1.c **** void EZI2C_1_Enable(void)
 172:Generated_Source\PSoC4/EZI2C_1.c **** {
  63              		.loc 1 172 0
  64              		.cfi_startproc
  65 0000 80B5     		push	{r7, lr}
  66              		.cfi_def_cfa_offset 8
  67              		.cfi_offset 7, -8
  68              		.cfi_offset 14, -4
  69 0002 00AF     		add	r7, sp, #0
  70              		.cfi_def_cfa_register 7
 173:Generated_Source\PSoC4/EZI2C_1.c **** #if (EZI2C_1_SCB_MODE_UNCONFIG_CONST_CFG)
 174:Generated_Source\PSoC4/EZI2C_1.c ****     /* Enable SCB block, only if it is already configured */
 175:Generated_Source\PSoC4/EZI2C_1.c ****     if (!EZI2C_1_SCB_MODE_UNCONFIG_RUNTM_CFG)
 176:Generated_Source\PSoC4/EZI2C_1.c ****     {
 177:Generated_Source\PSoC4/EZI2C_1.c ****         EZI2C_1_CTRL_REG |= EZI2C_1_CTRL_ENABLED;
 178:Generated_Source\PSoC4/EZI2C_1.c **** 
 179:Generated_Source\PSoC4/EZI2C_1.c ****         EZI2C_1_ScbEnableIntr();
 180:Generated_Source\PSoC4/EZI2C_1.c **** 
 181:Generated_Source\PSoC4/EZI2C_1.c ****         /* Call PostEnable function specific to current operation mode */
 182:Generated_Source\PSoC4/EZI2C_1.c ****         EZI2C_1_ScbModePostEnable();
 183:Generated_Source\PSoC4/EZI2C_1.c ****     }
 184:Generated_Source\PSoC4/EZI2C_1.c **** #else
 185:Generated_Source\PSoC4/EZI2C_1.c ****     EZI2C_1_CTRL_REG |= EZI2C_1_CTRL_ENABLED;
  71              		.loc 1 185 0
  72 0004 064B     		ldr	r3, .L3
  73 0006 064A     		ldr	r2, .L3
  74 0008 1268     		ldr	r2, [r2]
  75 000a 8021     		mov	r1, #128
  76 000c 0906     		lsl	r1, r1, #24
  77 000e 0A43     		orr	r2, r1
  78 0010 1A60     		str	r2, [r3]
 186:Generated_Source\PSoC4/EZI2C_1.c **** 
 187:Generated_Source\PSoC4/EZI2C_1.c ****     EZI2C_1_ScbEnableIntr();
  79              		.loc 1 187 0
  80 0012 FFF7FEFF 		bl	EZI2C_1_ScbEnableIntr
 188:Generated_Source\PSoC4/EZI2C_1.c **** 
 189:Generated_Source\PSoC4/EZI2C_1.c ****     /* Call PostEnable function specific to current operation mode */
 190:Generated_Source\PSoC4/EZI2C_1.c ****     EZI2C_1_ScbModePostEnable();
  81              		.loc 1 190 0
  82 0016 FFF7FEFF 		bl	EZI2C_1_ScbModePostEnable
 191:Generated_Source\PSoC4/EZI2C_1.c **** #endif /* (EZI2C_1_SCB_MODE_UNCONFIG_CONST_CFG) */
 192:Generated_Source\PSoC4/EZI2C_1.c **** }
  83              		.loc 1 192 0
  84 001a BD46     		mov	sp, r7
  85              		@ sp needed
  86 001c 80BD     		pop	{r7, pc}
  87              	.L4:
  88 001e C046     		.align	2
  89              	.L3:
  90 0020 00000740 		.word	1074200576
  91              		.cfi_endproc
  92              	.LFE2:
  93              		.size	EZI2C_1_Enable, .-EZI2C_1_Enable
ARM GAS  C:\Users\fneves\AppData\Local\Temp\cce2Gss9.s 			page 6


  94              		.section	.text.EZI2C_1_Start,"ax",%progbits
  95              		.align	2
  96              		.global	EZI2C_1_Start
  97              		.code	16
  98              		.thumb_func
  99              		.type	EZI2C_1_Start, %function
 100              	EZI2C_1_Start:
 101              	.LFB3:
 193:Generated_Source\PSoC4/EZI2C_1.c **** 
 194:Generated_Source\PSoC4/EZI2C_1.c **** 
 195:Generated_Source\PSoC4/EZI2C_1.c **** /*******************************************************************************
 196:Generated_Source\PSoC4/EZI2C_1.c **** * Function Name: EZI2C_1_Start
 197:Generated_Source\PSoC4/EZI2C_1.c **** ****************************************************************************//**
 198:Generated_Source\PSoC4/EZI2C_1.c **** *
 199:Generated_Source\PSoC4/EZI2C_1.c **** *  Invokes EZI2C_1_Init() and EZI2C_1_Enable().
 200:Generated_Source\PSoC4/EZI2C_1.c **** *  After this function call, the component is enabled and ready for operation.
 201:Generated_Source\PSoC4/EZI2C_1.c **** *  When configuration is set to "Unconfigured SCB", the component must first be
 202:Generated_Source\PSoC4/EZI2C_1.c **** *  initialized to operate in one of the following configurations: I2C, SPI, UART
 203:Generated_Source\PSoC4/EZI2C_1.c **** *  or EZI2C. Otherwise this function does not enable the component.
 204:Generated_Source\PSoC4/EZI2C_1.c **** *
 205:Generated_Source\PSoC4/EZI2C_1.c **** * \globalvars
 206:Generated_Source\PSoC4/EZI2C_1.c **** *  EZI2C_1_initVar - used to check initial configuration, modified
 207:Generated_Source\PSoC4/EZI2C_1.c **** *  on first function call.
 208:Generated_Source\PSoC4/EZI2C_1.c **** *
 209:Generated_Source\PSoC4/EZI2C_1.c **** *******************************************************************************/
 210:Generated_Source\PSoC4/EZI2C_1.c **** void EZI2C_1_Start(void)
 211:Generated_Source\PSoC4/EZI2C_1.c **** {
 102              		.loc 1 211 0
 103              		.cfi_startproc
 104 0000 80B5     		push	{r7, lr}
 105              		.cfi_def_cfa_offset 8
 106              		.cfi_offset 7, -8
 107              		.cfi_offset 14, -4
 108 0002 00AF     		add	r7, sp, #0
 109              		.cfi_def_cfa_register 7
 212:Generated_Source\PSoC4/EZI2C_1.c ****     if (0u == EZI2C_1_initVar)
 110              		.loc 1 212 0
 111 0004 064B     		ldr	r3, .L7
 112 0006 1B78     		ldrb	r3, [r3]
 113 0008 002B     		cmp	r3, #0
 114 000a 04D1     		bne	.L6
 213:Generated_Source\PSoC4/EZI2C_1.c ****     {
 214:Generated_Source\PSoC4/EZI2C_1.c ****         EZI2C_1_Init();
 115              		.loc 1 214 0
 116 000c FFF7FEFF 		bl	EZI2C_1_Init
 215:Generated_Source\PSoC4/EZI2C_1.c ****         EZI2C_1_initVar = 1u; /* Component was initialized */
 117              		.loc 1 215 0
 118 0010 034B     		ldr	r3, .L7
 119 0012 0122     		mov	r2, #1
 120 0014 1A70     		strb	r2, [r3]
 121              	.L6:
 216:Generated_Source\PSoC4/EZI2C_1.c ****     }
 217:Generated_Source\PSoC4/EZI2C_1.c **** 
 218:Generated_Source\PSoC4/EZI2C_1.c ****     EZI2C_1_Enable();
 122              		.loc 1 218 0
 123 0016 FFF7FEFF 		bl	EZI2C_1_Enable
 219:Generated_Source\PSoC4/EZI2C_1.c **** }
ARM GAS  C:\Users\fneves\AppData\Local\Temp\cce2Gss9.s 			page 7


 124              		.loc 1 219 0
 125 001a BD46     		mov	sp, r7
 126              		@ sp needed
 127 001c 80BD     		pop	{r7, pc}
 128              	.L8:
 129 001e C046     		.align	2
 130              	.L7:
 131 0020 00000000 		.word	EZI2C_1_initVar
 132              		.cfi_endproc
 133              	.LFE3:
 134              		.size	EZI2C_1_Start, .-EZI2C_1_Start
 135              		.section	.text.EZI2C_1_Stop,"ax",%progbits
 136              		.align	2
 137              		.global	EZI2C_1_Stop
 138              		.code	16
 139              		.thumb_func
 140              		.type	EZI2C_1_Stop, %function
 141              	EZI2C_1_Stop:
 142              	.LFB4:
 220:Generated_Source\PSoC4/EZI2C_1.c **** 
 221:Generated_Source\PSoC4/EZI2C_1.c **** 
 222:Generated_Source\PSoC4/EZI2C_1.c **** /*******************************************************************************
 223:Generated_Source\PSoC4/EZI2C_1.c **** * Function Name: EZI2C_1_Stop
 224:Generated_Source\PSoC4/EZI2C_1.c **** ****************************************************************************//**
 225:Generated_Source\PSoC4/EZI2C_1.c **** *
 226:Generated_Source\PSoC4/EZI2C_1.c **** *  Disables the EZI2C_1 component: disable the hardware and internal 
 227:Generated_Source\PSoC4/EZI2C_1.c **** *  interrupt. It also disables all TX interrupt sources so as not to cause an 
 228:Generated_Source\PSoC4/EZI2C_1.c **** *  unexpected interrupt trigger because after the component is enabled, the 
 229:Generated_Source\PSoC4/EZI2C_1.c **** *  TX FIFO is empty.
 230:Generated_Source\PSoC4/EZI2C_1.c **** *  Refer to the function EZI2C_1_Enable() for the interrupt 
 231:Generated_Source\PSoC4/EZI2C_1.c **** *  configuration details.
 232:Generated_Source\PSoC4/EZI2C_1.c **** *  This function disables the SCB component without checking to see if 
 233:Generated_Source\PSoC4/EZI2C_1.c **** *  communication is in progress. Before calling this function it may be 
 234:Generated_Source\PSoC4/EZI2C_1.c **** *  necessary to check the status of communication to make sure communication 
 235:Generated_Source\PSoC4/EZI2C_1.c **** *  is complete. If this is not done then communication could be stopped mid 
 236:Generated_Source\PSoC4/EZI2C_1.c **** *  byte and corrupted data could result.
 237:Generated_Source\PSoC4/EZI2C_1.c **** *
 238:Generated_Source\PSoC4/EZI2C_1.c **** *******************************************************************************/
 239:Generated_Source\PSoC4/EZI2C_1.c **** void EZI2C_1_Stop(void)
 240:Generated_Source\PSoC4/EZI2C_1.c **** {
 143              		.loc 1 240 0
 144              		.cfi_startproc
 145 0000 80B5     		push	{r7, lr}
 146              		.cfi_def_cfa_offset 8
 147              		.cfi_offset 7, -8
 148              		.cfi_offset 14, -4
 149 0002 00AF     		add	r7, sp, #0
 150              		.cfi_def_cfa_register 7
 241:Generated_Source\PSoC4/EZI2C_1.c **** #if (EZI2C_1_SCB_IRQ_INTERNAL)
 242:Generated_Source\PSoC4/EZI2C_1.c ****     EZI2C_1_DisableInt();
 151              		.loc 1 242 0
 152 0004 0820     		mov	r0, #8
 153 0006 FFF7FEFF 		bl	CyIntDisable
 243:Generated_Source\PSoC4/EZI2C_1.c **** #endif /* (EZI2C_1_SCB_IRQ_INTERNAL) */
 244:Generated_Source\PSoC4/EZI2C_1.c **** 
 245:Generated_Source\PSoC4/EZI2C_1.c ****     /* Call Stop function specific to current operation mode */
 246:Generated_Source\PSoC4/EZI2C_1.c ****     EZI2C_1_ScbModeStop();
ARM GAS  C:\Users\fneves\AppData\Local\Temp\cce2Gss9.s 			page 8


 154              		.loc 1 246 0
 155 000a FFF7FEFF 		bl	EZI2C_1_ScbModeStop
 247:Generated_Source\PSoC4/EZI2C_1.c **** 
 248:Generated_Source\PSoC4/EZI2C_1.c ****     /* Disable SCB IP */
 249:Generated_Source\PSoC4/EZI2C_1.c ****     EZI2C_1_CTRL_REG &= (uint32) ~EZI2C_1_CTRL_ENABLED;
 156              		.loc 1 249 0
 157 000e 074B     		ldr	r3, .L10
 158 0010 064A     		ldr	r2, .L10
 159 0012 1268     		ldr	r2, [r2]
 160 0014 5200     		lsl	r2, r2, #1
 161 0016 5208     		lsr	r2, r2, #1
 162 0018 1A60     		str	r2, [r3]
 250:Generated_Source\PSoC4/EZI2C_1.c **** 
 251:Generated_Source\PSoC4/EZI2C_1.c ****     /* Disable all TX interrupt sources so as not to cause an unexpected
 252:Generated_Source\PSoC4/EZI2C_1.c ****     * interrupt trigger after the component will be enabled because the 
 253:Generated_Source\PSoC4/EZI2C_1.c ****     * TX FIFO is empty.
 254:Generated_Source\PSoC4/EZI2C_1.c ****     * For SCB IP v0, it is critical as it does not mask-out interrupt
 255:Generated_Source\PSoC4/EZI2C_1.c ****     * sources when it is disabled. This can cause a code lock-up in the
 256:Generated_Source\PSoC4/EZI2C_1.c ****     * interrupt handler because TX FIFO cannot be loaded after the block
 257:Generated_Source\PSoC4/EZI2C_1.c ****     * is disabled.
 258:Generated_Source\PSoC4/EZI2C_1.c ****     */
 259:Generated_Source\PSoC4/EZI2C_1.c ****     EZI2C_1_SetTxInterruptMode(EZI2C_1_NO_INTR_SOURCES);
 163              		.loc 1 259 0
 164 001a 054B     		ldr	r3, .L10+4
 165 001c 0022     		mov	r2, #0
 166 001e 1A60     		str	r2, [r3]
 260:Generated_Source\PSoC4/EZI2C_1.c **** 
 261:Generated_Source\PSoC4/EZI2C_1.c **** #if (EZI2C_1_SCB_IRQ_INTERNAL)
 262:Generated_Source\PSoC4/EZI2C_1.c ****     EZI2C_1_ClearPendingInt();
 167              		.loc 1 262 0
 168 0020 0820     		mov	r0, #8
 169 0022 FFF7FEFF 		bl	CyIntClearPending
 263:Generated_Source\PSoC4/EZI2C_1.c **** #endif /* (EZI2C_1_SCB_IRQ_INTERNAL) */
 264:Generated_Source\PSoC4/EZI2C_1.c **** }
 170              		.loc 1 264 0
 171 0026 BD46     		mov	sp, r7
 172              		@ sp needed
 173 0028 80BD     		pop	{r7, pc}
 174              	.L11:
 175 002a C046     		.align	2
 176              	.L10:
 177 002c 00000740 		.word	1074200576
 178 0030 880F0740 		.word	1074204552
 179              		.cfi_endproc
 180              	.LFE4:
 181              		.size	EZI2C_1_Stop, .-EZI2C_1_Stop
 182              		.section	.text.EZI2C_1_SetRxFifoLevel,"ax",%progbits
 183              		.align	2
 184              		.global	EZI2C_1_SetRxFifoLevel
 185              		.code	16
 186              		.thumb_func
 187              		.type	EZI2C_1_SetRxFifoLevel, %function
 188              	EZI2C_1_SetRxFifoLevel:
 189              	.LFB5:
 265:Generated_Source\PSoC4/EZI2C_1.c **** 
 266:Generated_Source\PSoC4/EZI2C_1.c **** 
 267:Generated_Source\PSoC4/EZI2C_1.c **** /*******************************************************************************
ARM GAS  C:\Users\fneves\AppData\Local\Temp\cce2Gss9.s 			page 9


 268:Generated_Source\PSoC4/EZI2C_1.c **** * Function Name: EZI2C_1_SetRxFifoLevel
 269:Generated_Source\PSoC4/EZI2C_1.c **** ****************************************************************************//**
 270:Generated_Source\PSoC4/EZI2C_1.c **** *
 271:Generated_Source\PSoC4/EZI2C_1.c **** *  Sets level in the RX FIFO to generate a RX level interrupt.
 272:Generated_Source\PSoC4/EZI2C_1.c **** *  When the RX FIFO has more entries than the RX FIFO level an RX level
 273:Generated_Source\PSoC4/EZI2C_1.c **** *  interrupt request is generated.
 274:Generated_Source\PSoC4/EZI2C_1.c **** *
 275:Generated_Source\PSoC4/EZI2C_1.c **** *  \param level: Level in the RX FIFO to generate RX level interrupt.
 276:Generated_Source\PSoC4/EZI2C_1.c **** *   The range of valid level values is between 0 and RX FIFO depth - 1.
 277:Generated_Source\PSoC4/EZI2C_1.c **** *
 278:Generated_Source\PSoC4/EZI2C_1.c **** *******************************************************************************/
 279:Generated_Source\PSoC4/EZI2C_1.c **** void EZI2C_1_SetRxFifoLevel(uint32 level)
 280:Generated_Source\PSoC4/EZI2C_1.c **** {
 190              		.loc 1 280 0
 191              		.cfi_startproc
 192 0000 80B5     		push	{r7, lr}
 193              		.cfi_def_cfa_offset 8
 194              		.cfi_offset 7, -8
 195              		.cfi_offset 14, -4
 196 0002 84B0     		sub	sp, sp, #16
 197              		.cfi_def_cfa_offset 24
 198 0004 00AF     		add	r7, sp, #0
 199              		.cfi_def_cfa_register 7
 200 0006 7860     		str	r0, [r7, #4]
 281:Generated_Source\PSoC4/EZI2C_1.c ****     uint32 rxFifoCtrl;
 282:Generated_Source\PSoC4/EZI2C_1.c **** 
 283:Generated_Source\PSoC4/EZI2C_1.c ****     rxFifoCtrl = EZI2C_1_RX_FIFO_CTRL_REG;
 201              		.loc 1 283 0
 202 0008 094B     		ldr	r3, .L13
 203 000a 1B68     		ldr	r3, [r3]
 204 000c FB60     		str	r3, [r7, #12]
 284:Generated_Source\PSoC4/EZI2C_1.c **** 
 285:Generated_Source\PSoC4/EZI2C_1.c ****     rxFifoCtrl &= ((uint32) ~EZI2C_1_RX_FIFO_CTRL_TRIGGER_LEVEL_MASK); /* Clear level mask bits */
 205              		.loc 1 285 0
 206 000e FB68     		ldr	r3, [r7, #12]
 207 0010 0F22     		mov	r2, #15
 208 0012 9343     		bic	r3, r2
 209 0014 FB60     		str	r3, [r7, #12]
 286:Generated_Source\PSoC4/EZI2C_1.c ****     rxFifoCtrl |= ((uint32) (EZI2C_1_RX_FIFO_CTRL_TRIGGER_LEVEL_MASK & level));
 210              		.loc 1 286 0
 211 0016 7B68     		ldr	r3, [r7, #4]
 212 0018 0F22     		mov	r2, #15
 213 001a 1340     		and	r3, r2
 214 001c FA68     		ldr	r2, [r7, #12]
 215 001e 1343     		orr	r3, r2
 216 0020 FB60     		str	r3, [r7, #12]
 287:Generated_Source\PSoC4/EZI2C_1.c **** 
 288:Generated_Source\PSoC4/EZI2C_1.c ****     EZI2C_1_RX_FIFO_CTRL_REG = rxFifoCtrl;
 217              		.loc 1 288 0
 218 0022 034B     		ldr	r3, .L13
 219 0024 FA68     		ldr	r2, [r7, #12]
 220 0026 1A60     		str	r2, [r3]
 289:Generated_Source\PSoC4/EZI2C_1.c **** }
 221              		.loc 1 289 0
 222 0028 BD46     		mov	sp, r7
 223 002a 04B0     		add	sp, sp, #16
 224              		@ sp needed
ARM GAS  C:\Users\fneves\AppData\Local\Temp\cce2Gss9.s 			page 10


 225 002c 80BD     		pop	{r7, pc}
 226              	.L14:
 227 002e C046     		.align	2
 228              	.L13:
 229 0030 04030740 		.word	1074201348
 230              		.cfi_endproc
 231              	.LFE5:
 232              		.size	EZI2C_1_SetRxFifoLevel, .-EZI2C_1_SetRxFifoLevel
 233              		.section	.text.EZI2C_1_SetTxFifoLevel,"ax",%progbits
 234              		.align	2
 235              		.global	EZI2C_1_SetTxFifoLevel
 236              		.code	16
 237              		.thumb_func
 238              		.type	EZI2C_1_SetTxFifoLevel, %function
 239              	EZI2C_1_SetTxFifoLevel:
 240              	.LFB6:
 290:Generated_Source\PSoC4/EZI2C_1.c **** 
 291:Generated_Source\PSoC4/EZI2C_1.c **** 
 292:Generated_Source\PSoC4/EZI2C_1.c **** /*******************************************************************************
 293:Generated_Source\PSoC4/EZI2C_1.c **** * Function Name: EZI2C_1_SetTxFifoLevel
 294:Generated_Source\PSoC4/EZI2C_1.c **** ****************************************************************************//**
 295:Generated_Source\PSoC4/EZI2C_1.c **** *
 296:Generated_Source\PSoC4/EZI2C_1.c **** *  Sets level in the TX FIFO to generate a TX level interrupt.
 297:Generated_Source\PSoC4/EZI2C_1.c **** *  When the TX FIFO has less entries than the TX FIFO level an TX level
 298:Generated_Source\PSoC4/EZI2C_1.c **** *  interrupt request is generated.
 299:Generated_Source\PSoC4/EZI2C_1.c **** *
 300:Generated_Source\PSoC4/EZI2C_1.c **** *  \param level: Level in the TX FIFO to generate TX level interrupt.
 301:Generated_Source\PSoC4/EZI2C_1.c **** *   The range of valid level values is between 0 and TX FIFO depth - 1.
 302:Generated_Source\PSoC4/EZI2C_1.c **** *
 303:Generated_Source\PSoC4/EZI2C_1.c **** *******************************************************************************/
 304:Generated_Source\PSoC4/EZI2C_1.c **** void EZI2C_1_SetTxFifoLevel(uint32 level)
 305:Generated_Source\PSoC4/EZI2C_1.c **** {
 241              		.loc 1 305 0
 242              		.cfi_startproc
 243 0000 80B5     		push	{r7, lr}
 244              		.cfi_def_cfa_offset 8
 245              		.cfi_offset 7, -8
 246              		.cfi_offset 14, -4
 247 0002 84B0     		sub	sp, sp, #16
 248              		.cfi_def_cfa_offset 24
 249 0004 00AF     		add	r7, sp, #0
 250              		.cfi_def_cfa_register 7
 251 0006 7860     		str	r0, [r7, #4]
 306:Generated_Source\PSoC4/EZI2C_1.c ****     uint32 txFifoCtrl;
 307:Generated_Source\PSoC4/EZI2C_1.c **** 
 308:Generated_Source\PSoC4/EZI2C_1.c ****     txFifoCtrl = EZI2C_1_TX_FIFO_CTRL_REG;
 252              		.loc 1 308 0
 253 0008 094B     		ldr	r3, .L16
 254 000a 1B68     		ldr	r3, [r3]
 255 000c FB60     		str	r3, [r7, #12]
 309:Generated_Source\PSoC4/EZI2C_1.c **** 
 310:Generated_Source\PSoC4/EZI2C_1.c ****     txFifoCtrl &= ((uint32) ~EZI2C_1_TX_FIFO_CTRL_TRIGGER_LEVEL_MASK); /* Clear level mask bits */
 256              		.loc 1 310 0
 257 000e FB68     		ldr	r3, [r7, #12]
 258 0010 0F22     		mov	r2, #15
 259 0012 9343     		bic	r3, r2
 260 0014 FB60     		str	r3, [r7, #12]
ARM GAS  C:\Users\fneves\AppData\Local\Temp\cce2Gss9.s 			page 11


 311:Generated_Source\PSoC4/EZI2C_1.c ****     txFifoCtrl |= ((uint32) (EZI2C_1_TX_FIFO_CTRL_TRIGGER_LEVEL_MASK & level));
 261              		.loc 1 311 0
 262 0016 7B68     		ldr	r3, [r7, #4]
 263 0018 0F22     		mov	r2, #15
 264 001a 1340     		and	r3, r2
 265 001c FA68     		ldr	r2, [r7, #12]
 266 001e 1343     		orr	r3, r2
 267 0020 FB60     		str	r3, [r7, #12]
 312:Generated_Source\PSoC4/EZI2C_1.c **** 
 313:Generated_Source\PSoC4/EZI2C_1.c ****     EZI2C_1_TX_FIFO_CTRL_REG = txFifoCtrl;
 268              		.loc 1 313 0
 269 0022 034B     		ldr	r3, .L16
 270 0024 FA68     		ldr	r2, [r7, #12]
 271 0026 1A60     		str	r2, [r3]
 314:Generated_Source\PSoC4/EZI2C_1.c **** }
 272              		.loc 1 314 0
 273 0028 BD46     		mov	sp, r7
 274 002a 04B0     		add	sp, sp, #16
 275              		@ sp needed
 276 002c 80BD     		pop	{r7, pc}
 277              	.L17:
 278 002e C046     		.align	2
 279              	.L16:
 280 0030 04020740 		.word	1074201092
 281              		.cfi_endproc
 282              	.LFE6:
 283              		.size	EZI2C_1_SetTxFifoLevel, .-EZI2C_1_SetTxFifoLevel
 284              		.section	.text.EZI2C_1_SetCustomInterruptHandler,"ax",%progbits
 285              		.align	2
 286              		.global	EZI2C_1_SetCustomInterruptHandler
 287              		.code	16
 288              		.thumb_func
 289              		.type	EZI2C_1_SetCustomInterruptHandler, %function
 290              	EZI2C_1_SetCustomInterruptHandler:
 291              	.LFB7:
 315:Generated_Source\PSoC4/EZI2C_1.c **** 
 316:Generated_Source\PSoC4/EZI2C_1.c **** 
 317:Generated_Source\PSoC4/EZI2C_1.c **** #if (EZI2C_1_SCB_IRQ_INTERNAL)
 318:Generated_Source\PSoC4/EZI2C_1.c ****     /*******************************************************************************
 319:Generated_Source\PSoC4/EZI2C_1.c ****     * Function Name: EZI2C_1_SetCustomInterruptHandler
 320:Generated_Source\PSoC4/EZI2C_1.c ****     ****************************************************************************//**
 321:Generated_Source\PSoC4/EZI2C_1.c ****     *
 322:Generated_Source\PSoC4/EZI2C_1.c ****     *  Registers a function to be called by the internal interrupt handler.
 323:Generated_Source\PSoC4/EZI2C_1.c ****     *  First the function that is registered is called, then the internal interrupt
 324:Generated_Source\PSoC4/EZI2C_1.c ****     *  handler performs any operation such as software buffer management functions
 325:Generated_Source\PSoC4/EZI2C_1.c ****     *  before the interrupt returns.  It is the user's responsibility not to break
 326:Generated_Source\PSoC4/EZI2C_1.c ****     *  the software buffer operations. Only one custom handler is supported, which
 327:Generated_Source\PSoC4/EZI2C_1.c ****     *  is the function provided by the most recent call.
 328:Generated_Source\PSoC4/EZI2C_1.c ****     *  At the initialization time no custom handler is registered.
 329:Generated_Source\PSoC4/EZI2C_1.c ****     *
 330:Generated_Source\PSoC4/EZI2C_1.c ****     *  \param func: Pointer to the function to register.
 331:Generated_Source\PSoC4/EZI2C_1.c ****     *        The value NULL indicates to remove the current custom interrupt
 332:Generated_Source\PSoC4/EZI2C_1.c ****     *        handler.
 333:Generated_Source\PSoC4/EZI2C_1.c ****     *
 334:Generated_Source\PSoC4/EZI2C_1.c ****     *******************************************************************************/
 335:Generated_Source\PSoC4/EZI2C_1.c ****     void EZI2C_1_SetCustomInterruptHandler(void (*func)(void))
 336:Generated_Source\PSoC4/EZI2C_1.c ****     {
ARM GAS  C:\Users\fneves\AppData\Local\Temp\cce2Gss9.s 			page 12


 292              		.loc 1 336 0
 293              		.cfi_startproc
 294 0000 80B5     		push	{r7, lr}
 295              		.cfi_def_cfa_offset 8
 296              		.cfi_offset 7, -8
 297              		.cfi_offset 14, -4
 298 0002 82B0     		sub	sp, sp, #8
 299              		.cfi_def_cfa_offset 16
 300 0004 00AF     		add	r7, sp, #0
 301              		.cfi_def_cfa_register 7
 302 0006 7860     		str	r0, [r7, #4]
 337:Generated_Source\PSoC4/EZI2C_1.c ****     #if !defined (CY_REMOVE_EZI2C_1_CUSTOM_INTR_HANDLER)
 338:Generated_Source\PSoC4/EZI2C_1.c ****         EZI2C_1_customIntrHandler = func; /* Register interrupt handler */
 303              		.loc 1 338 0
 304 0008 024B     		ldr	r3, .L19
 305 000a 7A68     		ldr	r2, [r7, #4]
 306 000c 1A60     		str	r2, [r3]
 339:Generated_Source\PSoC4/EZI2C_1.c ****     #else
 340:Generated_Source\PSoC4/EZI2C_1.c ****         if (NULL != func)
 341:Generated_Source\PSoC4/EZI2C_1.c ****         {
 342:Generated_Source\PSoC4/EZI2C_1.c ****             /* Suppress compiler warning */
 343:Generated_Source\PSoC4/EZI2C_1.c ****         }
 344:Generated_Source\PSoC4/EZI2C_1.c ****     #endif /* !defined (CY_REMOVE_EZI2C_1_CUSTOM_INTR_HANDLER) */
 345:Generated_Source\PSoC4/EZI2C_1.c ****     }
 307              		.loc 1 345 0
 308 000e BD46     		mov	sp, r7
 309 0010 02B0     		add	sp, sp, #8
 310              		@ sp needed
 311 0012 80BD     		pop	{r7, pc}
 312              	.L20:
 313              		.align	2
 314              	.L19:
 315 0014 00000000 		.word	EZI2C_1_customIntrHandler
 316              		.cfi_endproc
 317              	.LFE7:
 318              		.size	EZI2C_1_SetCustomInterruptHandler, .-EZI2C_1_SetCustomInterruptHandler
 319              		.section	.text.EZI2C_1_ScbEnableIntr,"ax",%progbits
 320              		.align	2
 321              		.code	16
 322              		.thumb_func
 323              		.type	EZI2C_1_ScbEnableIntr, %function
 324              	EZI2C_1_ScbEnableIntr:
 325              	.LFB8:
 346:Generated_Source\PSoC4/EZI2C_1.c **** #endif /* (EZI2C_1_SCB_IRQ_INTERNAL) */
 347:Generated_Source\PSoC4/EZI2C_1.c **** 
 348:Generated_Source\PSoC4/EZI2C_1.c **** 
 349:Generated_Source\PSoC4/EZI2C_1.c **** /*******************************************************************************
 350:Generated_Source\PSoC4/EZI2C_1.c **** * Function Name: EZI2C_1_ScbModeEnableIntr
 351:Generated_Source\PSoC4/EZI2C_1.c **** ****************************************************************************//**
 352:Generated_Source\PSoC4/EZI2C_1.c **** *
 353:Generated_Source\PSoC4/EZI2C_1.c **** *  Enables an interrupt for a specific mode.
 354:Generated_Source\PSoC4/EZI2C_1.c **** *
 355:Generated_Source\PSoC4/EZI2C_1.c **** *******************************************************************************/
 356:Generated_Source\PSoC4/EZI2C_1.c **** static void EZI2C_1_ScbEnableIntr(void)
 357:Generated_Source\PSoC4/EZI2C_1.c **** {
 326              		.loc 1 357 0
 327              		.cfi_startproc
ARM GAS  C:\Users\fneves\AppData\Local\Temp\cce2Gss9.s 			page 13


 328 0000 80B5     		push	{r7, lr}
 329              		.cfi_def_cfa_offset 8
 330              		.cfi_offset 7, -8
 331              		.cfi_offset 14, -4
 332 0002 00AF     		add	r7, sp, #0
 333              		.cfi_def_cfa_register 7
 358:Generated_Source\PSoC4/EZI2C_1.c **** #if (EZI2C_1_SCB_IRQ_INTERNAL)
 359:Generated_Source\PSoC4/EZI2C_1.c ****     /* Enable interrupt in NVIC */
 360:Generated_Source\PSoC4/EZI2C_1.c ****     #if (EZI2C_1_SCB_MODE_UNCONFIG_CONST_CFG)
 361:Generated_Source\PSoC4/EZI2C_1.c ****         if (0u != EZI2C_1_scbEnableIntr)
 362:Generated_Source\PSoC4/EZI2C_1.c ****         {
 363:Generated_Source\PSoC4/EZI2C_1.c ****             EZI2C_1_EnableInt();
 364:Generated_Source\PSoC4/EZI2C_1.c ****         }
 365:Generated_Source\PSoC4/EZI2C_1.c **** 
 366:Generated_Source\PSoC4/EZI2C_1.c ****     #else
 367:Generated_Source\PSoC4/EZI2C_1.c ****         EZI2C_1_EnableInt();
 334              		.loc 1 367 0
 335 0004 0820     		mov	r0, #8
 336 0006 FFF7FEFF 		bl	CyIntEnable
 368:Generated_Source\PSoC4/EZI2C_1.c **** 
 369:Generated_Source\PSoC4/EZI2C_1.c ****     #endif /* (EZI2C_1_SCB_MODE_UNCONFIG_CONST_CFG) */
 370:Generated_Source\PSoC4/EZI2C_1.c **** #endif /* (EZI2C_1_SCB_IRQ_INTERNAL) */
 371:Generated_Source\PSoC4/EZI2C_1.c **** }
 337              		.loc 1 371 0
 338 000a BD46     		mov	sp, r7
 339              		@ sp needed
 340 000c 80BD     		pop	{r7, pc}
 341              		.cfi_endproc
 342              	.LFE8:
 343              		.size	EZI2C_1_ScbEnableIntr, .-EZI2C_1_ScbEnableIntr
 344              		.section	.text.EZI2C_1_ScbModePostEnable,"ax",%progbits
 345              		.align	2
 346              		.code	16
 347              		.thumb_func
 348              		.type	EZI2C_1_ScbModePostEnable, %function
 349              	EZI2C_1_ScbModePostEnable:
 350              	.LFB9:
 372:Generated_Source\PSoC4/EZI2C_1.c **** 
 373:Generated_Source\PSoC4/EZI2C_1.c **** 
 374:Generated_Source\PSoC4/EZI2C_1.c **** /*******************************************************************************
 375:Generated_Source\PSoC4/EZI2C_1.c **** * Function Name: EZI2C_1_ScbModePostEnable
 376:Generated_Source\PSoC4/EZI2C_1.c **** ****************************************************************************//**
 377:Generated_Source\PSoC4/EZI2C_1.c **** *
 378:Generated_Source\PSoC4/EZI2C_1.c **** *  Calls the PostEnable function for a specific operation mode.
 379:Generated_Source\PSoC4/EZI2C_1.c **** *
 380:Generated_Source\PSoC4/EZI2C_1.c **** *******************************************************************************/
 381:Generated_Source\PSoC4/EZI2C_1.c **** static void EZI2C_1_ScbModePostEnable(void)
 382:Generated_Source\PSoC4/EZI2C_1.c **** {
 351              		.loc 1 382 0
 352              		.cfi_startproc
 353 0000 80B5     		push	{r7, lr}
 354              		.cfi_def_cfa_offset 8
 355              		.cfi_offset 7, -8
 356              		.cfi_offset 14, -4
 357 0002 00AF     		add	r7, sp, #0
 358              		.cfi_def_cfa_register 7
 383:Generated_Source\PSoC4/EZI2C_1.c **** #if (EZI2C_1_SCB_MODE_UNCONFIG_CONST_CFG)
ARM GAS  C:\Users\fneves\AppData\Local\Temp\cce2Gss9.s 			page 14


 384:Generated_Source\PSoC4/EZI2C_1.c **** #if (!EZI2C_1_CY_SCBIP_V1)
 385:Generated_Source\PSoC4/EZI2C_1.c ****     if (EZI2C_1_SCB_MODE_SPI_RUNTM_CFG)
 386:Generated_Source\PSoC4/EZI2C_1.c ****     {
 387:Generated_Source\PSoC4/EZI2C_1.c ****         EZI2C_1_SpiPostEnable();
 388:Generated_Source\PSoC4/EZI2C_1.c ****     }
 389:Generated_Source\PSoC4/EZI2C_1.c ****     else if (EZI2C_1_SCB_MODE_UART_RUNTM_CFG)
 390:Generated_Source\PSoC4/EZI2C_1.c ****     {
 391:Generated_Source\PSoC4/EZI2C_1.c ****         EZI2C_1_UartPostEnable();
 392:Generated_Source\PSoC4/EZI2C_1.c ****     }
 393:Generated_Source\PSoC4/EZI2C_1.c ****     else
 394:Generated_Source\PSoC4/EZI2C_1.c ****     {
 395:Generated_Source\PSoC4/EZI2C_1.c ****         /* Unknown mode: do nothing */
 396:Generated_Source\PSoC4/EZI2C_1.c ****     }
 397:Generated_Source\PSoC4/EZI2C_1.c **** #endif /* (!EZI2C_1_CY_SCBIP_V1) */
 398:Generated_Source\PSoC4/EZI2C_1.c **** 
 399:Generated_Source\PSoC4/EZI2C_1.c **** #elif (EZI2C_1_SCB_MODE_SPI_CONST_CFG)
 400:Generated_Source\PSoC4/EZI2C_1.c ****     EZI2C_1_SpiPostEnable();
 401:Generated_Source\PSoC4/EZI2C_1.c **** 
 402:Generated_Source\PSoC4/EZI2C_1.c **** #elif (EZI2C_1_SCB_MODE_UART_CONST_CFG)
 403:Generated_Source\PSoC4/EZI2C_1.c ****     EZI2C_1_UartPostEnable();
 404:Generated_Source\PSoC4/EZI2C_1.c **** 
 405:Generated_Source\PSoC4/EZI2C_1.c **** #else
 406:Generated_Source\PSoC4/EZI2C_1.c ****     /* Unknown mode: do nothing */
 407:Generated_Source\PSoC4/EZI2C_1.c **** #endif /* (EZI2C_1_SCB_MODE_UNCONFIG_CONST_CFG) */
 408:Generated_Source\PSoC4/EZI2C_1.c **** }
 359              		.loc 1 408 0
 360 0004 BD46     		mov	sp, r7
 361              		@ sp needed
 362 0006 80BD     		pop	{r7, pc}
 363              		.cfi_endproc
 364              	.LFE9:
 365              		.size	EZI2C_1_ScbModePostEnable, .-EZI2C_1_ScbModePostEnable
 366              		.section	.text.EZI2C_1_ScbModeStop,"ax",%progbits
 367              		.align	2
 368              		.code	16
 369              		.thumb_func
 370              		.type	EZI2C_1_ScbModeStop, %function
 371              	EZI2C_1_ScbModeStop:
 372              	.LFB10:
 409:Generated_Source\PSoC4/EZI2C_1.c **** 
 410:Generated_Source\PSoC4/EZI2C_1.c **** 
 411:Generated_Source\PSoC4/EZI2C_1.c **** /*******************************************************************************
 412:Generated_Source\PSoC4/EZI2C_1.c **** * Function Name: EZI2C_1_ScbModeStop
 413:Generated_Source\PSoC4/EZI2C_1.c **** ****************************************************************************//**
 414:Generated_Source\PSoC4/EZI2C_1.c **** *
 415:Generated_Source\PSoC4/EZI2C_1.c **** *  Calls the Stop function for a specific operation mode.
 416:Generated_Source\PSoC4/EZI2C_1.c **** *
 417:Generated_Source\PSoC4/EZI2C_1.c **** *******************************************************************************/
 418:Generated_Source\PSoC4/EZI2C_1.c **** static void EZI2C_1_ScbModeStop(void)
 419:Generated_Source\PSoC4/EZI2C_1.c **** {
 373              		.loc 1 419 0
 374              		.cfi_startproc
 375 0000 80B5     		push	{r7, lr}
 376              		.cfi_def_cfa_offset 8
 377              		.cfi_offset 7, -8
 378              		.cfi_offset 14, -4
 379 0002 00AF     		add	r7, sp, #0
ARM GAS  C:\Users\fneves\AppData\Local\Temp\cce2Gss9.s 			page 15


 380              		.cfi_def_cfa_register 7
 420:Generated_Source\PSoC4/EZI2C_1.c **** #if (EZI2C_1_SCB_MODE_UNCONFIG_CONST_CFG)
 421:Generated_Source\PSoC4/EZI2C_1.c ****     if (EZI2C_1_SCB_MODE_I2C_RUNTM_CFG)
 422:Generated_Source\PSoC4/EZI2C_1.c ****     {
 423:Generated_Source\PSoC4/EZI2C_1.c ****         EZI2C_1_I2CStop();
 424:Generated_Source\PSoC4/EZI2C_1.c ****     }
 425:Generated_Source\PSoC4/EZI2C_1.c ****     else if (EZI2C_1_SCB_MODE_EZI2C_RUNTM_CFG)
 426:Generated_Source\PSoC4/EZI2C_1.c ****     {
 427:Generated_Source\PSoC4/EZI2C_1.c ****         EZI2C_1_EzI2CStop();
 428:Generated_Source\PSoC4/EZI2C_1.c ****     }
 429:Generated_Source\PSoC4/EZI2C_1.c **** #if (!EZI2C_1_CY_SCBIP_V1)
 430:Generated_Source\PSoC4/EZI2C_1.c ****     else if (EZI2C_1_SCB_MODE_SPI_RUNTM_CFG)
 431:Generated_Source\PSoC4/EZI2C_1.c ****     {
 432:Generated_Source\PSoC4/EZI2C_1.c ****         EZI2C_1_SpiStop();
 433:Generated_Source\PSoC4/EZI2C_1.c ****     }
 434:Generated_Source\PSoC4/EZI2C_1.c ****     else if (EZI2C_1_SCB_MODE_UART_RUNTM_CFG)
 435:Generated_Source\PSoC4/EZI2C_1.c ****     {
 436:Generated_Source\PSoC4/EZI2C_1.c ****         EZI2C_1_UartStop();
 437:Generated_Source\PSoC4/EZI2C_1.c ****     }
 438:Generated_Source\PSoC4/EZI2C_1.c **** #endif /* (!EZI2C_1_CY_SCBIP_V1) */
 439:Generated_Source\PSoC4/EZI2C_1.c ****     else
 440:Generated_Source\PSoC4/EZI2C_1.c ****     {
 441:Generated_Source\PSoC4/EZI2C_1.c ****         /* Unknown mode: do nothing */
 442:Generated_Source\PSoC4/EZI2C_1.c ****     }
 443:Generated_Source\PSoC4/EZI2C_1.c **** #elif (EZI2C_1_SCB_MODE_I2C_CONST_CFG)
 444:Generated_Source\PSoC4/EZI2C_1.c ****     EZI2C_1_I2CStop();
 445:Generated_Source\PSoC4/EZI2C_1.c **** 
 446:Generated_Source\PSoC4/EZI2C_1.c **** #elif (EZI2C_1_SCB_MODE_EZI2C_CONST_CFG)
 447:Generated_Source\PSoC4/EZI2C_1.c ****     EZI2C_1_EzI2CStop();
 381              		.loc 1 447 0
 382 0004 FFF7FEFF 		bl	EZI2C_1_EzI2CStop
 448:Generated_Source\PSoC4/EZI2C_1.c **** 
 449:Generated_Source\PSoC4/EZI2C_1.c **** #elif (EZI2C_1_SCB_MODE_SPI_CONST_CFG)
 450:Generated_Source\PSoC4/EZI2C_1.c ****     EZI2C_1_SpiStop();
 451:Generated_Source\PSoC4/EZI2C_1.c **** 
 452:Generated_Source\PSoC4/EZI2C_1.c **** #elif (EZI2C_1_SCB_MODE_UART_CONST_CFG)
 453:Generated_Source\PSoC4/EZI2C_1.c ****     EZI2C_1_UartStop();
 454:Generated_Source\PSoC4/EZI2C_1.c **** 
 455:Generated_Source\PSoC4/EZI2C_1.c **** #else
 456:Generated_Source\PSoC4/EZI2C_1.c ****     /* Unknown mode: do nothing */
 457:Generated_Source\PSoC4/EZI2C_1.c **** #endif /* (EZI2C_1_SCB_MODE_UNCONFIG_CONST_CFG) */
 458:Generated_Source\PSoC4/EZI2C_1.c **** }
 383              		.loc 1 458 0
 384 0008 BD46     		mov	sp, r7
 385              		@ sp needed
 386 000a 80BD     		pop	{r7, pc}
 387              		.cfi_endproc
 388              	.LFE10:
 389              		.size	EZI2C_1_ScbModeStop, .-EZI2C_1_ScbModeStop
 390              		.text
 391              	.Letext0:
 392              		.file 2 "Generated_Source\\PSoC4/cytypes.h"