ARM GAS  C:\Users\fneves\AppData\Local\Temp\ccAW1o26.s 			page 1


   1              		.cpu cortex-m0plus
   2              		.fpu softvfp
   3              		.eabi_attribute 20, 1
   4              		.eabi_attribute 21, 1
   5              		.eabi_attribute 23, 3
   6              		.eabi_attribute 24, 1
   7              		.eabi_attribute 25, 1
   8              		.eabi_attribute 26, 1
   9              		.eabi_attribute 30, 6
  10              		.eabi_attribute 34, 0
  11              		.eabi_attribute 18, 4
  12              		.code	16
  13              		.file	"fix_fft.c"
  14              		.text
  15              	.Ltext0:
  16              		.cfi_sections	.debug_frame
  17              		.global	Sinewave
  18              		.section	.rodata
  19              		.align	2
  20              		.type	Sinewave, %object
  21              		.size	Sinewave, 1536
  22              	Sinewave:
  23 0000 0000     		.short	0
  24 0002 C900     		.short	201
  25 0004 9201     		.short	402
  26 0006 5B02     		.short	603
  27 0008 2403     		.short	804
  28 000a ED03     		.short	1005
  29 000c B604     		.short	1206
  30 000e 7E05     		.short	1406
  31 0010 4706     		.short	1607
  32 0012 1007     		.short	1808
  33 0014 D907     		.short	2009
  34 0016 A108     		.short	2209
  35 0018 6A09     		.short	2410
  36 001a 320A     		.short	2610
  37 001c FB0A     		.short	2811
  38 001e C30B     		.short	3011
  39 0020 8B0C     		.short	3211
  40 0022 530D     		.short	3411
  41 0024 1B0E     		.short	3611
  42 0026 E30E     		.short	3811
  43 0028 AB0F     		.short	4011
  44 002a 7210     		.short	4210
  45 002c 3911     		.short	4409
  46 002e 0012     		.short	4608
  47 0030 C712     		.short	4807
  48 0032 8E13     		.short	5006
  49 0034 5514     		.short	5205
  50 0036 1B15     		.short	5403
  51 0038 E115     		.short	5601
  52 003a A716     		.short	5799
  53 003c 6D17     		.short	5997
  54 003e 3318     		.short	6195
  55 0040 F818     		.short	6392
  56 0042 BD19     		.short	6589
  57 0044 821A     		.short	6786
ARM GAS  C:\Users\fneves\AppData\Local\Temp\ccAW1o26.s 			page 2


  58 0046 461B     		.short	6982
  59 0048 0B1C     		.short	7179
  60 004a CF1C     		.short	7375
  61 004c 931D     		.short	7571
  62 004e 561E     		.short	7766
  63 0050 191F     		.short	7961
  64 0052 DC1F     		.short	8156
  65 0054 9F20     		.short	8351
  66 0056 6121     		.short	8545
  67 0058 2322     		.short	8739
  68 005a E422     		.short	8932
  69 005c A623     		.short	9126
  70 005e 6724     		.short	9319
  71 0060 2725     		.short	9511
  72 0062 E725     		.short	9703
  73 0064 A726     		.short	9895
  74 0066 6727     		.short	10087
  75 0068 2628     		.short	10278
  76 006a E528     		.short	10469
  77 006c A329     		.short	10659
  78 006e 612A     		.short	10849
  79 0070 1E2B     		.short	11038
  80 0072 DB2B     		.short	11227
  81 0074 982C     		.short	11416
  82 0076 542D     		.short	11604
  83 0078 102E     		.short	11792
  84 007a CC2E     		.short	11980
  85 007c 862F     		.short	12166
  86 007e 4130     		.short	12353
  87 0080 FB30     		.short	12539
  88 0082 B431     		.short	12724
  89 0084 6D32     		.short	12909
  90 0086 2633     		.short	13094
  91 0088 DE33     		.short	13278
  92 008a 9634     		.short	13462
  93 008c 4D35     		.short	13645
  94 008e 0336     		.short	13827
  95 0090 B936     		.short	14009
  96 0092 6F37     		.short	14191
  97 0094 2438     		.short	14372
  98 0096 D838     		.short	14552
  99 0098 8C39     		.short	14732
 100 009a 3F3A     		.short	14911
 101 009c F23A     		.short	15090
 102 009e A43B     		.short	15268
 103 00a0 563C     		.short	15446
 104 00a2 073D     		.short	15623
 105 00a4 B73D     		.short	15799
 106 00a6 673E     		.short	15975
 107 00a8 163F     		.short	16150
 108 00aa C53F     		.short	16325
 109 00ac 7340     		.short	16499
 110 00ae 2041     		.short	16672
 111 00b0 CD41     		.short	16845
 112 00b2 7942     		.short	17017
 113 00b4 2543     		.short	17189
 114 00b6 D043     		.short	17360
ARM GAS  C:\Users\fneves\AppData\Local\Temp\ccAW1o26.s 			page 3


 115 00b8 7A44     		.short	17530
 116 00ba 2345     		.short	17699
 117 00bc CC45     		.short	17868
 118 00be 7446     		.short	18036
 119 00c0 1C47     		.short	18204
 120 00c2 C347     		.short	18371
 121 00c4 6948     		.short	18537
 122 00c6 0E49     		.short	18702
 123 00c8 B349     		.short	18867
 124 00ca 574A     		.short	19031
 125 00cc FA4A     		.short	19194
 126 00ce 9D4B     		.short	19357
 127 00d0 3F4C     		.short	19519
 128 00d2 E04C     		.short	19680
 129 00d4 804D     		.short	19840
 130 00d6 204E     		.short	20000
 131 00d8 BF4E     		.short	20159
 132 00da 5D4F     		.short	20317
 133 00dc FA4F     		.short	20474
 134 00de 9750     		.short	20631
 135 00e0 3351     		.short	20787
 136 00e2 CE51     		.short	20942
 137 00e4 6852     		.short	21096
 138 00e6 0153     		.short	21249
 139 00e8 9A53     		.short	21402
 140 00ea 3254     		.short	21554
 141 00ec C954     		.short	21705
 142 00ee 5F55     		.short	21855
 143 00f0 F455     		.short	22004
 144 00f2 8956     		.short	22153
 145 00f4 1D57     		.short	22301
 146 00f6 B057     		.short	22448
 147 00f8 4258     		.short	22594
 148 00fa D358     		.short	22739
 149 00fc 6359     		.short	22883
 150 00fe F359     		.short	23027
 151 0100 815A     		.short	23169
 152 0102 0F5B     		.short	23311
 153 0104 9C5B     		.short	23452
 154 0106 285C     		.short	23592
 155 0108 B35C     		.short	23731
 156 010a 3D5D     		.short	23869
 157 010c C65D     		.short	24006
 158 010e 4F5E     		.short	24143
 159 0110 D65E     		.short	24278
 160 0112 5D5F     		.short	24413
 161 0114 E25F     		.short	24546
 162 0116 6760     		.short	24679
 163 0118 EB60     		.short	24811
 164 011a 6E61     		.short	24942
 165 011c F061     		.short	25072
 166 011e 7162     		.short	25201
 167 0120 F162     		.short	25329
 168 0122 7063     		.short	25456
 169 0124 EE63     		.short	25582
 170 0126 6B64     		.short	25707
 171 0128 E764     		.short	25831
ARM GAS  C:\Users\fneves\AppData\Local\Temp\ccAW1o26.s 			page 4


 172 012a 6265     		.short	25954
 173 012c DD65     		.short	26077
 174 012e 5666     		.short	26198
 175 0130 CE66     		.short	26318
 176 0132 4567     		.short	26437
 177 0134 BC67     		.short	26556
 178 0136 3168     		.short	26673
 179 0138 A568     		.short	26789
 180 013a 1969     		.short	26905
 181 013c 8B69     		.short	27019
 182 013e FC69     		.short	27132
 183 0140 6C6A     		.short	27244
 184 0142 DB6A     		.short	27355
 185 0144 4A6B     		.short	27466
 186 0146 B76B     		.short	27575
 187 0148 236C     		.short	27683
 188 014a 8E6C     		.short	27790
 189 014c F86C     		.short	27896
 190 014e 616D     		.short	28001
 191 0150 C96D     		.short	28105
 192 0152 306E     		.short	28208
 193 0154 956E     		.short	28309
 194 0156 FA6E     		.short	28410
 195 0158 5E6F     		.short	28510
 196 015a C06F     		.short	28608
 197 015c 2270     		.short	28706
 198 015e 8270     		.short	28802
 199 0160 E170     		.short	28897
 200 0162 4071     		.short	28992
 201 0164 9D71     		.short	29085
 202 0166 F971     		.short	29177
 203 0168 5472     		.short	29268
 204 016a AE72     		.short	29358
 205 016c 0673     		.short	29446
 206 016e 5E73     		.short	29534
 207 0170 B573     		.short	29621
 208 0172 0A74     		.short	29706
 209 0174 5E74     		.short	29790
 210 0176 B174     		.short	29873
 211 0178 0375     		.short	29955
 212 017a 5475     		.short	30036
 213 017c A475     		.short	30116
 214 017e F375     		.short	30195
 215 0180 4076     		.short	30272
 216 0182 8D76     		.short	30349
 217 0184 D876     		.short	30424
 218 0186 2277     		.short	30498
 219 0188 6B77     		.short	30571
 220 018a B377     		.short	30643
 221 018c F977     		.short	30713
 222 018e 3F78     		.short	30783
 223 0190 8378     		.short	30851
 224 0192 C678     		.short	30918
 225 0194 0879     		.short	30984
 226 0196 4979     		.short	31049
 227 0198 8979     		.short	31113
 228 019a C779     		.short	31175
ARM GAS  C:\Users\fneves\AppData\Local\Temp\ccAW1o26.s 			page 5


 229 019c 047A     		.short	31236
 230 019e 417A     		.short	31297
 231 01a0 7C7A     		.short	31356
 232 01a2 B57A     		.short	31413
 233 01a4 EE7A     		.short	31470
 234 01a6 257B     		.short	31525
 235 01a8 5C7B     		.short	31580
 236 01aa 917B     		.short	31633
 237 01ac C47B     		.short	31684
 238 01ae F77B     		.short	31735
 239 01b0 297C     		.short	31785
 240 01b2 597C     		.short	31833
 241 01b4 887C     		.short	31880
 242 01b6 B67C     		.short	31926
 243 01b8 E27C     		.short	31970
 244 01ba 0E7D     		.short	32014
 245 01bc 387D     		.short	32056
 246 01be 617D     		.short	32097
 247 01c0 897D     		.short	32137
 248 01c2 B07D     		.short	32176
 249 01c4 D57D     		.short	32213
 250 01c6 F97D     		.short	32249
 251 01c8 1C7E     		.short	32284
 252 01ca 3E7E     		.short	32318
 253 01cc 5E7E     		.short	32350
 254 01ce 7E7E     		.short	32382
 255 01d0 9C7E     		.short	32412
 256 01d2 B97E     		.short	32441
 257 01d4 D47E     		.short	32468
 258 01d6 EF7E     		.short	32495
 259 01d8 087F     		.short	32520
 260 01da 207F     		.short	32544
 261 01dc 377F     		.short	32567
 262 01de 4C7F     		.short	32588
 263 01e0 617F     		.short	32609
 264 01e2 747F     		.short	32628
 265 01e4 867F     		.short	32646
 266 01e6 967F     		.short	32662
 267 01e8 A67F     		.short	32678
 268 01ea B47F     		.short	32692
 269 01ec C17F     		.short	32705
 270 01ee CD7F     		.short	32717
 271 01f0 D77F     		.short	32727
 272 01f2 E07F     		.short	32736
 273 01f4 E87F     		.short	32744
 274 01f6 EF7F     		.short	32751
 275 01f8 F57F     		.short	32757
 276 01fa F97F     		.short	32761
 277 01fc FC7F     		.short	32764
 278 01fe FE7F     		.short	32766
 279 0200 FF7F     		.short	32767
 280 0202 FE7F     		.short	32766
 281 0204 FC7F     		.short	32764
 282 0206 F97F     		.short	32761
 283 0208 F57F     		.short	32757
 284 020a EF7F     		.short	32751
 285 020c E87F     		.short	32744
ARM GAS  C:\Users\fneves\AppData\Local\Temp\ccAW1o26.s 			page 6


 286 020e E07F     		.short	32736
 287 0210 D77F     		.short	32727
 288 0212 CD7F     		.short	32717
 289 0214 C17F     		.short	32705
 290 0216 B47F     		.short	32692
 291 0218 A67F     		.short	32678
 292 021a 967F     		.short	32662
 293 021c 867F     		.short	32646
 294 021e 747F     		.short	32628
 295 0220 617F     		.short	32609
 296 0222 4C7F     		.short	32588
 297 0224 377F     		.short	32567
 298 0226 207F     		.short	32544
 299 0228 087F     		.short	32520
 300 022a EF7E     		.short	32495
 301 022c D47E     		.short	32468
 302 022e B97E     		.short	32441
 303 0230 9C7E     		.short	32412
 304 0232 7E7E     		.short	32382
 305 0234 5E7E     		.short	32350
 306 0236 3E7E     		.short	32318
 307 0238 1C7E     		.short	32284
 308 023a F97D     		.short	32249
 309 023c D57D     		.short	32213
 310 023e B07D     		.short	32176
 311 0240 897D     		.short	32137
 312 0242 617D     		.short	32097
 313 0244 387D     		.short	32056
 314 0246 0E7D     		.short	32014
 315 0248 E27C     		.short	31970
 316 024a B67C     		.short	31926
 317 024c 887C     		.short	31880
 318 024e 597C     		.short	31833
 319 0250 297C     		.short	31785
 320 0252 F77B     		.short	31735
 321 0254 C47B     		.short	31684
 322 0256 917B     		.short	31633
 323 0258 5C7B     		.short	31580
 324 025a 257B     		.short	31525
 325 025c EE7A     		.short	31470
 326 025e B57A     		.short	31413
 327 0260 7C7A     		.short	31356
 328 0262 417A     		.short	31297
 329 0264 047A     		.short	31236
 330 0266 C779     		.short	31175
 331 0268 8979     		.short	31113
 332 026a 4979     		.short	31049
 333 026c 0879     		.short	30984
 334 026e C678     		.short	30918
 335 0270 8378     		.short	30851
 336 0272 3F78     		.short	30783
 337 0274 F977     		.short	30713
 338 0276 B377     		.short	30643
 339 0278 6B77     		.short	30571
 340 027a 2277     		.short	30498
 341 027c D876     		.short	30424
 342 027e 8D76     		.short	30349
ARM GAS  C:\Users\fneves\AppData\Local\Temp\ccAW1o26.s 			page 7


 343 0280 4076     		.short	30272
 344 0282 F375     		.short	30195
 345 0284 A475     		.short	30116
 346 0286 5475     		.short	30036
 347 0288 0375     		.short	29955
 348 028a B174     		.short	29873
 349 028c 5E74     		.short	29790
 350 028e 0A74     		.short	29706
 351 0290 B573     		.short	29621
 352 0292 5E73     		.short	29534
 353 0294 0673     		.short	29446
 354 0296 AE72     		.short	29358
 355 0298 5472     		.short	29268
 356 029a F971     		.short	29177
 357 029c 9D71     		.short	29085
 358 029e 4071     		.short	28992
 359 02a0 E170     		.short	28897
 360 02a2 8270     		.short	28802
 361 02a4 2270     		.short	28706
 362 02a6 C06F     		.short	28608
 363 02a8 5E6F     		.short	28510
 364 02aa FA6E     		.short	28410
 365 02ac 956E     		.short	28309
 366 02ae 306E     		.short	28208
 367 02b0 C96D     		.short	28105
 368 02b2 616D     		.short	28001
 369 02b4 F86C     		.short	27896
 370 02b6 8E6C     		.short	27790
 371 02b8 236C     		.short	27683
 372 02ba B76B     		.short	27575
 373 02bc 4A6B     		.short	27466
 374 02be DB6A     		.short	27355
 375 02c0 6C6A     		.short	27244
 376 02c2 FC69     		.short	27132
 377 02c4 8B69     		.short	27019
 378 02c6 1969     		.short	26905
 379 02c8 A568     		.short	26789
 380 02ca 3168     		.short	26673
 381 02cc BC67     		.short	26556
 382 02ce 4567     		.short	26437
 383 02d0 CE66     		.short	26318
 384 02d2 5666     		.short	26198
 385 02d4 DD65     		.short	26077
 386 02d6 6265     		.short	25954
 387 02d8 E764     		.short	25831
 388 02da 6B64     		.short	25707
 389 02dc EE63     		.short	25582
 390 02de 7063     		.short	25456
 391 02e0 F162     		.short	25329
 392 02e2 7162     		.short	25201
 393 02e4 F061     		.short	25072
 394 02e6 6E61     		.short	24942
 395 02e8 EB60     		.short	24811
 396 02ea 6760     		.short	24679
 397 02ec E25F     		.short	24546
 398 02ee 5D5F     		.short	24413
 399 02f0 D65E     		.short	24278
ARM GAS  C:\Users\fneves\AppData\Local\Temp\ccAW1o26.s 			page 8


 400 02f2 4F5E     		.short	24143
 401 02f4 C65D     		.short	24006
 402 02f6 3D5D     		.short	23869
 403 02f8 B35C     		.short	23731
 404 02fa 285C     		.short	23592
 405 02fc 9C5B     		.short	23452
 406 02fe 0F5B     		.short	23311
 407 0300 815A     		.short	23169
 408 0302 F359     		.short	23027
 409 0304 6359     		.short	22883
 410 0306 D358     		.short	22739
 411 0308 4258     		.short	22594
 412 030a B057     		.short	22448
 413 030c 1D57     		.short	22301
 414 030e 8956     		.short	22153
 415 0310 F455     		.short	22004
 416 0312 5F55     		.short	21855
 417 0314 C954     		.short	21705
 418 0316 3254     		.short	21554
 419 0318 9A53     		.short	21402
 420 031a 0153     		.short	21249
 421 031c 6852     		.short	21096
 422 031e CE51     		.short	20942
 423 0320 3351     		.short	20787
 424 0322 9750     		.short	20631
 425 0324 FA4F     		.short	20474
 426 0326 5D4F     		.short	20317
 427 0328 BF4E     		.short	20159
 428 032a 204E     		.short	20000
 429 032c 804D     		.short	19840
 430 032e E04C     		.short	19680
 431 0330 3F4C     		.short	19519
 432 0332 9D4B     		.short	19357
 433 0334 FA4A     		.short	19194
 434 0336 574A     		.short	19031
 435 0338 B349     		.short	18867
 436 033a 0E49     		.short	18702
 437 033c 6948     		.short	18537
 438 033e C347     		.short	18371
 439 0340 1C47     		.short	18204
 440 0342 7446     		.short	18036
 441 0344 CC45     		.short	17868
 442 0346 2345     		.short	17699
 443 0348 7A44     		.short	17530
 444 034a D043     		.short	17360
 445 034c 2543     		.short	17189
 446 034e 7942     		.short	17017
 447 0350 CD41     		.short	16845
 448 0352 2041     		.short	16672
 449 0354 7340     		.short	16499
 450 0356 C53F     		.short	16325
 451 0358 163F     		.short	16150
 452 035a 673E     		.short	15975
 453 035c B73D     		.short	15799
 454 035e 073D     		.short	15623
 455 0360 563C     		.short	15446
 456 0362 A43B     		.short	15268
ARM GAS  C:\Users\fneves\AppData\Local\Temp\ccAW1o26.s 			page 9


 457 0364 F23A     		.short	15090
 458 0366 3F3A     		.short	14911
 459 0368 8C39     		.short	14732
 460 036a D838     		.short	14552
 461 036c 2438     		.short	14372
 462 036e 6F37     		.short	14191
 463 0370 B936     		.short	14009
 464 0372 0336     		.short	13827
 465 0374 4D35     		.short	13645
 466 0376 9634     		.short	13462
 467 0378 DE33     		.short	13278
 468 037a 2633     		.short	13094
 469 037c 6D32     		.short	12909
 470 037e B431     		.short	12724
 471 0380 FB30     		.short	12539
 472 0382 4130     		.short	12353
 473 0384 862F     		.short	12166
 474 0386 CC2E     		.short	11980
 475 0388 102E     		.short	11792
 476 038a 542D     		.short	11604
 477 038c 982C     		.short	11416
 478 038e DB2B     		.short	11227
 479 0390 1E2B     		.short	11038
 480 0392 612A     		.short	10849
 481 0394 A329     		.short	10659
 482 0396 E528     		.short	10469
 483 0398 2628     		.short	10278
 484 039a 6727     		.short	10087
 485 039c A726     		.short	9895
 486 039e E725     		.short	9703
 487 03a0 2725     		.short	9511
 488 03a2 6724     		.short	9319
 489 03a4 A623     		.short	9126
 490 03a6 E422     		.short	8932
 491 03a8 2322     		.short	8739
 492 03aa 6121     		.short	8545
 493 03ac 9F20     		.short	8351
 494 03ae DC1F     		.short	8156
 495 03b0 191F     		.short	7961
 496 03b2 561E     		.short	7766
 497 03b4 931D     		.short	7571
 498 03b6 CF1C     		.short	7375
 499 03b8 0B1C     		.short	7179
 500 03ba 461B     		.short	6982
 501 03bc 821A     		.short	6786
 502 03be BD19     		.short	6589
 503 03c0 F818     		.short	6392
 504 03c2 3318     		.short	6195
 505 03c4 6D17     		.short	5997
 506 03c6 A716     		.short	5799
 507 03c8 E115     		.short	5601
 508 03ca 1B15     		.short	5403
 509 03cc 5514     		.short	5205
 510 03ce 8E13     		.short	5006
 511 03d0 C712     		.short	4807
 512 03d2 0012     		.short	4608
 513 03d4 3911     		.short	4409
ARM GAS  C:\Users\fneves\AppData\Local\Temp\ccAW1o26.s 			page 10


 514 03d6 7210     		.short	4210
 515 03d8 AB0F     		.short	4011
 516 03da E30E     		.short	3811
 517 03dc 1B0E     		.short	3611
 518 03de 530D     		.short	3411
 519 03e0 8B0C     		.short	3211
 520 03e2 C30B     		.short	3011
 521 03e4 FB0A     		.short	2811
 522 03e6 320A     		.short	2610
 523 03e8 6A09     		.short	2410
 524 03ea A108     		.short	2209
 525 03ec D907     		.short	2009
 526 03ee 1007     		.short	1808
 527 03f0 4706     		.short	1607
 528 03f2 7E05     		.short	1406
 529 03f4 B604     		.short	1206
 530 03f6 ED03     		.short	1005
 531 03f8 2403     		.short	804
 532 03fa 5B02     		.short	603
 533 03fc 9201     		.short	402
 534 03fe C900     		.short	201
 535 0400 0000     		.short	0
 536 0402 37FF     		.short	-201
 537 0404 6EFE     		.short	-402
 538 0406 A5FD     		.short	-603
 539 0408 DCFC     		.short	-804
 540 040a 13FC     		.short	-1005
 541 040c 4AFB     		.short	-1206
 542 040e 82FA     		.short	-1406
 543 0410 B9F9     		.short	-1607
 544 0412 F0F8     		.short	-1808
 545 0414 27F8     		.short	-2009
 546 0416 5FF7     		.short	-2209
 547 0418 96F6     		.short	-2410
 548 041a CEF5     		.short	-2610
 549 041c 05F5     		.short	-2811
 550 041e 3DF4     		.short	-3011
 551 0420 75F3     		.short	-3211
 552 0422 ADF2     		.short	-3411
 553 0424 E5F1     		.short	-3611
 554 0426 1DF1     		.short	-3811
 555 0428 55F0     		.short	-4011
 556 042a 8EEF     		.short	-4210
 557 042c C7EE     		.short	-4409
 558 042e 00EE     		.short	-4608
 559 0430 39ED     		.short	-4807
 560 0432 72EC     		.short	-5006
 561 0434 ABEB     		.short	-5205
 562 0436 E5EA     		.short	-5403
 563 0438 1FEA     		.short	-5601
 564 043a 59E9     		.short	-5799
 565 043c 93E8     		.short	-5997
 566 043e CDE7     		.short	-6195
 567 0440 08E7     		.short	-6392
 568 0442 43E6     		.short	-6589
 569 0444 7EE5     		.short	-6786
 570 0446 BAE4     		.short	-6982
ARM GAS  C:\Users\fneves\AppData\Local\Temp\ccAW1o26.s 			page 11


 571 0448 F5E3     		.short	-7179
 572 044a 31E3     		.short	-7375
 573 044c 6DE2     		.short	-7571
 574 044e AAE1     		.short	-7766
 575 0450 E7E0     		.short	-7961
 576 0452 24E0     		.short	-8156
 577 0454 61DF     		.short	-8351
 578 0456 9FDE     		.short	-8545
 579 0458 DDDD     		.short	-8739
 580 045a 1CDD     		.short	-8932
 581 045c 5ADC     		.short	-9126
 582 045e 99DB     		.short	-9319
 583 0460 D9DA     		.short	-9511
 584 0462 19DA     		.short	-9703
 585 0464 59D9     		.short	-9895
 586 0466 99D8     		.short	-10087
 587 0468 DAD7     		.short	-10278
 588 046a 1BD7     		.short	-10469
 589 046c 5DD6     		.short	-10659
 590 046e 9FD5     		.short	-10849
 591 0470 E2D4     		.short	-11038
 592 0472 25D4     		.short	-11227
 593 0474 68D3     		.short	-11416
 594 0476 ACD2     		.short	-11604
 595 0478 F0D1     		.short	-11792
 596 047a 34D1     		.short	-11980
 597 047c 7AD0     		.short	-12166
 598 047e BFCF     		.short	-12353
 599 0480 05CF     		.short	-12539
 600 0482 4CCE     		.short	-12724
 601 0484 93CD     		.short	-12909
 602 0486 DACC     		.short	-13094
 603 0488 22CC     		.short	-13278
 604 048a 6ACB     		.short	-13462
 605 048c B3CA     		.short	-13645
 606 048e FDC9     		.short	-13827
 607 0490 47C9     		.short	-14009
 608 0492 91C8     		.short	-14191
 609 0494 DCC7     		.short	-14372
 610 0496 28C7     		.short	-14552
 611 0498 74C6     		.short	-14732
 612 049a C1C5     		.short	-14911
 613 049c 0EC5     		.short	-15090
 614 049e 5CC4     		.short	-15268
 615 04a0 AAC3     		.short	-15446
 616 04a2 F9C2     		.short	-15623
 617 04a4 49C2     		.short	-15799
 618 04a6 99C1     		.short	-15975
 619 04a8 EAC0     		.short	-16150
 620 04aa 3BC0     		.short	-16325
 621 04ac 8DBF     		.short	-16499
 622 04ae E0BE     		.short	-16672
 623 04b0 33BE     		.short	-16845
 624 04b2 87BD     		.short	-17017
 625 04b4 DBBC     		.short	-17189
 626 04b6 30BC     		.short	-17360
 627 04b8 86BB     		.short	-17530
ARM GAS  C:\Users\fneves\AppData\Local\Temp\ccAW1o26.s 			page 12


 628 04ba DDBA     		.short	-17699
 629 04bc 34BA     		.short	-17868
 630 04be 8CB9     		.short	-18036
 631 04c0 E4B8     		.short	-18204
 632 04c2 3DB8     		.short	-18371
 633 04c4 97B7     		.short	-18537
 634 04c6 F2B6     		.short	-18702
 635 04c8 4DB6     		.short	-18867
 636 04ca A9B5     		.short	-19031
 637 04cc 06B5     		.short	-19194
 638 04ce 63B4     		.short	-19357
 639 04d0 C1B3     		.short	-19519
 640 04d2 20B3     		.short	-19680
 641 04d4 80B2     		.short	-19840
 642 04d6 E0B1     		.short	-20000
 643 04d8 41B1     		.short	-20159
 644 04da A3B0     		.short	-20317
 645 04dc 06B0     		.short	-20474
 646 04de 69AF     		.short	-20631
 647 04e0 CDAE     		.short	-20787
 648 04e2 32AE     		.short	-20942
 649 04e4 98AD     		.short	-21096
 650 04e6 FFAC     		.short	-21249
 651 04e8 66AC     		.short	-21402
 652 04ea CEAB     		.short	-21554
 653 04ec 37AB     		.short	-21705
 654 04ee A1AA     		.short	-21855
 655 04f0 0CAA     		.short	-22004
 656 04f2 77A9     		.short	-22153
 657 04f4 E3A8     		.short	-22301
 658 04f6 50A8     		.short	-22448
 659 04f8 BEA7     		.short	-22594
 660 04fa 2DA7     		.short	-22739
 661 04fc 9DA6     		.short	-22883
 662 04fe 0DA6     		.short	-23027
 663 0500 7FA5     		.short	-23169
 664 0502 F1A4     		.short	-23311
 665 0504 64A4     		.short	-23452
 666 0506 D8A3     		.short	-23592
 667 0508 4DA3     		.short	-23731
 668 050a C3A2     		.short	-23869
 669 050c 3AA2     		.short	-24006
 670 050e B1A1     		.short	-24143
 671 0510 2AA1     		.short	-24278
 672 0512 A3A0     		.short	-24413
 673 0514 1EA0     		.short	-24546
 674 0516 999F     		.short	-24679
 675 0518 159F     		.short	-24811
 676 051a 929E     		.short	-24942
 677 051c 109E     		.short	-25072
 678 051e 8F9D     		.short	-25201
 679 0520 0F9D     		.short	-25329
 680 0522 909C     		.short	-25456
 681 0524 129C     		.short	-25582
 682 0526 959B     		.short	-25707
 683 0528 199B     		.short	-25831
 684 052a 9E9A     		.short	-25954
ARM GAS  C:\Users\fneves\AppData\Local\Temp\ccAW1o26.s 			page 13


 685 052c 239A     		.short	-26077
 686 052e AA99     		.short	-26198
 687 0530 3299     		.short	-26318
 688 0532 BB98     		.short	-26437
 689 0534 4498     		.short	-26556
 690 0536 CF97     		.short	-26673
 691 0538 5B97     		.short	-26789
 692 053a E796     		.short	-26905
 693 053c 7596     		.short	-27019
 694 053e 0496     		.short	-27132
 695 0540 9495     		.short	-27244
 696 0542 2595     		.short	-27355
 697 0544 B694     		.short	-27466
 698 0546 4994     		.short	-27575
 699 0548 DD93     		.short	-27683
 700 054a 7293     		.short	-27790
 701 054c 0893     		.short	-27896
 702 054e 9F92     		.short	-28001
 703 0550 3792     		.short	-28105
 704 0552 D091     		.short	-28208
 705 0554 6B91     		.short	-28309
 706 0556 0691     		.short	-28410
 707 0558 A290     		.short	-28510
 708 055a 4090     		.short	-28608
 709 055c DE8F     		.short	-28706
 710 055e 7E8F     		.short	-28802
 711 0560 1F8F     		.short	-28897
 712 0562 C08E     		.short	-28992
 713 0564 638E     		.short	-29085
 714 0566 078E     		.short	-29177
 715 0568 AC8D     		.short	-29268
 716 056a 528D     		.short	-29358
 717 056c FA8C     		.short	-29446
 718 056e A28C     		.short	-29534
 719 0570 4B8C     		.short	-29621
 720 0572 F68B     		.short	-29706
 721 0574 A28B     		.short	-29790
 722 0576 4F8B     		.short	-29873
 723 0578 FD8A     		.short	-29955
 724 057a AC8A     		.short	-30036
 725 057c 5C8A     		.short	-30116
 726 057e 0D8A     		.short	-30195
 727 0580 C089     		.short	-30272
 728 0582 7389     		.short	-30349
 729 0584 2889     		.short	-30424
 730 0586 DE88     		.short	-30498
 731 0588 9588     		.short	-30571
 732 058a 4D88     		.short	-30643
 733 058c 0788     		.short	-30713
 734 058e C187     		.short	-30783
 735 0590 7D87     		.short	-30851
 736 0592 3A87     		.short	-30918
 737 0594 F886     		.short	-30984
 738 0596 B786     		.short	-31049
 739 0598 7786     		.short	-31113
 740 059a 3986     		.short	-31175
 741 059c FC85     		.short	-31236
ARM GAS  C:\Users\fneves\AppData\Local\Temp\ccAW1o26.s 			page 14


 742 059e BF85     		.short	-31297
 743 05a0 8485     		.short	-31356
 744 05a2 4B85     		.short	-31413
 745 05a4 1285     		.short	-31470
 746 05a6 DB84     		.short	-31525
 747 05a8 A484     		.short	-31580
 748 05aa 6F84     		.short	-31633
 749 05ac 3C84     		.short	-31684
 750 05ae 0984     		.short	-31735
 751 05b0 D783     		.short	-31785
 752 05b2 A783     		.short	-31833
 753 05b4 7883     		.short	-31880
 754 05b6 4A83     		.short	-31926
 755 05b8 1E83     		.short	-31970
 756 05ba F282     		.short	-32014
 757 05bc C882     		.short	-32056
 758 05be 9F82     		.short	-32097
 759 05c0 7782     		.short	-32137
 760 05c2 5082     		.short	-32176
 761 05c4 2B82     		.short	-32213
 762 05c6 0782     		.short	-32249
 763 05c8 E481     		.short	-32284
 764 05ca C281     		.short	-32318
 765 05cc A281     		.short	-32350
 766 05ce 8281     		.short	-32382
 767 05d0 6481     		.short	-32412
 768 05d2 4781     		.short	-32441
 769 05d4 2C81     		.short	-32468
 770 05d6 1181     		.short	-32495
 771 05d8 F880     		.short	-32520
 772 05da E080     		.short	-32544
 773 05dc C980     		.short	-32567
 774 05de B480     		.short	-32588
 775 05e0 9F80     		.short	-32609
 776 05e2 8C80     		.short	-32628
 777 05e4 7A80     		.short	-32646
 778 05e6 6A80     		.short	-32662
 779 05e8 5A80     		.short	-32678
 780 05ea 4C80     		.short	-32692
 781 05ec 3F80     		.short	-32705
 782 05ee 3380     		.short	-32717
 783 05f0 2980     		.short	-32727
 784 05f2 2080     		.short	-32736
 785 05f4 1880     		.short	-32744
 786 05f6 1180     		.short	-32751
 787 05f8 0B80     		.short	-32757
 788 05fa 0780     		.short	-32761
 789 05fc 0480     		.short	-32764
 790 05fe 0280     		.short	-32766
 791              		.section	.text.FIX_MPY,"ax",%progbits
 792              		.align	2
 793              		.global	FIX_MPY
 794              		.code	16
 795              		.thumb_func
 796              		.type	FIX_MPY, %function
 797              	FIX_MPY:
 798              	.LFB0:
ARM GAS  C:\Users\fneves\AppData\Local\Temp\ccAW1o26.s 			page 15


 799              		.file 1 "fix_fft.c"
   1:fix_fft.c     **** /* fix_fft.c - Fixed-point in-place Fast Fourier Transform  */
   2:fix_fft.c     **** /*
   3:fix_fft.c     ****   All data are fixed-point short integers, in which -32768
   4:fix_fft.c     ****   to +32768 represent -1.0 to +1.0 respectively. Integer
   5:fix_fft.c     ****   arithmetic is used for speed, instead of the more natural
   6:fix_fft.c     ****   floating-point.
   7:fix_fft.c     **** 
   8:fix_fft.c     ****   For the forward FFT (time -> freq), fixed scaling is
   9:fix_fft.c     ****   performed to prevent arithmetic overflow, and to map a 0dB
  10:fix_fft.c     ****   sine/cosine wave (i.e. amplitude = 32767) to two -6dB freq
  11:fix_fft.c     ****   coefficients. The return value is always 0.
  12:fix_fft.c     **** 
  13:fix_fft.c     ****   For the inverse FFT (freq -> time), fixed scaling cannot be
  14:fix_fft.c     ****   done, as two 0dB coefficients would sum to a peak amplitude
  15:fix_fft.c     ****   of 64K, overflowing the 32k range of the fixed-point integers.
  16:fix_fft.c     ****   Thus, the fix_fft() routine performs variable scaling, and
  17:fix_fft.c     ****   returns a value which is the number of bits LEFT by which
  18:fix_fft.c     ****   the output must be shifted to get the actual amplitude
  19:fix_fft.c     ****   (i.e. if fix_fft() returns 3, each value of fr[] and fi[]
  20:fix_fft.c     ****   must be multiplied by 8 (2**3) for proper scaling.
  21:fix_fft.c     ****   Clearly, this cannot be done within fixed-point short
  22:fix_fft.c     ****   integers. In practice, if the result is to be used as a
  23:fix_fft.c     ****   filter, the scale_shift can usually be ignored, as the
  24:fix_fft.c     ****   result will be approximately correctly normalized as is.
  25:fix_fft.c     **** 
  26:fix_fft.c     ****   Written by:  Tom Roberts  11/8/89
  27:fix_fft.c     ****   Made portable:  Malcolm Slaney 12/15/94 malcolm@interval.com
  28:fix_fft.c     ****   Enhanced:  Dimitrios P. Bouras  14 Jun 2006 dbouras@ieee.org
  29:fix_fft.c     **** */
  30:fix_fft.c     **** 
  31:fix_fft.c     **** #define N_WAVE      1024    /* full length of Sinewave[] */
  32:fix_fft.c     **** #define LOG2_N_WAVE 10      /* log2(N_WAVE) */
  33:fix_fft.c     **** 
  34:fix_fft.c     **** /*
  35:fix_fft.c     ****   Henceforth "short" implies 16-bit word. If this is not
  36:fix_fft.c     ****   the case in your architecture, please replace "short"
  37:fix_fft.c     ****   with a type definition which *is* a 16-bit word.
  38:fix_fft.c     **** */
  39:fix_fft.c     **** 
  40:fix_fft.c     **** /*
  41:fix_fft.c     ****   Since we only use 3/4 of N_WAVE, we define only
  42:fix_fft.c     ****   this many samples, in order to conserve data space.
  43:fix_fft.c     **** */
  44:fix_fft.c     **** const short Sinewave[N_WAVE-N_WAVE/4] = {
  45:fix_fft.c     ****       0,    201,    402,    603,    804,   1005,   1206,   1406,
  46:fix_fft.c     ****    1607,   1808,   2009,   2209,   2410,   2610,   2811,   3011,
  47:fix_fft.c     ****    3211,   3411,   3611,   3811,   4011,   4210,   4409,   4608,
  48:fix_fft.c     ****    4807,   5006,   5205,   5403,   5601,   5799,   5997,   6195,
  49:fix_fft.c     ****    6392,   6589,   6786,   6982,   7179,   7375,   7571,   7766,
  50:fix_fft.c     ****    7961,   8156,   8351,   8545,   8739,   8932,   9126,   9319,
  51:fix_fft.c     ****    9511,   9703,   9895,  10087,  10278,  10469,  10659,  10849,
  52:fix_fft.c     ****   11038,  11227,  11416,  11604,  11792,  11980,  12166,  12353,
  53:fix_fft.c     ****   12539,  12724,  12909,  13094,  13278,  13462,  13645,  13827,
  54:fix_fft.c     ****   14009,  14191,  14372,  14552,  14732,  14911,  15090,  15268,
  55:fix_fft.c     ****   15446,  15623,  15799,  15975,  16150,  16325,  16499,  16672,
  56:fix_fft.c     ****   16845,  17017,  17189,  17360,  17530,  17699,  17868,  18036,
ARM GAS  C:\Users\fneves\AppData\Local\Temp\ccAW1o26.s 			page 16


  57:fix_fft.c     ****   18204,  18371,  18537,  18702,  18867,  19031,  19194,  19357,
  58:fix_fft.c     ****   19519,  19680,  19840,  20000,  20159,  20317,  20474,  20631,
  59:fix_fft.c     ****   20787,  20942,  21096,  21249,  21402,  21554,  21705,  21855,
  60:fix_fft.c     ****   22004,  22153,  22301,  22448,  22594,  22739,  22883,  23027,
  61:fix_fft.c     ****   23169,  23311,  23452,  23592,  23731,  23869,  24006,  24143,
  62:fix_fft.c     ****   24278,  24413,  24546,  24679,  24811,  24942,  25072,  25201,
  63:fix_fft.c     ****   25329,  25456,  25582,  25707,  25831,  25954,  26077,  26198,
  64:fix_fft.c     ****   26318,  26437,  26556,  26673,  26789,  26905,  27019,  27132,
  65:fix_fft.c     ****   27244,  27355,  27466,  27575,  27683,  27790,  27896,  28001,
  66:fix_fft.c     ****   28105,  28208,  28309,  28410,  28510,  28608,  28706,  28802,
  67:fix_fft.c     ****   28897,  28992,  29085,  29177,  29268,  29358,  29446,  29534,
  68:fix_fft.c     ****   29621,  29706,  29790,  29873,  29955,  30036,  30116,  30195,
  69:fix_fft.c     ****   30272,  30349,  30424,  30498,  30571,  30643,  30713,  30783,
  70:fix_fft.c     ****   30851,  30918,  30984,  31049,  31113,  31175,  31236,  31297,
  71:fix_fft.c     ****   31356,  31413,  31470,  31525,  31580,  31633,  31684,  31735,
  72:fix_fft.c     ****   31785,  31833,  31880,  31926,  31970,  32014,  32056,  32097,
  73:fix_fft.c     ****   32137,  32176,  32213,  32249,  32284,  32318,  32350,  32382,
  74:fix_fft.c     ****   32412,  32441,  32468,  32495,  32520,  32544,  32567,  32588,
  75:fix_fft.c     ****   32609,  32628,  32646,  32662,  32678,  32692,  32705,  32717,
  76:fix_fft.c     ****   32727,  32736,  32744,  32751,  32757,  32761,  32764,  32766,
  77:fix_fft.c     ****   32767,  32766,  32764,  32761,  32757,  32751,  32744,  32736,
  78:fix_fft.c     ****   32727,  32717,  32705,  32692,  32678,  32662,  32646,  32628,
  79:fix_fft.c     ****   32609,  32588,  32567,  32544,  32520,  32495,  32468,  32441,
  80:fix_fft.c     ****   32412,  32382,  32350,  32318,  32284,  32249,  32213,  32176,
  81:fix_fft.c     ****   32137,  32097,  32056,  32014,  31970,  31926,  31880,  31833,
  82:fix_fft.c     ****   31785,  31735,  31684,  31633,  31580,  31525,  31470,  31413,
  83:fix_fft.c     ****   31356,  31297,  31236,  31175,  31113,  31049,  30984,  30918,
  84:fix_fft.c     ****   30851,  30783,  30713,  30643,  30571,  30498,  30424,  30349,
  85:fix_fft.c     ****   30272,  30195,  30116,  30036,  29955,  29873,  29790,  29706,
  86:fix_fft.c     ****   29621,  29534,  29446,  29358,  29268,  29177,  29085,  28992,
  87:fix_fft.c     ****   28897,  28802,  28706,  28608,  28510,  28410,  28309,  28208,
  88:fix_fft.c     ****   28105,  28001,  27896,  27790,  27683,  27575,  27466,  27355,
  89:fix_fft.c     ****   27244,  27132,  27019,  26905,  26789,  26673,  26556,  26437,
  90:fix_fft.c     ****   26318,  26198,  26077,  25954,  25831,  25707,  25582,  25456,
  91:fix_fft.c     ****   25329,  25201,  25072,  24942,  24811,  24679,  24546,  24413,
  92:fix_fft.c     ****   24278,  24143,  24006,  23869,  23731,  23592,  23452,  23311,
  93:fix_fft.c     ****   23169,  23027,  22883,  22739,  22594,  22448,  22301,  22153,
  94:fix_fft.c     ****   22004,  21855,  21705,  21554,  21402,  21249,  21096,  20942,
  95:fix_fft.c     ****   20787,  20631,  20474,  20317,  20159,  20000,  19840,  19680,
  96:fix_fft.c     ****   19519,  19357,  19194,  19031,  18867,  18702,  18537,  18371,
  97:fix_fft.c     ****   18204,  18036,  17868,  17699,  17530,  17360,  17189,  17017,
  98:fix_fft.c     ****   16845,  16672,  16499,  16325,  16150,  15975,  15799,  15623,
  99:fix_fft.c     ****   15446,  15268,  15090,  14911,  14732,  14552,  14372,  14191,
 100:fix_fft.c     ****   14009,  13827,  13645,  13462,  13278,  13094,  12909,  12724,
 101:fix_fft.c     ****   12539,  12353,  12166,  11980,  11792,  11604,  11416,  11227,
 102:fix_fft.c     ****   11038,  10849,  10659,  10469,  10278,  10087,   9895,   9703,
 103:fix_fft.c     ****    9511,   9319,   9126,   8932,   8739,   8545,   8351,   8156,
 104:fix_fft.c     ****    7961,   7766,   7571,   7375,   7179,   6982,   6786,   6589,
 105:fix_fft.c     ****    6392,   6195,   5997,   5799,   5601,   5403,   5205,   5006,
 106:fix_fft.c     ****    4807,   4608,   4409,   4210,   4011,   3811,   3611,   3411,
 107:fix_fft.c     ****    3211,   3011,   2811,   2610,   2410,   2209,   2009,   1808,
 108:fix_fft.c     ****    1607,   1406,   1206,   1005,    804,    603,    402,    201,
 109:fix_fft.c     ****       0,   -201,   -402,   -603,   -804,  -1005,  -1206,  -1406,
 110:fix_fft.c     ****   -1607,  -1808,  -2009,  -2209,  -2410,  -2610,  -2811,  -3011,
 111:fix_fft.c     ****   -3211,  -3411,  -3611,  -3811,  -4011,  -4210,  -4409,  -4608,
 112:fix_fft.c     ****   -4807,  -5006,  -5205,  -5403,  -5601,  -5799,  -5997,  -6195,
 113:fix_fft.c     ****   -6392,  -6589,  -6786,  -6982,  -7179,  -7375,  -7571,  -7766,
ARM GAS  C:\Users\fneves\AppData\Local\Temp\ccAW1o26.s 			page 17


 114:fix_fft.c     ****   -7961,  -8156,  -8351,  -8545,  -8739,  -8932,  -9126,  -9319,
 115:fix_fft.c     ****   -9511,  -9703,  -9895, -10087, -10278, -10469, -10659, -10849,
 116:fix_fft.c     ****  -11038, -11227, -11416, -11604, -11792, -11980, -12166, -12353,
 117:fix_fft.c     ****  -12539, -12724, -12909, -13094, -13278, -13462, -13645, -13827,
 118:fix_fft.c     ****  -14009, -14191, -14372, -14552, -14732, -14911, -15090, -15268,
 119:fix_fft.c     ****  -15446, -15623, -15799, -15975, -16150, -16325, -16499, -16672,
 120:fix_fft.c     ****  -16845, -17017, -17189, -17360, -17530, -17699, -17868, -18036,
 121:fix_fft.c     ****  -18204, -18371, -18537, -18702, -18867, -19031, -19194, -19357,
 122:fix_fft.c     ****  -19519, -19680, -19840, -20000, -20159, -20317, -20474, -20631,
 123:fix_fft.c     ****  -20787, -20942, -21096, -21249, -21402, -21554, -21705, -21855,
 124:fix_fft.c     ****  -22004, -22153, -22301, -22448, -22594, -22739, -22883, -23027,
 125:fix_fft.c     ****  -23169, -23311, -23452, -23592, -23731, -23869, -24006, -24143,
 126:fix_fft.c     ****  -24278, -24413, -24546, -24679, -24811, -24942, -25072, -25201,
 127:fix_fft.c     ****  -25329, -25456, -25582, -25707, -25831, -25954, -26077, -26198,
 128:fix_fft.c     ****  -26318, -26437, -26556, -26673, -26789, -26905, -27019, -27132,
 129:fix_fft.c     ****  -27244, -27355, -27466, -27575, -27683, -27790, -27896, -28001,
 130:fix_fft.c     ****  -28105, -28208, -28309, -28410, -28510, -28608, -28706, -28802,
 131:fix_fft.c     ****  -28897, -28992, -29085, -29177, -29268, -29358, -29446, -29534,
 132:fix_fft.c     ****  -29621, -29706, -29790, -29873, -29955, -30036, -30116, -30195,
 133:fix_fft.c     ****  -30272, -30349, -30424, -30498, -30571, -30643, -30713, -30783,
 134:fix_fft.c     ****  -30851, -30918, -30984, -31049, -31113, -31175, -31236, -31297,
 135:fix_fft.c     ****  -31356, -31413, -31470, -31525, -31580, -31633, -31684, -31735,
 136:fix_fft.c     ****  -31785, -31833, -31880, -31926, -31970, -32014, -32056, -32097,
 137:fix_fft.c     ****  -32137, -32176, -32213, -32249, -32284, -32318, -32350, -32382,
 138:fix_fft.c     ****  -32412, -32441, -32468, -32495, -32520, -32544, -32567, -32588,
 139:fix_fft.c     ****  -32609, -32628, -32646, -32662, -32678, -32692, -32705, -32717,
 140:fix_fft.c     ****  -32727, -32736, -32744, -32751, -32757, -32761, -32764, -32766,
 141:fix_fft.c     **** };
 142:fix_fft.c     **** 
 143:fix_fft.c     **** /*
 144:fix_fft.c     ****   FIX_MPY() - fixed-point multiplication & scaling.
 145:fix_fft.c     ****   Substitute inline assembly for hardware-specific
 146:fix_fft.c     ****   optimization suited to a particluar DSP processor.
 147:fix_fft.c     ****   Scaling ensures that result remains 16-bit.
 148:fix_fft.c     **** */
 149:fix_fft.c     **** inline short FIX_MPY(short a, short b)
 150:fix_fft.c     **** {
 800              		.loc 1 150 0
 801              		.cfi_startproc
 802 0000 80B5     		push	{r7, lr}
 803              		.cfi_def_cfa_offset 8
 804              		.cfi_offset 7, -8
 805              		.cfi_offset 14, -4
 806 0002 84B0     		sub	sp, sp, #16
 807              		.cfi_def_cfa_offset 24
 808 0004 00AF     		add	r7, sp, #0
 809              		.cfi_def_cfa_register 7
 810 0006 021C     		mov	r2, r0
 811 0008 BB1D     		add	r3, r7, #6
 812 000a 1A80     		strh	r2, [r3]
 813 000c 3B1D     		add	r3, r7, #4
 814 000e 0A1C     		add	r2, r1, #0
 815 0010 1A80     		strh	r2, [r3]
 151:fix_fft.c     **** 	/* shift right one less bit (i.e. 15-1) */
 152:fix_fft.c     **** 	int c = ((int)a * (int)b) >> 14;
 816              		.loc 1 152 0
 817 0012 BB1D     		add	r3, r7, #6
ARM GAS  C:\Users\fneves\AppData\Local\Temp\ccAW1o26.s 			page 18


 818 0014 0022     		mov	r2, #0
 819 0016 9B5E     		ldrsh	r3, [r3, r2]
 820 0018 3A1D     		add	r2, r7, #4
 821 001a 0021     		mov	r1, #0
 822 001c 525E     		ldrsh	r2, [r2, r1]
 823 001e 5343     		mul	r3, r2
 824 0020 9B13     		asr	r3, r3, #14
 825 0022 FB60     		str	r3, [r7, #12]
 153:fix_fft.c     **** 	/* last bit shifted out = rounding-bit */
 154:fix_fft.c     **** 	b = c & 0x01;
 826              		.loc 1 154 0
 827 0024 FB68     		ldr	r3, [r7, #12]
 828 0026 9AB2     		uxth	r2, r3
 829 0028 3B1D     		add	r3, r7, #4
 830 002a 111C     		add	r1, r2, #0
 831 002c 0122     		mov	r2, #1
 832 002e 0A40     		and	r2, r1
 833 0030 1A80     		strh	r2, [r3]
 155:fix_fft.c     **** 	/* last shift + rounding bit */
 156:fix_fft.c     **** 	a = (c >> 1) + b;
 834              		.loc 1 156 0
 835 0032 FB68     		ldr	r3, [r7, #12]
 836 0034 5B10     		asr	r3, r3, #1
 837 0036 9AB2     		uxth	r2, r3
 838 0038 3B1D     		add	r3, r7, #4
 839 003a 1B88     		ldrh	r3, [r3]
 840 003c D318     		add	r3, r2, r3
 841 003e 9AB2     		uxth	r2, r3
 842 0040 BB1D     		add	r3, r7, #6
 843 0042 1A80     		strh	r2, [r3]
 157:fix_fft.c     **** 	return a;
 844              		.loc 1 157 0
 845 0044 BB1D     		add	r3, r7, #6
 846 0046 1B88     		ldrh	r3, [r3]
 847 0048 1BB2     		sxth	r3, r3
 158:fix_fft.c     **** }
 848              		.loc 1 158 0
 849 004a 181C     		mov	r0, r3
 850 004c BD46     		mov	sp, r7
 851 004e 04B0     		add	sp, sp, #16
 852              		@ sp needed
 853 0050 80BD     		pop	{r7, pc}
 854              		.cfi_endproc
 855              	.LFE0:
 856              		.size	FIX_MPY, .-FIX_MPY
 857 0052 C046     		.section	.text.fix_fft,"ax",%progbits
 858              		.align	2
 859              		.global	fix_fft
 860              		.code	16
 861              		.thumb_func
 862              		.type	fix_fft, %function
 863              	fix_fft:
 864              	.LFB1:
 159:fix_fft.c     **** 
 160:fix_fft.c     **** /*
 161:fix_fft.c     ****   fix_fft() - perform forward/inverse fast Fourier transform.
 162:fix_fft.c     ****   fr[n],fi[n] are real and imaginary arrays, both INPUT AND
ARM GAS  C:\Users\fneves\AppData\Local\Temp\ccAW1o26.s 			page 19


 163:fix_fft.c     ****   RESULT (in-place FFT), with 0 <= n < 2**m; set inverse to
 164:fix_fft.c     ****   0 for forward transform (FFT), or 1 for iFFT.
 165:fix_fft.c     **** */
 166:fix_fft.c     **** int fix_fft(short fr[], short fi[], short m, short inverse)
 167:fix_fft.c     **** {
 865              		.loc 1 167 0
 866              		.cfi_startproc
 867 0000 90B5     		push	{r4, r7, lr}
 868              		.cfi_def_cfa_offset 12
 869              		.cfi_offset 4, -12
 870              		.cfi_offset 7, -8
 871              		.cfi_offset 14, -4
 872 0002 93B0     		sub	sp, sp, #76
 873              		.cfi_def_cfa_offset 88
 874 0004 00AF     		add	r7, sp, #0
 875              		.cfi_def_cfa_register 7
 876 0006 F860     		str	r0, [r7, #12]
 877 0008 B960     		str	r1, [r7, #8]
 878 000a 191C     		mov	r1, r3
 879 000c BB1D     		add	r3, r7, #6
 880 000e 1A80     		strh	r2, [r3]
 881 0010 3B1D     		add	r3, r7, #4
 882 0012 0A1C     		add	r2, r1, #0
 883 0014 1A80     		strh	r2, [r3]
 168:fix_fft.c     **** 	int mr, nn, i, j, l, k, istep, n, scale, shift;
 169:fix_fft.c     **** 	short qr, qi, tr, ti, wr, wi;
 170:fix_fft.c     **** 
 171:fix_fft.c     **** 	n = 1 << m;
 884              		.loc 1 171 0
 885 0016 BB1D     		add	r3, r7, #6
 886 0018 0022     		mov	r2, #0
 887 001a 9B5E     		ldrsh	r3, [r3, r2]
 888 001c 0122     		mov	r2, #1
 889 001e 9A40     		lsl	r2, r2, r3
 890 0020 131C     		mov	r3, r2
 891 0022 3B62     		str	r3, [r7, #32]
 172:fix_fft.c     **** 
 173:fix_fft.c     **** 	/* max FFT size = N_WAVE */
 174:fix_fft.c     **** 	if (n > N_WAVE)
 892              		.loc 1 174 0
 893 0024 3A6A     		ldr	r2, [r7, #32]
 894 0026 8023     		mov	r3, #128
 895 0028 DB00     		lsl	r3, r3, #3
 896 002a 9A42     		cmp	r2, r3
 897 002c 02DD     		ble	.L4
 175:fix_fft.c     **** 		return -1;
 898              		.loc 1 175 0
 899 002e 0123     		mov	r3, #1
 900 0030 5B42     		neg	r3, r3
 901 0032 C6E1     		b	.L5
 902              	.L4:
 176:fix_fft.c     **** 
 177:fix_fft.c     **** 	mr = 0;
 903              		.loc 1 177 0
 904 0034 0023     		mov	r3, #0
 905 0036 7B64     		str	r3, [r7, #68]
 178:fix_fft.c     **** 	nn = n - 1;
ARM GAS  C:\Users\fneves\AppData\Local\Temp\ccAW1o26.s 			page 20


 906              		.loc 1 178 0
 907 0038 3B6A     		ldr	r3, [r7, #32]
 908 003a 013B     		sub	r3, r3, #1
 909 003c FB61     		str	r3, [r7, #28]
 179:fix_fft.c     **** 	scale = 0;
 910              		.loc 1 179 0
 911 003e 0023     		mov	r3, #0
 912 0040 3B63     		str	r3, [r7, #48]
 180:fix_fft.c     **** 
 181:fix_fft.c     **** 	/* decimation in time - re-order data */
 182:fix_fft.c     **** 	for (m=1; m<=nn; ++m) {
 913              		.loc 1 182 0
 914 0042 BB1D     		add	r3, r7, #6
 915 0044 0122     		mov	r2, #1
 916 0046 1A80     		strh	r2, [r3]
 917 0048 5AE0     		b	.L6
 918              	.L10:
 183:fix_fft.c     **** 		l = n;
 919              		.loc 1 183 0
 920 004a 3B6A     		ldr	r3, [r7, #32]
 921 004c BB63     		str	r3, [r7, #56]
 922              	.L7:
 184:fix_fft.c     **** 		do {
 185:fix_fft.c     **** 			l >>= 1;
 923              		.loc 1 185 0 discriminator 1
 924 004e BB6B     		ldr	r3, [r7, #56]
 925 0050 5B10     		asr	r3, r3, #1
 926 0052 BB63     		str	r3, [r7, #56]
 186:fix_fft.c     **** 		} while (mr+l > nn);
 927              		.loc 1 186 0 discriminator 1
 928 0054 7A6C     		ldr	r2, [r7, #68]
 929 0056 BB6B     		ldr	r3, [r7, #56]
 930 0058 D218     		add	r2, r2, r3
 931 005a FB69     		ldr	r3, [r7, #28]
 932 005c 9A42     		cmp	r2, r3
 933 005e F6DC     		bgt	.L7
 187:fix_fft.c     **** 		mr = (mr & (l-1)) + l;
 934              		.loc 1 187 0
 935 0060 BB6B     		ldr	r3, [r7, #56]
 936 0062 013B     		sub	r3, r3, #1
 937 0064 7A6C     		ldr	r2, [r7, #68]
 938 0066 1A40     		and	r2, r3
 939 0068 BB6B     		ldr	r3, [r7, #56]
 940 006a D318     		add	r3, r2, r3
 941 006c 7B64     		str	r3, [r7, #68]
 188:fix_fft.c     **** 
 189:fix_fft.c     **** 		if (mr <= m)
 942              		.loc 1 189 0
 943 006e BB1D     		add	r3, r7, #6
 944 0070 0022     		mov	r2, #0
 945 0072 9A5E     		ldrsh	r2, [r3, r2]
 946 0074 7B6C     		ldr	r3, [r7, #68]
 947 0076 9A42     		cmp	r2, r3
 948 0078 00DB     		blt	.L8
 190:fix_fft.c     **** 			continue;
 949              		.loc 1 190 0
 950 007a 3BE0     		b	.L9
ARM GAS  C:\Users\fneves\AppData\Local\Temp\ccAW1o26.s 			page 21


 951              	.L8:
 191:fix_fft.c     **** 		tr = fr[m];
 952              		.loc 1 191 0
 953 007c BB1D     		add	r3, r7, #6
 954 007e 0022     		mov	r2, #0
 955 0080 9B5E     		ldrsh	r3, [r3, r2]
 956 0082 5B00     		lsl	r3, r3, #1
 957 0084 FA68     		ldr	r2, [r7, #12]
 958 0086 D218     		add	r2, r2, r3
 959 0088 1A23     		mov	r3, #26
 960 008a FB18     		add	r3, r7, r3
 961 008c 1288     		ldrh	r2, [r2]
 962 008e 1A80     		strh	r2, [r3]
 192:fix_fft.c     **** 		fr[m] = fr[mr];
 963              		.loc 1 192 0
 964 0090 BB1D     		add	r3, r7, #6
 965 0092 0022     		mov	r2, #0
 966 0094 9B5E     		ldrsh	r3, [r3, r2]
 967 0096 5B00     		lsl	r3, r3, #1
 968 0098 FA68     		ldr	r2, [r7, #12]
 969 009a D318     		add	r3, r2, r3
 970 009c 7A6C     		ldr	r2, [r7, #68]
 971 009e 5200     		lsl	r2, r2, #1
 972 00a0 F968     		ldr	r1, [r7, #12]
 973 00a2 8A18     		add	r2, r1, r2
 974 00a4 1288     		ldrh	r2, [r2]
 975 00a6 1A80     		strh	r2, [r3]
 193:fix_fft.c     **** 		fr[mr] = tr;
 976              		.loc 1 193 0
 977 00a8 7B6C     		ldr	r3, [r7, #68]
 978 00aa 5B00     		lsl	r3, r3, #1
 979 00ac FA68     		ldr	r2, [r7, #12]
 980 00ae D318     		add	r3, r2, r3
 981 00b0 1A22     		mov	r2, #26
 982 00b2 BA18     		add	r2, r7, r2
 983 00b4 1288     		ldrh	r2, [r2]
 984 00b6 1A80     		strh	r2, [r3]
 194:fix_fft.c     **** 		ti = fi[m];
 985              		.loc 1 194 0
 986 00b8 BB1D     		add	r3, r7, #6
 987 00ba 0022     		mov	r2, #0
 988 00bc 9B5E     		ldrsh	r3, [r3, r2]
 989 00be 5B00     		lsl	r3, r3, #1
 990 00c0 BA68     		ldr	r2, [r7, #8]
 991 00c2 D218     		add	r2, r2, r3
 992 00c4 1823     		mov	r3, #24
 993 00c6 FB18     		add	r3, r7, r3
 994 00c8 1288     		ldrh	r2, [r2]
 995 00ca 1A80     		strh	r2, [r3]
 195:fix_fft.c     **** 		fi[m] = fi[mr];
 996              		.loc 1 195 0
 997 00cc BB1D     		add	r3, r7, #6
 998 00ce 0022     		mov	r2, #0
 999 00d0 9B5E     		ldrsh	r3, [r3, r2]
 1000 00d2 5B00     		lsl	r3, r3, #1
 1001 00d4 BA68     		ldr	r2, [r7, #8]
 1002 00d6 D318     		add	r3, r2, r3
ARM GAS  C:\Users\fneves\AppData\Local\Temp\ccAW1o26.s 			page 22


 1003 00d8 7A6C     		ldr	r2, [r7, #68]
 1004 00da 5200     		lsl	r2, r2, #1
 1005 00dc B968     		ldr	r1, [r7, #8]
 1006 00de 8A18     		add	r2, r1, r2
 1007 00e0 1288     		ldrh	r2, [r2]
 1008 00e2 1A80     		strh	r2, [r3]
 196:fix_fft.c     **** 		fi[mr] = ti;
 1009              		.loc 1 196 0
 1010 00e4 7B6C     		ldr	r3, [r7, #68]
 1011 00e6 5B00     		lsl	r3, r3, #1
 1012 00e8 BA68     		ldr	r2, [r7, #8]
 1013 00ea D318     		add	r3, r2, r3
 1014 00ec 1822     		mov	r2, #24
 1015 00ee BA18     		add	r2, r7, r2
 1016 00f0 1288     		ldrh	r2, [r2]
 1017 00f2 1A80     		strh	r2, [r3]
 1018              	.L9:
 182:fix_fft.c     **** 		l = n;
 1019              		.loc 1 182 0 discriminator 2
 1020 00f4 BB1D     		add	r3, r7, #6
 1021 00f6 1B88     		ldrh	r3, [r3]
 1022 00f8 0133     		add	r3, r3, #1
 1023 00fa 9AB2     		uxth	r2, r3
 1024 00fc BB1D     		add	r3, r7, #6
 1025 00fe 1A80     		strh	r2, [r3]
 1026              	.L6:
 182:fix_fft.c     **** 		l = n;
 1027              		.loc 1 182 0 is_stmt 0 discriminator 1
 1028 0100 BB1D     		add	r3, r7, #6
 1029 0102 0022     		mov	r2, #0
 1030 0104 9A5E     		ldrsh	r2, [r3, r2]
 1031 0106 FB69     		ldr	r3, [r7, #28]
 1032 0108 9A42     		cmp	r2, r3
 1033 010a 9EDD     		ble	.L10
 197:fix_fft.c     **** 	}
 198:fix_fft.c     **** 
 199:fix_fft.c     **** 	l = 1;
 1034              		.loc 1 199 0 is_stmt 1
 1035 010c 0123     		mov	r3, #1
 1036 010e BB63     		str	r3, [r7, #56]
 200:fix_fft.c     **** 	k = LOG2_N_WAVE-1;
 1037              		.loc 1 200 0
 1038 0110 0923     		mov	r3, #9
 1039 0112 7B63     		str	r3, [r7, #52]
 201:fix_fft.c     **** 	while (l < n) {
 1040              		.loc 1 201 0
 1041 0114 4FE1     		b	.L11
 1042              	.L29:
 202:fix_fft.c     **** 		if (inverse) {
 1043              		.loc 1 202 0
 1044 0116 3B1D     		add	r3, r7, #4
 1045 0118 0022     		mov	r2, #0
 1046 011a 9B5E     		ldrsh	r3, [r3, r2]
 1047 011c 002B     		cmp	r3, #0
 1048 011e 3ED0     		beq	.L12
 203:fix_fft.c     **** 			/* variable scaling, depending upon data */
 204:fix_fft.c     **** 			shift = 0;
ARM GAS  C:\Users\fneves\AppData\Local\Temp\ccAW1o26.s 			page 23


 1049              		.loc 1 204 0
 1050 0120 0023     		mov	r3, #0
 1051 0122 FB62     		str	r3, [r7, #44]
 205:fix_fft.c     **** 			for (i=0; i<n; ++i) {
 1052              		.loc 1 205 0
 1053 0124 0023     		mov	r3, #0
 1054 0126 3B64     		str	r3, [r7, #64]
 1055 0128 2EE0     		b	.L13
 1056              	.L19:
 206:fix_fft.c     **** 				j = fr[i];
 1057              		.loc 1 206 0
 1058 012a 3B6C     		ldr	r3, [r7, #64]
 1059 012c 5B00     		lsl	r3, r3, #1
 1060 012e FA68     		ldr	r2, [r7, #12]
 1061 0130 D318     		add	r3, r2, r3
 1062 0132 1B88     		ldrh	r3, [r3]
 1063 0134 1BB2     		sxth	r3, r3
 1064 0136 FB63     		str	r3, [r7, #60]
 207:fix_fft.c     **** 				if (j < 0)
 1065              		.loc 1 207 0
 1066 0138 FB6B     		ldr	r3, [r7, #60]
 1067 013a 002B     		cmp	r3, #0
 1068 013c 02DA     		bge	.L14
 208:fix_fft.c     **** 					j = -j;
 1069              		.loc 1 208 0
 1070 013e FB6B     		ldr	r3, [r7, #60]
 1071 0140 5B42     		neg	r3, r3
 1072 0142 FB63     		str	r3, [r7, #60]
 1073              	.L14:
 209:fix_fft.c     **** 				m = fi[i];
 1074              		.loc 1 209 0
 1075 0144 3B6C     		ldr	r3, [r7, #64]
 1076 0146 5B00     		lsl	r3, r3, #1
 1077 0148 BA68     		ldr	r2, [r7, #8]
 1078 014a D218     		add	r2, r2, r3
 1079 014c BB1D     		add	r3, r7, #6
 1080 014e 1288     		ldrh	r2, [r2]
 1081 0150 1A80     		strh	r2, [r3]
 210:fix_fft.c     **** 				if (m < 0)
 1082              		.loc 1 210 0
 1083 0152 BB1D     		add	r3, r7, #6
 1084 0154 0022     		mov	r2, #0
 1085 0156 9B5E     		ldrsh	r3, [r3, r2]
 1086 0158 002B     		cmp	r3, #0
 1087 015a 05DA     		bge	.L15
 211:fix_fft.c     **** 					m = -m;
 1088              		.loc 1 211 0
 1089 015c BB1D     		add	r3, r7, #6
 1090 015e 1B88     		ldrh	r3, [r3]
 1091 0160 5B42     		neg	r3, r3
 1092 0162 9AB2     		uxth	r2, r3
 1093 0164 BB1D     		add	r3, r7, #6
 1094 0166 1A80     		strh	r2, [r3]
 1095              	.L15:
 212:fix_fft.c     **** 				if (j > 16383 || m > 16383) {
 1096              		.loc 1 212 0
 1097 0168 FB6B     		ldr	r3, [r7, #60]
ARM GAS  C:\Users\fneves\AppData\Local\Temp\ccAW1o26.s 			page 24


 1098 016a 984A     		ldr	r2, .L30
 1099 016c 9342     		cmp	r3, r2
 1100 016e 05DC     		bgt	.L16
 1101              		.loc 1 212 0 is_stmt 0 discriminator 1
 1102 0170 BB1D     		add	r3, r7, #6
 1103 0172 0022     		mov	r2, #0
 1104 0174 9B5E     		ldrsh	r3, [r3, r2]
 1105 0176 954A     		ldr	r2, .L30
 1106 0178 9342     		cmp	r3, r2
 1107 017a 02DD     		ble	.L17
 1108              	.L16:
 213:fix_fft.c     **** 					shift = 1;
 1109              		.loc 1 213 0 is_stmt 1
 1110 017c 0123     		mov	r3, #1
 1111 017e FB62     		str	r3, [r7, #44]
 214:fix_fft.c     **** 					break;
 1112              		.loc 1 214 0
 1113 0180 06E0     		b	.L18
 1114              	.L17:
 205:fix_fft.c     **** 				j = fr[i];
 1115              		.loc 1 205 0 discriminator 2
 1116 0182 3B6C     		ldr	r3, [r7, #64]
 1117 0184 0133     		add	r3, r3, #1
 1118 0186 3B64     		str	r3, [r7, #64]
 1119              	.L13:
 205:fix_fft.c     **** 				j = fr[i];
 1120              		.loc 1 205 0 is_stmt 0 discriminator 1
 1121 0188 3A6C     		ldr	r2, [r7, #64]
 1122 018a 3B6A     		ldr	r3, [r7, #32]
 1123 018c 9A42     		cmp	r2, r3
 1124 018e CCDB     		blt	.L19
 1125              	.L18:
 215:fix_fft.c     **** 				}
 216:fix_fft.c     **** 			}
 217:fix_fft.c     **** 			if (shift)
 1126              		.loc 1 217 0 is_stmt 1
 1127 0190 FB6A     		ldr	r3, [r7, #44]
 1128 0192 002B     		cmp	r3, #0
 1129 0194 05D0     		beq	.L21
 218:fix_fft.c     **** 				++scale;
 1130              		.loc 1 218 0
 1131 0196 3B6B     		ldr	r3, [r7, #48]
 1132 0198 0133     		add	r3, r3, #1
 1133 019a 3B63     		str	r3, [r7, #48]
 1134 019c 01E0     		b	.L21
 1135              	.L12:
 219:fix_fft.c     **** 		} else {
 220:fix_fft.c     **** 			/*
 221:fix_fft.c     **** 			  fixed scaling, for proper normalization --
 222:fix_fft.c     **** 			  there will be log2(n) passes, so this results
 223:fix_fft.c     **** 			  in an overall factor of 1/n, distributed to
 224:fix_fft.c     **** 			  maximize arithmetic accuracy.
 225:fix_fft.c     **** 			*/
 226:fix_fft.c     **** 			shift = 1;
 1136              		.loc 1 226 0
 1137 019e 0123     		mov	r3, #1
 1138 01a0 FB62     		str	r3, [r7, #44]
ARM GAS  C:\Users\fneves\AppData\Local\Temp\ccAW1o26.s 			page 25


 1139              	.L21:
 227:fix_fft.c     **** 		}
 228:fix_fft.c     **** 		/*
 229:fix_fft.c     **** 		  it may not be obvious, but the shift will be
 230:fix_fft.c     **** 		  performed on each data point exactly once,
 231:fix_fft.c     **** 		  during this pass.
 232:fix_fft.c     **** 		*/
 233:fix_fft.c     **** 		istep = l << 1;
 1140              		.loc 1 233 0
 1141 01a2 BB6B     		ldr	r3, [r7, #56]
 1142 01a4 5B00     		lsl	r3, r3, #1
 1143 01a6 7B61     		str	r3, [r7, #20]
 234:fix_fft.c     **** 		for (m=0; m<l; ++m) {
 1144              		.loc 1 234 0
 1145 01a8 BB1D     		add	r3, r7, #6
 1146 01aa 0022     		mov	r2, #0
 1147 01ac 1A80     		strh	r2, [r3]
 1148 01ae F6E0     		b	.L22
 1149              	.L28:
 235:fix_fft.c     **** 			j = m << k;
 1150              		.loc 1 235 0
 1151 01b0 BB1D     		add	r3, r7, #6
 1152 01b2 0022     		mov	r2, #0
 1153 01b4 9A5E     		ldrsh	r2, [r3, r2]
 1154 01b6 7B6B     		ldr	r3, [r7, #52]
 1155 01b8 9A40     		lsl	r2, r2, r3
 1156 01ba 131C     		mov	r3, r2
 1157 01bc FB63     		str	r3, [r7, #60]
 236:fix_fft.c     **** 			/* 0 <= j < N_WAVE/2 */
 237:fix_fft.c     **** 			wr =  Sinewave[j+N_WAVE/4];
 1158              		.loc 1 237 0
 1159 01be FB6B     		ldr	r3, [r7, #60]
 1160 01c0 591C     		add	r1, r3, #1
 1161 01c2 FF31     		add	r1, r1, #255
 1162 01c4 2623     		mov	r3, #38
 1163 01c6 FB18     		add	r3, r7, r3
 1164 01c8 814A     		ldr	r2, .L30+4
 1165 01ca 4900     		lsl	r1, r1, #1
 1166 01cc 8A5A     		ldrh	r2, [r1, r2]
 1167 01ce 1A80     		strh	r2, [r3]
 238:fix_fft.c     **** 			wi = -Sinewave[j];
 1168              		.loc 1 238 0
 1169 01d0 7F4B     		ldr	r3, .L30+4
 1170 01d2 FA6B     		ldr	r2, [r7, #60]
 1171 01d4 5200     		lsl	r2, r2, #1
 1172 01d6 D35A     		ldrh	r3, [r2, r3]
 1173 01d8 9BB2     		uxth	r3, r3
 1174 01da 5B42     		neg	r3, r3
 1175 01dc 9AB2     		uxth	r2, r3
 1176 01de 2423     		mov	r3, #36
 1177 01e0 FB18     		add	r3, r7, r3
 1178 01e2 1A80     		strh	r2, [r3]
 239:fix_fft.c     **** 			if (inverse)
 1179              		.loc 1 239 0
 1180 01e4 3B1D     		add	r3, r7, #4
 1181 01e6 0022     		mov	r2, #0
 1182 01e8 9B5E     		ldrsh	r3, [r3, r2]
ARM GAS  C:\Users\fneves\AppData\Local\Temp\ccAW1o26.s 			page 26


 1183 01ea 002B     		cmp	r3, #0
 1184 01ec 07D0     		beq	.L23
 240:fix_fft.c     **** 				wi = -wi;
 1185              		.loc 1 240 0
 1186 01ee 2423     		mov	r3, #36
 1187 01f0 FB18     		add	r3, r7, r3
 1188 01f2 1B88     		ldrh	r3, [r3]
 1189 01f4 5B42     		neg	r3, r3
 1190 01f6 9AB2     		uxth	r2, r3
 1191 01f8 2423     		mov	r3, #36
 1192 01fa FB18     		add	r3, r7, r3
 1193 01fc 1A80     		strh	r2, [r3]
 1194              	.L23:
 241:fix_fft.c     **** 			if (shift) {
 1195              		.loc 1 241 0
 1196 01fe FB6A     		ldr	r3, [r7, #44]
 1197 0200 002B     		cmp	r3, #0
 1198 0202 0FD0     		beq	.L24
 242:fix_fft.c     **** 				wr >>= 1;
 1199              		.loc 1 242 0
 1200 0204 2623     		mov	r3, #38
 1201 0206 FB18     		add	r3, r7, r3
 1202 0208 2622     		mov	r2, #38
 1203 020a BA18     		add	r2, r7, r2
 1204 020c 0021     		mov	r1, #0
 1205 020e 525E     		ldrsh	r2, [r2, r1]
 1206 0210 5210     		asr	r2, r2, #1
 1207 0212 1A80     		strh	r2, [r3]
 243:fix_fft.c     **** 				wi >>= 1;
 1208              		.loc 1 243 0
 1209 0214 2423     		mov	r3, #36
 1210 0216 FB18     		add	r3, r7, r3
 1211 0218 2422     		mov	r2, #36
 1212 021a BA18     		add	r2, r7, r2
 1213 021c 0021     		mov	r1, #0
 1214 021e 525E     		ldrsh	r2, [r2, r1]
 1215 0220 5210     		asr	r2, r2, #1
 1216 0222 1A80     		strh	r2, [r3]
 1217              	.L24:
 244:fix_fft.c     **** 			}
 245:fix_fft.c     **** 			for (i=m; i<n; i+=istep) {
 1218              		.loc 1 245 0
 1219 0224 BB1D     		add	r3, r7, #6
 1220 0226 0022     		mov	r2, #0
 1221 0228 9B5E     		ldrsh	r3, [r3, r2]
 1222 022a 3B64     		str	r3, [r7, #64]
 1223 022c ACE0     		b	.L25
 1224              	.L27:
 246:fix_fft.c     **** 				j = i + l;
 1225              		.loc 1 246 0
 1226 022e 3A6C     		ldr	r2, [r7, #64]
 1227 0230 BB6B     		ldr	r3, [r7, #56]
 1228 0232 D318     		add	r3, r2, r3
 1229 0234 FB63     		str	r3, [r7, #60]
 247:fix_fft.c     **** 				tr = FIX_MPY(wr,fr[j]) - FIX_MPY(wi,fi[j]);
 1230              		.loc 1 247 0
 1231 0236 FB6B     		ldr	r3, [r7, #60]
ARM GAS  C:\Users\fneves\AppData\Local\Temp\ccAW1o26.s 			page 27


 1232 0238 5B00     		lsl	r3, r3, #1
 1233 023a FA68     		ldr	r2, [r7, #12]
 1234 023c D318     		add	r3, r2, r3
 1235 023e 1988     		ldrh	r1, [r3]
 1236 0240 2623     		mov	r3, #38
 1237 0242 FB18     		add	r3, r7, r3
 1238 0244 0022     		mov	r2, #0
 1239 0246 9A5E     		ldrsh	r2, [r3, r2]
 1240 0248 0BB2     		sxth	r3, r1
 1241 024a 101C     		mov	r0, r2
 1242 024c 191C     		mov	r1, r3
 1243 024e FFF7FEFF 		bl	FIX_MPY
 1244 0252 031C     		mov	r3, r0
 1245 0254 9CB2     		uxth	r4, r3
 1246 0256 FB6B     		ldr	r3, [r7, #60]
 1247 0258 5B00     		lsl	r3, r3, #1
 1248 025a BA68     		ldr	r2, [r7, #8]
 1249 025c D318     		add	r3, r2, r3
 1250 025e 1988     		ldrh	r1, [r3]
 1251 0260 2423     		mov	r3, #36
 1252 0262 FB18     		add	r3, r7, r3
 1253 0264 0022     		mov	r2, #0
 1254 0266 9A5E     		ldrsh	r2, [r3, r2]
 1255 0268 0BB2     		sxth	r3, r1
 1256 026a 101C     		mov	r0, r2
 1257 026c 191C     		mov	r1, r3
 1258 026e FFF7FEFF 		bl	FIX_MPY
 1259 0272 031C     		mov	r3, r0
 1260 0274 9BB2     		uxth	r3, r3
 1261 0276 E31A     		sub	r3, r4, r3
 1262 0278 9AB2     		uxth	r2, r3
 1263 027a 1A23     		mov	r3, #26
 1264 027c FB18     		add	r3, r7, r3
 1265 027e 1A80     		strh	r2, [r3]
 248:fix_fft.c     **** 				ti = FIX_MPY(wr,fi[j]) + FIX_MPY(wi,fr[j]);
 1266              		.loc 1 248 0
 1267 0280 FB6B     		ldr	r3, [r7, #60]
 1268 0282 5B00     		lsl	r3, r3, #1
 1269 0284 BA68     		ldr	r2, [r7, #8]
 1270 0286 D318     		add	r3, r2, r3
 1271 0288 1988     		ldrh	r1, [r3]
 1272 028a 2623     		mov	r3, #38
 1273 028c FB18     		add	r3, r7, r3
 1274 028e 0022     		mov	r2, #0
 1275 0290 9A5E     		ldrsh	r2, [r3, r2]
 1276 0292 0BB2     		sxth	r3, r1
 1277 0294 101C     		mov	r0, r2
 1278 0296 191C     		mov	r1, r3
 1279 0298 FFF7FEFF 		bl	FIX_MPY
 1280 029c 031C     		mov	r3, r0
 1281 029e 9CB2     		uxth	r4, r3
 1282 02a0 FB6B     		ldr	r3, [r7, #60]
 1283 02a2 5B00     		lsl	r3, r3, #1
 1284 02a4 FA68     		ldr	r2, [r7, #12]
 1285 02a6 D318     		add	r3, r2, r3
 1286 02a8 1988     		ldrh	r1, [r3]
 1287 02aa 2423     		mov	r3, #36
ARM GAS  C:\Users\fneves\AppData\Local\Temp\ccAW1o26.s 			page 28


 1288 02ac FB18     		add	r3, r7, r3
 1289 02ae 0022     		mov	r2, #0
 1290 02b0 9A5E     		ldrsh	r2, [r3, r2]
 1291 02b2 0BB2     		sxth	r3, r1
 1292 02b4 101C     		mov	r0, r2
 1293 02b6 191C     		mov	r1, r3
 1294 02b8 FFF7FEFF 		bl	FIX_MPY
 1295 02bc 031C     		mov	r3, r0
 1296 02be 9BB2     		uxth	r3, r3
 1297 02c0 E318     		add	r3, r4, r3
 1298 02c2 9AB2     		uxth	r2, r3
 1299 02c4 1823     		mov	r3, #24
 1300 02c6 FB18     		add	r3, r7, r3
 1301 02c8 1A80     		strh	r2, [r3]
 249:fix_fft.c     **** 				qr = fr[i];
 1302              		.loc 1 249 0
 1303 02ca 3B6C     		ldr	r3, [r7, #64]
 1304 02cc 5B00     		lsl	r3, r3, #1
 1305 02ce FA68     		ldr	r2, [r7, #12]
 1306 02d0 D218     		add	r2, r2, r3
 1307 02d2 2A23     		mov	r3, #42
 1308 02d4 FB18     		add	r3, r7, r3
 1309 02d6 1288     		ldrh	r2, [r2]
 1310 02d8 1A80     		strh	r2, [r3]
 250:fix_fft.c     **** 				qi = fi[i];
 1311              		.loc 1 250 0
 1312 02da 3B6C     		ldr	r3, [r7, #64]
 1313 02dc 5B00     		lsl	r3, r3, #1
 1314 02de BA68     		ldr	r2, [r7, #8]
 1315 02e0 D218     		add	r2, r2, r3
 1316 02e2 2823     		mov	r3, #40
 1317 02e4 FB18     		add	r3, r7, r3
 1318 02e6 1288     		ldrh	r2, [r2]
 1319 02e8 1A80     		strh	r2, [r3]
 251:fix_fft.c     **** 				if (shift) {
 1320              		.loc 1 251 0
 1321 02ea FB6A     		ldr	r3, [r7, #44]
 1322 02ec 002B     		cmp	r3, #0
 1323 02ee 0FD0     		beq	.L26
 252:fix_fft.c     **** 					qr >>= 1;
 1324              		.loc 1 252 0
 1325 02f0 2A23     		mov	r3, #42
 1326 02f2 FB18     		add	r3, r7, r3
 1327 02f4 2A22     		mov	r2, #42
 1328 02f6 BA18     		add	r2, r7, r2
 1329 02f8 0021     		mov	r1, #0
 1330 02fa 525E     		ldrsh	r2, [r2, r1]
 1331 02fc 5210     		asr	r2, r2, #1
 1332 02fe 1A80     		strh	r2, [r3]
 253:fix_fft.c     **** 					qi >>= 1;
 1333              		.loc 1 253 0
 1334 0300 2823     		mov	r3, #40
 1335 0302 FB18     		add	r3, r7, r3
 1336 0304 2822     		mov	r2, #40
 1337 0306 BA18     		add	r2, r7, r2
 1338 0308 0021     		mov	r1, #0
 1339 030a 525E     		ldrsh	r2, [r2, r1]
ARM GAS  C:\Users\fneves\AppData\Local\Temp\ccAW1o26.s 			page 29


 1340 030c 5210     		asr	r2, r2, #1
 1341 030e 1A80     		strh	r2, [r3]
 1342              	.L26:
 254:fix_fft.c     **** 				}
 255:fix_fft.c     **** 				fr[j] = qr - tr;
 1343              		.loc 1 255 0 discriminator 2
 1344 0310 FB6B     		ldr	r3, [r7, #60]
 1345 0312 5B00     		lsl	r3, r3, #1
 1346 0314 FA68     		ldr	r2, [r7, #12]
 1347 0316 D318     		add	r3, r2, r3
 1348 0318 2A22     		mov	r2, #42
 1349 031a BA18     		add	r2, r7, r2
 1350 031c 1188     		ldrh	r1, [r2]
 1351 031e 1A22     		mov	r2, #26
 1352 0320 BA18     		add	r2, r7, r2
 1353 0322 1288     		ldrh	r2, [r2]
 1354 0324 8A1A     		sub	r2, r1, r2
 1355 0326 92B2     		uxth	r2, r2
 1356 0328 92B2     		uxth	r2, r2
 1357 032a 1A80     		strh	r2, [r3]
 256:fix_fft.c     **** 				fi[j] = qi - ti;
 1358              		.loc 1 256 0 discriminator 2
 1359 032c FB6B     		ldr	r3, [r7, #60]
 1360 032e 5B00     		lsl	r3, r3, #1
 1361 0330 BA68     		ldr	r2, [r7, #8]
 1362 0332 D318     		add	r3, r2, r3
 1363 0334 2822     		mov	r2, #40
 1364 0336 BA18     		add	r2, r7, r2
 1365 0338 1188     		ldrh	r1, [r2]
 1366 033a 1822     		mov	r2, #24
 1367 033c BA18     		add	r2, r7, r2
 1368 033e 1288     		ldrh	r2, [r2]
 1369 0340 8A1A     		sub	r2, r1, r2
 1370 0342 92B2     		uxth	r2, r2
 1371 0344 92B2     		uxth	r2, r2
 1372 0346 1A80     		strh	r2, [r3]
 257:fix_fft.c     **** 				fr[i] = qr + tr;
 1373              		.loc 1 257 0 discriminator 2
 1374 0348 3B6C     		ldr	r3, [r7, #64]
 1375 034a 5B00     		lsl	r3, r3, #1
 1376 034c FA68     		ldr	r2, [r7, #12]
 1377 034e D318     		add	r3, r2, r3
 1378 0350 2A22     		mov	r2, #42
 1379 0352 BA18     		add	r2, r7, r2
 1380 0354 1188     		ldrh	r1, [r2]
 1381 0356 1A22     		mov	r2, #26
 1382 0358 BA18     		add	r2, r7, r2
 1383 035a 1288     		ldrh	r2, [r2]
 1384 035c 8A18     		add	r2, r1, r2
 1385 035e 92B2     		uxth	r2, r2
 1386 0360 92B2     		uxth	r2, r2
 1387 0362 1A80     		strh	r2, [r3]
 258:fix_fft.c     **** 				fi[i] = qi + ti;
 1388              		.loc 1 258 0 discriminator 2
 1389 0364 3B6C     		ldr	r3, [r7, #64]
 1390 0366 5B00     		lsl	r3, r3, #1
 1391 0368 BA68     		ldr	r2, [r7, #8]
ARM GAS  C:\Users\fneves\AppData\Local\Temp\ccAW1o26.s 			page 30


 1392 036a D318     		add	r3, r2, r3
 1393 036c 2822     		mov	r2, #40
 1394 036e BA18     		add	r2, r7, r2
 1395 0370 1188     		ldrh	r1, [r2]
 1396 0372 1822     		mov	r2, #24
 1397 0374 BA18     		add	r2, r7, r2
 1398 0376 1288     		ldrh	r2, [r2]
 1399 0378 8A18     		add	r2, r1, r2
 1400 037a 92B2     		uxth	r2, r2
 1401 037c 92B2     		uxth	r2, r2
 1402 037e 1A80     		strh	r2, [r3]
 245:fix_fft.c     **** 				j = i + l;
 1403              		.loc 1 245 0 discriminator 2
 1404 0380 3A6C     		ldr	r2, [r7, #64]
 1405 0382 7B69     		ldr	r3, [r7, #20]
 1406 0384 D318     		add	r3, r2, r3
 1407 0386 3B64     		str	r3, [r7, #64]
 1408              	.L25:
 245:fix_fft.c     **** 				j = i + l;
 1409              		.loc 1 245 0 is_stmt 0 discriminator 1
 1410 0388 3A6C     		ldr	r2, [r7, #64]
 1411 038a 3B6A     		ldr	r3, [r7, #32]
 1412 038c 9A42     		cmp	r2, r3
 1413 038e 00DA     		bge	.LCB547
 1414 0390 4DE7     		b	.L27	@long jump
 1415              	.LCB547:
 234:fix_fft.c     **** 			j = m << k;
 1416              		.loc 1 234 0 is_stmt 1 discriminator 2
 1417 0392 BB1D     		add	r3, r7, #6
 1418 0394 1B88     		ldrh	r3, [r3]
 1419 0396 0133     		add	r3, r3, #1
 1420 0398 9AB2     		uxth	r2, r3
 1421 039a BB1D     		add	r3, r7, #6
 1422 039c 1A80     		strh	r2, [r3]
 1423              	.L22:
 234:fix_fft.c     **** 			j = m << k;
 1424              		.loc 1 234 0 is_stmt 0 discriminator 1
 1425 039e BB1D     		add	r3, r7, #6
 1426 03a0 0022     		mov	r2, #0
 1427 03a2 9A5E     		ldrsh	r2, [r3, r2]
 1428 03a4 BB6B     		ldr	r3, [r7, #56]
 1429 03a6 9A42     		cmp	r2, r3
 1430 03a8 00DA     		bge	.LCB560
 1431 03aa 01E7     		b	.L28	@long jump
 1432              	.LCB560:
 259:fix_fft.c     **** 			}
 260:fix_fft.c     **** 		}
 261:fix_fft.c     **** 		--k;
 1433              		.loc 1 261 0 is_stmt 1
 1434 03ac 7B6B     		ldr	r3, [r7, #52]
 1435 03ae 013B     		sub	r3, r3, #1
 1436 03b0 7B63     		str	r3, [r7, #52]
 262:fix_fft.c     **** 		l = istep;
 1437              		.loc 1 262 0
 1438 03b2 7B69     		ldr	r3, [r7, #20]
 1439 03b4 BB63     		str	r3, [r7, #56]
 1440              	.L11:
ARM GAS  C:\Users\fneves\AppData\Local\Temp\ccAW1o26.s 			page 31


 201:fix_fft.c     **** 		if (inverse) {
 1441              		.loc 1 201 0
 1442 03b6 BA6B     		ldr	r2, [r7, #56]
 1443 03b8 3B6A     		ldr	r3, [r7, #32]
 1444 03ba 9A42     		cmp	r2, r3
 1445 03bc 00DA     		bge	.LCB571
 1446 03be AAE6     		b	.L29	@long jump
 1447              	.LCB571:
 263:fix_fft.c     **** 	}
 264:fix_fft.c     **** 	return scale;
 1448              		.loc 1 264 0
 1449 03c0 3B6B     		ldr	r3, [r7, #48]
 1450              	.L5:
 265:fix_fft.c     **** }
 1451              		.loc 1 265 0
 1452 03c2 181C     		mov	r0, r3
 1453 03c4 BD46     		mov	sp, r7
 1454 03c6 13B0     		add	sp, sp, #76
 1455              		@ sp needed
 1456 03c8 90BD     		pop	{r4, r7, pc}
 1457              	.L31:
 1458 03ca C046     		.align	2
 1459              	.L30:
 1460 03cc FF3F0000 		.word	16383
 1461 03d0 00000000 		.word	Sinewave
 1462              		.cfi_endproc
 1463              	.LFE1:
 1464              		.size	fix_fft, .-fix_fft
 1465              		.section	.text.fix_fftr,"ax",%progbits
 1466              		.align	2
 1467              		.global	fix_fftr
 1468              		.code	16
 1469              		.thumb_func
 1470              		.type	fix_fftr, %function
 1471              	fix_fftr:
 1472              	.LFB2:
 266:fix_fft.c     **** 
 267:fix_fft.c     **** /*
 268:fix_fft.c     ****   fix_fftr() - forward/inverse FFT on array of real numbers.
 269:fix_fft.c     ****   Real FFT/iFFT using half-size complex FFT by distributing
 270:fix_fft.c     ****   even/odd samples into real/imaginary arrays respectively.
 271:fix_fft.c     ****   In order to save data space (i.e. to avoid two arrays, one
 272:fix_fft.c     ****   for real, one for imaginary samples), we proceed in the
 273:fix_fft.c     ****   following two steps: a) samples are rearranged in the real
 274:fix_fft.c     ****   array so that all even samples are in places 0-(N/2-1) and
 275:fix_fft.c     ****   all imaginary samples in places (N/2)-(N-1), and b) fix_fft
 276:fix_fft.c     ****   is called with fr and fi pointing to index 0 and index N/2
 277:fix_fft.c     ****   respectively in the original array. The above guarantees
 278:fix_fft.c     ****   that fix_fft "sees" consecutive real samples as alternating
 279:fix_fft.c     ****   real and imaginary samples in the complex array.
 280:fix_fft.c     **** */
 281:fix_fft.c     **** int fix_fftr(short f[], int m, int inverse)
 282:fix_fft.c     **** {
 1473              		.loc 1 282 0
 1474              		.cfi_startproc
 1475 0000 80B5     		push	{r7, lr}
 1476              		.cfi_def_cfa_offset 8
ARM GAS  C:\Users\fneves\AppData\Local\Temp\ccAW1o26.s 			page 32


 1477              		.cfi_offset 7, -8
 1478              		.cfi_offset 14, -4
 1479 0002 8AB0     		sub	sp, sp, #40
 1480              		.cfi_def_cfa_offset 48
 1481 0004 00AF     		add	r7, sp, #0
 1482              		.cfi_def_cfa_register 7
 1483 0006 F860     		str	r0, [r7, #12]
 1484 0008 B960     		str	r1, [r7, #8]
 1485 000a 7A60     		str	r2, [r7, #4]
 283:fix_fft.c     **** 	int i, N = 1<<(m-1), scale = 0;
 1486              		.loc 1 283 0
 1487 000c BB68     		ldr	r3, [r7, #8]
 1488 000e 013B     		sub	r3, r3, #1
 1489 0010 0122     		mov	r2, #1
 1490 0012 9A40     		lsl	r2, r2, r3
 1491 0014 131C     		mov	r3, r2
 1492 0016 FB61     		str	r3, [r7, #28]
 1493 0018 0023     		mov	r3, #0
 1494 001a 3B62     		str	r3, [r7, #32]
 284:fix_fft.c     **** 	short tt, *fr=f, *fi=&f[N];
 1495              		.loc 1 284 0
 1496 001c FB68     		ldr	r3, [r7, #12]
 1497 001e BB61     		str	r3, [r7, #24]
 1498 0020 FB69     		ldr	r3, [r7, #28]
 1499 0022 5B00     		lsl	r3, r3, #1
 1500 0024 FA68     		ldr	r2, [r7, #12]
 1501 0026 D318     		add	r3, r2, r3
 1502 0028 7B61     		str	r3, [r7, #20]
 285:fix_fft.c     **** 
 286:fix_fft.c     **** 	if (inverse)
 1503              		.loc 1 286 0
 1504 002a 7B68     		ldr	r3, [r7, #4]
 1505 002c 002B     		cmp	r3, #0
 1506 002e 0ED0     		beq	.L33
 287:fix_fft.c     **** 		scale = fix_fft(fi, fr, m-1, inverse);
 1507              		.loc 1 287 0
 1508 0030 BB68     		ldr	r3, [r7, #8]
 1509 0032 9BB2     		uxth	r3, r3
 1510 0034 013B     		sub	r3, r3, #1
 1511 0036 9BB2     		uxth	r3, r3
 1512 0038 9AB2     		uxth	r2, r3
 1513 003a 7B68     		ldr	r3, [r7, #4]
 1514 003c 9BB2     		uxth	r3, r3
 1515 003e 7869     		ldr	r0, [r7, #20]
 1516 0040 B969     		ldr	r1, [r7, #24]
 1517 0042 12B2     		sxth	r2, r2
 1518 0044 1BB2     		sxth	r3, r3
 1519 0046 FFF7FEFF 		bl	fix_fft
 1520 004a 031C     		mov	r3, r0
 1521 004c 3B62     		str	r3, [r7, #32]
 1522              	.L33:
 288:fix_fft.c     **** 	for (i=1; i<N; i+=2) {
 1523              		.loc 1 288 0
 1524 004e 0123     		mov	r3, #1
 1525 0050 7B62     		str	r3, [r7, #36]
 1526 0052 26E0     		b	.L34
 1527              	.L35:
ARM GAS  C:\Users\fneves\AppData\Local\Temp\ccAW1o26.s 			page 33


 289:fix_fft.c     **** 		tt = f[N+i-1];
 1528              		.loc 1 289 0 discriminator 3
 1529 0054 FA69     		ldr	r2, [r7, #28]
 1530 0056 7B6A     		ldr	r3, [r7, #36]
 1531 0058 D318     		add	r3, r2, r3
 1532 005a 1F4A     		ldr	r2, .L38
 1533 005c 9446     		mov	ip, r2
 1534 005e 6344     		add	r3, r3, ip
 1535 0060 5B00     		lsl	r3, r3, #1
 1536 0062 FA68     		ldr	r2, [r7, #12]
 1537 0064 D218     		add	r2, r2, r3
 1538 0066 1223     		mov	r3, #18
 1539 0068 FB18     		add	r3, r7, r3
 1540 006a 1288     		ldrh	r2, [r2]
 1541 006c 1A80     		strh	r2, [r3]
 290:fix_fft.c     **** 		f[N+i-1] = f[i];
 1542              		.loc 1 290 0 discriminator 3
 1543 006e FA69     		ldr	r2, [r7, #28]
 1544 0070 7B6A     		ldr	r3, [r7, #36]
 1545 0072 D318     		add	r3, r2, r3
 1546 0074 184A     		ldr	r2, .L38
 1547 0076 9446     		mov	ip, r2
 1548 0078 6344     		add	r3, r3, ip
 1549 007a 5B00     		lsl	r3, r3, #1
 1550 007c FA68     		ldr	r2, [r7, #12]
 1551 007e D318     		add	r3, r2, r3
 1552 0080 7A6A     		ldr	r2, [r7, #36]
 1553 0082 5200     		lsl	r2, r2, #1
 1554 0084 F968     		ldr	r1, [r7, #12]
 1555 0086 8A18     		add	r2, r1, r2
 1556 0088 1288     		ldrh	r2, [r2]
 1557 008a 1A80     		strh	r2, [r3]
 291:fix_fft.c     **** 		f[i] = tt;
 1558              		.loc 1 291 0 discriminator 3
 1559 008c 7B6A     		ldr	r3, [r7, #36]
 1560 008e 5B00     		lsl	r3, r3, #1
 1561 0090 FA68     		ldr	r2, [r7, #12]
 1562 0092 D318     		add	r3, r2, r3
 1563 0094 1222     		mov	r2, #18
 1564 0096 BA18     		add	r2, r7, r2
 1565 0098 1288     		ldrh	r2, [r2]
 1566 009a 1A80     		strh	r2, [r3]
 288:fix_fft.c     **** 		tt = f[N+i-1];
 1567              		.loc 1 288 0 discriminator 3
 1568 009c 7B6A     		ldr	r3, [r7, #36]
 1569 009e 0233     		add	r3, r3, #2
 1570 00a0 7B62     		str	r3, [r7, #36]
 1571              	.L34:
 288:fix_fft.c     **** 		tt = f[N+i-1];
 1572              		.loc 1 288 0 is_stmt 0 discriminator 1
 1573 00a2 7A6A     		ldr	r2, [r7, #36]
 1574 00a4 FB69     		ldr	r3, [r7, #28]
 1575 00a6 9A42     		cmp	r2, r3
 1576 00a8 D4DB     		blt	.L35
 292:fix_fft.c     **** 	}
 293:fix_fft.c     **** 	if (! inverse)
 1577              		.loc 1 293 0 is_stmt 1
ARM GAS  C:\Users\fneves\AppData\Local\Temp\ccAW1o26.s 			page 34


 1578 00aa 7B68     		ldr	r3, [r7, #4]
 1579 00ac 002B     		cmp	r3, #0
 1580 00ae 0ED1     		bne	.L36
 294:fix_fft.c     **** 		scale = fix_fft(fi, fr, m-1, inverse);
 1581              		.loc 1 294 0
 1582 00b0 BB68     		ldr	r3, [r7, #8]
 1583 00b2 9BB2     		uxth	r3, r3
 1584 00b4 013B     		sub	r3, r3, #1
 1585 00b6 9BB2     		uxth	r3, r3
 1586 00b8 9AB2     		uxth	r2, r3
 1587 00ba 7B68     		ldr	r3, [r7, #4]
 1588 00bc 9BB2     		uxth	r3, r3
 1589 00be 7869     		ldr	r0, [r7, #20]
 1590 00c0 B969     		ldr	r1, [r7, #24]
 1591 00c2 12B2     		sxth	r2, r2
 1592 00c4 1BB2     		sxth	r3, r3
 1593 00c6 FFF7FEFF 		bl	fix_fft
 1594 00ca 031C     		mov	r3, r0
 1595 00cc 3B62     		str	r3, [r7, #32]
 1596              	.L36:
 295:fix_fft.c     **** 	return scale;
 1597              		.loc 1 295 0
 1598 00ce 3B6A     		ldr	r3, [r7, #32]
 296:fix_fft.c     **** }
 1599              		.loc 1 296 0
 1600 00d0 181C     		mov	r0, r3
 1601 00d2 BD46     		mov	sp, r7
 1602 00d4 0AB0     		add	sp, sp, #40
 1603              		@ sp needed
 1604 00d6 80BD     		pop	{r7, pc}
 1605              	.L39:
 1606              		.align	2
 1607              	.L38:
 1608 00d8 FFFFFF7F 		.word	2147483647
 1609              		.cfi_endproc
 1610              	.LFE2:
 1611              		.size	fix_fftr, .-fix_fftr
 1612              		.text
 1613              	.Letext0: