ARM GAS  C:\Users\fneves\AppData\Local\Temp\cchuOQPa.s 			page 1


   1              		.cpu cortex-m0plus
   2              		.fpu softvfp
   3              		.eabi_attribute 20, 1
   4              		.eabi_attribute 21, 1
   5              		.eabi_attribute 23, 3
   6              		.eabi_attribute 24, 1
   7              		.eabi_attribute 25, 1
   8              		.eabi_attribute 26, 1
   9              		.eabi_attribute 30, 6
  10              		.eabi_attribute 34, 0
  11              		.eabi_attribute 18, 4
  12              		.code	16
  13              		.file	"main.c"
  14              		.text
  15              	.Ltext0:
  16              		.cfi_sections	.debug_frame
  17              		.section	.text.main,"ax",%progbits
  18              		.align	2
  19              		.global	main
  20              		.code	16
  21              		.thumb_func
  22              		.type	main, %function
  23              	main:
  24              	.LFB67:
  25              		.file 1 "main.c"
   1:main.c        **** /**
   2:main.c        ****  * @brief engine speed sensor main application file 
   3:main.c        ****  */
   4:main.c        **** #include <stdbool.h>
   5:main.c        **** #include "event_queue.h"
   6:main.c        **** #include "engine_afe.h"
   7:main.c        **** #include "project.h"
   8:main.c        **** #include "ui.h"
   9:main.c        **** 
  10:main.c        **** /**
  11:main.c        ****  * @brief main loop application 
  12:main.c        ****  */
  13:main.c        **** int main(void)
  14:main.c        **** {   
  26              		.loc 1 14 0
  27              		.cfi_startproc
  28 0000 90B5     		push	{r4, r7, lr}
  29              		.cfi_def_cfa_offset 12
  30              		.cfi_offset 4, -12
  31              		.cfi_offset 7, -8
  32              		.cfi_offset 14, -4
  33 0002 83B0     		sub	sp, sp, #12
  34              		.cfi_def_cfa_offset 24
  35 0004 00AF     		add	r7, sp, #0
  36              		.cfi_def_cfa_register 7
  15:main.c        ****     bool should_run  = true;
  37              		.loc 1 15 0
  38 0006 FB1D     		add	r3, r7, #7
  39 0008 0122     		mov	r2, #1
  40 000a 1A70     		strb	r2, [r3]
  16:main.c        ****     system_event_t global_ev;
  17:main.c        ****     
ARM GAS  C:\Users\fneves\AppData\Local\Temp\cchuOQPa.s 			page 2


  18:main.c        ****     CyGlobalIntDisable;
  41              		.loc 1 18 0
  42              	@ 18 "main.c" 1
  43 000c 72B6     		CPSID   i
  44              	@ 0 "" 2
  19:main.c        ****     
  20:main.c        ****     /* init application event manager */
  21:main.c        ****     event_queue_init();
  45              		.loc 1 21 0
  46              		.code	16
  47 000e FFF7FEFF 		bl	event_queue_init
  22:main.c        ****     
  23:main.c        ****     /* inits the engine sensor analog front end engine */
  24:main.c        ****     engine_afe_init();
  48              		.loc 1 24 0
  49 0012 FFF7FEFF 		bl	engine_afe_init
  25:main.c        ****     
  26:main.c        ****     /* inits the comm interface, a uart in 115200 bps 8N1 */
  27:main.c        ****     ui_init();
  50              		.loc 1 27 0
  51 0016 FFF7FEFF 		bl	ui_init
  28:main.c        ****     
  29:main.c        ****     /* enable global interrupts */
  30:main.c        ****     CyGlobalIntEnable;
  52              		.loc 1 30 0
  53              	@ 30 "main.c" 1
  54 001a 62B6     		CPSIE   i
  55              	@ 0 "" 2
  31:main.c        ****     
  32:main.c        ****     for(;should_run != false;) {
  56              		.loc 1 32 0
  57              		.code	16
  58 001c 0EE0     		b	.L2
  59              	.L3:
  33:main.c        ****         /* each loop, gets the system generated events 
  34:main.c        ****          * eg.: interrupts signals, process completeds
  35:main.c        ****          * and broadcast to all sub applications, each
  36:main.c        ****          * app do programmed actions based on events arrived
  37:main.c        ****          */
  38:main.c        ****         global_ev = event_queue_get();
  60              		.loc 1 38 0
  61 001e BC1D     		add	r4, r7, #6
  62 0020 FFF7FEFF 		bl	event_queue_get
  63 0024 031C     		mov	r3, r0
  64 0026 2370     		strb	r3, [r4]
  39:main.c        ****         
  40:main.c        ****         engine_afe_main(global_ev);
  65              		.loc 1 40 0
  66 0028 BB1D     		add	r3, r7, #6
  67 002a 1B78     		ldrb	r3, [r3]
  68 002c 181C     		mov	r0, r3
  69 002e FFF7FEFF 		bl	engine_afe_main
  41:main.c        ****         ui_main(global_ev);
  70              		.loc 1 41 0
  71 0032 BB1D     		add	r3, r7, #6
  72 0034 1B78     		ldrb	r3, [r3]
  73 0036 181C     		mov	r0, r3
ARM GAS  C:\Users\fneves\AppData\Local\Temp\cchuOQPa.s 			page 3


  74 0038 FFF7FEFF 		bl	ui_main
  75              	.L2:
  32:main.c        ****         /* each loop, gets the system generated events 
  76              		.loc 1 32 0
  77 003c FB1D     		add	r3, r7, #7
  78 003e 1B78     		ldrb	r3, [r3]
  79 0040 002B     		cmp	r3, #0
  80 0042 ECD1     		bne	.L3
  42:main.c        ****     }
  43:main.c        ****     return 0;
  81              		.loc 1 43 0
  82 0044 0023     		mov	r3, #0
  44:main.c        **** }
  83              		.loc 1 44 0
  84 0046 181C     		mov	r0, r3
  85 0048 BD46     		mov	sp, r7
  86 004a 03B0     		add	sp, sp, #12
  87              		@ sp needed
  88 004c 90BD     		pop	{r4, r7, pc}
  89              		.cfi_endproc
  90              	.LFE67:
  91              		.size	main, .-main
  92 004e C046     		.text
  93              	.Letext0:
  94              		.file 2 "event_queue.h"