ARM GAS  C:\Users\fneves\AppData\Local\Temp\cc1UZQDu.s 			page 1


   1              		.cpu cortex-m0plus
   2              		.fpu softvfp
   3              		.eabi_attribute 20, 1
   4              		.eabi_attribute 21, 1
   5              		.eabi_attribute 23, 3
   6              		.eabi_attribute 24, 1
   7              		.eabi_attribute 25, 1
   8              		.eabi_attribute 26, 1
   9              		.eabi_attribute 30, 6
  10              		.eabi_attribute 34, 0
  11              		.eabi_attribute 18, 4
  12              		.code	16
  13              		.file	"ui.c"
  14              		.text
  15              	.Ltext0:
  16              		.cfi_sections	.debug_frame
  17              		.bss
  18              	ui_busy:
  19 0000 00       		.space	1
  20 0001 000000   		.align	2
  21              	pack:
  22 0004 00000000 		.space	8
  22      00000000 
  23              		.global	result_buffer
  24              		.align	2
  25              		.type	result_buffer, %object
  26              		.size	result_buffer, 64
  27              	result_buffer:
  28 000c 00000000 		.space	64
  28      00000000 
  28      00000000 
  28      00000000 
  28      00000000 
  29              		.section	.text.ui_init,"ax",%progbits
  30              		.align	2
  31              		.global	ui_init
  32              		.code	16
  33              		.thumb_func
  34              		.type	ui_init, %function
  35              	ui_init:
  36              	.LFB67:
  37              		.file 1 "ui.c"
   1:ui.c          **** /**
   2:ui.c          ****  * @brief user interface of engine sensor
   3:ui.c          ****  */
   4:ui.c          **** #include <project.h>
   5:ui.c          **** #include <stdint.h>
   6:ui.c          **** #include <stdlib.h>
   7:ui.c          **** #include "engine_afe.h"
   8:ui.c          **** #include "event_queue.h"
   9:ui.c          **** #include "ui.h"
  10:ui.c          **** 
  11:ui.c          **** static uint8_t ui_busy = 0;
  12:ui.c          **** static measure_pack_t pack = {0,0};
  13:ui.c          **** char result_buffer[64] = {0};
  14:ui.c          **** 
  15:ui.c          **** 
ARM GAS  C:\Users\fneves\AppData\Local\Temp\cc1UZQDu.s 			page 2


  16:ui.c          **** /**
  17:ui.c          ****  * @brief uart TX packet sent callback
  18:ui.c          ****  */
  19:ui.c          **** 
  20:ui.c          **** void ui_init(void)
  21:ui.c          **** {
  38              		.loc 1 21 0
  39              		.cfi_startproc
  40 0000 80B5     		push	{r7, lr}
  41              		.cfi_def_cfa_offset 8
  42              		.cfi_offset 7, -8
  43              		.cfi_offset 14, -4
  44 0002 00AF     		add	r7, sp, #0
  45              		.cfi_def_cfa_register 7
  22:ui.c          ****     engine_sensor_uart_Start();
  46              		.loc 1 22 0
  47 0004 FFF7FEFF 		bl	engine_sensor_uart_Start
  23:ui.c          ****     engine_sensor_uart_Enable();    
  48              		.loc 1 23 0
  49 0008 FFF7FEFF 		bl	engine_sensor_uart_Enable
  24:ui.c          **** }
  50              		.loc 1 24 0
  51 000c BD46     		mov	sp, r7
  52              		@ sp needed
  53 000e 80BD     		pop	{r7, pc}
  54              		.cfi_endproc
  55              	.LFE67:
  56              		.size	ui_init, .-ui_init
  57              		.section	.rodata
  58              		.align	2
  59              	.LC2:
  60 0000 5B4D4541 		.ascii	"[MEASURED]: %d(RPM) - [at TIMESTAMP]: %d(ms)\012\015"
  60      53555245 
  60      445D3A20 
  60      25642852 
  60      504D2920 
  61 002e 00       		.ascii	"\000"
  62 002f 00       		.section	.text.ui_main,"ax",%progbits
  63              		.align	2
  64              		.global	ui_main
  65              		.code	16
  66              		.thumb_func
  67              		.type	ui_main, %function
  68              	ui_main:
  69              	.LFB68:
  25:ui.c          **** 
  26:ui.c          **** void ui_main(int event)
  27:ui.c          **** {
  70              		.loc 1 27 0
  71              		.cfi_startproc
  72 0000 90B5     		push	{r4, r7, lr}
  73              		.cfi_def_cfa_offset 12
  74              		.cfi_offset 4, -12
  75              		.cfi_offset 7, -8
  76              		.cfi_offset 14, -4
  77 0002 85B0     		sub	sp, sp, #20
  78              		.cfi_def_cfa_offset 32
ARM GAS  C:\Users\fneves\AppData\Local\Temp\cc1UZQDu.s 			page 3


  79 0004 00AF     		add	r7, sp, #0
  80              		.cfi_def_cfa_register 7
  81 0006 7860     		str	r0, [r7, #4]
  28:ui.c          ****     system_event_t ev = (system_event_t) event;
  82              		.loc 1 28 0
  83 0008 0F23     		mov	r3, #15
  84 000a FB18     		add	r3, r7, r3
  85 000c 7A68     		ldr	r2, [r7, #4]
  86 000e 1A70     		strb	r2, [r3]
  29:ui.c          ****     
  30:ui.c          ****     switch(ev) {
  87              		.loc 1 30 0
  88 0010 0F23     		mov	r3, #15
  89 0012 FB18     		add	r3, r7, r3
  90 0014 1B78     		ldrb	r3, [r3]
  91 0016 022B     		cmp	r3, #2
  92 0018 02D0     		beq	.L4
  93 001a 062B     		cmp	r3, #6
  94 001c 2AD0     		beq	.L5
  95 001e 2DE0     		b	.L3
  96              	.L4:
  97              	.LBB2:
  31:ui.c          ****         case KRPM_READY_EVENT:
  32:ui.c          ****             pack.rpm_sample = (uint16_t) engine_afe_get_rpm();
  98              		.loc 1 32 0
  99 0020 FFF7FEFF 		bl	engine_afe_get_rpm
 100 0024 031C     		mov	r3, r0
 101 0026 9AB2     		uxth	r2, r3
 102 0028 1B4B     		ldr	r3, .L8
 103 002a 1A80     		strh	r2, [r3]
  33:ui.c          ****             
  34:ui.c          ****             sprintf(&result_buffer[0], "[MEASURED]: %d(RPM) - [at TIMESTAMP]: %d(ms)\n\r", pack.rpm
 104              		.loc 1 34 0
 105 002c 1A4B     		ldr	r3, .L8
 106 002e 1B88     		ldrh	r3, [r3]
 107 0030 1C1C     		mov	r4, r3
 108 0032 194B     		ldr	r3, .L8
 109 0034 5B68     		ldr	r3, [r3, #4]
 110 0036 1949     		ldr	r1, .L8+4
 111 0038 194A     		ldr	r2, .L8+8
 112 003a 081C     		mov	r0, r1
 113 003c 111C     		mov	r1, r2
 114 003e 221C     		mov	r2, r4
 115 0040 FFF7FEFF 		bl	sprintf
  35:ui.c          ****              
  36:ui.c          ****             if(ui_busy == 0) {
 116              		.loc 1 36 0
 117 0044 174B     		ldr	r3, .L8+12
 118 0046 1B78     		ldrb	r3, [r3]
 119 0048 002B     		cmp	r3, #0
 120 004a 12D1     		bne	.L6
  37:ui.c          ****                 /* dispatch new packet to uart if uart is free
  38:ui.c          ****                  * if not drop measure since RPM is periodic  
  39:ui.c          ****                  */
  40:ui.c          ****                 pack.timestamp++;
 121              		.loc 1 40 0
 122 004c 124B     		ldr	r3, .L8
ARM GAS  C:\Users\fneves\AppData\Local\Temp\cc1UZQDu.s 			page 4


 123 004e 5B68     		ldr	r3, [r3, #4]
 124 0050 5A1C     		add	r2, r3, #1
 125 0052 114B     		ldr	r3, .L8
 126 0054 5A60     		str	r2, [r3, #4]
  41:ui.c          ****                 engine_sensor_uart_SpiUartPutArray((uint8_t *)&result_buffer, strlen(result_buffer)
 127              		.loc 1 41 0
 128 0056 114B     		ldr	r3, .L8+4
 129 0058 181C     		mov	r0, r3
 130 005a FFF7FEFF 		bl	strlen
 131 005e 021C     		mov	r2, r0
 132 0060 0E4B     		ldr	r3, .L8+4
 133 0062 181C     		mov	r0, r3
 134 0064 111C     		mov	r1, r2
 135 0066 FFF7FEFF 		bl	engine_sensor_uart_SpiUartPutArray
  42:ui.c          ****                 ui_busy = 1;
 136              		.loc 1 42 0
 137 006a 0E4B     		ldr	r3, .L8+12
 138 006c 0122     		mov	r2, #1
 139 006e 1A70     		strb	r2, [r3]
  43:ui.c          ****             }
  44:ui.c          ****         
  45:ui.c          ****             break;
 140              		.loc 1 45 0
 141 0070 04E0     		b	.L3
 142              	.L6:
 143 0072 03E0     		b	.L3
 144              	.L5:
  46:ui.c          ****         
  47:ui.c          ****         case KENGINE_PACKET_SENT:
  48:ui.c          ****             ui_busy = 0;
 145              		.loc 1 48 0
 146 0074 0B4B     		ldr	r3, .L8+12
 147 0076 0022     		mov	r2, #0
 148 0078 1A70     		strb	r2, [r3]
  49:ui.c          ****             break;
 149              		.loc 1 49 0
 150 007a C046     		mov	r8, r8
 151              	.L3:
 152              	.LBE2:
  50:ui.c          ****     
  51:ui.c          ****     }
  52:ui.c          ****     
  53:ui.c          ****     
  54:ui.c          ****     if(ui_busy != 0){
 153              		.loc 1 54 0
 154 007c 094B     		ldr	r3, .L8+12
 155 007e 1B78     		ldrb	r3, [r3]
 156 0080 002B     		cmp	r3, #0
 157 0082 06D0     		beq	.L2
  55:ui.c          ****         if(engine_sensor_uart_SpiUartGetTxBufferSize() == 0) {
 158              		.loc 1 55 0
 159 0084 FFF7FEFF 		bl	engine_sensor_uart_SpiUartGetTxBufferSize
 160 0088 031E     		sub	r3, r0, #0
 161 008a 02D1     		bne	.L2
  56:ui.c          ****             /* packet sent, frees the uart */
  57:ui.c          ****             event_queue_put(KENGINE_PACKET_SENT);
 162              		.loc 1 57 0
ARM GAS  C:\Users\fneves\AppData\Local\Temp\cc1UZQDu.s 			page 5


 163 008c 0620     		mov	r0, #6
 164 008e FFF7FEFF 		bl	event_queue_put
 165              	.L2:
  58:ui.c          ****         }
  59:ui.c          ****     }
  60:ui.c          **** }...
 166              		.loc 1 60 0
 167 0092 BD46     		mov	sp, r7
 168 0094 05B0     		add	sp, sp, #20
 169              		@ sp needed
 170 0096 90BD     		pop	{r4, r7, pc}
 171              	.L9:
 172              		.align	2
 173              	.L8:
 174 0098 04000000 		.word	pack
 175 009c 00000000 		.word	result_buffer
 176 00a0 00000000 		.word	.LC2
 177 00a4 00000000 		.word	ui_busy
 178              		.cfi_endproc
 179              	.LFE68:
 180              		.size	ui_main, .-ui_main
 181              		.text
 182              	.Letext0:
 183              		.file 2 "c:\\program files (x86)\\cypress\\psoc creator\\4.0\\psoc creator\\import\\gnu\\arm\\4.9.
 184              		.file 3 "c:\\program files (x86)\\cypress\\psoc creator\\4.0\\psoc creator\\import\\gnu\\arm\\4.9.
 185              		.file 4 "Generated_Source\\PSoC4/cytypes.h"
 186              		.file 5 "event_queue.h"
 187              		.file 6 "ui.h"
 188              		.file 7 "<built-in>"